   1              	 .cpu cortex-m0
   2              	 .fpu softvfp
   3              	 .eabi_attribute 20,1
   4              	 .eabi_attribute 21,1
   5              	 .eabi_attribute 23,3
   6              	 .eabi_attribute 24,1
   7              	 .eabi_attribute 25,1
   8              	 .eabi_attribute 26,1
   9              	 .eabi_attribute 30,4
  10              	 .eabi_attribute 34,0
  11              	 .eabi_attribute 18,4
  12              	 .code 16
  13              	 .file "pal_crypt_mbedtls.c"
  14              	 .text
  15              	.Ltext0:
  16              	 .cfi_sections .debug_frame
  17              	 .section .text.pal_crypt_tls_prf_sha256,"ax",%progbits
  18              	 .align 1
  19              	 .global pal_crypt_tls_prf_sha256
  20              	 .code 16
  21              	 .thumb_func
  23              	pal_crypt_tls_prf_sha256:
  24              	.LFB12:
  25              	 .file 1 "C:/Workspace/DAVE-4.4.2-64Bit/optiga-trust-m/pal/pal_crypt_mbedtls.c"
   1:C:/Workspace/DAVE-4.4.2-64Bit/optiga-trust-m/pal\pal_crypt_mbedtls.c **** /**
   2:C:/Workspace/DAVE-4.4.2-64Bit/optiga-trust-m/pal\pal_crypt_mbedtls.c **** * \copyright
   3:C:/Workspace/DAVE-4.4.2-64Bit/optiga-trust-m/pal\pal_crypt_mbedtls.c **** * MIT License
   4:C:/Workspace/DAVE-4.4.2-64Bit/optiga-trust-m/pal\pal_crypt_mbedtls.c **** *
   5:C:/Workspace/DAVE-4.4.2-64Bit/optiga-trust-m/pal\pal_crypt_mbedtls.c **** * Copyright (c) 2019 Infineon Technologies AG
   6:C:/Workspace/DAVE-4.4.2-64Bit/optiga-trust-m/pal\pal_crypt_mbedtls.c **** *
   7:C:/Workspace/DAVE-4.4.2-64Bit/optiga-trust-m/pal\pal_crypt_mbedtls.c **** * Permission is hereby granted, free of charge, to any person obtaining a copy
   8:C:/Workspace/DAVE-4.4.2-64Bit/optiga-trust-m/pal\pal_crypt_mbedtls.c **** * of this software and associated documentation files (the "Software"), to deal
   9:C:/Workspace/DAVE-4.4.2-64Bit/optiga-trust-m/pal\pal_crypt_mbedtls.c **** * in the Software without restriction, including without limitation the rights
  10:C:/Workspace/DAVE-4.4.2-64Bit/optiga-trust-m/pal\pal_crypt_mbedtls.c **** * to use, copy, modify, merge, publish, distribute, sublicense, and/or sell
  11:C:/Workspace/DAVE-4.4.2-64Bit/optiga-trust-m/pal\pal_crypt_mbedtls.c **** * copies of the Software, and to permit persons to whom the Software is
  12:C:/Workspace/DAVE-4.4.2-64Bit/optiga-trust-m/pal\pal_crypt_mbedtls.c **** * furnished to do so, subject to the following conditions:
  13:C:/Workspace/DAVE-4.4.2-64Bit/optiga-trust-m/pal\pal_crypt_mbedtls.c **** *
  14:C:/Workspace/DAVE-4.4.2-64Bit/optiga-trust-m/pal\pal_crypt_mbedtls.c **** * The above copyright notice and this permission notice shall be included in all
  15:C:/Workspace/DAVE-4.4.2-64Bit/optiga-trust-m/pal\pal_crypt_mbedtls.c **** * copies or substantial portions of the Software.
  16:C:/Workspace/DAVE-4.4.2-64Bit/optiga-trust-m/pal\pal_crypt_mbedtls.c **** *
  17:C:/Workspace/DAVE-4.4.2-64Bit/optiga-trust-m/pal\pal_crypt_mbedtls.c **** * THE SOFTWARE IS PROVIDED "AS IS", WITHOUT WARRANTY OF ANY KIND, EXPRESS OR
  18:C:/Workspace/DAVE-4.4.2-64Bit/optiga-trust-m/pal\pal_crypt_mbedtls.c **** * IMPLIED, INCLUDING BUT NOT LIMITED TO THE WARRANTIES OF MERCHANTABILITY,
  19:C:/Workspace/DAVE-4.4.2-64Bit/optiga-trust-m/pal\pal_crypt_mbedtls.c **** * FITNESS FOR A PARTICULAR PURPOSE AND NONINFRINGEMENT. IN NO EVENT SHALL THE
  20:C:/Workspace/DAVE-4.4.2-64Bit/optiga-trust-m/pal\pal_crypt_mbedtls.c **** * AUTHORS OR COPYRIGHT HOLDERS BE LIABLE FOR ANY CLAIM, DAMAGES OR OTHER
  21:C:/Workspace/DAVE-4.4.2-64Bit/optiga-trust-m/pal\pal_crypt_mbedtls.c **** * LIABILITY, WHETHER IN AN ACTION OF CONTRACT, TORT OR OTHERWISE, ARISING FROM,
  22:C:/Workspace/DAVE-4.4.2-64Bit/optiga-trust-m/pal\pal_crypt_mbedtls.c **** * OUT OF OR IN CONNECTION WITH THE SOFTWARE OR THE USE OR OTHER DEALINGS IN THE
  23:C:/Workspace/DAVE-4.4.2-64Bit/optiga-trust-m/pal\pal_crypt_mbedtls.c **** * SOFTWARE
  24:C:/Workspace/DAVE-4.4.2-64Bit/optiga-trust-m/pal\pal_crypt_mbedtls.c **** *
  25:C:/Workspace/DAVE-4.4.2-64Bit/optiga-trust-m/pal\pal_crypt_mbedtls.c **** * \endcopyright
  26:C:/Workspace/DAVE-4.4.2-64Bit/optiga-trust-m/pal\pal_crypt_mbedtls.c **** *
  27:C:/Workspace/DAVE-4.4.2-64Bit/optiga-trust-m/pal\pal_crypt_mbedtls.c **** * \author Infineon Technologies AG
  28:C:/Workspace/DAVE-4.4.2-64Bit/optiga-trust-m/pal\pal_crypt_mbedtls.c **** *
  29:C:/Workspace/DAVE-4.4.2-64Bit/optiga-trust-m/pal\pal_crypt_mbedtls.c **** * \file pal_crypt_mbedtls.c
  30:C:/Workspace/DAVE-4.4.2-64Bit/optiga-trust-m/pal\pal_crypt_mbedtls.c **** *
  31:C:/Workspace/DAVE-4.4.2-64Bit/optiga-trust-m/pal\pal_crypt_mbedtls.c **** * \brief   This file implements the platform abstraction layer APIs for cryptographic functions usi
  32:C:/Workspace/DAVE-4.4.2-64Bit/optiga-trust-m/pal\pal_crypt_mbedtls.c **** *
  33:C:/Workspace/DAVE-4.4.2-64Bit/optiga-trust-m/pal\pal_crypt_mbedtls.c **** * \ingroup  grPAL
  34:C:/Workspace/DAVE-4.4.2-64Bit/optiga-trust-m/pal\pal_crypt_mbedtls.c **** *
  35:C:/Workspace/DAVE-4.4.2-64Bit/optiga-trust-m/pal\pal_crypt_mbedtls.c **** * @{
  36:C:/Workspace/DAVE-4.4.2-64Bit/optiga-trust-m/pal\pal_crypt_mbedtls.c **** */
  37:C:/Workspace/DAVE-4.4.2-64Bit/optiga-trust-m/pal\pal_crypt_mbedtls.c **** 
  38:C:/Workspace/DAVE-4.4.2-64Bit/optiga-trust-m/pal\pal_crypt_mbedtls.c **** #include "optiga/common/optiga_lib_common.h"
  39:C:/Workspace/DAVE-4.4.2-64Bit/optiga-trust-m/pal\pal_crypt_mbedtls.c **** #include "optiga/pal/pal_crypt.h"
  40:C:/Workspace/DAVE-4.4.2-64Bit/optiga-trust-m/pal\pal_crypt_mbedtls.c **** #include "optiga/pal/pal_os_memory.h"
  41:C:/Workspace/DAVE-4.4.2-64Bit/optiga-trust-m/pal\pal_crypt_mbedtls.c **** #include "mbedtls/ccm.h"
  42:C:/Workspace/DAVE-4.4.2-64Bit/optiga-trust-m/pal\pal_crypt_mbedtls.c **** #include "mbedtls/md.h"
  43:C:/Workspace/DAVE-4.4.2-64Bit/optiga-trust-m/pal\pal_crypt_mbedtls.c **** #include "mbedtls/ssl.h"
  44:C:/Workspace/DAVE-4.4.2-64Bit/optiga-trust-m/pal\pal_crypt_mbedtls.c **** #include "mbedtls/version.h"
  45:C:/Workspace/DAVE-4.4.2-64Bit/optiga-trust-m/pal\pal_crypt_mbedtls.c **** 
  46:C:/Workspace/DAVE-4.4.2-64Bit/optiga-trust-m/pal\pal_crypt_mbedtls.c **** #define PAL_CRYPT_MAX_LABEL_SEED_LENGTH     (96U)
  47:C:/Workspace/DAVE-4.4.2-64Bit/optiga-trust-m/pal\pal_crypt_mbedtls.c **** //lint --e{818, 715, 830} suppress "argument "p_pal_crypt" is not used in the implementation but ke
  48:C:/Workspace/DAVE-4.4.2-64Bit/optiga-trust-m/pal\pal_crypt_mbedtls.c **** pal_status_t pal_crypt_tls_prf_sha256(pal_crypt_t* p_pal_crypt,
  49:C:/Workspace/DAVE-4.4.2-64Bit/optiga-trust-m/pal\pal_crypt_mbedtls.c ****                                       const uint8_t * p_secret,
  50:C:/Workspace/DAVE-4.4.2-64Bit/optiga-trust-m/pal\pal_crypt_mbedtls.c ****                                       uint16_t secret_length,
  51:C:/Workspace/DAVE-4.4.2-64Bit/optiga-trust-m/pal\pal_crypt_mbedtls.c ****                                       const uint8_t * p_label,
  52:C:/Workspace/DAVE-4.4.2-64Bit/optiga-trust-m/pal\pal_crypt_mbedtls.c ****                                       uint16_t label_length,
  53:C:/Workspace/DAVE-4.4.2-64Bit/optiga-trust-m/pal\pal_crypt_mbedtls.c ****                                       const uint8_t * p_seed,
  54:C:/Workspace/DAVE-4.4.2-64Bit/optiga-trust-m/pal\pal_crypt_mbedtls.c ****                                       uint16_t seed_length,
  55:C:/Workspace/DAVE-4.4.2-64Bit/optiga-trust-m/pal\pal_crypt_mbedtls.c ****                                       uint8_t * p_derived_key,
  56:C:/Workspace/DAVE-4.4.2-64Bit/optiga-trust-m/pal\pal_crypt_mbedtls.c ****                                       uint16_t derived_key_length)
  57:C:/Workspace/DAVE-4.4.2-64Bit/optiga-trust-m/pal\pal_crypt_mbedtls.c **** {
  26              	 .loc 1 57 0
  27              	 .cfi_startproc
  28              	.LVL0:
  29 0000 F0B5     	 push {r4,r5,r6,r7,lr}
  30              	.LCFI0:
  31              	 .cfi_def_cfa_offset 20
  32              	 .cfi_offset 4,-20
  33              	 .cfi_offset 5,-16
  34              	 .cfi_offset 6,-12
  35              	 .cfi_offset 7,-8
  36              	 .cfi_offset 14,-4
  37 0002 B1B0     	 sub sp,sp,#196
  38              	.LCFI1:
  39              	 .cfi_def_cfa_offset 216
  40              	 .loc 1 57 0
  41 0004 1D1C     	 mov r5,r3
  42 0006 36AB     	 add r3,sp,#216
  43              	.LVL1:
  44 0008 1C88     	 ldrh r4,[r3]
  45 000a 38AB     	 add r3,sp,#224
  46              	.LVL2:
  47 000c 1F88     	 ldrh r7,[r3]
  58:C:/Workspace/DAVE-4.4.2-64Bit/optiga-trust-m/pal\pal_crypt_mbedtls.c ****     #define PAL_CRYPT_DIGEST_MAX_SIZE    (32U)
  59:C:/Workspace/DAVE-4.4.2-64Bit/optiga-trust-m/pal\pal_crypt_mbedtls.c **** 
  60:C:/Workspace/DAVE-4.4.2-64Bit/optiga-trust-m/pal\pal_crypt_mbedtls.c ****     pal_status_t return_value = PAL_STATUS_FAILURE;
  61:C:/Workspace/DAVE-4.4.2-64Bit/optiga-trust-m/pal\pal_crypt_mbedtls.c ****     uint8_t message_digest_length = PAL_CRYPT_DIGEST_MAX_SIZE;
  62:C:/Workspace/DAVE-4.4.2-64Bit/optiga-trust-m/pal\pal_crypt_mbedtls.c ****     uint16_t derive_key_len_index, hmac_checksum_result_index;
  63:C:/Workspace/DAVE-4.4.2-64Bit/optiga-trust-m/pal\pal_crypt_mbedtls.c ****     uint16_t hmac_result_length;
  64:C:/Workspace/DAVE-4.4.2-64Bit/optiga-trust-m/pal\pal_crypt_mbedtls.c ****     uint8_t md_hmac_temp_array[PAL_CRYPT_MAX_LABEL_SEED_LENGTH + PAL_CRYPT_DIGEST_MAX_SIZE];
  65:C:/Workspace/DAVE-4.4.2-64Bit/optiga-trust-m/pal\pal_crypt_mbedtls.c ****     uint8_t hmac_checksum_result[PAL_CRYPT_DIGEST_MAX_SIZE];
  66:C:/Workspace/DAVE-4.4.2-64Bit/optiga-trust-m/pal\pal_crypt_mbedtls.c ****     const mbedtls_md_info_t *message_digest_info;
  67:C:/Workspace/DAVE-4.4.2-64Bit/optiga-trust-m/pal\pal_crypt_mbedtls.c ****     mbedtls_md_context_t message_digest_context;
  68:C:/Workspace/DAVE-4.4.2-64Bit/optiga-trust-m/pal\pal_crypt_mbedtls.c ****     uint16_t final_seed_length = 0;
  69:C:/Workspace/DAVE-4.4.2-64Bit/optiga-trust-m/pal\pal_crypt_mbedtls.c ****        
  70:C:/Workspace/DAVE-4.4.2-64Bit/optiga-trust-m/pal\pal_crypt_mbedtls.c ****     mbedtls_md_init(&message_digest_context);
  48              	 .loc 1 70 0
  49 000e 05A8     	 add r0,sp,#20
  50              	.LVL3:
  57:C:/Workspace/DAVE-4.4.2-64Bit/optiga-trust-m/pal\pal_crypt_mbedtls.c ****     #define PAL_CRYPT_DIGEST_MAX_SIZE    (32U)
  51              	 .loc 1 57 0
  52 0010 3AAB     	 add r3,sp,#232
  53              	.LVL4:
  54 0012 1E88     	 ldrh r6,[r3]
  55 0014 0091     	 str r1,[sp]
  56 0016 0392     	 str r2,[sp,#12]
  57              	 .loc 1 70 0
  58 0018 FFF7FEFF 	 bl mbedtls_md_init
  59              	.LVL5:
  71:C:/Workspace/DAVE-4.4.2-64Bit/optiga-trust-m/pal\pal_crypt_mbedtls.c ****     
  72:C:/Workspace/DAVE-4.4.2-64Bit/optiga-trust-m/pal\pal_crypt_mbedtls.c ****     do
  73:C:/Workspace/DAVE-4.4.2-64Bit/optiga-trust-m/pal\pal_crypt_mbedtls.c ****     {
  74:C:/Workspace/DAVE-4.4.2-64Bit/optiga-trust-m/pal\pal_crypt_mbedtls.c **** #ifdef OPTIGA_LIB_DEBUG_NULL_CHECK
  75:C:/Workspace/DAVE-4.4.2-64Bit/optiga-trust-m/pal\pal_crypt_mbedtls.c ****         if ((NULL == p_secret) || (NULL == p_label) || (NULL == p_seed) || (NULL == p_derived_key))
  60              	 .loc 1 75 0
  61 001c 009B     	 ldr r3,[sp]
  62 001e 002B     	 cmp r3,#0
  63 0020 01D1     	 bne .L2
  64              	.LVL6:
  65              	.L4:
  60:C:/Workspace/DAVE-4.4.2-64Bit/optiga-trust-m/pal\pal_crypt_mbedtls.c ****     uint8_t message_digest_length = PAL_CRYPT_DIGEST_MAX_SIZE;
  66              	 .loc 1 60 0
  67 0022 0124     	 mov r4,#1
  68 0024 81E0     	 b .L3
  69              	.LVL7:
  70              	.L2:
  71              	 .loc 1 75 0 discriminator 1
  72 0026 002D     	 cmp r5,#0
  73 0028 FBD0     	 beq .L4
  74              	 .loc 1 75 0 is_stmt 0 discriminator 2
  75 002a 379B     	 ldr r3,[sp,#220]
  76 002c 002B     	 cmp r3,#0
  77 002e F8D0     	 beq .L4
  78              	 .loc 1 75 0 discriminator 3
  79 0030 399B     	 ldr r3,[sp,#228]
  80 0032 002B     	 cmp r3,#0
  81 0034 F5D0     	 beq .L4
  76:C:/Workspace/DAVE-4.4.2-64Bit/optiga-trust-m/pal\pal_crypt_mbedtls.c ****         {
  77:C:/Workspace/DAVE-4.4.2-64Bit/optiga-trust-m/pal\pal_crypt_mbedtls.c ****             break;
  78:C:/Workspace/DAVE-4.4.2-64Bit/optiga-trust-m/pal\pal_crypt_mbedtls.c ****         }
  79:C:/Workspace/DAVE-4.4.2-64Bit/optiga-trust-m/pal\pal_crypt_mbedtls.c **** #endif  //OPTIGA_LIB_DEBUG_NULL_CHECK
  80:C:/Workspace/DAVE-4.4.2-64Bit/optiga-trust-m/pal\pal_crypt_mbedtls.c **** 
  81:C:/Workspace/DAVE-4.4.2-64Bit/optiga-trust-m/pal\pal_crypt_mbedtls.c ****         if (sizeof(md_hmac_temp_array ) < (uint32_t)(message_digest_length + label_length + seed_le
  82              	 .loc 1 81 0 is_stmt 1
  83 0036 231C     	 mov r3,r4
  84 0038 2033     	 add r3,r3,#32
  85 003a 0193     	 str r3,[sp,#4]
  86 003c DB19     	 add r3,r3,r7
  87 003e 802B     	 cmp r3,#128
  88 0040 01DD     	 ble .L5
  89              	.LVL8:
  90              	.L6:
  82:C:/Workspace/DAVE-4.4.2-64Bit/optiga-trust-m/pal\pal_crypt_mbedtls.c ****         {
  83:C:/Workspace/DAVE-4.4.2-64Bit/optiga-trust-m/pal\pal_crypt_mbedtls.c ****             return_value = PAL_STATUS_INVALID_INPUT;
  91              	 .loc 1 83 0
  92 0042 0424     	 mov r4,#4
  93 0044 71E0     	 b .L3
  94              	.LVL9:
  95              	.L5:
  84:C:/Workspace/DAVE-4.4.2-64Bit/optiga-trust-m/pal\pal_crypt_mbedtls.c ****             break;
  85:C:/Workspace/DAVE-4.4.2-64Bit/optiga-trust-m/pal\pal_crypt_mbedtls.c ****         }
  86:C:/Workspace/DAVE-4.4.2-64Bit/optiga-trust-m/pal\pal_crypt_mbedtls.c **** 
  87:C:/Workspace/DAVE-4.4.2-64Bit/optiga-trust-m/pal\pal_crypt_mbedtls.c ****         message_digest_info = mbedtls_md_info_from_type(MBEDTLS_MD_SHA256);
  96              	 .loc 1 87 0
  97 0046 0620     	 mov r0,#6
  98 0048 FFF7FEFF 	 bl mbedtls_md_info_from_type
  99              	.LVL10:
  88:C:/Workspace/DAVE-4.4.2-64Bit/optiga-trust-m/pal\pal_crypt_mbedtls.c **** 
  89:C:/Workspace/DAVE-4.4.2-64Bit/optiga-trust-m/pal\pal_crypt_mbedtls.c ****         memcpy(md_hmac_temp_array + message_digest_length, p_label, label_length);
 100              	 .loc 1 89 0
 101 004c 291C     	 mov r1,r5
  87:C:/Workspace/DAVE-4.4.2-64Bit/optiga-trust-m/pal\pal_crypt_mbedtls.c **** 
 102              	 .loc 1 87 0
 103 004e 0290     	 str r0,[sp,#8]
 104              	.LVL11:
 105              	 .loc 1 89 0
 106 0050 221C     	 mov r2,r4
 107 0052 18A8     	 add r0,sp,#96
 108              	.LVL12:
 109 0054 FFF7FEFF 	 bl memcpy
 110              	.LVL13:
  90:C:/Workspace/DAVE-4.4.2-64Bit/optiga-trust-m/pal\pal_crypt_mbedtls.c ****         memcpy(md_hmac_temp_array + message_digest_length + label_length, p_seed, seed_length);
 111              	 .loc 1 90 0
 112 0058 10AA     	 add r2,sp,#64
 113 005a 9446     	 mov ip,r2
 114 005c 019B     	 ldr r3,[sp,#4]
 115 005e 3799     	 ldr r1,[sp,#220]
 116 0060 6344     	 add r3,r3,ip
 117 0062 3A1C     	 mov r2,r7
 118 0064 181C     	 mov r0,r3
 119 0066 FFF7FEFF 	 bl memcpy
 120              	.LVL14:
  91:C:/Workspace/DAVE-4.4.2-64Bit/optiga-trust-m/pal\pal_crypt_mbedtls.c ****         final_seed_length = label_length + seed_length;
  92:C:/Workspace/DAVE-4.4.2-64Bit/optiga-trust-m/pal\pal_crypt_mbedtls.c **** 
  93:C:/Workspace/DAVE-4.4.2-64Bit/optiga-trust-m/pal\pal_crypt_mbedtls.c ****         if (0 != (mbedtls_md_setup(&message_digest_context,message_digest_info,1)))
 121              	 .loc 1 93 0
 122 006a 05A8     	 add r0,sp,#20
 123 006c 0299     	 ldr r1,[sp,#8]
 124 006e 0122     	 mov r2,#1
 125 0070 FFF7FEFF 	 bl mbedtls_md_setup
 126              	.LVL15:
 127 0074 0028     	 cmp r0,#0
 128 0076 E4D1     	 bne .L6
  94:C:/Workspace/DAVE-4.4.2-64Bit/optiga-trust-m/pal\pal_crypt_mbedtls.c ****         {
  95:C:/Workspace/DAVE-4.4.2-64Bit/optiga-trust-m/pal\pal_crypt_mbedtls.c ****             return_value = PAL_STATUS_INVALID_INPUT;
  96:C:/Workspace/DAVE-4.4.2-64Bit/optiga-trust-m/pal\pal_crypt_mbedtls.c ****             break;
  97:C:/Workspace/DAVE-4.4.2-64Bit/optiga-trust-m/pal\pal_crypt_mbedtls.c ****         }
  98:C:/Workspace/DAVE-4.4.2-64Bit/optiga-trust-m/pal\pal_crypt_mbedtls.c **** 
  99:C:/Workspace/DAVE-4.4.2-64Bit/optiga-trust-m/pal\pal_crypt_mbedtls.c ****         if (0 != mbedtls_md_hmac_starts(&message_digest_context, p_secret, secret_length))
 129              	 .loc 1 99 0
 130 0078 05A8     	 add r0,sp,#20
 131 007a 0099     	 ldr r1,[sp]
 132 007c 039A     	 ldr r2,[sp,#12]
 133 007e FFF7FEFF 	 bl mbedtls_md_hmac_starts
 134              	.LVL16:
 135 0082 0028     	 cmp r0,#0
 136 0084 CDD1     	 bne .L4
  91:C:/Workspace/DAVE-4.4.2-64Bit/optiga-trust-m/pal\pal_crypt_mbedtls.c ****         final_seed_length = label_length + seed_length;
 137              	 .loc 1 91 0
 138 0086 E519     	 add r5,r4,r7
 139              	.LVL17:
 140 0088 ADB2     	 uxth r5,r5
 100:C:/Workspace/DAVE-4.4.2-64Bit/optiga-trust-m/pal\pal_crypt_mbedtls.c ****         {
 101:C:/Workspace/DAVE-4.4.2-64Bit/optiga-trust-m/pal\pal_crypt_mbedtls.c ****             break;
 102:C:/Workspace/DAVE-4.4.2-64Bit/optiga-trust-m/pal\pal_crypt_mbedtls.c ****         }
 103:C:/Workspace/DAVE-4.4.2-64Bit/optiga-trust-m/pal\pal_crypt_mbedtls.c ****        
 104:C:/Workspace/DAVE-4.4.2-64Bit/optiga-trust-m/pal\pal_crypt_mbedtls.c ****         if (0 != mbedtls_md_hmac_update(&message_digest_context, md_hmac_temp_array + message_diges
 141              	 .loc 1 104 0
 142 008a 05A8     	 add r0,sp,#20
 143 008c 18A9     	 add r1,sp,#96
 144 008e 2A1C     	 mov r2,r5
 145 0090 FFF7FEFF 	 bl mbedtls_md_hmac_update
 146              	.LVL18:
 147 0094 0028     	 cmp r0,#0
 148 0096 C4D1     	 bne .L4
 105:C:/Workspace/DAVE-4.4.2-64Bit/optiga-trust-m/pal\pal_crypt_mbedtls.c ****         {
 106:C:/Workspace/DAVE-4.4.2-64Bit/optiga-trust-m/pal\pal_crypt_mbedtls.c ****             break;
 107:C:/Workspace/DAVE-4.4.2-64Bit/optiga-trust-m/pal\pal_crypt_mbedtls.c ****         }
 108:C:/Workspace/DAVE-4.4.2-64Bit/optiga-trust-m/pal\pal_crypt_mbedtls.c ****         
 109:C:/Workspace/DAVE-4.4.2-64Bit/optiga-trust-m/pal\pal_crypt_mbedtls.c ****         if (0 != mbedtls_md_hmac_finish(&message_digest_context, md_hmac_temp_array))
 149              	 .loc 1 109 0
 150 0098 05A8     	 add r0,sp,#20
 151 009a 10A9     	 add r1,sp,#64
 152 009c FFF7FEFF 	 bl mbedtls_md_hmac_finish
 153              	.LVL19:
 154 00a0 041E     	 sub r4,r0,#0
 155              	.LVL20:
 156 00a2 BED1     	 bne .L4
 157              	.LVL21:
 158              	.L7:
 110:C:/Workspace/DAVE-4.4.2-64Bit/optiga-trust-m/pal\pal_crypt_mbedtls.c ****         {
 111:C:/Workspace/DAVE-4.4.2-64Bit/optiga-trust-m/pal\pal_crypt_mbedtls.c ****             break;
 112:C:/Workspace/DAVE-4.4.2-64Bit/optiga-trust-m/pal\pal_crypt_mbedtls.c ****         }
 113:C:/Workspace/DAVE-4.4.2-64Bit/optiga-trust-m/pal\pal_crypt_mbedtls.c **** 
 114:C:/Workspace/DAVE-4.4.2-64Bit/optiga-trust-m/pal\pal_crypt_mbedtls.c ****         for (derive_key_len_index = 0; derive_key_len_index < derived_key_length; 
 159              	 .loc 1 114 0 discriminator 1
 160 00a4 B442     	 cmp r4,r6
 161 00a6 3BD2     	 bcs .L24
 115:C:/Workspace/DAVE-4.4.2-64Bit/optiga-trust-m/pal\pal_crypt_mbedtls.c ****              derive_key_len_index += message_digest_length)
 116:C:/Workspace/DAVE-4.4.2-64Bit/optiga-trust-m/pal\pal_crypt_mbedtls.c ****         {
 117:C:/Workspace/DAVE-4.4.2-64Bit/optiga-trust-m/pal\pal_crypt_mbedtls.c ****             if (0 != mbedtls_md_hmac_reset(&message_digest_context))
 162              	 .loc 1 117 0
 163 00a8 05A8     	 add r0,sp,#20
 164 00aa FFF7FEFF 	 bl mbedtls_md_hmac_reset
 165              	.LVL22:
 166 00ae 0028     	 cmp r0,#0
 167 00b0 38D1     	 bne .L8
 118:C:/Workspace/DAVE-4.4.2-64Bit/optiga-trust-m/pal\pal_crypt_mbedtls.c ****             {
 119:C:/Workspace/DAVE-4.4.2-64Bit/optiga-trust-m/pal\pal_crypt_mbedtls.c ****                 break;
 120:C:/Workspace/DAVE-4.4.2-64Bit/optiga-trust-m/pal\pal_crypt_mbedtls.c ****             }
 121:C:/Workspace/DAVE-4.4.2-64Bit/optiga-trust-m/pal\pal_crypt_mbedtls.c ****             if (0 != mbedtls_md_hmac_update(&message_digest_context, md_hmac_temp_array, 
 168              	 .loc 1 121 0
 169 00b2 2A1C     	 mov r2,r5
 170 00b4 05A8     	 add r0,sp,#20
 171 00b6 10A9     	 add r1,sp,#64
 172 00b8 2032     	 add r2,r2,#32
 173 00ba FFF7FEFF 	 bl mbedtls_md_hmac_update
 174              	.LVL23:
 175 00be 0028     	 cmp r0,#0
 176 00c0 30D1     	 bne .L8
 122:C:/Workspace/DAVE-4.4.2-64Bit/optiga-trust-m/pal\pal_crypt_mbedtls.c ****                             message_digest_length + final_seed_length))
 123:C:/Workspace/DAVE-4.4.2-64Bit/optiga-trust-m/pal\pal_crypt_mbedtls.c ****             {
 124:C:/Workspace/DAVE-4.4.2-64Bit/optiga-trust-m/pal\pal_crypt_mbedtls.c ****                 break;                
 125:C:/Workspace/DAVE-4.4.2-64Bit/optiga-trust-m/pal\pal_crypt_mbedtls.c ****             }
 126:C:/Workspace/DAVE-4.4.2-64Bit/optiga-trust-m/pal\pal_crypt_mbedtls.c ****             if (0 != mbedtls_md_hmac_finish(&message_digest_context, hmac_checksum_result))
 177              	 .loc 1 126 0
 178 00c2 08AF     	 add r7,sp,#32
 179 00c4 05A8     	 add r0,sp,#20
 180 00c6 391C     	 mov r1,r7
 181 00c8 FFF7FEFF 	 bl mbedtls_md_hmac_finish
 182              	.LVL24:
 183 00cc 0028     	 cmp r0,#0
 184 00ce 29D1     	 bne .L8
 127:C:/Workspace/DAVE-4.4.2-64Bit/optiga-trust-m/pal\pal_crypt_mbedtls.c ****             {
 128:C:/Workspace/DAVE-4.4.2-64Bit/optiga-trust-m/pal\pal_crypt_mbedtls.c ****                 break;                                
 129:C:/Workspace/DAVE-4.4.2-64Bit/optiga-trust-m/pal\pal_crypt_mbedtls.c ****             }
 130:C:/Workspace/DAVE-4.4.2-64Bit/optiga-trust-m/pal\pal_crypt_mbedtls.c **** 
 131:C:/Workspace/DAVE-4.4.2-64Bit/optiga-trust-m/pal\pal_crypt_mbedtls.c ****             if (0 != mbedtls_md_hmac_reset(&message_digest_context))
 185              	 .loc 1 131 0
 186 00d0 05A8     	 add r0,sp,#20
 187 00d2 FFF7FEFF 	 bl mbedtls_md_hmac_reset
 188              	.LVL25:
 189 00d6 0028     	 cmp r0,#0
 190 00d8 24D1     	 bne .L8
 132:C:/Workspace/DAVE-4.4.2-64Bit/optiga-trust-m/pal\pal_crypt_mbedtls.c ****             {
 133:C:/Workspace/DAVE-4.4.2-64Bit/optiga-trust-m/pal\pal_crypt_mbedtls.c ****                 break;                
 134:C:/Workspace/DAVE-4.4.2-64Bit/optiga-trust-m/pal\pal_crypt_mbedtls.c ****             }
 135:C:/Workspace/DAVE-4.4.2-64Bit/optiga-trust-m/pal\pal_crypt_mbedtls.c ****             if (0 != mbedtls_md_hmac_update(&message_digest_context, md_hmac_temp_array, message_di
 191              	 .loc 1 135 0
 192 00da 05A8     	 add r0,sp,#20
 193 00dc 10A9     	 add r1,sp,#64
 194 00de 2022     	 mov r2,#32
 195 00e0 FFF7FEFF 	 bl mbedtls_md_hmac_update
 196              	.LVL26:
 197 00e4 0028     	 cmp r0,#0
 198 00e6 1DD1     	 bne .L8
 136:C:/Workspace/DAVE-4.4.2-64Bit/optiga-trust-m/pal\pal_crypt_mbedtls.c ****             {
 137:C:/Workspace/DAVE-4.4.2-64Bit/optiga-trust-m/pal\pal_crypt_mbedtls.c ****                 break;                                
 138:C:/Workspace/DAVE-4.4.2-64Bit/optiga-trust-m/pal\pal_crypt_mbedtls.c ****             }
 139:C:/Workspace/DAVE-4.4.2-64Bit/optiga-trust-m/pal\pal_crypt_mbedtls.c ****             if (0 != mbedtls_md_hmac_finish(&message_digest_context, md_hmac_temp_array))
 199              	 .loc 1 139 0
 200 00e8 05A8     	 add r0,sp,#20
 201 00ea 10A9     	 add r1,sp,#64
 202 00ec FFF7FEFF 	 bl mbedtls_md_hmac_finish
 203              	.LVL27:
 204 00f0 0028     	 cmp r0,#0
 205 00f2 17D1     	 bne .L8
 140:C:/Workspace/DAVE-4.4.2-64Bit/optiga-trust-m/pal\pal_crypt_mbedtls.c ****             {
 141:C:/Workspace/DAVE-4.4.2-64Bit/optiga-trust-m/pal\pal_crypt_mbedtls.c ****                 break;                                
 142:C:/Workspace/DAVE-4.4.2-64Bit/optiga-trust-m/pal\pal_crypt_mbedtls.c ****             }
 143:C:/Workspace/DAVE-4.4.2-64Bit/optiga-trust-m/pal\pal_crypt_mbedtls.c **** 
 144:C:/Workspace/DAVE-4.4.2-64Bit/optiga-trust-m/pal\pal_crypt_mbedtls.c ****             hmac_result_length = ((derive_key_len_index + message_digest_length) > derived_key_leng
 206              	 .loc 1 144 0
 207 00f4 211C     	 mov r1,r4
 208 00f6 2023     	 mov r3,#32
 209 00f8 2031     	 add r1,r1,#32
 210 00fa 0093     	 str r3,[sp]
 211 00fc B142     	 cmp r1,r6
 212 00fe 02DD     	 ble .L9
 145:C:/Workspace/DAVE-4.4.2-64Bit/optiga-trust-m/pal\pal_crypt_mbedtls.c ****                                   (derived_key_length % message_digest_length) : (message_digest_le
 213              	 .loc 1 145 0 discriminator 1
 214 0100 1F22     	 mov r2,#31
 215 0102 3240     	 and r2,r6
 216 0104 0092     	 str r2,[sp]
 217              	.L9:
 218              	.LVL28:
 146:C:/Workspace/DAVE-4.4.2-64Bit/optiga-trust-m/pal\pal_crypt_mbedtls.c **** 
 147:C:/Workspace/DAVE-4.4.2-64Bit/optiga-trust-m/pal\pal_crypt_mbedtls.c ****             for (hmac_checksum_result_index = 0; hmac_checksum_result_index < hmac_result_length; 
 219              	 .loc 1 147 0 discriminator 4
 220 0106 0023     	 mov r3,#0
 221              	.LVL29:
 222              	.L10:
 223              	 .loc 1 147 0 is_stmt 0 discriminator 1
 224 0108 009A     	 ldr r2,[sp]
 225 010a 98B2     	 uxth r0,r3
 226 010c 9042     	 cmp r0,r2
 227 010e 05D2     	 bcs .L25
 228 0110 3998     	 ldr r0,[sp,#228]
 229 0112 0219     	 add r2,r0,r4
 148:C:/Workspace/DAVE-4.4.2-64Bit/optiga-trust-m/pal\pal_crypt_mbedtls.c ****                  hmac_checksum_result_index++)
 149:C:/Workspace/DAVE-4.4.2-64Bit/optiga-trust-m/pal\pal_crypt_mbedtls.c ****             {
 150:C:/Workspace/DAVE-4.4.2-64Bit/optiga-trust-m/pal\pal_crypt_mbedtls.c ****                 p_derived_key[derive_key_len_index + hmac_checksum_result_index] = 
 230              	 .loc 1 150 0 is_stmt 1
 231 0114 F85C     	 ldrb r0,[r7,r3]
 232 0116 D054     	 strb r0,[r2,r3]
 233              	.LVL30:
 234 0118 0133     	 add r3,r3,#1
 235              	.LVL31:
 236 011a F5E7     	 b .L10
 237              	.LVL32:
 238              	.L25:
 115:C:/Workspace/DAVE-4.4.2-64Bit/optiga-trust-m/pal\pal_crypt_mbedtls.c ****         {
 239              	 .loc 1 115 0
 240 011c 8CB2     	 uxth r4,r1
 241              	.LVL33:
 242 011e C1E7     	 b .L7
 243              	.LVL34:
 244              	.L24:
 151:C:/Workspace/DAVE-4.4.2-64Bit/optiga-trust-m/pal\pal_crypt_mbedtls.c ****                                                                     hmac_checksum_result[hmac_check
 152:C:/Workspace/DAVE-4.4.2-64Bit/optiga-trust-m/pal\pal_crypt_mbedtls.c ****             }
 153:C:/Workspace/DAVE-4.4.2-64Bit/optiga-trust-m/pal\pal_crypt_mbedtls.c ****         }
 154:C:/Workspace/DAVE-4.4.2-64Bit/optiga-trust-m/pal\pal_crypt_mbedtls.c ****         if (derive_key_len_index >= derived_key_length)
 155:C:/Workspace/DAVE-4.4.2-64Bit/optiga-trust-m/pal\pal_crypt_mbedtls.c ****         {
 156:C:/Workspace/DAVE-4.4.2-64Bit/optiga-trust-m/pal\pal_crypt_mbedtls.c ****             return_value = PAL_STATUS_SUCCESS;
 245              	 .loc 1 156 0
 246 0120 0024     	 mov r4,#0
 247              	.LVL35:
 248 0122 02E0     	 b .L3
 249              	.LVL36:
 250              	.L8:
  60:C:/Workspace/DAVE-4.4.2-64Bit/optiga-trust-m/pal\pal_crypt_mbedtls.c ****     uint8_t message_digest_length = PAL_CRYPT_DIGEST_MAX_SIZE;
 251              	 .loc 1 60 0
 252 0124 B442     	 cmp r4,r6
 253 0126 A441     	 sbc r4,r4,r4
 254              	.LVL37:
 255 0128 6442     	 neg r4,r4
 256              	.LVL38:
 257              	.L3:
 157:C:/Workspace/DAVE-4.4.2-64Bit/optiga-trust-m/pal\pal_crypt_mbedtls.c ****         }
 158:C:/Workspace/DAVE-4.4.2-64Bit/optiga-trust-m/pal\pal_crypt_mbedtls.c ****     } while (FALSE);
 159:C:/Workspace/DAVE-4.4.2-64Bit/optiga-trust-m/pal\pal_crypt_mbedtls.c ****     
 160:C:/Workspace/DAVE-4.4.2-64Bit/optiga-trust-m/pal\pal_crypt_mbedtls.c ****     mbedtls_md_free(&message_digest_context);
 258              	 .loc 1 160 0
 259 012a 05A8     	 add r0,sp,#20
 260 012c FFF7FEFF 	 bl mbedtls_md_free
 261              	.LVL39:
 161:C:/Workspace/DAVE-4.4.2-64Bit/optiga-trust-m/pal\pal_crypt_mbedtls.c **** 
 162:C:/Workspace/DAVE-4.4.2-64Bit/optiga-trust-m/pal\pal_crypt_mbedtls.c ****     memset(md_hmac_temp_array, 0x00, sizeof(md_hmac_temp_array));
 262              	 .loc 1 162 0
 263 0130 10A8     	 add r0,sp,#64
 264 0132 0021     	 mov r1,#0
 265 0134 8022     	 mov r2,#128
 266 0136 FFF7FEFF 	 bl memset
 267              	.LVL40:
 163:C:/Workspace/DAVE-4.4.2-64Bit/optiga-trust-m/pal\pal_crypt_mbedtls.c ****     memset(hmac_checksum_result, 0x00, sizeof(hmac_checksum_result));    
 268              	 .loc 1 163 0
 269 013a 08A8     	 add r0,sp,#32
 270 013c 0021     	 mov r1,#0
 271 013e 2022     	 mov r2,#32
 272 0140 FFF7FEFF 	 bl memset
 273              	.LVL41:
 164:C:/Workspace/DAVE-4.4.2-64Bit/optiga-trust-m/pal\pal_crypt_mbedtls.c ****     #undef PAL_CRYPT_DIGEST_MAX_SIZE
 165:C:/Workspace/DAVE-4.4.2-64Bit/optiga-trust-m/pal\pal_crypt_mbedtls.c ****     return return_value;
 166:C:/Workspace/DAVE-4.4.2-64Bit/optiga-trust-m/pal\pal_crypt_mbedtls.c **** }
 274              	 .loc 1 166 0
 275 0144 201C     	 mov r0,r4
 276 0146 31B0     	 add sp,sp,#196
 277              	 
 278              	.LVL42:
 279 0148 F0BD     	 pop {r4,r5,r6,r7,pc}
 280              	 .cfi_endproc
 281              	.LFE12:
 283              	 .section .text.pal_crypt_encrypt_aes128_ccm,"ax",%progbits
 284              	 .align 1
 285              	 .global pal_crypt_encrypt_aes128_ccm
 286              	 .code 16
 287              	 .thumb_func
 289              	pal_crypt_encrypt_aes128_ccm:
 290              	.LFB13:
 167:C:/Workspace/DAVE-4.4.2-64Bit/optiga-trust-m/pal\pal_crypt_mbedtls.c **** 
 168:C:/Workspace/DAVE-4.4.2-64Bit/optiga-trust-m/pal\pal_crypt_mbedtls.c **** //lint --e{818, 715, 830} suppress "argument "p_pal_crypt" is not used in the implementation but ke
 169:C:/Workspace/DAVE-4.4.2-64Bit/optiga-trust-m/pal\pal_crypt_mbedtls.c **** pal_status_t pal_crypt_encrypt_aes128_ccm(pal_crypt_t* p_pal_crypt,
 170:C:/Workspace/DAVE-4.4.2-64Bit/optiga-trust-m/pal\pal_crypt_mbedtls.c ****                                           const uint8_t * p_plain_text,
 171:C:/Workspace/DAVE-4.4.2-64Bit/optiga-trust-m/pal\pal_crypt_mbedtls.c ****                                           uint16_t plain_text_length,
 172:C:/Workspace/DAVE-4.4.2-64Bit/optiga-trust-m/pal\pal_crypt_mbedtls.c ****                                           const uint8_t * p_encrypt_key,
 173:C:/Workspace/DAVE-4.4.2-64Bit/optiga-trust-m/pal\pal_crypt_mbedtls.c ****                                           const uint8_t * p_nonce,
 174:C:/Workspace/DAVE-4.4.2-64Bit/optiga-trust-m/pal\pal_crypt_mbedtls.c ****                                           uint16_t nonce_length,
 175:C:/Workspace/DAVE-4.4.2-64Bit/optiga-trust-m/pal\pal_crypt_mbedtls.c ****                                           const uint8_t * p_associated_data,
 176:C:/Workspace/DAVE-4.4.2-64Bit/optiga-trust-m/pal\pal_crypt_mbedtls.c ****                                           uint16_t associated_data_length,
 177:C:/Workspace/DAVE-4.4.2-64Bit/optiga-trust-m/pal\pal_crypt_mbedtls.c ****                                           uint8_t mac_size,
 178:C:/Workspace/DAVE-4.4.2-64Bit/optiga-trust-m/pal\pal_crypt_mbedtls.c ****                                           uint8_t * p_cipher_text)
 179:C:/Workspace/DAVE-4.4.2-64Bit/optiga-trust-m/pal\pal_crypt_mbedtls.c **** {
 291              	 .loc 1 179 0
 292              	 .cfi_startproc
 293              	.LVL43:
 294 0000 F0B5     	 push {r4,r5,r6,r7,lr}
 295              	.LCFI2:
 296              	 .cfi_def_cfa_offset 20
 297              	 .cfi_offset 4,-20
 298              	 .cfi_offset 5,-16
 299              	 .cfi_offset 6,-12
 300              	 .cfi_offset 7,-8
 301              	 .cfi_offset 14,-4
 302 0002 9DB0     	 sub sp,sp,#116
 303              	.LCFI3:
 304              	 .cfi_def_cfa_offset 136
 305              	 .loc 1 179 0
 306 0004 1F1C     	 mov r7,r3
 307 0006 22AB     	 add r3,sp,#136
 308              	.LVL44:
 309 0008 20CB     	 ldmia r3!,{r5}
 310              	.LVL45:
 180:C:/Workspace/DAVE-4.4.2-64Bit/optiga-trust-m/pal\pal_crypt_mbedtls.c ****     #define AES128_KEY_BITS_SIZE    (16U)
 181:C:/Workspace/DAVE-4.4.2-64Bit/optiga-trust-m/pal\pal_crypt_mbedtls.c ****     #define MAC_TAG_BUFFER_SIZE     (16U)
 182:C:/Workspace/DAVE-4.4.2-64Bit/optiga-trust-m/pal\pal_crypt_mbedtls.c ****     
 183:C:/Workspace/DAVE-4.4.2-64Bit/optiga-trust-m/pal\pal_crypt_mbedtls.c ****     pal_status_t return_status = PAL_STATUS_FAILURE;
 184:C:/Workspace/DAVE-4.4.2-64Bit/optiga-trust-m/pal\pal_crypt_mbedtls.c ****     uint8_t mac_output[MAC_TAG_BUFFER_SIZE];
 185:C:/Workspace/DAVE-4.4.2-64Bit/optiga-trust-m/pal\pal_crypt_mbedtls.c ****     mbedtls_ccm_context sEncrypt;
 186:C:/Workspace/DAVE-4.4.2-64Bit/optiga-trust-m/pal\pal_crypt_mbedtls.c **** 
 187:C:/Workspace/DAVE-4.4.2-64Bit/optiga-trust-m/pal\pal_crypt_mbedtls.c ****     mbedtls_ccm_init(&sEncrypt);
 311              	 .loc 1 187 0
 312 000a 0EA8     	 add r0,sp,#56
 313              	.LVL46:
 179:C:/Workspace/DAVE-4.4.2-64Bit/optiga-trust-m/pal\pal_crypt_mbedtls.c ****     #define AES128_KEY_BITS_SIZE    (16U)
 314              	 .loc 1 179 0
 315 000c 1B88     	 ldrh r3,[r3]
 316              	.LVL47:
 317 000e 0E1C     	 mov r6,r1
 318 0010 0893     	 str r3,[sp,#32]
 319 0012 25AB     	 add r3,sp,#148
 320              	.LVL48:
 321 0014 1B88     	 ldrh r3,[r3]
 322              	.LVL49:
 323 0016 141C     	 mov r4,r2
 324 0018 0993     	 str r3,[sp,#36]
 325 001a 26AB     	 add r3,sp,#152
 326              	.LVL50:
 327 001c 1B78     	 ldrb r3,[r3]
 328              	.LVL51:
 329 001e 0793     	 str r3,[sp,#28]
 330              	 .loc 1 187 0
 331 0020 FFF7FEFF 	 bl mbedtls_ccm_init
 332              	.LVL52:
 188:C:/Workspace/DAVE-4.4.2-64Bit/optiga-trust-m/pal\pal_crypt_mbedtls.c **** 
 189:C:/Workspace/DAVE-4.4.2-64Bit/optiga-trust-m/pal\pal_crypt_mbedtls.c ****     do
 190:C:/Workspace/DAVE-4.4.2-64Bit/optiga-trust-m/pal\pal_crypt_mbedtls.c ****     {
 191:C:/Workspace/DAVE-4.4.2-64Bit/optiga-trust-m/pal\pal_crypt_mbedtls.c **** #ifdef OPTIGA_LIB_DEBUG_NULL_CHECK
 192:C:/Workspace/DAVE-4.4.2-64Bit/optiga-trust-m/pal\pal_crypt_mbedtls.c ****         if ((NULL == p_cipher_text) || (NULL == p_plain_text) ||
 333              	 .loc 1 192 0
 334 0024 279B     	 ldr r3,[sp,#156]
 335 0026 002B     	 cmp r3,#0
 336 0028 01D1     	 bne .L27
 337              	.LVL53:
 338              	.L29:
 183:C:/Workspace/DAVE-4.4.2-64Bit/optiga-trust-m/pal\pal_crypt_mbedtls.c ****     uint8_t mac_output[MAC_TAG_BUFFER_SIZE];
 339              	 .loc 1 183 0
 340 002a 0125     	 mov r5,#1
 341 002c 29E0     	 b .L28
 342              	.LVL54:
 343              	.L27:
 344              	 .loc 1 192 0 discriminator 1
 345 002e 002E     	 cmp r6,#0
 346 0030 FBD0     	 beq .L29
 347              	 .loc 1 192 0 is_stmt 0 discriminator 2
 348 0032 002D     	 cmp r5,#0
 349 0034 F9D0     	 beq .L29
 193:C:/Workspace/DAVE-4.4.2-64Bit/optiga-trust-m/pal\pal_crypt_mbedtls.c ****             (NULL == p_nonce) || (NULL == p_associated_data) || (NULL == p_encrypt_key))
 350              	 .loc 1 193 0 is_stmt 1
 351 0036 249B     	 ldr r3,[sp,#144]
 352 0038 002B     	 cmp r3,#0
 353 003a F6D0     	 beq .L29
 354              	 .loc 1 193 0 is_stmt 0 discriminator 1
 355 003c 002F     	 cmp r7,#0
 356 003e F4D0     	 beq .L29
 194:C:/Workspace/DAVE-4.4.2-64Bit/optiga-trust-m/pal\pal_crypt_mbedtls.c ****         {
 195:C:/Workspace/DAVE-4.4.2-64Bit/optiga-trust-m/pal\pal_crypt_mbedtls.c ****             break;
 196:C:/Workspace/DAVE-4.4.2-64Bit/optiga-trust-m/pal\pal_crypt_mbedtls.c ****         }
 197:C:/Workspace/DAVE-4.4.2-64Bit/optiga-trust-m/pal\pal_crypt_mbedtls.c **** #endif
 198:C:/Workspace/DAVE-4.4.2-64Bit/optiga-trust-m/pal\pal_crypt_mbedtls.c **** 
 199:C:/Workspace/DAVE-4.4.2-64Bit/optiga-trust-m/pal\pal_crypt_mbedtls.c ****         if (0 != mbedtls_ccm_setkey(&sEncrypt, MBEDTLS_CIPHER_ID_AES, p_encrypt_key, 8 * AES128_KEY
 357              	 .loc 1 199 0 is_stmt 1
 358 0040 0EA8     	 add r0,sp,#56
 359 0042 0221     	 mov r1,#2
 360 0044 3A1C     	 mov r2,r7
 361 0046 8023     	 mov r3,#128
 362 0048 FFF7FEFF 	 bl mbedtls_ccm_setkey
 363              	.LVL55:
 364 004c 0028     	 cmp r0,#0
 365 004e ECD1     	 bne .L29
 200:C:/Workspace/DAVE-4.4.2-64Bit/optiga-trust-m/pal\pal_crypt_mbedtls.c ****         {
 201:C:/Workspace/DAVE-4.4.2-64Bit/optiga-trust-m/pal\pal_crypt_mbedtls.c ****             break;
 202:C:/Workspace/DAVE-4.4.2-64Bit/optiga-trust-m/pal\pal_crypt_mbedtls.c ****         }
 203:C:/Workspace/DAVE-4.4.2-64Bit/optiga-trust-m/pal\pal_crypt_mbedtls.c ****         
 204:C:/Workspace/DAVE-4.4.2-64Bit/optiga-trust-m/pal\pal_crypt_mbedtls.c ****         if (0 != mbedtls_ccm_encrypt_and_tag(&sEncrypt,
 366              	 .loc 1 204 0
 367 0050 249B     	 ldr r3,[sp,#144]
 368 0052 0296     	 str r6,[sp,#8]
 369 0054 0093     	 str r3,[sp]
 370 0056 099B     	 ldr r3,[sp,#36]
 371 0058 0AAE     	 add r6,sp,#40
 372              	.LVL56:
 373 005a 0193     	 str r3,[sp,#4]
 374 005c 279B     	 ldr r3,[sp,#156]
 375 005e 2A1C     	 mov r2,r5
 376 0060 0393     	 str r3,[sp,#12]
 377 0062 079B     	 ldr r3,[sp,#28]
 378 0064 0496     	 str r6,[sp,#16]
 379 0066 0593     	 str r3,[sp,#20]
 380 0068 0EA8     	 add r0,sp,#56
 381 006a 211C     	 mov r1,r4
 382 006c 089B     	 ldr r3,[sp,#32]
 383 006e FFF7FEFF 	 bl mbedtls_ccm_encrypt_and_tag
 384              	.LVL57:
 385 0072 051E     	 sub r5,r0,#0
 386 0074 D9D1     	 bne .L29
 205:C:/Workspace/DAVE-4.4.2-64Bit/optiga-trust-m/pal\pal_crypt_mbedtls.c ****                                               plain_text_length,
 206:C:/Workspace/DAVE-4.4.2-64Bit/optiga-trust-m/pal\pal_crypt_mbedtls.c ****                                               p_nonce,
 207:C:/Workspace/DAVE-4.4.2-64Bit/optiga-trust-m/pal\pal_crypt_mbedtls.c ****                                               nonce_length,
 208:C:/Workspace/DAVE-4.4.2-64Bit/optiga-trust-m/pal\pal_crypt_mbedtls.c ****                                               p_associated_data,
 209:C:/Workspace/DAVE-4.4.2-64Bit/optiga-trust-m/pal\pal_crypt_mbedtls.c ****                                               associated_data_length,
 210:C:/Workspace/DAVE-4.4.2-64Bit/optiga-trust-m/pal\pal_crypt_mbedtls.c ****                                               p_plain_text,
 211:C:/Workspace/DAVE-4.4.2-64Bit/optiga-trust-m/pal\pal_crypt_mbedtls.c ****                                               p_cipher_text,
 212:C:/Workspace/DAVE-4.4.2-64Bit/optiga-trust-m/pal\pal_crypt_mbedtls.c ****                                               mac_output,
 213:C:/Workspace/DAVE-4.4.2-64Bit/optiga-trust-m/pal\pal_crypt_mbedtls.c ****                                               mac_size))
 214:C:/Workspace/DAVE-4.4.2-64Bit/optiga-trust-m/pal\pal_crypt_mbedtls.c ****         
 215:C:/Workspace/DAVE-4.4.2-64Bit/optiga-trust-m/pal\pal_crypt_mbedtls.c ****         {
 216:C:/Workspace/DAVE-4.4.2-64Bit/optiga-trust-m/pal\pal_crypt_mbedtls.c ****             break;
 217:C:/Workspace/DAVE-4.4.2-64Bit/optiga-trust-m/pal\pal_crypt_mbedtls.c ****         }
 218:C:/Workspace/DAVE-4.4.2-64Bit/optiga-trust-m/pal\pal_crypt_mbedtls.c **** 
 219:C:/Workspace/DAVE-4.4.2-64Bit/optiga-trust-m/pal\pal_crypt_mbedtls.c ****         memcpy((p_cipher_text + plain_text_length), mac_output, mac_size);
 387              	 .loc 1 219 0
 388 0076 279B     	 ldr r3,[sp,#156]
 389 0078 311C     	 mov r1,r6
 390 007a 1819     	 add r0,r3,r4
 391 007c 079A     	 ldr r2,[sp,#28]
 392 007e FFF7FEFF 	 bl memcpy
 393              	.LVL58:
 394              	.L28:
 220:C:/Workspace/DAVE-4.4.2-64Bit/optiga-trust-m/pal\pal_crypt_mbedtls.c ****         return_status = PAL_STATUS_SUCCESS;
 221:C:/Workspace/DAVE-4.4.2-64Bit/optiga-trust-m/pal\pal_crypt_mbedtls.c ****     } while (FALSE);
 222:C:/Workspace/DAVE-4.4.2-64Bit/optiga-trust-m/pal\pal_crypt_mbedtls.c ****     mbedtls_ccm_free(&sEncrypt);
 395              	 .loc 1 222 0
 396 0082 0EA8     	 add r0,sp,#56
 397 0084 FFF7FEFF 	 bl mbedtls_ccm_free
 398              	.LVL59:
 223:C:/Workspace/DAVE-4.4.2-64Bit/optiga-trust-m/pal\pal_crypt_mbedtls.c ****     #undef AES128_KEY_BITS_SIZE
 224:C:/Workspace/DAVE-4.4.2-64Bit/optiga-trust-m/pal\pal_crypt_mbedtls.c ****     #undef MAC_TAG_BUFFER_SIZE    
 225:C:/Workspace/DAVE-4.4.2-64Bit/optiga-trust-m/pal\pal_crypt_mbedtls.c ****     return return_status;
 226:C:/Workspace/DAVE-4.4.2-64Bit/optiga-trust-m/pal\pal_crypt_mbedtls.c **** }
 399              	 .loc 1 226 0
 400 0088 281C     	 mov r0,r5
 401 008a 1DB0     	 add sp,sp,#116
 402              	 
 403              	.LVL60:
 404              	.LVL61:
 405 008c F0BD     	 pop {r4,r5,r6,r7,pc}
 406              	 .cfi_endproc
 407              	.LFE13:
 409              	 .section .text.pal_crypt_decrypt_aes128_ccm,"ax",%progbits
 410              	 .align 1
 411              	 .global pal_crypt_decrypt_aes128_ccm
 412              	 .code 16
 413              	 .thumb_func
 415              	pal_crypt_decrypt_aes128_ccm:
 416              	.LFB14:
 227:C:/Workspace/DAVE-4.4.2-64Bit/optiga-trust-m/pal\pal_crypt_mbedtls.c **** 
 228:C:/Workspace/DAVE-4.4.2-64Bit/optiga-trust-m/pal\pal_crypt_mbedtls.c **** //lint --e{818, 715, 830} suppress "argument "p_pal_crypt" is not used in the implementation but ke
 229:C:/Workspace/DAVE-4.4.2-64Bit/optiga-trust-m/pal\pal_crypt_mbedtls.c **** pal_status_t pal_crypt_decrypt_aes128_ccm(pal_crypt_t* p_pal_crypt,
 230:C:/Workspace/DAVE-4.4.2-64Bit/optiga-trust-m/pal\pal_crypt_mbedtls.c ****                                           const uint8_t * p_cipher_text,
 231:C:/Workspace/DAVE-4.4.2-64Bit/optiga-trust-m/pal\pal_crypt_mbedtls.c ****                                           uint16_t cipher_text_length,
 232:C:/Workspace/DAVE-4.4.2-64Bit/optiga-trust-m/pal\pal_crypt_mbedtls.c ****                                           const uint8_t * p_decrypt_key,
 233:C:/Workspace/DAVE-4.4.2-64Bit/optiga-trust-m/pal\pal_crypt_mbedtls.c ****                                           const uint8_t * p_nonce,
 234:C:/Workspace/DAVE-4.4.2-64Bit/optiga-trust-m/pal\pal_crypt_mbedtls.c ****                                           uint16_t nonce_length,
 235:C:/Workspace/DAVE-4.4.2-64Bit/optiga-trust-m/pal\pal_crypt_mbedtls.c ****                                           const uint8_t * p_associated_data,
 236:C:/Workspace/DAVE-4.4.2-64Bit/optiga-trust-m/pal\pal_crypt_mbedtls.c ****                                           uint16_t associated_data_length,
 237:C:/Workspace/DAVE-4.4.2-64Bit/optiga-trust-m/pal\pal_crypt_mbedtls.c ****                                           uint8_t mac_size,
 238:C:/Workspace/DAVE-4.4.2-64Bit/optiga-trust-m/pal\pal_crypt_mbedtls.c ****                                           uint8_t * p_plain_text)
 239:C:/Workspace/DAVE-4.4.2-64Bit/optiga-trust-m/pal\pal_crypt_mbedtls.c **** {
 417              	 .loc 1 239 0
 418              	 .cfi_startproc
 419              	.LVL62:
 420 0000 F0B5     	 push {r4,r5,r6,r7,lr}
 421              	.LCFI4:
 422              	 .cfi_def_cfa_offset 20
 423              	 .cfi_offset 4,-20
 424              	 .cfi_offset 5,-16
 425              	 .cfi_offset 6,-12
 426              	 .cfi_offset 7,-8
 427              	 .cfi_offset 14,-4
 428 0002 99B0     	 sub sp,sp,#100
 429              	.LCFI5:
 430              	 .cfi_def_cfa_offset 120
 431              	 .loc 1 239 0
 432 0004 1F1C     	 mov r7,r3
 433 0006 1EAB     	 add r3,sp,#120
 434              	.LVL63:
 435 0008 20CB     	 ldmia r3!,{r5}
 436              	.LVL64:
 240:C:/Workspace/DAVE-4.4.2-64Bit/optiga-trust-m/pal\pal_crypt_mbedtls.c ****     #define AES128_KEY_BITS_SIZE    (16U)
 241:C:/Workspace/DAVE-4.4.2-64Bit/optiga-trust-m/pal\pal_crypt_mbedtls.c ****     pal_status_t return_status = PAL_STATUS_FAILURE;
 242:C:/Workspace/DAVE-4.4.2-64Bit/optiga-trust-m/pal\pal_crypt_mbedtls.c ****     mbedtls_ccm_context sDecrypt;
 243:C:/Workspace/DAVE-4.4.2-64Bit/optiga-trust-m/pal\pal_crypt_mbedtls.c **** 
 244:C:/Workspace/DAVE-4.4.2-64Bit/optiga-trust-m/pal\pal_crypt_mbedtls.c ****     mbedtls_ccm_init(&sDecrypt);
 437              	 .loc 1 244 0
 438 000a 0AA8     	 add r0,sp,#40
 439              	.LVL65:
 239:C:/Workspace/DAVE-4.4.2-64Bit/optiga-trust-m/pal\pal_crypt_mbedtls.c ****     #define AES128_KEY_BITS_SIZE    (16U)
 440              	 .loc 1 239 0
 441 000c 1B88     	 ldrh r3,[r3]
 442              	.LVL66:
 443 000e 0C1C     	 mov r4,r1
 444 0010 0893     	 str r3,[sp,#32]
 445 0012 21AB     	 add r3,sp,#132
 446              	.LVL67:
 447 0014 1B88     	 ldrh r3,[r3]
 448              	.LVL68:
 449 0016 0792     	 str r2,[sp,#28]
 450 0018 0993     	 str r3,[sp,#36]
 451 001a 22AB     	 add r3,sp,#136
 452              	.LVL69:
 453 001c 1E78     	 ldrb r6,[r3]
 454              	 .loc 1 244 0
 455 001e FFF7FEFF 	 bl mbedtls_ccm_init
 456              	.LVL70:
 245:C:/Workspace/DAVE-4.4.2-64Bit/optiga-trust-m/pal\pal_crypt_mbedtls.c **** 
 246:C:/Workspace/DAVE-4.4.2-64Bit/optiga-trust-m/pal\pal_crypt_mbedtls.c ****     do
 247:C:/Workspace/DAVE-4.4.2-64Bit/optiga-trust-m/pal\pal_crypt_mbedtls.c ****     {
 248:C:/Workspace/DAVE-4.4.2-64Bit/optiga-trust-m/pal\pal_crypt_mbedtls.c **** #ifdef OPTIGA_LIB_DEBUG_NULL_CHECK
 249:C:/Workspace/DAVE-4.4.2-64Bit/optiga-trust-m/pal\pal_crypt_mbedtls.c ****         if ((NULL == p_plain_text) || (NULL == p_cipher_text) ||
 457              	 .loc 1 249 0
 458 0022 239B     	 ldr r3,[sp,#140]
 459 0024 002B     	 cmp r3,#0
 460 0026 01D1     	 bne .L43
 461              	.L45:
 241:C:/Workspace/DAVE-4.4.2-64Bit/optiga-trust-m/pal\pal_crypt_mbedtls.c ****     mbedtls_ccm_context sDecrypt;
 462              	 .loc 1 241 0
 463 0028 0124     	 mov r4,#1
 464              	.LVL71:
 465 002a 24E0     	 b .L44
 466              	.LVL72:
 467              	.L43:
 468              	 .loc 1 249 0 discriminator 1
 469 002c 002C     	 cmp r4,#0
 470 002e FBD0     	 beq .L45
 471              	 .loc 1 249 0 is_stmt 0 discriminator 2
 472 0030 002D     	 cmp r5,#0
 473 0032 F9D0     	 beq .L45
 250:C:/Workspace/DAVE-4.4.2-64Bit/optiga-trust-m/pal\pal_crypt_mbedtls.c ****             (NULL == p_nonce) || (NULL == p_associated_data) || (NULL == p_decrypt_key))
 474              	 .loc 1 250 0 is_stmt 1
 475 0034 209B     	 ldr r3,[sp,#128]
 476 0036 002B     	 cmp r3,#0
 477 0038 F6D0     	 beq .L45
 478              	 .loc 1 250 0 is_stmt 0 discriminator 1
 479 003a 002F     	 cmp r7,#0
 480 003c F4D0     	 beq .L45
 251:C:/Workspace/DAVE-4.4.2-64Bit/optiga-trust-m/pal\pal_crypt_mbedtls.c ****         {
 252:C:/Workspace/DAVE-4.4.2-64Bit/optiga-trust-m/pal\pal_crypt_mbedtls.c ****             break;
 253:C:/Workspace/DAVE-4.4.2-64Bit/optiga-trust-m/pal\pal_crypt_mbedtls.c ****         }
 254:C:/Workspace/DAVE-4.4.2-64Bit/optiga-trust-m/pal\pal_crypt_mbedtls.c **** #endif
 255:C:/Workspace/DAVE-4.4.2-64Bit/optiga-trust-m/pal\pal_crypt_mbedtls.c **** 
 256:C:/Workspace/DAVE-4.4.2-64Bit/optiga-trust-m/pal\pal_crypt_mbedtls.c ****         if (0 != mbedtls_ccm_setkey(&sDecrypt, MBEDTLS_CIPHER_ID_AES, p_decrypt_key, 8 * AES128_KEY
 481              	 .loc 1 256 0 is_stmt 1
 482 003e 0AA8     	 add r0,sp,#40
 483 0040 0221     	 mov r1,#2
 484 0042 3A1C     	 mov r2,r7
 485 0044 8023     	 mov r3,#128
 486 0046 FFF7FEFF 	 bl mbedtls_ccm_setkey
 487              	.LVL73:
 488 004a 0028     	 cmp r0,#0
 489 004c ECD1     	 bne .L45
 257:C:/Workspace/DAVE-4.4.2-64Bit/optiga-trust-m/pal\pal_crypt_mbedtls.c ****         {
 258:C:/Workspace/DAVE-4.4.2-64Bit/optiga-trust-m/pal\pal_crypt_mbedtls.c ****             break;
 259:C:/Workspace/DAVE-4.4.2-64Bit/optiga-trust-m/pal\pal_crypt_mbedtls.c ****         }
 260:C:/Workspace/DAVE-4.4.2-64Bit/optiga-trust-m/pal\pal_crypt_mbedtls.c **** 
 261:C:/Workspace/DAVE-4.4.2-64Bit/optiga-trust-m/pal\pal_crypt_mbedtls.c ****         if (0 != mbedtls_ccm_auth_decrypt(&sDecrypt,
 262:C:/Workspace/DAVE-4.4.2-64Bit/optiga-trust-m/pal\pal_crypt_mbedtls.c ****                                           (cipher_text_length - mac_size),
 490              	 .loc 1 262 0
 491 004e 079B     	 ldr r3,[sp,#28]
 261:C:/Workspace/DAVE-4.4.2-64Bit/optiga-trust-m/pal\pal_crypt_mbedtls.c ****                                           (cipher_text_length - mac_size),
 492              	 .loc 1 261 0
 493 0050 0294     	 str r4,[sp,#8]
 494              	 .loc 1 262 0
 495 0052 991B     	 sub r1,r3,r6
 261:C:/Workspace/DAVE-4.4.2-64Bit/optiga-trust-m/pal\pal_crypt_mbedtls.c ****                                           (cipher_text_length - mac_size),
 496              	 .loc 1 261 0
 497 0054 209B     	 ldr r3,[sp,#128]
 498 0056 6418     	 add r4,r4,r1
 499              	.LVL74:
 500 0058 0093     	 str r3,[sp]
 501 005a 099B     	 ldr r3,[sp,#36]
 502 005c 0494     	 str r4,[sp,#16]
 503 005e 0193     	 str r3,[sp,#4]
 504 0060 239B     	 ldr r3,[sp,#140]
 505 0062 0596     	 str r6,[sp,#20]
 506 0064 0393     	 str r3,[sp,#12]
 507 0066 0AA8     	 add r0,sp,#40
 508 0068 2A1C     	 mov r2,r5
 509 006a 089B     	 ldr r3,[sp,#32]
 510 006c FFF7FEFF 	 bl mbedtls_ccm_auth_decrypt
 511              	.LVL75:
 512 0070 441E     	 sub r4,r0,#1
 513 0072 A041     	 sbc r0,r0,r4
 241:C:/Workspace/DAVE-4.4.2-64Bit/optiga-trust-m/pal\pal_crypt_mbedtls.c ****     mbedtls_ccm_context sDecrypt;
 514              	 .loc 1 241 0
 515 0074 84B2     	 uxth r4,r0
 516              	.L44:
 517              	.LVL76:
 263:C:/Workspace/DAVE-4.4.2-64Bit/optiga-trust-m/pal\pal_crypt_mbedtls.c ****                                           p_nonce,
 264:C:/Workspace/DAVE-4.4.2-64Bit/optiga-trust-m/pal\pal_crypt_mbedtls.c ****                                           nonce_length,
 265:C:/Workspace/DAVE-4.4.2-64Bit/optiga-trust-m/pal\pal_crypt_mbedtls.c ****                                           p_associated_data,
 266:C:/Workspace/DAVE-4.4.2-64Bit/optiga-trust-m/pal\pal_crypt_mbedtls.c ****                                           associated_data_length,
 267:C:/Workspace/DAVE-4.4.2-64Bit/optiga-trust-m/pal\pal_crypt_mbedtls.c ****                                           p_cipher_text,
 268:C:/Workspace/DAVE-4.4.2-64Bit/optiga-trust-m/pal\pal_crypt_mbedtls.c ****                                           p_plain_text, 
 269:C:/Workspace/DAVE-4.4.2-64Bit/optiga-trust-m/pal\pal_crypt_mbedtls.c ****                                           &p_cipher_text[cipher_text_length - mac_size],
 270:C:/Workspace/DAVE-4.4.2-64Bit/optiga-trust-m/pal\pal_crypt_mbedtls.c ****                                           mac_size))
 271:C:/Workspace/DAVE-4.4.2-64Bit/optiga-trust-m/pal\pal_crypt_mbedtls.c ****         {
 272:C:/Workspace/DAVE-4.4.2-64Bit/optiga-trust-m/pal\pal_crypt_mbedtls.c ****             break;
 273:C:/Workspace/DAVE-4.4.2-64Bit/optiga-trust-m/pal\pal_crypt_mbedtls.c ****         }
 274:C:/Workspace/DAVE-4.4.2-64Bit/optiga-trust-m/pal\pal_crypt_mbedtls.c ****         return_status = PAL_STATUS_SUCCESS;
 275:C:/Workspace/DAVE-4.4.2-64Bit/optiga-trust-m/pal\pal_crypt_mbedtls.c ****     } while (FALSE);
 276:C:/Workspace/DAVE-4.4.2-64Bit/optiga-trust-m/pal\pal_crypt_mbedtls.c ****     mbedtls_ccm_free(&sDecrypt);
 518              	 .loc 1 276 0
 519 0076 0AA8     	 add r0,sp,#40
 520 0078 FFF7FEFF 	 bl mbedtls_ccm_free
 521              	.LVL77:
 277:C:/Workspace/DAVE-4.4.2-64Bit/optiga-trust-m/pal\pal_crypt_mbedtls.c ****     #undef AES128_KEY_BITS_SIZE
 278:C:/Workspace/DAVE-4.4.2-64Bit/optiga-trust-m/pal\pal_crypt_mbedtls.c ****     return return_status;
 279:C:/Workspace/DAVE-4.4.2-64Bit/optiga-trust-m/pal\pal_crypt_mbedtls.c **** }
 522              	 .loc 1 279 0
 523 007c 201C     	 mov r0,r4
 524 007e 19B0     	 add sp,sp,#100
 525              	 
 526              	.LVL78:
 527              	.LVL79:
 528 0080 F0BD     	 pop {r4,r5,r6,r7,pc}
 529              	 .cfi_endproc
 530              	.LFE14:
 532              	 .section .text.pal_crypt_version,"ax",%progbits
 533              	 .align 1
 534              	 .global pal_crypt_version
 535              	 .code 16
 536              	 .thumb_func
 538              	pal_crypt_version:
 539              	.LFB15:
 280:C:/Workspace/DAVE-4.4.2-64Bit/optiga-trust-m/pal\pal_crypt_mbedtls.c **** 
 281:C:/Workspace/DAVE-4.4.2-64Bit/optiga-trust-m/pal\pal_crypt_mbedtls.c **** pal_status_t pal_crypt_version(uint8_t * p_crypt_lib_version_info, uint16_t * length)
 282:C:/Workspace/DAVE-4.4.2-64Bit/optiga-trust-m/pal\pal_crypt_mbedtls.c **** {
 540              	 .loc 1 282 0
 541              	 .cfi_startproc
 542              	.LVL80:
 283:C:/Workspace/DAVE-4.4.2-64Bit/optiga-trust-m/pal\pal_crypt_mbedtls.c ****     pal_status_t return_value  = PAL_STATUS_FAILURE;    
 284:C:/Workspace/DAVE-4.4.2-64Bit/optiga-trust-m/pal\pal_crypt_mbedtls.c ****     uint8_t sizeof_version_number  = (uint8_t)strlen(MBEDTLS_VERSION_STRING);
 285:C:/Workspace/DAVE-4.4.2-64Bit/optiga-trust-m/pal\pal_crypt_mbedtls.c **** 
 286:C:/Workspace/DAVE-4.4.2-64Bit/optiga-trust-m/pal\pal_crypt_mbedtls.c ****     do
 287:C:/Workspace/DAVE-4.4.2-64Bit/optiga-trust-m/pal\pal_crypt_mbedtls.c ****     {
 288:C:/Workspace/DAVE-4.4.2-64Bit/optiga-trust-m/pal\pal_crypt_mbedtls.c ****         if (sizeof_version_number > *length)
 543              	 .loc 1 288 0
 544 0000 0A88     	 ldrh r2,[r1]
 282:C:/Workspace/DAVE-4.4.2-64Bit/optiga-trust-m/pal\pal_crypt_mbedtls.c ****     pal_status_t return_value  = PAL_STATUS_FAILURE;    
 545              	 .loc 1 282 0
 546 0002 38B5     	 push {r3,r4,r5,lr}
 547              	.LCFI6:
 548              	 .cfi_def_cfa_offset 16
 549              	 .cfi_offset 3,-16
 550              	 .cfi_offset 4,-12
 551              	 .cfi_offset 5,-8
 552              	 .cfi_offset 14,-4
 283:C:/Workspace/DAVE-4.4.2-64Bit/optiga-trust-m/pal\pal_crypt_mbedtls.c ****     pal_status_t return_value  = PAL_STATUS_FAILURE;    
 553              	 .loc 1 283 0
 554 0004 0123     	 mov r3,#1
 555              	 .loc 1 288 0
 556 0006 052A     	 cmp r2,#5
 557 0008 07D9     	 bls .L59
 289:C:/Workspace/DAVE-4.4.2-64Bit/optiga-trust-m/pal\pal_crypt_mbedtls.c ****         {
 290:C:/Workspace/DAVE-4.4.2-64Bit/optiga-trust-m/pal\pal_crypt_mbedtls.c ****             break;
 291:C:/Workspace/DAVE-4.4.2-64Bit/optiga-trust-m/pal\pal_crypt_mbedtls.c ****         }
 292:C:/Workspace/DAVE-4.4.2-64Bit/optiga-trust-m/pal\pal_crypt_mbedtls.c **** 
 293:C:/Workspace/DAVE-4.4.2-64Bit/optiga-trust-m/pal\pal_crypt_mbedtls.c ****         pal_os_memcpy(p_crypt_lib_version_info, MBEDTLS_VERSION_STRING, sizeof_version_number);
 558              	 .loc 1 293 0
 559 000a 0625     	 mov r5,#6
 560 000c 0C1C     	 mov r4,r1
 561 000e 2A1C     	 mov r2,r5
 562 0010 0349     	 ldr r1,.L61
 563              	.LVL81:
 564 0012 FFF7FEFF 	 bl memcpy
 565              	.LVL82:
 294:C:/Workspace/DAVE-4.4.2-64Bit/optiga-trust-m/pal\pal_crypt_mbedtls.c ****         *length = sizeof_version_number;
 295:C:/Workspace/DAVE-4.4.2-64Bit/optiga-trust-m/pal\pal_crypt_mbedtls.c **** 
 296:C:/Workspace/DAVE-4.4.2-64Bit/optiga-trust-m/pal\pal_crypt_mbedtls.c ****         return_value = PAL_STATUS_SUCCESS;
 566              	 .loc 1 296 0
 567 0016 0023     	 mov r3,#0
 294:C:/Workspace/DAVE-4.4.2-64Bit/optiga-trust-m/pal\pal_crypt_mbedtls.c ****         *length = sizeof_version_number;
 568              	 .loc 1 294 0
 569 0018 2580     	 strh r5,[r4]
 570              	.LVL83:
 571              	.L59:
 297:C:/Workspace/DAVE-4.4.2-64Bit/optiga-trust-m/pal\pal_crypt_mbedtls.c **** 
 298:C:/Workspace/DAVE-4.4.2-64Bit/optiga-trust-m/pal\pal_crypt_mbedtls.c ****     } while (0);
 299:C:/Workspace/DAVE-4.4.2-64Bit/optiga-trust-m/pal\pal_crypt_mbedtls.c ****     return return_value;
 300:C:/Workspace/DAVE-4.4.2-64Bit/optiga-trust-m/pal\pal_crypt_mbedtls.c **** }
 572              	 .loc 1 300 0
 573 001a 181C     	 mov r0,r3
 574              	 
 575 001c 38BD     	 pop {r3,r4,r5,pc}
 576              	.L62:
 577 001e C046     	 .align 2
 578              	.L61:
 579 0020 00000000 	 .word .LC2
 580              	 .cfi_endproc
 581              	.LFE15:
 583              	 .section .rodata.str1.1,"aMS",%progbits,1
 584              	.LC2:
 585 0000 322E3136 	 .ascii "2.16.0\000"
 585      2E3000
 586              	 .text
 587              	.Letext0:
 588              	 .file 2 "c:\\dave_4-4-2_64bit\\dave-ide-4.4.2-64bit\\eclipse\\arm-gcc-49\\arm-none-eabi\\include\\machine\\_default_types.h"
 589              	 .file 3 "c:\\dave_4-4-2_64bit\\dave-ide-4.4.2-64bit\\eclipse\\arm-gcc-49\\lib\\gcc\\arm-none-eabi\\4.9.3\\include\\stddef.h"
 590              	 .file 4 "c:\\dave_4-4-2_64bit\\dave-ide-4.4.2-64bit\\eclipse\\arm-gcc-49\\arm-none-eabi\\include\\stdint.h"
 591              	 .file 5 "C:/Workspace/DAVE-4.4.2-64Bit/optiga-trust-m/optiga/include/optiga/pal/pal.h"
 592              	 .file 6 "C:/Workspace/DAVE-4.4.2-64Bit/optiga-trust-m/optiga/include/optiga/pal/pal_crypt.h"
 593              	 .file 7 "C:/Workspace/DAVE-4.4.2-64Bit/optiga-trust-m/externals/mbedtls/include/mbedtls/cipher.h"
 594              	 .file 8 "C:/Workspace/DAVE-4.4.2-64Bit/optiga-trust-m/externals/mbedtls/include/mbedtls/ccm.h"
 595              	 .file 9 "C:/Workspace/DAVE-4.4.2-64Bit/optiga-trust-m/externals/mbedtls/include/mbedtls/md.h"