   1              	 .cpu cortex-m0
   2              	 .fpu softvfp
   3              	 .eabi_attribute 20,1
   4              	 .eabi_attribute 21,1
   5              	 .eabi_attribute 23,3
   6              	 .eabi_attribute 24,1
   7              	 .eabi_attribute 25,1
   8              	 .eabi_attribute 26,1
   9              	 .eabi_attribute 30,4
  10              	 .eabi_attribute 34,0
  11              	 .eabi_attribute 18,4
  12              	 .code 16
  13              	 .file "pal_os_event.c"
  14              	 .text
  15              	.Ltext0:
  16              	 .cfi_sections .debug_frame
  17              	 .section .text.pal_os_event_stop,"ax",%progbits
  18              	 .align 1
  19              	 .global pal_os_event_stop
  20              	 .code 16
  21              	 .thumb_func
  23              	pal_os_event_stop:
  24              	.LFB277:
  25              	 .file 1 "C:/Workspace/DAVE-4.4.2-64Bit/optiga-trust-m/pal/xmc-dave-polling/pal_os_event.c"
   1:C:/Workspace/DAVE-4.4.2-64Bit/optiga-trust-m/pal/xmc-dave-polling\pal_os_event.c **** /**
   2:C:/Workspace/DAVE-4.4.2-64Bit/optiga-trust-m/pal/xmc-dave-polling\pal_os_event.c **** * \copyright
   3:C:/Workspace/DAVE-4.4.2-64Bit/optiga-trust-m/pal/xmc-dave-polling\pal_os_event.c **** * MIT License
   4:C:/Workspace/DAVE-4.4.2-64Bit/optiga-trust-m/pal/xmc-dave-polling\pal_os_event.c **** *
   5:C:/Workspace/DAVE-4.4.2-64Bit/optiga-trust-m/pal/xmc-dave-polling\pal_os_event.c **** * Copyright (c) 2019 Infineon Technologies AG
   6:C:/Workspace/DAVE-4.4.2-64Bit/optiga-trust-m/pal/xmc-dave-polling\pal_os_event.c **** *
   7:C:/Workspace/DAVE-4.4.2-64Bit/optiga-trust-m/pal/xmc-dave-polling\pal_os_event.c **** * Permission is hereby granted, free of charge, to any person obtaining a copy
   8:C:/Workspace/DAVE-4.4.2-64Bit/optiga-trust-m/pal/xmc-dave-polling\pal_os_event.c **** * of this software and associated documentation files (the "Software"), to deal
   9:C:/Workspace/DAVE-4.4.2-64Bit/optiga-trust-m/pal/xmc-dave-polling\pal_os_event.c **** * in the Software without restriction, including without limitation the rights
  10:C:/Workspace/DAVE-4.4.2-64Bit/optiga-trust-m/pal/xmc-dave-polling\pal_os_event.c **** * to use, copy, modify, merge, publish, distribute, sublicense, and/or sell
  11:C:/Workspace/DAVE-4.4.2-64Bit/optiga-trust-m/pal/xmc-dave-polling\pal_os_event.c **** * copies of the Software, and to permit persons to whom the Software is
  12:C:/Workspace/DAVE-4.4.2-64Bit/optiga-trust-m/pal/xmc-dave-polling\pal_os_event.c **** * furnished to do so, subject to the following conditions:
  13:C:/Workspace/DAVE-4.4.2-64Bit/optiga-trust-m/pal/xmc-dave-polling\pal_os_event.c **** *
  14:C:/Workspace/DAVE-4.4.2-64Bit/optiga-trust-m/pal/xmc-dave-polling\pal_os_event.c **** * The above copyright notice and this permission notice shall be included in all
  15:C:/Workspace/DAVE-4.4.2-64Bit/optiga-trust-m/pal/xmc-dave-polling\pal_os_event.c **** * copies or substantial portions of the Software.
  16:C:/Workspace/DAVE-4.4.2-64Bit/optiga-trust-m/pal/xmc-dave-polling\pal_os_event.c **** *
  17:C:/Workspace/DAVE-4.4.2-64Bit/optiga-trust-m/pal/xmc-dave-polling\pal_os_event.c **** * THE SOFTWARE IS PROVIDED "AS IS", WITHOUT WARRANTY OF ANY KIND, EXPRESS OR
  18:C:/Workspace/DAVE-4.4.2-64Bit/optiga-trust-m/pal/xmc-dave-polling\pal_os_event.c **** * IMPLIED, INCLUDING BUT NOT LIMITED TO THE WARRANTIES OF MERCHANTABILITY,
  19:C:/Workspace/DAVE-4.4.2-64Bit/optiga-trust-m/pal/xmc-dave-polling\pal_os_event.c **** * FITNESS FOR A PARTICULAR PURPOSE AND NONINFRINGEMENT. IN NO EVENT SHALL THE
  20:C:/Workspace/DAVE-4.4.2-64Bit/optiga-trust-m/pal/xmc-dave-polling\pal_os_event.c **** * AUTHORS OR COPYRIGHT HOLDERS BE LIABLE FOR ANY CLAIM, DAMAGES OR OTHER
  21:C:/Workspace/DAVE-4.4.2-64Bit/optiga-trust-m/pal/xmc-dave-polling\pal_os_event.c **** * LIABILITY, WHETHER IN AN ACTION OF CONTRACT, TORT OR OTHERWISE, ARISING FROM,
  22:C:/Workspace/DAVE-4.4.2-64Bit/optiga-trust-m/pal/xmc-dave-polling\pal_os_event.c **** * OUT OF OR IN CONNECTION WITH THE SOFTWARE OR THE USE OR OTHER DEALINGS IN THE
  23:C:/Workspace/DAVE-4.4.2-64Bit/optiga-trust-m/pal/xmc-dave-polling\pal_os_event.c **** * SOFTWARE
  24:C:/Workspace/DAVE-4.4.2-64Bit/optiga-trust-m/pal/xmc-dave-polling\pal_os_event.c **** *
  25:C:/Workspace/DAVE-4.4.2-64Bit/optiga-trust-m/pal/xmc-dave-polling\pal_os_event.c **** * \endcopyright
  26:C:/Workspace/DAVE-4.4.2-64Bit/optiga-trust-m/pal/xmc-dave-polling\pal_os_event.c **** *
  27:C:/Workspace/DAVE-4.4.2-64Bit/optiga-trust-m/pal/xmc-dave-polling\pal_os_event.c **** * \author Infineon Technologies AG
  28:C:/Workspace/DAVE-4.4.2-64Bit/optiga-trust-m/pal/xmc-dave-polling\pal_os_event.c **** *
  29:C:/Workspace/DAVE-4.4.2-64Bit/optiga-trust-m/pal/xmc-dave-polling\pal_os_event.c **** * \file pal_os_event.c
  30:C:/Workspace/DAVE-4.4.2-64Bit/optiga-trust-m/pal/xmc-dave-polling\pal_os_event.c **** *
  31:C:/Workspace/DAVE-4.4.2-64Bit/optiga-trust-m/pal/xmc-dave-polling\pal_os_event.c **** * \brief   This file implements the platform abstraction layer APIs for os event/scheduler.
  32:C:/Workspace/DAVE-4.4.2-64Bit/optiga-trust-m/pal/xmc-dave-polling\pal_os_event.c **** *
  33:C:/Workspace/DAVE-4.4.2-64Bit/optiga-trust-m/pal/xmc-dave-polling\pal_os_event.c **** * \ingroup  grPAL
  34:C:/Workspace/DAVE-4.4.2-64Bit/optiga-trust-m/pal/xmc-dave-polling\pal_os_event.c **** *
  35:C:/Workspace/DAVE-4.4.2-64Bit/optiga-trust-m/pal/xmc-dave-polling\pal_os_event.c **** * @{
  36:C:/Workspace/DAVE-4.4.2-64Bit/optiga-trust-m/pal/xmc-dave-polling\pal_os_event.c **** */
  37:C:/Workspace/DAVE-4.4.2-64Bit/optiga-trust-m/pal/xmc-dave-polling\pal_os_event.c **** 
  38:C:/Workspace/DAVE-4.4.2-64Bit/optiga-trust-m/pal/xmc-dave-polling\pal_os_event.c **** #include <DAVE.h>
  39:C:/Workspace/DAVE-4.4.2-64Bit/optiga-trust-m/pal/xmc-dave-polling\pal_os_event.c **** #include "optiga/pal/pal_os_event.h"
  40:C:/Workspace/DAVE-4.4.2-64Bit/optiga-trust-m/pal/xmc-dave-polling\pal_os_event.c **** 
  41:C:/Workspace/DAVE-4.4.2-64Bit/optiga-trust-m/pal/xmc-dave-polling\pal_os_event.c **** 
  42:C:/Workspace/DAVE-4.4.2-64Bit/optiga-trust-m/pal/xmc-dave-polling\pal_os_event.c **** /// @cond hidden
  43:C:/Workspace/DAVE-4.4.2-64Bit/optiga-trust-m/pal/xmc-dave-polling\pal_os_event.c **** 
  44:C:/Workspace/DAVE-4.4.2-64Bit/optiga-trust-m/pal/xmc-dave-polling\pal_os_event.c **** static pal_os_event_t pal_os_event_0 = {0};
  45:C:/Workspace/DAVE-4.4.2-64Bit/optiga-trust-m/pal/xmc-dave-polling\pal_os_event.c **** 
  46:C:/Workspace/DAVE-4.4.2-64Bit/optiga-trust-m/pal/xmc-dave-polling\pal_os_event.c **** void pal_os_event_start(pal_os_event_t * p_pal_os_event, register_callback callback, void * callbac
  47:C:/Workspace/DAVE-4.4.2-64Bit/optiga-trust-m/pal/xmc-dave-polling\pal_os_event.c **** {
  48:C:/Workspace/DAVE-4.4.2-64Bit/optiga-trust-m/pal/xmc-dave-polling\pal_os_event.c ****     if (FALSE == p_pal_os_event->is_event_triggered)
  49:C:/Workspace/DAVE-4.4.2-64Bit/optiga-trust-m/pal/xmc-dave-polling\pal_os_event.c ****     {
  50:C:/Workspace/DAVE-4.4.2-64Bit/optiga-trust-m/pal/xmc-dave-polling\pal_os_event.c ****         p_pal_os_event->is_event_triggered = TRUE;
  51:C:/Workspace/DAVE-4.4.2-64Bit/optiga-trust-m/pal/xmc-dave-polling\pal_os_event.c ****         pal_os_event_register_callback_oneshot(p_pal_os_event,callback,callback_args,1000);
  52:C:/Workspace/DAVE-4.4.2-64Bit/optiga-trust-m/pal/xmc-dave-polling\pal_os_event.c ****     }
  53:C:/Workspace/DAVE-4.4.2-64Bit/optiga-trust-m/pal/xmc-dave-polling\pal_os_event.c **** }
  54:C:/Workspace/DAVE-4.4.2-64Bit/optiga-trust-m/pal/xmc-dave-polling\pal_os_event.c **** 
  55:C:/Workspace/DAVE-4.4.2-64Bit/optiga-trust-m/pal/xmc-dave-polling\pal_os_event.c **** void pal_os_event_stop(pal_os_event_t * p_pal_os_event)
  56:C:/Workspace/DAVE-4.4.2-64Bit/optiga-trust-m/pal/xmc-dave-polling\pal_os_event.c **** {
  26              	 .loc 1 56 0
  27              	 .cfi_startproc
  28              	.LVL0:
  57:C:/Workspace/DAVE-4.4.2-64Bit/optiga-trust-m/pal/xmc-dave-polling\pal_os_event.c ****     //lint --e{714} suppress "The API pal_os_event_stop is not exposed in header file but used as e
  58:C:/Workspace/DAVE-4.4.2-64Bit/optiga-trust-m/pal/xmc-dave-polling\pal_os_event.c ****     //optiga_cmd.c"
  59:C:/Workspace/DAVE-4.4.2-64Bit/optiga-trust-m/pal/xmc-dave-polling\pal_os_event.c ****     p_pal_os_event->is_event_triggered = FALSE;
  29              	 .loc 1 59 0
  30 0000 0023     	 mov r3,#0
  60:C:/Workspace/DAVE-4.4.2-64Bit/optiga-trust-m/pal/xmc-dave-polling\pal_os_event.c **** }
  31              	 .loc 1 60 0
  32              	 
  59:C:/Workspace/DAVE-4.4.2-64Bit/optiga-trust-m/pal/xmc-dave-polling\pal_os_event.c **** }
  33              	 .loc 1 59 0
  34 0002 0370     	 strb r3,[r0]
  35              	 .loc 1 60 0
  36 0004 7047     	 bx lr
  37              	 .cfi_endproc
  38              	.LFE277:
  40              	 .section .text.IRQ7_Handler,"ax",%progbits
  41              	 .align 1
  42              	 .global IRQ7_Handler
  43              	 .code 16
  44              	 .thumb_func
  46              	IRQ7_Handler:
  47              	.LFB279:
  61:C:/Workspace/DAVE-4.4.2-64Bit/optiga-trust-m/pal/xmc-dave-polling\pal_os_event.c **** 
  62:C:/Workspace/DAVE-4.4.2-64Bit/optiga-trust-m/pal/xmc-dave-polling\pal_os_event.c **** pal_os_event_t * pal_os_event_create(register_callback callback, void * callback_args)
  63:C:/Workspace/DAVE-4.4.2-64Bit/optiga-trust-m/pal/xmc-dave-polling\pal_os_event.c **** {
  64:C:/Workspace/DAVE-4.4.2-64Bit/optiga-trust-m/pal/xmc-dave-polling\pal_os_event.c ****     if (( NULL != callback )&&( NULL != callback_args ))
  65:C:/Workspace/DAVE-4.4.2-64Bit/optiga-trust-m/pal/xmc-dave-polling\pal_os_event.c ****     {
  66:C:/Workspace/DAVE-4.4.2-64Bit/optiga-trust-m/pal/xmc-dave-polling\pal_os_event.c ****         pal_os_event_start(&pal_os_event_0,callback,callback_args);
  67:C:/Workspace/DAVE-4.4.2-64Bit/optiga-trust-m/pal/xmc-dave-polling\pal_os_event.c ****     }
  68:C:/Workspace/DAVE-4.4.2-64Bit/optiga-trust-m/pal/xmc-dave-polling\pal_os_event.c ****     return (&pal_os_event_0);
  69:C:/Workspace/DAVE-4.4.2-64Bit/optiga-trust-m/pal/xmc-dave-polling\pal_os_event.c **** }
  70:C:/Workspace/DAVE-4.4.2-64Bit/optiga-trust-m/pal/xmc-dave-polling\pal_os_event.c **** 
  71:C:/Workspace/DAVE-4.4.2-64Bit/optiga-trust-m/pal/xmc-dave-polling\pal_os_event.c **** void pal_os_event_trigger_registered_callback(void)
  72:C:/Workspace/DAVE-4.4.2-64Bit/optiga-trust-m/pal/xmc-dave-polling\pal_os_event.c **** {
  48              	 .loc 1 72 0
  49              	 .cfi_startproc
  50 0000 10B5     	 push {r4,lr}
  51              	.LCFI0:
  52              	 .cfi_def_cfa_offset 8
  53              	 .cfi_offset 4,-8
  54              	 .cfi_offset 14,-4
  73:C:/Workspace/DAVE-4.4.2-64Bit/optiga-trust-m/pal/xmc-dave-polling\pal_os_event.c ****     register_callback callback;
  74:C:/Workspace/DAVE-4.4.2-64Bit/optiga-trust-m/pal/xmc-dave-polling\pal_os_event.c **** 
  75:C:/Workspace/DAVE-4.4.2-64Bit/optiga-trust-m/pal/xmc-dave-polling\pal_os_event.c ****     // !!!OPTIGA_LIB_PORTING_REQUIRED
  76:C:/Workspace/DAVE-4.4.2-64Bit/optiga-trust-m/pal/xmc-dave-polling\pal_os_event.c ****     // The following steps related to TIMER must be taken care while porting to different platform
  77:C:/Workspace/DAVE-4.4.2-64Bit/optiga-trust-m/pal/xmc-dave-polling\pal_os_event.c ****     TIMER_ClearEvent(&scheduler_timer);
  55              	 .loc 1 77 0
  56 0002 084C     	 ldr r4,.L8
  57 0004 201C     	 mov r0,r4
  58 0006 FFF7FEFF 	 bl TIMER_ClearEvent
  59              	.LVL1:
  78:C:/Workspace/DAVE-4.4.2-64Bit/optiga-trust-m/pal/xmc-dave-polling\pal_os_event.c ****     //lint --e{534} suppress "Error handling is not required so return value is not checked"
  79:C:/Workspace/DAVE-4.4.2-64Bit/optiga-trust-m/pal/xmc-dave-polling\pal_os_event.c ****     TIMER_Stop(&scheduler_timer);
  60              	 .loc 1 79 0
  61 000a 201C     	 mov r0,r4
  62 000c FFF7FEFF 	 bl TIMER_Stop
  63              	.LVL2:
  80:C:/Workspace/DAVE-4.4.2-64Bit/optiga-trust-m/pal/xmc-dave-polling\pal_os_event.c ****     TIMER_Clear(&scheduler_timer);
  64              	 .loc 1 80 0
  65 0010 201C     	 mov r0,r4
  66 0012 FFF7FEFF 	 bl TIMER_Clear
  67              	.LVL3:
  81:C:/Workspace/DAVE-4.4.2-64Bit/optiga-trust-m/pal/xmc-dave-polling\pal_os_event.c **** 
  82:C:/Workspace/DAVE-4.4.2-64Bit/optiga-trust-m/pal/xmc-dave-polling\pal_os_event.c ****     if (pal_os_event_0.callback_registered)
  68              	 .loc 1 82 0
  69 0016 044A     	 ldr r2,.L8+4
  70 0018 5368     	 ldr r3,[r2,#4]
  71 001a 002B     	 cmp r3,#0
  72 001c 01D0     	 beq .L2
  73              	.LVL4:
  83:C:/Workspace/DAVE-4.4.2-64Bit/optiga-trust-m/pal/xmc-dave-polling\pal_os_event.c ****     {
  84:C:/Workspace/DAVE-4.4.2-64Bit/optiga-trust-m/pal/xmc-dave-polling\pal_os_event.c ****         callback = pal_os_event_0.callback_registered;
  85:C:/Workspace/DAVE-4.4.2-64Bit/optiga-trust-m/pal/xmc-dave-polling\pal_os_event.c ****         callback((void * )pal_os_event_0.callback_ctx);
  74              	 .loc 1 85 0
  75 001e 9068     	 ldr r0,[r2,#8]
  76 0020 9847     	 blx r3
  77              	.LVL5:
  78              	.L2:
  86:C:/Workspace/DAVE-4.4.2-64Bit/optiga-trust-m/pal/xmc-dave-polling\pal_os_event.c ****     }
  87:C:/Workspace/DAVE-4.4.2-64Bit/optiga-trust-m/pal/xmc-dave-polling\pal_os_event.c **** }
  79              	 .loc 1 87 0
  80              	 
  81 0022 10BD     	 pop {r4,pc}
  82              	.L9:
  83              	 .align 2
  84              	.L8:
  85 0024 00000000 	 .word scheduler_timer
  86 0028 00000000 	 .word .LANCHOR0
  87              	 .cfi_endproc
  88              	.LFE279:
  90              	 .section .text.pal_os_event_register_callback_oneshot,"ax",%progbits
  91              	 .align 1
  92              	 .global pal_os_event_register_callback_oneshot
  93              	 .code 16
  94              	 .thumb_func
  96              	pal_os_event_register_callback_oneshot:
  97              	.LFB280:
  88:C:/Workspace/DAVE-4.4.2-64Bit/optiga-trust-m/pal/xmc-dave-polling\pal_os_event.c **** /// @endcond
  89:C:/Workspace/DAVE-4.4.2-64Bit/optiga-trust-m/pal/xmc-dave-polling\pal_os_event.c **** 
  90:C:/Workspace/DAVE-4.4.2-64Bit/optiga-trust-m/pal/xmc-dave-polling\pal_os_event.c **** void pal_os_event_register_callback_oneshot(pal_os_event_t * p_pal_os_event,
  91:C:/Workspace/DAVE-4.4.2-64Bit/optiga-trust-m/pal/xmc-dave-polling\pal_os_event.c ****                                              register_callback callback,
  92:C:/Workspace/DAVE-4.4.2-64Bit/optiga-trust-m/pal/xmc-dave-polling\pal_os_event.c ****                                              void * callback_args,
  93:C:/Workspace/DAVE-4.4.2-64Bit/optiga-trust-m/pal/xmc-dave-polling\pal_os_event.c ****                                              uint32_t time_us)
  94:C:/Workspace/DAVE-4.4.2-64Bit/optiga-trust-m/pal/xmc-dave-polling\pal_os_event.c **** {
  98              	 .loc 1 94 0
  99              	 .cfi_startproc
 100              	.LVL6:
 101 0000 10B5     	 push {r4,lr}
 102              	.LCFI1:
 103              	 .cfi_def_cfa_offset 8
 104              	 .cfi_offset 4,-8
 105              	 .cfi_offset 14,-4
  95:C:/Workspace/DAVE-4.4.2-64Bit/optiga-trust-m/pal/xmc-dave-polling\pal_os_event.c ****     p_pal_os_event->callback_registered = callback;
  96:C:/Workspace/DAVE-4.4.2-64Bit/optiga-trust-m/pal/xmc-dave-polling\pal_os_event.c ****     p_pal_os_event->callback_ctx = callback_args;
 106              	 .loc 1 96 0
 107 0002 8260     	 str r2,[r0,#8]
  97:C:/Workspace/DAVE-4.4.2-64Bit/optiga-trust-m/pal/xmc-dave-polling\pal_os_event.c **** 
  98:C:/Workspace/DAVE-4.4.2-64Bit/optiga-trust-m/pal/xmc-dave-polling\pal_os_event.c ****     // !!!OPTIGA_LIB_PORTING_REQUIRED
  99:C:/Workspace/DAVE-4.4.2-64Bit/optiga-trust-m/pal/xmc-dave-polling\pal_os_event.c ****     // The following steps related to TIMER must be taken care while porting to different platform
 100:C:/Workspace/DAVE-4.4.2-64Bit/optiga-trust-m/pal/xmc-dave-polling\pal_os_event.c ****     //lint --e{534} suppress "Error handling is not required so return value is not checked"
 101:C:/Workspace/DAVE-4.4.2-64Bit/optiga-trust-m/pal/xmc-dave-polling\pal_os_event.c ****     TIMER_SetTimeInterval(&scheduler_timer, (time_us * 100));
 108              	 .loc 1 101 0
 109 0004 6422     	 mov r2,#100
 110              	.LVL7:
 111 0006 5A43     	 mul r2,r3
 112 0008 044C     	 ldr r4,.L11
  95:C:/Workspace/DAVE-4.4.2-64Bit/optiga-trust-m/pal/xmc-dave-polling\pal_os_event.c ****     p_pal_os_event->callback_registered = callback;
 113              	 .loc 1 95 0
 114 000a 4160     	 str r1,[r0,#4]
 115              	 .loc 1 101 0
 116 000c 111C     	 mov r1,r2
 117              	.LVL8:
 118 000e 201C     	 mov r0,r4
 119              	.LVL9:
 120 0010 FFF7FEFF 	 bl TIMER_SetTimeInterval
 121              	.LVL10:
 102:C:/Workspace/DAVE-4.4.2-64Bit/optiga-trust-m/pal/xmc-dave-polling\pal_os_event.c ****     TIMER_Start(&scheduler_timer);
 122              	 .loc 1 102 0
 123 0014 201C     	 mov r0,r4
 124 0016 FFF7FEFF 	 bl TIMER_Start
 125              	.LVL11:
 103:C:/Workspace/DAVE-4.4.2-64Bit/optiga-trust-m/pal/xmc-dave-polling\pal_os_event.c **** }
 126              	 .loc 1 103 0
 127              	 
 128 001a 10BD     	 pop {r4,pc}
 129              	.L12:
 130              	 .align 2
 131              	.L11:
 132 001c 00000000 	 .word scheduler_timer
 133              	 .cfi_endproc
 134              	.LFE280:
 136              	 .section .text.pal_os_event_start,"ax",%progbits
 137              	 .align 1
 138              	 .global pal_os_event_start
 139              	 .code 16
 140              	 .thumb_func
 142              	pal_os_event_start:
 143              	.LFB276:
  47:C:/Workspace/DAVE-4.4.2-64Bit/optiga-trust-m/pal/xmc-dave-polling\pal_os_event.c ****     if (FALSE == p_pal_os_event->is_event_triggered)
 144              	 .loc 1 47 0
 145              	 .cfi_startproc
 146              	.LVL12:
 147 0000 08B5     	 push {r3,lr}
 148              	.LCFI2:
 149              	 .cfi_def_cfa_offset 8
 150              	 .cfi_offset 3,-8
 151              	 .cfi_offset 14,-4
  48:C:/Workspace/DAVE-4.4.2-64Bit/optiga-trust-m/pal/xmc-dave-polling\pal_os_event.c ****     {
 152              	 .loc 1 48 0
 153 0002 0378     	 ldrb r3,[r0]
 154 0004 002B     	 cmp r3,#0
 155 0006 05D1     	 bne .L13
 156              	.LVL13:
 157              	.LBB4:
 158              	.LBB5:
  50:C:/Workspace/DAVE-4.4.2-64Bit/optiga-trust-m/pal/xmc-dave-polling\pal_os_event.c ****         pal_os_event_register_callback_oneshot(p_pal_os_event,callback,callback_args,1000);
 159              	 .loc 1 50 0
 160 0008 0133     	 add r3,r3,#1
 161 000a 0370     	 strb r3,[r0]
  51:C:/Workspace/DAVE-4.4.2-64Bit/optiga-trust-m/pal/xmc-dave-polling\pal_os_event.c ****     }
 162              	 .loc 1 51 0
 163 000c FA23     	 mov r3,#250
 164 000e 9B00     	 lsl r3,r3,#2
 165 0010 FFF7FEFF 	 bl pal_os_event_register_callback_oneshot
 166              	.LVL14:
 167              	.L13:
 168              	.LBE5:
 169              	.LBE4:
  53:C:/Workspace/DAVE-4.4.2-64Bit/optiga-trust-m/pal/xmc-dave-polling\pal_os_event.c **** 
 170              	 .loc 1 53 0
 171              	 
 172 0014 08BD     	 pop {r3,pc}
 173              	 .cfi_endproc
 174              	.LFE276:
 176              	 .section .text.pal_os_event_create,"ax",%progbits
 177              	 .align 1
 178              	 .global pal_os_event_create
 179              	 .code 16
 180              	 .thumb_func
 182              	pal_os_event_create:
 183              	.LFB278:
  63:C:/Workspace/DAVE-4.4.2-64Bit/optiga-trust-m/pal/xmc-dave-polling\pal_os_event.c ****     if (( NULL != callback )&&( NULL != callback_args ))
 184              	 .loc 1 63 0
 185              	 .cfi_startproc
 186              	.LVL15:
 187 0000 10B5     	 push {r4,lr}
 188              	.LCFI3:
 189              	 .cfi_def_cfa_offset 8
 190              	 .cfi_offset 4,-8
 191              	 .cfi_offset 14,-4
 192 0002 064C     	 ldr r4,.L23
  64:C:/Workspace/DAVE-4.4.2-64Bit/optiga-trust-m/pal/xmc-dave-polling\pal_os_event.c ****     {
 193              	 .loc 1 64 0
 194 0004 0028     	 cmp r0,#0
 195 0006 06D0     	 beq .L16
  64:C:/Workspace/DAVE-4.4.2-64Bit/optiga-trust-m/pal/xmc-dave-polling\pal_os_event.c ****     {
 196              	 .loc 1 64 0 is_stmt 0 discriminator 1
 197 0008 0029     	 cmp r1,#0
 198 000a 04D0     	 beq .L16
 199 000c 0A1C     	 mov r2,r1
 200 000e 011C     	 mov r1,r0
 201              	.LVL16:
  66:C:/Workspace/DAVE-4.4.2-64Bit/optiga-trust-m/pal/xmc-dave-polling\pal_os_event.c ****     }
 202              	 .loc 1 66 0 is_stmt 1
 203 0010 201C     	 mov r0,r4
 204              	.LVL17:
 205 0012 FFF7FEFF 	 bl pal_os_event_start
 206              	.LVL18:
 207              	.L16:
  69:C:/Workspace/DAVE-4.4.2-64Bit/optiga-trust-m/pal/xmc-dave-polling\pal_os_event.c **** 
 208              	 .loc 1 69 0
 209 0016 201C     	 mov r0,r4
 210              	 
 211 0018 10BD     	 pop {r4,pc}
 212              	.L24:
 213 001a C046     	 .align 2
 214              	.L23:
 215 001c 00000000 	 .word .LANCHOR0
 216              	 .cfi_endproc
 217              	.LFE278:
 219              	 .section .text.pal_os_event_destroy,"ax",%progbits
 220              	 .align 1
 221              	 .global pal_os_event_destroy
 222              	 .code 16
 223              	 .thumb_func
 225              	pal_os_event_destroy:
 226              	.LFB281:
 104:C:/Workspace/DAVE-4.4.2-64Bit/optiga-trust-m/pal/xmc-dave-polling\pal_os_event.c **** 
 105:C:/Workspace/DAVE-4.4.2-64Bit/optiga-trust-m/pal/xmc-dave-polling\pal_os_event.c **** //lint --e{818,715} suppress "As there is no implementation, pal_os_event is not used"
 106:C:/Workspace/DAVE-4.4.2-64Bit/optiga-trust-m/pal/xmc-dave-polling\pal_os_event.c **** void pal_os_event_destroy(pal_os_event_t * pal_os_event)
 107:C:/Workspace/DAVE-4.4.2-64Bit/optiga-trust-m/pal/xmc-dave-polling\pal_os_event.c **** {
 227              	 .loc 1 107 0
 228              	 .cfi_startproc
 229              	.LVL19:
 108:C:/Workspace/DAVE-4.4.2-64Bit/optiga-trust-m/pal/xmc-dave-polling\pal_os_event.c ****     
 109:C:/Workspace/DAVE-4.4.2-64Bit/optiga-trust-m/pal/xmc-dave-polling\pal_os_event.c **** }
 230              	 .loc 1 109 0
 231              	 
 232 0000 7047     	 bx lr
 233              	 .cfi_endproc
 234              	.LFE281:
 236              	 .section .bss.pal_os_event_0,"aw",%nobits
 237              	 .align 2
 238              	 .set .LANCHOR0,.+0
 241              	pal_os_event_0:
 242 0000 00000000 	 .space 16
 242      00000000 
 242      00000000 
 242      00000000 
 243              	 .text
 244              	.Letext0:
 245              	 .file 2 "c:\\dave_4-4-2_64bit\\dave-ide-4.4.2-64bit\\eclipse\\arm-gcc-49\\arm-none-eabi\\include\\machine\\_default_types.h"
 246              	 .file 3 "c:\\dave_4-4-2_64bit\\dave-ide-4.4.2-64bit\\eclipse\\arm-gcc-49\\arm-none-eabi\\include\\stdint.h"
 247              	 .file 4 "C:/Workspace/DAVE-4.4.2-64Bit/xmc1400-getstarted-optiga-trust-m/Libraries/CMSIS/Infineon/XMC1400_series/Include/XMC1400.h"
 248              	 .file 5 "C:/Workspace/DAVE-4.4.2-64Bit/xmc1400-getstarted-optiga-trust-m/Libraries/XMCLib/inc/xmc1_scu.h"
 249              	 .file 6 "C:/Workspace/DAVE-4.4.2-64Bit/xmc1400-getstarted-optiga-trust-m/Libraries/XMCLib/inc/xmc_usic.h"
 250              	 .file 7 "C:/Workspace/DAVE-4.4.2-64Bit/xmc1400-getstarted-optiga-trust-m/Libraries/XMCLib/inc/xmc_ccu4.h"
 251              	 .file 8 "C:/Workspace/DAVE-4.4.2-64Bit/xmc1400-getstarted-optiga-trust-m/Dave/Generated/GLOBAL_CCU4/global_ccu4.h"
 252              	 .file 9 "C:/Workspace/DAVE-4.4.2-64Bit/xmc1400-getstarted-optiga-trust-m/Dave/Generated/TIMER/timer.h"
 253              	 .file 10 "C:/Workspace/DAVE-4.4.2-64Bit/optiga-trust-m/optiga/include/optiga/common/optiga_lib_types.h"
 254              	 .file 11 "C:/Workspace/DAVE-4.4.2-64Bit/optiga-trust-m/optiga/include/optiga/pal/pal_os_event.h"
 255              	 .file 12 "C:/Workspace/DAVE-4.4.2-64Bit/xmc1400-getstarted-optiga-trust-m/Libraries/CMSIS/Include/cmsis_gcc.h"
 256              	 .file 13 "C:/Workspace/DAVE-4.4.2-64Bit/xmc1400-getstarted-optiga-trust-m/Libraries/CMSIS/Infineon/XMC1400_series/Include/system_XMC1400.h"
 257              	 .file 14 "C:/Workspace/DAVE-4.4.2-64Bit/xmc1400-getstarted-optiga-trust-m/Dave/Generated/TIMER/timer_extern.h"