   1              	 .cpu cortex-m0
   2              	 .fpu softvfp
   3              	 .eabi_attribute 20,1
   4              	 .eabi_attribute 21,1
   5              	 .eabi_attribute 23,3
   6              	 .eabi_attribute 24,1
   7              	 .eabi_attribute 25,1
   8              	 .eabi_attribute 26,1
   9              	 .eabi_attribute 30,4
  10              	 .eabi_attribute 34,0
  11              	 .eabi_attribute 18,4
  12              	 .code 16
  13              	 .file "clock_xmc1_conf.c"
  14              	 .text
  15              	.Ltext0:
  16              	 .cfi_sections .debug_frame
  17              	 .section .text.SystemCoreClockSetup,"ax",%progbits
  18              	 .align 1
  19              	 .global SystemCoreClockSetup
  20              	 .code 16
  21              	 .thumb_func
  23              	SystemCoreClockSetup:
  24              	.LFB67:
  25              	 .file 1 "../Dave/Generated/CLOCK_XMC1/clock_xmc1_conf.c"
   1:../Dave/Generated/CLOCK_XMC1/clock_xmc1_conf.c **** /**************************************************************************************************
   2:../Dave/Generated/CLOCK_XMC1/clock_xmc1_conf.c **** * DAVE APP Name : CLOCK_XMC1       APP Version: 4.0.20
   3:../Dave/Generated/CLOCK_XMC1/clock_xmc1_conf.c **** *
   4:../Dave/Generated/CLOCK_XMC1/clock_xmc1_conf.c **** * NOTE:
   5:../Dave/Generated/CLOCK_XMC1/clock_xmc1_conf.c **** * This file is generated by DAVE. Any manual modification done to this file will be lost when the c
   6:../Dave/Generated/CLOCK_XMC1/clock_xmc1_conf.c **** ***************************************************************************************************
   7:../Dave/Generated/CLOCK_XMC1/clock_xmc1_conf.c **** 
   8:../Dave/Generated/CLOCK_XMC1/clock_xmc1_conf.c **** /**
   9:../Dave/Generated/CLOCK_XMC1/clock_xmc1_conf.c ****  * @cond
  10:../Dave/Generated/CLOCK_XMC1/clock_xmc1_conf.c ****  **************************************************************************************************
  11:../Dave/Generated/CLOCK_XMC1/clock_xmc1_conf.c ****  *
  12:../Dave/Generated/CLOCK_XMC1/clock_xmc1_conf.c ****  * Copyright (c) 2015, Infineon Technologies AG
  13:../Dave/Generated/CLOCK_XMC1/clock_xmc1_conf.c ****  * All rights reserved.
  14:../Dave/Generated/CLOCK_XMC1/clock_xmc1_conf.c ****  *
  15:../Dave/Generated/CLOCK_XMC1/clock_xmc1_conf.c ****  * Redistribution and use in source and binary forms, with or without modification,are permitted pr
  16:../Dave/Generated/CLOCK_XMC1/clock_xmc1_conf.c ****  * following conditions are met:
  17:../Dave/Generated/CLOCK_XMC1/clock_xmc1_conf.c ****  *
  18:../Dave/Generated/CLOCK_XMC1/clock_xmc1_conf.c ****  *   Redistributions of source code must retain the above copyright notice, this list of conditions
  19:../Dave/Generated/CLOCK_XMC1/clock_xmc1_conf.c ****  *   disclaimer.
  20:../Dave/Generated/CLOCK_XMC1/clock_xmc1_conf.c ****  *
  21:../Dave/Generated/CLOCK_XMC1/clock_xmc1_conf.c ****  *   Redistributions in binary form must reproduce the above copyright notice, this list of conditi
  22:../Dave/Generated/CLOCK_XMC1/clock_xmc1_conf.c ****  *   following disclaimer in the documentation and/or other materials provided with the distributio
  23:../Dave/Generated/CLOCK_XMC1/clock_xmc1_conf.c ****  *
  24:../Dave/Generated/CLOCK_XMC1/clock_xmc1_conf.c ****  *   Neither the name of the copyright holders nor the names of its contributors may be used to end
  25:../Dave/Generated/CLOCK_XMC1/clock_xmc1_conf.c ****  *   products derived from this software without specific prior written permission.
  26:../Dave/Generated/CLOCK_XMC1/clock_xmc1_conf.c ****  *
  27:../Dave/Generated/CLOCK_XMC1/clock_xmc1_conf.c ****  * THIS SOFTWARE IS PROVIDED BY THE COPYRIGHT HOLDERS AND CONTRIBUTORS "AS IS" AND ANY EXPRESS OR I
  28:../Dave/Generated/CLOCK_XMC1/clock_xmc1_conf.c ****  * INCLUDING, BUT NOT LIMITED TO, THE IMPLIED WARRANTIES OF MERCHANTABILITY AND FITNESS FOR A PARTI
  29:../Dave/Generated/CLOCK_XMC1/clock_xmc1_conf.c ****  * DISCLAIMED. IN NO EVENT SHALL THE COPYRIGHT HOLDER OR CONTRIBUTORS BE LIABLE  FOR ANY DIRECT, IN
  30:../Dave/Generated/CLOCK_XMC1/clock_xmc1_conf.c ****  * SPECIAL, EXEMPLARY, OR CONSEQUENTIAL DAMAGES (INCLUDING, BUT NOT LIMITED TO, PROCUREMENT OF SUBS
  31:../Dave/Generated/CLOCK_XMC1/clock_xmc1_conf.c ****  * SERVICES; LOSS OF USE, DATA, OR PROFITS; OR BUSINESS INTERRUPTION) HOWEVER CAUSED AND ON ANY THE
  32:../Dave/Generated/CLOCK_XMC1/clock_xmc1_conf.c ****  * WHETHER IN CONTRACT, STRICT LIABILITY,OR TORT (INCLUDING NEGLIGENCE OR OTHERWISE) ARISING IN ANY
  33:../Dave/Generated/CLOCK_XMC1/clock_xmc1_conf.c ****  * USE OF THIS SOFTWARE, EVEN IF ADVISED OF THE POSSIBILITY OF SUCH DAMAGE.
  34:../Dave/Generated/CLOCK_XMC1/clock_xmc1_conf.c ****  *
  35:../Dave/Generated/CLOCK_XMC1/clock_xmc1_conf.c ****  * To improve the quality of the software, users are encouraged to share modifications, enhancement
  36:../Dave/Generated/CLOCK_XMC1/clock_xmc1_conf.c ****  * with Infineon Technologies AG (dave@infineon.com).
  37:../Dave/Generated/CLOCK_XMC1/clock_xmc1_conf.c ****  **************************************************************************************************
  38:../Dave/Generated/CLOCK_XMC1/clock_xmc1_conf.c ****  *
  39:../Dave/Generated/CLOCK_XMC1/clock_xmc1_conf.c ****  * Change History
  40:../Dave/Generated/CLOCK_XMC1/clock_xmc1_conf.c ****  * --------------
  41:../Dave/Generated/CLOCK_XMC1/clock_xmc1_conf.c ****  * 2015-02-16:
  42:../Dave/Generated/CLOCK_XMC1/clock_xmc1_conf.c ****  *     - Initial version for DAVEv4. <BR>
  43:../Dave/Generated/CLOCK_XMC1/clock_xmc1_conf.c ****  * 2015-05-08:
  44:../Dave/Generated/CLOCK_XMC1/clock_xmc1_conf.c ****  *     - Internal structure object name has changed. <br>
  45:../Dave/Generated/CLOCK_XMC1/clock_xmc1_conf.c ****  * 2015-10-15:
  46:../Dave/Generated/CLOCK_XMC1/clock_xmc1_conf.c ****  *     - Updated for changes made in GUI combo options. <br>
  47:../Dave/Generated/CLOCK_XMC1/clock_xmc1_conf.c ****  * 2016-07-08:
  48:../Dave/Generated/CLOCK_XMC1/clock_xmc1_conf.c ****  *     - Fixed incorrect case for an included header.<br>
  49:../Dave/Generated/CLOCK_XMC1/clock_xmc1_conf.c ****  *
  50:../Dave/Generated/CLOCK_XMC1/clock_xmc1_conf.c ****  * @endcond
  51:../Dave/Generated/CLOCK_XMC1/clock_xmc1_conf.c ****  *
  52:../Dave/Generated/CLOCK_XMC1/clock_xmc1_conf.c ****  */
  53:../Dave/Generated/CLOCK_XMC1/clock_xmc1_conf.c **** /**************************************************************************************************
  54:../Dave/Generated/CLOCK_XMC1/clock_xmc1_conf.c ****  * HEADER FILES
  55:../Dave/Generated/CLOCK_XMC1/clock_xmc1_conf.c ****  **************************************************************************************************
  56:../Dave/Generated/CLOCK_XMC1/clock_xmc1_conf.c **** #include "clock_xmc1.h"
  57:../Dave/Generated/CLOCK_XMC1/clock_xmc1_conf.c **** 
  58:../Dave/Generated/CLOCK_XMC1/clock_xmc1_conf.c **** /**************************************************************************************************
  59:../Dave/Generated/CLOCK_XMC1/clock_xmc1_conf.c **** * DATA STRUCTURES
  60:../Dave/Generated/CLOCK_XMC1/clock_xmc1_conf.c **** ***************************************************************************************************
  61:../Dave/Generated/CLOCK_XMC1/clock_xmc1_conf.c **** CLOCK_XMC1_t CLOCK_XMC1_0 =
  62:../Dave/Generated/CLOCK_XMC1/clock_xmc1_conf.c **** {
  63:../Dave/Generated/CLOCK_XMC1/clock_xmc1_conf.c ****   .init_status = false
  64:../Dave/Generated/CLOCK_XMC1/clock_xmc1_conf.c **** };
  65:../Dave/Generated/CLOCK_XMC1/clock_xmc1_conf.c **** 
  66:../Dave/Generated/CLOCK_XMC1/clock_xmc1_conf.c **** /**************************************************************************************************
  67:../Dave/Generated/CLOCK_XMC1/clock_xmc1_conf.c **** * API IMPLEMENTATION
  68:../Dave/Generated/CLOCK_XMC1/clock_xmc1_conf.c **** ***************************************************************************************************
  69:../Dave/Generated/CLOCK_XMC1/clock_xmc1_conf.c **** void SystemCoreClockSetup(void)
  70:../Dave/Generated/CLOCK_XMC1/clock_xmc1_conf.c **** {
  26              	 .loc 1 70 0
  27              	 .cfi_startproc
  28 0000 30B5     	 push {r4,r5,lr}
  29              	.LCFI0:
  30              	 .cfi_def_cfa_offset 12
  31              	 .cfi_offset 4,-12
  32              	 .cfi_offset 5,-8
  33              	 .cfi_offset 14,-4
  34 0002 85B0     	 sub sp,sp,#20
  35              	.LCFI1:
  36              	 .cfi_def_cfa_offset 32
  71:../Dave/Generated/CLOCK_XMC1/clock_xmc1_conf.c **** /* LOCAL DATA STRUCTURES */
  72:../Dave/Generated/CLOCK_XMC1/clock_xmc1_conf.c **** const XMC_SCU_CLOCK_CONFIG_t CLOCK_XMC1_0_CONFIG =
  37              	 .loc 1 72 0
  38 0004 6A46     	 mov r2,sp
  39 0006 054B     	 ldr r3,.L2
  40 0008 6846     	 mov r0,sp
  41 000a 32CB     	 ldmia r3!,{r1,r4,r5}
  42 000c 32C2     	 stmia r2!,{r1,r4,r5}
  43 000e 1B68     	 ldr r3,[r3]
  44 0010 1360     	 str r3,[r2]
  73:../Dave/Generated/CLOCK_XMC1/clock_xmc1_conf.c **** {
  74:../Dave/Generated/CLOCK_XMC1/clock_xmc1_conf.c ****   .pclk_src = XMC_SCU_CLOCK_PCLKSRC_DOUBLE_MCLK, 
  75:../Dave/Generated/CLOCK_XMC1/clock_xmc1_conf.c ****   .rtc_src = XMC_SCU_CLOCK_RTCCLKSRC_DCO2,    
  76:../Dave/Generated/CLOCK_XMC1/clock_xmc1_conf.c ****   .fdiv = 0U,  /**< 8/10 Bit Fractional divider */
  77:../Dave/Generated/CLOCK_XMC1/clock_xmc1_conf.c ****   .idiv = 1U,  /**< 8 Bit integer divider */
  78:../Dave/Generated/CLOCK_XMC1/clock_xmc1_conf.c **** 
  79:../Dave/Generated/CLOCK_XMC1/clock_xmc1_conf.c ****   .dclk_src = XMC_SCU_CLOCK_DCLKSRC_DCO1,
  80:../Dave/Generated/CLOCK_XMC1/clock_xmc1_conf.c ****   .oschp_mode = XMC_SCU_CLOCK_OSCHP_MODE_DISABLED,
  81:../Dave/Generated/CLOCK_XMC1/clock_xmc1_conf.c ****   .osclp_mode = XMC_SCU_CLOCK_OSCLP_MODE_DISABLED
  82:../Dave/Generated/CLOCK_XMC1/clock_xmc1_conf.c **** 
  83:../Dave/Generated/CLOCK_XMC1/clock_xmc1_conf.c **** };
  84:../Dave/Generated/CLOCK_XMC1/clock_xmc1_conf.c **** 
  85:../Dave/Generated/CLOCK_XMC1/clock_xmc1_conf.c ****   /* Configure FDIV, IDIV, PCLKSEL dividers*/
  86:../Dave/Generated/CLOCK_XMC1/clock_xmc1_conf.c ****   XMC_SCU_CLOCK_Init(&CLOCK_XMC1_0_CONFIG);
  45              	 .loc 1 86 0
  46 0012 FFF7FEFF 	 bl XMC_SCU_CLOCK_Init
  47              	.LVL0:
  87:../Dave/Generated/CLOCK_XMC1/clock_xmc1_conf.c **** }
  48              	 .loc 1 87 0
  49 0016 05B0     	 add sp,sp,#20
  50              	 
  51 0018 30BD     	 pop {r4,r5,pc}
  52              	.L3:
  53 001a C046     	 .align 2
  54              	.L2:
  55 001c 00000000 	 .word .LANCHOR0
  56              	 .cfi_endproc
  57              	.LFE67:
  59              	 .global CLOCK_XMC1_0
  60              	 .section .bss.CLOCK_XMC1_0,"aw",%nobits
  63              	CLOCK_XMC1_0:
  64 0000 00       	 .space 1
  65              	 .section .rodata
  66              	 .align 2
  67              	 .set .LANCHOR0,.+0
  68              	.LC0:
  69 0000 0000     	 .short 0
  70 0002 01       	 .byte 1
  71 0003 00       	 .space 1
  72 0004 0000     	 .short 0
  73 0006 30       	 .byte 48
  74 0007 03       	 .byte 3
  75 0008 00000100 	 .word 65536
  76 000c 00000000 	 .word 0
  77              	 .text
  78              	.Letext0:
  79              	 .file 2 "c:\\dave_4-4-2_64bit\\dave-ide-4.4.2-64bit\\eclipse\\arm-gcc-49\\arm-none-eabi\\include\\machine\\_default_types.h"
  80              	 .file 3 "c:\\dave_4-4-2_64bit\\dave-ide-4.4.2-64bit\\eclipse\\arm-gcc-49\\arm-none-eabi\\include\\stdint.h"
  81              	 .file 4 "C:/Workspace/DAVE-4.4.2-64Bit/xmc1400-getstarted-optiga-trust-m/Libraries/XMCLib/inc/xmc1_scu.h"
  82              	 .file 5 "../Dave/Generated/CLOCK_XMC1/clock_xmc1.h"
  83              	 .file 6 "C:/Workspace/DAVE-4.4.2-64Bit/xmc1400-getstarted-optiga-trust-m/Libraries/CMSIS/Include/cmsis_gcc.h"
  84              	 .file 7 "C:/Workspace/DAVE-4.4.2-64Bit/xmc1400-getstarted-optiga-trust-m/Libraries/CMSIS/Infineon/XMC1400_series/Include/system_XMC1400.h"
  85              	 .file 8 "C:/Workspace/DAVE-4.4.2-64Bit/xmc1400-getstarted-optiga-trust-m/Libraries/XMCLib/inc/xmc_scu.h"