   1              	 .cpu cortex-m0
   2              	 .fpu softvfp
   3              	 .eabi_attribute 20,1
   4              	 .eabi_attribute 21,1
   5              	 .eabi_attribute 23,3
   6              	 .eabi_attribute 24,1
   7              	 .eabi_attribute 25,1
   8              	 .eabi_attribute 26,1
   9              	 .eabi_attribute 30,4
  10              	 .eabi_attribute 34,0
  11              	 .eabi_attribute 18,4
  12              	 .code 16
  13              	 .file "xmc1_rtc.c"
  14              	 .text
  15              	.Ltext0:
  16              	 .cfi_sections .debug_frame
  17              	 .section .text.XMC_RTC_Enable,"ax",%progbits
  18              	 .align 1
  19              	 .global XMC_RTC_Enable
  20              	 .code 16
  21              	 .thumb_func
  23              	XMC_RTC_Enable:
  24              	.LFB70:
  25              	 .file 1 "../Libraries/XMCLib/src/xmc1_rtc.c"
   1:../Libraries/XMCLib/src/xmc1_rtc.c **** /**
   2:../Libraries/XMCLib/src/xmc1_rtc.c ****  * @file xmc1_rtc.c
   3:../Libraries/XMCLib/src/xmc1_rtc.c ****  * @date 2016-03-09
   4:../Libraries/XMCLib/src/xmc1_rtc.c ****  *
   5:../Libraries/XMCLib/src/xmc1_rtc.c ****  * @cond
   6:../Libraries/XMCLib/src/xmc1_rtc.c ****  **************************************************************************************************
   7:../Libraries/XMCLib/src/xmc1_rtc.c ****  * XMClib v2.1.24 - XMC Peripheral Driver Library 
   8:../Libraries/XMCLib/src/xmc1_rtc.c ****  *
   9:../Libraries/XMCLib/src/xmc1_rtc.c ****  * Copyright (c) 2015-2019, Infineon Technologies AG
  10:../Libraries/XMCLib/src/xmc1_rtc.c ****  * All rights reserved.                        
  11:../Libraries/XMCLib/src/xmc1_rtc.c ****  *                                             
  12:../Libraries/XMCLib/src/xmc1_rtc.c ****  * Redistribution and use in source and binary forms, with or without modification,are permitted pr
  13:../Libraries/XMCLib/src/xmc1_rtc.c ****  * following conditions are met:   
  14:../Libraries/XMCLib/src/xmc1_rtc.c ****  *                                                                              
  15:../Libraries/XMCLib/src/xmc1_rtc.c ****  * Redistributions of source code must retain the above copyright notice, this list of conditions a
  16:../Libraries/XMCLib/src/xmc1_rtc.c ****  * disclaimer.                        
  17:../Libraries/XMCLib/src/xmc1_rtc.c ****  * 
  18:../Libraries/XMCLib/src/xmc1_rtc.c ****  * Redistributions in binary form must reproduce the above copyright notice, this list of condition
  19:../Libraries/XMCLib/src/xmc1_rtc.c ****  * disclaimer in the documentation and/or other materials provided with the distribution.          
  20:../Libraries/XMCLib/src/xmc1_rtc.c ****  * 
  21:../Libraries/XMCLib/src/xmc1_rtc.c ****  * Neither the name of the copyright holders nor the names of its contributors may be used to endor
  22:../Libraries/XMCLib/src/xmc1_rtc.c ****  * products derived from this software without specific prior written permission.                  
  23:../Libraries/XMCLib/src/xmc1_rtc.c ****  *                                                                              
  24:../Libraries/XMCLib/src/xmc1_rtc.c ****  * THIS SOFTWARE IS PROVIDED BY THE COPYRIGHT HOLDERS AND CONTRIBUTORS "AS IS" AND ANY EXPRESS OR I
  25:../Libraries/XMCLib/src/xmc1_rtc.c ****  * INCLUDING, BUT NOT LIMITED TO, THE IMPLIED WARRANTIES OF MERCHANTABILITY AND FITNESS FOR A PARTI
  26:../Libraries/XMCLib/src/xmc1_rtc.c ****  * DISCLAIMED. IN NO EVENT SHALL THE COPYRIGHT HOLDER OR CONTRIBUTORS BE LIABLE  FOR ANY DIRECT, IN
  27:../Libraries/XMCLib/src/xmc1_rtc.c ****  * SPECIAL, EXEMPLARY, OR CONSEQUENTIAL DAMAGES (INCLUDING, BUT NOT LIMITED TO, PROCUREMENT OF SUBS
  28:../Libraries/XMCLib/src/xmc1_rtc.c ****  * SERVICES; LOSS OF USE, DATA, OR PROFITS; OR BUSINESS INTERRUPTION) HOWEVER CAUSED AND ON ANY THE
  29:../Libraries/XMCLib/src/xmc1_rtc.c ****  * WHETHER IN CONTRACT, STRICT LIABILITY,OR TORT (INCLUDING NEGLIGENCE OR OTHERWISE) ARISING IN ANY
  30:../Libraries/XMCLib/src/xmc1_rtc.c ****  * OF THIS SOFTWARE, EVEN IF ADVISED OF THE POSSIBILITY OF SUCH DAMAGE.                            
  31:../Libraries/XMCLib/src/xmc1_rtc.c ****  *                                                                              
  32:../Libraries/XMCLib/src/xmc1_rtc.c ****  * To improve the quality of the software, users are encouraged to share modifications, enhancement
  33:../Libraries/XMCLib/src/xmc1_rtc.c ****  * Infineon Technologies AG dave@infineon.com).                                                    
  34:../Libraries/XMCLib/src/xmc1_rtc.c ****  **************************************************************************************************
  35:../Libraries/XMCLib/src/xmc1_rtc.c ****  *
  36:../Libraries/XMCLib/src/xmc1_rtc.c ****  * Change History
  37:../Libraries/XMCLib/src/xmc1_rtc.c ****  * --------------
  38:../Libraries/XMCLib/src/xmc1_rtc.c ****  *
  39:../Libraries/XMCLib/src/xmc1_rtc.c ****  * 2015-02-20:
  40:../Libraries/XMCLib/src/xmc1_rtc.c ****  *     - Initial <br>
  41:../Libraries/XMCLib/src/xmc1_rtc.c ****  *      
  42:../Libraries/XMCLib/src/xmc1_rtc.c ****  * 2015-05-20:
  43:../Libraries/XMCLib/src/xmc1_rtc.c ****  *     - XMC_RTC_Init() function is modified
  44:../Libraries/XMCLib/src/xmc1_rtc.c ****  *       by adding RTC running condition check
  45:../Libraries/XMCLib/src/xmc1_rtc.c ****  *
  46:../Libraries/XMCLib/src/xmc1_rtc.c ****  * 2016-03-09:
  47:../Libraries/XMCLib/src/xmc1_rtc.c ****  *     - Optimize write only registers
  48:../Libraries/XMCLib/src/xmc1_rtc.c ****  *
  49:../Libraries/XMCLib/src/xmc1_rtc.c ****  * @endcond 
  50:../Libraries/XMCLib/src/xmc1_rtc.c ****  *
  51:../Libraries/XMCLib/src/xmc1_rtc.c ****  */
  52:../Libraries/XMCLib/src/xmc1_rtc.c **** 
  53:../Libraries/XMCLib/src/xmc1_rtc.c **** 
  54:../Libraries/XMCLib/src/xmc1_rtc.c **** /**
  55:../Libraries/XMCLib/src/xmc1_rtc.c ****  *
  56:../Libraries/XMCLib/src/xmc1_rtc.c ****  * @brief RTC driver for XMC microcontroller family.
  57:../Libraries/XMCLib/src/xmc1_rtc.c ****  *
  58:../Libraries/XMCLib/src/xmc1_rtc.c ****  */
  59:../Libraries/XMCLib/src/xmc1_rtc.c **** 
  60:../Libraries/XMCLib/src/xmc1_rtc.c **** /**************************************************************************************************
  61:../Libraries/XMCLib/src/xmc1_rtc.c ****  * HEADER FILES
  62:../Libraries/XMCLib/src/xmc1_rtc.c ****  **************************************************************************************************
  63:../Libraries/XMCLib/src/xmc1_rtc.c **** #include <xmc_rtc.h>
  64:../Libraries/XMCLib/src/xmc1_rtc.c **** 
  65:../Libraries/XMCLib/src/xmc1_rtc.c **** #if UC_FAMILY == XMC1
  66:../Libraries/XMCLib/src/xmc1_rtc.c **** #include <xmc_scu.h>
  67:../Libraries/XMCLib/src/xmc1_rtc.c **** 
  68:../Libraries/XMCLib/src/xmc1_rtc.c **** /**************************************************************************************************
  69:../Libraries/XMCLib/src/xmc1_rtc.c ****  * API IMPLEMENTATION
  70:../Libraries/XMCLib/src/xmc1_rtc.c ****  **************************************************************************************************
  71:../Libraries/XMCLib/src/xmc1_rtc.c **** /*
  72:../Libraries/XMCLib/src/xmc1_rtc.c ****  * Initialize the RTC peripheral
  73:../Libraries/XMCLib/src/xmc1_rtc.c ****  */
  74:../Libraries/XMCLib/src/xmc1_rtc.c **** XMC_RTC_STATUS_t XMC_RTC_Init(const XMC_RTC_CONFIG_t *const config)
  75:../Libraries/XMCLib/src/xmc1_rtc.c **** {
  76:../Libraries/XMCLib/src/xmc1_rtc.c ****   if (XMC_RTC_IsRunning() == false)
  77:../Libraries/XMCLib/src/xmc1_rtc.c ****   {
  78:../Libraries/XMCLib/src/xmc1_rtc.c ****     if (XMC_RTC_IsEnabled() == false)
  79:../Libraries/XMCLib/src/xmc1_rtc.c ****     {
  80:../Libraries/XMCLib/src/xmc1_rtc.c ****       XMC_RTC_Enable();
  81:../Libraries/XMCLib/src/xmc1_rtc.c **** 	}
  82:../Libraries/XMCLib/src/xmc1_rtc.c **** 	
  83:../Libraries/XMCLib/src/xmc1_rtc.c ****     XMC_RTC_SetPrescaler(config->prescaler);
  84:../Libraries/XMCLib/src/xmc1_rtc.c **** 
  85:../Libraries/XMCLib/src/xmc1_rtc.c **** 	while ((XMC_SCU_GetMirrorStatus() & (SCU_GENERAL_MIRRSTS_RTC_TIM0_Msk | SCU_GENERAL_MIRRSTS_RTC_TI
  86:../Libraries/XMCLib/src/xmc1_rtc.c **** 	{
  87:../Libraries/XMCLib/src/xmc1_rtc.c ****       /* check SCU_MIRRSTS to ensure that no transfer over serial interface is pending */
  88:../Libraries/XMCLib/src/xmc1_rtc.c ****     }
  89:../Libraries/XMCLib/src/xmc1_rtc.c ****     RTC->TIM0 = config->time.raw0;
  90:../Libraries/XMCLib/src/xmc1_rtc.c ****     RTC->TIM1 = config->time.raw1;
  91:../Libraries/XMCLib/src/xmc1_rtc.c **** 	
  92:../Libraries/XMCLib/src/xmc1_rtc.c ****     while ((XMC_SCU_GetMirrorStatus() & (SCU_GENERAL_MIRRSTS_RTC_ATIM0_Msk | SCU_GENERAL_MIRRSTS_RT
  93:../Libraries/XMCLib/src/xmc1_rtc.c ****     {
  94:../Libraries/XMCLib/src/xmc1_rtc.c ****       /* check SCU_MIRRSTS to ensure that no transfer over serial interface is pending */
  95:../Libraries/XMCLib/src/xmc1_rtc.c ****     }
  96:../Libraries/XMCLib/src/xmc1_rtc.c ****     RTC->ATIM0 = config->alarm.raw0;	
  97:../Libraries/XMCLib/src/xmc1_rtc.c ****     RTC->ATIM1 = config->alarm.raw1;    
  98:../Libraries/XMCLib/src/xmc1_rtc.c ****   }
  99:../Libraries/XMCLib/src/xmc1_rtc.c ****   return XMC_RTC_STATUS_OK;
 100:../Libraries/XMCLib/src/xmc1_rtc.c **** }
 101:../Libraries/XMCLib/src/xmc1_rtc.c **** 
 102:../Libraries/XMCLib/src/xmc1_rtc.c **** /*
 103:../Libraries/XMCLib/src/xmc1_rtc.c ****  * Ungates a clock node for RTC
 104:../Libraries/XMCLib/src/xmc1_rtc.c ****  */ 
 105:../Libraries/XMCLib/src/xmc1_rtc.c **** void XMC_RTC_Enable(void)
 106:../Libraries/XMCLib/src/xmc1_rtc.c **** {
  26              	 .loc 1 106 0
  27              	 .cfi_startproc
 107:../Libraries/XMCLib/src/xmc1_rtc.c ****   XMC_SCU_CLOCK_UngatePeripheralClock(XMC_SCU_PERIPHERAL_CLOCK_RTC);
  28              	 .loc 1 107 0
  29 0000 8020     	 mov r0,#128
 106:../Libraries/XMCLib/src/xmc1_rtc.c ****   XMC_SCU_CLOCK_UngatePeripheralClock(XMC_SCU_PERIPHERAL_CLOCK_RTC);
  30              	 .loc 1 106 0
  31 0002 08B5     	 push {r3,lr}
  32              	.LCFI0:
  33              	 .cfi_def_cfa_offset 8
  34              	 .cfi_offset 3,-8
  35              	 .cfi_offset 14,-4
  36              	 .loc 1 107 0
  37 0004 C000     	 lsl r0,r0,#3
  38 0006 FFF7FEFF 	 bl XMC_SCU_CLOCK_UngatePeripheralClock
  39              	.LVL0:
 108:../Libraries/XMCLib/src/xmc1_rtc.c **** }
  40              	 .loc 1 108 0
  41              	 
  42 000a 08BD     	 pop {r3,pc}
  43              	 .cfi_endproc
  44              	.LFE70:
  46              	 .section .text.XMC_RTC_Disable,"ax",%progbits
  47              	 .align 1
  48              	 .global XMC_RTC_Disable
  49              	 .code 16
  50              	 .thumb_func
  52              	XMC_RTC_Disable:
  53              	.LFB71:
 109:../Libraries/XMCLib/src/xmc1_rtc.c **** 
 110:../Libraries/XMCLib/src/xmc1_rtc.c **** /*
 111:../Libraries/XMCLib/src/xmc1_rtc.c ****  * Gates a clock node for RTC
 112:../Libraries/XMCLib/src/xmc1_rtc.c ****  */ 
 113:../Libraries/XMCLib/src/xmc1_rtc.c **** void XMC_RTC_Disable(void)
 114:../Libraries/XMCLib/src/xmc1_rtc.c **** {
  54              	 .loc 1 114 0
  55              	 .cfi_startproc
 115:../Libraries/XMCLib/src/xmc1_rtc.c ****   XMC_SCU_CLOCK_GatePeripheralClock(XMC_SCU_PERIPHERAL_CLOCK_RTC);
  56              	 .loc 1 115 0
  57 0000 8020     	 mov r0,#128
 114:../Libraries/XMCLib/src/xmc1_rtc.c ****   XMC_SCU_CLOCK_GatePeripheralClock(XMC_SCU_PERIPHERAL_CLOCK_RTC);
  58              	 .loc 1 114 0
  59 0002 08B5     	 push {r3,lr}
  60              	.LCFI1:
  61              	 .cfi_def_cfa_offset 8
  62              	 .cfi_offset 3,-8
  63              	 .cfi_offset 14,-4
  64              	 .loc 1 115 0
  65 0004 C000     	 lsl r0,r0,#3
  66 0006 FFF7FEFF 	 bl XMC_SCU_CLOCK_GatePeripheralClock
  67              	.LVL1:
 116:../Libraries/XMCLib/src/xmc1_rtc.c **** }
  68              	 .loc 1 116 0
  69              	 
  70 000a 08BD     	 pop {r3,pc}
  71              	 .cfi_endproc
  72              	.LFE71:
  74              	 .section .text.XMC_RTC_SetDebugMode,"ax",%progbits
  75              	 .align 1
  76              	 .global XMC_RTC_SetDebugMode
  77              	 .code 16
  78              	 .thumb_func
  80              	XMC_RTC_SetDebugMode:
  81              	.LFB72:
 117:../Libraries/XMCLib/src/xmc1_rtc.c **** 
 118:../Libraries/XMCLib/src/xmc1_rtc.c **** /*
 119:../Libraries/XMCLib/src/xmc1_rtc.c ****  * Suspends RTC function during CPU HALT mode
 120:../Libraries/XMCLib/src/xmc1_rtc.c ****  */ 
 121:../Libraries/XMCLib/src/xmc1_rtc.c **** void XMC_RTC_SetDebugMode(const XMC_RTC_DEBUG_MODE_t debug_mode)
 122:../Libraries/XMCLib/src/xmc1_rtc.c **** {
  82              	 .loc 1 122 0
  83              	 .cfi_startproc
  84              	.LVL2:
 123:../Libraries/XMCLib/src/xmc1_rtc.c ****   uint32_t regval;
 124:../Libraries/XMCLib/src/xmc1_rtc.c ****   regval = (RTC->CTR & (uint32_t)~RTC_CTR_SUS_Msk);
  85              	 .loc 1 124 0
  86 0000 0221     	 mov r1,#2
  87 0002 034A     	 ldr r2,.L4
 125:../Libraries/XMCLib/src/xmc1_rtc.c ****   RTC->CTR = (regval | (uint32_t)debug_mode);
 126:../Libraries/XMCLib/src/xmc1_rtc.c **** }
  88              	 .loc 1 126 0
  89              	 
 124:../Libraries/XMCLib/src/xmc1_rtc.c ****   RTC->CTR = (regval | (uint32_t)debug_mode);
  90              	 .loc 1 124 0
  91 0004 5368     	 ldr r3,[r2,#4]
  92              	.LVL3:
  93 0006 8B43     	 bic r3,r1
  94              	.LVL4:
 125:../Libraries/XMCLib/src/xmc1_rtc.c ****   RTC->CTR = (regval | (uint32_t)debug_mode);
  95              	 .loc 1 125 0
  96 0008 1843     	 orr r0,r3
  97              	.LVL5:
  98 000a 5060     	 str r0,[r2,#4]
  99              	 .loc 1 126 0
 100 000c 7047     	 bx lr
 101              	.L5:
 102 000e C046     	 .align 2
 103              	.L4:
 104 0010 000A0140 	 .word 1073809920
 105              	 .cfi_endproc
 106              	.LFE72:
 108              	 .section .text.XMC_RTC_EnableEvent,"ax",%progbits
 109              	 .align 1
 110              	 .global XMC_RTC_EnableEvent
 111              	 .code 16
 112              	 .thumb_func
 114              	XMC_RTC_EnableEvent:
 115              	.LFB73:
 127:../Libraries/XMCLib/src/xmc1_rtc.c **** 
 128:../Libraries/XMCLib/src/xmc1_rtc.c **** /*
 129:../Libraries/XMCLib/src/xmc1_rtc.c ****  * Enable RTC periodic and alarm event(s)
 130:../Libraries/XMCLib/src/xmc1_rtc.c ****  */ 
 131:../Libraries/XMCLib/src/xmc1_rtc.c **** void XMC_RTC_EnableEvent(const uint32_t event)
 132:../Libraries/XMCLib/src/xmc1_rtc.c **** {
 116              	 .loc 1 132 0
 117              	 .cfi_startproc
 118              	.LVL6:
 133:../Libraries/XMCLib/src/xmc1_rtc.c ****   RTC->MSKSR |= event;
 119              	 .loc 1 133 0
 120 0000 024A     	 ldr r2,.L7
 134:../Libraries/XMCLib/src/xmc1_rtc.c **** }
 121              	 .loc 1 134 0
 122              	 
 133:../Libraries/XMCLib/src/xmc1_rtc.c ****   RTC->MSKSR |= event;
 123              	 .loc 1 133 0
 124 0002 1369     	 ldr r3,[r2,#16]
 125 0004 1843     	 orr r0,r3
 126              	.LVL7:
 127 0006 1061     	 str r0,[r2,#16]
 128              	 .loc 1 134 0
 129 0008 7047     	 bx lr
 130              	.L8:
 131 000a C046     	 .align 2
 132              	.L7:
 133 000c 000A0140 	 .word 1073809920
 134              	 .cfi_endproc
 135              	.LFE73:
 137              	 .section .text.XMC_RTC_DisableEvent,"ax",%progbits
 138              	 .align 1
 139              	 .global XMC_RTC_DisableEvent
 140              	 .code 16
 141              	 .thumb_func
 143              	XMC_RTC_DisableEvent:
 144              	.LFB74:
 135:../Libraries/XMCLib/src/xmc1_rtc.c **** 
 136:../Libraries/XMCLib/src/xmc1_rtc.c **** /*
 137:../Libraries/XMCLib/src/xmc1_rtc.c ****  * Disable RTC periodic and alarm event(s)
 138:../Libraries/XMCLib/src/xmc1_rtc.c ****  */
 139:../Libraries/XMCLib/src/xmc1_rtc.c **** void XMC_RTC_DisableEvent(const uint32_t event)
 140:../Libraries/XMCLib/src/xmc1_rtc.c **** {
 145              	 .loc 1 140 0
 146              	 .cfi_startproc
 147              	.LVL8:
 141:../Libraries/XMCLib/src/xmc1_rtc.c ****   RTC->MSKSR &= ~event;
 148              	 .loc 1 141 0
 149 0000 024A     	 ldr r2,.L10
 142:../Libraries/XMCLib/src/xmc1_rtc.c **** }
 150              	 .loc 1 142 0
 151              	 
 141:../Libraries/XMCLib/src/xmc1_rtc.c ****   RTC->MSKSR &= ~event;
 152              	 .loc 1 141 0
 153 0002 1369     	 ldr r3,[r2,#16]
 154 0004 8343     	 bic r3,r0
 155 0006 1361     	 str r3,[r2,#16]
 156              	 .loc 1 142 0
 157 0008 7047     	 bx lr
 158              	.L11:
 159 000a C046     	 .align 2
 160              	.L10:
 161 000c 000A0140 	 .word 1073809920
 162              	 .cfi_endproc
 163              	.LFE74:
 165              	 .section .text.XMC_RTC_ClearEvent,"ax",%progbits
 166              	 .align 1
 167              	 .global XMC_RTC_ClearEvent
 168              	 .code 16
 169              	 .thumb_func
 171              	XMC_RTC_ClearEvent:
 172              	.LFB75:
 143:../Libraries/XMCLib/src/xmc1_rtc.c **** 
 144:../Libraries/XMCLib/src/xmc1_rtc.c **** /*
 145:../Libraries/XMCLib/src/xmc1_rtc.c ****  * Clear RTC periodic and alarm event(s)
 146:../Libraries/XMCLib/src/xmc1_rtc.c ****  */
 147:../Libraries/XMCLib/src/xmc1_rtc.c **** void XMC_RTC_ClearEvent(const uint32_t event)
 148:../Libraries/XMCLib/src/xmc1_rtc.c **** {
 173              	 .loc 1 148 0
 174              	 .cfi_startproc
 175              	.LVL9:
 149:../Libraries/XMCLib/src/xmc1_rtc.c ****   RTC->CLRSR = event;
 176              	 .loc 1 149 0
 177 0000 014B     	 ldr r3,.L13
 150:../Libraries/XMCLib/src/xmc1_rtc.c **** }
 178              	 .loc 1 150 0
 179              	 
 149:../Libraries/XMCLib/src/xmc1_rtc.c ****   RTC->CLRSR = event;
 180              	 .loc 1 149 0
 181 0002 5861     	 str r0,[r3,#20]
 182              	 .loc 1 150 0
 183 0004 7047     	 bx lr
 184              	.L14:
 185 0006 C046     	 .align 2
 186              	.L13:
 187 0008 000A0140 	 .word 1073809920
 188              	 .cfi_endproc
 189              	.LFE75:
 191              	 .section .text.XMC_RTC_IsEnabled,"ax",%progbits
 192              	 .align 1
 193              	 .global XMC_RTC_IsEnabled
 194              	 .code 16
 195              	 .thumb_func
 197              	XMC_RTC_IsEnabled:
 198              	.LFB76:
 151:../Libraries/XMCLib/src/xmc1_rtc.c **** 
 152:../Libraries/XMCLib/src/xmc1_rtc.c **** /*
 153:../Libraries/XMCLib/src/xmc1_rtc.c ****  * Checks RTC peripheral is enabled for programming to its registers
 154:../Libraries/XMCLib/src/xmc1_rtc.c ****  */
 155:../Libraries/XMCLib/src/xmc1_rtc.c **** bool XMC_RTC_IsEnabled(void)
 156:../Libraries/XMCLib/src/xmc1_rtc.c **** {
 199              	 .loc 1 156 0
 200              	 .cfi_startproc
 157:../Libraries/XMCLib/src/xmc1_rtc.c ****   return !XMC_SCU_CLOCK_IsPeripheralClockGated(XMC_SCU_PERIPHERAL_CLOCK_RTC);
 201              	 .loc 1 157 0
 202 0000 8020     	 mov r0,#128
 156:../Libraries/XMCLib/src/xmc1_rtc.c ****   return !XMC_SCU_CLOCK_IsPeripheralClockGated(XMC_SCU_PERIPHERAL_CLOCK_RTC);
 203              	 .loc 1 156 0
 204 0002 08B5     	 push {r3,lr}
 205              	.LCFI2:
 206              	 .cfi_def_cfa_offset 8
 207              	 .cfi_offset 3,-8
 208              	 .cfi_offset 14,-4
 209              	 .loc 1 157 0
 210 0004 C000     	 lsl r0,r0,#3
 211 0006 FFF7FEFF 	 bl XMC_SCU_CLOCK_IsPeripheralClockGated
 212              	.LVL10:
 213 000a 0123     	 mov r3,#1
 214 000c 5840     	 eor r0,r3
 215 000e C0B2     	 uxtb r0,r0
 158:../Libraries/XMCLib/src/xmc1_rtc.c **** }
 216              	 .loc 1 158 0
 217              	 
 218 0010 08BD     	 pop {r3,pc}
 219              	 .cfi_endproc
 220              	.LFE76:
 222              	 .section .text.XMC_RTC_Init,"ax",%progbits
 223              	 .align 1
 224              	 .global XMC_RTC_Init
 225              	 .code 16
 226              	 .thumb_func
 228              	XMC_RTC_Init:
 229              	.LFB69:
  75:../Libraries/XMCLib/src/xmc1_rtc.c ****   if (XMC_RTC_IsRunning() == false)
 230              	 .loc 1 75 0
 231              	 .cfi_startproc
 232              	.LVL11:
 233 0000 38B5     	 push {r3,r4,r5,lr}
 234              	.LCFI3:
 235              	 .cfi_def_cfa_offset 16
 236              	 .cfi_offset 3,-16
 237              	 .cfi_offset 4,-12
 238              	 .cfi_offset 5,-8
 239              	 .cfi_offset 14,-4
 240              	.LBB12:
 241              	.LBB13:
 242              	 .file 2 "C:/Workspace/DAVE-4.4.2-64Bit/xmc1400-getstarted-optiga-trust-m/Libraries/XMCLib/inc/xmc_rtc.h"
   1:C:/Workspace/DAVE-4.4.2-64Bit/xmc1400-getstarted-optiga-trust-m/Libraries/XMCLib/inc\xmc_rtc.h **** /**
   2:C:/Workspace/DAVE-4.4.2-64Bit/xmc1400-getstarted-optiga-trust-m/Libraries/XMCLib/inc\xmc_rtc.h ****  * @file xmc_rtc.h
   3:C:/Workspace/DAVE-4.4.2-64Bit/xmc1400-getstarted-optiga-trust-m/Libraries/XMCLib/inc\xmc_rtc.h ****  * @date 2016-05-19
   4:C:/Workspace/DAVE-4.4.2-64Bit/xmc1400-getstarted-optiga-trust-m/Libraries/XMCLib/inc\xmc_rtc.h ****  *
   5:C:/Workspace/DAVE-4.4.2-64Bit/xmc1400-getstarted-optiga-trust-m/Libraries/XMCLib/inc\xmc_rtc.h ****  * @cond
   6:C:/Workspace/DAVE-4.4.2-64Bit/xmc1400-getstarted-optiga-trust-m/Libraries/XMCLib/inc\xmc_rtc.h ****  **************************************************************************************************
   7:C:/Workspace/DAVE-4.4.2-64Bit/xmc1400-getstarted-optiga-trust-m/Libraries/XMCLib/inc\xmc_rtc.h ****  * XMClib v2.1.24 - XMC Peripheral Driver Library 
   8:C:/Workspace/DAVE-4.4.2-64Bit/xmc1400-getstarted-optiga-trust-m/Libraries/XMCLib/inc\xmc_rtc.h ****  *
   9:C:/Workspace/DAVE-4.4.2-64Bit/xmc1400-getstarted-optiga-trust-m/Libraries/XMCLib/inc\xmc_rtc.h ****  * Copyright (c) 2015-2019, Infineon Technologies AG
  10:C:/Workspace/DAVE-4.4.2-64Bit/xmc1400-getstarted-optiga-trust-m/Libraries/XMCLib/inc\xmc_rtc.h ****  * All rights reserved.                        
  11:C:/Workspace/DAVE-4.4.2-64Bit/xmc1400-getstarted-optiga-trust-m/Libraries/XMCLib/inc\xmc_rtc.h ****  *                                             
  12:C:/Workspace/DAVE-4.4.2-64Bit/xmc1400-getstarted-optiga-trust-m/Libraries/XMCLib/inc\xmc_rtc.h ****  * Redistribution and use in source and binary forms, with or without modification,are permitted pr
  13:C:/Workspace/DAVE-4.4.2-64Bit/xmc1400-getstarted-optiga-trust-m/Libraries/XMCLib/inc\xmc_rtc.h ****  * following conditions are met:   
  14:C:/Workspace/DAVE-4.4.2-64Bit/xmc1400-getstarted-optiga-trust-m/Libraries/XMCLib/inc\xmc_rtc.h ****  *                                                                              
  15:C:/Workspace/DAVE-4.4.2-64Bit/xmc1400-getstarted-optiga-trust-m/Libraries/XMCLib/inc\xmc_rtc.h ****  * Redistributions of source code must retain the above copyright notice, this list of conditions a
  16:C:/Workspace/DAVE-4.4.2-64Bit/xmc1400-getstarted-optiga-trust-m/Libraries/XMCLib/inc\xmc_rtc.h ****  * disclaimer.                        
  17:C:/Workspace/DAVE-4.4.2-64Bit/xmc1400-getstarted-optiga-trust-m/Libraries/XMCLib/inc\xmc_rtc.h ****  * 
  18:C:/Workspace/DAVE-4.4.2-64Bit/xmc1400-getstarted-optiga-trust-m/Libraries/XMCLib/inc\xmc_rtc.h ****  * Redistributions in binary form must reproduce the above copyright notice, this list of condition
  19:C:/Workspace/DAVE-4.4.2-64Bit/xmc1400-getstarted-optiga-trust-m/Libraries/XMCLib/inc\xmc_rtc.h ****  * disclaimer in the documentation and/or other materials provided with the distribution.          
  20:C:/Workspace/DAVE-4.4.2-64Bit/xmc1400-getstarted-optiga-trust-m/Libraries/XMCLib/inc\xmc_rtc.h ****  * 
  21:C:/Workspace/DAVE-4.4.2-64Bit/xmc1400-getstarted-optiga-trust-m/Libraries/XMCLib/inc\xmc_rtc.h ****  * Neither the name of the copyright holders nor the names of its contributors may be used to endor
  22:C:/Workspace/DAVE-4.4.2-64Bit/xmc1400-getstarted-optiga-trust-m/Libraries/XMCLib/inc\xmc_rtc.h ****  * products derived from this software without specific prior written permission.                  
  23:C:/Workspace/DAVE-4.4.2-64Bit/xmc1400-getstarted-optiga-trust-m/Libraries/XMCLib/inc\xmc_rtc.h ****  *                                                                              
  24:C:/Workspace/DAVE-4.4.2-64Bit/xmc1400-getstarted-optiga-trust-m/Libraries/XMCLib/inc\xmc_rtc.h ****  * THIS SOFTWARE IS PROVIDED BY THE COPYRIGHT HOLDERS AND CONTRIBUTORS "AS IS" AND ANY EXPRESS OR I
  25:C:/Workspace/DAVE-4.4.2-64Bit/xmc1400-getstarted-optiga-trust-m/Libraries/XMCLib/inc\xmc_rtc.h ****  * INCLUDING, BUT NOT LIMITED TO, THE IMPLIED WARRANTIES OF MERCHANTABILITY AND FITNESS FOR A PARTI
  26:C:/Workspace/DAVE-4.4.2-64Bit/xmc1400-getstarted-optiga-trust-m/Libraries/XMCLib/inc\xmc_rtc.h ****  * DISCLAIMED. IN NO EVENT SHALL THE COPYRIGHT HOLDER OR CONTRIBUTORS BE LIABLE  FOR ANY DIRECT, IN
  27:C:/Workspace/DAVE-4.4.2-64Bit/xmc1400-getstarted-optiga-trust-m/Libraries/XMCLib/inc\xmc_rtc.h ****  * SPECIAL, EXEMPLARY, OR CONSEQUENTIAL DAMAGES (INCLUDING, BUT NOT LIMITED TO, PROCUREMENT OF SUBS
  28:C:/Workspace/DAVE-4.4.2-64Bit/xmc1400-getstarted-optiga-trust-m/Libraries/XMCLib/inc\xmc_rtc.h ****  * SERVICES; LOSS OF USE, DATA, OR PROFITS; OR BUSINESS INTERRUPTION) HOWEVER CAUSED AND ON ANY THE
  29:C:/Workspace/DAVE-4.4.2-64Bit/xmc1400-getstarted-optiga-trust-m/Libraries/XMCLib/inc\xmc_rtc.h ****  * WHETHER IN CONTRACT, STRICT LIABILITY,OR TORT (INCLUDING NEGLIGENCE OR OTHERWISE) ARISING IN ANY
  30:C:/Workspace/DAVE-4.4.2-64Bit/xmc1400-getstarted-optiga-trust-m/Libraries/XMCLib/inc\xmc_rtc.h ****  * OF THIS SOFTWARE, EVEN IF ADVISED OF THE POSSIBILITY OF SUCH DAMAGE.                            
  31:C:/Workspace/DAVE-4.4.2-64Bit/xmc1400-getstarted-optiga-trust-m/Libraries/XMCLib/inc\xmc_rtc.h ****  *                                                                              
  32:C:/Workspace/DAVE-4.4.2-64Bit/xmc1400-getstarted-optiga-trust-m/Libraries/XMCLib/inc\xmc_rtc.h ****  * To improve the quality of the software, users are encouraged to share modifications, enhancement
  33:C:/Workspace/DAVE-4.4.2-64Bit/xmc1400-getstarted-optiga-trust-m/Libraries/XMCLib/inc\xmc_rtc.h ****  * Infineon Technologies AG dave@infineon.com).                                                    
  34:C:/Workspace/DAVE-4.4.2-64Bit/xmc1400-getstarted-optiga-trust-m/Libraries/XMCLib/inc\xmc_rtc.h ****  **************************************************************************************************
  35:C:/Workspace/DAVE-4.4.2-64Bit/xmc1400-getstarted-optiga-trust-m/Libraries/XMCLib/inc\xmc_rtc.h ****  *
  36:C:/Workspace/DAVE-4.4.2-64Bit/xmc1400-getstarted-optiga-trust-m/Libraries/XMCLib/inc\xmc_rtc.h ****  * Change History
  37:C:/Workspace/DAVE-4.4.2-64Bit/xmc1400-getstarted-optiga-trust-m/Libraries/XMCLib/inc\xmc_rtc.h ****  * --------------
  38:C:/Workspace/DAVE-4.4.2-64Bit/xmc1400-getstarted-optiga-trust-m/Libraries/XMCLib/inc\xmc_rtc.h ****  *
  39:C:/Workspace/DAVE-4.4.2-64Bit/xmc1400-getstarted-optiga-trust-m/Libraries/XMCLib/inc\xmc_rtc.h ****  * 2015-02-20:
  40:C:/Workspace/DAVE-4.4.2-64Bit/xmc1400-getstarted-optiga-trust-m/Libraries/XMCLib/inc\xmc_rtc.h ****  *     - Initial
  41:C:/Workspace/DAVE-4.4.2-64Bit/xmc1400-getstarted-optiga-trust-m/Libraries/XMCLib/inc\xmc_rtc.h ****  *      
  42:C:/Workspace/DAVE-4.4.2-64Bit/xmc1400-getstarted-optiga-trust-m/Libraries/XMCLib/inc\xmc_rtc.h ****  * 2015-05-20:
  43:C:/Workspace/DAVE-4.4.2-64Bit/xmc1400-getstarted-optiga-trust-m/Libraries/XMCLib/inc\xmc_rtc.h ****  *     - Documentation updates <br>
  44:C:/Workspace/DAVE-4.4.2-64Bit/xmc1400-getstarted-optiga-trust-m/Libraries/XMCLib/inc\xmc_rtc.h ****  *     - In xmc1_rtc file XMC_RTC_Init function
  45:C:/Workspace/DAVE-4.4.2-64Bit/xmc1400-getstarted-optiga-trust-m/Libraries/XMCLib/inc\xmc_rtc.h ****  *       is modified by adding the RTC running condition check
  46:C:/Workspace/DAVE-4.4.2-64Bit/xmc1400-getstarted-optiga-trust-m/Libraries/XMCLib/inc\xmc_rtc.h ****  *   
  47:C:/Workspace/DAVE-4.4.2-64Bit/xmc1400-getstarted-optiga-trust-m/Libraries/XMCLib/inc\xmc_rtc.h ****  * 2015-06-20:
  48:C:/Workspace/DAVE-4.4.2-64Bit/xmc1400-getstarted-optiga-trust-m/Libraries/XMCLib/inc\xmc_rtc.h ****  *     - Removed version macros and declaration of GetDriverVersion API
  49:C:/Workspace/DAVE-4.4.2-64Bit/xmc1400-getstarted-optiga-trust-m/Libraries/XMCLib/inc\xmc_rtc.h ****  *
  50:C:/Workspace/DAVE-4.4.2-64Bit/xmc1400-getstarted-optiga-trust-m/Libraries/XMCLib/inc\xmc_rtc.h ****  * 2016-05-19:
  51:C:/Workspace/DAVE-4.4.2-64Bit/xmc1400-getstarted-optiga-trust-m/Libraries/XMCLib/inc\xmc_rtc.h ****  *     - Added XMC_RTC_SetTimeStdFormat() and XMC_RTC_SetAlarmStdFormat()
  52:C:/Workspace/DAVE-4.4.2-64Bit/xmc1400-getstarted-optiga-trust-m/Libraries/XMCLib/inc\xmc_rtc.h ****  *
  53:C:/Workspace/DAVE-4.4.2-64Bit/xmc1400-getstarted-optiga-trust-m/Libraries/XMCLib/inc\xmc_rtc.h ****  * @endcond 
  54:C:/Workspace/DAVE-4.4.2-64Bit/xmc1400-getstarted-optiga-trust-m/Libraries/XMCLib/inc\xmc_rtc.h ****  *
  55:C:/Workspace/DAVE-4.4.2-64Bit/xmc1400-getstarted-optiga-trust-m/Libraries/XMCLib/inc\xmc_rtc.h ****  */
  56:C:/Workspace/DAVE-4.4.2-64Bit/xmc1400-getstarted-optiga-trust-m/Libraries/XMCLib/inc\xmc_rtc.h **** 
  57:C:/Workspace/DAVE-4.4.2-64Bit/xmc1400-getstarted-optiga-trust-m/Libraries/XMCLib/inc\xmc_rtc.h **** #ifndef XMC_RTC_H
  58:C:/Workspace/DAVE-4.4.2-64Bit/xmc1400-getstarted-optiga-trust-m/Libraries/XMCLib/inc\xmc_rtc.h **** #define XMC_RTC_H
  59:C:/Workspace/DAVE-4.4.2-64Bit/xmc1400-getstarted-optiga-trust-m/Libraries/XMCLib/inc\xmc_rtc.h **** 
  60:C:/Workspace/DAVE-4.4.2-64Bit/xmc1400-getstarted-optiga-trust-m/Libraries/XMCLib/inc\xmc_rtc.h **** /**************************************************************************************************
  61:C:/Workspace/DAVE-4.4.2-64Bit/xmc1400-getstarted-optiga-trust-m/Libraries/XMCLib/inc\xmc_rtc.h ****  * HEADER FILES
  62:C:/Workspace/DAVE-4.4.2-64Bit/xmc1400-getstarted-optiga-trust-m/Libraries/XMCLib/inc\xmc_rtc.h ****  **************************************************************************************************
  63:C:/Workspace/DAVE-4.4.2-64Bit/xmc1400-getstarted-optiga-trust-m/Libraries/XMCLib/inc\xmc_rtc.h **** 
  64:C:/Workspace/DAVE-4.4.2-64Bit/xmc1400-getstarted-optiga-trust-m/Libraries/XMCLib/inc\xmc_rtc.h **** #include <xmc_common.h>
  65:C:/Workspace/DAVE-4.4.2-64Bit/xmc1400-getstarted-optiga-trust-m/Libraries/XMCLib/inc\xmc_rtc.h **** #include <time.h>
  66:C:/Workspace/DAVE-4.4.2-64Bit/xmc1400-getstarted-optiga-trust-m/Libraries/XMCLib/inc\xmc_rtc.h **** 
  67:C:/Workspace/DAVE-4.4.2-64Bit/xmc1400-getstarted-optiga-trust-m/Libraries/XMCLib/inc\xmc_rtc.h **** /**
  68:C:/Workspace/DAVE-4.4.2-64Bit/xmc1400-getstarted-optiga-trust-m/Libraries/XMCLib/inc\xmc_rtc.h ****  *
  69:C:/Workspace/DAVE-4.4.2-64Bit/xmc1400-getstarted-optiga-trust-m/Libraries/XMCLib/inc\xmc_rtc.h ****  * @addtogroup XMClib XMC Peripheral Library
  70:C:/Workspace/DAVE-4.4.2-64Bit/xmc1400-getstarted-optiga-trust-m/Libraries/XMCLib/inc\xmc_rtc.h ****  * @{
  71:C:/Workspace/DAVE-4.4.2-64Bit/xmc1400-getstarted-optiga-trust-m/Libraries/XMCLib/inc\xmc_rtc.h ****  */
  72:C:/Workspace/DAVE-4.4.2-64Bit/xmc1400-getstarted-optiga-trust-m/Libraries/XMCLib/inc\xmc_rtc.h **** 
  73:C:/Workspace/DAVE-4.4.2-64Bit/xmc1400-getstarted-optiga-trust-m/Libraries/XMCLib/inc\xmc_rtc.h **** /**
  74:C:/Workspace/DAVE-4.4.2-64Bit/xmc1400-getstarted-optiga-trust-m/Libraries/XMCLib/inc\xmc_rtc.h ****  * @addtogroup RTC
  75:C:/Workspace/DAVE-4.4.2-64Bit/xmc1400-getstarted-optiga-trust-m/Libraries/XMCLib/inc\xmc_rtc.h ****  * @brief RTC driver for XMC microcontroller family.
  76:C:/Workspace/DAVE-4.4.2-64Bit/xmc1400-getstarted-optiga-trust-m/Libraries/XMCLib/inc\xmc_rtc.h ****  *
  77:C:/Workspace/DAVE-4.4.2-64Bit/xmc1400-getstarted-optiga-trust-m/Libraries/XMCLib/inc\xmc_rtc.h ****  * Real-time clock (RTC) is a clock that keeps track of the current time. Precise
  78:C:/Workspace/DAVE-4.4.2-64Bit/xmc1400-getstarted-optiga-trust-m/Libraries/XMCLib/inc\xmc_rtc.h ****  * real time keeping is with a 32.768 KHz external crystal clock or a 32.768 KHz
  79:C:/Workspace/DAVE-4.4.2-64Bit/xmc1400-getstarted-optiga-trust-m/Libraries/XMCLib/inc\xmc_rtc.h ****  * high precision internal clock. It provides a periodic time based interrupt and
  80:C:/Workspace/DAVE-4.4.2-64Bit/xmc1400-getstarted-optiga-trust-m/Libraries/XMCLib/inc\xmc_rtc.h ****  * a programmable alarm interrupt on time match. It also supports wakeup from
  81:C:/Workspace/DAVE-4.4.2-64Bit/xmc1400-getstarted-optiga-trust-m/Libraries/XMCLib/inc\xmc_rtc.h ****  * hibernate.
  82:C:/Workspace/DAVE-4.4.2-64Bit/xmc1400-getstarted-optiga-trust-m/Libraries/XMCLib/inc\xmc_rtc.h ****  *
  83:C:/Workspace/DAVE-4.4.2-64Bit/xmc1400-getstarted-optiga-trust-m/Libraries/XMCLib/inc\xmc_rtc.h ****  * The RTC low level driver provides functions to configure and initialize the RTC
  84:C:/Workspace/DAVE-4.4.2-64Bit/xmc1400-getstarted-optiga-trust-m/Libraries/XMCLib/inc\xmc_rtc.h ****  * hardware peripheral. 
  85:C:/Workspace/DAVE-4.4.2-64Bit/xmc1400-getstarted-optiga-trust-m/Libraries/XMCLib/inc\xmc_rtc.h ****  * 
  86:C:/Workspace/DAVE-4.4.2-64Bit/xmc1400-getstarted-optiga-trust-m/Libraries/XMCLib/inc\xmc_rtc.h ****  * @{
  87:C:/Workspace/DAVE-4.4.2-64Bit/xmc1400-getstarted-optiga-trust-m/Libraries/XMCLib/inc\xmc_rtc.h ****  */
  88:C:/Workspace/DAVE-4.4.2-64Bit/xmc1400-getstarted-optiga-trust-m/Libraries/XMCLib/inc\xmc_rtc.h **** 
  89:C:/Workspace/DAVE-4.4.2-64Bit/xmc1400-getstarted-optiga-trust-m/Libraries/XMCLib/inc\xmc_rtc.h **** /**************************************************************************************************
  90:C:/Workspace/DAVE-4.4.2-64Bit/xmc1400-getstarted-optiga-trust-m/Libraries/XMCLib/inc\xmc_rtc.h ****  * MACROS
  91:C:/Workspace/DAVE-4.4.2-64Bit/xmc1400-getstarted-optiga-trust-m/Libraries/XMCLib/inc\xmc_rtc.h ****  **************************************************************************************************
  92:C:/Workspace/DAVE-4.4.2-64Bit/xmc1400-getstarted-optiga-trust-m/Libraries/XMCLib/inc\xmc_rtc.h **** 
  93:C:/Workspace/DAVE-4.4.2-64Bit/xmc1400-getstarted-optiga-trust-m/Libraries/XMCLib/inc\xmc_rtc.h **** /**************************************************************************************************
  94:C:/Workspace/DAVE-4.4.2-64Bit/xmc1400-getstarted-optiga-trust-m/Libraries/XMCLib/inc\xmc_rtc.h ****  * ENUMS
  95:C:/Workspace/DAVE-4.4.2-64Bit/xmc1400-getstarted-optiga-trust-m/Libraries/XMCLib/inc\xmc_rtc.h ****  **************************************************************************************************
  96:C:/Workspace/DAVE-4.4.2-64Bit/xmc1400-getstarted-optiga-trust-m/Libraries/XMCLib/inc\xmc_rtc.h **** 
  97:C:/Workspace/DAVE-4.4.2-64Bit/xmc1400-getstarted-optiga-trust-m/Libraries/XMCLib/inc\xmc_rtc.h **** /**
  98:C:/Workspace/DAVE-4.4.2-64Bit/xmc1400-getstarted-optiga-trust-m/Libraries/XMCLib/inc\xmc_rtc.h ****  *  Status return values for RTC low level driver
  99:C:/Workspace/DAVE-4.4.2-64Bit/xmc1400-getstarted-optiga-trust-m/Libraries/XMCLib/inc\xmc_rtc.h ****  */
 100:C:/Workspace/DAVE-4.4.2-64Bit/xmc1400-getstarted-optiga-trust-m/Libraries/XMCLib/inc\xmc_rtc.h **** typedef enum XMC_RTC_STATUS
 101:C:/Workspace/DAVE-4.4.2-64Bit/xmc1400-getstarted-optiga-trust-m/Libraries/XMCLib/inc\xmc_rtc.h **** {
 102:C:/Workspace/DAVE-4.4.2-64Bit/xmc1400-getstarted-optiga-trust-m/Libraries/XMCLib/inc\xmc_rtc.h ****   XMC_RTC_STATUS_OK    = 0U, /**< Operation successful */
 103:C:/Workspace/DAVE-4.4.2-64Bit/xmc1400-getstarted-optiga-trust-m/Libraries/XMCLib/inc\xmc_rtc.h ****   XMC_RTC_STATUS_ERROR = 1U, /**< Operation unsuccessful */
 104:C:/Workspace/DAVE-4.4.2-64Bit/xmc1400-getstarted-optiga-trust-m/Libraries/XMCLib/inc\xmc_rtc.h ****   XMC_RTC_STATUS_BUSY  = 2U  /**< Busy with a previous request */
 105:C:/Workspace/DAVE-4.4.2-64Bit/xmc1400-getstarted-optiga-trust-m/Libraries/XMCLib/inc\xmc_rtc.h **** } XMC_RTC_STATUS_t;
 106:C:/Workspace/DAVE-4.4.2-64Bit/xmc1400-getstarted-optiga-trust-m/Libraries/XMCLib/inc\xmc_rtc.h **** 
 107:C:/Workspace/DAVE-4.4.2-64Bit/xmc1400-getstarted-optiga-trust-m/Libraries/XMCLib/inc\xmc_rtc.h **** /**
 108:C:/Workspace/DAVE-4.4.2-64Bit/xmc1400-getstarted-optiga-trust-m/Libraries/XMCLib/inc\xmc_rtc.h ****  * Events which enables interrupt request generation
 109:C:/Workspace/DAVE-4.4.2-64Bit/xmc1400-getstarted-optiga-trust-m/Libraries/XMCLib/inc\xmc_rtc.h ****  */
 110:C:/Workspace/DAVE-4.4.2-64Bit/xmc1400-getstarted-optiga-trust-m/Libraries/XMCLib/inc\xmc_rtc.h **** typedef enum XMC_RTC_EVENT
 111:C:/Workspace/DAVE-4.4.2-64Bit/xmc1400-getstarted-optiga-trust-m/Libraries/XMCLib/inc\xmc_rtc.h **** {
 112:C:/Workspace/DAVE-4.4.2-64Bit/xmc1400-getstarted-optiga-trust-m/Libraries/XMCLib/inc\xmc_rtc.h ****   XMC_RTC_EVENT_PERIODIC_SECONDS = RTC_MSKSR_MPSE_Msk, /**< Mask value to enable an event on period
 113:C:/Workspace/DAVE-4.4.2-64Bit/xmc1400-getstarted-optiga-trust-m/Libraries/XMCLib/inc\xmc_rtc.h ****   XMC_RTC_EVENT_PERIODIC_MINUTES = RTC_MSKSR_MPMI_Msk, /**< Mask value to enable an event on period
 114:C:/Workspace/DAVE-4.4.2-64Bit/xmc1400-getstarted-optiga-trust-m/Libraries/XMCLib/inc\xmc_rtc.h ****   XMC_RTC_EVENT_PERIODIC_HOURS   = RTC_MSKSR_MPHO_Msk, /**< Mask value to enable an event on period
 115:C:/Workspace/DAVE-4.4.2-64Bit/xmc1400-getstarted-optiga-trust-m/Libraries/XMCLib/inc\xmc_rtc.h ****   XMC_RTC_EVENT_PERIODIC_DAYS    = RTC_MSKSR_MPDA_Msk, /**< Mask value to enable an event on period
 116:C:/Workspace/DAVE-4.4.2-64Bit/xmc1400-getstarted-optiga-trust-m/Libraries/XMCLib/inc\xmc_rtc.h ****   XMC_RTC_EVENT_PERIODIC_MONTHS  = RTC_MSKSR_MPMO_Msk, /**< Mask value to enable an event on period
 117:C:/Workspace/DAVE-4.4.2-64Bit/xmc1400-getstarted-optiga-trust-m/Libraries/XMCLib/inc\xmc_rtc.h ****   XMC_RTC_EVENT_PERIODIC_YEARS   = RTC_MSKSR_MPYE_Msk, /**< Mask value to enable an event on period
 118:C:/Workspace/DAVE-4.4.2-64Bit/xmc1400-getstarted-optiga-trust-m/Libraries/XMCLib/inc\xmc_rtc.h ****   XMC_RTC_EVENT_ALARM            = RTC_MSKSR_MAI_Msk   /**< Mask value to enable an event on period
 119:C:/Workspace/DAVE-4.4.2-64Bit/xmc1400-getstarted-optiga-trust-m/Libraries/XMCLib/inc\xmc_rtc.h **** } XMC_RTC_EVENT_t;
 120:C:/Workspace/DAVE-4.4.2-64Bit/xmc1400-getstarted-optiga-trust-m/Libraries/XMCLib/inc\xmc_rtc.h **** 
 121:C:/Workspace/DAVE-4.4.2-64Bit/xmc1400-getstarted-optiga-trust-m/Libraries/XMCLib/inc\xmc_rtc.h **** /**
 122:C:/Workspace/DAVE-4.4.2-64Bit/xmc1400-getstarted-optiga-trust-m/Libraries/XMCLib/inc\xmc_rtc.h ****  *  Months used to program the date  
 123:C:/Workspace/DAVE-4.4.2-64Bit/xmc1400-getstarted-optiga-trust-m/Libraries/XMCLib/inc\xmc_rtc.h ****  */
 124:C:/Workspace/DAVE-4.4.2-64Bit/xmc1400-getstarted-optiga-trust-m/Libraries/XMCLib/inc\xmc_rtc.h **** typedef enum XMC_RTC_MONTH
 125:C:/Workspace/DAVE-4.4.2-64Bit/xmc1400-getstarted-optiga-trust-m/Libraries/XMCLib/inc\xmc_rtc.h **** {
 126:C:/Workspace/DAVE-4.4.2-64Bit/xmc1400-getstarted-optiga-trust-m/Libraries/XMCLib/inc\xmc_rtc.h ****   XMC_RTC_MONTH_JANUARY   = 0U, 
 127:C:/Workspace/DAVE-4.4.2-64Bit/xmc1400-getstarted-optiga-trust-m/Libraries/XMCLib/inc\xmc_rtc.h ****   XMC_RTC_MONTH_FEBRUARY  = 1U,     
 128:C:/Workspace/DAVE-4.4.2-64Bit/xmc1400-getstarted-optiga-trust-m/Libraries/XMCLib/inc\xmc_rtc.h ****   XMC_RTC_MONTH_MARCH     = 2U,         
 129:C:/Workspace/DAVE-4.4.2-64Bit/xmc1400-getstarted-optiga-trust-m/Libraries/XMCLib/inc\xmc_rtc.h ****   XMC_RTC_MONTH_APRIL     = 3U,       
 130:C:/Workspace/DAVE-4.4.2-64Bit/xmc1400-getstarted-optiga-trust-m/Libraries/XMCLib/inc\xmc_rtc.h ****   XMC_RTC_MONTH_MAY       = 4U,         
 131:C:/Workspace/DAVE-4.4.2-64Bit/xmc1400-getstarted-optiga-trust-m/Libraries/XMCLib/inc\xmc_rtc.h ****   XMC_RTC_MONTH_JUNE      = 5U,         
 132:C:/Workspace/DAVE-4.4.2-64Bit/xmc1400-getstarted-optiga-trust-m/Libraries/XMCLib/inc\xmc_rtc.h ****   XMC_RTC_MONTH_JULY      = 6U,           
 133:C:/Workspace/DAVE-4.4.2-64Bit/xmc1400-getstarted-optiga-trust-m/Libraries/XMCLib/inc\xmc_rtc.h ****   XMC_RTC_MONTH_AUGUST    = 7U,         
 134:C:/Workspace/DAVE-4.4.2-64Bit/xmc1400-getstarted-optiga-trust-m/Libraries/XMCLib/inc\xmc_rtc.h ****   XMC_RTC_MONTH_SEPTEMBER = 8U,    
 135:C:/Workspace/DAVE-4.4.2-64Bit/xmc1400-getstarted-optiga-trust-m/Libraries/XMCLib/inc\xmc_rtc.h ****   XMC_RTC_MONTH_OCTOBER   = 9U,      
 136:C:/Workspace/DAVE-4.4.2-64Bit/xmc1400-getstarted-optiga-trust-m/Libraries/XMCLib/inc\xmc_rtc.h ****   XMC_RTC_MONTH_NOVEMBER  = 10U,     
 137:C:/Workspace/DAVE-4.4.2-64Bit/xmc1400-getstarted-optiga-trust-m/Libraries/XMCLib/inc\xmc_rtc.h ****   XMC_RTC_MONTH_DECEMBER  = 11U     
 138:C:/Workspace/DAVE-4.4.2-64Bit/xmc1400-getstarted-optiga-trust-m/Libraries/XMCLib/inc\xmc_rtc.h **** } XMC_RTC_MONTH_t;
 139:C:/Workspace/DAVE-4.4.2-64Bit/xmc1400-getstarted-optiga-trust-m/Libraries/XMCLib/inc\xmc_rtc.h **** 
 140:C:/Workspace/DAVE-4.4.2-64Bit/xmc1400-getstarted-optiga-trust-m/Libraries/XMCLib/inc\xmc_rtc.h **** /**
 141:C:/Workspace/DAVE-4.4.2-64Bit/xmc1400-getstarted-optiga-trust-m/Libraries/XMCLib/inc\xmc_rtc.h ****  *  Week days used program the date 
 142:C:/Workspace/DAVE-4.4.2-64Bit/xmc1400-getstarted-optiga-trust-m/Libraries/XMCLib/inc\xmc_rtc.h ****  */
 143:C:/Workspace/DAVE-4.4.2-64Bit/xmc1400-getstarted-optiga-trust-m/Libraries/XMCLib/inc\xmc_rtc.h **** typedef enum XMC_RTC_WEEKDAY
 144:C:/Workspace/DAVE-4.4.2-64Bit/xmc1400-getstarted-optiga-trust-m/Libraries/XMCLib/inc\xmc_rtc.h **** {
 145:C:/Workspace/DAVE-4.4.2-64Bit/xmc1400-getstarted-optiga-trust-m/Libraries/XMCLib/inc\xmc_rtc.h ****   XMC_RTC_WEEKDAY_SUNDAY    = 0U, 
 146:C:/Workspace/DAVE-4.4.2-64Bit/xmc1400-getstarted-optiga-trust-m/Libraries/XMCLib/inc\xmc_rtc.h ****   XMC_RTC_WEEKDAY_MONDAY    = 1U,      
 147:C:/Workspace/DAVE-4.4.2-64Bit/xmc1400-getstarted-optiga-trust-m/Libraries/XMCLib/inc\xmc_rtc.h ****   XMC_RTC_WEEKDAY_TUESDAY   = 2U,      
 148:C:/Workspace/DAVE-4.4.2-64Bit/xmc1400-getstarted-optiga-trust-m/Libraries/XMCLib/inc\xmc_rtc.h ****   XMC_RTC_WEEKDAY_WEDNESDAY = 3U,    
 149:C:/Workspace/DAVE-4.4.2-64Bit/xmc1400-getstarted-optiga-trust-m/Libraries/XMCLib/inc\xmc_rtc.h ****   XMC_RTC_WEEKDAY_THURSDAY  = 4U,     
 150:C:/Workspace/DAVE-4.4.2-64Bit/xmc1400-getstarted-optiga-trust-m/Libraries/XMCLib/inc\xmc_rtc.h ****   XMC_RTC_WEEKDAY_FRIDAY    = 5U,       
 151:C:/Workspace/DAVE-4.4.2-64Bit/xmc1400-getstarted-optiga-trust-m/Libraries/XMCLib/inc\xmc_rtc.h ****   XMC_RTC_WEEKDAY_SATURDAY  = 6U      
 152:C:/Workspace/DAVE-4.4.2-64Bit/xmc1400-getstarted-optiga-trust-m/Libraries/XMCLib/inc\xmc_rtc.h **** } XMC_RTC_WEEKDAY_t;
 153:C:/Workspace/DAVE-4.4.2-64Bit/xmc1400-getstarted-optiga-trust-m/Libraries/XMCLib/inc\xmc_rtc.h **** 
 154:C:/Workspace/DAVE-4.4.2-64Bit/xmc1400-getstarted-optiga-trust-m/Libraries/XMCLib/inc\xmc_rtc.h **** /**************************************************************************************************
 155:C:/Workspace/DAVE-4.4.2-64Bit/xmc1400-getstarted-optiga-trust-m/Libraries/XMCLib/inc\xmc_rtc.h ****  * DATA STRUCTURES
 156:C:/Workspace/DAVE-4.4.2-64Bit/xmc1400-getstarted-optiga-trust-m/Libraries/XMCLib/inc\xmc_rtc.h ****  **************************************************************************************************
 157:C:/Workspace/DAVE-4.4.2-64Bit/xmc1400-getstarted-optiga-trust-m/Libraries/XMCLib/inc\xmc_rtc.h **** /*Anonymous structure/union guard start*/
 158:C:/Workspace/DAVE-4.4.2-64Bit/xmc1400-getstarted-optiga-trust-m/Libraries/XMCLib/inc\xmc_rtc.h **** #if defined(__CC_ARM)
 159:C:/Workspace/DAVE-4.4.2-64Bit/xmc1400-getstarted-optiga-trust-m/Libraries/XMCLib/inc\xmc_rtc.h ****   #pragma push
 160:C:/Workspace/DAVE-4.4.2-64Bit/xmc1400-getstarted-optiga-trust-m/Libraries/XMCLib/inc\xmc_rtc.h ****   #pragma anon_unions
 161:C:/Workspace/DAVE-4.4.2-64Bit/xmc1400-getstarted-optiga-trust-m/Libraries/XMCLib/inc\xmc_rtc.h **** #elif defined(__TASKING__)
 162:C:/Workspace/DAVE-4.4.2-64Bit/xmc1400-getstarted-optiga-trust-m/Libraries/XMCLib/inc\xmc_rtc.h ****   #pragma warning 586
 163:C:/Workspace/DAVE-4.4.2-64Bit/xmc1400-getstarted-optiga-trust-m/Libraries/XMCLib/inc\xmc_rtc.h **** #endif
 164:C:/Workspace/DAVE-4.4.2-64Bit/xmc1400-getstarted-optiga-trust-m/Libraries/XMCLib/inc\xmc_rtc.h **** 
 165:C:/Workspace/DAVE-4.4.2-64Bit/xmc1400-getstarted-optiga-trust-m/Libraries/XMCLib/inc\xmc_rtc.h **** 
 166:C:/Workspace/DAVE-4.4.2-64Bit/xmc1400-getstarted-optiga-trust-m/Libraries/XMCLib/inc\xmc_rtc.h **** /**
 167:C:/Workspace/DAVE-4.4.2-64Bit/xmc1400-getstarted-optiga-trust-m/Libraries/XMCLib/inc\xmc_rtc.h ****  * Alarm time values of RTC  <br>
 168:C:/Workspace/DAVE-4.4.2-64Bit/xmc1400-getstarted-optiga-trust-m/Libraries/XMCLib/inc\xmc_rtc.h ****  *
 169:C:/Workspace/DAVE-4.4.2-64Bit/xmc1400-getstarted-optiga-trust-m/Libraries/XMCLib/inc\xmc_rtc.h ****  * The structure presents a convenient way to set/obtain the 
 170:C:/Workspace/DAVE-4.4.2-64Bit/xmc1400-getstarted-optiga-trust-m/Libraries/XMCLib/inc\xmc_rtc.h ****  * alarm time values for seconds, minutes, hours, days, month and year of RTC. 
 171:C:/Workspace/DAVE-4.4.2-64Bit/xmc1400-getstarted-optiga-trust-m/Libraries/XMCLib/inc\xmc_rtc.h ****  * The XMC_RTC_SetAlarm() and XMC_RTC_GetAlarm() can be
 172:C:/Workspace/DAVE-4.4.2-64Bit/xmc1400-getstarted-optiga-trust-m/Libraries/XMCLib/inc\xmc_rtc.h ****  * used to populate the structure with the alarm time value of
 173:C:/Workspace/DAVE-4.4.2-64Bit/xmc1400-getstarted-optiga-trust-m/Libraries/XMCLib/inc\xmc_rtc.h ****  * RTC 
 174:C:/Workspace/DAVE-4.4.2-64Bit/xmc1400-getstarted-optiga-trust-m/Libraries/XMCLib/inc\xmc_rtc.h ****  */ 
 175:C:/Workspace/DAVE-4.4.2-64Bit/xmc1400-getstarted-optiga-trust-m/Libraries/XMCLib/inc\xmc_rtc.h **** typedef struct XMC_RTC_ALARM
 176:C:/Workspace/DAVE-4.4.2-64Bit/xmc1400-getstarted-optiga-trust-m/Libraries/XMCLib/inc\xmc_rtc.h **** {
 177:C:/Workspace/DAVE-4.4.2-64Bit/xmc1400-getstarted-optiga-trust-m/Libraries/XMCLib/inc\xmc_rtc.h ****   union
 178:C:/Workspace/DAVE-4.4.2-64Bit/xmc1400-getstarted-optiga-trust-m/Libraries/XMCLib/inc\xmc_rtc.h ****   {
 179:C:/Workspace/DAVE-4.4.2-64Bit/xmc1400-getstarted-optiga-trust-m/Libraries/XMCLib/inc\xmc_rtc.h **** 	  uint32_t raw0;
 180:C:/Workspace/DAVE-4.4.2-64Bit/xmc1400-getstarted-optiga-trust-m/Libraries/XMCLib/inc\xmc_rtc.h **** 	  struct
 181:C:/Workspace/DAVE-4.4.2-64Bit/xmc1400-getstarted-optiga-trust-m/Libraries/XMCLib/inc\xmc_rtc.h **** 	  {
 182:C:/Workspace/DAVE-4.4.2-64Bit/xmc1400-getstarted-optiga-trust-m/Libraries/XMCLib/inc\xmc_rtc.h **** 	    uint32_t seconds  : 6; /**< Alarm seconds compare value (0-59: Above this causes this bitfield
 183:C:/Workspace/DAVE-4.4.2-64Bit/xmc1400-getstarted-optiga-trust-m/Libraries/XMCLib/inc\xmc_rtc.h **** 	    uint32_t          : 2; 
 184:C:/Workspace/DAVE-4.4.2-64Bit/xmc1400-getstarted-optiga-trust-m/Libraries/XMCLib/inc\xmc_rtc.h **** 	    uint32_t minutes  : 6; /**< Alarm minutes compare value (0-59: Above this causes this bitfield
 185:C:/Workspace/DAVE-4.4.2-64Bit/xmc1400-getstarted-optiga-trust-m/Libraries/XMCLib/inc\xmc_rtc.h **** 	    uint32_t          : 2;
 186:C:/Workspace/DAVE-4.4.2-64Bit/xmc1400-getstarted-optiga-trust-m/Libraries/XMCLib/inc\xmc_rtc.h **** 	    uint32_t hours    : 5; /**< Alarm hours compare value   (0-23: Above this causes this bitfield
 187:C:/Workspace/DAVE-4.4.2-64Bit/xmc1400-getstarted-optiga-trust-m/Libraries/XMCLib/inc\xmc_rtc.h **** 	    uint32_t          : 3;
 188:C:/Workspace/DAVE-4.4.2-64Bit/xmc1400-getstarted-optiga-trust-m/Libraries/XMCLib/inc\xmc_rtc.h **** 	    uint32_t days     : 5; /**< Alarm days compare value (0-Actual days of month: Above this cause
 189:C:/Workspace/DAVE-4.4.2-64Bit/xmc1400-getstarted-optiga-trust-m/Libraries/XMCLib/inc\xmc_rtc.h **** 	    uint32_t          : 3;
 190:C:/Workspace/DAVE-4.4.2-64Bit/xmc1400-getstarted-optiga-trust-m/Libraries/XMCLib/inc\xmc_rtc.h **** 	  };
 191:C:/Workspace/DAVE-4.4.2-64Bit/xmc1400-getstarted-optiga-trust-m/Libraries/XMCLib/inc\xmc_rtc.h ****   };
 192:C:/Workspace/DAVE-4.4.2-64Bit/xmc1400-getstarted-optiga-trust-m/Libraries/XMCLib/inc\xmc_rtc.h **** 
 193:C:/Workspace/DAVE-4.4.2-64Bit/xmc1400-getstarted-optiga-trust-m/Libraries/XMCLib/inc\xmc_rtc.h ****   union
 194:C:/Workspace/DAVE-4.4.2-64Bit/xmc1400-getstarted-optiga-trust-m/Libraries/XMCLib/inc\xmc_rtc.h ****   {
 195:C:/Workspace/DAVE-4.4.2-64Bit/xmc1400-getstarted-optiga-trust-m/Libraries/XMCLib/inc\xmc_rtc.h ****     uint32_t raw1;
 196:C:/Workspace/DAVE-4.4.2-64Bit/xmc1400-getstarted-optiga-trust-m/Libraries/XMCLib/inc\xmc_rtc.h **** 	  struct
 197:C:/Workspace/DAVE-4.4.2-64Bit/xmc1400-getstarted-optiga-trust-m/Libraries/XMCLib/inc\xmc_rtc.h **** 	  {
 198:C:/Workspace/DAVE-4.4.2-64Bit/xmc1400-getstarted-optiga-trust-m/Libraries/XMCLib/inc\xmc_rtc.h **** 	    uint32_t          : 8;
 199:C:/Workspace/DAVE-4.4.2-64Bit/xmc1400-getstarted-optiga-trust-m/Libraries/XMCLib/inc\xmc_rtc.h **** 	    uint32_t month    : 4; /**< Alarm month compare value (0-11: Above this causes this bitfield t
 200:C:/Workspace/DAVE-4.4.2-64Bit/xmc1400-getstarted-optiga-trust-m/Libraries/XMCLib/inc\xmc_rtc.h **** 	    uint32_t          : 4;
 201:C:/Workspace/DAVE-4.4.2-64Bit/xmc1400-getstarted-optiga-trust-m/Libraries/XMCLib/inc\xmc_rtc.h **** 	    uint32_t year     : 16; /**< Alarm year compare value */ 
 202:C:/Workspace/DAVE-4.4.2-64Bit/xmc1400-getstarted-optiga-trust-m/Libraries/XMCLib/inc\xmc_rtc.h **** 	  };
 203:C:/Workspace/DAVE-4.4.2-64Bit/xmc1400-getstarted-optiga-trust-m/Libraries/XMCLib/inc\xmc_rtc.h ****   };
 204:C:/Workspace/DAVE-4.4.2-64Bit/xmc1400-getstarted-optiga-trust-m/Libraries/XMCLib/inc\xmc_rtc.h **** } XMC_RTC_ALARM_t;
 205:C:/Workspace/DAVE-4.4.2-64Bit/xmc1400-getstarted-optiga-trust-m/Libraries/XMCLib/inc\xmc_rtc.h **** 
 206:C:/Workspace/DAVE-4.4.2-64Bit/xmc1400-getstarted-optiga-trust-m/Libraries/XMCLib/inc\xmc_rtc.h **** /**
 207:C:/Workspace/DAVE-4.4.2-64Bit/xmc1400-getstarted-optiga-trust-m/Libraries/XMCLib/inc\xmc_rtc.h ****  * Time values of RTC  <br>
 208:C:/Workspace/DAVE-4.4.2-64Bit/xmc1400-getstarted-optiga-trust-m/Libraries/XMCLib/inc\xmc_rtc.h ****  *
 209:C:/Workspace/DAVE-4.4.2-64Bit/xmc1400-getstarted-optiga-trust-m/Libraries/XMCLib/inc\xmc_rtc.h ****  * The structure presents a convenient way to set/obtain the 
 210:C:/Workspace/DAVE-4.4.2-64Bit/xmc1400-getstarted-optiga-trust-m/Libraries/XMCLib/inc\xmc_rtc.h ****  * time values for seconds, minutes, hours, days, month and year of RTC. 
 211:C:/Workspace/DAVE-4.4.2-64Bit/xmc1400-getstarted-optiga-trust-m/Libraries/XMCLib/inc\xmc_rtc.h ****  * The XMC_RTC_SetTime() and XMC_RTC_GetTime() can be
 212:C:/Workspace/DAVE-4.4.2-64Bit/xmc1400-getstarted-optiga-trust-m/Libraries/XMCLib/inc\xmc_rtc.h ****  * used to populate the structure with the time value of
 213:C:/Workspace/DAVE-4.4.2-64Bit/xmc1400-getstarted-optiga-trust-m/Libraries/XMCLib/inc\xmc_rtc.h ****  * RTC 
 214:C:/Workspace/DAVE-4.4.2-64Bit/xmc1400-getstarted-optiga-trust-m/Libraries/XMCLib/inc\xmc_rtc.h ****  */ 
 215:C:/Workspace/DAVE-4.4.2-64Bit/xmc1400-getstarted-optiga-trust-m/Libraries/XMCLib/inc\xmc_rtc.h **** typedef struct XMC_RTC_TIME
 216:C:/Workspace/DAVE-4.4.2-64Bit/xmc1400-getstarted-optiga-trust-m/Libraries/XMCLib/inc\xmc_rtc.h **** {
 217:C:/Workspace/DAVE-4.4.2-64Bit/xmc1400-getstarted-optiga-trust-m/Libraries/XMCLib/inc\xmc_rtc.h ****   union
 218:C:/Workspace/DAVE-4.4.2-64Bit/xmc1400-getstarted-optiga-trust-m/Libraries/XMCLib/inc\xmc_rtc.h ****   {
 219:C:/Workspace/DAVE-4.4.2-64Bit/xmc1400-getstarted-optiga-trust-m/Libraries/XMCLib/inc\xmc_rtc.h ****     uint32_t raw0;
 220:C:/Workspace/DAVE-4.4.2-64Bit/xmc1400-getstarted-optiga-trust-m/Libraries/XMCLib/inc\xmc_rtc.h **** 	  struct
 221:C:/Workspace/DAVE-4.4.2-64Bit/xmc1400-getstarted-optiga-trust-m/Libraries/XMCLib/inc\xmc_rtc.h **** 	  {
 222:C:/Workspace/DAVE-4.4.2-64Bit/xmc1400-getstarted-optiga-trust-m/Libraries/XMCLib/inc\xmc_rtc.h **** 	    uint32_t seconds  : 6; /**< Seconds time value (0-59: Above this causes this bitfield to be se
 223:C:/Workspace/DAVE-4.4.2-64Bit/xmc1400-getstarted-optiga-trust-m/Libraries/XMCLib/inc\xmc_rtc.h **** 	    uint32_t          : 2; 
 224:C:/Workspace/DAVE-4.4.2-64Bit/xmc1400-getstarted-optiga-trust-m/Libraries/XMCLib/inc\xmc_rtc.h **** 	    uint32_t minutes  : 6; /**< Minutes time value (0-59: Above this causes this bitfield to be se
 225:C:/Workspace/DAVE-4.4.2-64Bit/xmc1400-getstarted-optiga-trust-m/Libraries/XMCLib/inc\xmc_rtc.h **** 	    uint32_t          : 2;
 226:C:/Workspace/DAVE-4.4.2-64Bit/xmc1400-getstarted-optiga-trust-m/Libraries/XMCLib/inc\xmc_rtc.h **** 	    uint32_t hours    : 5; /**< Hours time value   (0-23: Above this causes this bitfield to be se
 227:C:/Workspace/DAVE-4.4.2-64Bit/xmc1400-getstarted-optiga-trust-m/Libraries/XMCLib/inc\xmc_rtc.h **** 	    uint32_t          : 3;
 228:C:/Workspace/DAVE-4.4.2-64Bit/xmc1400-getstarted-optiga-trust-m/Libraries/XMCLib/inc\xmc_rtc.h **** 	    uint32_t days     : 5; /**< Days time value (0-Actual days of month: Above this causes this bi
 229:C:/Workspace/DAVE-4.4.2-64Bit/xmc1400-getstarted-optiga-trust-m/Libraries/XMCLib/inc\xmc_rtc.h **** 	    uint32_t          : 3;
 230:C:/Workspace/DAVE-4.4.2-64Bit/xmc1400-getstarted-optiga-trust-m/Libraries/XMCLib/inc\xmc_rtc.h **** 	  };
 231:C:/Workspace/DAVE-4.4.2-64Bit/xmc1400-getstarted-optiga-trust-m/Libraries/XMCLib/inc\xmc_rtc.h ****   };
 232:C:/Workspace/DAVE-4.4.2-64Bit/xmc1400-getstarted-optiga-trust-m/Libraries/XMCLib/inc\xmc_rtc.h **** 
 233:C:/Workspace/DAVE-4.4.2-64Bit/xmc1400-getstarted-optiga-trust-m/Libraries/XMCLib/inc\xmc_rtc.h ****   union
 234:C:/Workspace/DAVE-4.4.2-64Bit/xmc1400-getstarted-optiga-trust-m/Libraries/XMCLib/inc\xmc_rtc.h ****   {
 235:C:/Workspace/DAVE-4.4.2-64Bit/xmc1400-getstarted-optiga-trust-m/Libraries/XMCLib/inc\xmc_rtc.h ****     uint32_t raw1;
 236:C:/Workspace/DAVE-4.4.2-64Bit/xmc1400-getstarted-optiga-trust-m/Libraries/XMCLib/inc\xmc_rtc.h **** 	  struct
 237:C:/Workspace/DAVE-4.4.2-64Bit/xmc1400-getstarted-optiga-trust-m/Libraries/XMCLib/inc\xmc_rtc.h **** 	  {
 238:C:/Workspace/DAVE-4.4.2-64Bit/xmc1400-getstarted-optiga-trust-m/Libraries/XMCLib/inc\xmc_rtc.h **** 	    uint32_t daysofweek  : 3; /**< Days of week time value (0-6: Above this causes this bitfield t
 239:C:/Workspace/DAVE-4.4.2-64Bit/xmc1400-getstarted-optiga-trust-m/Libraries/XMCLib/inc\xmc_rtc.h **** 	    uint32_t             : 5;
 240:C:/Workspace/DAVE-4.4.2-64Bit/xmc1400-getstarted-optiga-trust-m/Libraries/XMCLib/inc\xmc_rtc.h **** 	    uint32_t month       : 4; /**< Month time value       (0-11: Above this causes this bitfield t
 241:C:/Workspace/DAVE-4.4.2-64Bit/xmc1400-getstarted-optiga-trust-m/Libraries/XMCLib/inc\xmc_rtc.h **** 	    uint32_t             : 4;
 242:C:/Workspace/DAVE-4.4.2-64Bit/xmc1400-getstarted-optiga-trust-m/Libraries/XMCLib/inc\xmc_rtc.h **** 	    uint32_t year        : 16; /**< Year time value */
 243:C:/Workspace/DAVE-4.4.2-64Bit/xmc1400-getstarted-optiga-trust-m/Libraries/XMCLib/inc\xmc_rtc.h **** 	 };
 244:C:/Workspace/DAVE-4.4.2-64Bit/xmc1400-getstarted-optiga-trust-m/Libraries/XMCLib/inc\xmc_rtc.h ****   };
 245:C:/Workspace/DAVE-4.4.2-64Bit/xmc1400-getstarted-optiga-trust-m/Libraries/XMCLib/inc\xmc_rtc.h **** } XMC_RTC_TIME_t;
 246:C:/Workspace/DAVE-4.4.2-64Bit/xmc1400-getstarted-optiga-trust-m/Libraries/XMCLib/inc\xmc_rtc.h **** /*Anonymous structure/union guard end*/
 247:C:/Workspace/DAVE-4.4.2-64Bit/xmc1400-getstarted-optiga-trust-m/Libraries/XMCLib/inc\xmc_rtc.h **** #if defined(__CC_ARM)
 248:C:/Workspace/DAVE-4.4.2-64Bit/xmc1400-getstarted-optiga-trust-m/Libraries/XMCLib/inc\xmc_rtc.h ****   #pragma pop
 249:C:/Workspace/DAVE-4.4.2-64Bit/xmc1400-getstarted-optiga-trust-m/Libraries/XMCLib/inc\xmc_rtc.h **** #elif defined(__TASKING__)
 250:C:/Workspace/DAVE-4.4.2-64Bit/xmc1400-getstarted-optiga-trust-m/Libraries/XMCLib/inc\xmc_rtc.h ****   #pragma warning restore
 251:C:/Workspace/DAVE-4.4.2-64Bit/xmc1400-getstarted-optiga-trust-m/Libraries/XMCLib/inc\xmc_rtc.h **** #endif
 252:C:/Workspace/DAVE-4.4.2-64Bit/xmc1400-getstarted-optiga-trust-m/Libraries/XMCLib/inc\xmc_rtc.h **** 
 253:C:/Workspace/DAVE-4.4.2-64Bit/xmc1400-getstarted-optiga-trust-m/Libraries/XMCLib/inc\xmc_rtc.h **** /**
 254:C:/Workspace/DAVE-4.4.2-64Bit/xmc1400-getstarted-optiga-trust-m/Libraries/XMCLib/inc\xmc_rtc.h ****  * RTC initialization with time, alarm and clock divider(prescaler) configurations <br>
 255:C:/Workspace/DAVE-4.4.2-64Bit/xmc1400-getstarted-optiga-trust-m/Libraries/XMCLib/inc\xmc_rtc.h ****  *
 256:C:/Workspace/DAVE-4.4.2-64Bit/xmc1400-getstarted-optiga-trust-m/Libraries/XMCLib/inc\xmc_rtc.h ****  * The structure presents a convenient way to set/obtain the time and alarm configurations  
 257:C:/Workspace/DAVE-4.4.2-64Bit/xmc1400-getstarted-optiga-trust-m/Libraries/XMCLib/inc\xmc_rtc.h ****  * for RTC. The XMC_RTC_Init() can be used to populate the structure with the time and alarm
 258:C:/Workspace/DAVE-4.4.2-64Bit/xmc1400-getstarted-optiga-trust-m/Libraries/XMCLib/inc\xmc_rtc.h ****  * values of RTC.
 259:C:/Workspace/DAVE-4.4.2-64Bit/xmc1400-getstarted-optiga-trust-m/Libraries/XMCLib/inc\xmc_rtc.h ****  */  
 260:C:/Workspace/DAVE-4.4.2-64Bit/xmc1400-getstarted-optiga-trust-m/Libraries/XMCLib/inc\xmc_rtc.h **** typedef struct XMC_RTC_CONFIG
 261:C:/Workspace/DAVE-4.4.2-64Bit/xmc1400-getstarted-optiga-trust-m/Libraries/XMCLib/inc\xmc_rtc.h **** {
 262:C:/Workspace/DAVE-4.4.2-64Bit/xmc1400-getstarted-optiga-trust-m/Libraries/XMCLib/inc\xmc_rtc.h ****   XMC_RTC_TIME_t    time;
 263:C:/Workspace/DAVE-4.4.2-64Bit/xmc1400-getstarted-optiga-trust-m/Libraries/XMCLib/inc\xmc_rtc.h ****   XMC_RTC_ALARM_t   alarm;
 264:C:/Workspace/DAVE-4.4.2-64Bit/xmc1400-getstarted-optiga-trust-m/Libraries/XMCLib/inc\xmc_rtc.h ****   uint16_t          prescaler;
 265:C:/Workspace/DAVE-4.4.2-64Bit/xmc1400-getstarted-optiga-trust-m/Libraries/XMCLib/inc\xmc_rtc.h **** } XMC_RTC_CONFIG_t;
 266:C:/Workspace/DAVE-4.4.2-64Bit/xmc1400-getstarted-optiga-trust-m/Libraries/XMCLib/inc\xmc_rtc.h **** 
 267:C:/Workspace/DAVE-4.4.2-64Bit/xmc1400-getstarted-optiga-trust-m/Libraries/XMCLib/inc\xmc_rtc.h **** /*******************************************************************************
 268:C:/Workspace/DAVE-4.4.2-64Bit/xmc1400-getstarted-optiga-trust-m/Libraries/XMCLib/inc\xmc_rtc.h ****  * EXTENSIONS
 269:C:/Workspace/DAVE-4.4.2-64Bit/xmc1400-getstarted-optiga-trust-m/Libraries/XMCLib/inc\xmc_rtc.h ****  *******************************************************************************/
 270:C:/Workspace/DAVE-4.4.2-64Bit/xmc1400-getstarted-optiga-trust-m/Libraries/XMCLib/inc\xmc_rtc.h **** 
 271:C:/Workspace/DAVE-4.4.2-64Bit/xmc1400-getstarted-optiga-trust-m/Libraries/XMCLib/inc\xmc_rtc.h **** #if UC_FAMILY == XMC1
 272:C:/Workspace/DAVE-4.4.2-64Bit/xmc1400-getstarted-optiga-trust-m/Libraries/XMCLib/inc\xmc_rtc.h **** #include "xmc1_rtc.h"
 273:C:/Workspace/DAVE-4.4.2-64Bit/xmc1400-getstarted-optiga-trust-m/Libraries/XMCLib/inc\xmc_rtc.h **** #endif
 274:C:/Workspace/DAVE-4.4.2-64Bit/xmc1400-getstarted-optiga-trust-m/Libraries/XMCLib/inc\xmc_rtc.h **** 
 275:C:/Workspace/DAVE-4.4.2-64Bit/xmc1400-getstarted-optiga-trust-m/Libraries/XMCLib/inc\xmc_rtc.h **** #if UC_FAMILY == XMC4
 276:C:/Workspace/DAVE-4.4.2-64Bit/xmc1400-getstarted-optiga-trust-m/Libraries/XMCLib/inc\xmc_rtc.h **** #include "xmc4_rtc.h"
 277:C:/Workspace/DAVE-4.4.2-64Bit/xmc1400-getstarted-optiga-trust-m/Libraries/XMCLib/inc\xmc_rtc.h **** #endif
 278:C:/Workspace/DAVE-4.4.2-64Bit/xmc1400-getstarted-optiga-trust-m/Libraries/XMCLib/inc\xmc_rtc.h **** 
 279:C:/Workspace/DAVE-4.4.2-64Bit/xmc1400-getstarted-optiga-trust-m/Libraries/XMCLib/inc\xmc_rtc.h **** /*******************************************************************************
 280:C:/Workspace/DAVE-4.4.2-64Bit/xmc1400-getstarted-optiga-trust-m/Libraries/XMCLib/inc\xmc_rtc.h ****  * API PROTOTYPES
 281:C:/Workspace/DAVE-4.4.2-64Bit/xmc1400-getstarted-optiga-trust-m/Libraries/XMCLib/inc\xmc_rtc.h ****  **************************************************************************************************
 282:C:/Workspace/DAVE-4.4.2-64Bit/xmc1400-getstarted-optiga-trust-m/Libraries/XMCLib/inc\xmc_rtc.h **** 
 283:C:/Workspace/DAVE-4.4.2-64Bit/xmc1400-getstarted-optiga-trust-m/Libraries/XMCLib/inc\xmc_rtc.h **** #ifdef __cplusplus
 284:C:/Workspace/DAVE-4.4.2-64Bit/xmc1400-getstarted-optiga-trust-m/Libraries/XMCLib/inc\xmc_rtc.h **** extern "C" {
 285:C:/Workspace/DAVE-4.4.2-64Bit/xmc1400-getstarted-optiga-trust-m/Libraries/XMCLib/inc\xmc_rtc.h **** #endif
 286:C:/Workspace/DAVE-4.4.2-64Bit/xmc1400-getstarted-optiga-trust-m/Libraries/XMCLib/inc\xmc_rtc.h **** 
 287:C:/Workspace/DAVE-4.4.2-64Bit/xmc1400-getstarted-optiga-trust-m/Libraries/XMCLib/inc\xmc_rtc.h **** /**
 288:C:/Workspace/DAVE-4.4.2-64Bit/xmc1400-getstarted-optiga-trust-m/Libraries/XMCLib/inc\xmc_rtc.h ****  * @param config Constant pointer to a constant ::XMC_RTC_CONFIG_t structure containing the
 289:C:/Workspace/DAVE-4.4.2-64Bit/xmc1400-getstarted-optiga-trust-m/Libraries/XMCLib/inc\xmc_rtc.h ****  *               time, alarm time and clock divider(prescaler) configuration. 
 290:C:/Workspace/DAVE-4.4.2-64Bit/xmc1400-getstarted-optiga-trust-m/Libraries/XMCLib/inc\xmc_rtc.h ****  * @return XMC_RTC_STATUS_t Always returns XMC_RTC_STATUS_OK (It contains only register assignment 
 291:C:/Workspace/DAVE-4.4.2-64Bit/xmc1400-getstarted-optiga-trust-m/Libraries/XMCLib/inc\xmc_rtc.h ****  *
 292:C:/Workspace/DAVE-4.4.2-64Bit/xmc1400-getstarted-optiga-trust-m/Libraries/XMCLib/inc\xmc_rtc.h ****  * \par<b>Description: </b><br>
 293:C:/Workspace/DAVE-4.4.2-64Bit/xmc1400-getstarted-optiga-trust-m/Libraries/XMCLib/inc\xmc_rtc.h ****  * Initialize the RTC peripheral <br>
 294:C:/Workspace/DAVE-4.4.2-64Bit/xmc1400-getstarted-optiga-trust-m/Libraries/XMCLib/inc\xmc_rtc.h ****  *
 295:C:/Workspace/DAVE-4.4.2-64Bit/xmc1400-getstarted-optiga-trust-m/Libraries/XMCLib/inc\xmc_rtc.h ****  * \par \if XMC4
 296:C:/Workspace/DAVE-4.4.2-64Bit/xmc1400-getstarted-optiga-trust-m/Libraries/XMCLib/inc\xmc_rtc.h ****  * The function enables the hibernate domain for accessing RTC peripheral registers, configures 
 297:C:/Workspace/DAVE-4.4.2-64Bit/xmc1400-getstarted-optiga-trust-m/Libraries/XMCLib/inc\xmc_rtc.h ****  * internal clock divider, time and alarm values by writing to the CTR.DIV, TIM0, TIM1, ATIM0 and
 298:C:/Workspace/DAVE-4.4.2-64Bit/xmc1400-getstarted-optiga-trust-m/Libraries/XMCLib/inc\xmc_rtc.h ****  * ATIM1 registers.
 299:C:/Workspace/DAVE-4.4.2-64Bit/xmc1400-getstarted-optiga-trust-m/Libraries/XMCLib/inc\xmc_rtc.h ****  * \endif
 300:C:/Workspace/DAVE-4.4.2-64Bit/xmc1400-getstarted-optiga-trust-m/Libraries/XMCLib/inc\xmc_rtc.h ****  *
 301:C:/Workspace/DAVE-4.4.2-64Bit/xmc1400-getstarted-optiga-trust-m/Libraries/XMCLib/inc\xmc_rtc.h ****  * \if XMC1
 302:C:/Workspace/DAVE-4.4.2-64Bit/xmc1400-getstarted-optiga-trust-m/Libraries/XMCLib/inc\xmc_rtc.h ****  * The function ungates the peripheral clock for RTC, configures 
 303:C:/Workspace/DAVE-4.4.2-64Bit/xmc1400-getstarted-optiga-trust-m/Libraries/XMCLib/inc\xmc_rtc.h ****  * internal clock divider, time and alarm values by writing to the CTR.DIV, TIM0, TIM1, ATIM0 and
 304:C:/Workspace/DAVE-4.4.2-64Bit/xmc1400-getstarted-optiga-trust-m/Libraries/XMCLib/inc\xmc_rtc.h ****  * ATIM1 registers.
 305:C:/Workspace/DAVE-4.4.2-64Bit/xmc1400-getstarted-optiga-trust-m/Libraries/XMCLib/inc\xmc_rtc.h ****  * \endif
 306:C:/Workspace/DAVE-4.4.2-64Bit/xmc1400-getstarted-optiga-trust-m/Libraries/XMCLib/inc\xmc_rtc.h ****  */
 307:C:/Workspace/DAVE-4.4.2-64Bit/xmc1400-getstarted-optiga-trust-m/Libraries/XMCLib/inc\xmc_rtc.h **** XMC_RTC_STATUS_t XMC_RTC_Init(const XMC_RTC_CONFIG_t *const config);
 308:C:/Workspace/DAVE-4.4.2-64Bit/xmc1400-getstarted-optiga-trust-m/Libraries/XMCLib/inc\xmc_rtc.h **** 
 309:C:/Workspace/DAVE-4.4.2-64Bit/xmc1400-getstarted-optiga-trust-m/Libraries/XMCLib/inc\xmc_rtc.h **** /** 
 310:C:/Workspace/DAVE-4.4.2-64Bit/xmc1400-getstarted-optiga-trust-m/Libraries/XMCLib/inc\xmc_rtc.h ****  * @return None
 311:C:/Workspace/DAVE-4.4.2-64Bit/xmc1400-getstarted-optiga-trust-m/Libraries/XMCLib/inc\xmc_rtc.h ****  *
 312:C:/Workspace/DAVE-4.4.2-64Bit/xmc1400-getstarted-optiga-trust-m/Libraries/XMCLib/inc\xmc_rtc.h ****  * \par<b>Description</b><br>
 313:C:/Workspace/DAVE-4.4.2-64Bit/xmc1400-getstarted-optiga-trust-m/Libraries/XMCLib/inc\xmc_rtc.h ****  * Enables RTC peripheral for programming its registers <br>
 314:C:/Workspace/DAVE-4.4.2-64Bit/xmc1400-getstarted-optiga-trust-m/Libraries/XMCLib/inc\xmc_rtc.h ****  *
 315:C:/Workspace/DAVE-4.4.2-64Bit/xmc1400-getstarted-optiga-trust-m/Libraries/XMCLib/inc\xmc_rtc.h ****  * \par \if XMC4
 316:C:/Workspace/DAVE-4.4.2-64Bit/xmc1400-getstarted-optiga-trust-m/Libraries/XMCLib/inc\xmc_rtc.h ****  * Enables the hibernate domain for accessing RTC peripheral registers.
 317:C:/Workspace/DAVE-4.4.2-64Bit/xmc1400-getstarted-optiga-trust-m/Libraries/XMCLib/inc\xmc_rtc.h ****  * \endif
 318:C:/Workspace/DAVE-4.4.2-64Bit/xmc1400-getstarted-optiga-trust-m/Libraries/XMCLib/inc\xmc_rtc.h ****  *
 319:C:/Workspace/DAVE-4.4.2-64Bit/xmc1400-getstarted-optiga-trust-m/Libraries/XMCLib/inc\xmc_rtc.h ****  * \if XMC1
 320:C:/Workspace/DAVE-4.4.2-64Bit/xmc1400-getstarted-optiga-trust-m/Libraries/XMCLib/inc\xmc_rtc.h ****  * Ungates the peripheral clock.
 321:C:/Workspace/DAVE-4.4.2-64Bit/xmc1400-getstarted-optiga-trust-m/Libraries/XMCLib/inc\xmc_rtc.h ****  * \endif
 322:C:/Workspace/DAVE-4.4.2-64Bit/xmc1400-getstarted-optiga-trust-m/Libraries/XMCLib/inc\xmc_rtc.h ****  *
 323:C:/Workspace/DAVE-4.4.2-64Bit/xmc1400-getstarted-optiga-trust-m/Libraries/XMCLib/inc\xmc_rtc.h ****  * \par<b>Related APIs:</b><br>
 324:C:/Workspace/DAVE-4.4.2-64Bit/xmc1400-getstarted-optiga-trust-m/Libraries/XMCLib/inc\xmc_rtc.h ****  * XMC_RTC_Disable(), XMC_SCU_RESET_DeassertPeripheralReset()
 325:C:/Workspace/DAVE-4.4.2-64Bit/xmc1400-getstarted-optiga-trust-m/Libraries/XMCLib/inc\xmc_rtc.h ****  */ 
 326:C:/Workspace/DAVE-4.4.2-64Bit/xmc1400-getstarted-optiga-trust-m/Libraries/XMCLib/inc\xmc_rtc.h **** void XMC_RTC_Enable(void);
 327:C:/Workspace/DAVE-4.4.2-64Bit/xmc1400-getstarted-optiga-trust-m/Libraries/XMCLib/inc\xmc_rtc.h **** 
 328:C:/Workspace/DAVE-4.4.2-64Bit/xmc1400-getstarted-optiga-trust-m/Libraries/XMCLib/inc\xmc_rtc.h **** /** 
 329:C:/Workspace/DAVE-4.4.2-64Bit/xmc1400-getstarted-optiga-trust-m/Libraries/XMCLib/inc\xmc_rtc.h ****  * @return None
 330:C:/Workspace/DAVE-4.4.2-64Bit/xmc1400-getstarted-optiga-trust-m/Libraries/XMCLib/inc\xmc_rtc.h ****  *
 331:C:/Workspace/DAVE-4.4.2-64Bit/xmc1400-getstarted-optiga-trust-m/Libraries/XMCLib/inc\xmc_rtc.h ****  * \par<b>Description</b><br>
 332:C:/Workspace/DAVE-4.4.2-64Bit/xmc1400-getstarted-optiga-trust-m/Libraries/XMCLib/inc\xmc_rtc.h ****  * Disables RTC peripheral for programming its registers <br>
 333:C:/Workspace/DAVE-4.4.2-64Bit/xmc1400-getstarted-optiga-trust-m/Libraries/XMCLib/inc\xmc_rtc.h ****  *
 334:C:/Workspace/DAVE-4.4.2-64Bit/xmc1400-getstarted-optiga-trust-m/Libraries/XMCLib/inc\xmc_rtc.h ****  * \par \if XMC4
 335:C:/Workspace/DAVE-4.4.2-64Bit/xmc1400-getstarted-optiga-trust-m/Libraries/XMCLib/inc\xmc_rtc.h ****  * Empty function (Hibernate domain is not disabled).
 336:C:/Workspace/DAVE-4.4.2-64Bit/xmc1400-getstarted-optiga-trust-m/Libraries/XMCLib/inc\xmc_rtc.h ****  * \endif
 337:C:/Workspace/DAVE-4.4.2-64Bit/xmc1400-getstarted-optiga-trust-m/Libraries/XMCLib/inc\xmc_rtc.h ****  *
 338:C:/Workspace/DAVE-4.4.2-64Bit/xmc1400-getstarted-optiga-trust-m/Libraries/XMCLib/inc\xmc_rtc.h ****  * \if XMC1
 339:C:/Workspace/DAVE-4.4.2-64Bit/xmc1400-getstarted-optiga-trust-m/Libraries/XMCLib/inc\xmc_rtc.h ****  * Gates the peripheral clock.
 340:C:/Workspace/DAVE-4.4.2-64Bit/xmc1400-getstarted-optiga-trust-m/Libraries/XMCLib/inc\xmc_rtc.h ****  * \endif
 341:C:/Workspace/DAVE-4.4.2-64Bit/xmc1400-getstarted-optiga-trust-m/Libraries/XMCLib/inc\xmc_rtc.h ****  *
 342:C:/Workspace/DAVE-4.4.2-64Bit/xmc1400-getstarted-optiga-trust-m/Libraries/XMCLib/inc\xmc_rtc.h ****  * \par<b>Related APIs:</b><br>
 343:C:/Workspace/DAVE-4.4.2-64Bit/xmc1400-getstarted-optiga-trust-m/Libraries/XMCLib/inc\xmc_rtc.h ****  * XMC_RTC_Enable(), XMC_SCU_RESET_AssertPeripheralReset()
 344:C:/Workspace/DAVE-4.4.2-64Bit/xmc1400-getstarted-optiga-trust-m/Libraries/XMCLib/inc\xmc_rtc.h ****  */ 
 345:C:/Workspace/DAVE-4.4.2-64Bit/xmc1400-getstarted-optiga-trust-m/Libraries/XMCLib/inc\xmc_rtc.h **** void XMC_RTC_Disable(void);
 346:C:/Workspace/DAVE-4.4.2-64Bit/xmc1400-getstarted-optiga-trust-m/Libraries/XMCLib/inc\xmc_rtc.h **** 
 347:C:/Workspace/DAVE-4.4.2-64Bit/xmc1400-getstarted-optiga-trust-m/Libraries/XMCLib/inc\xmc_rtc.h **** /** 
 348:C:/Workspace/DAVE-4.4.2-64Bit/xmc1400-getstarted-optiga-trust-m/Libraries/XMCLib/inc\xmc_rtc.h ****  * @return None
 349:C:/Workspace/DAVE-4.4.2-64Bit/xmc1400-getstarted-optiga-trust-m/Libraries/XMCLib/inc\xmc_rtc.h ****  *
 350:C:/Workspace/DAVE-4.4.2-64Bit/xmc1400-getstarted-optiga-trust-m/Libraries/XMCLib/inc\xmc_rtc.h ****  * \par<b>Description</b><br>
 351:C:/Workspace/DAVE-4.4.2-64Bit/xmc1400-getstarted-optiga-trust-m/Libraries/XMCLib/inc\xmc_rtc.h ****  * Checks RTC peripheral is enabled for programming its registers <br>
 352:C:/Workspace/DAVE-4.4.2-64Bit/xmc1400-getstarted-optiga-trust-m/Libraries/XMCLib/inc\xmc_rtc.h ****  *
 353:C:/Workspace/DAVE-4.4.2-64Bit/xmc1400-getstarted-optiga-trust-m/Libraries/XMCLib/inc\xmc_rtc.h ****  * \par \if XMC4
 354:C:/Workspace/DAVE-4.4.2-64Bit/xmc1400-getstarted-optiga-trust-m/Libraries/XMCLib/inc\xmc_rtc.h ****  * Checks the hibernate domain is enabled or not.
 355:C:/Workspace/DAVE-4.4.2-64Bit/xmc1400-getstarted-optiga-trust-m/Libraries/XMCLib/inc\xmc_rtc.h ****  * \endif
 356:C:/Workspace/DAVE-4.4.2-64Bit/xmc1400-getstarted-optiga-trust-m/Libraries/XMCLib/inc\xmc_rtc.h ****  *
 357:C:/Workspace/DAVE-4.4.2-64Bit/xmc1400-getstarted-optiga-trust-m/Libraries/XMCLib/inc\xmc_rtc.h ****  * \if XMC1
 358:C:/Workspace/DAVE-4.4.2-64Bit/xmc1400-getstarted-optiga-trust-m/Libraries/XMCLib/inc\xmc_rtc.h ****  * Checks peripheral clock is ungated or not.
 359:C:/Workspace/DAVE-4.4.2-64Bit/xmc1400-getstarted-optiga-trust-m/Libraries/XMCLib/inc\xmc_rtc.h ****  * \endif
 360:C:/Workspace/DAVE-4.4.2-64Bit/xmc1400-getstarted-optiga-trust-m/Libraries/XMCLib/inc\xmc_rtc.h ****  *
 361:C:/Workspace/DAVE-4.4.2-64Bit/xmc1400-getstarted-optiga-trust-m/Libraries/XMCLib/inc\xmc_rtc.h ****  * \par<b>Related APIs:</b><br>
 362:C:/Workspace/DAVE-4.4.2-64Bit/xmc1400-getstarted-optiga-trust-m/Libraries/XMCLib/inc\xmc_rtc.h ****  * XMC_RTC_Enable(), XMC_RTC_Disable(), XMC_SCU_RESET_DeassertPeripheralReset(),
 363:C:/Workspace/DAVE-4.4.2-64Bit/xmc1400-getstarted-optiga-trust-m/Libraries/XMCLib/inc\xmc_rtc.h ****  * XMC_SCU_RESET_AssertPeripheralReset()
 364:C:/Workspace/DAVE-4.4.2-64Bit/xmc1400-getstarted-optiga-trust-m/Libraries/XMCLib/inc\xmc_rtc.h ****  */ 
 365:C:/Workspace/DAVE-4.4.2-64Bit/xmc1400-getstarted-optiga-trust-m/Libraries/XMCLib/inc\xmc_rtc.h **** bool XMC_RTC_IsEnabled(void);
 366:C:/Workspace/DAVE-4.4.2-64Bit/xmc1400-getstarted-optiga-trust-m/Libraries/XMCLib/inc\xmc_rtc.h ****  
 367:C:/Workspace/DAVE-4.4.2-64Bit/xmc1400-getstarted-optiga-trust-m/Libraries/XMCLib/inc\xmc_rtc.h **** /**
 368:C:/Workspace/DAVE-4.4.2-64Bit/xmc1400-getstarted-optiga-trust-m/Libraries/XMCLib/inc\xmc_rtc.h ****  * @return None
 369:C:/Workspace/DAVE-4.4.2-64Bit/xmc1400-getstarted-optiga-trust-m/Libraries/XMCLib/inc\xmc_rtc.h ****  *
 370:C:/Workspace/DAVE-4.4.2-64Bit/xmc1400-getstarted-optiga-trust-m/Libraries/XMCLib/inc\xmc_rtc.h ****  * \par<b>Description</b><br>
 371:C:/Workspace/DAVE-4.4.2-64Bit/xmc1400-getstarted-optiga-trust-m/Libraries/XMCLib/inc\xmc_rtc.h ****  * Enables RTC peripheral to start counting time <br>
 372:C:/Workspace/DAVE-4.4.2-64Bit/xmc1400-getstarted-optiga-trust-m/Libraries/XMCLib/inc\xmc_rtc.h ****  *
 373:C:/Workspace/DAVE-4.4.2-64Bit/xmc1400-getstarted-optiga-trust-m/Libraries/XMCLib/inc\xmc_rtc.h ****  * \par
 374:C:/Workspace/DAVE-4.4.2-64Bit/xmc1400-getstarted-optiga-trust-m/Libraries/XMCLib/inc\xmc_rtc.h ****  * The function starts the RTC for counting time by setting 
 375:C:/Workspace/DAVE-4.4.2-64Bit/xmc1400-getstarted-optiga-trust-m/Libraries/XMCLib/inc\xmc_rtc.h ****  * CTR.ENB bit. Before starting the RTC, it should not be in
 376:C:/Workspace/DAVE-4.4.2-64Bit/xmc1400-getstarted-optiga-trust-m/Libraries/XMCLib/inc\xmc_rtc.h ****  * running mode and also hibernate domain should be enabled.
 377:C:/Workspace/DAVE-4.4.2-64Bit/xmc1400-getstarted-optiga-trust-m/Libraries/XMCLib/inc\xmc_rtc.h ****  *
 378:C:/Workspace/DAVE-4.4.2-64Bit/xmc1400-getstarted-optiga-trust-m/Libraries/XMCLib/inc\xmc_rtc.h ****  * \par<b>Related APIs:</b><br>
 379:C:/Workspace/DAVE-4.4.2-64Bit/xmc1400-getstarted-optiga-trust-m/Libraries/XMCLib/inc\xmc_rtc.h ****  * XMC_RTC_Enable(), XMC_RTC_Stop(), XMC_SCU_RESET_DeassertPeripheralReset()
 380:C:/Workspace/DAVE-4.4.2-64Bit/xmc1400-getstarted-optiga-trust-m/Libraries/XMCLib/inc\xmc_rtc.h ****  */  
 381:C:/Workspace/DAVE-4.4.2-64Bit/xmc1400-getstarted-optiga-trust-m/Libraries/XMCLib/inc\xmc_rtc.h **** void XMC_RTC_Start(void);
 382:C:/Workspace/DAVE-4.4.2-64Bit/xmc1400-getstarted-optiga-trust-m/Libraries/XMCLib/inc\xmc_rtc.h **** 
 383:C:/Workspace/DAVE-4.4.2-64Bit/xmc1400-getstarted-optiga-trust-m/Libraries/XMCLib/inc\xmc_rtc.h **** /**
 384:C:/Workspace/DAVE-4.4.2-64Bit/xmc1400-getstarted-optiga-trust-m/Libraries/XMCLib/inc\xmc_rtc.h ****  * @return None
 385:C:/Workspace/DAVE-4.4.2-64Bit/xmc1400-getstarted-optiga-trust-m/Libraries/XMCLib/inc\xmc_rtc.h ****  *
 386:C:/Workspace/DAVE-4.4.2-64Bit/xmc1400-getstarted-optiga-trust-m/Libraries/XMCLib/inc\xmc_rtc.h ****  * \par<b>Description</b><br>
 387:C:/Workspace/DAVE-4.4.2-64Bit/xmc1400-getstarted-optiga-trust-m/Libraries/XMCLib/inc\xmc_rtc.h ****  * Disables RTC peripheral to start counting time <br>
 388:C:/Workspace/DAVE-4.4.2-64Bit/xmc1400-getstarted-optiga-trust-m/Libraries/XMCLib/inc\xmc_rtc.h ****  *
 389:C:/Workspace/DAVE-4.4.2-64Bit/xmc1400-getstarted-optiga-trust-m/Libraries/XMCLib/inc\xmc_rtc.h ****  * \par
 390:C:/Workspace/DAVE-4.4.2-64Bit/xmc1400-getstarted-optiga-trust-m/Libraries/XMCLib/inc\xmc_rtc.h ****  * The function stops the RTC for counting time by resetting 
 391:C:/Workspace/DAVE-4.4.2-64Bit/xmc1400-getstarted-optiga-trust-m/Libraries/XMCLib/inc\xmc_rtc.h ****  * CTR.ENB. Before stopping the RTC, hibernate domain should be enabled.
 392:C:/Workspace/DAVE-4.4.2-64Bit/xmc1400-getstarted-optiga-trust-m/Libraries/XMCLib/inc\xmc_rtc.h ****  *
 393:C:/Workspace/DAVE-4.4.2-64Bit/xmc1400-getstarted-optiga-trust-m/Libraries/XMCLib/inc\xmc_rtc.h ****  * \par<b>Related APIs:</b><br>
 394:C:/Workspace/DAVE-4.4.2-64Bit/xmc1400-getstarted-optiga-trust-m/Libraries/XMCLib/inc\xmc_rtc.h ****  * XMC_RTC_Enable(), XMC_RTC_Start(), XMC_SCU_RESET_AssertPeripheralReset()
 395:C:/Workspace/DAVE-4.4.2-64Bit/xmc1400-getstarted-optiga-trust-m/Libraries/XMCLib/inc\xmc_rtc.h ****  */  
 396:C:/Workspace/DAVE-4.4.2-64Bit/xmc1400-getstarted-optiga-trust-m/Libraries/XMCLib/inc\xmc_rtc.h **** void XMC_RTC_Stop(void);
 397:C:/Workspace/DAVE-4.4.2-64Bit/xmc1400-getstarted-optiga-trust-m/Libraries/XMCLib/inc\xmc_rtc.h ****   
 398:C:/Workspace/DAVE-4.4.2-64Bit/xmc1400-getstarted-optiga-trust-m/Libraries/XMCLib/inc\xmc_rtc.h **** /**
 399:C:/Workspace/DAVE-4.4.2-64Bit/xmc1400-getstarted-optiga-trust-m/Libraries/XMCLib/inc\xmc_rtc.h ****  * @param prescaler Prescaler value to be set                 
 400:C:/Workspace/DAVE-4.4.2-64Bit/xmc1400-getstarted-optiga-trust-m/Libraries/XMCLib/inc\xmc_rtc.h ****  * @return None
 401:C:/Workspace/DAVE-4.4.2-64Bit/xmc1400-getstarted-optiga-trust-m/Libraries/XMCLib/inc\xmc_rtc.h ****  *
 402:C:/Workspace/DAVE-4.4.2-64Bit/xmc1400-getstarted-optiga-trust-m/Libraries/XMCLib/inc\xmc_rtc.h ****  * \par<b>Description: </b><br>
 403:C:/Workspace/DAVE-4.4.2-64Bit/xmc1400-getstarted-optiga-trust-m/Libraries/XMCLib/inc\xmc_rtc.h ****  * Sets the RTC module prescaler value <br>
 404:C:/Workspace/DAVE-4.4.2-64Bit/xmc1400-getstarted-optiga-trust-m/Libraries/XMCLib/inc\xmc_rtc.h ****  *
 405:C:/Workspace/DAVE-4.4.2-64Bit/xmc1400-getstarted-optiga-trust-m/Libraries/XMCLib/inc\xmc_rtc.h ****  * \par
 406:C:/Workspace/DAVE-4.4.2-64Bit/xmc1400-getstarted-optiga-trust-m/Libraries/XMCLib/inc\xmc_rtc.h ****  * The function sets the CTR.DIV bitfield to configure the prescalar value. 
 407:C:/Workspace/DAVE-4.4.2-64Bit/xmc1400-getstarted-optiga-trust-m/Libraries/XMCLib/inc\xmc_rtc.h ****  * The default value for the prescalar with the 32.768kHz crystal (or the internal clock) 
 408:C:/Workspace/DAVE-4.4.2-64Bit/xmc1400-getstarted-optiga-trust-m/Libraries/XMCLib/inc\xmc_rtc.h ****  * is 7FFFH for a time interval of 1 sec. Before setting the prescaler value RTC should be
 409:C:/Workspace/DAVE-4.4.2-64Bit/xmc1400-getstarted-optiga-trust-m/Libraries/XMCLib/inc\xmc_rtc.h ****  * in stop mode and hibernate domain should be enabled.
 410:C:/Workspace/DAVE-4.4.2-64Bit/xmc1400-getstarted-optiga-trust-m/Libraries/XMCLib/inc\xmc_rtc.h ****  *
 411:C:/Workspace/DAVE-4.4.2-64Bit/xmc1400-getstarted-optiga-trust-m/Libraries/XMCLib/inc\xmc_rtc.h ****  * \par<b>Related APIs:</b><br>
 412:C:/Workspace/DAVE-4.4.2-64Bit/xmc1400-getstarted-optiga-trust-m/Libraries/XMCLib/inc\xmc_rtc.h ****  * XMC_RTC_Stop(), XMC_RTC_Enable(), XMC_RTC_GetPrescaler()
 413:C:/Workspace/DAVE-4.4.2-64Bit/xmc1400-getstarted-optiga-trust-m/Libraries/XMCLib/inc\xmc_rtc.h ****  */   
 414:C:/Workspace/DAVE-4.4.2-64Bit/xmc1400-getstarted-optiga-trust-m/Libraries/XMCLib/inc\xmc_rtc.h **** void XMC_RTC_SetPrescaler(uint16_t prescaler);
 415:C:/Workspace/DAVE-4.4.2-64Bit/xmc1400-getstarted-optiga-trust-m/Libraries/XMCLib/inc\xmc_rtc.h **** 
 416:C:/Workspace/DAVE-4.4.2-64Bit/xmc1400-getstarted-optiga-trust-m/Libraries/XMCLib/inc\xmc_rtc.h **** /**
 417:C:/Workspace/DAVE-4.4.2-64Bit/xmc1400-getstarted-optiga-trust-m/Libraries/XMCLib/inc\xmc_rtc.h ****  * @return None
 418:C:/Workspace/DAVE-4.4.2-64Bit/xmc1400-getstarted-optiga-trust-m/Libraries/XMCLib/inc\xmc_rtc.h ****  *
 419:C:/Workspace/DAVE-4.4.2-64Bit/xmc1400-getstarted-optiga-trust-m/Libraries/XMCLib/inc\xmc_rtc.h ****  * \par<b>Description: </b><br>
 420:C:/Workspace/DAVE-4.4.2-64Bit/xmc1400-getstarted-optiga-trust-m/Libraries/XMCLib/inc\xmc_rtc.h ****  * Gets the RTC module prescaler value <br>
 421:C:/Workspace/DAVE-4.4.2-64Bit/xmc1400-getstarted-optiga-trust-m/Libraries/XMCLib/inc\xmc_rtc.h ****  *
 422:C:/Workspace/DAVE-4.4.2-64Bit/xmc1400-getstarted-optiga-trust-m/Libraries/XMCLib/inc\xmc_rtc.h ****  * \par
 423:C:/Workspace/DAVE-4.4.2-64Bit/xmc1400-getstarted-optiga-trust-m/Libraries/XMCLib/inc\xmc_rtc.h ****  * The function reads the CTR.DIV bitfield to get the prescalar value. The default value 
 424:C:/Workspace/DAVE-4.4.2-64Bit/xmc1400-getstarted-optiga-trust-m/Libraries/XMCLib/inc\xmc_rtc.h ****  * for the prescalar with the 32.768kHz crystal (or the internal clock) is 7FFFH for a 
 425:C:/Workspace/DAVE-4.4.2-64Bit/xmc1400-getstarted-optiga-trust-m/Libraries/XMCLib/inc\xmc_rtc.h ****  * time interval of 1 sec.
 426:C:/Workspace/DAVE-4.4.2-64Bit/xmc1400-getstarted-optiga-trust-m/Libraries/XMCLib/inc\xmc_rtc.h ****  *
 427:C:/Workspace/DAVE-4.4.2-64Bit/xmc1400-getstarted-optiga-trust-m/Libraries/XMCLib/inc\xmc_rtc.h ****  * \par<b>Related APIs:</b><br>
 428:C:/Workspace/DAVE-4.4.2-64Bit/xmc1400-getstarted-optiga-trust-m/Libraries/XMCLib/inc\xmc_rtc.h ****  * XMC_RTC_SetPrescaler()
 429:C:/Workspace/DAVE-4.4.2-64Bit/xmc1400-getstarted-optiga-trust-m/Libraries/XMCLib/inc\xmc_rtc.h ****  */   
 430:C:/Workspace/DAVE-4.4.2-64Bit/xmc1400-getstarted-optiga-trust-m/Libraries/XMCLib/inc\xmc_rtc.h **** __STATIC_INLINE uint32_t XMC_RTC_GetPrescaler(void)
 431:C:/Workspace/DAVE-4.4.2-64Bit/xmc1400-getstarted-optiga-trust-m/Libraries/XMCLib/inc\xmc_rtc.h **** {
 432:C:/Workspace/DAVE-4.4.2-64Bit/xmc1400-getstarted-optiga-trust-m/Libraries/XMCLib/inc\xmc_rtc.h ****   return (uint32_t)(((uint32_t)RTC->CTR & (uint32_t)RTC_CTR_DIV_Msk) >> (uint32_t)RTC_CTR_DIV_Pos);
 433:C:/Workspace/DAVE-4.4.2-64Bit/xmc1400-getstarted-optiga-trust-m/Libraries/XMCLib/inc\xmc_rtc.h **** }
 434:C:/Workspace/DAVE-4.4.2-64Bit/xmc1400-getstarted-optiga-trust-m/Libraries/XMCLib/inc\xmc_rtc.h **** 
 435:C:/Workspace/DAVE-4.4.2-64Bit/xmc1400-getstarted-optiga-trust-m/Libraries/XMCLib/inc\xmc_rtc.h **** /**
 436:C:/Workspace/DAVE-4.4.2-64Bit/xmc1400-getstarted-optiga-trust-m/Libraries/XMCLib/inc\xmc_rtc.h ****  * @param timeval Contstant pointer to a constant ::XMC_RTC_TIME_t structure containing the
 437:C:/Workspace/DAVE-4.4.2-64Bit/xmc1400-getstarted-optiga-trust-m/Libraries/XMCLib/inc\xmc_rtc.h ****  *                time parameters seconds, minutes, hours, days, daysofweek, month and year.     
 438:C:/Workspace/DAVE-4.4.2-64Bit/xmc1400-getstarted-optiga-trust-m/Libraries/XMCLib/inc\xmc_rtc.h ****  * @return None
 439:C:/Workspace/DAVE-4.4.2-64Bit/xmc1400-getstarted-optiga-trust-m/Libraries/XMCLib/inc\xmc_rtc.h ****  *
 440:C:/Workspace/DAVE-4.4.2-64Bit/xmc1400-getstarted-optiga-trust-m/Libraries/XMCLib/inc\xmc_rtc.h ****  * \par<b>Description: </b><br>
 441:C:/Workspace/DAVE-4.4.2-64Bit/xmc1400-getstarted-optiga-trust-m/Libraries/XMCLib/inc\xmc_rtc.h ****  * Sets the RTC module time values <br>
 442:C:/Workspace/DAVE-4.4.2-64Bit/xmc1400-getstarted-optiga-trust-m/Libraries/XMCLib/inc\xmc_rtc.h ****  *
 443:C:/Workspace/DAVE-4.4.2-64Bit/xmc1400-getstarted-optiga-trust-m/Libraries/XMCLib/inc\xmc_rtc.h ****  * \par
 444:C:/Workspace/DAVE-4.4.2-64Bit/xmc1400-getstarted-optiga-trust-m/Libraries/XMCLib/inc\xmc_rtc.h ****  * The function sets the TIM0, TIM1 registers with time values.
 445:C:/Workspace/DAVE-4.4.2-64Bit/xmc1400-getstarted-optiga-trust-m/Libraries/XMCLib/inc\xmc_rtc.h ****  * The values can only be written when RTC is disabled.
 446:C:/Workspace/DAVE-4.4.2-64Bit/xmc1400-getstarted-optiga-trust-m/Libraries/XMCLib/inc\xmc_rtc.h ****  * See the structure ::XMC_RTC_TIME_t for the valid range of time value parameters. <br>
 447:C:/Workspace/DAVE-4.4.2-64Bit/xmc1400-getstarted-optiga-trust-m/Libraries/XMCLib/inc\xmc_rtc.h ****  *
 448:C:/Workspace/DAVE-4.4.2-64Bit/xmc1400-getstarted-optiga-trust-m/Libraries/XMCLib/inc\xmc_rtc.h ****  * \par<b>Related APIs:</b><br>
 449:C:/Workspace/DAVE-4.4.2-64Bit/xmc1400-getstarted-optiga-trust-m/Libraries/XMCLib/inc\xmc_rtc.h ****  * XMC_RTC_GetTime(), XMC_RTC_Stop() 
 450:C:/Workspace/DAVE-4.4.2-64Bit/xmc1400-getstarted-optiga-trust-m/Libraries/XMCLib/inc\xmc_rtc.h ****  */    
 451:C:/Workspace/DAVE-4.4.2-64Bit/xmc1400-getstarted-optiga-trust-m/Libraries/XMCLib/inc\xmc_rtc.h **** void XMC_RTC_SetTime(const XMC_RTC_TIME_t *const timeval);
 452:C:/Workspace/DAVE-4.4.2-64Bit/xmc1400-getstarted-optiga-trust-m/Libraries/XMCLib/inc\xmc_rtc.h **** 
 453:C:/Workspace/DAVE-4.4.2-64Bit/xmc1400-getstarted-optiga-trust-m/Libraries/XMCLib/inc\xmc_rtc.h **** /**
 454:C:/Workspace/DAVE-4.4.2-64Bit/xmc1400-getstarted-optiga-trust-m/Libraries/XMCLib/inc\xmc_rtc.h ****  * @param time Pointer to a constant ::XMC_RTC_TIME_t structure containing the time parameters
 455:C:/Workspace/DAVE-4.4.2-64Bit/xmc1400-getstarted-optiga-trust-m/Libraries/XMCLib/inc\xmc_rtc.h ****  *             seconds, minutes, hours, days, daysofweek, month and year. 
 456:C:/Workspace/DAVE-4.4.2-64Bit/xmc1400-getstarted-optiga-trust-m/Libraries/XMCLib/inc\xmc_rtc.h ****  * @return None
 457:C:/Workspace/DAVE-4.4.2-64Bit/xmc1400-getstarted-optiga-trust-m/Libraries/XMCLib/inc\xmc_rtc.h ****  *
 458:C:/Workspace/DAVE-4.4.2-64Bit/xmc1400-getstarted-optiga-trust-m/Libraries/XMCLib/inc\xmc_rtc.h ****  * \par<b>Description: </b><br>
 459:C:/Workspace/DAVE-4.4.2-64Bit/xmc1400-getstarted-optiga-trust-m/Libraries/XMCLib/inc\xmc_rtc.h ****  * Gets the RTC module time value <br>
 460:C:/Workspace/DAVE-4.4.2-64Bit/xmc1400-getstarted-optiga-trust-m/Libraries/XMCLib/inc\xmc_rtc.h ****  *
 461:C:/Workspace/DAVE-4.4.2-64Bit/xmc1400-getstarted-optiga-trust-m/Libraries/XMCLib/inc\xmc_rtc.h ****  * \par
 462:C:/Workspace/DAVE-4.4.2-64Bit/xmc1400-getstarted-optiga-trust-m/Libraries/XMCLib/inc\xmc_rtc.h ****  * The function gets the time values from TIM0, TIM1 registers. 
 463:C:/Workspace/DAVE-4.4.2-64Bit/xmc1400-getstarted-optiga-trust-m/Libraries/XMCLib/inc\xmc_rtc.h ****  * See the structure ::XMC_RTC_TIME_t for the valid range of time value parameters. <br>
 464:C:/Workspace/DAVE-4.4.2-64Bit/xmc1400-getstarted-optiga-trust-m/Libraries/XMCLib/inc\xmc_rtc.h ****  *
 465:C:/Workspace/DAVE-4.4.2-64Bit/xmc1400-getstarted-optiga-trust-m/Libraries/XMCLib/inc\xmc_rtc.h ****  * \par<b>Related APIs:</b><br>
 466:C:/Workspace/DAVE-4.4.2-64Bit/xmc1400-getstarted-optiga-trust-m/Libraries/XMCLib/inc\xmc_rtc.h ****  * XMC_RTC_SetTime()
 467:C:/Workspace/DAVE-4.4.2-64Bit/xmc1400-getstarted-optiga-trust-m/Libraries/XMCLib/inc\xmc_rtc.h ****  */    
 468:C:/Workspace/DAVE-4.4.2-64Bit/xmc1400-getstarted-optiga-trust-m/Libraries/XMCLib/inc\xmc_rtc.h **** void XMC_RTC_GetTime(XMC_RTC_TIME_t *const time);
 469:C:/Workspace/DAVE-4.4.2-64Bit/xmc1400-getstarted-optiga-trust-m/Libraries/XMCLib/inc\xmc_rtc.h **** 
 470:C:/Workspace/DAVE-4.4.2-64Bit/xmc1400-getstarted-optiga-trust-m/Libraries/XMCLib/inc\xmc_rtc.h **** /**
 471:C:/Workspace/DAVE-4.4.2-64Bit/xmc1400-getstarted-optiga-trust-m/Libraries/XMCLib/inc\xmc_rtc.h ****  * @param stdtime Pointer to a ::tm structure containing the time parameters seconds,
 472:C:/Workspace/DAVE-4.4.2-64Bit/xmc1400-getstarted-optiga-trust-m/Libraries/XMCLib/inc\xmc_rtc.h ****  *                minutes, hours, days, daysofweek, month, year(since 1900) and days in a   
 473:C:/Workspace/DAVE-4.4.2-64Bit/xmc1400-getstarted-optiga-trust-m/Libraries/XMCLib/inc\xmc_rtc.h ****  *                year in standard format.           
 474:C:/Workspace/DAVE-4.4.2-64Bit/xmc1400-getstarted-optiga-trust-m/Libraries/XMCLib/inc\xmc_rtc.h ****  * @return None
 475:C:/Workspace/DAVE-4.4.2-64Bit/xmc1400-getstarted-optiga-trust-m/Libraries/XMCLib/inc\xmc_rtc.h ****  *
 476:C:/Workspace/DAVE-4.4.2-64Bit/xmc1400-getstarted-optiga-trust-m/Libraries/XMCLib/inc\xmc_rtc.h ****  * \par<b>Description: </b><br>
 477:C:/Workspace/DAVE-4.4.2-64Bit/xmc1400-getstarted-optiga-trust-m/Libraries/XMCLib/inc\xmc_rtc.h ****  * Sets the RTC module time value in standard format <br>
 478:C:/Workspace/DAVE-4.4.2-64Bit/xmc1400-getstarted-optiga-trust-m/Libraries/XMCLib/inc\xmc_rtc.h ****  *
 479:C:/Workspace/DAVE-4.4.2-64Bit/xmc1400-getstarted-optiga-trust-m/Libraries/XMCLib/inc\xmc_rtc.h ****  * \par
 480:C:/Workspace/DAVE-4.4.2-64Bit/xmc1400-getstarted-optiga-trust-m/Libraries/XMCLib/inc\xmc_rtc.h ****  * The function sets the time values from TIM0, TIM1 registers. 
 481:C:/Workspace/DAVE-4.4.2-64Bit/xmc1400-getstarted-optiga-trust-m/Libraries/XMCLib/inc\xmc_rtc.h ****  *
 482:C:/Workspace/DAVE-4.4.2-64Bit/xmc1400-getstarted-optiga-trust-m/Libraries/XMCLib/inc\xmc_rtc.h ****  * \par<b>Related APIs:</b><br>
 483:C:/Workspace/DAVE-4.4.2-64Bit/xmc1400-getstarted-optiga-trust-m/Libraries/XMCLib/inc\xmc_rtc.h ****  * XMC_RTC_SetTime(), XMC_RTC_GetTime()
 484:C:/Workspace/DAVE-4.4.2-64Bit/xmc1400-getstarted-optiga-trust-m/Libraries/XMCLib/inc\xmc_rtc.h ****  */     
 485:C:/Workspace/DAVE-4.4.2-64Bit/xmc1400-getstarted-optiga-trust-m/Libraries/XMCLib/inc\xmc_rtc.h **** void XMC_RTC_SetTimeStdFormat(const struct tm *const stdtime);
 486:C:/Workspace/DAVE-4.4.2-64Bit/xmc1400-getstarted-optiga-trust-m/Libraries/XMCLib/inc\xmc_rtc.h **** 
 487:C:/Workspace/DAVE-4.4.2-64Bit/xmc1400-getstarted-optiga-trust-m/Libraries/XMCLib/inc\xmc_rtc.h **** /**
 488:C:/Workspace/DAVE-4.4.2-64Bit/xmc1400-getstarted-optiga-trust-m/Libraries/XMCLib/inc\xmc_rtc.h ****  * @param stdtime Pointer to a constant ::tm structure containing the time parameters seconds,
 489:C:/Workspace/DAVE-4.4.2-64Bit/xmc1400-getstarted-optiga-trust-m/Libraries/XMCLib/inc\xmc_rtc.h ****  *                minutes, hours, days, daysofweek, month, year(since 1900) and days in a   
 490:C:/Workspace/DAVE-4.4.2-64Bit/xmc1400-getstarted-optiga-trust-m/Libraries/XMCLib/inc\xmc_rtc.h ****  *                year in standard format.           
 491:C:/Workspace/DAVE-4.4.2-64Bit/xmc1400-getstarted-optiga-trust-m/Libraries/XMCLib/inc\xmc_rtc.h ****  * @return None
 492:C:/Workspace/DAVE-4.4.2-64Bit/xmc1400-getstarted-optiga-trust-m/Libraries/XMCLib/inc\xmc_rtc.h ****  *
 493:C:/Workspace/DAVE-4.4.2-64Bit/xmc1400-getstarted-optiga-trust-m/Libraries/XMCLib/inc\xmc_rtc.h ****  * \par<b>Description: </b><br>
 494:C:/Workspace/DAVE-4.4.2-64Bit/xmc1400-getstarted-optiga-trust-m/Libraries/XMCLib/inc\xmc_rtc.h ****  * Gets the RTC module time value in standard format <br>
 495:C:/Workspace/DAVE-4.4.2-64Bit/xmc1400-getstarted-optiga-trust-m/Libraries/XMCLib/inc\xmc_rtc.h ****  *
 496:C:/Workspace/DAVE-4.4.2-64Bit/xmc1400-getstarted-optiga-trust-m/Libraries/XMCLib/inc\xmc_rtc.h ****  * \par
 497:C:/Workspace/DAVE-4.4.2-64Bit/xmc1400-getstarted-optiga-trust-m/Libraries/XMCLib/inc\xmc_rtc.h ****  * The function gets the time values from TIM0, TIM1 registers. 
 498:C:/Workspace/DAVE-4.4.2-64Bit/xmc1400-getstarted-optiga-trust-m/Libraries/XMCLib/inc\xmc_rtc.h ****  * See the structure ::XMC_RTC_TIME_t for the valid range of time value parameters. <br>
 499:C:/Workspace/DAVE-4.4.2-64Bit/xmc1400-getstarted-optiga-trust-m/Libraries/XMCLib/inc\xmc_rtc.h ****  * For days the valid range is (1 - Actual days of month), year (since 1900) and 
 500:C:/Workspace/DAVE-4.4.2-64Bit/xmc1400-getstarted-optiga-trust-m/Libraries/XMCLib/inc\xmc_rtc.h ****  * daysinyear (0 -365).
 501:C:/Workspace/DAVE-4.4.2-64Bit/xmc1400-getstarted-optiga-trust-m/Libraries/XMCLib/inc\xmc_rtc.h ****  *
 502:C:/Workspace/DAVE-4.4.2-64Bit/xmc1400-getstarted-optiga-trust-m/Libraries/XMCLib/inc\xmc_rtc.h ****  * \par<b>Related APIs:</b><br>
 503:C:/Workspace/DAVE-4.4.2-64Bit/xmc1400-getstarted-optiga-trust-m/Libraries/XMCLib/inc\xmc_rtc.h ****  * XMC_RTC_SetTime(), XMC_RTC_GetTime()
 504:C:/Workspace/DAVE-4.4.2-64Bit/xmc1400-getstarted-optiga-trust-m/Libraries/XMCLib/inc\xmc_rtc.h ****  */     
 505:C:/Workspace/DAVE-4.4.2-64Bit/xmc1400-getstarted-optiga-trust-m/Libraries/XMCLib/inc\xmc_rtc.h **** void XMC_RTC_GetTimeStdFormat(struct tm *const stdtime);
 506:C:/Workspace/DAVE-4.4.2-64Bit/xmc1400-getstarted-optiga-trust-m/Libraries/XMCLib/inc\xmc_rtc.h **** 
 507:C:/Workspace/DAVE-4.4.2-64Bit/xmc1400-getstarted-optiga-trust-m/Libraries/XMCLib/inc\xmc_rtc.h **** /**
 508:C:/Workspace/DAVE-4.4.2-64Bit/xmc1400-getstarted-optiga-trust-m/Libraries/XMCLib/inc\xmc_rtc.h ****  * @param alarm Constant pointer to a constant ::XMC_RTC_ALARM_t structure containing the
 509:C:/Workspace/DAVE-4.4.2-64Bit/xmc1400-getstarted-optiga-trust-m/Libraries/XMCLib/inc\xmc_rtc.h ****  *                alarm time parameters alarm seconds, alarm minutes, alarm hours, alarm days, 
 510:C:/Workspace/DAVE-4.4.2-64Bit/xmc1400-getstarted-optiga-trust-m/Libraries/XMCLib/inc\xmc_rtc.h ****  *                alarm daysofweek, alarm month and alarm year.           
 511:C:/Workspace/DAVE-4.4.2-64Bit/xmc1400-getstarted-optiga-trust-m/Libraries/XMCLib/inc\xmc_rtc.h ****  * @return None
 512:C:/Workspace/DAVE-4.4.2-64Bit/xmc1400-getstarted-optiga-trust-m/Libraries/XMCLib/inc\xmc_rtc.h ****  *
 513:C:/Workspace/DAVE-4.4.2-64Bit/xmc1400-getstarted-optiga-trust-m/Libraries/XMCLib/inc\xmc_rtc.h ****  * \par<b>Description: </b><br>
 514:C:/Workspace/DAVE-4.4.2-64Bit/xmc1400-getstarted-optiga-trust-m/Libraries/XMCLib/inc\xmc_rtc.h ****  * Sets the RTC module alarm time value <br>
 515:C:/Workspace/DAVE-4.4.2-64Bit/xmc1400-getstarted-optiga-trust-m/Libraries/XMCLib/inc\xmc_rtc.h ****  *
 516:C:/Workspace/DAVE-4.4.2-64Bit/xmc1400-getstarted-optiga-trust-m/Libraries/XMCLib/inc\xmc_rtc.h ****  * \par
 517:C:/Workspace/DAVE-4.4.2-64Bit/xmc1400-getstarted-optiga-trust-m/Libraries/XMCLib/inc\xmc_rtc.h ****  * The function sets the ATIM0, ATIM1 registers with alarm time values. 
 518:C:/Workspace/DAVE-4.4.2-64Bit/xmc1400-getstarted-optiga-trust-m/Libraries/XMCLib/inc\xmc_rtc.h ****  * See the structure ::XMC_RTC_ALARM_t for the valid range of alarm time value parameters. <br>
 519:C:/Workspace/DAVE-4.4.2-64Bit/xmc1400-getstarted-optiga-trust-m/Libraries/XMCLib/inc\xmc_rtc.h ****  *
 520:C:/Workspace/DAVE-4.4.2-64Bit/xmc1400-getstarted-optiga-trust-m/Libraries/XMCLib/inc\xmc_rtc.h ****  * \par<b>Related APIs:</b><br>
 521:C:/Workspace/DAVE-4.4.2-64Bit/xmc1400-getstarted-optiga-trust-m/Libraries/XMCLib/inc\xmc_rtc.h ****  * XMC_RTC_GetAlarm()
 522:C:/Workspace/DAVE-4.4.2-64Bit/xmc1400-getstarted-optiga-trust-m/Libraries/XMCLib/inc\xmc_rtc.h ****  */     
 523:C:/Workspace/DAVE-4.4.2-64Bit/xmc1400-getstarted-optiga-trust-m/Libraries/XMCLib/inc\xmc_rtc.h **** void XMC_RTC_SetAlarm(const XMC_RTC_ALARM_t *const alarm);
 524:C:/Workspace/DAVE-4.4.2-64Bit/xmc1400-getstarted-optiga-trust-m/Libraries/XMCLib/inc\xmc_rtc.h **** 
 525:C:/Workspace/DAVE-4.4.2-64Bit/xmc1400-getstarted-optiga-trust-m/Libraries/XMCLib/inc\xmc_rtc.h **** /**
 526:C:/Workspace/DAVE-4.4.2-64Bit/xmc1400-getstarted-optiga-trust-m/Libraries/XMCLib/inc\xmc_rtc.h ****  * @param alarm Pointer to a constant ::XMC_RTC_ALARM_t structure containing the
 527:C:/Workspace/DAVE-4.4.2-64Bit/xmc1400-getstarted-optiga-trust-m/Libraries/XMCLib/inc\xmc_rtc.h ****  *             time parameters alarm seconds, alarm minutes, alarm hours, alarm days, 
 528:C:/Workspace/DAVE-4.4.2-64Bit/xmc1400-getstarted-optiga-trust-m/Libraries/XMCLib/inc\xmc_rtc.h ****  *             alarm daysofweek, alarm month and alarm year.           
 529:C:/Workspace/DAVE-4.4.2-64Bit/xmc1400-getstarted-optiga-trust-m/Libraries/XMCLib/inc\xmc_rtc.h ****  * @return None
 530:C:/Workspace/DAVE-4.4.2-64Bit/xmc1400-getstarted-optiga-trust-m/Libraries/XMCLib/inc\xmc_rtc.h ****  *
 531:C:/Workspace/DAVE-4.4.2-64Bit/xmc1400-getstarted-optiga-trust-m/Libraries/XMCLib/inc\xmc_rtc.h ****  * \par<b>Description: </b><br>
 532:C:/Workspace/DAVE-4.4.2-64Bit/xmc1400-getstarted-optiga-trust-m/Libraries/XMCLib/inc\xmc_rtc.h ****  * Gets the RTC module alarm time value <br>
 533:C:/Workspace/DAVE-4.4.2-64Bit/xmc1400-getstarted-optiga-trust-m/Libraries/XMCLib/inc\xmc_rtc.h ****  *
 534:C:/Workspace/DAVE-4.4.2-64Bit/xmc1400-getstarted-optiga-trust-m/Libraries/XMCLib/inc\xmc_rtc.h ****  * \par
 535:C:/Workspace/DAVE-4.4.2-64Bit/xmc1400-getstarted-optiga-trust-m/Libraries/XMCLib/inc\xmc_rtc.h ****  * The function gets the alarm time values from ATIM0, ATIM1 registers. 
 536:C:/Workspace/DAVE-4.4.2-64Bit/xmc1400-getstarted-optiga-trust-m/Libraries/XMCLib/inc\xmc_rtc.h ****  * See the structure ::XMC_RTC_ALARM_t for the valid range of alarm time value parameters. <br>
 537:C:/Workspace/DAVE-4.4.2-64Bit/xmc1400-getstarted-optiga-trust-m/Libraries/XMCLib/inc\xmc_rtc.h ****  *
 538:C:/Workspace/DAVE-4.4.2-64Bit/xmc1400-getstarted-optiga-trust-m/Libraries/XMCLib/inc\xmc_rtc.h ****  * \par<b>Related APIs:</b><br>
 539:C:/Workspace/DAVE-4.4.2-64Bit/xmc1400-getstarted-optiga-trust-m/Libraries/XMCLib/inc\xmc_rtc.h ****  * XMC_RTC_SetAlarm()
 540:C:/Workspace/DAVE-4.4.2-64Bit/xmc1400-getstarted-optiga-trust-m/Libraries/XMCLib/inc\xmc_rtc.h ****  */    
 541:C:/Workspace/DAVE-4.4.2-64Bit/xmc1400-getstarted-optiga-trust-m/Libraries/XMCLib/inc\xmc_rtc.h **** void XMC_RTC_GetAlarm(XMC_RTC_ALARM_t *const alarm);
 542:C:/Workspace/DAVE-4.4.2-64Bit/xmc1400-getstarted-optiga-trust-m/Libraries/XMCLib/inc\xmc_rtc.h **** 
 543:C:/Workspace/DAVE-4.4.2-64Bit/xmc1400-getstarted-optiga-trust-m/Libraries/XMCLib/inc\xmc_rtc.h **** /**
 544:C:/Workspace/DAVE-4.4.2-64Bit/xmc1400-getstarted-optiga-trust-m/Libraries/XMCLib/inc\xmc_rtc.h ****  * @param stdtime Pointer to a ::tm structure containing the time parameters alarm seconds,
 545:C:/Workspace/DAVE-4.4.2-64Bit/xmc1400-getstarted-optiga-trust-m/Libraries/XMCLib/inc\xmc_rtc.h ****  *                alarm minutes, alarm hours, alarm days, alarm daysofweek, alarm month,  
 546:C:/Workspace/DAVE-4.4.2-64Bit/xmc1400-getstarted-optiga-trust-m/Libraries/XMCLib/inc\xmc_rtc.h ****  *                alarm year(since 1900) and alarm days in a year in standard format.           
 547:C:/Workspace/DAVE-4.4.2-64Bit/xmc1400-getstarted-optiga-trust-m/Libraries/XMCLib/inc\xmc_rtc.h ****  * @return None
 548:C:/Workspace/DAVE-4.4.2-64Bit/xmc1400-getstarted-optiga-trust-m/Libraries/XMCLib/inc\xmc_rtc.h ****  *
 549:C:/Workspace/DAVE-4.4.2-64Bit/xmc1400-getstarted-optiga-trust-m/Libraries/XMCLib/inc\xmc_rtc.h ****  * \par<b>Description: </b><br>
 550:C:/Workspace/DAVE-4.4.2-64Bit/xmc1400-getstarted-optiga-trust-m/Libraries/XMCLib/inc\xmc_rtc.h ****  * Sets the RTC module alarm time value in standard format <br>
 551:C:/Workspace/DAVE-4.4.2-64Bit/xmc1400-getstarted-optiga-trust-m/Libraries/XMCLib/inc\xmc_rtc.h ****  *
 552:C:/Workspace/DAVE-4.4.2-64Bit/xmc1400-getstarted-optiga-trust-m/Libraries/XMCLib/inc\xmc_rtc.h ****  * \par
 553:C:/Workspace/DAVE-4.4.2-64Bit/xmc1400-getstarted-optiga-trust-m/Libraries/XMCLib/inc\xmc_rtc.h ****  * The function sets the alarm time values from ATIM0, ATIM1 registers. 
 554:C:/Workspace/DAVE-4.4.2-64Bit/xmc1400-getstarted-optiga-trust-m/Libraries/XMCLib/inc\xmc_rtc.h ****  *
 555:C:/Workspace/DAVE-4.4.2-64Bit/xmc1400-getstarted-optiga-trust-m/Libraries/XMCLib/inc\xmc_rtc.h ****  * \par<b>Related APIs:</b><br>
 556:C:/Workspace/DAVE-4.4.2-64Bit/xmc1400-getstarted-optiga-trust-m/Libraries/XMCLib/inc\xmc_rtc.h ****  * XMC_RTC_SetAlarm(), XMC_RTC_GetAlarm()
 557:C:/Workspace/DAVE-4.4.2-64Bit/xmc1400-getstarted-optiga-trust-m/Libraries/XMCLib/inc\xmc_rtc.h ****  */     
 558:C:/Workspace/DAVE-4.4.2-64Bit/xmc1400-getstarted-optiga-trust-m/Libraries/XMCLib/inc\xmc_rtc.h **** void XMC_RTC_SetAlarmStdFormat(const struct tm *const stdtime);
 559:C:/Workspace/DAVE-4.4.2-64Bit/xmc1400-getstarted-optiga-trust-m/Libraries/XMCLib/inc\xmc_rtc.h **** 
 560:C:/Workspace/DAVE-4.4.2-64Bit/xmc1400-getstarted-optiga-trust-m/Libraries/XMCLib/inc\xmc_rtc.h **** /**
 561:C:/Workspace/DAVE-4.4.2-64Bit/xmc1400-getstarted-optiga-trust-m/Libraries/XMCLib/inc\xmc_rtc.h ****  * @param stdtime Pointer to a constant ::tm structure containing the time parameters alarm seconds
 562:C:/Workspace/DAVE-4.4.2-64Bit/xmc1400-getstarted-optiga-trust-m/Libraries/XMCLib/inc\xmc_rtc.h ****  *                alarm minutes, alarm hours, alarm days, alarm daysofweek, alarm month,  
 563:C:/Workspace/DAVE-4.4.2-64Bit/xmc1400-getstarted-optiga-trust-m/Libraries/XMCLib/inc\xmc_rtc.h ****  *                alarm year(since 1900) and alarm days in a year in standard format.           
 564:C:/Workspace/DAVE-4.4.2-64Bit/xmc1400-getstarted-optiga-trust-m/Libraries/XMCLib/inc\xmc_rtc.h ****  * @return None
 565:C:/Workspace/DAVE-4.4.2-64Bit/xmc1400-getstarted-optiga-trust-m/Libraries/XMCLib/inc\xmc_rtc.h ****  *
 566:C:/Workspace/DAVE-4.4.2-64Bit/xmc1400-getstarted-optiga-trust-m/Libraries/XMCLib/inc\xmc_rtc.h ****  * \par<b>Description: </b><br>
 567:C:/Workspace/DAVE-4.4.2-64Bit/xmc1400-getstarted-optiga-trust-m/Libraries/XMCLib/inc\xmc_rtc.h ****  * Gets the RTC module alarm time value in standard format <br>
 568:C:/Workspace/DAVE-4.4.2-64Bit/xmc1400-getstarted-optiga-trust-m/Libraries/XMCLib/inc\xmc_rtc.h ****  *
 569:C:/Workspace/DAVE-4.4.2-64Bit/xmc1400-getstarted-optiga-trust-m/Libraries/XMCLib/inc\xmc_rtc.h ****  * \par
 570:C:/Workspace/DAVE-4.4.2-64Bit/xmc1400-getstarted-optiga-trust-m/Libraries/XMCLib/inc\xmc_rtc.h ****  * The function gets the alarm time values from ATIM0, ATIM1 registers. 
 571:C:/Workspace/DAVE-4.4.2-64Bit/xmc1400-getstarted-optiga-trust-m/Libraries/XMCLib/inc\xmc_rtc.h ****  * See the structure ::XMC_RTC_ALARM_t for the valid range of alarm time value parameters. <br>
 572:C:/Workspace/DAVE-4.4.2-64Bit/xmc1400-getstarted-optiga-trust-m/Libraries/XMCLib/inc\xmc_rtc.h ****  * For days the valid range is (1 - Actual days of month), year (since 1900) and 
 573:C:/Workspace/DAVE-4.4.2-64Bit/xmc1400-getstarted-optiga-trust-m/Libraries/XMCLib/inc\xmc_rtc.h ****  * daysinyear (0 -365).
 574:C:/Workspace/DAVE-4.4.2-64Bit/xmc1400-getstarted-optiga-trust-m/Libraries/XMCLib/inc\xmc_rtc.h ****  *
 575:C:/Workspace/DAVE-4.4.2-64Bit/xmc1400-getstarted-optiga-trust-m/Libraries/XMCLib/inc\xmc_rtc.h ****  * \par<b>Related APIs:</b><br>
 576:C:/Workspace/DAVE-4.4.2-64Bit/xmc1400-getstarted-optiga-trust-m/Libraries/XMCLib/inc\xmc_rtc.h ****  * XMC_RTC_SetAlarm(), XMC_RTC_GetAlarm()
 577:C:/Workspace/DAVE-4.4.2-64Bit/xmc1400-getstarted-optiga-trust-m/Libraries/XMCLib/inc\xmc_rtc.h ****  */     
 578:C:/Workspace/DAVE-4.4.2-64Bit/xmc1400-getstarted-optiga-trust-m/Libraries/XMCLib/inc\xmc_rtc.h **** void XMC_RTC_GetAlarmStdFormat(struct tm *const stdtime);
 579:C:/Workspace/DAVE-4.4.2-64Bit/xmc1400-getstarted-optiga-trust-m/Libraries/XMCLib/inc\xmc_rtc.h **** 
 580:C:/Workspace/DAVE-4.4.2-64Bit/xmc1400-getstarted-optiga-trust-m/Libraries/XMCLib/inc\xmc_rtc.h **** /**
 581:C:/Workspace/DAVE-4.4.2-64Bit/xmc1400-getstarted-optiga-trust-m/Libraries/XMCLib/inc\xmc_rtc.h ****  * @param event A valid RTC event (::XMC_RTC_EVENT_t) or a valid combination of
 582:C:/Workspace/DAVE-4.4.2-64Bit/xmc1400-getstarted-optiga-trust-m/Libraries/XMCLib/inc\xmc_rtc.h ****  *              logically OR'd events
 583:C:/Workspace/DAVE-4.4.2-64Bit/xmc1400-getstarted-optiga-trust-m/Libraries/XMCLib/inc\xmc_rtc.h ****  * @return None
 584:C:/Workspace/DAVE-4.4.2-64Bit/xmc1400-getstarted-optiga-trust-m/Libraries/XMCLib/inc\xmc_rtc.h ****  *
 585:C:/Workspace/DAVE-4.4.2-64Bit/xmc1400-getstarted-optiga-trust-m/Libraries/XMCLib/inc\xmc_rtc.h ****  * \par<b>Description: </b><br>
 586:C:/Workspace/DAVE-4.4.2-64Bit/xmc1400-getstarted-optiga-trust-m/Libraries/XMCLib/inc\xmc_rtc.h ****  * Enable RTC periodic and alarm event(s) <br>
 587:C:/Workspace/DAVE-4.4.2-64Bit/xmc1400-getstarted-optiga-trust-m/Libraries/XMCLib/inc\xmc_rtc.h ****  *
 588:C:/Workspace/DAVE-4.4.2-64Bit/xmc1400-getstarted-optiga-trust-m/Libraries/XMCLib/inc\xmc_rtc.h ****  * \par
 589:C:/Workspace/DAVE-4.4.2-64Bit/xmc1400-getstarted-optiga-trust-m/Libraries/XMCLib/inc\xmc_rtc.h ****  * The function sets the bitfields of MSKSR register to enable interrupt generation 
 590:C:/Workspace/DAVE-4.4.2-64Bit/xmc1400-getstarted-optiga-trust-m/Libraries/XMCLib/inc\xmc_rtc.h ****  * for requested RTC event(s). 
 591:C:/Workspace/DAVE-4.4.2-64Bit/xmc1400-getstarted-optiga-trust-m/Libraries/XMCLib/inc\xmc_rtc.h ****  * Setting the masking value for the event(s) containing in the ::XMC_RTC_EVENT_t leads 
 592:C:/Workspace/DAVE-4.4.2-64Bit/xmc1400-getstarted-optiga-trust-m/Libraries/XMCLib/inc\xmc_rtc.h ****  * to a generation of the interrupt.
 593:C:/Workspace/DAVE-4.4.2-64Bit/xmc1400-getstarted-optiga-trust-m/Libraries/XMCLib/inc\xmc_rtc.h ****  *
 594:C:/Workspace/DAVE-4.4.2-64Bit/xmc1400-getstarted-optiga-trust-m/Libraries/XMCLib/inc\xmc_rtc.h ****  * \par<b>Related APIs:</b><br>
 595:C:/Workspace/DAVE-4.4.2-64Bit/xmc1400-getstarted-optiga-trust-m/Libraries/XMCLib/inc\xmc_rtc.h ****  * XMC_RTC_DisableEvent()
 596:C:/Workspace/DAVE-4.4.2-64Bit/xmc1400-getstarted-optiga-trust-m/Libraries/XMCLib/inc\xmc_rtc.h ****  */
 597:C:/Workspace/DAVE-4.4.2-64Bit/xmc1400-getstarted-optiga-trust-m/Libraries/XMCLib/inc\xmc_rtc.h **** void XMC_RTC_EnableEvent(const uint32_t event);
 598:C:/Workspace/DAVE-4.4.2-64Bit/xmc1400-getstarted-optiga-trust-m/Libraries/XMCLib/inc\xmc_rtc.h **** 
 599:C:/Workspace/DAVE-4.4.2-64Bit/xmc1400-getstarted-optiga-trust-m/Libraries/XMCLib/inc\xmc_rtc.h **** /**
 600:C:/Workspace/DAVE-4.4.2-64Bit/xmc1400-getstarted-optiga-trust-m/Libraries/XMCLib/inc\xmc_rtc.h ****  * @param event A valid RTC event (::XMC_RTC_EVENT_t) or a valid combination of
 601:C:/Workspace/DAVE-4.4.2-64Bit/xmc1400-getstarted-optiga-trust-m/Libraries/XMCLib/inc\xmc_rtc.h ****  *              logically OR'd events
 602:C:/Workspace/DAVE-4.4.2-64Bit/xmc1400-getstarted-optiga-trust-m/Libraries/XMCLib/inc\xmc_rtc.h ****  * @return None
 603:C:/Workspace/DAVE-4.4.2-64Bit/xmc1400-getstarted-optiga-trust-m/Libraries/XMCLib/inc\xmc_rtc.h ****  *
 604:C:/Workspace/DAVE-4.4.2-64Bit/xmc1400-getstarted-optiga-trust-m/Libraries/XMCLib/inc\xmc_rtc.h ****  * \par<b>Description: </b><br>
 605:C:/Workspace/DAVE-4.4.2-64Bit/xmc1400-getstarted-optiga-trust-m/Libraries/XMCLib/inc\xmc_rtc.h ****  * Disable RTC periodic and alarm event(s) <br>
 606:C:/Workspace/DAVE-4.4.2-64Bit/xmc1400-getstarted-optiga-trust-m/Libraries/XMCLib/inc\xmc_rtc.h ****  *
 607:C:/Workspace/DAVE-4.4.2-64Bit/xmc1400-getstarted-optiga-trust-m/Libraries/XMCLib/inc\xmc_rtc.h ****  * \par
 608:C:/Workspace/DAVE-4.4.2-64Bit/xmc1400-getstarted-optiga-trust-m/Libraries/XMCLib/inc\xmc_rtc.h ****  * The function resets the bitfields of MSKSR register to disable interrupt generation 
 609:C:/Workspace/DAVE-4.4.2-64Bit/xmc1400-getstarted-optiga-trust-m/Libraries/XMCLib/inc\xmc_rtc.h ****  * for requested RTC event(s). 
 610:C:/Workspace/DAVE-4.4.2-64Bit/xmc1400-getstarted-optiga-trust-m/Libraries/XMCLib/inc\xmc_rtc.h ****  * Resetting the masking value for the the event(s) containing in the ::XMC_RTC_EVENT_t blocks 
 611:C:/Workspace/DAVE-4.4.2-64Bit/xmc1400-getstarted-optiga-trust-m/Libraries/XMCLib/inc\xmc_rtc.h ****  * the generation of the interrupt.
 612:C:/Workspace/DAVE-4.4.2-64Bit/xmc1400-getstarted-optiga-trust-m/Libraries/XMCLib/inc\xmc_rtc.h ****  * 
 613:C:/Workspace/DAVE-4.4.2-64Bit/xmc1400-getstarted-optiga-trust-m/Libraries/XMCLib/inc\xmc_rtc.h ****  * \par<b>Related APIs:</b><br>
 614:C:/Workspace/DAVE-4.4.2-64Bit/xmc1400-getstarted-optiga-trust-m/Libraries/XMCLib/inc\xmc_rtc.h ****  * XMC_RTC_EnableEvent()
 615:C:/Workspace/DAVE-4.4.2-64Bit/xmc1400-getstarted-optiga-trust-m/Libraries/XMCLib/inc\xmc_rtc.h ****  */
 616:C:/Workspace/DAVE-4.4.2-64Bit/xmc1400-getstarted-optiga-trust-m/Libraries/XMCLib/inc\xmc_rtc.h **** void XMC_RTC_DisableEvent(const uint32_t event);
 617:C:/Workspace/DAVE-4.4.2-64Bit/xmc1400-getstarted-optiga-trust-m/Libraries/XMCLib/inc\xmc_rtc.h **** 
 618:C:/Workspace/DAVE-4.4.2-64Bit/xmc1400-getstarted-optiga-trust-m/Libraries/XMCLib/inc\xmc_rtc.h **** /**
 619:C:/Workspace/DAVE-4.4.2-64Bit/xmc1400-getstarted-optiga-trust-m/Libraries/XMCLib/inc\xmc_rtc.h ****  * @param event A valid RTC event (::XMC_RTC_EVENT_t) or a valid combination of
 620:C:/Workspace/DAVE-4.4.2-64Bit/xmc1400-getstarted-optiga-trust-m/Libraries/XMCLib/inc\xmc_rtc.h ****  *              logically OR'd events
 621:C:/Workspace/DAVE-4.4.2-64Bit/xmc1400-getstarted-optiga-trust-m/Libraries/XMCLib/inc\xmc_rtc.h ****  * @return None
 622:C:/Workspace/DAVE-4.4.2-64Bit/xmc1400-getstarted-optiga-trust-m/Libraries/XMCLib/inc\xmc_rtc.h ****  *
 623:C:/Workspace/DAVE-4.4.2-64Bit/xmc1400-getstarted-optiga-trust-m/Libraries/XMCLib/inc\xmc_rtc.h ****  * \par<b>Description: </b><br>
 624:C:/Workspace/DAVE-4.4.2-64Bit/xmc1400-getstarted-optiga-trust-m/Libraries/XMCLib/inc\xmc_rtc.h ****  * Clears periodic and alarm event(s) status <br>
 625:C:/Workspace/DAVE-4.4.2-64Bit/xmc1400-getstarted-optiga-trust-m/Libraries/XMCLib/inc\xmc_rtc.h ****  *
 626:C:/Workspace/DAVE-4.4.2-64Bit/xmc1400-getstarted-optiga-trust-m/Libraries/XMCLib/inc\xmc_rtc.h ****  * \par
 627:C:/Workspace/DAVE-4.4.2-64Bit/xmc1400-getstarted-optiga-trust-m/Libraries/XMCLib/inc\xmc_rtc.h ****  * The function sets the bitfields of CLRSR register to clear status bits in RAWSTAT and STSSR regi
 628:C:/Workspace/DAVE-4.4.2-64Bit/xmc1400-getstarted-optiga-trust-m/Libraries/XMCLib/inc\xmc_rtc.h ****  * Setting the value for the the RTC event(s) containing in the ::XMC_RTC_EVENT_t clears the 
 629:C:/Workspace/DAVE-4.4.2-64Bit/xmc1400-getstarted-optiga-trust-m/Libraries/XMCLib/inc\xmc_rtc.h ****  * corresponding status bits in RAWSTAT and STSSR registers.
 630:C:/Workspace/DAVE-4.4.2-64Bit/xmc1400-getstarted-optiga-trust-m/Libraries/XMCLib/inc\xmc_rtc.h ****  * 
 631:C:/Workspace/DAVE-4.4.2-64Bit/xmc1400-getstarted-optiga-trust-m/Libraries/XMCLib/inc\xmc_rtc.h ****  * \par<b>Related APIs:</b><br>
 632:C:/Workspace/DAVE-4.4.2-64Bit/xmc1400-getstarted-optiga-trust-m/Libraries/XMCLib/inc\xmc_rtc.h ****  * XMC_RTC_GetEventStatus()
 633:C:/Workspace/DAVE-4.4.2-64Bit/xmc1400-getstarted-optiga-trust-m/Libraries/XMCLib/inc\xmc_rtc.h ****  */ 
 634:C:/Workspace/DAVE-4.4.2-64Bit/xmc1400-getstarted-optiga-trust-m/Libraries/XMCLib/inc\xmc_rtc.h **** void XMC_RTC_ClearEvent(const uint32_t event);
 635:C:/Workspace/DAVE-4.4.2-64Bit/xmc1400-getstarted-optiga-trust-m/Libraries/XMCLib/inc\xmc_rtc.h **** 
 636:C:/Workspace/DAVE-4.4.2-64Bit/xmc1400-getstarted-optiga-trust-m/Libraries/XMCLib/inc\xmc_rtc.h **** /**
 637:C:/Workspace/DAVE-4.4.2-64Bit/xmc1400-getstarted-optiga-trust-m/Libraries/XMCLib/inc\xmc_rtc.h ****  * @return None
 638:C:/Workspace/DAVE-4.4.2-64Bit/xmc1400-getstarted-optiga-trust-m/Libraries/XMCLib/inc\xmc_rtc.h ****  *
 639:C:/Workspace/DAVE-4.4.2-64Bit/xmc1400-getstarted-optiga-trust-m/Libraries/XMCLib/inc\xmc_rtc.h ****  * \par<b>Description: </b><br>
 640:C:/Workspace/DAVE-4.4.2-64Bit/xmc1400-getstarted-optiga-trust-m/Libraries/XMCLib/inc\xmc_rtc.h ****  * Gets the RTC periodic and alarm event(s) status <br>
 641:C:/Workspace/DAVE-4.4.2-64Bit/xmc1400-getstarted-optiga-trust-m/Libraries/XMCLib/inc\xmc_rtc.h ****  *
 642:C:/Workspace/DAVE-4.4.2-64Bit/xmc1400-getstarted-optiga-trust-m/Libraries/XMCLib/inc\xmc_rtc.h ****  * \par
 643:C:/Workspace/DAVE-4.4.2-64Bit/xmc1400-getstarted-optiga-trust-m/Libraries/XMCLib/inc\xmc_rtc.h ****  * The function reads the bitfields of STSSR register 
 644:C:/Workspace/DAVE-4.4.2-64Bit/xmc1400-getstarted-optiga-trust-m/Libraries/XMCLib/inc\xmc_rtc.h ****  * to get the status of RTC events. 
 645:C:/Workspace/DAVE-4.4.2-64Bit/xmc1400-getstarted-optiga-trust-m/Libraries/XMCLib/inc\xmc_rtc.h ****  * Reading the value of the register STSSR gives the status of the event(s) containing in the ::XMC
 646:C:/Workspace/DAVE-4.4.2-64Bit/xmc1400-getstarted-optiga-trust-m/Libraries/XMCLib/inc\xmc_rtc.h ****  * 
 647:C:/Workspace/DAVE-4.4.2-64Bit/xmc1400-getstarted-optiga-trust-m/Libraries/XMCLib/inc\xmc_rtc.h ****  * \par<b>Related APIs:</b><br>
 648:C:/Workspace/DAVE-4.4.2-64Bit/xmc1400-getstarted-optiga-trust-m/Libraries/XMCLib/inc\xmc_rtc.h ****  * XMC_RTC_ClearEvent()
 649:C:/Workspace/DAVE-4.4.2-64Bit/xmc1400-getstarted-optiga-trust-m/Libraries/XMCLib/inc\xmc_rtc.h ****  */
 650:C:/Workspace/DAVE-4.4.2-64Bit/xmc1400-getstarted-optiga-trust-m/Libraries/XMCLib/inc\xmc_rtc.h **** uint32_t XMC_RTC_GetEventStatus(void);
 651:C:/Workspace/DAVE-4.4.2-64Bit/xmc1400-getstarted-optiga-trust-m/Libraries/XMCLib/inc\xmc_rtc.h **** 
 652:C:/Workspace/DAVE-4.4.2-64Bit/xmc1400-getstarted-optiga-trust-m/Libraries/XMCLib/inc\xmc_rtc.h **** /**
 653:C:/Workspace/DAVE-4.4.2-64Bit/xmc1400-getstarted-optiga-trust-m/Libraries/XMCLib/inc\xmc_rtc.h ****  * @return bool true if RTC is running
 654:C:/Workspace/DAVE-4.4.2-64Bit/xmc1400-getstarted-optiga-trust-m/Libraries/XMCLib/inc\xmc_rtc.h ****  *              false if RTC is not running
 655:C:/Workspace/DAVE-4.4.2-64Bit/xmc1400-getstarted-optiga-trust-m/Libraries/XMCLib/inc\xmc_rtc.h ****  *
 656:C:/Workspace/DAVE-4.4.2-64Bit/xmc1400-getstarted-optiga-trust-m/Libraries/XMCLib/inc\xmc_rtc.h ****  * \par<b>Description: </b><br>
 657:C:/Workspace/DAVE-4.4.2-64Bit/xmc1400-getstarted-optiga-trust-m/Libraries/XMCLib/inc\xmc_rtc.h ****  * Checks the running status of the RTC <br>
 658:C:/Workspace/DAVE-4.4.2-64Bit/xmc1400-getstarted-optiga-trust-m/Libraries/XMCLib/inc\xmc_rtc.h ****  *
 659:C:/Workspace/DAVE-4.4.2-64Bit/xmc1400-getstarted-optiga-trust-m/Libraries/XMCLib/inc\xmc_rtc.h ****  * \par
 660:C:/Workspace/DAVE-4.4.2-64Bit/xmc1400-getstarted-optiga-trust-m/Libraries/XMCLib/inc\xmc_rtc.h ****  * The function reads the bitfield ENB of CTR register 
 661:C:/Workspace/DAVE-4.4.2-64Bit/xmc1400-getstarted-optiga-trust-m/Libraries/XMCLib/inc\xmc_rtc.h ****  * to get the running status of RTC. 
 662:C:/Workspace/DAVE-4.4.2-64Bit/xmc1400-getstarted-optiga-trust-m/Libraries/XMCLib/inc\xmc_rtc.h ****  *
 663:C:/Workspace/DAVE-4.4.2-64Bit/xmc1400-getstarted-optiga-trust-m/Libraries/XMCLib/inc\xmc_rtc.h ****  * \par<b>Related APIs:</b><br>
 664:C:/Workspace/DAVE-4.4.2-64Bit/xmc1400-getstarted-optiga-trust-m/Libraries/XMCLib/inc\xmc_rtc.h ****  * XMC_RTC_Start(), XMC_RTC_Stop()
 665:C:/Workspace/DAVE-4.4.2-64Bit/xmc1400-getstarted-optiga-trust-m/Libraries/XMCLib/inc\xmc_rtc.h ****  */ 
 666:C:/Workspace/DAVE-4.4.2-64Bit/xmc1400-getstarted-optiga-trust-m/Libraries/XMCLib/inc\xmc_rtc.h **** __STATIC_INLINE bool XMC_RTC_IsRunning(void)
 667:C:/Workspace/DAVE-4.4.2-64Bit/xmc1400-getstarted-optiga-trust-m/Libraries/XMCLib/inc\xmc_rtc.h **** {
 668:C:/Workspace/DAVE-4.4.2-64Bit/xmc1400-getstarted-optiga-trust-m/Libraries/XMCLib/inc\xmc_rtc.h ****   return (bool)(RTC->CTR & RTC_CTR_ENB_Msk);
 243              	 .loc 2 668 0
 244 0002 104C     	 ldr r4,.L22
 245 0004 6368     	 ldr r3,[r4,#4]
 246              	.LBE13:
 247              	.LBE12:
  76:../Libraries/XMCLib/src/xmc1_rtc.c ****   {
 248              	 .loc 1 76 0
 249 0006 DB07     	 lsl r3,r3,#31
 250 0008 1AD4     	 bmi .L17
 251 000a 051C     	 mov r5,r0
  78:../Libraries/XMCLib/src/xmc1_rtc.c ****     {
 252              	 .loc 1 78 0
 253 000c FFF7FEFF 	 bl XMC_RTC_IsEnabled
 254              	.LVL12:
 255 0010 0028     	 cmp r0,#0
 256 0012 01D1     	 bne .L18
  80:../Libraries/XMCLib/src/xmc1_rtc.c **** 	}
 257              	 .loc 1 80 0
 258 0014 FFF7FEFF 	 bl XMC_RTC_Enable
 259              	.LVL13:
 260              	.L18:
  83:../Libraries/XMCLib/src/xmc1_rtc.c **** 
 261              	 .loc 1 83 0
 262 0018 288A     	 ldrh r0,[r5,#16]
 263 001a FFF7FEFF 	 bl XMC_RTC_SetPrescaler
 264              	.LVL14:
 265              	.L19:
  85:../Libraries/XMCLib/src/xmc1_rtc.c **** 	{
 266              	 .loc 1 85 0 discriminator 1
 267 001e 1822     	 mov r2,#24
 268              	.LBB14:
 269              	.LBB15:
 270              	 .file 3 "C:/Workspace/DAVE-4.4.2-64Bit/xmc1400-getstarted-optiga-trust-m/Libraries/XMCLib/inc/xmc_scu.h"
   1:C:/Workspace/DAVE-4.4.2-64Bit/xmc1400-getstarted-optiga-trust-m/Libraries/XMCLib/inc\xmc_scu.h **** /**
   2:C:/Workspace/DAVE-4.4.2-64Bit/xmc1400-getstarted-optiga-trust-m/Libraries/XMCLib/inc\xmc_scu.h ****  * @file xmc_scu.h
   3:C:/Workspace/DAVE-4.4.2-64Bit/xmc1400-getstarted-optiga-trust-m/Libraries/XMCLib/inc\xmc_scu.h ****  * @date 2016-03-09
   4:C:/Workspace/DAVE-4.4.2-64Bit/xmc1400-getstarted-optiga-trust-m/Libraries/XMCLib/inc\xmc_scu.h ****  *
   5:C:/Workspace/DAVE-4.4.2-64Bit/xmc1400-getstarted-optiga-trust-m/Libraries/XMCLib/inc\xmc_scu.h ****  * @cond
   6:C:/Workspace/DAVE-4.4.2-64Bit/xmc1400-getstarted-optiga-trust-m/Libraries/XMCLib/inc\xmc_scu.h ****  **************************************************************************************************
   7:C:/Workspace/DAVE-4.4.2-64Bit/xmc1400-getstarted-optiga-trust-m/Libraries/XMCLib/inc\xmc_scu.h ****  * XMClib v2.1.24 - XMC Peripheral Driver Library 
   8:C:/Workspace/DAVE-4.4.2-64Bit/xmc1400-getstarted-optiga-trust-m/Libraries/XMCLib/inc\xmc_scu.h ****  *
   9:C:/Workspace/DAVE-4.4.2-64Bit/xmc1400-getstarted-optiga-trust-m/Libraries/XMCLib/inc\xmc_scu.h ****  * Copyright (c) 2015-2019, Infineon Technologies AG
  10:C:/Workspace/DAVE-4.4.2-64Bit/xmc1400-getstarted-optiga-trust-m/Libraries/XMCLib/inc\xmc_scu.h ****  * All rights reserved.                        
  11:C:/Workspace/DAVE-4.4.2-64Bit/xmc1400-getstarted-optiga-trust-m/Libraries/XMCLib/inc\xmc_scu.h ****  *                                             
  12:C:/Workspace/DAVE-4.4.2-64Bit/xmc1400-getstarted-optiga-trust-m/Libraries/XMCLib/inc\xmc_scu.h ****  * Redistribution and use in source and binary forms, with or without modification,are permitted pr
  13:C:/Workspace/DAVE-4.4.2-64Bit/xmc1400-getstarted-optiga-trust-m/Libraries/XMCLib/inc\xmc_scu.h ****  * following conditions are met:   
  14:C:/Workspace/DAVE-4.4.2-64Bit/xmc1400-getstarted-optiga-trust-m/Libraries/XMCLib/inc\xmc_scu.h ****  *                                                                              
  15:C:/Workspace/DAVE-4.4.2-64Bit/xmc1400-getstarted-optiga-trust-m/Libraries/XMCLib/inc\xmc_scu.h ****  * Redistributions of source code must retain the above copyright notice, this list of conditions a
  16:C:/Workspace/DAVE-4.4.2-64Bit/xmc1400-getstarted-optiga-trust-m/Libraries/XMCLib/inc\xmc_scu.h ****  * disclaimer.                        
  17:C:/Workspace/DAVE-4.4.2-64Bit/xmc1400-getstarted-optiga-trust-m/Libraries/XMCLib/inc\xmc_scu.h ****  * 
  18:C:/Workspace/DAVE-4.4.2-64Bit/xmc1400-getstarted-optiga-trust-m/Libraries/XMCLib/inc\xmc_scu.h ****  * Redistributions in binary form must reproduce the above copyright notice, this list of condition
  19:C:/Workspace/DAVE-4.4.2-64Bit/xmc1400-getstarted-optiga-trust-m/Libraries/XMCLib/inc\xmc_scu.h ****  * disclaimer in the documentation and/or other materials provided with the distribution.          
  20:C:/Workspace/DAVE-4.4.2-64Bit/xmc1400-getstarted-optiga-trust-m/Libraries/XMCLib/inc\xmc_scu.h ****  * 
  21:C:/Workspace/DAVE-4.4.2-64Bit/xmc1400-getstarted-optiga-trust-m/Libraries/XMCLib/inc\xmc_scu.h ****  * Neither the name of the copyright holders nor the names of its contributors may be used to endor
  22:C:/Workspace/DAVE-4.4.2-64Bit/xmc1400-getstarted-optiga-trust-m/Libraries/XMCLib/inc\xmc_scu.h ****  * products derived from this software without specific prior written permission.                  
  23:C:/Workspace/DAVE-4.4.2-64Bit/xmc1400-getstarted-optiga-trust-m/Libraries/XMCLib/inc\xmc_scu.h ****  *                                                                              
  24:C:/Workspace/DAVE-4.4.2-64Bit/xmc1400-getstarted-optiga-trust-m/Libraries/XMCLib/inc\xmc_scu.h ****  * THIS SOFTWARE IS PROVIDED BY THE COPYRIGHT HOLDERS AND CONTRIBUTORS "AS IS" AND ANY EXPRESS OR I
  25:C:/Workspace/DAVE-4.4.2-64Bit/xmc1400-getstarted-optiga-trust-m/Libraries/XMCLib/inc\xmc_scu.h ****  * INCLUDING, BUT NOT LIMITED TO, THE IMPLIED WARRANTIES OF MERCHANTABILITY AND FITNESS FOR A PARTI
  26:C:/Workspace/DAVE-4.4.2-64Bit/xmc1400-getstarted-optiga-trust-m/Libraries/XMCLib/inc\xmc_scu.h ****  * DISCLAIMED. IN NO EVENT SHALL THE COPYRIGHT HOLDER OR CONTRIBUTORS BE LIABLE  FOR ANY DIRECT, IN
  27:C:/Workspace/DAVE-4.4.2-64Bit/xmc1400-getstarted-optiga-trust-m/Libraries/XMCLib/inc\xmc_scu.h ****  * SPECIAL, EXEMPLARY, OR CONSEQUENTIAL DAMAGES (INCLUDING, BUT NOT LIMITED TO, PROCUREMENT OF SUBS
  28:C:/Workspace/DAVE-4.4.2-64Bit/xmc1400-getstarted-optiga-trust-m/Libraries/XMCLib/inc\xmc_scu.h ****  * SERVICES; LOSS OF USE, DATA, OR PROFITS; OR BUSINESS INTERRUPTION) HOWEVER CAUSED AND ON ANY THE
  29:C:/Workspace/DAVE-4.4.2-64Bit/xmc1400-getstarted-optiga-trust-m/Libraries/XMCLib/inc\xmc_scu.h ****  * WHETHER IN CONTRACT, STRICT LIABILITY,OR TORT (INCLUDING NEGLIGENCE OR OTHERWISE) ARISING IN ANY
  30:C:/Workspace/DAVE-4.4.2-64Bit/xmc1400-getstarted-optiga-trust-m/Libraries/XMCLib/inc\xmc_scu.h ****  * OF THIS SOFTWARE, EVEN IF ADVISED OF THE POSSIBILITY OF SUCH DAMAGE.                            
  31:C:/Workspace/DAVE-4.4.2-64Bit/xmc1400-getstarted-optiga-trust-m/Libraries/XMCLib/inc\xmc_scu.h ****  *                                                                              
  32:C:/Workspace/DAVE-4.4.2-64Bit/xmc1400-getstarted-optiga-trust-m/Libraries/XMCLib/inc\xmc_scu.h ****  * To improve the quality of the software, users are encouraged to share modifications, enhancement
  33:C:/Workspace/DAVE-4.4.2-64Bit/xmc1400-getstarted-optiga-trust-m/Libraries/XMCLib/inc\xmc_scu.h ****  * Infineon Technologies AG dave@infineon.com).                                                    
  34:C:/Workspace/DAVE-4.4.2-64Bit/xmc1400-getstarted-optiga-trust-m/Libraries/XMCLib/inc\xmc_scu.h ****  **************************************************************************************************
  35:C:/Workspace/DAVE-4.4.2-64Bit/xmc1400-getstarted-optiga-trust-m/Libraries/XMCLib/inc\xmc_scu.h ****  *
  36:C:/Workspace/DAVE-4.4.2-64Bit/xmc1400-getstarted-optiga-trust-m/Libraries/XMCLib/inc\xmc_scu.h ****  * Change History
  37:C:/Workspace/DAVE-4.4.2-64Bit/xmc1400-getstarted-optiga-trust-m/Libraries/XMCLib/inc\xmc_scu.h ****  * --------------
  38:C:/Workspace/DAVE-4.4.2-64Bit/xmc1400-getstarted-optiga-trust-m/Libraries/XMCLib/inc\xmc_scu.h ****  *
  39:C:/Workspace/DAVE-4.4.2-64Bit/xmc1400-getstarted-optiga-trust-m/Libraries/XMCLib/inc\xmc_scu.h ****  * 2015-02-20:
  40:C:/Workspace/DAVE-4.4.2-64Bit/xmc1400-getstarted-optiga-trust-m/Libraries/XMCLib/inc\xmc_scu.h ****  *     - Initial <br>
  41:C:/Workspace/DAVE-4.4.2-64Bit/xmc1400-getstarted-optiga-trust-m/Libraries/XMCLib/inc\xmc_scu.h ****  *
  42:C:/Workspace/DAVE-4.4.2-64Bit/xmc1400-getstarted-optiga-trust-m/Libraries/XMCLib/inc\xmc_scu.h ****  * 2015-05-20:
  43:C:/Workspace/DAVE-4.4.2-64Bit/xmc1400-getstarted-optiga-trust-m/Libraries/XMCLib/inc\xmc_scu.h ****  *     - Documentation improved <br>
  44:C:/Workspace/DAVE-4.4.2-64Bit/xmc1400-getstarted-optiga-trust-m/Libraries/XMCLib/inc\xmc_scu.h ****  *     - XMC_ASSERT() hanging issues have fixed for XMC4 devices. <br>
  45:C:/Workspace/DAVE-4.4.2-64Bit/xmc1400-getstarted-optiga-trust-m/Libraries/XMCLib/inc\xmc_scu.h ****  *
  46:C:/Workspace/DAVE-4.4.2-64Bit/xmc1400-getstarted-optiga-trust-m/Libraries/XMCLib/inc\xmc_scu.h ****  * 2015-06-20:
  47:C:/Workspace/DAVE-4.4.2-64Bit/xmc1400-getstarted-optiga-trust-m/Libraries/XMCLib/inc\xmc_scu.h ****  *     - Removed version macros and declaration of GetDriverVersion API
  48:C:/Workspace/DAVE-4.4.2-64Bit/xmc1400-getstarted-optiga-trust-m/Libraries/XMCLib/inc\xmc_scu.h ****  *     - Removed STATIC_INLINE property for the below APIs and declared as void
  49:C:/Workspace/DAVE-4.4.2-64Bit/xmc1400-getstarted-optiga-trust-m/Libraries/XMCLib/inc\xmc_scu.h ****  *       XMC_SCU_INTERRUPT_EnableEvent, XMC_SCU_INTERRUPT_DisableEvent,
  50:C:/Workspace/DAVE-4.4.2-64Bit/xmc1400-getstarted-optiga-trust-m/Libraries/XMCLib/inc\xmc_scu.h ****  *       XMC_SCU_INTERRUPT_TriggerEvent, XMC_SCU_INTERUPT_GetEventStatus,
  51:C:/Workspace/DAVE-4.4.2-64Bit/xmc1400-getstarted-optiga-trust-m/Libraries/XMCLib/inc\xmc_scu.h ****  *       XMC_SCU_INTERUPT_ClearEventStatus
  52:C:/Workspace/DAVE-4.4.2-64Bit/xmc1400-getstarted-optiga-trust-m/Libraries/XMCLib/inc\xmc_scu.h ****  *
  53:C:/Workspace/DAVE-4.4.2-64Bit/xmc1400-getstarted-optiga-trust-m/Libraries/XMCLib/inc\xmc_scu.h ****  * 2015-11-30:
  54:C:/Workspace/DAVE-4.4.2-64Bit/xmc1400-getstarted-optiga-trust-m/Libraries/XMCLib/inc\xmc_scu.h ****  *     - Documentation improved <br>
  55:C:/Workspace/DAVE-4.4.2-64Bit/xmc1400-getstarted-optiga-trust-m/Libraries/XMCLib/inc\xmc_scu.h ****  *      
  56:C:/Workspace/DAVE-4.4.2-64Bit/xmc1400-getstarted-optiga-trust-m/Libraries/XMCLib/inc\xmc_scu.h ****  * 2016-03-09:
  57:C:/Workspace/DAVE-4.4.2-64Bit/xmc1400-getstarted-optiga-trust-m/Libraries/XMCLib/inc\xmc_scu.h ****  *     - Optimization of write only registers
  58:C:/Workspace/DAVE-4.4.2-64Bit/xmc1400-getstarted-optiga-trust-m/Libraries/XMCLib/inc\xmc_scu.h ****  *      
  59:C:/Workspace/DAVE-4.4.2-64Bit/xmc1400-getstarted-optiga-trust-m/Libraries/XMCLib/inc\xmc_scu.h ****  * @endcond 
  60:C:/Workspace/DAVE-4.4.2-64Bit/xmc1400-getstarted-optiga-trust-m/Libraries/XMCLib/inc\xmc_scu.h ****  *
  61:C:/Workspace/DAVE-4.4.2-64Bit/xmc1400-getstarted-optiga-trust-m/Libraries/XMCLib/inc\xmc_scu.h ****  */
  62:C:/Workspace/DAVE-4.4.2-64Bit/xmc1400-getstarted-optiga-trust-m/Libraries/XMCLib/inc\xmc_scu.h **** #ifndef XMC_SCU_H
  63:C:/Workspace/DAVE-4.4.2-64Bit/xmc1400-getstarted-optiga-trust-m/Libraries/XMCLib/inc\xmc_scu.h **** #define XMC_SCU_H
  64:C:/Workspace/DAVE-4.4.2-64Bit/xmc1400-getstarted-optiga-trust-m/Libraries/XMCLib/inc\xmc_scu.h ****  
  65:C:/Workspace/DAVE-4.4.2-64Bit/xmc1400-getstarted-optiga-trust-m/Libraries/XMCLib/inc\xmc_scu.h **** /**************************************************************************************************
  66:C:/Workspace/DAVE-4.4.2-64Bit/xmc1400-getstarted-optiga-trust-m/Libraries/XMCLib/inc\xmc_scu.h ****  * HEADER FILES
  67:C:/Workspace/DAVE-4.4.2-64Bit/xmc1400-getstarted-optiga-trust-m/Libraries/XMCLib/inc\xmc_scu.h ****  **************************************************************************************************
  68:C:/Workspace/DAVE-4.4.2-64Bit/xmc1400-getstarted-optiga-trust-m/Libraries/XMCLib/inc\xmc_scu.h **** #include <xmc_common.h>
  69:C:/Workspace/DAVE-4.4.2-64Bit/xmc1400-getstarted-optiga-trust-m/Libraries/XMCLib/inc\xmc_scu.h **** 
  70:C:/Workspace/DAVE-4.4.2-64Bit/xmc1400-getstarted-optiga-trust-m/Libraries/XMCLib/inc\xmc_scu.h **** /**
  71:C:/Workspace/DAVE-4.4.2-64Bit/xmc1400-getstarted-optiga-trust-m/Libraries/XMCLib/inc\xmc_scu.h ****  * @addtogroup XMClib XMC Peripheral Library
  72:C:/Workspace/DAVE-4.4.2-64Bit/xmc1400-getstarted-optiga-trust-m/Libraries/XMCLib/inc\xmc_scu.h ****  * @{
  73:C:/Workspace/DAVE-4.4.2-64Bit/xmc1400-getstarted-optiga-trust-m/Libraries/XMCLib/inc\xmc_scu.h ****  */
  74:C:/Workspace/DAVE-4.4.2-64Bit/xmc1400-getstarted-optiga-trust-m/Libraries/XMCLib/inc\xmc_scu.h ****  
  75:C:/Workspace/DAVE-4.4.2-64Bit/xmc1400-getstarted-optiga-trust-m/Libraries/XMCLib/inc\xmc_scu.h **** /**
  76:C:/Workspace/DAVE-4.4.2-64Bit/xmc1400-getstarted-optiga-trust-m/Libraries/XMCLib/inc\xmc_scu.h ****  * @addtogroup SCU
  77:C:/Workspace/DAVE-4.4.2-64Bit/xmc1400-getstarted-optiga-trust-m/Libraries/XMCLib/inc\xmc_scu.h ****  * @brief System Control Unit(SCU) driver for XMC microcontroller family.
  78:C:/Workspace/DAVE-4.4.2-64Bit/xmc1400-getstarted-optiga-trust-m/Libraries/XMCLib/inc\xmc_scu.h ****  *
  79:C:/Workspace/DAVE-4.4.2-64Bit/xmc1400-getstarted-optiga-trust-m/Libraries/XMCLib/inc\xmc_scu.h ****  * System control unit is the SoC power, reset and a clock manager with additional responsibility o
  80:C:/Workspace/DAVE-4.4.2-64Bit/xmc1400-getstarted-optiga-trust-m/Libraries/XMCLib/inc\xmc_scu.h ****  * providing system stability protection and other auxiliary functions.<br>
  81:C:/Workspace/DAVE-4.4.2-64Bit/xmc1400-getstarted-optiga-trust-m/Libraries/XMCLib/inc\xmc_scu.h ****  * SCU provides the following features,
  82:C:/Workspace/DAVE-4.4.2-64Bit/xmc1400-getstarted-optiga-trust-m/Libraries/XMCLib/inc\xmc_scu.h ****  * -# Power control
  83:C:/Workspace/DAVE-4.4.2-64Bit/xmc1400-getstarted-optiga-trust-m/Libraries/XMCLib/inc\xmc_scu.h ****  \if XMC4 
  84:C:/Workspace/DAVE-4.4.2-64Bit/xmc1400-getstarted-optiga-trust-m/Libraries/XMCLib/inc\xmc_scu.h ****  * -# Hibernate control 
  85:C:/Workspace/DAVE-4.4.2-64Bit/xmc1400-getstarted-optiga-trust-m/Libraries/XMCLib/inc\xmc_scu.h ****  \endif
  86:C:/Workspace/DAVE-4.4.2-64Bit/xmc1400-getstarted-optiga-trust-m/Libraries/XMCLib/inc\xmc_scu.h ****  * -# Reset control
  87:C:/Workspace/DAVE-4.4.2-64Bit/xmc1400-getstarted-optiga-trust-m/Libraries/XMCLib/inc\xmc_scu.h ****  * -# Clock control
  88:C:/Workspace/DAVE-4.4.2-64Bit/xmc1400-getstarted-optiga-trust-m/Libraries/XMCLib/inc\xmc_scu.h ****  * -# Miscellaneous control(boot mode, system interrupts etc.)<br><br>
  89:C:/Workspace/DAVE-4.4.2-64Bit/xmc1400-getstarted-optiga-trust-m/Libraries/XMCLib/inc\xmc_scu.h ****  *
  90:C:/Workspace/DAVE-4.4.2-64Bit/xmc1400-getstarted-optiga-trust-m/Libraries/XMCLib/inc\xmc_scu.h ****  * The SCU driver is divided in to clock control logic, reset control logic, system interrupt contr
  91:C:/Workspace/DAVE-4.4.2-64Bit/xmc1400-getstarted-optiga-trust-m/Libraries/XMCLib/inc\xmc_scu.h ****  \if XMC4
  92:C:/Workspace/DAVE-4.4.2-64Bit/xmc1400-getstarted-optiga-trust-m/Libraries/XMCLib/inc\xmc_scu.h ****  * , hibernate control logic, trap control logic, parity control logic 
  93:C:/Workspace/DAVE-4.4.2-64Bit/xmc1400-getstarted-optiga-trust-m/Libraries/XMCLib/inc\xmc_scu.h ****  \endif
  94:C:/Workspace/DAVE-4.4.2-64Bit/xmc1400-getstarted-optiga-trust-m/Libraries/XMCLib/inc\xmc_scu.h ****  * and miscellaneous control logic.<br>
  95:C:/Workspace/DAVE-4.4.2-64Bit/xmc1400-getstarted-optiga-trust-m/Libraries/XMCLib/inc\xmc_scu.h ****  *
  96:C:/Workspace/DAVE-4.4.2-64Bit/xmc1400-getstarted-optiga-trust-m/Libraries/XMCLib/inc\xmc_scu.h ****  * Clock driver features:
  97:C:/Workspace/DAVE-4.4.2-64Bit/xmc1400-getstarted-optiga-trust-m/Libraries/XMCLib/inc\xmc_scu.h ****  * -# Allows clock configuration using the structure XMC_SCU_CLOCK_CONFIG_t and API XMC_SCU_CLOCK_I
  98:C:/Workspace/DAVE-4.4.2-64Bit/xmc1400-getstarted-optiga-trust-m/Libraries/XMCLib/inc\xmc_scu.h ****  \if XMC4
  99:C:/Workspace/DAVE-4.4.2-64Bit/xmc1400-getstarted-optiga-trust-m/Libraries/XMCLib/inc\xmc_scu.h ****  * -# Provides structure XMC_SCU_CLOCK_SYSPLL_CONFIG_t for configuring the system PLL
 100:C:/Workspace/DAVE-4.4.2-64Bit/xmc1400-getstarted-optiga-trust-m/Libraries/XMCLib/inc\xmc_scu.h ****  * -# Allows selection of clock source for system PLL, XMC_SCU_CLOCK_GetSystemPllClockSource()
 101:C:/Workspace/DAVE-4.4.2-64Bit/xmc1400-getstarted-optiga-trust-m/Libraries/XMCLib/inc\xmc_scu.h ****  * -# Provides APIs for configuring different module clock frequencies XMC_SCU_CLOCK_SetWdtClockDiv
 102:C:/Workspace/DAVE-4.4.2-64Bit/xmc1400-getstarted-optiga-trust-m/Libraries/XMCLib/inc\xmc_scu.h ****  * -# Allows selection of clock source for external output, XMC_SCU_CLOCK_SetExternalOutputClockSou
 103:C:/Workspace/DAVE-4.4.2-64Bit/xmc1400-getstarted-optiga-trust-m/Libraries/XMCLib/inc\xmc_scu.h ****  * -# Provides APIs for enabling external high power oscillator and ultra low power oscillator, XMC
 104:C:/Workspace/DAVE-4.4.2-64Bit/xmc1400-getstarted-optiga-trust-m/Libraries/XMCLib/inc\xmc_scu.h ****  * -# Provides APIs for getting various clock frequencies XMC_SCU_CLOCK_GetPeripheralClockFrequency
 105:C:/Workspace/DAVE-4.4.2-64Bit/xmc1400-getstarted-optiga-trust-m/Libraries/XMCLib/inc\xmc_scu.h ****  XMC_SCU_CLOCK_GetCpuClockFrequency(), XMC_SCU_CLOCK_GetSystemClockFrequency()<br>
 106:C:/Workspace/DAVE-4.4.2-64Bit/xmc1400-getstarted-optiga-trust-m/Libraries/XMCLib/inc\xmc_scu.h ****  \endif
 107:C:/Workspace/DAVE-4.4.2-64Bit/xmc1400-getstarted-optiga-trust-m/Libraries/XMCLib/inc\xmc_scu.h ****  \if XMC1
 108:C:/Workspace/DAVE-4.4.2-64Bit/xmc1400-getstarted-optiga-trust-m/Libraries/XMCLib/inc\xmc_scu.h ****  * -# Allows selection of peripheral clock frequency, XMC_SCU_CLOCK_SetFastPeripheralClockSource()
 109:C:/Workspace/DAVE-4.4.2-64Bit/xmc1400-getstarted-optiga-trust-m/Libraries/XMCLib/inc\xmc_scu.h ****  * -# Provides API to get the peripheral clock frequency, XMC_SCU_CLOCK_GetFastPeripheralClockFrequ
 110:C:/Workspace/DAVE-4.4.2-64Bit/xmc1400-getstarted-optiga-trust-m/Libraries/XMCLib/inc\xmc_scu.h ****  \endif
 111:C:/Workspace/DAVE-4.4.2-64Bit/xmc1400-getstarted-optiga-trust-m/Libraries/XMCLib/inc\xmc_scu.h ****  *
 112:C:/Workspace/DAVE-4.4.2-64Bit/xmc1400-getstarted-optiga-trust-m/Libraries/XMCLib/inc\xmc_scu.h ****  * Reset driver features:
 113:C:/Workspace/DAVE-4.4.2-64Bit/xmc1400-getstarted-optiga-trust-m/Libraries/XMCLib/inc\xmc_scu.h ****  \if XMC4
 114:C:/Workspace/DAVE-4.4.2-64Bit/xmc1400-getstarted-optiga-trust-m/Libraries/XMCLib/inc\xmc_scu.h ****  * -# Allows to handle peripheral reset XMC_SCU_RESET_AssertPeripheralReset(), XMC_SCU_RESET_Deasse
 115:C:/Workspace/DAVE-4.4.2-64Bit/xmc1400-getstarted-optiga-trust-m/Libraries/XMCLib/inc\xmc_scu.h ****  * -# Allows configuration of NMI generation for selected events, XMC_SCU_INTERRUPT_EnableNmiReques
 116:C:/Workspace/DAVE-4.4.2-64Bit/xmc1400-getstarted-optiga-trust-m/Libraries/XMCLib/inc\xmc_scu.h ****  \endif
 117:C:/Workspace/DAVE-4.4.2-64Bit/xmc1400-getstarted-optiga-trust-m/Libraries/XMCLib/inc\xmc_scu.h ****  \if XMC1
 118:C:/Workspace/DAVE-4.4.2-64Bit/xmc1400-getstarted-optiga-trust-m/Libraries/XMCLib/inc\xmc_scu.h ****  * -# Allows to trigger device reset XMC_SCU_RESET_AssertMasterReset()
 119:C:/Workspace/DAVE-4.4.2-64Bit/xmc1400-getstarted-optiga-trust-m/Libraries/XMCLib/inc\xmc_scu.h ****  * -# Allows to configure multiple sources for reset, XMC_SCU_RESET_EnableResetRequest()
 120:C:/Workspace/DAVE-4.4.2-64Bit/xmc1400-getstarted-optiga-trust-m/Libraries/XMCLib/inc\xmc_scu.h ****  \endif <br>
 121:C:/Workspace/DAVE-4.4.2-64Bit/xmc1400-getstarted-optiga-trust-m/Libraries/XMCLib/inc\xmc_scu.h ****  *
 122:C:/Workspace/DAVE-4.4.2-64Bit/xmc1400-getstarted-optiga-trust-m/Libraries/XMCLib/inc\xmc_scu.h ****  * Interrupt driver features:
 123:C:/Workspace/DAVE-4.4.2-64Bit/xmc1400-getstarted-optiga-trust-m/Libraries/XMCLib/inc\xmc_scu.h ****  * -# Provides APIs for enabling/ disabling interrupt event generation XMC_SCU_INTERRUPT_EnableEven
 124:C:/Workspace/DAVE-4.4.2-64Bit/xmc1400-getstarted-optiga-trust-m/Libraries/XMCLib/inc\xmc_scu.h ****  XMC_SCU_INTERRUPT_DisableEvent()
 125:C:/Workspace/DAVE-4.4.2-64Bit/xmc1400-getstarted-optiga-trust-m/Libraries/XMCLib/inc\xmc_scu.h ****  * -# Provides API for registering callback function for events XMC_SCU_INTERRUPT_SetEventHandler()
 126:C:/Workspace/DAVE-4.4.2-64Bit/xmc1400-getstarted-optiga-trust-m/Libraries/XMCLib/inc\xmc_scu.h ****  *
 127:C:/Workspace/DAVE-4.4.2-64Bit/xmc1400-getstarted-optiga-trust-m/Libraries/XMCLib/inc\xmc_scu.h ****  \if XMC4
 128:C:/Workspace/DAVE-4.4.2-64Bit/xmc1400-getstarted-optiga-trust-m/Libraries/XMCLib/inc\xmc_scu.h ****  * Hibernate driver features:
 129:C:/Workspace/DAVE-4.4.2-64Bit/xmc1400-getstarted-optiga-trust-m/Libraries/XMCLib/inc\xmc_scu.h ****  * -# Allows configuration of hibernate domain XMC_SCU_HIB_EnableHibernateDomain(), XMC_SCU_HIB_Dis
 130:C:/Workspace/DAVE-4.4.2-64Bit/xmc1400-getstarted-optiga-trust-m/Libraries/XMCLib/inc\xmc_scu.h ****  * -# Allows selection of standby clock source, XMC_SCU_HIB_SetStandbyClockSource()
 131:C:/Workspace/DAVE-4.4.2-64Bit/xmc1400-getstarted-optiga-trust-m/Libraries/XMCLib/inc\xmc_scu.h ****  * -# Allows selection of RTC clock source, XMC_SCU_HIB_SetRtcClockSource()
 132:C:/Workspace/DAVE-4.4.2-64Bit/xmc1400-getstarted-optiga-trust-m/Libraries/XMCLib/inc\xmc_scu.h ****  * -# Provides API for enabling slow internal clock used for backup clock, XMC_SCU_HIB_EnableIntern
 133:C:/Workspace/DAVE-4.4.2-64Bit/xmc1400-getstarted-optiga-trust-m/Libraries/XMCLib/inc\xmc_scu.h ****  *
 134:C:/Workspace/DAVE-4.4.2-64Bit/xmc1400-getstarted-optiga-trust-m/Libraries/XMCLib/inc\xmc_scu.h ****  * Trap driver features:
 135:C:/Workspace/DAVE-4.4.2-64Bit/xmc1400-getstarted-optiga-trust-m/Libraries/XMCLib/inc\xmc_scu.h ****  * -# Allows handling of trap XMC_SCU_TRAP_Enable(), XMC_SCU_TRAP_GetStatus(), XMC_SCU_TRAP_Trigger
 136:C:/Workspace/DAVE-4.4.2-64Bit/xmc1400-getstarted-optiga-trust-m/Libraries/XMCLib/inc\xmc_scu.h ****  *
 137:C:/Workspace/DAVE-4.4.2-64Bit/xmc1400-getstarted-optiga-trust-m/Libraries/XMCLib/inc\xmc_scu.h ****  * Parity driver features:
 138:C:/Workspace/DAVE-4.4.2-64Bit/xmc1400-getstarted-optiga-trust-m/Libraries/XMCLib/inc\xmc_scu.h ****  * -# Parity error generated by on-chip RAM can be monitored, XMC_SCU_PARITY_Enable(), XMC_SCU_PARI
 139:C:/Workspace/DAVE-4.4.2-64Bit/xmc1400-getstarted-optiga-trust-m/Libraries/XMCLib/inc\xmc_scu.h ****  * -# Allows configuration of trap generation on detection of parity error, XMC_SCU_PARITY_EnableTr
 140:C:/Workspace/DAVE-4.4.2-64Bit/xmc1400-getstarted-optiga-trust-m/Libraries/XMCLib/inc\xmc_scu.h ****  *
 141:C:/Workspace/DAVE-4.4.2-64Bit/xmc1400-getstarted-optiga-trust-m/Libraries/XMCLib/inc\xmc_scu.h ****  * Power driver features:
 142:C:/Workspace/DAVE-4.4.2-64Bit/xmc1400-getstarted-optiga-trust-m/Libraries/XMCLib/inc\xmc_scu.h ****  * -# Allows to power the USB module XMC_SCU_POWER_EnableUsb(), XMC_SCU_POWER_DisableUsb()
 143:C:/Workspace/DAVE-4.4.2-64Bit/xmc1400-getstarted-optiga-trust-m/Libraries/XMCLib/inc\xmc_scu.h ****  \endif
 144:C:/Workspace/DAVE-4.4.2-64Bit/xmc1400-getstarted-optiga-trust-m/Libraries/XMCLib/inc\xmc_scu.h ****  *
 145:C:/Workspace/DAVE-4.4.2-64Bit/xmc1400-getstarted-optiga-trust-m/Libraries/XMCLib/inc\xmc_scu.h ****  * Miscellaneous features:
 146:C:/Workspace/DAVE-4.4.2-64Bit/xmc1400-getstarted-optiga-trust-m/Libraries/XMCLib/inc\xmc_scu.h ****  * -# Allows to trigger multiple capture compare unit(CCU) channels to be started together XMC_SCU_
 147:C:/Workspace/DAVE-4.4.2-64Bit/xmc1400-getstarted-optiga-trust-m/Libraries/XMCLib/inc\xmc_scu.h ****  \if XMC4
 148:C:/Workspace/DAVE-4.4.2-64Bit/xmc1400-getstarted-optiga-trust-m/Libraries/XMCLib/inc\xmc_scu.h ****  * -# Enables configuration of out of range comparator (ORC) XMC_SCU_EnableOutOfRangeComparator()
 149:C:/Workspace/DAVE-4.4.2-64Bit/xmc1400-getstarted-optiga-trust-m/Libraries/XMCLib/inc\xmc_scu.h ****  * -# Enables configuration of die temperature sensor XMC_SCU_EnableTemperatureSensor(), XMC_SCU_Ca
 150:C:/Workspace/DAVE-4.4.2-64Bit/xmc1400-getstarted-optiga-trust-m/Libraries/XMCLib/inc\xmc_scu.h ****  * -# Enables configuration of device boot mode XMC_SCU_SetBootMode()<br>
 151:C:/Workspace/DAVE-4.4.2-64Bit/xmc1400-getstarted-optiga-trust-m/Libraries/XMCLib/inc\xmc_scu.h ****  \endif
 152:C:/Workspace/DAVE-4.4.2-64Bit/xmc1400-getstarted-optiga-trust-m/Libraries/XMCLib/inc\xmc_scu.h ****  \if XMC1
 153:C:/Workspace/DAVE-4.4.2-64Bit/xmc1400-getstarted-optiga-trust-m/Libraries/XMCLib/inc\xmc_scu.h ****  * -# Enables configuration of die temperature sensor XMC_SCU_StartTempMeasurement(), XMC_SCU_SetRa
 154:C:/Workspace/DAVE-4.4.2-64Bit/xmc1400-getstarted-optiga-trust-m/Libraries/XMCLib/inc\xmc_scu.h ****  * -# Allows configuring supply monitor unit using the structure XMC_SCU_SUPPLYMONITOR_t and API XM
 155:C:/Workspace/DAVE-4.4.2-64Bit/xmc1400-getstarted-optiga-trust-m/Libraries/XMCLib/inc\xmc_scu.h ****  * -# Allows handling of protected bits XMC_SCU_LockProtectedBits(), XMC_SCU_UnlockProtectedBits()<
 156:C:/Workspace/DAVE-4.4.2-64Bit/xmc1400-getstarted-optiga-trust-m/Libraries/XMCLib/inc\xmc_scu.h ****  \endif
 157:C:/Workspace/DAVE-4.4.2-64Bit/xmc1400-getstarted-optiga-trust-m/Libraries/XMCLib/inc\xmc_scu.h ****  * @{
 158:C:/Workspace/DAVE-4.4.2-64Bit/xmc1400-getstarted-optiga-trust-m/Libraries/XMCLib/inc\xmc_scu.h ****  */
 159:C:/Workspace/DAVE-4.4.2-64Bit/xmc1400-getstarted-optiga-trust-m/Libraries/XMCLib/inc\xmc_scu.h ****  
 160:C:/Workspace/DAVE-4.4.2-64Bit/xmc1400-getstarted-optiga-trust-m/Libraries/XMCLib/inc\xmc_scu.h **** /**************************************************************************************************
 161:C:/Workspace/DAVE-4.4.2-64Bit/xmc1400-getstarted-optiga-trust-m/Libraries/XMCLib/inc\xmc_scu.h ****  * MACROS
 162:C:/Workspace/DAVE-4.4.2-64Bit/xmc1400-getstarted-optiga-trust-m/Libraries/XMCLib/inc\xmc_scu.h ****  **************************************************************************************************
 163:C:/Workspace/DAVE-4.4.2-64Bit/xmc1400-getstarted-optiga-trust-m/Libraries/XMCLib/inc\xmc_scu.h **** 
 164:C:/Workspace/DAVE-4.4.2-64Bit/xmc1400-getstarted-optiga-trust-m/Libraries/XMCLib/inc\xmc_scu.h **** /**************************************************************************************************
 165:C:/Workspace/DAVE-4.4.2-64Bit/xmc1400-getstarted-optiga-trust-m/Libraries/XMCLib/inc\xmc_scu.h ****  * ENUMS
 166:C:/Workspace/DAVE-4.4.2-64Bit/xmc1400-getstarted-optiga-trust-m/Libraries/XMCLib/inc\xmc_scu.h ****  **************************************************************************************************
 167:C:/Workspace/DAVE-4.4.2-64Bit/xmc1400-getstarted-optiga-trust-m/Libraries/XMCLib/inc\xmc_scu.h **** /**
 168:C:/Workspace/DAVE-4.4.2-64Bit/xmc1400-getstarted-optiga-trust-m/Libraries/XMCLib/inc\xmc_scu.h ****  *  Defines the status of SCU API execution, used to verify the SCU related API calls.
 169:C:/Workspace/DAVE-4.4.2-64Bit/xmc1400-getstarted-optiga-trust-m/Libraries/XMCLib/inc\xmc_scu.h ****  */
 170:C:/Workspace/DAVE-4.4.2-64Bit/xmc1400-getstarted-optiga-trust-m/Libraries/XMCLib/inc\xmc_scu.h **** typedef enum XMC_SCU_STATUS 
 171:C:/Workspace/DAVE-4.4.2-64Bit/xmc1400-getstarted-optiga-trust-m/Libraries/XMCLib/inc\xmc_scu.h **** {
 172:C:/Workspace/DAVE-4.4.2-64Bit/xmc1400-getstarted-optiga-trust-m/Libraries/XMCLib/inc\xmc_scu.h ****   XMC_SCU_STATUS_OK   = 0UL, /**< SCU related operation successfully completed.*/
 173:C:/Workspace/DAVE-4.4.2-64Bit/xmc1400-getstarted-optiga-trust-m/Libraries/XMCLib/inc\xmc_scu.h ****   XMC_SCU_STATUS_ERROR,      /**< SCU related operation failed. When API cannot fulfill request, th
 174:C:/Workspace/DAVE-4.4.2-64Bit/xmc1400-getstarted-optiga-trust-m/Libraries/XMCLib/inc\xmc_scu.h ****   XMC_SCU_STATUS_BUSY,       /**< Cannot execute the SCU related operation request because
 175:C:/Workspace/DAVE-4.4.2-64Bit/xmc1400-getstarted-optiga-trust-m/Libraries/XMCLib/inc\xmc_scu.h ****                                   another operation is in progress. \a XMC_SCU_STATUS_BUSY is retur
 176:C:/Workspace/DAVE-4.4.2-64Bit/xmc1400-getstarted-optiga-trust-m/Libraries/XMCLib/inc\xmc_scu.h ****                                   processing another request. */
 177:C:/Workspace/DAVE-4.4.2-64Bit/xmc1400-getstarted-optiga-trust-m/Libraries/XMCLib/inc\xmc_scu.h **** } XMC_SCU_STATUS_t;
 178:C:/Workspace/DAVE-4.4.2-64Bit/xmc1400-getstarted-optiga-trust-m/Libraries/XMCLib/inc\xmc_scu.h **** 
 179:C:/Workspace/DAVE-4.4.2-64Bit/xmc1400-getstarted-optiga-trust-m/Libraries/XMCLib/inc\xmc_scu.h **** 
 180:C:/Workspace/DAVE-4.4.2-64Bit/xmc1400-getstarted-optiga-trust-m/Libraries/XMCLib/inc\xmc_scu.h **** /**************************************************************************************************
 181:C:/Workspace/DAVE-4.4.2-64Bit/xmc1400-getstarted-optiga-trust-m/Libraries/XMCLib/inc\xmc_scu.h ****  * DATA TYPES
 182:C:/Workspace/DAVE-4.4.2-64Bit/xmc1400-getstarted-optiga-trust-m/Libraries/XMCLib/inc\xmc_scu.h ****  **************************************************************************************************
 183:C:/Workspace/DAVE-4.4.2-64Bit/xmc1400-getstarted-optiga-trust-m/Libraries/XMCLib/inc\xmc_scu.h **** 
 184:C:/Workspace/DAVE-4.4.2-64Bit/xmc1400-getstarted-optiga-trust-m/Libraries/XMCLib/inc\xmc_scu.h **** /**
 185:C:/Workspace/DAVE-4.4.2-64Bit/xmc1400-getstarted-optiga-trust-m/Libraries/XMCLib/inc\xmc_scu.h ****  * Function pointer type used for registering callback functions on SCU event occurrence.
 186:C:/Workspace/DAVE-4.4.2-64Bit/xmc1400-getstarted-optiga-trust-m/Libraries/XMCLib/inc\xmc_scu.h ****  */
 187:C:/Workspace/DAVE-4.4.2-64Bit/xmc1400-getstarted-optiga-trust-m/Libraries/XMCLib/inc\xmc_scu.h **** typedef void (*XMC_SCU_INTERRUPT_EVENT_HANDLER_t)(void);
 188:C:/Workspace/DAVE-4.4.2-64Bit/xmc1400-getstarted-optiga-trust-m/Libraries/XMCLib/inc\xmc_scu.h **** 
 189:C:/Workspace/DAVE-4.4.2-64Bit/xmc1400-getstarted-optiga-trust-m/Libraries/XMCLib/inc\xmc_scu.h **** /**************************************************************************************************
 190:C:/Workspace/DAVE-4.4.2-64Bit/xmc1400-getstarted-optiga-trust-m/Libraries/XMCLib/inc\xmc_scu.h ****  * DEVICE EXTENSIONS
 191:C:/Workspace/DAVE-4.4.2-64Bit/xmc1400-getstarted-optiga-trust-m/Libraries/XMCLib/inc\xmc_scu.h ****  **************************************************************************************************
 192:C:/Workspace/DAVE-4.4.2-64Bit/xmc1400-getstarted-optiga-trust-m/Libraries/XMCLib/inc\xmc_scu.h **** 
 193:C:/Workspace/DAVE-4.4.2-64Bit/xmc1400-getstarted-optiga-trust-m/Libraries/XMCLib/inc\xmc_scu.h **** #if (UC_FAMILY == XMC1)
 194:C:/Workspace/DAVE-4.4.2-64Bit/xmc1400-getstarted-optiga-trust-m/Libraries/XMCLib/inc\xmc_scu.h **** #include <xmc1_scu.h>
 195:C:/Workspace/DAVE-4.4.2-64Bit/xmc1400-getstarted-optiga-trust-m/Libraries/XMCLib/inc\xmc_scu.h **** #elif (UC_FAMILY == XMC4)
 196:C:/Workspace/DAVE-4.4.2-64Bit/xmc1400-getstarted-optiga-trust-m/Libraries/XMCLib/inc\xmc_scu.h **** #include <xmc4_scu.h>
 197:C:/Workspace/DAVE-4.4.2-64Bit/xmc1400-getstarted-optiga-trust-m/Libraries/XMCLib/inc\xmc_scu.h **** #else
 198:C:/Workspace/DAVE-4.4.2-64Bit/xmc1400-getstarted-optiga-trust-m/Libraries/XMCLib/inc\xmc_scu.h **** #error "Unspecified chipset"
 199:C:/Workspace/DAVE-4.4.2-64Bit/xmc1400-getstarted-optiga-trust-m/Libraries/XMCLib/inc\xmc_scu.h **** #endif
 200:C:/Workspace/DAVE-4.4.2-64Bit/xmc1400-getstarted-optiga-trust-m/Libraries/XMCLib/inc\xmc_scu.h **** 
 201:C:/Workspace/DAVE-4.4.2-64Bit/xmc1400-getstarted-optiga-trust-m/Libraries/XMCLib/inc\xmc_scu.h **** /**************************************************************************************************
 202:C:/Workspace/DAVE-4.4.2-64Bit/xmc1400-getstarted-optiga-trust-m/Libraries/XMCLib/inc\xmc_scu.h ****  * API Prototypes
 203:C:/Workspace/DAVE-4.4.2-64Bit/xmc1400-getstarted-optiga-trust-m/Libraries/XMCLib/inc\xmc_scu.h ****  **************************************************************************************************
 204:C:/Workspace/DAVE-4.4.2-64Bit/xmc1400-getstarted-optiga-trust-m/Libraries/XMCLib/inc\xmc_scu.h **** 
 205:C:/Workspace/DAVE-4.4.2-64Bit/xmc1400-getstarted-optiga-trust-m/Libraries/XMCLib/inc\xmc_scu.h **** #ifdef __cplusplus
 206:C:/Workspace/DAVE-4.4.2-64Bit/xmc1400-getstarted-optiga-trust-m/Libraries/XMCLib/inc\xmc_scu.h **** extern "C" {
 207:C:/Workspace/DAVE-4.4.2-64Bit/xmc1400-getstarted-optiga-trust-m/Libraries/XMCLib/inc\xmc_scu.h **** #endif
 208:C:/Workspace/DAVE-4.4.2-64Bit/xmc1400-getstarted-optiga-trust-m/Libraries/XMCLib/inc\xmc_scu.h **** 
 209:C:/Workspace/DAVE-4.4.2-64Bit/xmc1400-getstarted-optiga-trust-m/Libraries/XMCLib/inc\xmc_scu.h **** 
 210:C:/Workspace/DAVE-4.4.2-64Bit/xmc1400-getstarted-optiga-trust-m/Libraries/XMCLib/inc\xmc_scu.h **** /**
 211:C:/Workspace/DAVE-4.4.2-64Bit/xmc1400-getstarted-optiga-trust-m/Libraries/XMCLib/inc\xmc_scu.h ****  *
 212:C:/Workspace/DAVE-4.4.2-64Bit/xmc1400-getstarted-optiga-trust-m/Libraries/XMCLib/inc\xmc_scu.h ****  * @param trigger    CCU slices to be triggered synchronously via software. The value is a bitmask 
 213:C:/Workspace/DAVE-4.4.2-64Bit/xmc1400-getstarted-optiga-trust-m/Libraries/XMCLib/inc\xmc_scu.h ****  *                    in the register CCUCON. <br>
 214:C:/Workspace/DAVE-4.4.2-64Bit/xmc1400-getstarted-optiga-trust-m/Libraries/XMCLib/inc\xmc_scu.h ****  *                    \b Range: Use type @ref XMC_SCU_CCU_TRIGGER_t for bitmask of individual CCU s
 215:C:/Workspace/DAVE-4.4.2-64Bit/xmc1400-getstarted-optiga-trust-m/Libraries/XMCLib/inc\xmc_scu.h ****  *                    combined using \a OR operation.
 216:C:/Workspace/DAVE-4.4.2-64Bit/xmc1400-getstarted-optiga-trust-m/Libraries/XMCLib/inc\xmc_scu.h ****  *
 217:C:/Workspace/DAVE-4.4.2-64Bit/xmc1400-getstarted-optiga-trust-m/Libraries/XMCLib/inc\xmc_scu.h ****  * @return None
 218:C:/Workspace/DAVE-4.4.2-64Bit/xmc1400-getstarted-optiga-trust-m/Libraries/XMCLib/inc\xmc_scu.h ****  *
 219:C:/Workspace/DAVE-4.4.2-64Bit/xmc1400-getstarted-optiga-trust-m/Libraries/XMCLib/inc\xmc_scu.h ****  * \par<b>Description</b><br>
 220:C:/Workspace/DAVE-4.4.2-64Bit/xmc1400-getstarted-optiga-trust-m/Libraries/XMCLib/inc\xmc_scu.h ****  * Generates active edge(low to high) trigger for multiple CCU units at the same time.\n\n
 221:C:/Workspace/DAVE-4.4.2-64Bit/xmc1400-getstarted-optiga-trust-m/Libraries/XMCLib/inc\xmc_scu.h ****  * Before executing this API, all the required CCU timers should configure external start.
 222:C:/Workspace/DAVE-4.4.2-64Bit/xmc1400-getstarted-optiga-trust-m/Libraries/XMCLib/inc\xmc_scu.h ****  * The edge of the start signal should be selected as active edge.
 223:C:/Workspace/DAVE-4.4.2-64Bit/xmc1400-getstarted-optiga-trust-m/Libraries/XMCLib/inc\xmc_scu.h ****  * The input signal for the CCU slice should be selected as SCU input.
 224:C:/Workspace/DAVE-4.4.2-64Bit/xmc1400-getstarted-optiga-trust-m/Libraries/XMCLib/inc\xmc_scu.h ****  * The above mentioned configurations can be made using the CCU LLD API XMC_CCU4_SLICE_StartConfig(
 225:C:/Workspace/DAVE-4.4.2-64Bit/xmc1400-getstarted-optiga-trust-m/Libraries/XMCLib/inc\xmc_scu.h ****  * CCU timer slice should be started using XMC_CCU4_SLICE_StartTimer() before triggering 
 226:C:/Workspace/DAVE-4.4.2-64Bit/xmc1400-getstarted-optiga-trust-m/Libraries/XMCLib/inc\xmc_scu.h ****  * the timer using this API.<BR>
 227:C:/Workspace/DAVE-4.4.2-64Bit/xmc1400-getstarted-optiga-trust-m/Libraries/XMCLib/inc\xmc_scu.h ****  * \par<b>Related APIs:</b><BR>
 228:C:/Workspace/DAVE-4.4.2-64Bit/xmc1400-getstarted-optiga-trust-m/Libraries/XMCLib/inc\xmc_scu.h ****  * XMC_CCU4_SLICE_StartConfig(), XMC_CCU4_SLICE_SetInput(), XMC_SCU_SetCcuTriggerLow()\n\n\n
 229:C:/Workspace/DAVE-4.4.2-64Bit/xmc1400-getstarted-optiga-trust-m/Libraries/XMCLib/inc\xmc_scu.h ****  */
 230:C:/Workspace/DAVE-4.4.2-64Bit/xmc1400-getstarted-optiga-trust-m/Libraries/XMCLib/inc\xmc_scu.h **** __STATIC_INLINE void XMC_SCU_SetCcuTriggerHigh(const uint32_t trigger)
 231:C:/Workspace/DAVE-4.4.2-64Bit/xmc1400-getstarted-optiga-trust-m/Libraries/XMCLib/inc\xmc_scu.h **** {
 232:C:/Workspace/DAVE-4.4.2-64Bit/xmc1400-getstarted-optiga-trust-m/Libraries/XMCLib/inc\xmc_scu.h ****   SCU_GENERAL->CCUCON |= (uint32_t)trigger;
 233:C:/Workspace/DAVE-4.4.2-64Bit/xmc1400-getstarted-optiga-trust-m/Libraries/XMCLib/inc\xmc_scu.h **** }
 234:C:/Workspace/DAVE-4.4.2-64Bit/xmc1400-getstarted-optiga-trust-m/Libraries/XMCLib/inc\xmc_scu.h **** 
 235:C:/Workspace/DAVE-4.4.2-64Bit/xmc1400-getstarted-optiga-trust-m/Libraries/XMCLib/inc\xmc_scu.h **** /**
 236:C:/Workspace/DAVE-4.4.2-64Bit/xmc1400-getstarted-optiga-trust-m/Libraries/XMCLib/inc\xmc_scu.h ****  *
 237:C:/Workspace/DAVE-4.4.2-64Bit/xmc1400-getstarted-optiga-trust-m/Libraries/XMCLib/inc\xmc_scu.h ****  * @param trigger  CCU slices to be triggered synchronously via software. The value is a bitmask of
 238:C:/Workspace/DAVE-4.4.2-64Bit/xmc1400-getstarted-optiga-trust-m/Libraries/XMCLib/inc\xmc_scu.h ****  *                    in the register CCUCON. <br>
 239:C:/Workspace/DAVE-4.4.2-64Bit/xmc1400-getstarted-optiga-trust-m/Libraries/XMCLib/inc\xmc_scu.h ****  *                    \b Range: Use type @ref XMC_SCU_CCU_TRIGGER_t for bitmask of individual CCU s
 240:C:/Workspace/DAVE-4.4.2-64Bit/xmc1400-getstarted-optiga-trust-m/Libraries/XMCLib/inc\xmc_scu.h ****  *                    combined using \a OR operation.
 241:C:/Workspace/DAVE-4.4.2-64Bit/xmc1400-getstarted-optiga-trust-m/Libraries/XMCLib/inc\xmc_scu.h ****  *
 242:C:/Workspace/DAVE-4.4.2-64Bit/xmc1400-getstarted-optiga-trust-m/Libraries/XMCLib/inc\xmc_scu.h ****  * @return None
 243:C:/Workspace/DAVE-4.4.2-64Bit/xmc1400-getstarted-optiga-trust-m/Libraries/XMCLib/inc\xmc_scu.h ****  *
 244:C:/Workspace/DAVE-4.4.2-64Bit/xmc1400-getstarted-optiga-trust-m/Libraries/XMCLib/inc\xmc_scu.h ****  * \par<b>Description</b><br>
 245:C:/Workspace/DAVE-4.4.2-64Bit/xmc1400-getstarted-optiga-trust-m/Libraries/XMCLib/inc\xmc_scu.h ****  * Generates passive edge(high to low) trigger for multiple CCU units at the same time.\n\n
 246:C:/Workspace/DAVE-4.4.2-64Bit/xmc1400-getstarted-optiga-trust-m/Libraries/XMCLib/inc\xmc_scu.h ****  * Before executing this API, all the required CCU timers should configure external start.
 247:C:/Workspace/DAVE-4.4.2-64Bit/xmc1400-getstarted-optiga-trust-m/Libraries/XMCLib/inc\xmc_scu.h ****  * The edge of the start signal should be selected as passive edge.
 248:C:/Workspace/DAVE-4.4.2-64Bit/xmc1400-getstarted-optiga-trust-m/Libraries/XMCLib/inc\xmc_scu.h ****  * The input signal for the CCU slice should be selected as SCU input.
 249:C:/Workspace/DAVE-4.4.2-64Bit/xmc1400-getstarted-optiga-trust-m/Libraries/XMCLib/inc\xmc_scu.h ****  * The above mentioned configurations can be made using the CCU LLD API XMC_CCU4_SLICE_StartConfig(
 250:C:/Workspace/DAVE-4.4.2-64Bit/xmc1400-getstarted-optiga-trust-m/Libraries/XMCLib/inc\xmc_scu.h ****  * CCU timer slice should be started using XMC_CCU4_SLICE_StartTimer() before triggering 
 251:C:/Workspace/DAVE-4.4.2-64Bit/xmc1400-getstarted-optiga-trust-m/Libraries/XMCLib/inc\xmc_scu.h ****  * the timer using this API.<BR>
 252:C:/Workspace/DAVE-4.4.2-64Bit/xmc1400-getstarted-optiga-trust-m/Libraries/XMCLib/inc\xmc_scu.h ****  * \par<b>Related APIs:</b><BR>
 253:C:/Workspace/DAVE-4.4.2-64Bit/xmc1400-getstarted-optiga-trust-m/Libraries/XMCLib/inc\xmc_scu.h ****  * XMC_CCU4_SLICE_StartConfig(), XMC_CCU4_SLICE_SetInput(), XMC_SCU_SetCcuTriggerHigh()\n\n\n
 254:C:/Workspace/DAVE-4.4.2-64Bit/xmc1400-getstarted-optiga-trust-m/Libraries/XMCLib/inc\xmc_scu.h ****  */
 255:C:/Workspace/DAVE-4.4.2-64Bit/xmc1400-getstarted-optiga-trust-m/Libraries/XMCLib/inc\xmc_scu.h **** __STATIC_INLINE void XMC_SCU_SetCcuTriggerLow(const uint32_t trigger)
 256:C:/Workspace/DAVE-4.4.2-64Bit/xmc1400-getstarted-optiga-trust-m/Libraries/XMCLib/inc\xmc_scu.h **** {
 257:C:/Workspace/DAVE-4.4.2-64Bit/xmc1400-getstarted-optiga-trust-m/Libraries/XMCLib/inc\xmc_scu.h ****   SCU_GENERAL->CCUCON &= (uint32_t)~trigger;
 258:C:/Workspace/DAVE-4.4.2-64Bit/xmc1400-getstarted-optiga-trust-m/Libraries/XMCLib/inc\xmc_scu.h **** }
 259:C:/Workspace/DAVE-4.4.2-64Bit/xmc1400-getstarted-optiga-trust-m/Libraries/XMCLib/inc\xmc_scu.h **** 
 260:C:/Workspace/DAVE-4.4.2-64Bit/xmc1400-getstarted-optiga-trust-m/Libraries/XMCLib/inc\xmc_scu.h **** /**
 261:C:/Workspace/DAVE-4.4.2-64Bit/xmc1400-getstarted-optiga-trust-m/Libraries/XMCLib/inc\xmc_scu.h ****  *
 262:C:/Workspace/DAVE-4.4.2-64Bit/xmc1400-getstarted-optiga-trust-m/Libraries/XMCLib/inc\xmc_scu.h ****  * @param config Pointer to structure holding the clock prescaler values and divider values for 
 263:C:/Workspace/DAVE-4.4.2-64Bit/xmc1400-getstarted-optiga-trust-m/Libraries/XMCLib/inc\xmc_scu.h ****  *                configuring clock generators and clock tree.\n
 264:C:/Workspace/DAVE-4.4.2-64Bit/xmc1400-getstarted-optiga-trust-m/Libraries/XMCLib/inc\xmc_scu.h ****  *                \b Range: Configure the members of structure @ref XMC_SCU_CLOCK_CONFIG_t for vari
 265:C:/Workspace/DAVE-4.4.2-64Bit/xmc1400-getstarted-optiga-trust-m/Libraries/XMCLib/inc\xmc_scu.h ****  *                parameters of clock setup.
 266:C:/Workspace/DAVE-4.4.2-64Bit/xmc1400-getstarted-optiga-trust-m/Libraries/XMCLib/inc\xmc_scu.h ****  *
 267:C:/Workspace/DAVE-4.4.2-64Bit/xmc1400-getstarted-optiga-trust-m/Libraries/XMCLib/inc\xmc_scu.h ****  * @return None
 268:C:/Workspace/DAVE-4.4.2-64Bit/xmc1400-getstarted-optiga-trust-m/Libraries/XMCLib/inc\xmc_scu.h ****  *
 269:C:/Workspace/DAVE-4.4.2-64Bit/xmc1400-getstarted-optiga-trust-m/Libraries/XMCLib/inc\xmc_scu.h ****  * \par<b>Description</b><br>
 270:C:/Workspace/DAVE-4.4.2-64Bit/xmc1400-getstarted-optiga-trust-m/Libraries/XMCLib/inc\xmc_scu.h ****  * Initializes clock generators and clock tree.\n\n
 271:C:/Workspace/DAVE-4.4.2-64Bit/xmc1400-getstarted-optiga-trust-m/Libraries/XMCLib/inc\xmc_scu.h ****  * \if XMC1
 272:C:/Workspace/DAVE-4.4.2-64Bit/xmc1400-getstarted-optiga-trust-m/Libraries/XMCLib/inc\xmc_scu.h ****  * Peripheral clock and system clock are configured based on the input configuration \a config.
 273:C:/Workspace/DAVE-4.4.2-64Bit/xmc1400-getstarted-optiga-trust-m/Libraries/XMCLib/inc\xmc_scu.h ****  * The system clock frequency is tuned by configuring the FDIV and IDIV values of CLKCR register.
 274:C:/Workspace/DAVE-4.4.2-64Bit/xmc1400-getstarted-optiga-trust-m/Libraries/XMCLib/inc\xmc_scu.h ****  * The values of FDIV and IDIV can be provided as part of input configuration.
 275:C:/Workspace/DAVE-4.4.2-64Bit/xmc1400-getstarted-optiga-trust-m/Libraries/XMCLib/inc\xmc_scu.h ****  * The PCLK divider determines the ratio of peripheral clock to the system clock. 
 276:C:/Workspace/DAVE-4.4.2-64Bit/xmc1400-getstarted-optiga-trust-m/Libraries/XMCLib/inc\xmc_scu.h ****  * The source of RTC clock is set based on the input configuration. 
 277:C:/Workspace/DAVE-4.4.2-64Bit/xmc1400-getstarted-optiga-trust-m/Libraries/XMCLib/inc\xmc_scu.h ****  * \a SystemCoreClock variable will be updated with the value of
 278:C:/Workspace/DAVE-4.4.2-64Bit/xmc1400-getstarted-optiga-trust-m/Libraries/XMCLib/inc\xmc_scu.h ****  * system clock frequency. Access to protected bit fields are handled internally.
 279:C:/Workspace/DAVE-4.4.2-64Bit/xmc1400-getstarted-optiga-trust-m/Libraries/XMCLib/inc\xmc_scu.h ****  * \endif
 280:C:/Workspace/DAVE-4.4.2-64Bit/xmc1400-getstarted-optiga-trust-m/Libraries/XMCLib/inc\xmc_scu.h ****  * \if XMC4
 281:C:/Workspace/DAVE-4.4.2-64Bit/xmc1400-getstarted-optiga-trust-m/Libraries/XMCLib/inc\xmc_scu.h ****  * Enables the high precision oscillator(fOHP) input and configures the system and peripheral clock
 282:C:/Workspace/DAVE-4.4.2-64Bit/xmc1400-getstarted-optiga-trust-m/Libraries/XMCLib/inc\xmc_scu.h ****  * Based on the system clock source selected in \a config, either fPLL or fOFI will be chosen as sy
 283:C:/Workspace/DAVE-4.4.2-64Bit/xmc1400-getstarted-optiga-trust-m/Libraries/XMCLib/inc\xmc_scu.h ****  * Based on PLL mode(normal or prescaler mode) used, PLL ramps up in steps to achieve target freque
 284:C:/Workspace/DAVE-4.4.2-64Bit/xmc1400-getstarted-optiga-trust-m/Libraries/XMCLib/inc\xmc_scu.h ****  * The clock dividers for CPU, CCU and peripheral clocks will be set based on the input configurati
 285:C:/Workspace/DAVE-4.4.2-64Bit/xmc1400-getstarted-optiga-trust-m/Libraries/XMCLib/inc\xmc_scu.h ****  * The \a SystemCoreClock variable is set with the value of system clock frequency.
 286:C:/Workspace/DAVE-4.4.2-64Bit/xmc1400-getstarted-optiga-trust-m/Libraries/XMCLib/inc\xmc_scu.h ****  * \endif
 287:C:/Workspace/DAVE-4.4.2-64Bit/xmc1400-getstarted-optiga-trust-m/Libraries/XMCLib/inc\xmc_scu.h ****  * \par<b>Related APIs:</b><BR>
 288:C:/Workspace/DAVE-4.4.2-64Bit/xmc1400-getstarted-optiga-trust-m/Libraries/XMCLib/inc\xmc_scu.h ****  * XMC_SCU_CLOCK_GetPeripheralClockFrequency(), XMC_SCU_CLOCK_GetCpuClockFrequency() \n\n\n
 289:C:/Workspace/DAVE-4.4.2-64Bit/xmc1400-getstarted-optiga-trust-m/Libraries/XMCLib/inc\xmc_scu.h ****  */
 290:C:/Workspace/DAVE-4.4.2-64Bit/xmc1400-getstarted-optiga-trust-m/Libraries/XMCLib/inc\xmc_scu.h **** void XMC_SCU_CLOCK_Init(const XMC_SCU_CLOCK_CONFIG_t *const config);
 291:C:/Workspace/DAVE-4.4.2-64Bit/xmc1400-getstarted-optiga-trust-m/Libraries/XMCLib/inc\xmc_scu.h **** 
 292:C:/Workspace/DAVE-4.4.2-64Bit/xmc1400-getstarted-optiga-trust-m/Libraries/XMCLib/inc\xmc_scu.h **** /**
 293:C:/Workspace/DAVE-4.4.2-64Bit/xmc1400-getstarted-optiga-trust-m/Libraries/XMCLib/inc\xmc_scu.h ****  *
 294:C:/Workspace/DAVE-4.4.2-64Bit/xmc1400-getstarted-optiga-trust-m/Libraries/XMCLib/inc\xmc_scu.h ****  * @param event  Bit mask of the event to enable. \b Range: Use type @ref XMC_SCU_INTERRUPT_EVENT_t
 295:C:/Workspace/DAVE-4.4.2-64Bit/xmc1400-getstarted-optiga-trust-m/Libraries/XMCLib/inc\xmc_scu.h ****  *                for providing the input value. Multiple events can be combined using the \a OR op
 296:C:/Workspace/DAVE-4.4.2-64Bit/xmc1400-getstarted-optiga-trust-m/Libraries/XMCLib/inc\xmc_scu.h ****  *
 297:C:/Workspace/DAVE-4.4.2-64Bit/xmc1400-getstarted-optiga-trust-m/Libraries/XMCLib/inc\xmc_scu.h ****  * @return None
 298:C:/Workspace/DAVE-4.4.2-64Bit/xmc1400-getstarted-optiga-trust-m/Libraries/XMCLib/inc\xmc_scu.h ****  *
 299:C:/Workspace/DAVE-4.4.2-64Bit/xmc1400-getstarted-optiga-trust-m/Libraries/XMCLib/inc\xmc_scu.h ****  * \par<b>Description</b><br>
 300:C:/Workspace/DAVE-4.4.2-64Bit/xmc1400-getstarted-optiga-trust-m/Libraries/XMCLib/inc\xmc_scu.h ****  * Enables the generation of interrupt for the input events.\n\n
 301:C:/Workspace/DAVE-4.4.2-64Bit/xmc1400-getstarted-optiga-trust-m/Libraries/XMCLib/inc\xmc_scu.h ****  * The events are enabled by setting the respective bit fields in the SRMSK register. \n
 302:C:/Workspace/DAVE-4.4.2-64Bit/xmc1400-getstarted-optiga-trust-m/Libraries/XMCLib/inc\xmc_scu.h ****  * Note: User should separately enable the NVIC node responsible for handling the SCU interrupt.
 303:C:/Workspace/DAVE-4.4.2-64Bit/xmc1400-getstarted-optiga-trust-m/Libraries/XMCLib/inc\xmc_scu.h ****  * The interrupt will be generated when the respective event occurs.
 304:C:/Workspace/DAVE-4.4.2-64Bit/xmc1400-getstarted-optiga-trust-m/Libraries/XMCLib/inc\xmc_scu.h ****  * \par<b>Related APIs:</b><BR>
 305:C:/Workspace/DAVE-4.4.2-64Bit/xmc1400-getstarted-optiga-trust-m/Libraries/XMCLib/inc\xmc_scu.h ****  * NVIC_EnableIRQ(), XMC_SCU_INTERRUPT_DisableEvent()\n\n\n
 306:C:/Workspace/DAVE-4.4.2-64Bit/xmc1400-getstarted-optiga-trust-m/Libraries/XMCLib/inc\xmc_scu.h ****  */
 307:C:/Workspace/DAVE-4.4.2-64Bit/xmc1400-getstarted-optiga-trust-m/Libraries/XMCLib/inc\xmc_scu.h **** void XMC_SCU_INTERRUPT_EnableEvent(const XMC_SCU_INTERRUPT_EVENT_t event);
 308:C:/Workspace/DAVE-4.4.2-64Bit/xmc1400-getstarted-optiga-trust-m/Libraries/XMCLib/inc\xmc_scu.h **** 
 309:C:/Workspace/DAVE-4.4.2-64Bit/xmc1400-getstarted-optiga-trust-m/Libraries/XMCLib/inc\xmc_scu.h **** 
 310:C:/Workspace/DAVE-4.4.2-64Bit/xmc1400-getstarted-optiga-trust-m/Libraries/XMCLib/inc\xmc_scu.h **** /**
 311:C:/Workspace/DAVE-4.4.2-64Bit/xmc1400-getstarted-optiga-trust-m/Libraries/XMCLib/inc\xmc_scu.h ****  *
 312:C:/Workspace/DAVE-4.4.2-64Bit/xmc1400-getstarted-optiga-trust-m/Libraries/XMCLib/inc\xmc_scu.h ****  * @param event  Bit mask of the event to disable. \b Range: Use type @ref XMC_SCU_INTERRUPT_EVENT_
 313:C:/Workspace/DAVE-4.4.2-64Bit/xmc1400-getstarted-optiga-trust-m/Libraries/XMCLib/inc\xmc_scu.h ****  *                for providing the input value. Multiple events can be combined using the \a OR op
 314:C:/Workspace/DAVE-4.4.2-64Bit/xmc1400-getstarted-optiga-trust-m/Libraries/XMCLib/inc\xmc_scu.h ****  *
 315:C:/Workspace/DAVE-4.4.2-64Bit/xmc1400-getstarted-optiga-trust-m/Libraries/XMCLib/inc\xmc_scu.h ****  * @return None
 316:C:/Workspace/DAVE-4.4.2-64Bit/xmc1400-getstarted-optiga-trust-m/Libraries/XMCLib/inc\xmc_scu.h ****  *
 317:C:/Workspace/DAVE-4.4.2-64Bit/xmc1400-getstarted-optiga-trust-m/Libraries/XMCLib/inc\xmc_scu.h ****  * \par<b>Description</b><br>
 318:C:/Workspace/DAVE-4.4.2-64Bit/xmc1400-getstarted-optiga-trust-m/Libraries/XMCLib/inc\xmc_scu.h ****  * Disables generation of interrupt on occurrence of the input event.\n\n
 319:C:/Workspace/DAVE-4.4.2-64Bit/xmc1400-getstarted-optiga-trust-m/Libraries/XMCLib/inc\xmc_scu.h ****  * The events are disabled by resetting the respective bit fields in the SRMSK register. \n
 320:C:/Workspace/DAVE-4.4.2-64Bit/xmc1400-getstarted-optiga-trust-m/Libraries/XMCLib/inc\xmc_scu.h ****  * \par<b>Related APIs:</b><BR>
 321:C:/Workspace/DAVE-4.4.2-64Bit/xmc1400-getstarted-optiga-trust-m/Libraries/XMCLib/inc\xmc_scu.h ****  * NVIC_DisableIRQ(), XMC_SCU_INTERRUPT_EnableEvent()\n\n\n
 322:C:/Workspace/DAVE-4.4.2-64Bit/xmc1400-getstarted-optiga-trust-m/Libraries/XMCLib/inc\xmc_scu.h ****  */
 323:C:/Workspace/DAVE-4.4.2-64Bit/xmc1400-getstarted-optiga-trust-m/Libraries/XMCLib/inc\xmc_scu.h **** void XMC_SCU_INTERRUPT_DisableEvent(const XMC_SCU_INTERRUPT_EVENT_t event);
 324:C:/Workspace/DAVE-4.4.2-64Bit/xmc1400-getstarted-optiga-trust-m/Libraries/XMCLib/inc\xmc_scu.h **** 
 325:C:/Workspace/DAVE-4.4.2-64Bit/xmc1400-getstarted-optiga-trust-m/Libraries/XMCLib/inc\xmc_scu.h **** /**
 326:C:/Workspace/DAVE-4.4.2-64Bit/xmc1400-getstarted-optiga-trust-m/Libraries/XMCLib/inc\xmc_scu.h ****  *
 327:C:/Workspace/DAVE-4.4.2-64Bit/xmc1400-getstarted-optiga-trust-m/Libraries/XMCLib/inc\xmc_scu.h ****  * @param event Bit mask of the event to be triggered. \b Range: Use type @ref XMC_SCU_INTERRUPT_EV
 328:C:/Workspace/DAVE-4.4.2-64Bit/xmc1400-getstarted-optiga-trust-m/Libraries/XMCLib/inc\xmc_scu.h ****  *                for providing the input value. Multiple events can be combined using the \a OR op
 329:C:/Workspace/DAVE-4.4.2-64Bit/xmc1400-getstarted-optiga-trust-m/Libraries/XMCLib/inc\xmc_scu.h ****  *
 330:C:/Workspace/DAVE-4.4.2-64Bit/xmc1400-getstarted-optiga-trust-m/Libraries/XMCLib/inc\xmc_scu.h ****  * @return None
 331:C:/Workspace/DAVE-4.4.2-64Bit/xmc1400-getstarted-optiga-trust-m/Libraries/XMCLib/inc\xmc_scu.h ****  *
 332:C:/Workspace/DAVE-4.4.2-64Bit/xmc1400-getstarted-optiga-trust-m/Libraries/XMCLib/inc\xmc_scu.h ****  * \par<b>Description</b><br>
 333:C:/Workspace/DAVE-4.4.2-64Bit/xmc1400-getstarted-optiga-trust-m/Libraries/XMCLib/inc\xmc_scu.h ****  * Triggers the event as if the hardware raised it.\n\n
 334:C:/Workspace/DAVE-4.4.2-64Bit/xmc1400-getstarted-optiga-trust-m/Libraries/XMCLib/inc\xmc_scu.h ****  * Event will be triggered by setting the respective bitfield in the SRSET register.\n
 335:C:/Workspace/DAVE-4.4.2-64Bit/xmc1400-getstarted-optiga-trust-m/Libraries/XMCLib/inc\xmc_scu.h ****  * Note: User should enable the NVIC node that handles the respective event for interrupt generatio
 336:C:/Workspace/DAVE-4.4.2-64Bit/xmc1400-getstarted-optiga-trust-m/Libraries/XMCLib/inc\xmc_scu.h ****  * \par<b>Related APIs:</b><BR>
 337:C:/Workspace/DAVE-4.4.2-64Bit/xmc1400-getstarted-optiga-trust-m/Libraries/XMCLib/inc\xmc_scu.h ****  * NVIC_EnableIRQ(), XMC_SCU_INTERUPT_GetEventStatus(), XMC_SCU_INTERRUPT_ClearEventStatus() \n\n\n
 338:C:/Workspace/DAVE-4.4.2-64Bit/xmc1400-getstarted-optiga-trust-m/Libraries/XMCLib/inc\xmc_scu.h ****  */
 339:C:/Workspace/DAVE-4.4.2-64Bit/xmc1400-getstarted-optiga-trust-m/Libraries/XMCLib/inc\xmc_scu.h **** void XMC_SCU_INTERRUPT_TriggerEvent(const XMC_SCU_INTERRUPT_EVENT_t  event);
 340:C:/Workspace/DAVE-4.4.2-64Bit/xmc1400-getstarted-optiga-trust-m/Libraries/XMCLib/inc\xmc_scu.h **** 
 341:C:/Workspace/DAVE-4.4.2-64Bit/xmc1400-getstarted-optiga-trust-m/Libraries/XMCLib/inc\xmc_scu.h **** /**
 342:C:/Workspace/DAVE-4.4.2-64Bit/xmc1400-getstarted-optiga-trust-m/Libraries/XMCLib/inc\xmc_scu.h ****  * @return uint32_t  Status of the SCU events.
 343:C:/Workspace/DAVE-4.4.2-64Bit/xmc1400-getstarted-optiga-trust-m/Libraries/XMCLib/inc\xmc_scu.h ****  *
 344:C:/Workspace/DAVE-4.4.2-64Bit/xmc1400-getstarted-optiga-trust-m/Libraries/XMCLib/inc\xmc_scu.h ****  * \par<b>Description</b><br>
 345:C:/Workspace/DAVE-4.4.2-64Bit/xmc1400-getstarted-optiga-trust-m/Libraries/XMCLib/inc\xmc_scu.h ****  * Provides the status of all SCU events.\n\n
 346:C:/Workspace/DAVE-4.4.2-64Bit/xmc1400-getstarted-optiga-trust-m/Libraries/XMCLib/inc\xmc_scu.h ****  * The status is read from the SRRAW register. To check the status of a particular 
 347:C:/Workspace/DAVE-4.4.2-64Bit/xmc1400-getstarted-optiga-trust-m/Libraries/XMCLib/inc\xmc_scu.h ****  * event, the returned value should be masked with the bit mask of the event. The bitmask
 348:C:/Workspace/DAVE-4.4.2-64Bit/xmc1400-getstarted-optiga-trust-m/Libraries/XMCLib/inc\xmc_scu.h ****  * of events can be obtained using the type @ref XMC_SCU_INTERRUPT_EVENT_t. Multiple events'
 349:C:/Workspace/DAVE-4.4.2-64Bit/xmc1400-getstarted-optiga-trust-m/Libraries/XMCLib/inc\xmc_scu.h ****  * status can be checked by combining the bit masks using \a OR operation. 
 350:C:/Workspace/DAVE-4.4.2-64Bit/xmc1400-getstarted-optiga-trust-m/Libraries/XMCLib/inc\xmc_scu.h ****  * After detecting the event, the event status should be cleared using software to detect the event
 351:C:/Workspace/DAVE-4.4.2-64Bit/xmc1400-getstarted-optiga-trust-m/Libraries/XMCLib/inc\xmc_scu.h ****  * \par<b>Related APIs:</b><BR>
 352:C:/Workspace/DAVE-4.4.2-64Bit/xmc1400-getstarted-optiga-trust-m/Libraries/XMCLib/inc\xmc_scu.h ****  * XMC_SCU_INTERRUPT_ClearEventStatus(), XMC_SCU_INTERRUPT_TriggerEvent(), XMC_SCU_INTERRUPT_SetEve
 353:C:/Workspace/DAVE-4.4.2-64Bit/xmc1400-getstarted-optiga-trust-m/Libraries/XMCLib/inc\xmc_scu.h ****  */
 354:C:/Workspace/DAVE-4.4.2-64Bit/xmc1400-getstarted-optiga-trust-m/Libraries/XMCLib/inc\xmc_scu.h **** XMC_SCU_INTERRUPT_EVENT_t XMC_SCU_INTERUPT_GetEventStatus(void);
 355:C:/Workspace/DAVE-4.4.2-64Bit/xmc1400-getstarted-optiga-trust-m/Libraries/XMCLib/inc\xmc_scu.h **** 
 356:C:/Workspace/DAVE-4.4.2-64Bit/xmc1400-getstarted-optiga-trust-m/Libraries/XMCLib/inc\xmc_scu.h **** /**
 357:C:/Workspace/DAVE-4.4.2-64Bit/xmc1400-getstarted-optiga-trust-m/Libraries/XMCLib/inc\xmc_scu.h ****  *
 358:C:/Workspace/DAVE-4.4.2-64Bit/xmc1400-getstarted-optiga-trust-m/Libraries/XMCLib/inc\xmc_scu.h ****  * @param event  Bit mask of the events to clear. \b Range: Use type @ref XMC_SCU_INTERRUPT_EVENT_t
 359:C:/Workspace/DAVE-4.4.2-64Bit/xmc1400-getstarted-optiga-trust-m/Libraries/XMCLib/inc\xmc_scu.h ****  *                for providing the input value. Multiple events can be combined using the \a OR op
 360:C:/Workspace/DAVE-4.4.2-64Bit/xmc1400-getstarted-optiga-trust-m/Libraries/XMCLib/inc\xmc_scu.h ****  *
 361:C:/Workspace/DAVE-4.4.2-64Bit/xmc1400-getstarted-optiga-trust-m/Libraries/XMCLib/inc\xmc_scu.h ****  * @return None
 362:C:/Workspace/DAVE-4.4.2-64Bit/xmc1400-getstarted-optiga-trust-m/Libraries/XMCLib/inc\xmc_scu.h ****  *
 363:C:/Workspace/DAVE-4.4.2-64Bit/xmc1400-getstarted-optiga-trust-m/Libraries/XMCLib/inc\xmc_scu.h ****  * \par<b>Description</b><br>
 364:C:/Workspace/DAVE-4.4.2-64Bit/xmc1400-getstarted-optiga-trust-m/Libraries/XMCLib/inc\xmc_scu.h ****  * Clears the event status bit in SRRAW register.\n\n
 365:C:/Workspace/DAVE-4.4.2-64Bit/xmc1400-getstarted-optiga-trust-m/Libraries/XMCLib/inc\xmc_scu.h ****  * The events are cleared by writing value 1 to their bit positions in the SRCLR register.
 366:C:/Workspace/DAVE-4.4.2-64Bit/xmc1400-getstarted-optiga-trust-m/Libraries/XMCLib/inc\xmc_scu.h ****  * The API can be used when polling method is used. After detecting the event, the event status
 367:C:/Workspace/DAVE-4.4.2-64Bit/xmc1400-getstarted-optiga-trust-m/Libraries/XMCLib/inc\xmc_scu.h ****  * should be cleared using software to detect the event again.
 368:C:/Workspace/DAVE-4.4.2-64Bit/xmc1400-getstarted-optiga-trust-m/Libraries/XMCLib/inc\xmc_scu.h ****  *
 369:C:/Workspace/DAVE-4.4.2-64Bit/xmc1400-getstarted-optiga-trust-m/Libraries/XMCLib/inc\xmc_scu.h ****  * \par<b>Related APIs:</b><BR>
 370:C:/Workspace/DAVE-4.4.2-64Bit/xmc1400-getstarted-optiga-trust-m/Libraries/XMCLib/inc\xmc_scu.h ****  * XMC_SCU_INTERUPT_GetEventStatus(), XMC_SCU_INTERRUPT_TriggerEvent() \n\n\n
 371:C:/Workspace/DAVE-4.4.2-64Bit/xmc1400-getstarted-optiga-trust-m/Libraries/XMCLib/inc\xmc_scu.h ****  */
 372:C:/Workspace/DAVE-4.4.2-64Bit/xmc1400-getstarted-optiga-trust-m/Libraries/XMCLib/inc\xmc_scu.h **** void XMC_SCU_INTERRUPT_ClearEventStatus(const XMC_SCU_INTERRUPT_EVENT_t event);
 373:C:/Workspace/DAVE-4.4.2-64Bit/xmc1400-getstarted-optiga-trust-m/Libraries/XMCLib/inc\xmc_scu.h **** 
 374:C:/Workspace/DAVE-4.4.2-64Bit/xmc1400-getstarted-optiga-trust-m/Libraries/XMCLib/inc\xmc_scu.h **** /**
 375:C:/Workspace/DAVE-4.4.2-64Bit/xmc1400-getstarted-optiga-trust-m/Libraries/XMCLib/inc\xmc_scu.h ****  *
 376:C:/Workspace/DAVE-4.4.2-64Bit/xmc1400-getstarted-optiga-trust-m/Libraries/XMCLib/inc\xmc_scu.h ****  * @return uint32_t  Status representing the reason for device reset.
 377:C:/Workspace/DAVE-4.4.2-64Bit/xmc1400-getstarted-optiga-trust-m/Libraries/XMCLib/inc\xmc_scu.h ****  *
 378:C:/Workspace/DAVE-4.4.2-64Bit/xmc1400-getstarted-optiga-trust-m/Libraries/XMCLib/inc\xmc_scu.h ****  * \par<b>Description</b><br>
 379:C:/Workspace/DAVE-4.4.2-64Bit/xmc1400-getstarted-optiga-trust-m/Libraries/XMCLib/inc\xmc_scu.h ****  * Provides the value representing the reason for device reset.\n\n
 380:C:/Workspace/DAVE-4.4.2-64Bit/xmc1400-getstarted-optiga-trust-m/Libraries/XMCLib/inc\xmc_scu.h ****  * The return value is an encoded word, which can indicate multiple reasons for the last reset. Eac
 381:C:/Workspace/DAVE-4.4.2-64Bit/xmc1400-getstarted-optiga-trust-m/Libraries/XMCLib/inc\xmc_scu.h ****  * returned word is representative of a last reset cause. The returned value should be appropriatel
 382:C:/Workspace/DAVE-4.4.2-64Bit/xmc1400-getstarted-optiga-trust-m/Libraries/XMCLib/inc\xmc_scu.h ****  * the cause of reset. 
 383:C:/Workspace/DAVE-4.4.2-64Bit/xmc1400-getstarted-optiga-trust-m/Libraries/XMCLib/inc\xmc_scu.h ****  * The cause of the last reset gets automatically stored in 
 384:C:/Workspace/DAVE-4.4.2-64Bit/xmc1400-getstarted-optiga-trust-m/Libraries/XMCLib/inc\xmc_scu.h ****  * the \a SCU_RSTSTAT register. The reset status shall be reset after each
 385:C:/Workspace/DAVE-4.4.2-64Bit/xmc1400-getstarted-optiga-trust-m/Libraries/XMCLib/inc\xmc_scu.h ****  * startup in order to ensure consistent source indication after the next reset.
 386:C:/Workspace/DAVE-4.4.2-64Bit/xmc1400-getstarted-optiga-trust-m/Libraries/XMCLib/inc\xmc_scu.h ****  * \b Range: The type @ref XMC_SCU_RESET_REASON_t can be used to get the bit masks of the reset cau
 387:C:/Workspace/DAVE-4.4.2-64Bit/xmc1400-getstarted-optiga-trust-m/Libraries/XMCLib/inc\xmc_scu.h ****  *
 388:C:/Workspace/DAVE-4.4.2-64Bit/xmc1400-getstarted-optiga-trust-m/Libraries/XMCLib/inc\xmc_scu.h ****  * \par<b>Related APIs:</b><BR>
 389:C:/Workspace/DAVE-4.4.2-64Bit/xmc1400-getstarted-optiga-trust-m/Libraries/XMCLib/inc\xmc_scu.h ****  * XMC_SCU_RESET_ClearDeviceResetReason() \n\n\n
 390:C:/Workspace/DAVE-4.4.2-64Bit/xmc1400-getstarted-optiga-trust-m/Libraries/XMCLib/inc\xmc_scu.h ****  */
 391:C:/Workspace/DAVE-4.4.2-64Bit/xmc1400-getstarted-optiga-trust-m/Libraries/XMCLib/inc\xmc_scu.h **** __STATIC_INLINE uint32_t XMC_SCU_RESET_GetDeviceResetReason(void)
 392:C:/Workspace/DAVE-4.4.2-64Bit/xmc1400-getstarted-optiga-trust-m/Libraries/XMCLib/inc\xmc_scu.h **** {
 393:C:/Workspace/DAVE-4.4.2-64Bit/xmc1400-getstarted-optiga-trust-m/Libraries/XMCLib/inc\xmc_scu.h ****   return ((SCU_RESET->RSTSTAT) & SCU_RESET_RSTSTAT_RSTSTAT_Msk);
 394:C:/Workspace/DAVE-4.4.2-64Bit/xmc1400-getstarted-optiga-trust-m/Libraries/XMCLib/inc\xmc_scu.h **** }
 395:C:/Workspace/DAVE-4.4.2-64Bit/xmc1400-getstarted-optiga-trust-m/Libraries/XMCLib/inc\xmc_scu.h **** /**
 396:C:/Workspace/DAVE-4.4.2-64Bit/xmc1400-getstarted-optiga-trust-m/Libraries/XMCLib/inc\xmc_scu.h ****  * @return None 
 397:C:/Workspace/DAVE-4.4.2-64Bit/xmc1400-getstarted-optiga-trust-m/Libraries/XMCLib/inc\xmc_scu.h ****  *
 398:C:/Workspace/DAVE-4.4.2-64Bit/xmc1400-getstarted-optiga-trust-m/Libraries/XMCLib/inc\xmc_scu.h ****  * \par<b>Description</b><br>
 399:C:/Workspace/DAVE-4.4.2-64Bit/xmc1400-getstarted-optiga-trust-m/Libraries/XMCLib/inc\xmc_scu.h ****  * Clears the reset reason bits in the reset status register. \n\n
 400:C:/Workspace/DAVE-4.4.2-64Bit/xmc1400-getstarted-optiga-trust-m/Libraries/XMCLib/inc\xmc_scu.h ****  * Clearing of the reset status information in the \a SCU_RSTSTAT register via register bit \a RSTC
 401:C:/Workspace/DAVE-4.4.2-64Bit/xmc1400-getstarted-optiga-trust-m/Libraries/XMCLib/inc\xmc_scu.h ****  * recommended to ensure a clear indication of the cause of next reset.
 402:C:/Workspace/DAVE-4.4.2-64Bit/xmc1400-getstarted-optiga-trust-m/Libraries/XMCLib/inc\xmc_scu.h ****  *
 403:C:/Workspace/DAVE-4.4.2-64Bit/xmc1400-getstarted-optiga-trust-m/Libraries/XMCLib/inc\xmc_scu.h ****  * \par<b>Related APIs:</b><BR>
 404:C:/Workspace/DAVE-4.4.2-64Bit/xmc1400-getstarted-optiga-trust-m/Libraries/XMCLib/inc\xmc_scu.h ****  * XMC_SCU_RESET_GetDeviceResetReason() \n\n\n
 405:C:/Workspace/DAVE-4.4.2-64Bit/xmc1400-getstarted-optiga-trust-m/Libraries/XMCLib/inc\xmc_scu.h ****  */
 406:C:/Workspace/DAVE-4.4.2-64Bit/xmc1400-getstarted-optiga-trust-m/Libraries/XMCLib/inc\xmc_scu.h **** __STATIC_INLINE void XMC_SCU_RESET_ClearDeviceResetReason(void)
 407:C:/Workspace/DAVE-4.4.2-64Bit/xmc1400-getstarted-optiga-trust-m/Libraries/XMCLib/inc\xmc_scu.h **** {
 408:C:/Workspace/DAVE-4.4.2-64Bit/xmc1400-getstarted-optiga-trust-m/Libraries/XMCLib/inc\xmc_scu.h ****   /* Clear RSTSTAT.RSTSTAT bitfield */
 409:C:/Workspace/DAVE-4.4.2-64Bit/xmc1400-getstarted-optiga-trust-m/Libraries/XMCLib/inc\xmc_scu.h ****   SCU_RESET->RSTCLR = (uint32_t)SCU_RESET_RSTCLR_RSCLR_Msk;
 410:C:/Workspace/DAVE-4.4.2-64Bit/xmc1400-getstarted-optiga-trust-m/Libraries/XMCLib/inc\xmc_scu.h **** }
 411:C:/Workspace/DAVE-4.4.2-64Bit/xmc1400-getstarted-optiga-trust-m/Libraries/XMCLib/inc\xmc_scu.h ****  
 412:C:/Workspace/DAVE-4.4.2-64Bit/xmc1400-getstarted-optiga-trust-m/Libraries/XMCLib/inc\xmc_scu.h **** /**
 413:C:/Workspace/DAVE-4.4.2-64Bit/xmc1400-getstarted-optiga-trust-m/Libraries/XMCLib/inc\xmc_scu.h ****  * @return uint32_t  Value of CPU clock frequency.
 414:C:/Workspace/DAVE-4.4.2-64Bit/xmc1400-getstarted-optiga-trust-m/Libraries/XMCLib/inc\xmc_scu.h ****  *
 415:C:/Workspace/DAVE-4.4.2-64Bit/xmc1400-getstarted-optiga-trust-m/Libraries/XMCLib/inc\xmc_scu.h ****  * \par<b>Description</b><br>
 416:C:/Workspace/DAVE-4.4.2-64Bit/xmc1400-getstarted-optiga-trust-m/Libraries/XMCLib/inc\xmc_scu.h ****  * Provides the vlaue of CPU clock frequency.\n\n
 417:C:/Workspace/DAVE-4.4.2-64Bit/xmc1400-getstarted-optiga-trust-m/Libraries/XMCLib/inc\xmc_scu.h ****  * The value is stored in a global variable \a \b SystemCoreClock.
 418:C:/Workspace/DAVE-4.4.2-64Bit/xmc1400-getstarted-optiga-trust-m/Libraries/XMCLib/inc\xmc_scu.h ****  * It is updated when the clock configuration is done using the SCU LLD APIs.
 419:C:/Workspace/DAVE-4.4.2-64Bit/xmc1400-getstarted-optiga-trust-m/Libraries/XMCLib/inc\xmc_scu.h ****  * The value represents the frequency of clock used for CPU operation.
 420:C:/Workspace/DAVE-4.4.2-64Bit/xmc1400-getstarted-optiga-trust-m/Libraries/XMCLib/inc\xmc_scu.h ****  * \b Range: Value is of type uint32_t, and gives the value of frequency in Hertz.
 421:C:/Workspace/DAVE-4.4.2-64Bit/xmc1400-getstarted-optiga-trust-m/Libraries/XMCLib/inc\xmc_scu.h ****  *
 422:C:/Workspace/DAVE-4.4.2-64Bit/xmc1400-getstarted-optiga-trust-m/Libraries/XMCLib/inc\xmc_scu.h ****  * \par<b>Related APIs:</b><BR>
 423:C:/Workspace/DAVE-4.4.2-64Bit/xmc1400-getstarted-optiga-trust-m/Libraries/XMCLib/inc\xmc_scu.h ****  * XMC_SCU_CLOCK_GetPeripheralClockFrequency(), XMC_SCU_CLOCK_GatePeripheralClock() \n\n\n
 424:C:/Workspace/DAVE-4.4.2-64Bit/xmc1400-getstarted-optiga-trust-m/Libraries/XMCLib/inc\xmc_scu.h ****  */
 425:C:/Workspace/DAVE-4.4.2-64Bit/xmc1400-getstarted-optiga-trust-m/Libraries/XMCLib/inc\xmc_scu.h **** __STATIC_INLINE uint32_t XMC_SCU_CLOCK_GetCpuClockFrequency(void)
 426:C:/Workspace/DAVE-4.4.2-64Bit/xmc1400-getstarted-optiga-trust-m/Libraries/XMCLib/inc\xmc_scu.h **** {
 427:C:/Workspace/DAVE-4.4.2-64Bit/xmc1400-getstarted-optiga-trust-m/Libraries/XMCLib/inc\xmc_scu.h ****   return SystemCoreClock;
 428:C:/Workspace/DAVE-4.4.2-64Bit/xmc1400-getstarted-optiga-trust-m/Libraries/XMCLib/inc\xmc_scu.h **** }
 429:C:/Workspace/DAVE-4.4.2-64Bit/xmc1400-getstarted-optiga-trust-m/Libraries/XMCLib/inc\xmc_scu.h **** 
 430:C:/Workspace/DAVE-4.4.2-64Bit/xmc1400-getstarted-optiga-trust-m/Libraries/XMCLib/inc\xmc_scu.h **** /**
 431:C:/Workspace/DAVE-4.4.2-64Bit/xmc1400-getstarted-optiga-trust-m/Libraries/XMCLib/inc\xmc_scu.h ****  * @return uint32_t  Value of peripheral clock frequency in Hertz.
 432:C:/Workspace/DAVE-4.4.2-64Bit/xmc1400-getstarted-optiga-trust-m/Libraries/XMCLib/inc\xmc_scu.h ****  *
 433:C:/Workspace/DAVE-4.4.2-64Bit/xmc1400-getstarted-optiga-trust-m/Libraries/XMCLib/inc\xmc_scu.h ****  * \par<b>Description</b><br>
 434:C:/Workspace/DAVE-4.4.2-64Bit/xmc1400-getstarted-optiga-trust-m/Libraries/XMCLib/inc\xmc_scu.h ****  * Provides the vlaue of clock frequency at which the peripherals are working.\n\n
 435:C:/Workspace/DAVE-4.4.2-64Bit/xmc1400-getstarted-optiga-trust-m/Libraries/XMCLib/inc\xmc_scu.h ****  * The value is derived from the CPU frequency. \b Range: Value is of type uint32_t. It is represen
 436:C:/Workspace/DAVE-4.4.2-64Bit/xmc1400-getstarted-optiga-trust-m/Libraries/XMCLib/inc\xmc_scu.h ****  * \par<b>Related APIs:</b><BR>
 437:C:/Workspace/DAVE-4.4.2-64Bit/xmc1400-getstarted-optiga-trust-m/Libraries/XMCLib/inc\xmc_scu.h ****  * XMC_SCU_CLOCK_GetCpuClockFrequency(),XMC_SCU_CLOCK_GatePeripheralClock() \n\n\n
 438:C:/Workspace/DAVE-4.4.2-64Bit/xmc1400-getstarted-optiga-trust-m/Libraries/XMCLib/inc\xmc_scu.h ****  */
 439:C:/Workspace/DAVE-4.4.2-64Bit/xmc1400-getstarted-optiga-trust-m/Libraries/XMCLib/inc\xmc_scu.h **** uint32_t XMC_SCU_CLOCK_GetPeripheralClockFrequency(void); 
 440:C:/Workspace/DAVE-4.4.2-64Bit/xmc1400-getstarted-optiga-trust-m/Libraries/XMCLib/inc\xmc_scu.h **** 
 441:C:/Workspace/DAVE-4.4.2-64Bit/xmc1400-getstarted-optiga-trust-m/Libraries/XMCLib/inc\xmc_scu.h **** #if(UC_SERIES != XMC45)
 442:C:/Workspace/DAVE-4.4.2-64Bit/xmc1400-getstarted-optiga-trust-m/Libraries/XMCLib/inc\xmc_scu.h ****  
 443:C:/Workspace/DAVE-4.4.2-64Bit/xmc1400-getstarted-optiga-trust-m/Libraries/XMCLib/inc\xmc_scu.h **** /**
 444:C:/Workspace/DAVE-4.4.2-64Bit/xmc1400-getstarted-optiga-trust-m/Libraries/XMCLib/inc\xmc_scu.h ****  *
 445:C:/Workspace/DAVE-4.4.2-64Bit/xmc1400-getstarted-optiga-trust-m/Libraries/XMCLib/inc\xmc_scu.h ****  * @param  peripheral The peripheral for which the clock has to be gated. \b Range: Use type @ref X
 446:C:/Workspace/DAVE-4.4.2-64Bit/xmc1400-getstarted-optiga-trust-m/Libraries/XMCLib/inc\xmc_scu.h ****  *                    to identify the peripheral clock to be gated.
 447:C:/Workspace/DAVE-4.4.2-64Bit/xmc1400-getstarted-optiga-trust-m/Libraries/XMCLib/inc\xmc_scu.h ****  *
 448:C:/Workspace/DAVE-4.4.2-64Bit/xmc1400-getstarted-optiga-trust-m/Libraries/XMCLib/inc\xmc_scu.h ****  * @return None
 449:C:/Workspace/DAVE-4.4.2-64Bit/xmc1400-getstarted-optiga-trust-m/Libraries/XMCLib/inc\xmc_scu.h ****  *
 450:C:/Workspace/DAVE-4.4.2-64Bit/xmc1400-getstarted-optiga-trust-m/Libraries/XMCLib/inc\xmc_scu.h ****  * \par<b>Description</b><br>
 451:C:/Workspace/DAVE-4.4.2-64Bit/xmc1400-getstarted-optiga-trust-m/Libraries/XMCLib/inc\xmc_scu.h ****  * Blocks the supply of clock to the selected peripheral.\n\n
 452:C:/Workspace/DAVE-4.4.2-64Bit/xmc1400-getstarted-optiga-trust-m/Libraries/XMCLib/inc\xmc_scu.h ****  * Clock gating helps in reducing the power consumption. User can selectively gate the clocks of un
 453:C:/Workspace/DAVE-4.4.2-64Bit/xmc1400-getstarted-optiga-trust-m/Libraries/XMCLib/inc\xmc_scu.h ****  * \if XMC1
 454:C:/Workspace/DAVE-4.4.2-64Bit/xmc1400-getstarted-optiga-trust-m/Libraries/XMCLib/inc\xmc_scu.h ****  * fPCLK is the source of clock to various peripherals. Some peripherals support clock gate. Such a
 455:C:/Workspace/DAVE-4.4.2-64Bit/xmc1400-getstarted-optiga-trust-m/Libraries/XMCLib/inc\xmc_scu.h ****  * the clock supply for the selected peripheral.
 456:C:/Workspace/DAVE-4.4.2-64Bit/xmc1400-getstarted-optiga-trust-m/Libraries/XMCLib/inc\xmc_scu.h ****  * Software can request for individual gating of such peripheral clocks by enabling the \a SCU_CGAT
 457:C:/Workspace/DAVE-4.4.2-64Bit/xmc1400-getstarted-optiga-trust-m/Libraries/XMCLib/inc\xmc_scu.h ****  * register bit field. Every bit in \a SCU_CGATSET0 register is protected by the bit protection sch
 458:C:/Workspace/DAVE-4.4.2-64Bit/xmc1400-getstarted-optiga-trust-m/Libraries/XMCLib/inc\xmc_scu.h ****  * bit fields are handled internally.
 459:C:/Workspace/DAVE-4.4.2-64Bit/xmc1400-getstarted-optiga-trust-m/Libraries/XMCLib/inc\xmc_scu.h ****  * \endif
 460:C:/Workspace/DAVE-4.4.2-64Bit/xmc1400-getstarted-optiga-trust-m/Libraries/XMCLib/inc\xmc_scu.h ****  * \if XMC4
 461:C:/Workspace/DAVE-4.4.2-64Bit/xmc1400-getstarted-optiga-trust-m/Libraries/XMCLib/inc\xmc_scu.h ****  * fPERI is the source of clock to various peripherals. Some peripherals support clock gate. Such a
 462:C:/Workspace/DAVE-4.4.2-64Bit/xmc1400-getstarted-optiga-trust-m/Libraries/XMCLib/inc\xmc_scu.h ****  * the clock supply for the selected peripheral.
 463:C:/Workspace/DAVE-4.4.2-64Bit/xmc1400-getstarted-optiga-trust-m/Libraries/XMCLib/inc\xmc_scu.h ****  * Software can request for individual gating of such peripheral clocks by enabling one of the \a
 464:C:/Workspace/DAVE-4.4.2-64Bit/xmc1400-getstarted-optiga-trust-m/Libraries/XMCLib/inc\xmc_scu.h ****  * SCU_CGATSET0, \a SCU_CGATSET1 or \a SCU_CGATSET2 register bitfields.
 465:C:/Workspace/DAVE-4.4.2-64Bit/xmc1400-getstarted-optiga-trust-m/Libraries/XMCLib/inc\xmc_scu.h ****  * 
 466:C:/Workspace/DAVE-4.4.2-64Bit/xmc1400-getstarted-optiga-trust-m/Libraries/XMCLib/inc\xmc_scu.h ****  * \endif
 467:C:/Workspace/DAVE-4.4.2-64Bit/xmc1400-getstarted-optiga-trust-m/Libraries/XMCLib/inc\xmc_scu.h ****  * Note: Clock gating shall not be activated unless the module is in reset state. So use \a
 468:C:/Workspace/DAVE-4.4.2-64Bit/xmc1400-getstarted-optiga-trust-m/Libraries/XMCLib/inc\xmc_scu.h ****  * XMC_SCU_CLOCK_IsPeripheralClockGated() API before enabling the gating of any peripheral.
 469:C:/Workspace/DAVE-4.4.2-64Bit/xmc1400-getstarted-optiga-trust-m/Libraries/XMCLib/inc\xmc_scu.h ****  * \par<b>Related APIs:</b><BR>
 470:C:/Workspace/DAVE-4.4.2-64Bit/xmc1400-getstarted-optiga-trust-m/Libraries/XMCLib/inc\xmc_scu.h ****  * XMC_SCU_CLOCK_IsPeripheralClockGated(), XMC_SCU_CLOCK_UngatePeripheralClock() \n\n\n
 471:C:/Workspace/DAVE-4.4.2-64Bit/xmc1400-getstarted-optiga-trust-m/Libraries/XMCLib/inc\xmc_scu.h ****  */
 472:C:/Workspace/DAVE-4.4.2-64Bit/xmc1400-getstarted-optiga-trust-m/Libraries/XMCLib/inc\xmc_scu.h **** void XMC_SCU_CLOCK_GatePeripheralClock(const XMC_SCU_PERIPHERAL_CLOCK_t peripheral);
 473:C:/Workspace/DAVE-4.4.2-64Bit/xmc1400-getstarted-optiga-trust-m/Libraries/XMCLib/inc\xmc_scu.h ****  
 474:C:/Workspace/DAVE-4.4.2-64Bit/xmc1400-getstarted-optiga-trust-m/Libraries/XMCLib/inc\xmc_scu.h **** /**
 475:C:/Workspace/DAVE-4.4.2-64Bit/xmc1400-getstarted-optiga-trust-m/Libraries/XMCLib/inc\xmc_scu.h ****  *
 476:C:/Workspace/DAVE-4.4.2-64Bit/xmc1400-getstarted-optiga-trust-m/Libraries/XMCLib/inc\xmc_scu.h ****  * @param  peripheral  The peripheral for which the clock has to be ungated. \b Range: Use type @re
 477:C:/Workspace/DAVE-4.4.2-64Bit/xmc1400-getstarted-optiga-trust-m/Libraries/XMCLib/inc\xmc_scu.h ****  *                    to identify the peripheral.
 478:C:/Workspace/DAVE-4.4.2-64Bit/xmc1400-getstarted-optiga-trust-m/Libraries/XMCLib/inc\xmc_scu.h ****  *
 479:C:/Workspace/DAVE-4.4.2-64Bit/xmc1400-getstarted-optiga-trust-m/Libraries/XMCLib/inc\xmc_scu.h ****  * @return None
 480:C:/Workspace/DAVE-4.4.2-64Bit/xmc1400-getstarted-optiga-trust-m/Libraries/XMCLib/inc\xmc_scu.h ****  *
 481:C:/Workspace/DAVE-4.4.2-64Bit/xmc1400-getstarted-optiga-trust-m/Libraries/XMCLib/inc\xmc_scu.h ****  * \par<b>Description</b><br>
 482:C:/Workspace/DAVE-4.4.2-64Bit/xmc1400-getstarted-optiga-trust-m/Libraries/XMCLib/inc\xmc_scu.h ****  * Enables the supply of clock to the selected peripheral.\n\n
 483:C:/Workspace/DAVE-4.4.2-64Bit/xmc1400-getstarted-optiga-trust-m/Libraries/XMCLib/inc\xmc_scu.h ****  * By default when the device powers on, the peripheral clock will be gated for the 
 484:C:/Workspace/DAVE-4.4.2-64Bit/xmc1400-getstarted-optiga-trust-m/Libraries/XMCLib/inc\xmc_scu.h ****  * peripherals that support clock gating.
 485:C:/Workspace/DAVE-4.4.2-64Bit/xmc1400-getstarted-optiga-trust-m/Libraries/XMCLib/inc\xmc_scu.h ****  * The peripheral clock should be enabled before using it for any functionality.
 486:C:/Workspace/DAVE-4.4.2-64Bit/xmc1400-getstarted-optiga-trust-m/Libraries/XMCLib/inc\xmc_scu.h ****  * \if XMC1
 487:C:/Workspace/DAVE-4.4.2-64Bit/xmc1400-getstarted-optiga-trust-m/Libraries/XMCLib/inc\xmc_scu.h ****  * fPCLK is the source of clock to various peripherals. Some peripherals support clock gate.
 488:C:/Workspace/DAVE-4.4.2-64Bit/xmc1400-getstarted-optiga-trust-m/Libraries/XMCLib/inc\xmc_scu.h ****  * Software can request for individual ungating of such peripheral clocks by setting respective bit
 489:C:/Workspace/DAVE-4.4.2-64Bit/xmc1400-getstarted-optiga-trust-m/Libraries/XMCLib/inc\xmc_scu.h ****  * in the \a SCU_CGATCLR0 register.
 490:C:/Workspace/DAVE-4.4.2-64Bit/xmc1400-getstarted-optiga-trust-m/Libraries/XMCLib/inc\xmc_scu.h ****  * \endif
 491:C:/Workspace/DAVE-4.4.2-64Bit/xmc1400-getstarted-optiga-trust-m/Libraries/XMCLib/inc\xmc_scu.h ****  * \if XMC4
 492:C:/Workspace/DAVE-4.4.2-64Bit/xmc1400-getstarted-optiga-trust-m/Libraries/XMCLib/inc\xmc_scu.h ****  * fPERI is the source of clock to various peripherals. Some peripherals support clock gate.
 493:C:/Workspace/DAVE-4.4.2-64Bit/xmc1400-getstarted-optiga-trust-m/Libraries/XMCLib/inc\xmc_scu.h ****  * Software can request for individual ungating of such peripheral clocks by setting the respective
 494:C:/Workspace/DAVE-4.4.2-64Bit/xmc1400-getstarted-optiga-trust-m/Libraries/XMCLib/inc\xmc_scu.h ****  * SCU_CGATCLR0, \a SCU_CGATCLR1 or \a SCU_CGATCLR2 registers.
 495:C:/Workspace/DAVE-4.4.2-64Bit/xmc1400-getstarted-optiga-trust-m/Libraries/XMCLib/inc\xmc_scu.h ****  * \endif
 496:C:/Workspace/DAVE-4.4.2-64Bit/xmc1400-getstarted-optiga-trust-m/Libraries/XMCLib/inc\xmc_scu.h ****  *
 497:C:/Workspace/DAVE-4.4.2-64Bit/xmc1400-getstarted-optiga-trust-m/Libraries/XMCLib/inc\xmc_scu.h ****  * \par<b>Related APIs:</b><BR>
 498:C:/Workspace/DAVE-4.4.2-64Bit/xmc1400-getstarted-optiga-trust-m/Libraries/XMCLib/inc\xmc_scu.h ****  * XMC_SCU_CLOCK_IsPeripheralClockGated(), XMC_SCU_CLOCK_GatePeripheralClock() \n\n\n
 499:C:/Workspace/DAVE-4.4.2-64Bit/xmc1400-getstarted-optiga-trust-m/Libraries/XMCLib/inc\xmc_scu.h ****  */
 500:C:/Workspace/DAVE-4.4.2-64Bit/xmc1400-getstarted-optiga-trust-m/Libraries/XMCLib/inc\xmc_scu.h **** void XMC_SCU_CLOCK_UngatePeripheralClock(const XMC_SCU_PERIPHERAL_CLOCK_t peripheral);
 501:C:/Workspace/DAVE-4.4.2-64Bit/xmc1400-getstarted-optiga-trust-m/Libraries/XMCLib/inc\xmc_scu.h **** 
 502:C:/Workspace/DAVE-4.4.2-64Bit/xmc1400-getstarted-optiga-trust-m/Libraries/XMCLib/inc\xmc_scu.h **** /**
 503:C:/Workspace/DAVE-4.4.2-64Bit/xmc1400-getstarted-optiga-trust-m/Libraries/XMCLib/inc\xmc_scu.h ****  *
 504:C:/Workspace/DAVE-4.4.2-64Bit/xmc1400-getstarted-optiga-trust-m/Libraries/XMCLib/inc\xmc_scu.h ****  * @param  peripheral  The peripheral for which the check for clock gating has to be done. 
 505:C:/Workspace/DAVE-4.4.2-64Bit/xmc1400-getstarted-optiga-trust-m/Libraries/XMCLib/inc\xmc_scu.h ****  *                    \b Range: Use type @ref XMC_SCU_PERIPHERAL_CLOCK_t to identify the peripheral
 506:C:/Workspace/DAVE-4.4.2-64Bit/xmc1400-getstarted-optiga-trust-m/Libraries/XMCLib/inc\xmc_scu.h ****  *
 507:C:/Workspace/DAVE-4.4.2-64Bit/xmc1400-getstarted-optiga-trust-m/Libraries/XMCLib/inc\xmc_scu.h ****  * @return bool Status of the peripheral clock gating. \b Range: true if the peripheral clock is ga
 508:C:/Workspace/DAVE-4.4.2-64Bit/xmc1400-getstarted-optiga-trust-m/Libraries/XMCLib/inc\xmc_scu.h ****  *              false if the peripheral clock ungated(gate de-asserted).
 509:C:/Workspace/DAVE-4.4.2-64Bit/xmc1400-getstarted-optiga-trust-m/Libraries/XMCLib/inc\xmc_scu.h ****  *
 510:C:/Workspace/DAVE-4.4.2-64Bit/xmc1400-getstarted-optiga-trust-m/Libraries/XMCLib/inc\xmc_scu.h ****  * \par<b>Description</b><br>
 511:C:/Workspace/DAVE-4.4.2-64Bit/xmc1400-getstarted-optiga-trust-m/Libraries/XMCLib/inc\xmc_scu.h ****  * Gives the status of peripheral clock gating.\n\n
 512:C:/Workspace/DAVE-4.4.2-64Bit/xmc1400-getstarted-optiga-trust-m/Libraries/XMCLib/inc\xmc_scu.h ****  * \if XMC1
 513:C:/Workspace/DAVE-4.4.2-64Bit/xmc1400-getstarted-optiga-trust-m/Libraries/XMCLib/inc\xmc_scu.h ****  * Checks the status of peripheral clock gating using the register CGATSTAT0.
 514:C:/Workspace/DAVE-4.4.2-64Bit/xmc1400-getstarted-optiga-trust-m/Libraries/XMCLib/inc\xmc_scu.h ****  * \endif
 515:C:/Workspace/DAVE-4.4.2-64Bit/xmc1400-getstarted-optiga-trust-m/Libraries/XMCLib/inc\xmc_scu.h ****  * \if XMC4
 516:C:/Workspace/DAVE-4.4.2-64Bit/xmc1400-getstarted-optiga-trust-m/Libraries/XMCLib/inc\xmc_scu.h ****  * Checks the status of peripheral clock gating using one of CGATSTAT0, CGATSTAT1 or CGATSTAT2 regi
 517:C:/Workspace/DAVE-4.4.2-64Bit/xmc1400-getstarted-optiga-trust-m/Libraries/XMCLib/inc\xmc_scu.h ****  * \endif
 518:C:/Workspace/DAVE-4.4.2-64Bit/xmc1400-getstarted-optiga-trust-m/Libraries/XMCLib/inc\xmc_scu.h ****  * It is recommended to use this API before
 519:C:/Workspace/DAVE-4.4.2-64Bit/xmc1400-getstarted-optiga-trust-m/Libraries/XMCLib/inc\xmc_scu.h ****  * enabling the gating of any peripherals through \a XMC_SCU_CLOCK_GatePeripheralClock() API.
 520:C:/Workspace/DAVE-4.4.2-64Bit/xmc1400-getstarted-optiga-trust-m/Libraries/XMCLib/inc\xmc_scu.h ****  *
 521:C:/Workspace/DAVE-4.4.2-64Bit/xmc1400-getstarted-optiga-trust-m/Libraries/XMCLib/inc\xmc_scu.h ****  * \par<b>Related APIs:</b><BR>
 522:C:/Workspace/DAVE-4.4.2-64Bit/xmc1400-getstarted-optiga-trust-m/Libraries/XMCLib/inc\xmc_scu.h ****  * XMC_SCU_CLOCK_UngatePeripheralClock(), XMC_SCU_CLOCK_GatePeripheralClock() \n\n\n
 523:C:/Workspace/DAVE-4.4.2-64Bit/xmc1400-getstarted-optiga-trust-m/Libraries/XMCLib/inc\xmc_scu.h ****  */
 524:C:/Workspace/DAVE-4.4.2-64Bit/xmc1400-getstarted-optiga-trust-m/Libraries/XMCLib/inc\xmc_scu.h **** bool XMC_SCU_CLOCK_IsPeripheralClockGated(const XMC_SCU_PERIPHERAL_CLOCK_t peripheral);
 525:C:/Workspace/DAVE-4.4.2-64Bit/xmc1400-getstarted-optiga-trust-m/Libraries/XMCLib/inc\xmc_scu.h **** #endif
 526:C:/Workspace/DAVE-4.4.2-64Bit/xmc1400-getstarted-optiga-trust-m/Libraries/XMCLib/inc\xmc_scu.h **** 
 527:C:/Workspace/DAVE-4.4.2-64Bit/xmc1400-getstarted-optiga-trust-m/Libraries/XMCLib/inc\xmc_scu.h **** 
 528:C:/Workspace/DAVE-4.4.2-64Bit/xmc1400-getstarted-optiga-trust-m/Libraries/XMCLib/inc\xmc_scu.h **** /**
 529:C:/Workspace/DAVE-4.4.2-64Bit/xmc1400-getstarted-optiga-trust-m/Libraries/XMCLib/inc\xmc_scu.h ****  * @return  uint32_t  Status of the register mirror update.\n
 530:C:/Workspace/DAVE-4.4.2-64Bit/xmc1400-getstarted-optiga-trust-m/Libraries/XMCLib/inc\xmc_scu.h ****  *                    \b Range: Use the bit mask of the SCU_GENERAL_MIRRSTS register for the mirror
 531:C:/Workspace/DAVE-4.4.2-64Bit/xmc1400-getstarted-optiga-trust-m/Libraries/XMCLib/inc\xmc_scu.h ****  *                    interest. e.g.: SCU_GENERAL_MIRRSTS_RTC_CTR_Msk. Multiple update events can b
 532:C:/Workspace/DAVE-4.4.2-64Bit/xmc1400-getstarted-optiga-trust-m/Libraries/XMCLib/inc\xmc_scu.h ****  *                    using \a OR operation.
 533:C:/Workspace/DAVE-4.4.2-64Bit/xmc1400-getstarted-optiga-trust-m/Libraries/XMCLib/inc\xmc_scu.h ****  *
 534:C:/Workspace/DAVE-4.4.2-64Bit/xmc1400-getstarted-optiga-trust-m/Libraries/XMCLib/inc\xmc_scu.h ****  * \par<b>Description</b><br>
 535:C:/Workspace/DAVE-4.4.2-64Bit/xmc1400-getstarted-optiga-trust-m/Libraries/XMCLib/inc\xmc_scu.h ****  * Provides the status of hibernate domain register update, when the respective mirror registers ar
 536:C:/Workspace/DAVE-4.4.2-64Bit/xmc1400-getstarted-optiga-trust-m/Libraries/XMCLib/inc\xmc_scu.h ****  * The hibernate domain is connected to the core domain via SPI serial communication. MIRRSTS is a 
 537:C:/Workspace/DAVE-4.4.2-64Bit/xmc1400-getstarted-optiga-trust-m/Libraries/XMCLib/inc\xmc_scu.h ****  * representing the communication of changed value of a mirror register to its corresponding regist
 538:C:/Workspace/DAVE-4.4.2-64Bit/xmc1400-getstarted-optiga-trust-m/Libraries/XMCLib/inc\xmc_scu.h ****  * hibernate domain. The bit fields of the register indicate
 539:C:/Workspace/DAVE-4.4.2-64Bit/xmc1400-getstarted-optiga-trust-m/Libraries/XMCLib/inc\xmc_scu.h ****  * that a corresponding register of the hibernate domain is ready to accept a write or that the com
 540:C:/Workspace/DAVE-4.4.2-64Bit/xmc1400-getstarted-optiga-trust-m/Libraries/XMCLib/inc\xmc_scu.h ****  * is busy with executing the previous operation.\n
 541:C:/Workspace/DAVE-4.4.2-64Bit/xmc1400-getstarted-optiga-trust-m/Libraries/XMCLib/inc\xmc_scu.h ****  * Note: There is no hibernate domain in XMC1x devices. This register is retained for legacy purpos
 542:C:/Workspace/DAVE-4.4.2-64Bit/xmc1400-getstarted-optiga-trust-m/Libraries/XMCLib/inc\xmc_scu.h ****  */
 543:C:/Workspace/DAVE-4.4.2-64Bit/xmc1400-getstarted-optiga-trust-m/Libraries/XMCLib/inc\xmc_scu.h **** __STATIC_INLINE uint32_t XMC_SCU_GetMirrorStatus(void)
 544:C:/Workspace/DAVE-4.4.2-64Bit/xmc1400-getstarted-optiga-trust-m/Libraries/XMCLib/inc\xmc_scu.h **** {
 545:C:/Workspace/DAVE-4.4.2-64Bit/xmc1400-getstarted-optiga-trust-m/Libraries/XMCLib/inc\xmc_scu.h ****   return(SCU_GENERAL->MIRRSTS);
 271              	 .loc 3 545 0 discriminator 1
 272 0020 094B     	 ldr r3,.L22+4
 273 0022 996C     	 ldr r1,[r3,#72]
 274              	.LBE15:
 275              	.LBE14:
  85:../Libraries/XMCLib/src/xmc1_rtc.c **** 	{
 276              	 .loc 1 85 0 discriminator 1
 277 0024 1142     	 tst r1,r2
 278 0026 FAD1     	 bne .L19
  89:../Libraries/XMCLib/src/xmc1_rtc.c ****     RTC->TIM1 = config->time.raw1;
 279              	 .loc 1 89 0
 280 0028 2A68     	 ldr r2,[r5]
 281 002a 2262     	 str r2,[r4,#32]
  90:../Libraries/XMCLib/src/xmc1_rtc.c **** 	
 282              	 .loc 1 90 0
 283 002c 6A68     	 ldr r2,[r5,#4]
 284 002e 6262     	 str r2,[r4,#36]
 285              	.L20:
  92:../Libraries/XMCLib/src/xmc1_rtc.c ****     {
 286              	 .loc 1 92 0 discriminator 1
 287 0030 0622     	 mov r2,#6
 288              	.LBB16:
 289              	.LBB17:
 290              	 .loc 3 545 0 discriminator 1
 291 0032 996C     	 ldr r1,[r3,#72]
 292              	.LBE17:
 293              	.LBE16:
  92:../Libraries/XMCLib/src/xmc1_rtc.c ****     {
 294              	 .loc 1 92 0 discriminator 1
 295 0034 1142     	 tst r1,r2
 296 0036 FBD1     	 bne .L20
  96:../Libraries/XMCLib/src/xmc1_rtc.c ****     RTC->ATIM1 = config->alarm.raw1;    
 297              	 .loc 1 96 0
 298 0038 AB68     	 ldr r3,[r5,#8]
 299 003a A361     	 str r3,[r4,#24]
  97:../Libraries/XMCLib/src/xmc1_rtc.c ****   }
 300              	 .loc 1 97 0
 301 003c EB68     	 ldr r3,[r5,#12]
 302 003e E361     	 str r3,[r4,#28]
 303              	.LVL15:
 304              	.L17:
 100:../Libraries/XMCLib/src/xmc1_rtc.c **** 
 305              	 .loc 1 100 0
 306 0040 0020     	 mov r0,#0
 307              	 
 308 0042 38BD     	 pop {r3,r4,r5,pc}
 309              	.L23:
 310              	 .align 2
 311              	.L22:
 312 0044 000A0140 	 .word 1073809920
 313 0048 00000140 	 .word 1073807360
 314              	 .cfi_endproc
 315              	.LFE69:
 317              	 .text
 318              	.Letext0:
 319              	 .file 4 "c:\\dave_4-4-2_64bit\\dave-ide-4.4.2-64bit\\eclipse\\arm-gcc-49\\arm-none-eabi\\include\\machine\\_default_types.h"
 320              	 .file 5 "c:\\dave_4-4-2_64bit\\dave-ide-4.4.2-64bit\\eclipse\\arm-gcc-49\\arm-none-eabi\\include\\stdint.h"
 321              	 .file 6 "C:/Workspace/DAVE-4.4.2-64Bit/xmc1400-getstarted-optiga-trust-m/Libraries/CMSIS/Infineon/XMC1400_series/Include/XMC1400.h"
 322              	 .file 7 "C:/Workspace/DAVE-4.4.2-64Bit/xmc1400-getstarted-optiga-trust-m/Libraries/XMCLib/inc/xmc1_rtc.h"
 323              	 .file 8 "C:/Workspace/DAVE-4.4.2-64Bit/xmc1400-getstarted-optiga-trust-m/Libraries/XMCLib/inc/xmc1_scu.h"
 324              	 .file 9 "C:/Workspace/DAVE-4.4.2-64Bit/xmc1400-getstarted-optiga-trust-m/Libraries/CMSIS/Include/cmsis_gcc.h"
 325              	 .file 10 "C:/Workspace/DAVE-4.4.2-64Bit/xmc1400-getstarted-optiga-trust-m/Libraries/CMSIS/Infineon/XMC1400_series/Include/system_XMC1400.h"