   1              	 .cpu cortex-m0
   2              	 .fpu softvfp
   3              	 .eabi_attribute 20,1
   4              	 .eabi_attribute 21,1
   5              	 .eabi_attribute 23,3
   6              	 .eabi_attribute 24,1
   7              	 .eabi_attribute 25,1
   8              	 .eabi_attribute 26,1
   9              	 .eabi_attribute 30,4
  10              	 .eabi_attribute 34,0
  11              	 .eabi_attribute 18,4
  12              	 .code 16
  13              	 .file "xmc1_gpio.c"
  14              	 .text
  15              	.Ltext0:
  16              	 .cfi_sections .debug_frame
  17              	 .section .text.XMC_GPIO_Init,"ax",%progbits
  18              	 .align 1
  19              	 .global XMC_GPIO_Init
  20              	 .code 16
  21              	 .thumb_func
  23              	XMC_GPIO_Init:
  24              	.LFB57:
  25              	 .file 1 "../Libraries/XMCLib/src/xmc1_gpio.c"
   1:../Libraries/XMCLib/src/xmc1_gpio.c **** /**
   2:../Libraries/XMCLib/src/xmc1_gpio.c ****  * @file xmc1_gpio.c
   3:../Libraries/XMCLib/src/xmc1_gpio.c ****  * @date 2019-02-19
   4:../Libraries/XMCLib/src/xmc1_gpio.c ****  *
   5:../Libraries/XMCLib/src/xmc1_gpio.c ****  * @cond
   6:../Libraries/XMCLib/src/xmc1_gpio.c ****  **************************************************************************************************
   7:../Libraries/XMCLib/src/xmc1_gpio.c ****  * XMClib v2.1.24 - XMC Peripheral Driver Library 
   8:../Libraries/XMCLib/src/xmc1_gpio.c ****  *
   9:../Libraries/XMCLib/src/xmc1_gpio.c ****  * Copyright (c) 2015-2019, Infineon Technologies AG
  10:../Libraries/XMCLib/src/xmc1_gpio.c ****  * All rights reserved.                        
  11:../Libraries/XMCLib/src/xmc1_gpio.c ****  *                                             
  12:../Libraries/XMCLib/src/xmc1_gpio.c ****  * Redistribution and use in source and binary forms, with or without modification,are permitted pr
  13:../Libraries/XMCLib/src/xmc1_gpio.c ****  * following conditions are met:   
  14:../Libraries/XMCLib/src/xmc1_gpio.c ****  *                                                                              
  15:../Libraries/XMCLib/src/xmc1_gpio.c ****  * Redistributions of source code must retain the above copyright notice, this list of conditions a
  16:../Libraries/XMCLib/src/xmc1_gpio.c ****  * disclaimer.                        
  17:../Libraries/XMCLib/src/xmc1_gpio.c ****  * 
  18:../Libraries/XMCLib/src/xmc1_gpio.c ****  * Redistributions in binary form must reproduce the above copyright notice, this list of condition
  19:../Libraries/XMCLib/src/xmc1_gpio.c ****  * disclaimer in the documentation and/or other materials provided with the distribution.          
  20:../Libraries/XMCLib/src/xmc1_gpio.c ****  * 
  21:../Libraries/XMCLib/src/xmc1_gpio.c ****  * Neither the name of the copyright holders nor the names of its contributors may be used to endor
  22:../Libraries/XMCLib/src/xmc1_gpio.c ****  * products derived from this software without specific prior written permission.                  
  23:../Libraries/XMCLib/src/xmc1_gpio.c ****  *                                                                              
  24:../Libraries/XMCLib/src/xmc1_gpio.c ****  * THIS SOFTWARE IS PROVIDED BY THE COPYRIGHT HOLDERS AND CONTRIBUTORS "AS IS" AND ANY EXPRESS OR I
  25:../Libraries/XMCLib/src/xmc1_gpio.c ****  * INCLUDING, BUT NOT LIMITED TO, THE IMPLIED WARRANTIES OF MERCHANTABILITY AND FITNESS FOR A PARTI
  26:../Libraries/XMCLib/src/xmc1_gpio.c ****  * DISCLAIMED. IN NO EVENT SHALL THE COPYRIGHT HOLDER OR CONTRIBUTORS BE LIABLE  FOR ANY DIRECT, IN
  27:../Libraries/XMCLib/src/xmc1_gpio.c ****  * SPECIAL, EXEMPLARY, OR CONSEQUENTIAL DAMAGES (INCLUDING, BUT NOT LIMITED TO, PROCUREMENT OF SUBS
  28:../Libraries/XMCLib/src/xmc1_gpio.c ****  * SERVICES; LOSS OF USE, DATA, OR PROFITS; OR BUSINESS INTERRUPTION) HOWEVER CAUSED AND ON ANY THE
  29:../Libraries/XMCLib/src/xmc1_gpio.c ****  * WHETHER IN CONTRACT, STRICT LIABILITY,OR TORT (INCLUDING NEGLIGENCE OR OTHERWISE) ARISING IN ANY
  30:../Libraries/XMCLib/src/xmc1_gpio.c ****  * OF THIS SOFTWARE, EVEN IF ADVISED OF THE POSSIBILITY OF SUCH DAMAGE.                            
  31:../Libraries/XMCLib/src/xmc1_gpio.c ****  *                                                                              
  32:../Libraries/XMCLib/src/xmc1_gpio.c ****  * To improve the quality of the software, users are encouraged to share modifications, enhancement
  33:../Libraries/XMCLib/src/xmc1_gpio.c ****  * Infineon Technologies AG dave@infineon.com).                                                    
  34:../Libraries/XMCLib/src/xmc1_gpio.c ****  **************************************************************************************************
  35:../Libraries/XMCLib/src/xmc1_gpio.c ****  *
  36:../Libraries/XMCLib/src/xmc1_gpio.c ****  * Change History
  37:../Libraries/XMCLib/src/xmc1_gpio.c ****  * --------------
  38:../Libraries/XMCLib/src/xmc1_gpio.c ****  *
  39:../Libraries/XMCLib/src/xmc1_gpio.c ****  * 2015-02-20:
  40:../Libraries/XMCLib/src/xmc1_gpio.c ****  *     - Initial draft <br>
  41:../Libraries/XMCLib/src/xmc1_gpio.c ****  *      
  42:../Libraries/XMCLib/src/xmc1_gpio.c ****  * 2015-06-20:
  43:../Libraries/XMCLib/src/xmc1_gpio.c ****  *     - Removed version macros and declaration of GetDriverVersion API
  44:../Libraries/XMCLib/src/xmc1_gpio.c ****  *
  45:../Libraries/XMCLib/src/xmc1_gpio.c ****  * 2017-09-15:
  46:../Libraries/XMCLib/src/xmc1_gpio.c ****  *     - Fix side effects on output level when programming a pin as input after the same pin in ano
  47:../Libraries/XMCLib/src/xmc1_gpio.c ****  * 
  48:../Libraries/XMCLib/src/xmc1_gpio.c ****  * 2019-02-19:
  49:../Libraries/XMCLib/src/xmc1_gpio.c ****  *     - Fix initialization of initial output level in case pin is an analog pin and configured as 
  50:../Libraries/XMCLib/src/xmc1_gpio.c ****  *
  51:../Libraries/XMCLib/src/xmc1_gpio.c ****  * @endcond
  52:../Libraries/XMCLib/src/xmc1_gpio.c ****  *
  53:../Libraries/XMCLib/src/xmc1_gpio.c ****  */
  54:../Libraries/XMCLib/src/xmc1_gpio.c **** 
  55:../Libraries/XMCLib/src/xmc1_gpio.c **** #include "xmc_gpio.h"
  56:../Libraries/XMCLib/src/xmc1_gpio.c **** 
  57:../Libraries/XMCLib/src/xmc1_gpio.c **** #if UC_FAMILY == XMC1
  58:../Libraries/XMCLib/src/xmc1_gpio.c **** 
  59:../Libraries/XMCLib/src/xmc1_gpio.c **** /*******************************************************************************
  60:../Libraries/XMCLib/src/xmc1_gpio.c ****  * MACROS
  61:../Libraries/XMCLib/src/xmc1_gpio.c ****  *******************************************************************************/
  62:../Libraries/XMCLib/src/xmc1_gpio.c **** 
  63:../Libraries/XMCLib/src/xmc1_gpio.c **** #define PORT_PHCR_Msk             PORT0_PHCR0_PH0_Msk
  64:../Libraries/XMCLib/src/xmc1_gpio.c **** #define PORT_PHCR_Size            PORT0_PHCR0_PH0_Msk
  65:../Libraries/XMCLib/src/xmc1_gpio.c **** #define PORT_HWSEL_Msk            PORT0_HWSEL_HW0_Msk
  66:../Libraries/XMCLib/src/xmc1_gpio.c **** #define XMC_GPIO_MODE_OE          XMC_GPIO_MODE_OUTPUT_PUSH_PULL
  67:../Libraries/XMCLib/src/xmc1_gpio.c **** 
  68:../Libraries/XMCLib/src/xmc1_gpio.c **** /*******************************************************************************
  69:../Libraries/XMCLib/src/xmc1_gpio.c ****  * API IMPLEMENTATION
  70:../Libraries/XMCLib/src/xmc1_gpio.c ****  *******************************************************************************/
  71:../Libraries/XMCLib/src/xmc1_gpio.c **** 
  72:../Libraries/XMCLib/src/xmc1_gpio.c **** void XMC_GPIO_Init(XMC_GPIO_PORT_t *const port, const uint8_t pin, const XMC_GPIO_CONFIG_t *const c
  73:../Libraries/XMCLib/src/xmc1_gpio.c **** {
  26              	 .loc 1 73 0
  27              	 .cfi_startproc
  28              	.LVL0:
  29 0000 F7B5     	 push {r0,r1,r2,r4,r5,r6,r7,lr}
  30              	.LCFI0:
  31              	 .cfi_def_cfa_offset 32
  32              	 .cfi_offset 0,-32
  33              	 .cfi_offset 1,-28
  34              	 .cfi_offset 2,-24
  35              	 .cfi_offset 4,-20
  36              	 .cfi_offset 5,-16
  37              	 .cfi_offset 6,-12
  38              	 .cfi_offset 7,-8
  39              	 .cfi_offset 14,-4
  74:../Libraries/XMCLib/src/xmc1_gpio.c ****   XMC_ASSERT("XMC_GPIO_Init: Invalid port", XMC_GPIO_CHECK_PORT(port));
  75:../Libraries/XMCLib/src/xmc1_gpio.c ****   XMC_ASSERT("XMC_GPIO_Init: Invalid mode", XMC_GPIO_IsModeValid(config->mode));
  76:../Libraries/XMCLib/src/xmc1_gpio.c ****   XMC_ASSERT("XMC_GPIO_Init: Invalid input hysteresis", XMC_GPIO_CHECK_INPUT_HYSTERESIS(config->inp
  77:../Libraries/XMCLib/src/xmc1_gpio.c ****   
  78:../Libraries/XMCLib/src/xmc1_gpio.c ****   /* Switch to input */
  79:../Libraries/XMCLib/src/xmc1_gpio.c ****   port->IOCR[pin >> 2U] &= ~(uint32_t)((uint32_t)PORT_IOCR_PC_Msk << (PORT_IOCR_PC_Size * (pin & 0x
  40              	 .loc 1 79 0
  41 0002 0325     	 mov r5,#3
  42 0004 0C1C     	 mov r4,r1
  43 0006 2C40     	 and r4,r5
  44 0008 AC40     	 lsl r4,r4,r5
  45 000a 0194     	 str r4,[sp,#4]
  46 000c FC24     	 mov r4,#252
  47 000e 019E     	 ldr r6,[sp,#4]
  48 0010 8B08     	 lsr r3,r1,#2
  49 0012 B440     	 lsl r4,r4,r6
  50 0014 9B00     	 lsl r3,r3,#2
  51 0016 C318     	 add r3,r0,r3
  52 0018 1F69     	 ldr r7,[r3,#16]
  80:../Libraries/XMCLib/src/xmc1_gpio.c **** 
  81:../Libraries/XMCLib/src/xmc1_gpio.c ****   /* HW port control is disabled */
  82:../Libraries/XMCLib/src/xmc1_gpio.c ****   port->HWSEL &= ~(uint32_t)((uint32_t)PORT_HWSEL_Msk << ((uint32_t)pin << 1U));
  83:../Libraries/XMCLib/src/xmc1_gpio.c **** 
  84:../Libraries/XMCLib/src/xmc1_gpio.c ****   /* Set input hysteresis */
  85:../Libraries/XMCLib/src/xmc1_gpio.c ****   port->PHCR[(uint32_t)pin >> 3U] &= ~(uint32_t)((uint32_t)PORT_PHCR_Msk << ((uint32_t)PORT_PHCR_Si
  53              	 .loc 1 85 0
  54 001a 0426     	 mov r6,#4
  79:../Libraries/XMCLib/src/xmc1_gpio.c **** 
  55              	 .loc 1 79 0
  56 001c A743     	 bic r7,r4
  57 001e 1F61     	 str r7,[r3,#16]
  82:../Libraries/XMCLib/src/xmc1_gpio.c **** 
  58              	 .loc 1 82 0
  59 0020 4F00     	 lsl r7,r1,#1
  60 0022 BD40     	 lsl r5,r5,r7
  61 0024 446F     	 ldr r4,[r0,#116]
  62 0026 AC43     	 bic r4,r5
  63              	 .loc 1 85 0
  64 0028 0725     	 mov r5,#7
  65 002a 0D40     	 and r5,r1
  66 002c AD00     	 lsl r5,r5,#2
  67 002e AE40     	 lsl r6,r6,r5
  82:../Libraries/XMCLib/src/xmc1_gpio.c **** 
  68              	 .loc 1 82 0
  69 0030 4467     	 str r4,[r0,#116]
  70              	 .loc 1 85 0
  71 0032 CC08     	 lsr r4,r1,#3
  72 0034 A400     	 lsl r4,r4,#2
  73 0036 0419     	 add r4,r0,r4
  74 0038 276C     	 ldr r7,[r4,#64]
  75 003a B743     	 bic r7,r6
  76 003c 2764     	 str r7,[r4,#64]
  86:../Libraries/XMCLib/src/xmc1_gpio.c ****   port->PHCR[(uint32_t)pin >> 3U] |= (uint32_t)config->input_hysteresis << ((uint32_t)PORT_PHCR_Siz
  77              	 .loc 1 86 0
  78 003e 5678     	 ldrb r6,[r2,#1]
  79 0040 276C     	 ldr r7,[r4,#64]
  80 0042 AE40     	 lsl r6,r6,r5
  81 0044 351C     	 mov r5,r6
  82 0046 3D43     	 orr r5,r7
  83 0048 2564     	 str r5,[r4,#64]
  87:../Libraries/XMCLib/src/xmc1_gpio.c ****     
  88:../Libraries/XMCLib/src/xmc1_gpio.c ****   /* Enable digital input */
  89:../Libraries/XMCLib/src/xmc1_gpio.c ****   if (XMC_GPIO_CHECK_ANALOG_PORT(port))
  84              	 .loc 1 89 0
  85 004a 0A4C     	 ldr r4,.L5
  86 004c A042     	 cmp r0,r4
  87 004e 04D1     	 bne .L2
  90:../Libraries/XMCLib/src/xmc1_gpio.c ****   {    
  91:../Libraries/XMCLib/src/xmc1_gpio.c ****     port->PDISC &= ~(uint32_t)((uint32_t)0x1U << pin);
  88              	 .loc 1 91 0
  89 0050 0125     	 mov r5,#1
  90 0052 8D40     	 lsl r5,r5,r1
  91 0054 046E     	 ldr r4,[r0,#96]
  92 0056 AC43     	 bic r4,r5
  93 0058 0466     	 str r4,[r0,#96]
  94              	.L2:
  92:../Libraries/XMCLib/src/xmc1_gpio.c ****   }
  93:../Libraries/XMCLib/src/xmc1_gpio.c **** 
  94:../Libraries/XMCLib/src/xmc1_gpio.c ****   if ((config->mode & XMC_GPIO_MODE_OE) != 0)
  95              	 .loc 1 94 0
  96 005a 1478     	 ldrb r4,[r2]
  97 005c 65B2     	 sxtb r5,r4
  98 005e 002D     	 cmp r5,#0
  99 0060 02DA     	 bge .L3
  95:../Libraries/XMCLib/src/xmc1_gpio.c ****   {
  96:../Libraries/XMCLib/src/xmc1_gpio.c ****     /* If output is enabled */
  97:../Libraries/XMCLib/src/xmc1_gpio.c **** 
  98:../Libraries/XMCLib/src/xmc1_gpio.c ****     /* Set output level */
  99:../Libraries/XMCLib/src/xmc1_gpio.c ****     port->OMR = (uint32_t)config->output_level << pin;
 100              	 .loc 1 99 0
 101 0062 5268     	 ldr r2,[r2,#4]
 102              	.LVL1:
 103 0064 8A40     	 lsl r2,r2,r1
 104 0066 4260     	 str r2,[r0,#4]
 105              	.L3:
 100:../Libraries/XMCLib/src/xmc1_gpio.c ****   }
 101:../Libraries/XMCLib/src/xmc1_gpio.c ****   
 102:../Libraries/XMCLib/src/xmc1_gpio.c ****   /* Set mode */
 103:../Libraries/XMCLib/src/xmc1_gpio.c ****   port->IOCR[pin >> 2U] |= (uint32_t)config->mode << (PORT_IOCR_PC_Size * (pin & 0x3U));
 106              	 .loc 1 103 0
 107 0068 0199     	 ldr r1,[sp,#4]
 108              	.LVL2:
 109 006a 1A69     	 ldr r2,[r3,#16]
 110 006c 8C40     	 lsl r4,r4,r1
 111 006e 1443     	 orr r4,r2
 112 0070 1C61     	 str r4,[r3,#16]
 104:../Libraries/XMCLib/src/xmc1_gpio.c **** }
 113              	 .loc 1 104 0
 114              	 
 115 0072 F7BD     	 pop {r0,r1,r2,r4,r5,r6,r7,pc}
 116              	.L6:
 117              	 .align 2
 118              	.L5:
 119 0074 00020440 	 .word 1074004480
 120              	 .cfi_endproc
 121              	.LFE57:
 123              	 .section .text.XMC_GPIO_SetInputHysteresis,"ax",%progbits
 124              	 .align 1
 125              	 .global XMC_GPIO_SetInputHysteresis
 126              	 .code 16
 127              	 .thumb_func
 129              	XMC_GPIO_SetInputHysteresis:
 130              	.LFB58:
 105:../Libraries/XMCLib/src/xmc1_gpio.c **** 
 106:../Libraries/XMCLib/src/xmc1_gpio.c **** void XMC_GPIO_SetInputHysteresis(XMC_GPIO_PORT_t *const port, 
 107:../Libraries/XMCLib/src/xmc1_gpio.c ****                                  const uint8_t pin, 
 108:../Libraries/XMCLib/src/xmc1_gpio.c ****                                  const XMC_GPIO_INPUT_HYSTERESIS_t hysteresis)
 109:../Libraries/XMCLib/src/xmc1_gpio.c **** {
 131              	 .loc 1 109 0
 132              	 .cfi_startproc
 133              	.LVL3:
 110:../Libraries/XMCLib/src/xmc1_gpio.c ****   XMC_ASSERT("XMC_GPIO_SetInputHysteresis: Invalid port", XMC_GPIO_CHECK_PORT(port));
 111:../Libraries/XMCLib/src/xmc1_gpio.c ****   XMC_ASSERT("XMC_GPIO_SetInputHysteresis: Invalid input hysteresis", XMC_GPIO_CHECK_INPUT_HYSTERES
 112:../Libraries/XMCLib/src/xmc1_gpio.c **** 
 113:../Libraries/XMCLib/src/xmc1_gpio.c ****   port->PHCR[(uint32_t)pin >> 3U] &= ~(uint32_t)((uint32_t)PORT_PHCR_Msk << ((uint32_t)PORT_PHCR_Si
 134              	 .loc 1 113 0
 135 0000 CB08     	 lsr r3,r1,#3
 136 0002 9B00     	 lsl r3,r3,#2
 137 0004 C018     	 add r0,r0,r3
 138              	.LVL4:
 139 0006 0723     	 mov r3,#7
 140 0008 1940     	 and r1,r3
 141              	.LVL5:
 142 000a 8900     	 lsl r1,r1,#2
 114:../Libraries/XMCLib/src/xmc1_gpio.c ****   port->PHCR[(uint32_t)pin >> 3U] |= (uint32_t)hysteresis << ((uint32_t)PORT_PHCR_Size * ((uint32_t
 143              	 .loc 1 114 0
 144 000c 8A40     	 lsl r2,r2,r1
 145              	.LVL6:
 113:../Libraries/XMCLib/src/xmc1_gpio.c ****   port->PHCR[(uint32_t)pin >> 3U] |= (uint32_t)hysteresis << ((uint32_t)PORT_PHCR_Size * ((uint32_t
 146              	 .loc 1 113 0
 147 000e 033B     	 sub r3,r3,#3
 148 0010 8B40     	 lsl r3,r3,r1
 149              	 .loc 1 114 0
 150 0012 111C     	 mov r1,r2
 109:../Libraries/XMCLib/src/xmc1_gpio.c ****   XMC_ASSERT("XMC_GPIO_SetInputHysteresis: Invalid port", XMC_GPIO_CHECK_PORT(port));
 151              	 .loc 1 109 0
 152 0014 10B5     	 push {r4,lr}
 153              	.LCFI1:
 154              	 .cfi_def_cfa_offset 8
 155              	 .cfi_offset 4,-8
 156              	 .cfi_offset 14,-4
 113:../Libraries/XMCLib/src/xmc1_gpio.c ****   port->PHCR[(uint32_t)pin >> 3U] |= (uint32_t)hysteresis << ((uint32_t)PORT_PHCR_Size * ((uint32_t
 157              	 .loc 1 113 0
 158 0016 046C     	 ldr r4,[r0,#64]
 115:../Libraries/XMCLib/src/xmc1_gpio.c **** }
 159              	 .loc 1 115 0
 160              	 
 113:../Libraries/XMCLib/src/xmc1_gpio.c ****   port->PHCR[(uint32_t)pin >> 3U] |= (uint32_t)hysteresis << ((uint32_t)PORT_PHCR_Size * ((uint32_t
 161              	 .loc 1 113 0
 162 0018 9C43     	 bic r4,r3
 163 001a 0464     	 str r4,[r0,#64]
 114:../Libraries/XMCLib/src/xmc1_gpio.c **** }
 164              	 .loc 1 114 0
 165 001c 036C     	 ldr r3,[r0,#64]
 166 001e 1943     	 orr r1,r3
 167 0020 0164     	 str r1,[r0,#64]
 168              	 .loc 1 115 0
 169 0022 10BD     	 pop {r4,pc}
 170              	 .cfi_endproc
 171              	.LFE58:
 173              	 .text
 174              	.Letext0:
 175              	 .file 2 "c:\\dave_4-4-2_64bit\\dave-ide-4.4.2-64bit\\eclipse\\arm-gcc-49\\arm-none-eabi\\include\\machine\\_default_types.h"
 176              	 .file 3 "c:\\dave_4-4-2_64bit\\dave-ide-4.4.2-64bit\\eclipse\\arm-gcc-49\\arm-none-eabi\\include\\stdint.h"
 177              	 .file 4 "C:/Workspace/DAVE-4.4.2-64Bit/xmc1400-getstarted-optiga-trust-m/Libraries/XMCLib/inc/xmc_gpio.h"
 178              	 .file 5 "C:/Workspace/DAVE-4.4.2-64Bit/xmc1400-getstarted-optiga-trust-m/Libraries/XMCLib/inc/xmc1_gpio.h"
 179              	 .file 6 "C:/Workspace/DAVE-4.4.2-64Bit/xmc1400-getstarted-optiga-trust-m/Libraries/CMSIS/Include/cmsis_gcc.h"