   1              	 .cpu cortex-m0
   2              	 .fpu softvfp
   3              	 .eabi_attribute 20,1
   4              	 .eabi_attribute 21,1
   5              	 .eabi_attribute 23,3
   6              	 .eabi_attribute 24,1
   7              	 .eabi_attribute 25,1
   8              	 .eabi_attribute 26,1
   9              	 .eabi_attribute 30,4
  10              	 .eabi_attribute 34,0
  11              	 .eabi_attribute 18,4
  12              	 .code 16
  13              	 .file "xmc_spi.c"
  14              	 .text
  15              	.Ltext0:
  16              	 .cfi_sections .debug_frame
  17              	 .section .text.XMC_SPI_CH_Init,"ax",%progbits
  18              	 .align 1
  19              	 .global XMC_SPI_CH_Init
  20              	 .code 16
  21              	 .thumb_func
  23              	XMC_SPI_CH_Init:
  24              	.LFB166:
  25              	 .file 1 "../Libraries/XMCLib/src/xmc_spi.c"
   1:../Libraries/XMCLib/src/xmc_spi.c **** /**
   2:../Libraries/XMCLib/src/xmc_spi.c ****  * @file xmc_spi.c
   3:../Libraries/XMCLib/src/xmc_spi.c ****  * @date 2019-05-07
   4:../Libraries/XMCLib/src/xmc_spi.c ****  *
   5:../Libraries/XMCLib/src/xmc_spi.c ****  * @cond
   6:../Libraries/XMCLib/src/xmc_spi.c ****  **************************************************************************************************
   7:../Libraries/XMCLib/src/xmc_spi.c ****  * XMClib v2.1.24 - XMC Peripheral Driver Library 
   8:../Libraries/XMCLib/src/xmc_spi.c ****  *
   9:../Libraries/XMCLib/src/xmc_spi.c ****  * Copyright (c) 2015-2019, Infineon Technologies AG
  10:../Libraries/XMCLib/src/xmc_spi.c ****  * All rights reserved.                        
  11:../Libraries/XMCLib/src/xmc_spi.c ****  *                                             
  12:../Libraries/XMCLib/src/xmc_spi.c ****  * Redistribution and use in source and binary forms, with or without modification,are permitted pr
  13:../Libraries/XMCLib/src/xmc_spi.c ****  * following conditions are met:   
  14:../Libraries/XMCLib/src/xmc_spi.c ****  *                                                                              
  15:../Libraries/XMCLib/src/xmc_spi.c ****  * Redistributions of source code must retain the above copyright notice, this list of conditions a
  16:../Libraries/XMCLib/src/xmc_spi.c ****  * disclaimer.                        
  17:../Libraries/XMCLib/src/xmc_spi.c ****  * 
  18:../Libraries/XMCLib/src/xmc_spi.c ****  * Redistributions in binary form must reproduce the above copyright notice, this list of condition
  19:../Libraries/XMCLib/src/xmc_spi.c ****  * disclaimer in the documentation and/or other materials provided with the distribution.          
  20:../Libraries/XMCLib/src/xmc_spi.c ****  * 
  21:../Libraries/XMCLib/src/xmc_spi.c ****  * Neither the name of the copyright holders nor the names of its contributors may be used to endor
  22:../Libraries/XMCLib/src/xmc_spi.c ****  * products derived from this software without specific prior written permission.                  
  23:../Libraries/XMCLib/src/xmc_spi.c ****  *                                                                              
  24:../Libraries/XMCLib/src/xmc_spi.c ****  * THIS SOFTWARE IS PROVIDED BY THE COPYRIGHT HOLDERS AND CONTRIBUTORS "AS IS" AND ANY EXPRESS OR I
  25:../Libraries/XMCLib/src/xmc_spi.c ****  * INCLUDING, BUT NOT LIMITED TO, THE IMPLIED WARRANTIES OF MERCHANTABILITY AND FITNESS FOR A PARTI
  26:../Libraries/XMCLib/src/xmc_spi.c ****  * DISCLAIMED. IN NO EVENT SHALL THE COPYRIGHT HOLDER OR CONTRIBUTORS BE LIABLE  FOR ANY DIRECT, IN
  27:../Libraries/XMCLib/src/xmc_spi.c ****  * SPECIAL, EXEMPLARY, OR CONSEQUENTIAL DAMAGES (INCLUDING, BUT NOT LIMITED TO, PROCUREMENT OF SUBS
  28:../Libraries/XMCLib/src/xmc_spi.c ****  * SERVICES; LOSS OF USE, DATA, OR PROFITS; OR BUSINESS INTERRUPTION) HOWEVER CAUSED AND ON ANY THE
  29:../Libraries/XMCLib/src/xmc_spi.c ****  * WHETHER IN CONTRACT, STRICT LIABILITY,OR TORT (INCLUDING NEGLIGENCE OR OTHERWISE) ARISING IN ANY
  30:../Libraries/XMCLib/src/xmc_spi.c ****  * OF THIS SOFTWARE, EVEN IF ADVISED OF THE POSSIBILITY OF SUCH DAMAGE.                            
  31:../Libraries/XMCLib/src/xmc_spi.c ****  *                                                                              
  32:../Libraries/XMCLib/src/xmc_spi.c ****  * To improve the quality of the software, users are encouraged to share modifications, enhancement
  33:../Libraries/XMCLib/src/xmc_spi.c ****  * Infineon Technologies AG dave@infineon.com).                                                    
  34:../Libraries/XMCLib/src/xmc_spi.c ****  **************************************************************************************************
  35:../Libraries/XMCLib/src/xmc_spi.c ****  *
  36:../Libraries/XMCLib/src/xmc_spi.c ****  * Change History
  37:../Libraries/XMCLib/src/xmc_spi.c ****  * --------------
  38:../Libraries/XMCLib/src/xmc_spi.c ****  *
  39:../Libraries/XMCLib/src/xmc_spi.c ****  * 2015-02-20:
  40:../Libraries/XMCLib/src/xmc_spi.c ****  *     - Initial <br>
  41:../Libraries/XMCLib/src/xmc_spi.c ****  *      
  42:../Libraries/XMCLib/src/xmc_spi.c ****  * 2015-05-20:
  43:../Libraries/XMCLib/src/xmc_spi.c ****  *     - Modified XMC_SPI_CH_Stop() API for not setting to IDLE the channel if it is busy
  44:../Libraries/XMCLib/src/xmc_spi.c ****  *     - Modified XMC_SPI_CH_SetInterwordDelay() implementation in order to gain accuracy <br>
  45:../Libraries/XMCLib/src/xmc_spi.c ****  *     
  46:../Libraries/XMCLib/src/xmc_spi.c ****  * 2015-06-20:
  47:../Libraries/XMCLib/src/xmc_spi.c ****  *     - Removed GetDriverVersion API <br>
  48:../Libraries/XMCLib/src/xmc_spi.c ****  *
  49:../Libraries/XMCLib/src/xmc_spi.c ****  * 2015-09-01:
  50:../Libraries/XMCLib/src/xmc_spi.c ****  *     - Modified XMC_SPI_CH_EnableEvent() and XMC_SPI_CH_DisableEvent() for supporting multiple ev
  51:../Libraries/XMCLib/src/xmc_spi.c ****  *
  52:../Libraries/XMCLib/src/xmc_spi.c ****  * 2015-11-04: 
  53:../Libraries/XMCLib/src/xmc_spi.c ****  *     - Modified the check of XMC_USIC_CH_GetTransmitBufferStatus() in the XMC_SPI_CH_Transmit() f
  54:../Libraries/XMCLib/src/xmc_spi.c ****  *
  55:../Libraries/XMCLib/src/xmc_spi.c ****  * 2019-05-07:
  56:../Libraries/XMCLib/src/xmc_spi.c ****  *     - Added XMC_SPI_CH_SetBaudrateEx() which allows to select between baudrate generator normal 
  57:../Libraries/XMCLib/src/xmc_spi.c ****  *
  58:../Libraries/XMCLib/src/xmc_spi.c ****  * @endcond 
  59:../Libraries/XMCLib/src/xmc_spi.c ****  *
  60:../Libraries/XMCLib/src/xmc_spi.c ****  */
  61:../Libraries/XMCLib/src/xmc_spi.c **** /**
  62:../Libraries/XMCLib/src/xmc_spi.c ****  *
  63:../Libraries/XMCLib/src/xmc_spi.c ****  * @brief SPI driver for XMC microcontroller family
  64:../Libraries/XMCLib/src/xmc_spi.c ****  *
  65:../Libraries/XMCLib/src/xmc_spi.c ****  */
  66:../Libraries/XMCLib/src/xmc_spi.c **** /**************************************************************************************************
  67:../Libraries/XMCLib/src/xmc_spi.c ****  * HEADER FILES
  68:../Libraries/XMCLib/src/xmc_spi.c ****  **************************************************************************************************
  69:../Libraries/XMCLib/src/xmc_spi.c **** 
  70:../Libraries/XMCLib/src/xmc_spi.c **** #include <xmc_scu.h>
  71:../Libraries/XMCLib/src/xmc_spi.c **** #include <xmc_spi.h>
  72:../Libraries/XMCLib/src/xmc_spi.c **** 
  73:../Libraries/XMCLib/src/xmc_spi.c **** /**************************************************************************************************
  74:../Libraries/XMCLib/src/xmc_spi.c ****  * MACROS
  75:../Libraries/XMCLib/src/xmc_spi.c ****  **************************************************************************************************
  76:../Libraries/XMCLib/src/xmc_spi.c **** #define XMC_SPI_CH_OVERSAMPLING (2UL)
  77:../Libraries/XMCLib/src/xmc_spi.c **** 
  78:../Libraries/XMCLib/src/xmc_spi.c **** /**************************************************************************************************
  79:../Libraries/XMCLib/src/xmc_spi.c ****  * API IMPLEMENTATION
  80:../Libraries/XMCLib/src/xmc_spi.c ****  **************************************************************************************************
  81:../Libraries/XMCLib/src/xmc_spi.c ****  
  82:../Libraries/XMCLib/src/xmc_spi.c **** /* Initializes the selected SPI channel with the config structure. */
  83:../Libraries/XMCLib/src/xmc_spi.c **** void XMC_SPI_CH_Init(XMC_USIC_CH_t *const channel, const XMC_SPI_CH_CONFIG_t *const config)
  84:../Libraries/XMCLib/src/xmc_spi.c **** {
  26              	 .loc 1 84 0
  27              	 .cfi_startproc
  28              	.LVL0:
  29 0000 38B5     	 push {r3,r4,r5,lr}
  30              	.LCFI0:
  31              	 .cfi_def_cfa_offset 16
  32              	 .cfi_offset 3,-16
  33              	 .cfi_offset 4,-12
  34              	 .cfi_offset 5,-8
  35              	 .cfi_offset 14,-4
  36              	 .loc 1 84 0
  37 0002 0D1C     	 mov r5,r1
  38 0004 041C     	 mov r4,r0
  85:../Libraries/XMCLib/src/xmc_spi.c ****   XMC_USIC_CH_Enable(channel);
  39              	 .loc 1 85 0
  40 0006 FFF7FEFF 	 bl XMC_USIC_CH_Enable
  41              	.LVL1:
  86:../Libraries/XMCLib/src/xmc_spi.c ****   
  87:../Libraries/XMCLib/src/xmc_spi.c ****   if(config->bus_mode == XMC_SPI_CH_BUS_MODE_MASTER)
  42              	 .loc 1 87 0
  43 000a 6B79     	 ldrb r3,[r5,#5]
  44 000c 002B     	 cmp r3,#0
  45 000e 0AD1     	 bne .L2
  88:../Libraries/XMCLib/src/xmc_spi.c ****   {
  89:../Libraries/XMCLib/src/xmc_spi.c ****     /* Configure baud rate */
  90:../Libraries/XMCLib/src/xmc_spi.c ****     if (config->normal_divider_mode)
  46              	 .loc 1 90 0
  47 0010 2B79     	 ldrb r3,[r5,#4]
  91:../Libraries/XMCLib/src/xmc_spi.c ****     {
  92:../Libraries/XMCLib/src/xmc_spi.c ****       /* Normal divider mode */
  93:../Libraries/XMCLib/src/xmc_spi.c ****       (void)XMC_USIC_CH_SetBaudrateEx(channel, config->baudrate, XMC_SPI_CH_OVERSAMPLING); 
  48              	 .loc 1 93 0
  49 0012 201C     	 mov r0,r4
  50 0014 2968     	 ldr r1,[r5]
  51 0016 0222     	 mov r2,#2
  90:../Libraries/XMCLib/src/xmc_spi.c ****     {
  52              	 .loc 1 90 0
  53 0018 002B     	 cmp r3,#0
  54 001a 02D0     	 beq .L3
  55              	 .loc 1 93 0
  56 001c FFF7FEFF 	 bl XMC_USIC_CH_SetBaudrateEx
  57              	.LVL2:
  58 0020 01E0     	 b .L2
  59              	.LVL3:
  60              	.L3:
  94:../Libraries/XMCLib/src/xmc_spi.c ****     }
  95:../Libraries/XMCLib/src/xmc_spi.c ****     else
  96:../Libraries/XMCLib/src/xmc_spi.c ****     {
  97:../Libraries/XMCLib/src/xmc_spi.c ****       /* Fractional divider mode */
  98:../Libraries/XMCLib/src/xmc_spi.c ****       (void)XMC_USIC_CH_SetBaudrate(channel, config->baudrate, XMC_SPI_CH_OVERSAMPLING); 
  61              	 .loc 1 98 0
  62 0022 FFF7FEFF 	 bl XMC_USIC_CH_SetBaudrate
  63              	.LVL4:
  64              	.L2:
  99:../Libraries/XMCLib/src/xmc_spi.c ****     }
 100:../Libraries/XMCLib/src/xmc_spi.c ****   }
 101:../Libraries/XMCLib/src/xmc_spi.c ****   
 102:../Libraries/XMCLib/src/xmc_spi.c ****   /* Configuration of USIC Shift Control */
 103:../Libraries/XMCLib/src/xmc_spi.c ****   /* Transmission Mode (TRM) = 1  */
 104:../Libraries/XMCLib/src/xmc_spi.c ****   /* Passive Data Level (PDL) = 1 */
 105:../Libraries/XMCLib/src/xmc_spi.c ****   channel->SCTR = USIC_CH_SCTR_PDL_Msk |
  65              	 .loc 1 105 0
  66 0026 094B     	 ldr r3,.L6
  67 0028 6363     	 str r3,[r4,#52]
 106:../Libraries/XMCLib/src/xmc_spi.c ****                   (0x1UL << USIC_CH_SCTR_TRM_Pos) |
 107:../Libraries/XMCLib/src/xmc_spi.c ****                   (0x3fUL << USIC_CH_SCTR_FLE_Pos)|
 108:../Libraries/XMCLib/src/xmc_spi.c ****                   (0x7UL << USIC_CH_SCTR_WLE_Pos);
 109:../Libraries/XMCLib/src/xmc_spi.c **** 
 110:../Libraries/XMCLib/src/xmc_spi.c ****   /* Configuration of USIC Transmit Control/Status Register */
 111:../Libraries/XMCLib/src/xmc_spi.c ****   /* TBUF Data Enable (TDEN) = 1 */
 112:../Libraries/XMCLib/src/xmc_spi.c ****   /* TBUF Data Single Shot Mode (TDSSM) = 1 */
 113:../Libraries/XMCLib/src/xmc_spi.c ****   channel->TCSR = (uint32_t)(USIC_CH_TCSR_HPCMD_Msk |
  68              	 .loc 1 113 0
  69 002a A223     	 mov r3,#162
  70 002c DB00     	 lsl r3,r3,#3
  71 002e A363     	 str r3,[r4,#56]
 114:../Libraries/XMCLib/src/xmc_spi.c ****                   (0x01UL  << USIC_CH_TCSR_TDEN_Pos) |
 115:../Libraries/XMCLib/src/xmc_spi.c ****                   USIC_CH_TCSR_TDSSM_Msk);
 116:../Libraries/XMCLib/src/xmc_spi.c **** 
 117:../Libraries/XMCLib/src/xmc_spi.c ****   if(config->bus_mode == XMC_SPI_CH_BUS_MODE_MASTER)
  72              	 .loc 1 117 0
  73 0030 6B79     	 ldrb r3,[r5,#5]
  74 0032 002B     	 cmp r3,#0
  75 0034 03D1     	 bne .L4
 118:../Libraries/XMCLib/src/xmc_spi.c ****   {
 119:../Libraries/XMCLib/src/xmc_spi.c ****     /* Configuration of Protocol Control Register */
 120:../Libraries/XMCLib/src/xmc_spi.c ****     channel->PCR_SSCMode = (uint32_t)(USIC_CH_PCR_SSCMode_MSLSEN_Msk |
  76              	 .loc 1 120 0
  77 0036 0B22     	 mov r2,#11
  78 0038 AB79     	 ldrb r3,[r5,#6]
  79 003a 1343     	 orr r3,r2
  80 003c E363     	 str r3,[r4,#60]
  81              	.L4:
 121:../Libraries/XMCLib/src/xmc_spi.c ****                            USIC_CH_PCR_SSCMode_SELCTR_Msk |
 122:../Libraries/XMCLib/src/xmc_spi.c ****                            (uint32_t)config->selo_inversion |
 123:../Libraries/XMCLib/src/xmc_spi.c ****                            USIC_CH_PCR_SSCMode_FEM_Msk);
 124:../Libraries/XMCLib/src/xmc_spi.c ****   }
 125:../Libraries/XMCLib/src/xmc_spi.c **** 
 126:../Libraries/XMCLib/src/xmc_spi.c ****   /* Clear protocol status */
 127:../Libraries/XMCLib/src/xmc_spi.c ****   channel->PSCR = 0xFFFFFFFFUL;
  82              	 .loc 1 127 0
  83 003e 0123     	 mov r3,#1
  84 0040 5B42     	 neg r3,r3
  85 0042 E364     	 str r3,[r4,#76]
 128:../Libraries/XMCLib/src/xmc_spi.c **** 
 129:../Libraries/XMCLib/src/xmc_spi.c ****   /* Set parity settings */
 130:../Libraries/XMCLib/src/xmc_spi.c ****   channel->CCR = (uint32_t)config->parity_mode;
  86              	 .loc 1 130 0
  87 0044 2B89     	 ldrh r3,[r5,#8]
 131:../Libraries/XMCLib/src/xmc_spi.c **** }
  88              	 .loc 1 131 0
  89              	 
 130:../Libraries/XMCLib/src/xmc_spi.c **** }
  90              	 .loc 1 130 0
  91 0046 2364     	 str r3,[r4,#64]
  92              	.LVL5:
  93              	.LVL6:
  94              	 .loc 1 131 0
  95 0048 38BD     	 pop {r3,r4,r5,pc}
  96              	.L7:
  97 004a C046     	 .align 2
  98              	.L6:
  99 004c 02013F07 	 .word 121569538
 100              	 .cfi_endproc
 101              	.LFE166:
 103              	 .section .text.XMC_SPI_CH_SetBaudrate,"ax",%progbits
 104              	 .align 1
 105              	 .global XMC_SPI_CH_SetBaudrate
 106              	 .code 16
 107              	 .thumb_func
 109              	XMC_SPI_CH_SetBaudrate:
 110              	.LFB167:
 132:../Libraries/XMCLib/src/xmc_spi.c **** 
 133:../Libraries/XMCLib/src/xmc_spi.c **** XMC_SPI_CH_STATUS_t XMC_SPI_CH_SetBaudrate(XMC_USIC_CH_t *const channel, const uint32_t rate)
 134:../Libraries/XMCLib/src/xmc_spi.c **** {
 111              	 .loc 1 134 0
 112              	 .cfi_startproc
 113              	.LVL7:
 114 0000 38B5     	 push {r3,r4,r5,lr}
 115              	.LCFI1:
 116              	 .cfi_def_cfa_offset 16
 117              	 .cfi_offset 3,-16
 118              	 .cfi_offset 4,-12
 119              	 .cfi_offset 5,-8
 120              	 .cfi_offset 14,-4
 121              	 .loc 1 134 0
 122 0002 051C     	 mov r5,r0
 123 0004 0C1C     	 mov r4,r1
 135:../Libraries/XMCLib/src/xmc_spi.c ****   XMC_SPI_CH_STATUS_t status;
 136:../Libraries/XMCLib/src/xmc_spi.c ****   
 137:../Libraries/XMCLib/src/xmc_spi.c ****   status = XMC_SPI_CH_STATUS_ERROR;
 138:../Libraries/XMCLib/src/xmc_spi.c ****   
 139:../Libraries/XMCLib/src/xmc_spi.c ****   if (rate <= (XMC_SCU_CLOCK_GetPeripheralClockFrequency() >> 1U))
 124              	 .loc 1 139 0
 125 0006 FFF7FEFF 	 bl XMC_SCU_CLOCK_GetPeripheralClockFrequency
 126              	.LVL8:
 127 000a 4308     	 lsr r3,r0,#1
 137:../Libraries/XMCLib/src/xmc_spi.c ****   
 128              	 .loc 1 137 0
 129 000c 0120     	 mov r0,#1
 130              	 .loc 1 139 0
 131 000e 9C42     	 cmp r4,r3
 132 0010 07D8     	 bhi .L9
 140:../Libraries/XMCLib/src/xmc_spi.c ****   {
 141:../Libraries/XMCLib/src/xmc_spi.c ****     if (XMC_USIC_CH_SetBaudrate(channel, rate, XMC_SPI_CH_OVERSAMPLING) == XMC_USIC_CH_STATUS_OK)
 133              	 .loc 1 141 0
 134 0012 281C     	 mov r0,r5
 135 0014 211C     	 mov r1,r4
 136 0016 0222     	 mov r2,#2
 137 0018 FFF7FEFF 	 bl XMC_USIC_CH_SetBaudrate
 138              	.LVL9:
 139 001c 431E     	 sub r3,r0,#1
 140 001e 9841     	 sbc r0,r0,r3
 137:../Libraries/XMCLib/src/xmc_spi.c ****   
 141              	 .loc 1 137 0
 142 0020 C0B2     	 uxtb r0,r0
 143              	.L9:
 144              	.LVL10:
 142:../Libraries/XMCLib/src/xmc_spi.c ****     {
 143:../Libraries/XMCLib/src/xmc_spi.c ****       status = XMC_SPI_CH_STATUS_OK;
 144:../Libraries/XMCLib/src/xmc_spi.c ****     }
 145:../Libraries/XMCLib/src/xmc_spi.c ****   } 
 146:../Libraries/XMCLib/src/xmc_spi.c ****   return status;
 147:../Libraries/XMCLib/src/xmc_spi.c **** }
 145              	 .loc 1 147 0
 146              	 
 147              	.LVL11:
 148              	.LVL12:
 149 0022 38BD     	 pop {r3,r4,r5,pc}
 150              	 .cfi_endproc
 151              	.LFE167:
 153              	 .section .text.XMC_SPI_CH_SetBaudrateEx,"ax",%progbits
 154              	 .align 1
 155              	 .global XMC_SPI_CH_SetBaudrateEx
 156              	 .code 16
 157              	 .thumb_func
 159              	XMC_SPI_CH_SetBaudrateEx:
 160              	.LFB168:
 148:../Libraries/XMCLib/src/xmc_spi.c **** 
 149:../Libraries/XMCLib/src/xmc_spi.c **** XMC_SPI_CH_STATUS_t XMC_SPI_CH_SetBaudrateEx(XMC_USIC_CH_t *const channel, const uint32_t rate, boo
 150:../Libraries/XMCLib/src/xmc_spi.c **** {
 161              	 .loc 1 150 0
 162              	 .cfi_startproc
 163              	.LVL13:
 164 0000 70B5     	 push {r4,r5,r6,lr}
 165              	.LCFI2:
 166              	 .cfi_def_cfa_offset 16
 167              	 .cfi_offset 4,-16
 168              	 .cfi_offset 5,-12
 169              	 .cfi_offset 6,-8
 170              	 .cfi_offset 14,-4
 171              	 .loc 1 150 0
 172 0002 051C     	 mov r5,r0
 173 0004 0C1C     	 mov r4,r1
 174 0006 161C     	 mov r6,r2
 151:../Libraries/XMCLib/src/xmc_spi.c ****   XMC_USIC_CH_STATUS_t status;
 152:../Libraries/XMCLib/src/xmc_spi.c ****    
 153:../Libraries/XMCLib/src/xmc_spi.c ****   if (rate <= (XMC_SCU_CLOCK_GetPeripheralClockFrequency() >> 1U))
 175              	 .loc 1 153 0
 176 0008 FFF7FEFF 	 bl XMC_SCU_CLOCK_GetPeripheralClockFrequency
 177              	.LVL14:
 178 000c 4308     	 lsr r3,r0,#1
 154:../Libraries/XMCLib/src/xmc_spi.c ****   {
 155:../Libraries/XMCLib/src/xmc_spi.c ****     if (normal_divider_mode)
 156:../Libraries/XMCLib/src/xmc_spi.c ****     {
 157:../Libraries/XMCLib/src/xmc_spi.c ****       /* Normal divider mode */
 158:../Libraries/XMCLib/src/xmc_spi.c ****       status = XMC_USIC_CH_SetBaudrateEx(channel, rate, XMC_SPI_CH_OVERSAMPLING);
 159:../Libraries/XMCLib/src/xmc_spi.c ****     }
 160:../Libraries/XMCLib/src/xmc_spi.c ****     else
 161:../Libraries/XMCLib/src/xmc_spi.c ****     {
 162:../Libraries/XMCLib/src/xmc_spi.c ****       /* Fractional divider mode */
 163:../Libraries/XMCLib/src/xmc_spi.c ****       status = XMC_USIC_CH_SetBaudrate(channel, rate, XMC_SPI_CH_OVERSAMPLING);
 164:../Libraries/XMCLib/src/xmc_spi.c ****     }
 165:../Libraries/XMCLib/src/xmc_spi.c ****   }
 166:../Libraries/XMCLib/src/xmc_spi.c ****   else
 167:../Libraries/XMCLib/src/xmc_spi.c ****   {
 168:../Libraries/XMCLib/src/xmc_spi.c ****     status = XMC_USIC_CH_STATUS_ERROR;
 179              	 .loc 1 168 0
 180 000e 0120     	 mov r0,#1
 153:../Libraries/XMCLib/src/xmc_spi.c ****   {
 181              	 .loc 1 153 0
 182 0010 9C42     	 cmp r4,r3
 183 0012 09D8     	 bhi .L12
 158:../Libraries/XMCLib/src/xmc_spi.c ****     }
 184              	 .loc 1 158 0
 185 0014 281C     	 mov r0,r5
 186 0016 211C     	 mov r1,r4
 187 0018 0222     	 mov r2,#2
 155:../Libraries/XMCLib/src/xmc_spi.c ****     {
 188              	 .loc 1 155 0
 189 001a 002E     	 cmp r6,#0
 190 001c 02D0     	 beq .L13
 158:../Libraries/XMCLib/src/xmc_spi.c ****     }
 191              	 .loc 1 158 0
 192 001e FFF7FEFF 	 bl XMC_USIC_CH_SetBaudrateEx
 193              	.LVL15:
 194 0022 01E0     	 b .L12
 195              	.LVL16:
 196              	.L13:
 163:../Libraries/XMCLib/src/xmc_spi.c ****     }
 197              	 .loc 1 163 0
 198 0024 FFF7FEFF 	 bl XMC_USIC_CH_SetBaudrate
 199              	.LVL17:
 200              	.L12:
 169:../Libraries/XMCLib/src/xmc_spi.c ****   }
 170:../Libraries/XMCLib/src/xmc_spi.c ****   
 171:../Libraries/XMCLib/src/xmc_spi.c ****   return (XMC_SPI_CH_STATUS_t)status;
 172:../Libraries/XMCLib/src/xmc_spi.c **** }
 201              	 .loc 1 172 0
 202              	 
 203              	.LVL18:
 204              	.LVL19:
 205 0028 70BD     	 pop {r4,r5,r6,pc}
 206              	 .cfi_endproc
 207              	.LFE168:
 209              	 .section .text.XMC_SPI_CH_EnableSlaveSelect,"ax",%progbits
 210              	 .align 1
 211              	 .global XMC_SPI_CH_EnableSlaveSelect
 212              	 .code 16
 213              	 .thumb_func
 215              	XMC_SPI_CH_EnableSlaveSelect:
 216              	.LFB169:
 173:../Libraries/XMCLib/src/xmc_spi.c **** 
 174:../Libraries/XMCLib/src/xmc_spi.c **** /* Enable the selected slave signal by setting (SELO) bits in PCR register. */
 175:../Libraries/XMCLib/src/xmc_spi.c **** void XMC_SPI_CH_EnableSlaveSelect(XMC_USIC_CH_t *const channel, const XMC_SPI_CH_SLAVE_SELECT_t sla
 176:../Libraries/XMCLib/src/xmc_spi.c **** {
 217              	 .loc 1 176 0
 218              	 .cfi_startproc
 219              	.LVL20:
 177:../Libraries/XMCLib/src/xmc_spi.c ****   /* Configuration of Protocol Control Register */
 178:../Libraries/XMCLib/src/xmc_spi.c ****   channel->PCR_SSCMode &= (uint32_t)~USIC_CH_PCR_SSCMode_SELO_Msk;
 220              	 .loc 1 178 0
 221 0000 C26B     	 ldr r2,[r0,#60]
 222 0002 034B     	 ldr r3,.L16
 179:../Libraries/XMCLib/src/xmc_spi.c ****   channel->PCR_SSCMode |= (uint32_t)slave;
 180:../Libraries/XMCLib/src/xmc_spi.c **** }
 223              	 .loc 1 180 0
 224              	 
 178:../Libraries/XMCLib/src/xmc_spi.c ****   channel->PCR_SSCMode |= (uint32_t)slave;
 225              	 .loc 1 178 0
 226 0004 1340     	 and r3,r2
 227 0006 C363     	 str r3,[r0,#60]
 179:../Libraries/XMCLib/src/xmc_spi.c ****   channel->PCR_SSCMode |= (uint32_t)slave;
 228              	 .loc 1 179 0
 229 0008 C36B     	 ldr r3,[r0,#60]
 230 000a 1943     	 orr r1,r3
 231              	.LVL21:
 232 000c C163     	 str r1,[r0,#60]
 233              	 .loc 1 180 0
 234 000e 7047     	 bx lr
 235              	.L17:
 236              	 .align 2
 237              	.L16:
 238 0010 FFFF00FF 	 .word -16711681
 239              	 .cfi_endproc
 240              	.LFE169:
 242              	 .section .text.XMC_SPI_CH_DisableSlaveSelect,"ax",%progbits
 243              	 .align 1
 244              	 .global XMC_SPI_CH_DisableSlaveSelect
 245              	 .code 16
 246              	 .thumb_func
 248              	XMC_SPI_CH_DisableSlaveSelect:
 249              	.LFB170:
 181:../Libraries/XMCLib/src/xmc_spi.c **** 
 182:../Libraries/XMCLib/src/xmc_spi.c **** /* Disable the slave signals by clearing (SELO) bits in PCR register. */
 183:../Libraries/XMCLib/src/xmc_spi.c **** void XMC_SPI_CH_DisableSlaveSelect(XMC_USIC_CH_t *const channel)
 184:../Libraries/XMCLib/src/xmc_spi.c **** {
 250              	 .loc 1 184 0
 251              	 .cfi_startproc
 252              	.LVL22:
 253              	.LBB12:
 254              	.LBB13:
 255              	 .file 2 "C:/Workspace/DAVE-4.4.2-64Bit/xmc1400-getstarted-optiga-trust-m/Libraries/XMCLib/inc/xmc_spi.h"
   1:C:/Workspace/DAVE-4.4.2-64Bit/xmc1400-getstarted-optiga-trust-m/Libraries/XMCLib/inc\xmc_spi.h **** /**
   2:C:/Workspace/DAVE-4.4.2-64Bit/xmc1400-getstarted-optiga-trust-m/Libraries/XMCLib/inc\xmc_spi.h ****  * @file xmc_spi.h
   3:C:/Workspace/DAVE-4.4.2-64Bit/xmc1400-getstarted-optiga-trust-m/Libraries/XMCLib/inc\xmc_spi.h ****  * @date 2019-05-07
   4:C:/Workspace/DAVE-4.4.2-64Bit/xmc1400-getstarted-optiga-trust-m/Libraries/XMCLib/inc\xmc_spi.h ****  *
   5:C:/Workspace/DAVE-4.4.2-64Bit/xmc1400-getstarted-optiga-trust-m/Libraries/XMCLib/inc\xmc_spi.h ****  * @cond
   6:C:/Workspace/DAVE-4.4.2-64Bit/xmc1400-getstarted-optiga-trust-m/Libraries/XMCLib/inc\xmc_spi.h ****  **************************************************************************************************
   7:C:/Workspace/DAVE-4.4.2-64Bit/xmc1400-getstarted-optiga-trust-m/Libraries/XMCLib/inc\xmc_spi.h ****  * XMClib v2.1.24 - XMC Peripheral Driver Library 
   8:C:/Workspace/DAVE-4.4.2-64Bit/xmc1400-getstarted-optiga-trust-m/Libraries/XMCLib/inc\xmc_spi.h ****  *
   9:C:/Workspace/DAVE-4.4.2-64Bit/xmc1400-getstarted-optiga-trust-m/Libraries/XMCLib/inc\xmc_spi.h ****  * Copyright (c) 2015-2019, Infineon Technologies AG
  10:C:/Workspace/DAVE-4.4.2-64Bit/xmc1400-getstarted-optiga-trust-m/Libraries/XMCLib/inc\xmc_spi.h ****  * All rights reserved.                        
  11:C:/Workspace/DAVE-4.4.2-64Bit/xmc1400-getstarted-optiga-trust-m/Libraries/XMCLib/inc\xmc_spi.h ****  *                                             
  12:C:/Workspace/DAVE-4.4.2-64Bit/xmc1400-getstarted-optiga-trust-m/Libraries/XMCLib/inc\xmc_spi.h ****  * Redistribution and use in source and binary forms, with or without modification,are permitted pr
  13:C:/Workspace/DAVE-4.4.2-64Bit/xmc1400-getstarted-optiga-trust-m/Libraries/XMCLib/inc\xmc_spi.h ****  * following conditions are met:   
  14:C:/Workspace/DAVE-4.4.2-64Bit/xmc1400-getstarted-optiga-trust-m/Libraries/XMCLib/inc\xmc_spi.h ****  *                                                                              
  15:C:/Workspace/DAVE-4.4.2-64Bit/xmc1400-getstarted-optiga-trust-m/Libraries/XMCLib/inc\xmc_spi.h ****  * Redistributions of source code must retain the above copyright notice, this list of conditions a
  16:C:/Workspace/DAVE-4.4.2-64Bit/xmc1400-getstarted-optiga-trust-m/Libraries/XMCLib/inc\xmc_spi.h ****  * disclaimer.                        
  17:C:/Workspace/DAVE-4.4.2-64Bit/xmc1400-getstarted-optiga-trust-m/Libraries/XMCLib/inc\xmc_spi.h ****  * 
  18:C:/Workspace/DAVE-4.4.2-64Bit/xmc1400-getstarted-optiga-trust-m/Libraries/XMCLib/inc\xmc_spi.h ****  * Redistributions in binary form must reproduce the above copyright notice, this list of condition
  19:C:/Workspace/DAVE-4.4.2-64Bit/xmc1400-getstarted-optiga-trust-m/Libraries/XMCLib/inc\xmc_spi.h ****  * disclaimer in the documentation and/or other materials provided with the distribution.          
  20:C:/Workspace/DAVE-4.4.2-64Bit/xmc1400-getstarted-optiga-trust-m/Libraries/XMCLib/inc\xmc_spi.h ****  * 
  21:C:/Workspace/DAVE-4.4.2-64Bit/xmc1400-getstarted-optiga-trust-m/Libraries/XMCLib/inc\xmc_spi.h ****  * Neither the name of the copyright holders nor the names of its contributors may be used to endor
  22:C:/Workspace/DAVE-4.4.2-64Bit/xmc1400-getstarted-optiga-trust-m/Libraries/XMCLib/inc\xmc_spi.h ****  * products derived from this software without specific prior written permission.                  
  23:C:/Workspace/DAVE-4.4.2-64Bit/xmc1400-getstarted-optiga-trust-m/Libraries/XMCLib/inc\xmc_spi.h ****  *                                                                              
  24:C:/Workspace/DAVE-4.4.2-64Bit/xmc1400-getstarted-optiga-trust-m/Libraries/XMCLib/inc\xmc_spi.h ****  * THIS SOFTWARE IS PROVIDED BY THE COPYRIGHT HOLDERS AND CONTRIBUTORS "AS IS" AND ANY EXPRESS OR I
  25:C:/Workspace/DAVE-4.4.2-64Bit/xmc1400-getstarted-optiga-trust-m/Libraries/XMCLib/inc\xmc_spi.h ****  * INCLUDING, BUT NOT LIMITED TO, THE IMPLIED WARRANTIES OF MERCHANTABILITY AND FITNESS FOR A PARTI
  26:C:/Workspace/DAVE-4.4.2-64Bit/xmc1400-getstarted-optiga-trust-m/Libraries/XMCLib/inc\xmc_spi.h ****  * DISCLAIMED. IN NO EVENT SHALL THE COPYRIGHT HOLDER OR CONTRIBUTORS BE LIABLE  FOR ANY DIRECT, IN
  27:C:/Workspace/DAVE-4.4.2-64Bit/xmc1400-getstarted-optiga-trust-m/Libraries/XMCLib/inc\xmc_spi.h ****  * SPECIAL, EXEMPLARY, OR CONSEQUENTIAL DAMAGES (INCLUDING, BUT NOT LIMITED TO, PROCUREMENT OF SUBS
  28:C:/Workspace/DAVE-4.4.2-64Bit/xmc1400-getstarted-optiga-trust-m/Libraries/XMCLib/inc\xmc_spi.h ****  * SERVICES; LOSS OF USE, DATA, OR PROFITS; OR BUSINESS INTERRUPTION) HOWEVER CAUSED AND ON ANY THE
  29:C:/Workspace/DAVE-4.4.2-64Bit/xmc1400-getstarted-optiga-trust-m/Libraries/XMCLib/inc\xmc_spi.h ****  * WHETHER IN CONTRACT, STRICT LIABILITY,OR TORT (INCLUDING NEGLIGENCE OR OTHERWISE) ARISING IN ANY
  30:C:/Workspace/DAVE-4.4.2-64Bit/xmc1400-getstarted-optiga-trust-m/Libraries/XMCLib/inc\xmc_spi.h ****  * OF THIS SOFTWARE, EVEN IF ADVISED OF THE POSSIBILITY OF SUCH DAMAGE.                            
  31:C:/Workspace/DAVE-4.4.2-64Bit/xmc1400-getstarted-optiga-trust-m/Libraries/XMCLib/inc\xmc_spi.h ****  *                                                                              
  32:C:/Workspace/DAVE-4.4.2-64Bit/xmc1400-getstarted-optiga-trust-m/Libraries/XMCLib/inc\xmc_spi.h ****  * To improve the quality of the software, users are encouraged to share modifications, enhancement
  33:C:/Workspace/DAVE-4.4.2-64Bit/xmc1400-getstarted-optiga-trust-m/Libraries/XMCLib/inc\xmc_spi.h ****  * Infineon Technologies AG dave@infineon.com).                                                    
  34:C:/Workspace/DAVE-4.4.2-64Bit/xmc1400-getstarted-optiga-trust-m/Libraries/XMCLib/inc\xmc_spi.h ****  **************************************************************************************************
  35:C:/Workspace/DAVE-4.4.2-64Bit/xmc1400-getstarted-optiga-trust-m/Libraries/XMCLib/inc\xmc_spi.h ****  *
  36:C:/Workspace/DAVE-4.4.2-64Bit/xmc1400-getstarted-optiga-trust-m/Libraries/XMCLib/inc\xmc_spi.h ****  * Change History
  37:C:/Workspace/DAVE-4.4.2-64Bit/xmc1400-getstarted-optiga-trust-m/Libraries/XMCLib/inc\xmc_spi.h ****  * --------------
  38:C:/Workspace/DAVE-4.4.2-64Bit/xmc1400-getstarted-optiga-trust-m/Libraries/XMCLib/inc\xmc_spi.h ****  *
  39:C:/Workspace/DAVE-4.4.2-64Bit/xmc1400-getstarted-optiga-trust-m/Libraries/XMCLib/inc\xmc_spi.h ****  * 2015-02-20:
  40:C:/Workspace/DAVE-4.4.2-64Bit/xmc1400-getstarted-optiga-trust-m/Libraries/XMCLib/inc\xmc_spi.h ****  *     - Initial
  41:C:/Workspace/DAVE-4.4.2-64Bit/xmc1400-getstarted-optiga-trust-m/Libraries/XMCLib/inc\xmc_spi.h ****  *   
  42:C:/Workspace/DAVE-4.4.2-64Bit/xmc1400-getstarted-optiga-trust-m/Libraries/XMCLib/inc\xmc_spi.h ****  * 2015-05-20:
  43:C:/Workspace/DAVE-4.4.2-64Bit/xmc1400-getstarted-optiga-trust-m/Libraries/XMCLib/inc\xmc_spi.h ****  *     - Documentation improved <br>
  44:C:/Workspace/DAVE-4.4.2-64Bit/xmc1400-getstarted-optiga-trust-m/Libraries/XMCLib/inc\xmc_spi.h ****  *     - Added XMC_SPI_CH_SetSlaveSelectDelay(), XMC_SPI_CH_TriggerServiceRequest() and 
  45:C:/Workspace/DAVE-4.4.2-64Bit/xmc1400-getstarted-optiga-trust-m/Libraries/XMCLib/inc\xmc_spi.h ****  *       XMC_SPI_CH_SelectInterruptNodePointer() <br>
  46:C:/Workspace/DAVE-4.4.2-64Bit/xmc1400-getstarted-optiga-trust-m/Libraries/XMCLib/inc\xmc_spi.h ****  *     - Added XMC_SPI_CH_SetInterwordDelaySCLK() <br>
  47:C:/Workspace/DAVE-4.4.2-64Bit/xmc1400-getstarted-optiga-trust-m/Libraries/XMCLib/inc\xmc_spi.h ****  *
  48:C:/Workspace/DAVE-4.4.2-64Bit/xmc1400-getstarted-optiga-trust-m/Libraries/XMCLib/inc\xmc_spi.h ****  * 2015-06-20:
  49:C:/Workspace/DAVE-4.4.2-64Bit/xmc1400-getstarted-optiga-trust-m/Libraries/XMCLib/inc\xmc_spi.h ****  *     - Removed version macros and declaration of GetDriverVersion API <br>
  50:C:/Workspace/DAVE-4.4.2-64Bit/xmc1400-getstarted-optiga-trust-m/Libraries/XMCLib/inc\xmc_spi.h ****  *
  51:C:/Workspace/DAVE-4.4.2-64Bit/xmc1400-getstarted-optiga-trust-m/Libraries/XMCLib/inc\xmc_spi.h ****  * 2015-08-24:
  52:C:/Workspace/DAVE-4.4.2-64Bit/xmc1400-getstarted-optiga-trust-m/Libraries/XMCLib/inc\xmc_spi.h ****  *     - Added APIs for enabling/disabling delay compensation XMC_SPI_CH_DisableDelayCompensation()
  53:C:/Workspace/DAVE-4.4.2-64Bit/xmc1400-getstarted-optiga-trust-m/Libraries/XMCLib/inc\xmc_spi.h ****  *       XMC_SPI_CH_EnableDelayCompensation() <br>
  54:C:/Workspace/DAVE-4.4.2-64Bit/xmc1400-getstarted-optiga-trust-m/Libraries/XMCLib/inc\xmc_spi.h ****  *
  55:C:/Workspace/DAVE-4.4.2-64Bit/xmc1400-getstarted-optiga-trust-m/Libraries/XMCLib/inc\xmc_spi.h ****  * 2015-08-27:
  56:C:/Workspace/DAVE-4.4.2-64Bit/xmc1400-getstarted-optiga-trust-m/Libraries/XMCLib/inc\xmc_spi.h ****  *     - Added APIs for external input for BRG configuration:XMC_SPI_CH_ConfigExternalInputSignalTo
  57:C:/Workspace/DAVE-4.4.2-64Bit/xmc1400-getstarted-optiga-trust-m/Libraries/XMCLib/inc\xmc_spi.h ****  *
  58:C:/Workspace/DAVE-4.4.2-64Bit/xmc1400-getstarted-optiga-trust-m/Libraries/XMCLib/inc\xmc_spi.h ****  * 2015-09-01:
  59:C:/Workspace/DAVE-4.4.2-64Bit/xmc1400-getstarted-optiga-trust-m/Libraries/XMCLib/inc\xmc_spi.h ****  *     - Modified XMC_SPI_CH_SetInputSource() for avoiding complete DXCR register overwriting. <br>
  60:C:/Workspace/DAVE-4.4.2-64Bit/xmc1400-getstarted-optiga-trust-m/Libraries/XMCLib/inc\xmc_spi.h ****  *     - Modified XMC_SPI_CH_EVENT_t enum for supporting XMC_SPI_CH_EnableEvent() and XMC_SPI_CH_Di
  61:C:/Workspace/DAVE-4.4.2-64Bit/xmc1400-getstarted-optiga-trust-m/Libraries/XMCLib/inc\xmc_spi.h ****  *       for supporting multiple events configuration <br>
  62:C:/Workspace/DAVE-4.4.2-64Bit/xmc1400-getstarted-optiga-trust-m/Libraries/XMCLib/inc\xmc_spi.h ****  *
  63:C:/Workspace/DAVE-4.4.2-64Bit/xmc1400-getstarted-optiga-trust-m/Libraries/XMCLib/inc\xmc_spi.h ****  * 2015-09-08:
  64:C:/Workspace/DAVE-4.4.2-64Bit/xmc1400-getstarted-optiga-trust-m/Libraries/XMCLib/inc\xmc_spi.h ****  *     - Adding API for configuring the receiving clock phase in the slave:XMC_SPI_CH_DataLatchedIn
  65:C:/Workspace/DAVE-4.4.2-64Bit/xmc1400-getstarted-optiga-trust-m/Libraries/XMCLib/inc\xmc_spi.h ****  *
  66:C:/Workspace/DAVE-4.4.2-64Bit/xmc1400-getstarted-optiga-trust-m/Libraries/XMCLib/inc\xmc_spi.h ****  * 2016-04-10:
  67:C:/Workspace/DAVE-4.4.2-64Bit/xmc1400-getstarted-optiga-trust-m/Libraries/XMCLib/inc\xmc_spi.h ****  *     - Added an API for configuring the transmit mode:XMC_SPI_CH_SetTransmitMode() <br>
  68:C:/Workspace/DAVE-4.4.2-64Bit/xmc1400-getstarted-optiga-trust-m/Libraries/XMCLib/inc\xmc_spi.h ****  *
  69:C:/Workspace/DAVE-4.4.2-64Bit/xmc1400-getstarted-optiga-trust-m/Libraries/XMCLib/inc\xmc_spi.h ****  * 2016-05-20:
  70:C:/Workspace/DAVE-4.4.2-64Bit/xmc1400-getstarted-optiga-trust-m/Libraries/XMCLib/inc\xmc_spi.h ****  *     - Added XMC_SPI_CH_EnableDataTransmission() and XMC_SPI_CH_DisableDataTransmission()
  71:C:/Workspace/DAVE-4.4.2-64Bit/xmc1400-getstarted-optiga-trust-m/Libraries/XMCLib/inc\xmc_spi.h ****  * 
  72:C:/Workspace/DAVE-4.4.2-64Bit/xmc1400-getstarted-optiga-trust-m/Libraries/XMCLib/inc\xmc_spi.h ****  * 2019-03-30:
  73:C:/Workspace/DAVE-4.4.2-64Bit/xmc1400-getstarted-optiga-trust-m/Libraries/XMCLib/inc\xmc_spi.h ****  *     - Fix XMC_SPI_CH_MODE_STANDARD_HALFDUPLEX macro value
  74:C:/Workspace/DAVE-4.4.2-64Bit/xmc1400-getstarted-optiga-trust-m/Libraries/XMCLib/inc\xmc_spi.h ****  * 
  75:C:/Workspace/DAVE-4.4.2-64Bit/xmc1400-getstarted-optiga-trust-m/Libraries/XMCLib/inc\xmc_spi.h ****  * 2019-05-07:
  76:C:/Workspace/DAVE-4.4.2-64Bit/xmc1400-getstarted-optiga-trust-m/Libraries/XMCLib/inc\xmc_spi.h ****  *     - Added normal_divider_mode to XMC_SPI_CH_CONFIG_t configuration structure.
  77:C:/Workspace/DAVE-4.4.2-64Bit/xmc1400-getstarted-optiga-trust-m/Libraries/XMCLib/inc\xmc_spi.h ****  *       It selects normal divider mode for baudrate generator instead of default fractional divide
  78:C:/Workspace/DAVE-4.4.2-64Bit/xmc1400-getstarted-optiga-trust-m/Libraries/XMCLib/inc\xmc_spi.h ****  *     - Added XMC_SPI_CH_SetBaudrateEx()
  79:C:/Workspace/DAVE-4.4.2-64Bit/xmc1400-getstarted-optiga-trust-m/Libraries/XMCLib/inc\xmc_spi.h ****  *
  80:C:/Workspace/DAVE-4.4.2-64Bit/xmc1400-getstarted-optiga-trust-m/Libraries/XMCLib/inc\xmc_spi.h ****  * @endcond 
  81:C:/Workspace/DAVE-4.4.2-64Bit/xmc1400-getstarted-optiga-trust-m/Libraries/XMCLib/inc\xmc_spi.h ****  *
  82:C:/Workspace/DAVE-4.4.2-64Bit/xmc1400-getstarted-optiga-trust-m/Libraries/XMCLib/inc\xmc_spi.h ****  */
  83:C:/Workspace/DAVE-4.4.2-64Bit/xmc1400-getstarted-optiga-trust-m/Libraries/XMCLib/inc\xmc_spi.h **** 
  84:C:/Workspace/DAVE-4.4.2-64Bit/xmc1400-getstarted-optiga-trust-m/Libraries/XMCLib/inc\xmc_spi.h **** #ifndef XMC_SPI_H
  85:C:/Workspace/DAVE-4.4.2-64Bit/xmc1400-getstarted-optiga-trust-m/Libraries/XMCLib/inc\xmc_spi.h **** #define XMC_SPI_H
  86:C:/Workspace/DAVE-4.4.2-64Bit/xmc1400-getstarted-optiga-trust-m/Libraries/XMCLib/inc\xmc_spi.h **** 
  87:C:/Workspace/DAVE-4.4.2-64Bit/xmc1400-getstarted-optiga-trust-m/Libraries/XMCLib/inc\xmc_spi.h **** /**************************************************************************************************
  88:C:/Workspace/DAVE-4.4.2-64Bit/xmc1400-getstarted-optiga-trust-m/Libraries/XMCLib/inc\xmc_spi.h ****  * HEADER FILES
  89:C:/Workspace/DAVE-4.4.2-64Bit/xmc1400-getstarted-optiga-trust-m/Libraries/XMCLib/inc\xmc_spi.h ****  **************************************************************************************************
  90:C:/Workspace/DAVE-4.4.2-64Bit/xmc1400-getstarted-optiga-trust-m/Libraries/XMCLib/inc\xmc_spi.h **** #include "xmc_usic.h"
  91:C:/Workspace/DAVE-4.4.2-64Bit/xmc1400-getstarted-optiga-trust-m/Libraries/XMCLib/inc\xmc_spi.h **** 
  92:C:/Workspace/DAVE-4.4.2-64Bit/xmc1400-getstarted-optiga-trust-m/Libraries/XMCLib/inc\xmc_spi.h **** /**
  93:C:/Workspace/DAVE-4.4.2-64Bit/xmc1400-getstarted-optiga-trust-m/Libraries/XMCLib/inc\xmc_spi.h ****  * @addtogroup XMClib XMC Peripheral Library
  94:C:/Workspace/DAVE-4.4.2-64Bit/xmc1400-getstarted-optiga-trust-m/Libraries/XMCLib/inc\xmc_spi.h ****  * @{
  95:C:/Workspace/DAVE-4.4.2-64Bit/xmc1400-getstarted-optiga-trust-m/Libraries/XMCLib/inc\xmc_spi.h ****  */
  96:C:/Workspace/DAVE-4.4.2-64Bit/xmc1400-getstarted-optiga-trust-m/Libraries/XMCLib/inc\xmc_spi.h **** 
  97:C:/Workspace/DAVE-4.4.2-64Bit/xmc1400-getstarted-optiga-trust-m/Libraries/XMCLib/inc\xmc_spi.h **** /**
  98:C:/Workspace/DAVE-4.4.2-64Bit/xmc1400-getstarted-optiga-trust-m/Libraries/XMCLib/inc\xmc_spi.h ****  * @addtogroup SPI
  99:C:/Workspace/DAVE-4.4.2-64Bit/xmc1400-getstarted-optiga-trust-m/Libraries/XMCLib/inc\xmc_spi.h ****  * @brief Synchronous serial channel driver for SPI-like communication.
 100:C:/Workspace/DAVE-4.4.2-64Bit/xmc1400-getstarted-optiga-trust-m/Libraries/XMCLib/inc\xmc_spi.h ****  * 
 101:C:/Workspace/DAVE-4.4.2-64Bit/xmc1400-getstarted-optiga-trust-m/Libraries/XMCLib/inc\xmc_spi.h ****  * The SPI driver uses Universal Serial Interface Channel(USIC) module. 
 102:C:/Workspace/DAVE-4.4.2-64Bit/xmc1400-getstarted-optiga-trust-m/Libraries/XMCLib/inc\xmc_spi.h ****  * The USIC module supports multiple data lines for SPI communication. \n
 103:C:/Workspace/DAVE-4.4.2-64Bit/xmc1400-getstarted-optiga-trust-m/Libraries/XMCLib/inc\xmc_spi.h ****  * -# Full duplex communication with 2 separate lines for transmission and reception.
 104:C:/Workspace/DAVE-4.4.2-64Bit/xmc1400-getstarted-optiga-trust-m/Libraries/XMCLib/inc\xmc_spi.h ****  * -# Half duplex communication with 1 common line shared for transmission and reception.
 105:C:/Workspace/DAVE-4.4.2-64Bit/xmc1400-getstarted-optiga-trust-m/Libraries/XMCLib/inc\xmc_spi.h ****  * -# Dual mode communication with 2 common lines shared for transmission and reception.
 106:C:/Workspace/DAVE-4.4.2-64Bit/xmc1400-getstarted-optiga-trust-m/Libraries/XMCLib/inc\xmc_spi.h ****  * -# Quad mode communication with 4 common lines shared for transmission and reception.<br><br>
 107:C:/Workspace/DAVE-4.4.2-64Bit/xmc1400-getstarted-optiga-trust-m/Libraries/XMCLib/inc\xmc_spi.h ****  * 
 108:C:/Workspace/DAVE-4.4.2-64Bit/xmc1400-getstarted-optiga-trust-m/Libraries/XMCLib/inc\xmc_spi.h ****  * SPI driver provides structures, enumerations and APIs for configuring the USIC channel for SPI c
 109:C:/Workspace/DAVE-4.4.2-64Bit/xmc1400-getstarted-optiga-trust-m/Libraries/XMCLib/inc\xmc_spi.h ****  * and also for data transaction.<br>
 110:C:/Workspace/DAVE-4.4.2-64Bit/xmc1400-getstarted-optiga-trust-m/Libraries/XMCLib/inc\xmc_spi.h ****  * SPI driver features:
 111:C:/Workspace/DAVE-4.4.2-64Bit/xmc1400-getstarted-optiga-trust-m/Libraries/XMCLib/inc\xmc_spi.h ****  * -# Configuration structure XMC_SPI_CH_CONFIG_t and SPI initialization function XMC_SPI_CH_Init()
 112:C:/Workspace/DAVE-4.4.2-64Bit/xmc1400-getstarted-optiga-trust-m/Libraries/XMCLib/inc\xmc_spi.h ****  * -# Allows configuration of protocol word and frame length using XMC_SPI_CH_SetWordLength(), XMC_
 113:C:/Workspace/DAVE-4.4.2-64Bit/xmc1400-getstarted-optiga-trust-m/Libraries/XMCLib/inc\xmc_spi.h ****  * -# Allows manipulation of data frame at runtime using XMC_SPI_CH_EnableSOF(), XMC_SPI_CH_EnableE
 114:C:/Workspace/DAVE-4.4.2-64Bit/xmc1400-getstarted-optiga-trust-m/Libraries/XMCLib/inc\xmc_spi.h ****  XMC_SPI_CH_EnableSlaveSelect(), XMC_SPI_CH_DisableSlaveSelect()
 115:C:/Workspace/DAVE-4.4.2-64Bit/xmc1400-getstarted-optiga-trust-m/Libraries/XMCLib/inc\xmc_spi.h ****  * -# Provides APIs for transmitting data and receiving data using XMC_SPI_CH_Transmit(), XMC_SPI_C
 116:C:/Workspace/DAVE-4.4.2-64Bit/xmc1400-getstarted-optiga-trust-m/Libraries/XMCLib/inc\xmc_spi.h ****  * -# Allows configuration of shift clock using XMC_SPI_CH_ConfigureShiftClockOutput()
 117:C:/Workspace/DAVE-4.4.2-64Bit/xmc1400-getstarted-optiga-trust-m/Libraries/XMCLib/inc\xmc_spi.h ****  * -# Provides enumeration of SPI protocol events using @ref XMC_SPI_CH_STATUS_FLAG_t
 118:C:/Workspace/DAVE-4.4.2-64Bit/xmc1400-getstarted-optiga-trust-m/Libraries/XMCLib/inc\xmc_spi.h ****  * @{
 119:C:/Workspace/DAVE-4.4.2-64Bit/xmc1400-getstarted-optiga-trust-m/Libraries/XMCLib/inc\xmc_spi.h ****  */
 120:C:/Workspace/DAVE-4.4.2-64Bit/xmc1400-getstarted-optiga-trust-m/Libraries/XMCLib/inc\xmc_spi.h **** 
 121:C:/Workspace/DAVE-4.4.2-64Bit/xmc1400-getstarted-optiga-trust-m/Libraries/XMCLib/inc\xmc_spi.h **** /**************************************************************************************************
 122:C:/Workspace/DAVE-4.4.2-64Bit/xmc1400-getstarted-optiga-trust-m/Libraries/XMCLib/inc\xmc_spi.h ****  * MACROS
 123:C:/Workspace/DAVE-4.4.2-64Bit/xmc1400-getstarted-optiga-trust-m/Libraries/XMCLib/inc\xmc_spi.h ****  **************************************************************************************************
 124:C:/Workspace/DAVE-4.4.2-64Bit/xmc1400-getstarted-optiga-trust-m/Libraries/XMCLib/inc\xmc_spi.h **** 
 125:C:/Workspace/DAVE-4.4.2-64Bit/xmc1400-getstarted-optiga-trust-m/Libraries/XMCLib/inc\xmc_spi.h **** #if defined(USIC0)
 126:C:/Workspace/DAVE-4.4.2-64Bit/xmc1400-getstarted-optiga-trust-m/Libraries/XMCLib/inc\xmc_spi.h **** #define XMC_SPI0_CH0 XMC_USIC0_CH0 /**< SPI0 channel 0 base address */
 127:C:/Workspace/DAVE-4.4.2-64Bit/xmc1400-getstarted-optiga-trust-m/Libraries/XMCLib/inc\xmc_spi.h **** #define XMC_SPI0_CH1 XMC_USIC0_CH1 /**< SPI0 channel 1 base address */
 128:C:/Workspace/DAVE-4.4.2-64Bit/xmc1400-getstarted-optiga-trust-m/Libraries/XMCLib/inc\xmc_spi.h **** #endif
 129:C:/Workspace/DAVE-4.4.2-64Bit/xmc1400-getstarted-optiga-trust-m/Libraries/XMCLib/inc\xmc_spi.h **** 
 130:C:/Workspace/DAVE-4.4.2-64Bit/xmc1400-getstarted-optiga-trust-m/Libraries/XMCLib/inc\xmc_spi.h **** #if defined(USIC1)
 131:C:/Workspace/DAVE-4.4.2-64Bit/xmc1400-getstarted-optiga-trust-m/Libraries/XMCLib/inc\xmc_spi.h **** #define XMC_SPI1_CH0 XMC_USIC1_CH0 /**< SPI1 channel 0 base address */
 132:C:/Workspace/DAVE-4.4.2-64Bit/xmc1400-getstarted-optiga-trust-m/Libraries/XMCLib/inc\xmc_spi.h **** #define XMC_SPI1_CH1 XMC_USIC1_CH1 /**< SPI1 channel 1 base address */
 133:C:/Workspace/DAVE-4.4.2-64Bit/xmc1400-getstarted-optiga-trust-m/Libraries/XMCLib/inc\xmc_spi.h **** #endif
 134:C:/Workspace/DAVE-4.4.2-64Bit/xmc1400-getstarted-optiga-trust-m/Libraries/XMCLib/inc\xmc_spi.h **** 
 135:C:/Workspace/DAVE-4.4.2-64Bit/xmc1400-getstarted-optiga-trust-m/Libraries/XMCLib/inc\xmc_spi.h **** #if defined(USIC2)
 136:C:/Workspace/DAVE-4.4.2-64Bit/xmc1400-getstarted-optiga-trust-m/Libraries/XMCLib/inc\xmc_spi.h **** #define XMC_SPI2_CH0 XMC_USIC2_CH0 /**< SPI2 channel 0 base address */
 137:C:/Workspace/DAVE-4.4.2-64Bit/xmc1400-getstarted-optiga-trust-m/Libraries/XMCLib/inc\xmc_spi.h **** #define XMC_SPI2_CH1 XMC_USIC2_CH1 /**< SPI2 channel 1 base address */
 138:C:/Workspace/DAVE-4.4.2-64Bit/xmc1400-getstarted-optiga-trust-m/Libraries/XMCLib/inc\xmc_spi.h **** #endif
 139:C:/Workspace/DAVE-4.4.2-64Bit/xmc1400-getstarted-optiga-trust-m/Libraries/XMCLib/inc\xmc_spi.h **** 
 140:C:/Workspace/DAVE-4.4.2-64Bit/xmc1400-getstarted-optiga-trust-m/Libraries/XMCLib/inc\xmc_spi.h **** /**************************************************************************************************
 141:C:/Workspace/DAVE-4.4.2-64Bit/xmc1400-getstarted-optiga-trust-m/Libraries/XMCLib/inc\xmc_spi.h ****  * ENUMS
 142:C:/Workspace/DAVE-4.4.2-64Bit/xmc1400-getstarted-optiga-trust-m/Libraries/XMCLib/inc\xmc_spi.h ****  **************************************************************************************************
 143:C:/Workspace/DAVE-4.4.2-64Bit/xmc1400-getstarted-optiga-trust-m/Libraries/XMCLib/inc\xmc_spi.h **** 
 144:C:/Workspace/DAVE-4.4.2-64Bit/xmc1400-getstarted-optiga-trust-m/Libraries/XMCLib/inc\xmc_spi.h **** /**
 145:C:/Workspace/DAVE-4.4.2-64Bit/xmc1400-getstarted-optiga-trust-m/Libraries/XMCLib/inc\xmc_spi.h ****  * Defines return status of SPI driver APIs
 146:C:/Workspace/DAVE-4.4.2-64Bit/xmc1400-getstarted-optiga-trust-m/Libraries/XMCLib/inc\xmc_spi.h ****  */
 147:C:/Workspace/DAVE-4.4.2-64Bit/xmc1400-getstarted-optiga-trust-m/Libraries/XMCLib/inc\xmc_spi.h **** typedef enum XMC_SPI_CH_STATUS
 148:C:/Workspace/DAVE-4.4.2-64Bit/xmc1400-getstarted-optiga-trust-m/Libraries/XMCLib/inc\xmc_spi.h **** {
 149:C:/Workspace/DAVE-4.4.2-64Bit/xmc1400-getstarted-optiga-trust-m/Libraries/XMCLib/inc\xmc_spi.h ****   XMC_SPI_CH_STATUS_OK,    /**< Status of the Module: OK */
 150:C:/Workspace/DAVE-4.4.2-64Bit/xmc1400-getstarted-optiga-trust-m/Libraries/XMCLib/inc\xmc_spi.h ****   XMC_SPI_CH_STATUS_ERROR, /**< Status of the Module: ERROR */
 151:C:/Workspace/DAVE-4.4.2-64Bit/xmc1400-getstarted-optiga-trust-m/Libraries/XMCLib/inc\xmc_spi.h ****   XMC_SPI_CH_STATUS_BUSY   /**< The Module is busy */
 152:C:/Workspace/DAVE-4.4.2-64Bit/xmc1400-getstarted-optiga-trust-m/Libraries/XMCLib/inc\xmc_spi.h **** } XMC_SPI_CH_STATUS_t;
 153:C:/Workspace/DAVE-4.4.2-64Bit/xmc1400-getstarted-optiga-trust-m/Libraries/XMCLib/inc\xmc_spi.h **** /**
 154:C:/Workspace/DAVE-4.4.2-64Bit/xmc1400-getstarted-optiga-trust-m/Libraries/XMCLib/inc\xmc_spi.h ****  * Defines the SPI bus mode
 155:C:/Workspace/DAVE-4.4.2-64Bit/xmc1400-getstarted-optiga-trust-m/Libraries/XMCLib/inc\xmc_spi.h ****  */
 156:C:/Workspace/DAVE-4.4.2-64Bit/xmc1400-getstarted-optiga-trust-m/Libraries/XMCLib/inc\xmc_spi.h **** typedef enum XMC_SPI_CH_BUS_MODE
 157:C:/Workspace/DAVE-4.4.2-64Bit/xmc1400-getstarted-optiga-trust-m/Libraries/XMCLib/inc\xmc_spi.h **** {
 158:C:/Workspace/DAVE-4.4.2-64Bit/xmc1400-getstarted-optiga-trust-m/Libraries/XMCLib/inc\xmc_spi.h ****   XMC_SPI_CH_BUS_MODE_MASTER, /**< SPI Master */
 159:C:/Workspace/DAVE-4.4.2-64Bit/xmc1400-getstarted-optiga-trust-m/Libraries/XMCLib/inc\xmc_spi.h ****   XMC_SPI_CH_BUS_MODE_SLAVE   /**< SPI Slave */
 160:C:/Workspace/DAVE-4.4.2-64Bit/xmc1400-getstarted-optiga-trust-m/Libraries/XMCLib/inc\xmc_spi.h **** } XMC_SPI_CH_BUS_MODE_t;
 161:C:/Workspace/DAVE-4.4.2-64Bit/xmc1400-getstarted-optiga-trust-m/Libraries/XMCLib/inc\xmc_spi.h **** 
 162:C:/Workspace/DAVE-4.4.2-64Bit/xmc1400-getstarted-optiga-trust-m/Libraries/XMCLib/inc\xmc_spi.h **** /**
 163:C:/Workspace/DAVE-4.4.2-64Bit/xmc1400-getstarted-optiga-trust-m/Libraries/XMCLib/inc\xmc_spi.h ****  * Defines the Polarity of the slave select signals SELO[7:0] in relation to the master slave selec
 164:C:/Workspace/DAVE-4.4.2-64Bit/xmc1400-getstarted-optiga-trust-m/Libraries/XMCLib/inc\xmc_spi.h ****  */
 165:C:/Workspace/DAVE-4.4.2-64Bit/xmc1400-getstarted-optiga-trust-m/Libraries/XMCLib/inc\xmc_spi.h **** typedef enum XMC_SPI_CH_SLAVE_SEL_MSLS_INV
 166:C:/Workspace/DAVE-4.4.2-64Bit/xmc1400-getstarted-optiga-trust-m/Libraries/XMCLib/inc\xmc_spi.h **** {
 167:C:/Workspace/DAVE-4.4.2-64Bit/xmc1400-getstarted-optiga-trust-m/Libraries/XMCLib/inc\xmc_spi.h ****   XMC_SPI_CH_SLAVE_SEL_SAME_AS_MSLS = 0x0UL, /**< The SELO outputs have the same polarity as the MS
 168:C:/Workspace/DAVE-4.4.2-64Bit/xmc1400-getstarted-optiga-trust-m/Libraries/XMCLib/inc\xmc_spi.h ****                                                   (active high) */
 169:C:/Workspace/DAVE-4.4.2-64Bit/xmc1400-getstarted-optiga-trust-m/Libraries/XMCLib/inc\xmc_spi.h ****   XMC_SPI_CH_SLAVE_SEL_INV_TO_MSLS = 0x1UL << USIC_CH_PCR_SSCMode_SELINV_Pos /**< The SELO outputs 
 170:C:/Workspace/DAVE-4.4.2-64Bit/xmc1400-getstarted-optiga-trust-m/Libraries/XMCLib/inc\xmc_spi.h ****                                                                                   polarity to the M
 171:C:/Workspace/DAVE-4.4.2-64Bit/xmc1400-getstarted-optiga-trust-m/Libraries/XMCLib/inc\xmc_spi.h ****                                                                                   (active low)*/
 172:C:/Workspace/DAVE-4.4.2-64Bit/xmc1400-getstarted-optiga-trust-m/Libraries/XMCLib/inc\xmc_spi.h **** } XMC_SPI_CH_SLAVE_SEL_MSLS_INV_t;
 173:C:/Workspace/DAVE-4.4.2-64Bit/xmc1400-getstarted-optiga-trust-m/Libraries/XMCLib/inc\xmc_spi.h **** 
 174:C:/Workspace/DAVE-4.4.2-64Bit/xmc1400-getstarted-optiga-trust-m/Libraries/XMCLib/inc\xmc_spi.h **** /**
 175:C:/Workspace/DAVE-4.4.2-64Bit/xmc1400-getstarted-optiga-trust-m/Libraries/XMCLib/inc\xmc_spi.h ****  * Defines the Polarity of the data inputs.
 176:C:/Workspace/DAVE-4.4.2-64Bit/xmc1400-getstarted-optiga-trust-m/Libraries/XMCLib/inc\xmc_spi.h ****  */
 177:C:/Workspace/DAVE-4.4.2-64Bit/xmc1400-getstarted-optiga-trust-m/Libraries/XMCLib/inc\xmc_spi.h **** typedef enum XMC_SPI_CH_DATA_POLARITY
 178:C:/Workspace/DAVE-4.4.2-64Bit/xmc1400-getstarted-optiga-trust-m/Libraries/XMCLib/inc\xmc_spi.h **** {
 179:C:/Workspace/DAVE-4.4.2-64Bit/xmc1400-getstarted-optiga-trust-m/Libraries/XMCLib/inc\xmc_spi.h ****   XMC_SPI_CH_DATA_POLARITY_DIRECT = 0x0UL, /**< The polarity of the data line is not inverted */
 180:C:/Workspace/DAVE-4.4.2-64Bit/xmc1400-getstarted-optiga-trust-m/Libraries/XMCLib/inc\xmc_spi.h ****   XMC_SPI_CH_DATA_POLARITY_INVERT = 0x1UL << USIC_CH_DX2CR_DPOL_Pos /**< The polarity of the data l
 181:C:/Workspace/DAVE-4.4.2-64Bit/xmc1400-getstarted-optiga-trust-m/Libraries/XMCLib/inc\xmc_spi.h **** } XMC_SPI_CH_DATA_POLARITY_t;
 182:C:/Workspace/DAVE-4.4.2-64Bit/xmc1400-getstarted-optiga-trust-m/Libraries/XMCLib/inc\xmc_spi.h **** 
 183:C:/Workspace/DAVE-4.4.2-64Bit/xmc1400-getstarted-optiga-trust-m/Libraries/XMCLib/inc\xmc_spi.h **** /**
 184:C:/Workspace/DAVE-4.4.2-64Bit/xmc1400-getstarted-optiga-trust-m/Libraries/XMCLib/inc\xmc_spi.h ****  * Defines Slave Select lines
 185:C:/Workspace/DAVE-4.4.2-64Bit/xmc1400-getstarted-optiga-trust-m/Libraries/XMCLib/inc\xmc_spi.h ****  */
 186:C:/Workspace/DAVE-4.4.2-64Bit/xmc1400-getstarted-optiga-trust-m/Libraries/XMCLib/inc\xmc_spi.h **** typedef enum XMC_SPI_CH_SLAVE_SELECT
 187:C:/Workspace/DAVE-4.4.2-64Bit/xmc1400-getstarted-optiga-trust-m/Libraries/XMCLib/inc\xmc_spi.h **** {
 188:C:/Workspace/DAVE-4.4.2-64Bit/xmc1400-getstarted-optiga-trust-m/Libraries/XMCLib/inc\xmc_spi.h ****   XMC_SPI_CH_SLAVE_SELECT_0 = 1UL << USIC_CH_PCR_SSCMode_SELO_Pos,  /**< Slave Select line 0 */
 189:C:/Workspace/DAVE-4.4.2-64Bit/xmc1400-getstarted-optiga-trust-m/Libraries/XMCLib/inc\xmc_spi.h ****   XMC_SPI_CH_SLAVE_SELECT_1 = 2UL << USIC_CH_PCR_SSCMode_SELO_Pos,  /**< Slave Select line 1 */
 190:C:/Workspace/DAVE-4.4.2-64Bit/xmc1400-getstarted-optiga-trust-m/Libraries/XMCLib/inc\xmc_spi.h ****   XMC_SPI_CH_SLAVE_SELECT_2 = 4UL << USIC_CH_PCR_SSCMode_SELO_Pos,  /**< Slave Select line 2 */
 191:C:/Workspace/DAVE-4.4.2-64Bit/xmc1400-getstarted-optiga-trust-m/Libraries/XMCLib/inc\xmc_spi.h ****   XMC_SPI_CH_SLAVE_SELECT_3 = 8UL << USIC_CH_PCR_SSCMode_SELO_Pos,  /**< Slave Select line 3 */
 192:C:/Workspace/DAVE-4.4.2-64Bit/xmc1400-getstarted-optiga-trust-m/Libraries/XMCLib/inc\xmc_spi.h ****   XMC_SPI_CH_SLAVE_SELECT_4 = 16UL << USIC_CH_PCR_SSCMode_SELO_Pos, /**< Slave Select line 4 */
 193:C:/Workspace/DAVE-4.4.2-64Bit/xmc1400-getstarted-optiga-trust-m/Libraries/XMCLib/inc\xmc_spi.h ****   XMC_SPI_CH_SLAVE_SELECT_5 = 32UL << USIC_CH_PCR_SSCMode_SELO_Pos, /**< Slave Select line 5 */
 194:C:/Workspace/DAVE-4.4.2-64Bit/xmc1400-getstarted-optiga-trust-m/Libraries/XMCLib/inc\xmc_spi.h ****   XMC_SPI_CH_SLAVE_SELECT_6 = 64UL << USIC_CH_PCR_SSCMode_SELO_Pos, /**< Slave Select line 6 */
 195:C:/Workspace/DAVE-4.4.2-64Bit/xmc1400-getstarted-optiga-trust-m/Libraries/XMCLib/inc\xmc_spi.h ****   XMC_SPI_CH_SLAVE_SELECT_7 = 128UL << USIC_CH_PCR_SSCMode_SELO_Pos /**< Slave Select line 7 */
 196:C:/Workspace/DAVE-4.4.2-64Bit/xmc1400-getstarted-optiga-trust-m/Libraries/XMCLib/inc\xmc_spi.h **** } XMC_SPI_CH_SLAVE_SELECT_t;
 197:C:/Workspace/DAVE-4.4.2-64Bit/xmc1400-getstarted-optiga-trust-m/Libraries/XMCLib/inc\xmc_spi.h **** 
 198:C:/Workspace/DAVE-4.4.2-64Bit/xmc1400-getstarted-optiga-trust-m/Libraries/XMCLib/inc\xmc_spi.h **** /**
 199:C:/Workspace/DAVE-4.4.2-64Bit/xmc1400-getstarted-optiga-trust-m/Libraries/XMCLib/inc\xmc_spi.h ****  * Defines SPI specific events
 200:C:/Workspace/DAVE-4.4.2-64Bit/xmc1400-getstarted-optiga-trust-m/Libraries/XMCLib/inc\xmc_spi.h ****  */
 201:C:/Workspace/DAVE-4.4.2-64Bit/xmc1400-getstarted-optiga-trust-m/Libraries/XMCLib/inc\xmc_spi.h **** typedef enum XMC_SPI_CH_EVENT
 202:C:/Workspace/DAVE-4.4.2-64Bit/xmc1400-getstarted-optiga-trust-m/Libraries/XMCLib/inc\xmc_spi.h **** {
 203:C:/Workspace/DAVE-4.4.2-64Bit/xmc1400-getstarted-optiga-trust-m/Libraries/XMCLib/inc\xmc_spi.h ****   XMC_SPI_CH_EVENT_RECEIVE_START       = USIC_CH_CCR_RSIEN_Msk, /**< Receive start event */
 204:C:/Workspace/DAVE-4.4.2-64Bit/xmc1400-getstarted-optiga-trust-m/Libraries/XMCLib/inc\xmc_spi.h ****   XMC_SPI_CH_EVENT_DATA_LOST           = USIC_CH_CCR_DLIEN_Msk, /**< Data lost event */
 205:C:/Workspace/DAVE-4.4.2-64Bit/xmc1400-getstarted-optiga-trust-m/Libraries/XMCLib/inc\xmc_spi.h ****   XMC_SPI_CH_EVENT_TRANSMIT_SHIFT      = USIC_CH_CCR_TSIEN_Msk, /**< Transmit shift event */
 206:C:/Workspace/DAVE-4.4.2-64Bit/xmc1400-getstarted-optiga-trust-m/Libraries/XMCLib/inc\xmc_spi.h ****   XMC_SPI_CH_EVENT_TRANSMIT_BUFFER     = USIC_CH_CCR_TBIEN_Msk, /**< Transmit buffer event */
 207:C:/Workspace/DAVE-4.4.2-64Bit/xmc1400-getstarted-optiga-trust-m/Libraries/XMCLib/inc\xmc_spi.h ****   XMC_SPI_CH_EVENT_STANDARD_RECEIVE    = USIC_CH_CCR_RIEN_Msk,  /**< Receive event */
 208:C:/Workspace/DAVE-4.4.2-64Bit/xmc1400-getstarted-optiga-trust-m/Libraries/XMCLib/inc\xmc_spi.h ****   XMC_SPI_CH_EVENT_ALTERNATIVE_RECEIVE = USIC_CH_CCR_AIEN_Msk,  /**< Alternate receive event */
 209:C:/Workspace/DAVE-4.4.2-64Bit/xmc1400-getstarted-optiga-trust-m/Libraries/XMCLib/inc\xmc_spi.h ****   XMC_SPI_CH_EVENT_BAUD_RATE_GENERATOR = USIC_CH_CCR_BRGIEN_Msk, /**< Baudrate generator event */
 210:C:/Workspace/DAVE-4.4.2-64Bit/xmc1400-getstarted-optiga-trust-m/Libraries/XMCLib/inc\xmc_spi.h **** 
 211:C:/Workspace/DAVE-4.4.2-64Bit/xmc1400-getstarted-optiga-trust-m/Libraries/XMCLib/inc\xmc_spi.h ****   XMC_SPI_CH_EVENT_PARITY_ERROR = USIC_CH_PCR_SSCMode_PARIEN_Msk >> 13U,       /**< Parity error ev
 212:C:/Workspace/DAVE-4.4.2-64Bit/xmc1400-getstarted-optiga-trust-m/Libraries/XMCLib/inc\xmc_spi.h ****   XMC_SPI_CH_EVENT_MSLS_CHANGE =  USIC_CH_PCR_SSCMode_MSLSIEN_Msk >> 13U,      /**< Master slave se
 213:C:/Workspace/DAVE-4.4.2-64Bit/xmc1400-getstarted-optiga-trust-m/Libraries/XMCLib/inc\xmc_spi.h ****   XMC_SPI_CH_EVENT_DX2TIEN_ACTIVATED = USIC_CH_PCR_SSCMode_DX2TIEN_Msk >> 13U  /**< Slave select in
 214:C:/Workspace/DAVE-4.4.2-64Bit/xmc1400-getstarted-optiga-trust-m/Libraries/XMCLib/inc\xmc_spi.h **** } XMC_SPI_CH_EVENT_t;
 215:C:/Workspace/DAVE-4.4.2-64Bit/xmc1400-getstarted-optiga-trust-m/Libraries/XMCLib/inc\xmc_spi.h **** 
 216:C:/Workspace/DAVE-4.4.2-64Bit/xmc1400-getstarted-optiga-trust-m/Libraries/XMCLib/inc\xmc_spi.h **** /**
 217:C:/Workspace/DAVE-4.4.2-64Bit/xmc1400-getstarted-optiga-trust-m/Libraries/XMCLib/inc\xmc_spi.h ****  * Defines SPI event status
 218:C:/Workspace/DAVE-4.4.2-64Bit/xmc1400-getstarted-optiga-trust-m/Libraries/XMCLib/inc\xmc_spi.h ****  */
 219:C:/Workspace/DAVE-4.4.2-64Bit/xmc1400-getstarted-optiga-trust-m/Libraries/XMCLib/inc\xmc_spi.h **** typedef enum XMC_SPI_CH_STATUS_FLAG
 220:C:/Workspace/DAVE-4.4.2-64Bit/xmc1400-getstarted-optiga-trust-m/Libraries/XMCLib/inc\xmc_spi.h **** {
 221:C:/Workspace/DAVE-4.4.2-64Bit/xmc1400-getstarted-optiga-trust-m/Libraries/XMCLib/inc\xmc_spi.h ****   XMC_SPI_CH_STATUS_FLAG_MSLS = USIC_CH_PSR_SSCMode_MSLS_Msk,                          /**< Status 
 222:C:/Workspace/DAVE-4.4.2-64Bit/xmc1400-getstarted-optiga-trust-m/Libraries/XMCLib/inc\xmc_spi.h ****                                                                                             select(
 223:C:/Workspace/DAVE-4.4.2-64Bit/xmc1400-getstarted-optiga-trust-m/Libraries/XMCLib/inc\xmc_spi.h ****   XMC_SPI_CH_STATUS_FLAG_DX2S = USIC_CH_PSR_SSCMode_DX2S_Msk,                          /**< Status 
 224:C:/Workspace/DAVE-4.4.2-64Bit/xmc1400-getstarted-optiga-trust-m/Libraries/XMCLib/inc\xmc_spi.h ****                                                                                             input(D
 225:C:/Workspace/DAVE-4.4.2-64Bit/xmc1400-getstarted-optiga-trust-m/Libraries/XMCLib/inc\xmc_spi.h ****   XMC_SPI_CH_STATUS_FLAG_MSLS_EVENT_DETECTED = USIC_CH_PSR_SSCMode_MSLSEV_Msk,         /**< Status 
 226:C:/Workspace/DAVE-4.4.2-64Bit/xmc1400-getstarted-optiga-trust-m/Libraries/XMCLib/inc\xmc_spi.h ****                                                                                             output 
 227:C:/Workspace/DAVE-4.4.2-64Bit/xmc1400-getstarted-optiga-trust-m/Libraries/XMCLib/inc\xmc_spi.h ****   XMC_SPI_CH_STATUS_FLAG_DX2T_EVENT_DETECTED = USIC_CH_PSR_SSCMode_DX2TEV_Msk,         /**< Status 
 228:C:/Workspace/DAVE-4.4.2-64Bit/xmc1400-getstarted-optiga-trust-m/Libraries/XMCLib/inc\xmc_spi.h ****                                                                                             input s
 229:C:/Workspace/DAVE-4.4.2-64Bit/xmc1400-getstarted-optiga-trust-m/Libraries/XMCLib/inc\xmc_spi.h ****   XMC_SPI_CH_STATUS_FLAG_PARITY_ERROR_EVENT_DETECTED = USIC_CH_PSR_SSCMode_PARERR_Msk, /**< Indicat
 230:C:/Workspace/DAVE-4.4.2-64Bit/xmc1400-getstarted-optiga-trust-m/Libraries/XMCLib/inc\xmc_spi.h ****                                                                                             parity 
 231:C:/Workspace/DAVE-4.4.2-64Bit/xmc1400-getstarted-optiga-trust-m/Libraries/XMCLib/inc\xmc_spi.h ****   XMC_SPI_CH_STATUS_FLAG_RECEIVER_START_INDICATION = USIC_CH_PSR_SSCMode_RSIF_Msk,     /**< Status 
 232:C:/Workspace/DAVE-4.4.2-64Bit/xmc1400-getstarted-optiga-trust-m/Libraries/XMCLib/inc\xmc_spi.h ****                                                                                             event *
 233:C:/Workspace/DAVE-4.4.2-64Bit/xmc1400-getstarted-optiga-trust-m/Libraries/XMCLib/inc\xmc_spi.h ****   XMC_SPI_CH_STATUS_FLAG_DATA_LOST_INDICATION = USIC_CH_PSR_SSCMode_DLIF_Msk,          /**< Status 
 234:C:/Workspace/DAVE-4.4.2-64Bit/xmc1400-getstarted-optiga-trust-m/Libraries/XMCLib/inc\xmc_spi.h ****   XMC_SPI_CH_STATUS_FLAG_TRANSMIT_SHIFT_INDICATION = USIC_CH_PSR_SSCMode_TSIF_Msk,      /**< Status
 235:C:/Workspace/DAVE-4.4.2-64Bit/xmc1400-getstarted-optiga-trust-m/Libraries/XMCLib/inc\xmc_spi.h ****                                                                                             event *
 236:C:/Workspace/DAVE-4.4.2-64Bit/xmc1400-getstarted-optiga-trust-m/Libraries/XMCLib/inc\xmc_spi.h ****   XMC_SPI_CH_STATUS_FLAG_TRANSMIT_BUFFER_INDICATION = USIC_CH_PSR_SSCMode_TBIF_Msk,    /**< Status 
 237:C:/Workspace/DAVE-4.4.2-64Bit/xmc1400-getstarted-optiga-trust-m/Libraries/XMCLib/inc\xmc_spi.h ****                                                                                             event *
 238:C:/Workspace/DAVE-4.4.2-64Bit/xmc1400-getstarted-optiga-trust-m/Libraries/XMCLib/inc\xmc_spi.h ****   XMC_SPI_CH_STATUS_FLAG_RECEIVE_INDICATION = USIC_CH_PSR_SSCMode_RIF_Msk,             /**< Status 
 239:C:/Workspace/DAVE-4.4.2-64Bit/xmc1400-getstarted-optiga-trust-m/Libraries/XMCLib/inc\xmc_spi.h ****   XMC_SPI_CH_STATUS_FLAG_ALTERNATIVE_RECEIVE_INDICATION = USIC_CH_PSR_SSCMode_AIF_Msk, /**< Status 
 240:C:/Workspace/DAVE-4.4.2-64Bit/xmc1400-getstarted-optiga-trust-m/Libraries/XMCLib/inc\xmc_spi.h ****                                                                                             receive
 241:C:/Workspace/DAVE-4.4.2-64Bit/xmc1400-getstarted-optiga-trust-m/Libraries/XMCLib/inc\xmc_spi.h ****   XMC_SPI_CH_STATUS_FLAG_BAUD_RATE_GENERATOR_INDICATION = USIC_CH_PSR_SSCMode_BRGIF_Msk/**< Status 
 242:C:/Workspace/DAVE-4.4.2-64Bit/xmc1400-getstarted-optiga-trust-m/Libraries/XMCLib/inc\xmc_spi.h ****                                                                                             generat
 243:C:/Workspace/DAVE-4.4.2-64Bit/xmc1400-getstarted-optiga-trust-m/Libraries/XMCLib/inc\xmc_spi.h **** } XMC_SPI_CH_STATUS_FLAG_t;
 244:C:/Workspace/DAVE-4.4.2-64Bit/xmc1400-getstarted-optiga-trust-m/Libraries/XMCLib/inc\xmc_spi.h **** 
 245:C:/Workspace/DAVE-4.4.2-64Bit/xmc1400-getstarted-optiga-trust-m/Libraries/XMCLib/inc\xmc_spi.h **** /**
 246:C:/Workspace/DAVE-4.4.2-64Bit/xmc1400-getstarted-optiga-trust-m/Libraries/XMCLib/inc\xmc_spi.h ****  * Defines input frequency sources for slave select signal delay configuration.
 247:C:/Workspace/DAVE-4.4.2-64Bit/xmc1400-getstarted-optiga-trust-m/Libraries/XMCLib/inc\xmc_spi.h ****  */
 248:C:/Workspace/DAVE-4.4.2-64Bit/xmc1400-getstarted-optiga-trust-m/Libraries/XMCLib/inc\xmc_spi.h **** typedef enum XMC_SPI_CH_INPUT_FREQ_SLAVE_SELECT_DELAY
 249:C:/Workspace/DAVE-4.4.2-64Bit/xmc1400-getstarted-optiga-trust-m/Libraries/XMCLib/inc\xmc_spi.h **** {
 250:C:/Workspace/DAVE-4.4.2-64Bit/xmc1400-getstarted-optiga-trust-m/Libraries/XMCLib/inc\xmc_spi.h ****   XMC_SPI_CH_INPUT_FREQ_SLAVE_SELECT_DELAY_FPDIV = 0x0UL, /**< Output of PDIV divider: FPDIV */
 251:C:/Workspace/DAVE-4.4.2-64Bit/xmc1400-getstarted-optiga-trust-m/Libraries/XMCLib/inc\xmc_spi.h ****   XMC_SPI_CH_INPUT_FREQ_SLAVE_SELECT_DELAY_FPPP  = 0x1UL << USIC_CH_PCR_SSCMode_CTQSEL1_Pos, /**< P
 252:C:/Workspace/DAVE-4.4.2-64Bit/xmc1400-getstarted-optiga-trust-m/Libraries/XMCLib/inc\xmc_spi.h ****   XMC_SPI_CH_INPUT_FREQ_SLAVE_SELECT_DELAY_FSCLK = 0x2UL << USIC_CH_PCR_SSCMode_CTQSEL1_Pos, /**< S
 253:C:/Workspace/DAVE-4.4.2-64Bit/xmc1400-getstarted-optiga-trust-m/Libraries/XMCLib/inc\xmc_spi.h ****   XMC_SPI_CH_INPUT_FREQ_SLAVE_SELECT_DELAY_FMCLK = 0x3UL << USIC_CH_PCR_SSCMode_CTQSEL1_Pos  /**< M
 254:C:/Workspace/DAVE-4.4.2-64Bit/xmc1400-getstarted-optiga-trust-m/Libraries/XMCLib/inc\xmc_spi.h **** } XMC_SPI_CH_INPUT_FREQ_SLAVE_SELECT_DELAY_t;
 255:C:/Workspace/DAVE-4.4.2-64Bit/xmc1400-getstarted-optiga-trust-m/Libraries/XMCLib/inc\xmc_spi.h **** 
 256:C:/Workspace/DAVE-4.4.2-64Bit/xmc1400-getstarted-optiga-trust-m/Libraries/XMCLib/inc\xmc_spi.h **** /**
 257:C:/Workspace/DAVE-4.4.2-64Bit/xmc1400-getstarted-optiga-trust-m/Libraries/XMCLib/inc\xmc_spi.h ****  * Define data and clock input stages
 258:C:/Workspace/DAVE-4.4.2-64Bit/xmc1400-getstarted-optiga-trust-m/Libraries/XMCLib/inc\xmc_spi.h ****  */
 259:C:/Workspace/DAVE-4.4.2-64Bit/xmc1400-getstarted-optiga-trust-m/Libraries/XMCLib/inc\xmc_spi.h **** typedef enum XMC_SPI_CH_INPUT
 260:C:/Workspace/DAVE-4.4.2-64Bit/xmc1400-getstarted-optiga-trust-m/Libraries/XMCLib/inc\xmc_spi.h **** {
 261:C:/Workspace/DAVE-4.4.2-64Bit/xmc1400-getstarted-optiga-trust-m/Libraries/XMCLib/inc\xmc_spi.h ****   XMC_SPI_CH_INPUT_DIN0 = 0UL,         /**< Data input stage 0 */ 
 262:C:/Workspace/DAVE-4.4.2-64Bit/xmc1400-getstarted-optiga-trust-m/Libraries/XMCLib/inc\xmc_spi.h ****   XMC_SPI_CH_INPUT_SLAVE_SCLKIN = 1UL, /**< Clock input stage */
 263:C:/Workspace/DAVE-4.4.2-64Bit/xmc1400-getstarted-optiga-trust-m/Libraries/XMCLib/inc\xmc_spi.h ****   XMC_SPI_CH_INPUT_SLAVE_SELIN = 2UL,  /**< Slave select input stage */
 264:C:/Workspace/DAVE-4.4.2-64Bit/xmc1400-getstarted-optiga-trust-m/Libraries/XMCLib/inc\xmc_spi.h ****   XMC_SPI_CH_INPUT_DIN1 = 3UL,         /**< Data input stage 1 */
 265:C:/Workspace/DAVE-4.4.2-64Bit/xmc1400-getstarted-optiga-trust-m/Libraries/XMCLib/inc\xmc_spi.h ****   XMC_SPI_CH_INPUT_DIN2 = 4UL,         /**< Data input stage 2 */
 266:C:/Workspace/DAVE-4.4.2-64Bit/xmc1400-getstarted-optiga-trust-m/Libraries/XMCLib/inc\xmc_spi.h ****   XMC_SPI_CH_INPUT_DIN3 = 5UL          /**< Data input stage 3 */
 267:C:/Workspace/DAVE-4.4.2-64Bit/xmc1400-getstarted-optiga-trust-m/Libraries/XMCLib/inc\xmc_spi.h **** } XMC_SPI_CH_INPUT_t;
 268:C:/Workspace/DAVE-4.4.2-64Bit/xmc1400-getstarted-optiga-trust-m/Libraries/XMCLib/inc\xmc_spi.h **** 
 269:C:/Workspace/DAVE-4.4.2-64Bit/xmc1400-getstarted-optiga-trust-m/Libraries/XMCLib/inc\xmc_spi.h **** /**
 270:C:/Workspace/DAVE-4.4.2-64Bit/xmc1400-getstarted-optiga-trust-m/Libraries/XMCLib/inc\xmc_spi.h ****  * Define SPI data transfer mode
 271:C:/Workspace/DAVE-4.4.2-64Bit/xmc1400-getstarted-optiga-trust-m/Libraries/XMCLib/inc\xmc_spi.h ****  */
 272:C:/Workspace/DAVE-4.4.2-64Bit/xmc1400-getstarted-optiga-trust-m/Libraries/XMCLib/inc\xmc_spi.h **** typedef enum XMC_SPI_CH_MODE
 273:C:/Workspace/DAVE-4.4.2-64Bit/xmc1400-getstarted-optiga-trust-m/Libraries/XMCLib/inc\xmc_spi.h **** {
 274:C:/Workspace/DAVE-4.4.2-64Bit/xmc1400-getstarted-optiga-trust-m/Libraries/XMCLib/inc\xmc_spi.h ****   XMC_SPI_CH_MODE_STANDARD = 0UL,            /**< SPI standard full duplex mode */ 
 275:C:/Workspace/DAVE-4.4.2-64Bit/xmc1400-getstarted-optiga-trust-m/Libraries/XMCLib/inc\xmc_spi.h ****   XMC_SPI_CH_MODE_STANDARD_HALFDUPLEX = 5UL, /**< SPI standard half duplex mode */ 
 276:C:/Workspace/DAVE-4.4.2-64Bit/xmc1400-getstarted-optiga-trust-m/Libraries/XMCLib/inc\xmc_spi.h ****   XMC_SPI_CH_MODE_DUAL= 6UL,                 /**< SPI half duplex mode with dual data lines */ 
 277:C:/Workspace/DAVE-4.4.2-64Bit/xmc1400-getstarted-optiga-trust-m/Libraries/XMCLib/inc\xmc_spi.h ****   XMC_SPI_CH_MODE_QUAD= 7UL                  /**< SPI half duplex mode with quad data lines */
 278:C:/Workspace/DAVE-4.4.2-64Bit/xmc1400-getstarted-optiga-trust-m/Libraries/XMCLib/inc\xmc_spi.h **** } XMC_SPI_CH_MODE_t;
 279:C:/Workspace/DAVE-4.4.2-64Bit/xmc1400-getstarted-optiga-trust-m/Libraries/XMCLib/inc\xmc_spi.h **** 
 280:C:/Workspace/DAVE-4.4.2-64Bit/xmc1400-getstarted-optiga-trust-m/Libraries/XMCLib/inc\xmc_spi.h **** 
 281:C:/Workspace/DAVE-4.4.2-64Bit/xmc1400-getstarted-optiga-trust-m/Libraries/XMCLib/inc\xmc_spi.h **** /**
 282:C:/Workspace/DAVE-4.4.2-64Bit/xmc1400-getstarted-optiga-trust-m/Libraries/XMCLib/inc\xmc_spi.h ****  * SPI Baudrate Generator shift clock passive level
 283:C:/Workspace/DAVE-4.4.2-64Bit/xmc1400-getstarted-optiga-trust-m/Libraries/XMCLib/inc\xmc_spi.h ****  */
 284:C:/Workspace/DAVE-4.4.2-64Bit/xmc1400-getstarted-optiga-trust-m/Libraries/XMCLib/inc\xmc_spi.h **** typedef enum XMC_SPI_CH_BRG_SHIFT_CLOCK_PASSIVE_LEVEL
 285:C:/Workspace/DAVE-4.4.2-64Bit/xmc1400-getstarted-optiga-trust-m/Libraries/XMCLib/inc\xmc_spi.h **** {
 286:C:/Workspace/DAVE-4.4.2-64Bit/xmc1400-getstarted-optiga-trust-m/Libraries/XMCLib/inc\xmc_spi.h ****   /**< Passive clock level 0, delay disabled */
 287:C:/Workspace/DAVE-4.4.2-64Bit/xmc1400-getstarted-optiga-trust-m/Libraries/XMCLib/inc\xmc_spi.h ****   XMC_SPI_CH_BRG_SHIFT_CLOCK_PASSIVE_LEVEL_0_DELAY_DISABLED = XMC_USIC_CH_BRG_SHIFT_CLOCK_PASSIVE_L
 288:C:/Workspace/DAVE-4.4.2-64Bit/xmc1400-getstarted-optiga-trust-m/Libraries/XMCLib/inc\xmc_spi.h ****   /**< Passive clock level 1, delay disabled */
 289:C:/Workspace/DAVE-4.4.2-64Bit/xmc1400-getstarted-optiga-trust-m/Libraries/XMCLib/inc\xmc_spi.h ****   XMC_SPI_CH_BRG_SHIFT_CLOCK_PASSIVE_LEVEL_1_DELAY_DISABLED = XMC_USIC_CH_BRG_SHIFT_CLOCK_PASSIVE_L
 290:C:/Workspace/DAVE-4.4.2-64Bit/xmc1400-getstarted-optiga-trust-m/Libraries/XMCLib/inc\xmc_spi.h ****   /**< Passive clock level 0, delay enabled */
 291:C:/Workspace/DAVE-4.4.2-64Bit/xmc1400-getstarted-optiga-trust-m/Libraries/XMCLib/inc\xmc_spi.h ****   XMC_SPI_CH_BRG_SHIFT_CLOCK_PASSIVE_LEVEL_0_DELAY_ENABLED  = XMC_USIC_CH_BRG_SHIFT_CLOCK_PASSIVE_L
 292:C:/Workspace/DAVE-4.4.2-64Bit/xmc1400-getstarted-optiga-trust-m/Libraries/XMCLib/inc\xmc_spi.h ****   /**< Passive clock level 1, delay enabled */
 293:C:/Workspace/DAVE-4.4.2-64Bit/xmc1400-getstarted-optiga-trust-m/Libraries/XMCLib/inc\xmc_spi.h ****   XMC_SPI_CH_BRG_SHIFT_CLOCK_PASSIVE_LEVEL_1_DELAY_ENABLED  = XMC_USIC_CH_BRG_SHIFT_CLOCK_PASSIVE_L
 294:C:/Workspace/DAVE-4.4.2-64Bit/xmc1400-getstarted-optiga-trust-m/Libraries/XMCLib/inc\xmc_spi.h **** } XMC_SPI_CH_BRG_SHIFT_CLOCK_PASSIVE_LEVEL_t;
 295:C:/Workspace/DAVE-4.4.2-64Bit/xmc1400-getstarted-optiga-trust-m/Libraries/XMCLib/inc\xmc_spi.h **** 
 296:C:/Workspace/DAVE-4.4.2-64Bit/xmc1400-getstarted-optiga-trust-m/Libraries/XMCLib/inc\xmc_spi.h **** /**
 297:C:/Workspace/DAVE-4.4.2-64Bit/xmc1400-getstarted-optiga-trust-m/Libraries/XMCLib/inc\xmc_spi.h ****  * SPI Baudrate Generator shift clock output
 298:C:/Workspace/DAVE-4.4.2-64Bit/xmc1400-getstarted-optiga-trust-m/Libraries/XMCLib/inc\xmc_spi.h **** */
 299:C:/Workspace/DAVE-4.4.2-64Bit/xmc1400-getstarted-optiga-trust-m/Libraries/XMCLib/inc\xmc_spi.h **** typedef enum XMC_SPI_CH_BRG_SHIFT_CLOCK_OUTPUT
 300:C:/Workspace/DAVE-4.4.2-64Bit/xmc1400-getstarted-optiga-trust-m/Libraries/XMCLib/inc\xmc_spi.h **** {
 301:C:/Workspace/DAVE-4.4.2-64Bit/xmc1400-getstarted-optiga-trust-m/Libraries/XMCLib/inc\xmc_spi.h ****   XMC_SPI_CH_BRG_SHIFT_CLOCK_OUTPUT_SCLK = XMC_USIC_CH_BRG_SHIFT_CLOCK_OUTPUT_SCLK,  /**< Baudrate 
 302:C:/Workspace/DAVE-4.4.2-64Bit/xmc1400-getstarted-optiga-trust-m/Libraries/XMCLib/inc\xmc_spi.h ****   XMC_SPI_CH_BRG_SHIFT_CLOCK_OUTPUT_DX1  = XMC_USIC_CH_BRG_SHIFT_CLOCK_OUTPUT_DX1   /**< Clock obta
 303:C:/Workspace/DAVE-4.4.2-64Bit/xmc1400-getstarted-optiga-trust-m/Libraries/XMCLib/inc\xmc_spi.h **** } XMC_SPI_CH_BRG_SHIFT_CLOCK_OUTPUT_t;
 304:C:/Workspace/DAVE-4.4.2-64Bit/xmc1400-getstarted-optiga-trust-m/Libraries/XMCLib/inc\xmc_spi.h **** 
 305:C:/Workspace/DAVE-4.4.2-64Bit/xmc1400-getstarted-optiga-trust-m/Libraries/XMCLib/inc\xmc_spi.h **** /**
 306:C:/Workspace/DAVE-4.4.2-64Bit/xmc1400-getstarted-optiga-trust-m/Libraries/XMCLib/inc\xmc_spi.h ****  * SPI channel interrupt node pointers
 307:C:/Workspace/DAVE-4.4.2-64Bit/xmc1400-getstarted-optiga-trust-m/Libraries/XMCLib/inc\xmc_spi.h ****  */
 308:C:/Workspace/DAVE-4.4.2-64Bit/xmc1400-getstarted-optiga-trust-m/Libraries/XMCLib/inc\xmc_spi.h **** typedef enum XMC_SPI_CH_INTERRUPT_NODE_POINTER
 309:C:/Workspace/DAVE-4.4.2-64Bit/xmc1400-getstarted-optiga-trust-m/Libraries/XMCLib/inc\xmc_spi.h **** {
 310:C:/Workspace/DAVE-4.4.2-64Bit/xmc1400-getstarted-optiga-trust-m/Libraries/XMCLib/inc\xmc_spi.h ****   XMC_SPI_CH_INTERRUPT_NODE_POINTER_TRANSMIT_SHIFT      = XMC_USIC_CH_INTERRUPT_NODE_POINTER_TRANSM
 311:C:/Workspace/DAVE-4.4.2-64Bit/xmc1400-getstarted-optiga-trust-m/Libraries/XMCLib/inc\xmc_spi.h ****   XMC_SPI_CH_INTERRUPT_NODE_POINTER_TRANSMIT_BUFFER     = XMC_USIC_CH_INTERRUPT_NODE_POINTER_TRANSM
 312:C:/Workspace/DAVE-4.4.2-64Bit/xmc1400-getstarted-optiga-trust-m/Libraries/XMCLib/inc\xmc_spi.h ****   XMC_SPI_CH_INTERRUPT_NODE_POINTER_RECEIVE             = XMC_USIC_CH_INTERRUPT_NODE_POINTER_RECEIV
 313:C:/Workspace/DAVE-4.4.2-64Bit/xmc1400-getstarted-optiga-trust-m/Libraries/XMCLib/inc\xmc_spi.h ****   XMC_SPI_CH_INTERRUPT_NODE_POINTER_ALTERNATE_RECEIVE   = XMC_USIC_CH_INTERRUPT_NODE_POINTER_ALTERN
 314:C:/Workspace/DAVE-4.4.2-64Bit/xmc1400-getstarted-optiga-trust-m/Libraries/XMCLib/inc\xmc_spi.h ****   XMC_SPI_CH_INTERRUPT_NODE_POINTER_PROTOCOL            = XMC_USIC_CH_INTERRUPT_NODE_POINTER_PROTOC
 315:C:/Workspace/DAVE-4.4.2-64Bit/xmc1400-getstarted-optiga-trust-m/Libraries/XMCLib/inc\xmc_spi.h **** } XMC_SPI_CH_INTERRUPT_NODE_POINTER_t;
 316:C:/Workspace/DAVE-4.4.2-64Bit/xmc1400-getstarted-optiga-trust-m/Libraries/XMCLib/inc\xmc_spi.h **** 
 317:C:/Workspace/DAVE-4.4.2-64Bit/xmc1400-getstarted-optiga-trust-m/Libraries/XMCLib/inc\xmc_spi.h **** /**************************************************************************************************
 318:C:/Workspace/DAVE-4.4.2-64Bit/xmc1400-getstarted-optiga-trust-m/Libraries/XMCLib/inc\xmc_spi.h ****  * DATA STRUCTURES
 319:C:/Workspace/DAVE-4.4.2-64Bit/xmc1400-getstarted-optiga-trust-m/Libraries/XMCLib/inc\xmc_spi.h **** ***************************************************************************************************
 320:C:/Workspace/DAVE-4.4.2-64Bit/xmc1400-getstarted-optiga-trust-m/Libraries/XMCLib/inc\xmc_spi.h **** 
 321:C:/Workspace/DAVE-4.4.2-64Bit/xmc1400-getstarted-optiga-trust-m/Libraries/XMCLib/inc\xmc_spi.h **** /**
 322:C:/Workspace/DAVE-4.4.2-64Bit/xmc1400-getstarted-optiga-trust-m/Libraries/XMCLib/inc\xmc_spi.h ****  * Structure for initializing SPI channel.
 323:C:/Workspace/DAVE-4.4.2-64Bit/xmc1400-getstarted-optiga-trust-m/Libraries/XMCLib/inc\xmc_spi.h ****  */
 324:C:/Workspace/DAVE-4.4.2-64Bit/xmc1400-getstarted-optiga-trust-m/Libraries/XMCLib/inc\xmc_spi.h **** typedef struct XMC_SPI_CH_CONFIG
 325:C:/Workspace/DAVE-4.4.2-64Bit/xmc1400-getstarted-optiga-trust-m/Libraries/XMCLib/inc\xmc_spi.h **** {
 326:C:/Workspace/DAVE-4.4.2-64Bit/xmc1400-getstarted-optiga-trust-m/Libraries/XMCLib/inc\xmc_spi.h ****   uint32_t baudrate;							                /**< Module baud rate for communication */
 327:C:/Workspace/DAVE-4.4.2-64Bit/xmc1400-getstarted-optiga-trust-m/Libraries/XMCLib/inc\xmc_spi.h ****   bool normal_divider_mode;                       /**< Selects normal divider mode for baudrate gen
 328:C:/Workspace/DAVE-4.4.2-64Bit/xmc1400-getstarted-optiga-trust-m/Libraries/XMCLib/inc\xmc_spi.h ****   XMC_SPI_CH_BUS_MODE_t bus_mode;                 /**< Bus mode: Master/Slave */
 329:C:/Workspace/DAVE-4.4.2-64Bit/xmc1400-getstarted-optiga-trust-m/Libraries/XMCLib/inc\xmc_spi.h ****   XMC_SPI_CH_SLAVE_SEL_MSLS_INV_t selo_inversion; /**< Enable inversion of Slave select signal rela
 330:C:/Workspace/DAVE-4.4.2-64Bit/xmc1400-getstarted-optiga-trust-m/Libraries/XMCLib/inc\xmc_spi.h ****                                                        MSLS signal  */
 331:C:/Workspace/DAVE-4.4.2-64Bit/xmc1400-getstarted-optiga-trust-m/Libraries/XMCLib/inc\xmc_spi.h ****   XMC_USIC_CH_PARITY_MODE_t parity_mode;          /**< Enable parity check for transmit and receive
 332:C:/Workspace/DAVE-4.4.2-64Bit/xmc1400-getstarted-optiga-trust-m/Libraries/XMCLib/inc\xmc_spi.h **** } XMC_SPI_CH_CONFIG_t;
 333:C:/Workspace/DAVE-4.4.2-64Bit/xmc1400-getstarted-optiga-trust-m/Libraries/XMCLib/inc\xmc_spi.h **** 
 334:C:/Workspace/DAVE-4.4.2-64Bit/xmc1400-getstarted-optiga-trust-m/Libraries/XMCLib/inc\xmc_spi.h **** /**************************************************************************************************
 335:C:/Workspace/DAVE-4.4.2-64Bit/xmc1400-getstarted-optiga-trust-m/Libraries/XMCLib/inc\xmc_spi.h ****  * API PROTOTYPES
 336:C:/Workspace/DAVE-4.4.2-64Bit/xmc1400-getstarted-optiga-trust-m/Libraries/XMCLib/inc\xmc_spi.h ****  **************************************************************************************************
 337:C:/Workspace/DAVE-4.4.2-64Bit/xmc1400-getstarted-optiga-trust-m/Libraries/XMCLib/inc\xmc_spi.h **** 
 338:C:/Workspace/DAVE-4.4.2-64Bit/xmc1400-getstarted-optiga-trust-m/Libraries/XMCLib/inc\xmc_spi.h **** #ifdef __cplusplus
 339:C:/Workspace/DAVE-4.4.2-64Bit/xmc1400-getstarted-optiga-trust-m/Libraries/XMCLib/inc\xmc_spi.h **** extern "C" {
 340:C:/Workspace/DAVE-4.4.2-64Bit/xmc1400-getstarted-optiga-trust-m/Libraries/XMCLib/inc\xmc_spi.h **** #endif
 341:C:/Workspace/DAVE-4.4.2-64Bit/xmc1400-getstarted-optiga-trust-m/Libraries/XMCLib/inc\xmc_spi.h **** 
 342:C:/Workspace/DAVE-4.4.2-64Bit/xmc1400-getstarted-optiga-trust-m/Libraries/XMCLib/inc\xmc_spi.h **** /**
 343:C:/Workspace/DAVE-4.4.2-64Bit/xmc1400-getstarted-optiga-trust-m/Libraries/XMCLib/inc\xmc_spi.h ****  * @param channel A constant pointer to XMC_USIC_CH_t, pointing to the USIC channel base address.
 344:C:/Workspace/DAVE-4.4.2-64Bit/xmc1400-getstarted-optiga-trust-m/Libraries/XMCLib/inc\xmc_spi.h ****  * @param config pointer to constant SPI channel configuration data structure.\n
 345:C:/Workspace/DAVE-4.4.2-64Bit/xmc1400-getstarted-optiga-trust-m/Libraries/XMCLib/inc\xmc_spi.h ****  *               Refer data structure @ref XMC_SPI_CH_CONFIG_t for detail.
 346:C:/Workspace/DAVE-4.4.2-64Bit/xmc1400-getstarted-optiga-trust-m/Libraries/XMCLib/inc\xmc_spi.h ****  *
 347:C:/Workspace/DAVE-4.4.2-64Bit/xmc1400-getstarted-optiga-trust-m/Libraries/XMCLib/inc\xmc_spi.h ****  * @return None
 348:C:/Workspace/DAVE-4.4.2-64Bit/xmc1400-getstarted-optiga-trust-m/Libraries/XMCLib/inc\xmc_spi.h ****  *
 349:C:/Workspace/DAVE-4.4.2-64Bit/xmc1400-getstarted-optiga-trust-m/Libraries/XMCLib/inc\xmc_spi.h ****  * \par<b>Description:</b><br>
 350:C:/Workspace/DAVE-4.4.2-64Bit/xmc1400-getstarted-optiga-trust-m/Libraries/XMCLib/inc\xmc_spi.h ****  * Initializes the selected SPI \a channel with the \a config structure.\n\n
 351:C:/Workspace/DAVE-4.4.2-64Bit/xmc1400-getstarted-optiga-trust-m/Libraries/XMCLib/inc\xmc_spi.h ****  * Enable SPI channel by calling XMC_USIC_CH_Enable() and then configures
 352:C:/Workspace/DAVE-4.4.2-64Bit/xmc1400-getstarted-optiga-trust-m/Libraries/XMCLib/inc\xmc_spi.h ****  * <ul>
 353:C:/Workspace/DAVE-4.4.2-64Bit/xmc1400-getstarted-optiga-trust-m/Libraries/XMCLib/inc\xmc_spi.h ****  * <li>Baudrate,</li>
 354:C:/Workspace/DAVE-4.4.2-64Bit/xmc1400-getstarted-optiga-trust-m/Libraries/XMCLib/inc\xmc_spi.h ****  * <li>Passive data level as active high,</li>
 355:C:/Workspace/DAVE-4.4.2-64Bit/xmc1400-getstarted-optiga-trust-m/Libraries/XMCLib/inc\xmc_spi.h ****  * <li>Shift control signal as active high,</li>
 356:C:/Workspace/DAVE-4.4.2-64Bit/xmc1400-getstarted-optiga-trust-m/Libraries/XMCLib/inc\xmc_spi.h ****  * <li>Frame length as 64U,</li>
 357:C:/Workspace/DAVE-4.4.2-64Bit/xmc1400-getstarted-optiga-trust-m/Libraries/XMCLib/inc\xmc_spi.h ****  * <li>Word length as 8U,</li>
 358:C:/Workspace/DAVE-4.4.2-64Bit/xmc1400-getstarted-optiga-trust-m/Libraries/XMCLib/inc\xmc_spi.h ****  * <li>Enable Hardware port control mode,</li>
 359:C:/Workspace/DAVE-4.4.2-64Bit/xmc1400-getstarted-optiga-trust-m/Libraries/XMCLib/inc\xmc_spi.h ****  * <li>Enable transmission of data TDV(Transmit data valid) bit is set to 1,</li>
 360:C:/Workspace/DAVE-4.4.2-64Bit/xmc1400-getstarted-optiga-trust-m/Libraries/XMCLib/inc\xmc_spi.h ****  * <li>Enable invalidation of data in TBUF once loaded into shift register,</li>
 361:C:/Workspace/DAVE-4.4.2-64Bit/xmc1400-getstarted-optiga-trust-m/Libraries/XMCLib/inc\xmc_spi.h ****  * <li>Parity mode settings</li>
 362:C:/Workspace/DAVE-4.4.2-64Bit/xmc1400-getstarted-optiga-trust-m/Libraries/XMCLib/inc\xmc_spi.h ****  * </ul>
 363:C:/Workspace/DAVE-4.4.2-64Bit/xmc1400-getstarted-optiga-trust-m/Libraries/XMCLib/inc\xmc_spi.h ****  * And if master mode is selected,
 364:C:/Workspace/DAVE-4.4.2-64Bit/xmc1400-getstarted-optiga-trust-m/Libraries/XMCLib/inc\xmc_spi.h ****  * <ul>
 365:C:/Workspace/DAVE-4.4.2-64Bit/xmc1400-getstarted-optiga-trust-m/Libraries/XMCLib/inc\xmc_spi.h ****  * <li>Enables MSLS signal generation,</li>
 366:C:/Workspace/DAVE-4.4.2-64Bit/xmc1400-getstarted-optiga-trust-m/Libraries/XMCLib/inc\xmc_spi.h ****  * <li>configures slave selection as normal mode,</li>
 367:C:/Workspace/DAVE-4.4.2-64Bit/xmc1400-getstarted-optiga-trust-m/Libraries/XMCLib/inc\xmc_spi.h ****  * <li>Set polarity for the Slave signal,</li>
 368:C:/Workspace/DAVE-4.4.2-64Bit/xmc1400-getstarted-optiga-trust-m/Libraries/XMCLib/inc\xmc_spi.h ****  * <li>Enable Frame end mode(MSLS signal is kept active after transmission of a frame)</li>
 369:C:/Workspace/DAVE-4.4.2-64Bit/xmc1400-getstarted-optiga-trust-m/Libraries/XMCLib/inc\xmc_spi.h ****  * </ul>
 370:C:/Workspace/DAVE-4.4.2-64Bit/xmc1400-getstarted-optiga-trust-m/Libraries/XMCLib/inc\xmc_spi.h ****  */
 371:C:/Workspace/DAVE-4.4.2-64Bit/xmc1400-getstarted-optiga-trust-m/Libraries/XMCLib/inc\xmc_spi.h **** void XMC_SPI_CH_Init(XMC_USIC_CH_t *const channel, const XMC_SPI_CH_CONFIG_t *const config);
 372:C:/Workspace/DAVE-4.4.2-64Bit/xmc1400-getstarted-optiga-trust-m/Libraries/XMCLib/inc\xmc_spi.h **** 
 373:C:/Workspace/DAVE-4.4.2-64Bit/xmc1400-getstarted-optiga-trust-m/Libraries/XMCLib/inc\xmc_spi.h **** /**
 374:C:/Workspace/DAVE-4.4.2-64Bit/xmc1400-getstarted-optiga-trust-m/Libraries/XMCLib/inc\xmc_spi.h ****  * @param channel A constant pointer to XMC_USIC_CH_t, pointing to the USIC channel base address.
 375:C:/Workspace/DAVE-4.4.2-64Bit/xmc1400-getstarted-optiga-trust-m/Libraries/XMCLib/inc\xmc_spi.h ****  *
 376:C:/Workspace/DAVE-4.4.2-64Bit/xmc1400-getstarted-optiga-trust-m/Libraries/XMCLib/inc\xmc_spi.h ****  * @return None
 377:C:/Workspace/DAVE-4.4.2-64Bit/xmc1400-getstarted-optiga-trust-m/Libraries/XMCLib/inc\xmc_spi.h ****  *
 378:C:/Workspace/DAVE-4.4.2-64Bit/xmc1400-getstarted-optiga-trust-m/Libraries/XMCLib/inc\xmc_spi.h ****  * \par<b>Description:</b><br>
 379:C:/Workspace/DAVE-4.4.2-64Bit/xmc1400-getstarted-optiga-trust-m/Libraries/XMCLib/inc\xmc_spi.h ****  * Set the selected USIC channel to operate in SPI mode, by setting CCR.MODE bits.\n\n
 380:C:/Workspace/DAVE-4.4.2-64Bit/xmc1400-getstarted-optiga-trust-m/Libraries/XMCLib/inc\xmc_spi.h ****  * It should be executed after XMC_SPI_CH_Init() during initialization. By invoking XMC_SPI_CH_Stop
 381:C:/Workspace/DAVE-4.4.2-64Bit/xmc1400-getstarted-optiga-trust-m/Libraries/XMCLib/inc\xmc_spi.h ****  * to IDLE state. Call XMC_SPI_CH_Start() to set the SPI mode again, as needed later in the program
 382:C:/Workspace/DAVE-4.4.2-64Bit/xmc1400-getstarted-optiga-trust-m/Libraries/XMCLib/inc\xmc_spi.h ****  *
 383:C:/Workspace/DAVE-4.4.2-64Bit/xmc1400-getstarted-optiga-trust-m/Libraries/XMCLib/inc\xmc_spi.h ****  * \par<b>Related APIs:</b><BR>
 384:C:/Workspace/DAVE-4.4.2-64Bit/xmc1400-getstarted-optiga-trust-m/Libraries/XMCLib/inc\xmc_spi.h ****  * XMC_SPI_CH_Init(), XMC_SPI_CH_Stop()
 385:C:/Workspace/DAVE-4.4.2-64Bit/xmc1400-getstarted-optiga-trust-m/Libraries/XMCLib/inc\xmc_spi.h ****  */
 386:C:/Workspace/DAVE-4.4.2-64Bit/xmc1400-getstarted-optiga-trust-m/Libraries/XMCLib/inc\xmc_spi.h **** __STATIC_INLINE void XMC_SPI_CH_Start(XMC_USIC_CH_t *const channel)
 387:C:/Workspace/DAVE-4.4.2-64Bit/xmc1400-getstarted-optiga-trust-m/Libraries/XMCLib/inc\xmc_spi.h **** {
 388:C:/Workspace/DAVE-4.4.2-64Bit/xmc1400-getstarted-optiga-trust-m/Libraries/XMCLib/inc\xmc_spi.h ****   /* USIC channel in SPI mode */
 389:C:/Workspace/DAVE-4.4.2-64Bit/xmc1400-getstarted-optiga-trust-m/Libraries/XMCLib/inc\xmc_spi.h ****   XMC_USIC_CH_SetMode(channel, XMC_USIC_CH_OPERATING_MODE_SPI);
 390:C:/Workspace/DAVE-4.4.2-64Bit/xmc1400-getstarted-optiga-trust-m/Libraries/XMCLib/inc\xmc_spi.h **** }
 391:C:/Workspace/DAVE-4.4.2-64Bit/xmc1400-getstarted-optiga-trust-m/Libraries/XMCLib/inc\xmc_spi.h **** 
 392:C:/Workspace/DAVE-4.4.2-64Bit/xmc1400-getstarted-optiga-trust-m/Libraries/XMCLib/inc\xmc_spi.h **** /**
 393:C:/Workspace/DAVE-4.4.2-64Bit/xmc1400-getstarted-optiga-trust-m/Libraries/XMCLib/inc\xmc_spi.h ****  * @param channel A constant pointer to XMC_USIC_CH_t, pointing to the USIC channel base address.
 394:C:/Workspace/DAVE-4.4.2-64Bit/xmc1400-getstarted-optiga-trust-m/Libraries/XMCLib/inc\xmc_spi.h ****  *
 395:C:/Workspace/DAVE-4.4.2-64Bit/xmc1400-getstarted-optiga-trust-m/Libraries/XMCLib/inc\xmc_spi.h ****  * @return XMC_SPI_CH_STATUS_t Status of the SPI driver after the request for stopping is processed
 396:C:/Workspace/DAVE-4.4.2-64Bit/xmc1400-getstarted-optiga-trust-m/Libraries/XMCLib/inc\xmc_spi.h ****  *        XMC_SPI_CH_STATUS_OK- If the USIC channel is successfully put to IDLE mode. \n
 397:C:/Workspace/DAVE-4.4.2-64Bit/xmc1400-getstarted-optiga-trust-m/Libraries/XMCLib/inc\xmc_spi.h ****  *        XMC_SPI_CH_STATUS_BUSY- If the USIC channel is busy transmitting data.
 398:C:/Workspace/DAVE-4.4.2-64Bit/xmc1400-getstarted-optiga-trust-m/Libraries/XMCLib/inc\xmc_spi.h ****  *
 399:C:/Workspace/DAVE-4.4.2-64Bit/xmc1400-getstarted-optiga-trust-m/Libraries/XMCLib/inc\xmc_spi.h ****  * \par<b>Description:</b><br>
 400:C:/Workspace/DAVE-4.4.2-64Bit/xmc1400-getstarted-optiga-trust-m/Libraries/XMCLib/inc\xmc_spi.h ****  * Set the selected SPI channel to IDLE mode, by clearing CCR.MODE bits.\n\n
 401:C:/Workspace/DAVE-4.4.2-64Bit/xmc1400-getstarted-optiga-trust-m/Libraries/XMCLib/inc\xmc_spi.h ****  * After calling XMC_SPI_CH_Stop, channel is IDLE mode. So no communication is supported. XMC_SPI_C
 402:C:/Workspace/DAVE-4.4.2-64Bit/xmc1400-getstarted-optiga-trust-m/Libraries/XMCLib/inc\xmc_spi.h ****  * invoked to start the communication again.
 403:C:/Workspace/DAVE-4.4.2-64Bit/xmc1400-getstarted-optiga-trust-m/Libraries/XMCLib/inc\xmc_spi.h ****  *
 404:C:/Workspace/DAVE-4.4.2-64Bit/xmc1400-getstarted-optiga-trust-m/Libraries/XMCLib/inc\xmc_spi.h ****  * \par<b>Related APIs:</b><BR>
 405:C:/Workspace/DAVE-4.4.2-64Bit/xmc1400-getstarted-optiga-trust-m/Libraries/XMCLib/inc\xmc_spi.h ****  * XMC_SPI_CH_Start()
 406:C:/Workspace/DAVE-4.4.2-64Bit/xmc1400-getstarted-optiga-trust-m/Libraries/XMCLib/inc\xmc_spi.h ****  */
 407:C:/Workspace/DAVE-4.4.2-64Bit/xmc1400-getstarted-optiga-trust-m/Libraries/XMCLib/inc\xmc_spi.h **** XMC_SPI_CH_STATUS_t XMC_SPI_CH_Stop(XMC_USIC_CH_t *const channel);
 408:C:/Workspace/DAVE-4.4.2-64Bit/xmc1400-getstarted-optiga-trust-m/Libraries/XMCLib/inc\xmc_spi.h **** 
 409:C:/Workspace/DAVE-4.4.2-64Bit/xmc1400-getstarted-optiga-trust-m/Libraries/XMCLib/inc\xmc_spi.h **** /**
 410:C:/Workspace/DAVE-4.4.2-64Bit/xmc1400-getstarted-optiga-trust-m/Libraries/XMCLib/inc\xmc_spi.h ****  * @param channel A constant pointer to XMC_USIC_CH_t, pointing to the USIC channel base address.
 411:C:/Workspace/DAVE-4.4.2-64Bit/xmc1400-getstarted-optiga-trust-m/Libraries/XMCLib/inc\xmc_spi.h ****  * @param rate Bus speed in bits per second
 412:C:/Workspace/DAVE-4.4.2-64Bit/xmc1400-getstarted-optiga-trust-m/Libraries/XMCLib/inc\xmc_spi.h ****  *
 413:C:/Workspace/DAVE-4.4.2-64Bit/xmc1400-getstarted-optiga-trust-m/Libraries/XMCLib/inc\xmc_spi.h ****  * @return XMC_SPI_CH_STATUS_t Status of the SPI driver after the request for setting baudrate is p
 414:C:/Workspace/DAVE-4.4.2-64Bit/xmc1400-getstarted-optiga-trust-m/Libraries/XMCLib/inc\xmc_spi.h ****  *        XMC_SPI_CH_STATUS_OK- If the baudrate is successfully changed. \n
 415:C:/Workspace/DAVE-4.4.2-64Bit/xmc1400-getstarted-optiga-trust-m/Libraries/XMCLib/inc\xmc_spi.h ****  *        XMC_SPI_CH_STATUS_ERROR- If the new baudrate value is out of range.
 416:C:/Workspace/DAVE-4.4.2-64Bit/xmc1400-getstarted-optiga-trust-m/Libraries/XMCLib/inc\xmc_spi.h ****  *
 417:C:/Workspace/DAVE-4.4.2-64Bit/xmc1400-getstarted-optiga-trust-m/Libraries/XMCLib/inc\xmc_spi.h ****  * \par<b>Description:</b><br>
 418:C:/Workspace/DAVE-4.4.2-64Bit/xmc1400-getstarted-optiga-trust-m/Libraries/XMCLib/inc\xmc_spi.h ****  * Sets the bus speed in bits per second
 419:C:/Workspace/DAVE-4.4.2-64Bit/xmc1400-getstarted-optiga-trust-m/Libraries/XMCLib/inc\xmc_spi.h ****  *
 420:C:/Workspace/DAVE-4.4.2-64Bit/xmc1400-getstarted-optiga-trust-m/Libraries/XMCLib/inc\xmc_spi.h ****  * \par<b>Related APIs:</b><BR>
 421:C:/Workspace/DAVE-4.4.2-64Bit/xmc1400-getstarted-optiga-trust-m/Libraries/XMCLib/inc\xmc_spi.h ****  * XMC_SPI_CH_Init(), XMC_SPI_CH_Stop(), XMC_USIC_CH_GetSCLKFrequency()
 422:C:/Workspace/DAVE-4.4.2-64Bit/xmc1400-getstarted-optiga-trust-m/Libraries/XMCLib/inc\xmc_spi.h ****  */
 423:C:/Workspace/DAVE-4.4.2-64Bit/xmc1400-getstarted-optiga-trust-m/Libraries/XMCLib/inc\xmc_spi.h **** XMC_SPI_CH_STATUS_t XMC_SPI_CH_SetBaudrate(XMC_USIC_CH_t *const channel, const uint32_t rate);
 424:C:/Workspace/DAVE-4.4.2-64Bit/xmc1400-getstarted-optiga-trust-m/Libraries/XMCLib/inc\xmc_spi.h **** 
 425:C:/Workspace/DAVE-4.4.2-64Bit/xmc1400-getstarted-optiga-trust-m/Libraries/XMCLib/inc\xmc_spi.h **** /**
 426:C:/Workspace/DAVE-4.4.2-64Bit/xmc1400-getstarted-optiga-trust-m/Libraries/XMCLib/inc\xmc_spi.h ****  * @param channel A constant pointer to XMC_USIC_CH_t, pointing to the USIC channel base address.
 427:C:/Workspace/DAVE-4.4.2-64Bit/xmc1400-getstarted-optiga-trust-m/Libraries/XMCLib/inc\xmc_spi.h ****  * @param rate Bus speed in bits per second
 428:C:/Workspace/DAVE-4.4.2-64Bit/xmc1400-getstarted-optiga-trust-m/Libraries/XMCLib/inc\xmc_spi.h ****  * @param normal_divider_mode Selects normal divider mode for baudrate generator instead of default
 429:C:/Workspace/DAVE-4.4.2-64Bit/xmc1400-getstarted-optiga-trust-m/Libraries/XMCLib/inc\xmc_spi.h ****  *
 430:C:/Workspace/DAVE-4.4.2-64Bit/xmc1400-getstarted-optiga-trust-m/Libraries/XMCLib/inc\xmc_spi.h ****  * @return XMC_SPI_CH_STATUS_t Status of the SPI driver after the request for setting baudrate is p
 431:C:/Workspace/DAVE-4.4.2-64Bit/xmc1400-getstarted-optiga-trust-m/Libraries/XMCLib/inc\xmc_spi.h ****  *        XMC_SPI_CH_STATUS_OK- If the baudrate is successfully changed. \n
 432:C:/Workspace/DAVE-4.4.2-64Bit/xmc1400-getstarted-optiga-trust-m/Libraries/XMCLib/inc\xmc_spi.h ****  *        XMC_SPI_CH_STATUS_ERROR- If the new baudrate value is out of range.
 433:C:/Workspace/DAVE-4.4.2-64Bit/xmc1400-getstarted-optiga-trust-m/Libraries/XMCLib/inc\xmc_spi.h ****  *
 434:C:/Workspace/DAVE-4.4.2-64Bit/xmc1400-getstarted-optiga-trust-m/Libraries/XMCLib/inc\xmc_spi.h ****  * \par<b>Description:</b><br>
 435:C:/Workspace/DAVE-4.4.2-64Bit/xmc1400-getstarted-optiga-trust-m/Libraries/XMCLib/inc\xmc_spi.h ****  * Sets the bus speed in bits per second
 436:C:/Workspace/DAVE-4.4.2-64Bit/xmc1400-getstarted-optiga-trust-m/Libraries/XMCLib/inc\xmc_spi.h ****  *
 437:C:/Workspace/DAVE-4.4.2-64Bit/xmc1400-getstarted-optiga-trust-m/Libraries/XMCLib/inc\xmc_spi.h ****  * \par<b>Related APIs:</b><BR>
 438:C:/Workspace/DAVE-4.4.2-64Bit/xmc1400-getstarted-optiga-trust-m/Libraries/XMCLib/inc\xmc_spi.h ****  * XMC_SPI_CH_Init(), XMC_SPI_CH_Stop(), XMC_USIC_CH_GetSCLKFrequency()
 439:C:/Workspace/DAVE-4.4.2-64Bit/xmc1400-getstarted-optiga-trust-m/Libraries/XMCLib/inc\xmc_spi.h ****  */
 440:C:/Workspace/DAVE-4.4.2-64Bit/xmc1400-getstarted-optiga-trust-m/Libraries/XMCLib/inc\xmc_spi.h **** XMC_SPI_CH_STATUS_t XMC_SPI_CH_SetBaudrateEx(XMC_USIC_CH_t *const channel, const uint32_t rate, boo
 441:C:/Workspace/DAVE-4.4.2-64Bit/xmc1400-getstarted-optiga-trust-m/Libraries/XMCLib/inc\xmc_spi.h **** 
 442:C:/Workspace/DAVE-4.4.2-64Bit/xmc1400-getstarted-optiga-trust-m/Libraries/XMCLib/inc\xmc_spi.h **** /**
 443:C:/Workspace/DAVE-4.4.2-64Bit/xmc1400-getstarted-optiga-trust-m/Libraries/XMCLib/inc\xmc_spi.h ****  * @param channel A constant pointer to XMC_USIC_CH_t, pointing to the USIC channel base address.
 444:C:/Workspace/DAVE-4.4.2-64Bit/xmc1400-getstarted-optiga-trust-m/Libraries/XMCLib/inc\xmc_spi.h ****  * @param slave Slave select signal.\n
 445:C:/Workspace/DAVE-4.4.2-64Bit/xmc1400-getstarted-optiga-trust-m/Libraries/XMCLib/inc\xmc_spi.h ****  *              Refer @ref XMC_SPI_CH_SLAVE_SELECT_t for valid values.
 446:C:/Workspace/DAVE-4.4.2-64Bit/xmc1400-getstarted-optiga-trust-m/Libraries/XMCLib/inc\xmc_spi.h ****  *
 447:C:/Workspace/DAVE-4.4.2-64Bit/xmc1400-getstarted-optiga-trust-m/Libraries/XMCLib/inc\xmc_spi.h ****  * @return None
 448:C:/Workspace/DAVE-4.4.2-64Bit/xmc1400-getstarted-optiga-trust-m/Libraries/XMCLib/inc\xmc_spi.h ****  *
 449:C:/Workspace/DAVE-4.4.2-64Bit/xmc1400-getstarted-optiga-trust-m/Libraries/XMCLib/inc\xmc_spi.h ****  * \par<b>Description:</b><br>
 450:C:/Workspace/DAVE-4.4.2-64Bit/xmc1400-getstarted-optiga-trust-m/Libraries/XMCLib/inc\xmc_spi.h ****  * Enable the selected slave signal by setting PCR.SELO bits.\n\n
 451:C:/Workspace/DAVE-4.4.2-64Bit/xmc1400-getstarted-optiga-trust-m/Libraries/XMCLib/inc\xmc_spi.h ****  * Each slave is connected with one slave select signal. This is not configured in XMC_SPI_CH_Init(
 452:C:/Workspace/DAVE-4.4.2-64Bit/xmc1400-getstarted-optiga-trust-m/Libraries/XMCLib/inc\xmc_spi.h ****  * XMC_SPI_CH_EnableSlaveSelect() with required \a slave to to start the communication. After finis
 453:C:/Workspace/DAVE-4.4.2-64Bit/xmc1400-getstarted-optiga-trust-m/Libraries/XMCLib/inc\xmc_spi.h ****  * communication XMC_SPI_CH_DisableSlaveSelect() can be invoked to disable the slaves.
 454:C:/Workspace/DAVE-4.4.2-64Bit/xmc1400-getstarted-optiga-trust-m/Libraries/XMCLib/inc\xmc_spi.h ****  *
 455:C:/Workspace/DAVE-4.4.2-64Bit/xmc1400-getstarted-optiga-trust-m/Libraries/XMCLib/inc\xmc_spi.h ****  * \par<b>Related APIs:</b><BR>
 456:C:/Workspace/DAVE-4.4.2-64Bit/xmc1400-getstarted-optiga-trust-m/Libraries/XMCLib/inc\xmc_spi.h ****  * XMC_SPI_CH_DisableSlaveSelect()
 457:C:/Workspace/DAVE-4.4.2-64Bit/xmc1400-getstarted-optiga-trust-m/Libraries/XMCLib/inc\xmc_spi.h ****  */
 458:C:/Workspace/DAVE-4.4.2-64Bit/xmc1400-getstarted-optiga-trust-m/Libraries/XMCLib/inc\xmc_spi.h **** void XMC_SPI_CH_EnableSlaveSelect(XMC_USIC_CH_t *const channel, const XMC_SPI_CH_SLAVE_SELECT_t sla
 459:C:/Workspace/DAVE-4.4.2-64Bit/xmc1400-getstarted-optiga-trust-m/Libraries/XMCLib/inc\xmc_spi.h **** 
 460:C:/Workspace/DAVE-4.4.2-64Bit/xmc1400-getstarted-optiga-trust-m/Libraries/XMCLib/inc\xmc_spi.h **** /**
 461:C:/Workspace/DAVE-4.4.2-64Bit/xmc1400-getstarted-optiga-trust-m/Libraries/XMCLib/inc\xmc_spi.h ****  * @param channel A constant ponter to XMC_USIC_CH_t, pointing to the USIC channel base address.
 462:C:/Workspace/DAVE-4.4.2-64Bit/xmc1400-getstarted-optiga-trust-m/Libraries/XMCLib/inc\xmc_spi.h ****  *
 463:C:/Workspace/DAVE-4.4.2-64Bit/xmc1400-getstarted-optiga-trust-m/Libraries/XMCLib/inc\xmc_spi.h ****  * @return None
 464:C:/Workspace/DAVE-4.4.2-64Bit/xmc1400-getstarted-optiga-trust-m/Libraries/XMCLib/inc\xmc_spi.h ****  *
 465:C:/Workspace/DAVE-4.4.2-64Bit/xmc1400-getstarted-optiga-trust-m/Libraries/XMCLib/inc\xmc_spi.h ****  * \par<b>Description:</b><br>
 466:C:/Workspace/DAVE-4.4.2-64Bit/xmc1400-getstarted-optiga-trust-m/Libraries/XMCLib/inc\xmc_spi.h ****  * Disable all the slave signals by clearing PCR.SELO bits.\n\n
 467:C:/Workspace/DAVE-4.4.2-64Bit/xmc1400-getstarted-optiga-trust-m/Libraries/XMCLib/inc\xmc_spi.h ****  * XMC_SPI_CH_EnableSlaveSelect() has to be invoked to start the communication with the desired sla
 468:C:/Workspace/DAVE-4.4.2-64Bit/xmc1400-getstarted-optiga-trust-m/Libraries/XMCLib/inc\xmc_spi.h ****  *
 469:C:/Workspace/DAVE-4.4.2-64Bit/xmc1400-getstarted-optiga-trust-m/Libraries/XMCLib/inc\xmc_spi.h ****  * \par<b>Related APIs:</b><BR>
 470:C:/Workspace/DAVE-4.4.2-64Bit/xmc1400-getstarted-optiga-trust-m/Libraries/XMCLib/inc\xmc_spi.h ****  * XMC_SPI_CH_EnableSlaveSelect()
 471:C:/Workspace/DAVE-4.4.2-64Bit/xmc1400-getstarted-optiga-trust-m/Libraries/XMCLib/inc\xmc_spi.h ****  */
 472:C:/Workspace/DAVE-4.4.2-64Bit/xmc1400-getstarted-optiga-trust-m/Libraries/XMCLib/inc\xmc_spi.h **** void XMC_SPI_CH_DisableSlaveSelect(XMC_USIC_CH_t *const channel);
 473:C:/Workspace/DAVE-4.4.2-64Bit/xmc1400-getstarted-optiga-trust-m/Libraries/XMCLib/inc\xmc_spi.h **** 
 474:C:/Workspace/DAVE-4.4.2-64Bit/xmc1400-getstarted-optiga-trust-m/Libraries/XMCLib/inc\xmc_spi.h **** /**
 475:C:/Workspace/DAVE-4.4.2-64Bit/xmc1400-getstarted-optiga-trust-m/Libraries/XMCLib/inc\xmc_spi.h ****  * @param channel A constant pointer to XMC_USIC_CH_t, pointing to the USIC channel base address.
 476:C:/Workspace/DAVE-4.4.2-64Bit/xmc1400-getstarted-optiga-trust-m/Libraries/XMCLib/inc\xmc_spi.h ****  * @param mode Communication mode of the SPI, based on this mode TCI(Transmit control information)i
 477:C:/Workspace/DAVE-4.4.2-64Bit/xmc1400-getstarted-optiga-trust-m/Libraries/XMCLib/inc\xmc_spi.h ****  *             Refer @ref XMC_SPI_CH_MODE_t for valid values.
 478:C:/Workspace/DAVE-4.4.2-64Bit/xmc1400-getstarted-optiga-trust-m/Libraries/XMCLib/inc\xmc_spi.h ****  *
 479:C:/Workspace/DAVE-4.4.2-64Bit/xmc1400-getstarted-optiga-trust-m/Libraries/XMCLib/inc\xmc_spi.h ****  * @return None
 480:C:/Workspace/DAVE-4.4.2-64Bit/xmc1400-getstarted-optiga-trust-m/Libraries/XMCLib/inc\xmc_spi.h ****  *
 481:C:/Workspace/DAVE-4.4.2-64Bit/xmc1400-getstarted-optiga-trust-m/Libraries/XMCLib/inc\xmc_spi.h ****  * \par<b>Description:</b><br>
 482:C:/Workspace/DAVE-4.4.2-64Bit/xmc1400-getstarted-optiga-trust-m/Libraries/XMCLib/inc\xmc_spi.h ****  * In Dual and Quad modes,  hardware port control(CCR.HPCEN) mode is enabled. \n\n
 483:C:/Workspace/DAVE-4.4.2-64Bit/xmc1400-getstarted-optiga-trust-m/Libraries/XMCLib/inc\xmc_spi.h ****  * By enabling this the direction of the data pin is updated by hardware itself. Before transmittin
 484:C:/Workspace/DAVE-4.4.2-64Bit/xmc1400-getstarted-optiga-trust-m/Libraries/XMCLib/inc\xmc_spi.h ****  * mode to ensure the proper communication.
 485:C:/Workspace/DAVE-4.4.2-64Bit/xmc1400-getstarted-optiga-trust-m/Libraries/XMCLib/inc\xmc_spi.h ****  * 
 486:C:/Workspace/DAVE-4.4.2-64Bit/xmc1400-getstarted-optiga-trust-m/Libraries/XMCLib/inc\xmc_spi.h ****  * \par<b>Related APIs:</b><BR>
 487:C:/Workspace/DAVE-4.4.2-64Bit/xmc1400-getstarted-optiga-trust-m/Libraries/XMCLib/inc\xmc_spi.h ****  * XMC_SPI_CH_Transmit()
 488:C:/Workspace/DAVE-4.4.2-64Bit/xmc1400-getstarted-optiga-trust-m/Libraries/XMCLib/inc\xmc_spi.h ****  */
 489:C:/Workspace/DAVE-4.4.2-64Bit/xmc1400-getstarted-optiga-trust-m/Libraries/XMCLib/inc\xmc_spi.h **** __STATIC_INLINE void XMC_SPI_CH_SetTransmitMode(XMC_USIC_CH_t *const channel, const XMC_SPI_CH_MODE
 490:C:/Workspace/DAVE-4.4.2-64Bit/xmc1400-getstarted-optiga-trust-m/Libraries/XMCLib/inc\xmc_spi.h **** {
 491:C:/Workspace/DAVE-4.4.2-64Bit/xmc1400-getstarted-optiga-trust-m/Libraries/XMCLib/inc\xmc_spi.h ****   channel->CCR = (channel->CCR & (uint32_t)(~USIC_CH_CCR_HPCEN_Msk)) |
 492:C:/Workspace/DAVE-4.4.2-64Bit/xmc1400-getstarted-optiga-trust-m/Libraries/XMCLib/inc\xmc_spi.h ****                   (((uint32_t) mode << USIC_CH_CCR_HPCEN_Pos) & (uint32_t)USIC_CH_CCR_HPCEN_Msk);
 493:C:/Workspace/DAVE-4.4.2-64Bit/xmc1400-getstarted-optiga-trust-m/Libraries/XMCLib/inc\xmc_spi.h **** }
 494:C:/Workspace/DAVE-4.4.2-64Bit/xmc1400-getstarted-optiga-trust-m/Libraries/XMCLib/inc\xmc_spi.h **** 
 495:C:/Workspace/DAVE-4.4.2-64Bit/xmc1400-getstarted-optiga-trust-m/Libraries/XMCLib/inc\xmc_spi.h **** /**
 496:C:/Workspace/DAVE-4.4.2-64Bit/xmc1400-getstarted-optiga-trust-m/Libraries/XMCLib/inc\xmc_spi.h ****  * @param channel A constant pointer to XMC_USIC_CH_t, pointing to the USIC channel base address.
 497:C:/Workspace/DAVE-4.4.2-64Bit/xmc1400-getstarted-optiga-trust-m/Libraries/XMCLib/inc\xmc_spi.h ****  * @param data Data to be transmitted
 498:C:/Workspace/DAVE-4.4.2-64Bit/xmc1400-getstarted-optiga-trust-m/Libraries/XMCLib/inc\xmc_spi.h ****  * @param mode Communication mode of the SPI, based on this mode TCI(Transmit control information)i
 499:C:/Workspace/DAVE-4.4.2-64Bit/xmc1400-getstarted-optiga-trust-m/Libraries/XMCLib/inc\xmc_spi.h ****  *             Refer @ref XMC_SPI_CH_MODE_t for valid values.
 500:C:/Workspace/DAVE-4.4.2-64Bit/xmc1400-getstarted-optiga-trust-m/Libraries/XMCLib/inc\xmc_spi.h ****  *
 501:C:/Workspace/DAVE-4.4.2-64Bit/xmc1400-getstarted-optiga-trust-m/Libraries/XMCLib/inc\xmc_spi.h ****  * @return None
 502:C:/Workspace/DAVE-4.4.2-64Bit/xmc1400-getstarted-optiga-trust-m/Libraries/XMCLib/inc\xmc_spi.h ****  *
 503:C:/Workspace/DAVE-4.4.2-64Bit/xmc1400-getstarted-optiga-trust-m/Libraries/XMCLib/inc\xmc_spi.h ****  * \par<b>Description:</b><br>
 504:C:/Workspace/DAVE-4.4.2-64Bit/xmc1400-getstarted-optiga-trust-m/Libraries/XMCLib/inc\xmc_spi.h ****  * Puts the data into FIFO, if FIFO mode is enabled or else into standard buffer, by setting the pr
 505:C:/Workspace/DAVE-4.4.2-64Bit/xmc1400-getstarted-optiga-trust-m/Libraries/XMCLib/inc\xmc_spi.h ****  * In Dual and Quad modes,  hardware port control(CCR.HPCEN) mode is enabled. By enabling this the 
 506:C:/Workspace/DAVE-4.4.2-64Bit/xmc1400-getstarted-optiga-trust-m/Libraries/XMCLib/inc\xmc_spi.h ****  * pin is updated by hardware itself. TCI(Transmit Control Information) allows dynamic control of b
 507:C:/Workspace/DAVE-4.4.2-64Bit/xmc1400-getstarted-optiga-trust-m/Libraries/XMCLib/inc\xmc_spi.h ****  * and pin direction during data transfers by writing to SCTR.DSM and SCTR.HPCDIR bit fields. To su
 508:C:/Workspace/DAVE-4.4.2-64Bit/xmc1400-getstarted-optiga-trust-m/Libraries/XMCLib/inc\xmc_spi.h ****  * update, TCSR.HPCMD(Hardware Port control) will be enabled during the initialization using XMC_SP
 509:C:/Workspace/DAVE-4.4.2-64Bit/xmc1400-getstarted-optiga-trust-m/Libraries/XMCLib/inc\xmc_spi.h ****  * 
 510:C:/Workspace/DAVE-4.4.2-64Bit/xmc1400-getstarted-optiga-trust-m/Libraries/XMCLib/inc\xmc_spi.h ****  * 
 511:C:/Workspace/DAVE-4.4.2-64Bit/xmc1400-getstarted-optiga-trust-m/Libraries/XMCLib/inc\xmc_spi.h ****  * \par<b>Related APIs:</b><BR>
 512:C:/Workspace/DAVE-4.4.2-64Bit/xmc1400-getstarted-optiga-trust-m/Libraries/XMCLib/inc\xmc_spi.h ****  * XMC_SPI_CH_Receive()
 513:C:/Workspace/DAVE-4.4.2-64Bit/xmc1400-getstarted-optiga-trust-m/Libraries/XMCLib/inc\xmc_spi.h ****  */
 514:C:/Workspace/DAVE-4.4.2-64Bit/xmc1400-getstarted-optiga-trust-m/Libraries/XMCLib/inc\xmc_spi.h **** void XMC_SPI_CH_Transmit(XMC_USIC_CH_t *const channel, const uint16_t data, const XMC_SPI_CH_MODE_t
 515:C:/Workspace/DAVE-4.4.2-64Bit/xmc1400-getstarted-optiga-trust-m/Libraries/XMCLib/inc\xmc_spi.h **** 
 516:C:/Workspace/DAVE-4.4.2-64Bit/xmc1400-getstarted-optiga-trust-m/Libraries/XMCLib/inc\xmc_spi.h **** /**
 517:C:/Workspace/DAVE-4.4.2-64Bit/xmc1400-getstarted-optiga-trust-m/Libraries/XMCLib/inc\xmc_spi.h ****  * @param channel A constant pointer to XMC_USIC_CH_t, pointing to the USIC channel base address.
 518:C:/Workspace/DAVE-4.4.2-64Bit/xmc1400-getstarted-optiga-trust-m/Libraries/XMCLib/inc\xmc_spi.h ****  * @param mode Communication mode of the SPI, based on this mode TCI(Transmit control information)i
 519:C:/Workspace/DAVE-4.4.2-64Bit/xmc1400-getstarted-optiga-trust-m/Libraries/XMCLib/inc\xmc_spi.h ****  *             Refer @ref XMC_SPI_CH_MODE_t for valid values.      
 520:C:/Workspace/DAVE-4.4.2-64Bit/xmc1400-getstarted-optiga-trust-m/Libraries/XMCLib/inc\xmc_spi.h ****  *
 521:C:/Workspace/DAVE-4.4.2-64Bit/xmc1400-getstarted-optiga-trust-m/Libraries/XMCLib/inc\xmc_spi.h ****  * @return None
 522:C:/Workspace/DAVE-4.4.2-64Bit/xmc1400-getstarted-optiga-trust-m/Libraries/XMCLib/inc\xmc_spi.h ****  *
 523:C:/Workspace/DAVE-4.4.2-64Bit/xmc1400-getstarted-optiga-trust-m/Libraries/XMCLib/inc\xmc_spi.h ****  * \par<b>Description:</b><br>
 524:C:/Workspace/DAVE-4.4.2-64Bit/xmc1400-getstarted-optiga-trust-m/Libraries/XMCLib/inc\xmc_spi.h ****  * Transmits a dummy data(FFFFH) to provide clock for slave and receives the data from the slave.\n
 525:C:/Workspace/DAVE-4.4.2-64Bit/xmc1400-getstarted-optiga-trust-m/Libraries/XMCLib/inc\xmc_spi.h ****  * XMC_SPI_CH_Receive() receives the data and places it into buffer based on the FIFO selection. Af
 526:C:/Workspace/DAVE-4.4.2-64Bit/xmc1400-getstarted-optiga-trust-m/Libraries/XMCLib/inc\xmc_spi.h ****  * XMC_SPI_CH_GetReceivedData() can be invoked to read the data from the buffers.
 527:C:/Workspace/DAVE-4.4.2-64Bit/xmc1400-getstarted-optiga-trust-m/Libraries/XMCLib/inc\xmc_spi.h ****  * 
 528:C:/Workspace/DAVE-4.4.2-64Bit/xmc1400-getstarted-optiga-trust-m/Libraries/XMCLib/inc\xmc_spi.h ****  * \par<b>Related APIs:</b><BR>
 529:C:/Workspace/DAVE-4.4.2-64Bit/xmc1400-getstarted-optiga-trust-m/Libraries/XMCLib/inc\xmc_spi.h ****  * XMC_SPI_CH_GetReceivedDaa()
 530:C:/Workspace/DAVE-4.4.2-64Bit/xmc1400-getstarted-optiga-trust-m/Libraries/XMCLib/inc\xmc_spi.h ****  */
 531:C:/Workspace/DAVE-4.4.2-64Bit/xmc1400-getstarted-optiga-trust-m/Libraries/XMCLib/inc\xmc_spi.h **** __STATIC_INLINE void XMC_SPI_CH_Receive(XMC_USIC_CH_t *const channel, const XMC_SPI_CH_MODE_t mode)
 532:C:/Workspace/DAVE-4.4.2-64Bit/xmc1400-getstarted-optiga-trust-m/Libraries/XMCLib/inc\xmc_spi.h **** {
 533:C:/Workspace/DAVE-4.4.2-64Bit/xmc1400-getstarted-optiga-trust-m/Libraries/XMCLib/inc\xmc_spi.h ****   /* Transmit dummy data */
 534:C:/Workspace/DAVE-4.4.2-64Bit/xmc1400-getstarted-optiga-trust-m/Libraries/XMCLib/inc\xmc_spi.h ****   XMC_SPI_CH_Transmit(channel, (uint16_t)0xffffU, (XMC_SPI_CH_MODE_t)((uint16_t)mode & 0xfffbU));
 535:C:/Workspace/DAVE-4.4.2-64Bit/xmc1400-getstarted-optiga-trust-m/Libraries/XMCLib/inc\xmc_spi.h **** }
 536:C:/Workspace/DAVE-4.4.2-64Bit/xmc1400-getstarted-optiga-trust-m/Libraries/XMCLib/inc\xmc_spi.h **** 
 537:C:/Workspace/DAVE-4.4.2-64Bit/xmc1400-getstarted-optiga-trust-m/Libraries/XMCLib/inc\xmc_spi.h **** /**
 538:C:/Workspace/DAVE-4.4.2-64Bit/xmc1400-getstarted-optiga-trust-m/Libraries/XMCLib/inc\xmc_spi.h ****  * @param channel A constant pointer to XMC_USIC_CH_t, pointing to the USIC channel base address.
 539:C:/Workspace/DAVE-4.4.2-64Bit/xmc1400-getstarted-optiga-trust-m/Libraries/XMCLib/inc\xmc_spi.h ****  *
 540:C:/Workspace/DAVE-4.4.2-64Bit/xmc1400-getstarted-optiga-trust-m/Libraries/XMCLib/inc\xmc_spi.h ****  * @return uint16_t Data read from the receive buffer.
 541:C:/Workspace/DAVE-4.4.2-64Bit/xmc1400-getstarted-optiga-trust-m/Libraries/XMCLib/inc\xmc_spi.h ****  *
 542:C:/Workspace/DAVE-4.4.2-64Bit/xmc1400-getstarted-optiga-trust-m/Libraries/XMCLib/inc\xmc_spi.h ****  * \par<b>Description:</b><br>
 543:C:/Workspace/DAVE-4.4.2-64Bit/xmc1400-getstarted-optiga-trust-m/Libraries/XMCLib/inc\xmc_spi.h ****  * Reads data from the receive buffer based on the FIFO selection.\n\n
 544:C:/Workspace/DAVE-4.4.2-64Bit/xmc1400-getstarted-optiga-trust-m/Libraries/XMCLib/inc\xmc_spi.h ****  * Invocation of XMC_SPI_CH_Receive() receives the data and place it into receive buffer. After rec
 545:C:/Workspace/DAVE-4.4.2-64Bit/xmc1400-getstarted-optiga-trust-m/Libraries/XMCLib/inc\xmc_spi.h ****  * XMC_SPI_CH_GetReceivedData() can be used to read the data from the buffer.
 546:C:/Workspace/DAVE-4.4.2-64Bit/xmc1400-getstarted-optiga-trust-m/Libraries/XMCLib/inc\xmc_spi.h ****  * 
 547:C:/Workspace/DAVE-4.4.2-64Bit/xmc1400-getstarted-optiga-trust-m/Libraries/XMCLib/inc\xmc_spi.h ****  * \par<b>Related APIs:</b><BR>
 548:C:/Workspace/DAVE-4.4.2-64Bit/xmc1400-getstarted-optiga-trust-m/Libraries/XMCLib/inc\xmc_spi.h ****  * XMC_SPI_CH_Receive()
 549:C:/Workspace/DAVE-4.4.2-64Bit/xmc1400-getstarted-optiga-trust-m/Libraries/XMCLib/inc\xmc_spi.h ****  */
 550:C:/Workspace/DAVE-4.4.2-64Bit/xmc1400-getstarted-optiga-trust-m/Libraries/XMCLib/inc\xmc_spi.h **** uint16_t XMC_SPI_CH_GetReceivedData(XMC_USIC_CH_t *const channel);
 551:C:/Workspace/DAVE-4.4.2-64Bit/xmc1400-getstarted-optiga-trust-m/Libraries/XMCLib/inc\xmc_spi.h **** 
 552:C:/Workspace/DAVE-4.4.2-64Bit/xmc1400-getstarted-optiga-trust-m/Libraries/XMCLib/inc\xmc_spi.h **** /**
 553:C:/Workspace/DAVE-4.4.2-64Bit/xmc1400-getstarted-optiga-trust-m/Libraries/XMCLib/inc\xmc_spi.h ****  * @param channel A constant pointer to XMC_USIC_CH_t, pointing to the USIC channel base address.
 554:C:/Workspace/DAVE-4.4.2-64Bit/xmc1400-getstarted-optiga-trust-m/Libraries/XMCLib/inc\xmc_spi.h ****  *
 555:C:/Workspace/DAVE-4.4.2-64Bit/xmc1400-getstarted-optiga-trust-m/Libraries/XMCLib/inc\xmc_spi.h ****  * @return None
 556:C:/Workspace/DAVE-4.4.2-64Bit/xmc1400-getstarted-optiga-trust-m/Libraries/XMCLib/inc\xmc_spi.h ****  *
 557:C:/Workspace/DAVE-4.4.2-64Bit/xmc1400-getstarted-optiga-trust-m/Libraries/XMCLib/inc\xmc_spi.h ****  * \par<b>Description:</b><br>
 558:C:/Workspace/DAVE-4.4.2-64Bit/xmc1400-getstarted-optiga-trust-m/Libraries/XMCLib/inc\xmc_spi.h ****  * Set the order of data transfer from LSB to MSB, by clearing SCTR.SDIR bit.\n\n
 559:C:/Workspace/DAVE-4.4.2-64Bit/xmc1400-getstarted-optiga-trust-m/Libraries/XMCLib/inc\xmc_spi.h ****  * This is typically based on the slave settings. Invoke XMC_SPI_CH_SetBitOrderLsbFirst() to set di
 560:C:/Workspace/DAVE-4.4.2-64Bit/xmc1400-getstarted-optiga-trust-m/Libraries/XMCLib/inc\xmc_spi.h ****  * the program.
 561:C:/Workspace/DAVE-4.4.2-64Bit/xmc1400-getstarted-optiga-trust-m/Libraries/XMCLib/inc\xmc_spi.h ****  *
 562:C:/Workspace/DAVE-4.4.2-64Bit/xmc1400-getstarted-optiga-trust-m/Libraries/XMCLib/inc\xmc_spi.h ****  * \par<b>Related APIs:</b><BR>
 563:C:/Workspace/DAVE-4.4.2-64Bit/xmc1400-getstarted-optiga-trust-m/Libraries/XMCLib/inc\xmc_spi.h ****  * XMC_SPI_CH_SetBitOrderMsbFirst()
 564:C:/Workspace/DAVE-4.4.2-64Bit/xmc1400-getstarted-optiga-trust-m/Libraries/XMCLib/inc\xmc_spi.h ****  */
 565:C:/Workspace/DAVE-4.4.2-64Bit/xmc1400-getstarted-optiga-trust-m/Libraries/XMCLib/inc\xmc_spi.h **** __STATIC_INLINE void XMC_SPI_CH_SetBitOrderLsbFirst(XMC_USIC_CH_t *const channel)
 566:C:/Workspace/DAVE-4.4.2-64Bit/xmc1400-getstarted-optiga-trust-m/Libraries/XMCLib/inc\xmc_spi.h **** {
 567:C:/Workspace/DAVE-4.4.2-64Bit/xmc1400-getstarted-optiga-trust-m/Libraries/XMCLib/inc\xmc_spi.h ****   channel->SCTR &= (uint32_t)~USIC_CH_SCTR_SDIR_Msk;
 568:C:/Workspace/DAVE-4.4.2-64Bit/xmc1400-getstarted-optiga-trust-m/Libraries/XMCLib/inc\xmc_spi.h **** }
 569:C:/Workspace/DAVE-4.4.2-64Bit/xmc1400-getstarted-optiga-trust-m/Libraries/XMCLib/inc\xmc_spi.h **** 
 570:C:/Workspace/DAVE-4.4.2-64Bit/xmc1400-getstarted-optiga-trust-m/Libraries/XMCLib/inc\xmc_spi.h **** /**
 571:C:/Workspace/DAVE-4.4.2-64Bit/xmc1400-getstarted-optiga-trust-m/Libraries/XMCLib/inc\xmc_spi.h ****  * @param channel A constant pointer to XMC_USIC_CH_t, pointing to the USIC channel base address.
 572:C:/Workspace/DAVE-4.4.2-64Bit/xmc1400-getstarted-optiga-trust-m/Libraries/XMCLib/inc\xmc_spi.h ****  *
 573:C:/Workspace/DAVE-4.4.2-64Bit/xmc1400-getstarted-optiga-trust-m/Libraries/XMCLib/inc\xmc_spi.h ****  * @return None
 574:C:/Workspace/DAVE-4.4.2-64Bit/xmc1400-getstarted-optiga-trust-m/Libraries/XMCLib/inc\xmc_spi.h ****  *
 575:C:/Workspace/DAVE-4.4.2-64Bit/xmc1400-getstarted-optiga-trust-m/Libraries/XMCLib/inc\xmc_spi.h ****  * \par<b>Description:</b><br>
 576:C:/Workspace/DAVE-4.4.2-64Bit/xmc1400-getstarted-optiga-trust-m/Libraries/XMCLib/inc\xmc_spi.h ****  * Set the order of data transfer from MSB to LSB, by setting SCTR.SDIR bit.\n\n
 577:C:/Workspace/DAVE-4.4.2-64Bit/xmc1400-getstarted-optiga-trust-m/Libraries/XMCLib/inc\xmc_spi.h ****  * This is typically based on the slave settings. This is not set during XMC_SPI_CH_Init(). 
 578:C:/Workspace/DAVE-4.4.2-64Bit/xmc1400-getstarted-optiga-trust-m/Libraries/XMCLib/inc\xmc_spi.h ****  * Invoke XMC_SPI_CH_SetBitOrderMsbFirst() to set direction as needed in the program.
 579:C:/Workspace/DAVE-4.4.2-64Bit/xmc1400-getstarted-optiga-trust-m/Libraries/XMCLib/inc\xmc_spi.h ****  *
 580:C:/Workspace/DAVE-4.4.2-64Bit/xmc1400-getstarted-optiga-trust-m/Libraries/XMCLib/inc\xmc_spi.h ****  * \par<b>Related APIs:</b><BR>
 581:C:/Workspace/DAVE-4.4.2-64Bit/xmc1400-getstarted-optiga-trust-m/Libraries/XMCLib/inc\xmc_spi.h ****  * XMC_SPI_CH_SetBitOrderLsbFirst()
 582:C:/Workspace/DAVE-4.4.2-64Bit/xmc1400-getstarted-optiga-trust-m/Libraries/XMCLib/inc\xmc_spi.h ****  */
 583:C:/Workspace/DAVE-4.4.2-64Bit/xmc1400-getstarted-optiga-trust-m/Libraries/XMCLib/inc\xmc_spi.h **** __STATIC_INLINE void XMC_SPI_CH_SetBitOrderMsbFirst(XMC_USIC_CH_t *const channel)
 584:C:/Workspace/DAVE-4.4.2-64Bit/xmc1400-getstarted-optiga-trust-m/Libraries/XMCLib/inc\xmc_spi.h **** {
 585:C:/Workspace/DAVE-4.4.2-64Bit/xmc1400-getstarted-optiga-trust-m/Libraries/XMCLib/inc\xmc_spi.h ****   channel->SCTR |= (uint32_t)USIC_CH_SCTR_SDIR_Msk;
 586:C:/Workspace/DAVE-4.4.2-64Bit/xmc1400-getstarted-optiga-trust-m/Libraries/XMCLib/inc\xmc_spi.h **** }
 587:C:/Workspace/DAVE-4.4.2-64Bit/xmc1400-getstarted-optiga-trust-m/Libraries/XMCLib/inc\xmc_spi.h **** 
 588:C:/Workspace/DAVE-4.4.2-64Bit/xmc1400-getstarted-optiga-trust-m/Libraries/XMCLib/inc\xmc_spi.h **** /**
 589:C:/Workspace/DAVE-4.4.2-64Bit/xmc1400-getstarted-optiga-trust-m/Libraries/XMCLib/inc\xmc_spi.h ****  * @param channel A constant pointer to XMC_USIC_CH_t, pointing to the USIC channel base address.
 590:C:/Workspace/DAVE-4.4.2-64Bit/xmc1400-getstarted-optiga-trust-m/Libraries/XMCLib/inc\xmc_spi.h ****  * @param event Protocol events which have to be enabled.
 591:C:/Workspace/DAVE-4.4.2-64Bit/xmc1400-getstarted-optiga-trust-m/Libraries/XMCLib/inc\xmc_spi.h ****  *              Refer @ XMC_SPI_CH_EVENT_t for valid values. <b>OR</b> combinations of these enum i
 592:C:/Workspace/DAVE-4.4.2-64Bit/xmc1400-getstarted-optiga-trust-m/Libraries/XMCLib/inc\xmc_spi.h ****  *              as input.
 593:C:/Workspace/DAVE-4.4.2-64Bit/xmc1400-getstarted-optiga-trust-m/Libraries/XMCLib/inc\xmc_spi.h ****  *
 594:C:/Workspace/DAVE-4.4.2-64Bit/xmc1400-getstarted-optiga-trust-m/Libraries/XMCLib/inc\xmc_spi.h ****  * @return None
 595:C:/Workspace/DAVE-4.4.2-64Bit/xmc1400-getstarted-optiga-trust-m/Libraries/XMCLib/inc\xmc_spi.h ****  *
 596:C:/Workspace/DAVE-4.4.2-64Bit/xmc1400-getstarted-optiga-trust-m/Libraries/XMCLib/inc\xmc_spi.h ****  * \par<b>Description:</b><br>
 597:C:/Workspace/DAVE-4.4.2-64Bit/xmc1400-getstarted-optiga-trust-m/Libraries/XMCLib/inc\xmc_spi.h ****  * Enables the SPI protocol specific events, by configuring PCR register.\n\n
 598:C:/Workspace/DAVE-4.4.2-64Bit/xmc1400-getstarted-optiga-trust-m/Libraries/XMCLib/inc\xmc_spi.h ****  * Events can be enabled as needed using XMC_SPI_CH_EnableEvent(). 
 599:C:/Workspace/DAVE-4.4.2-64Bit/xmc1400-getstarted-optiga-trust-m/Libraries/XMCLib/inc\xmc_spi.h ****  * XMC_SPI_CH_DisableEvent() can be used to disable the events.
 600:C:/Workspace/DAVE-4.4.2-64Bit/xmc1400-getstarted-optiga-trust-m/Libraries/XMCLib/inc\xmc_spi.h ****  *
 601:C:/Workspace/DAVE-4.4.2-64Bit/xmc1400-getstarted-optiga-trust-m/Libraries/XMCLib/inc\xmc_spi.h ****  * \par<b>Related APIs:</b><BR>
 602:C:/Workspace/DAVE-4.4.2-64Bit/xmc1400-getstarted-optiga-trust-m/Libraries/XMCLib/inc\xmc_spi.h ****  * XMC_SPI_CH_DisableEvent()
 603:C:/Workspace/DAVE-4.4.2-64Bit/xmc1400-getstarted-optiga-trust-m/Libraries/XMCLib/inc\xmc_spi.h ****  */
 604:C:/Workspace/DAVE-4.4.2-64Bit/xmc1400-getstarted-optiga-trust-m/Libraries/XMCLib/inc\xmc_spi.h **** void XMC_SPI_CH_EnableEvent(XMC_USIC_CH_t *const channel, const uint32_t event);
 605:C:/Workspace/DAVE-4.4.2-64Bit/xmc1400-getstarted-optiga-trust-m/Libraries/XMCLib/inc\xmc_spi.h **** 
 606:C:/Workspace/DAVE-4.4.2-64Bit/xmc1400-getstarted-optiga-trust-m/Libraries/XMCLib/inc\xmc_spi.h **** /**
 607:C:/Workspace/DAVE-4.4.2-64Bit/xmc1400-getstarted-optiga-trust-m/Libraries/XMCLib/inc\xmc_spi.h ****  * @param channel A constant pointer to XMC_USIC_CH_t, pointing to the USIC channel base address.
 608:C:/Workspace/DAVE-4.4.2-64Bit/xmc1400-getstarted-optiga-trust-m/Libraries/XMCLib/inc\xmc_spi.h ****  * @param event Protocol events which have to be disabled.
 609:C:/Workspace/DAVE-4.4.2-64Bit/xmc1400-getstarted-optiga-trust-m/Libraries/XMCLib/inc\xmc_spi.h ****  *              Refer @ XMC_SPI_CH_EVENT_t for valid values. <b>OR</b> combinations of these enum i
 610:C:/Workspace/DAVE-4.4.2-64Bit/xmc1400-getstarted-optiga-trust-m/Libraries/XMCLib/inc\xmc_spi.h ****  *              as input.
 611:C:/Workspace/DAVE-4.4.2-64Bit/xmc1400-getstarted-optiga-trust-m/Libraries/XMCLib/inc\xmc_spi.h ****  *
 612:C:/Workspace/DAVE-4.4.2-64Bit/xmc1400-getstarted-optiga-trust-m/Libraries/XMCLib/inc\xmc_spi.h ****  * @return None
 613:C:/Workspace/DAVE-4.4.2-64Bit/xmc1400-getstarted-optiga-trust-m/Libraries/XMCLib/inc\xmc_spi.h ****  *
 614:C:/Workspace/DAVE-4.4.2-64Bit/xmc1400-getstarted-optiga-trust-m/Libraries/XMCLib/inc\xmc_spi.h ****  * \par<b>Description:</b><br>
 615:C:/Workspace/DAVE-4.4.2-64Bit/xmc1400-getstarted-optiga-trust-m/Libraries/XMCLib/inc\xmc_spi.h ****  * Disables the SPI protocol specific events, by configuring PCR register.\n\n
 616:C:/Workspace/DAVE-4.4.2-64Bit/xmc1400-getstarted-optiga-trust-m/Libraries/XMCLib/inc\xmc_spi.h ****  * After disabling the events, XMC_SPI_CH_EnableEvent() has to be invoked to re-enable the events.
 617:C:/Workspace/DAVE-4.4.2-64Bit/xmc1400-getstarted-optiga-trust-m/Libraries/XMCLib/inc\xmc_spi.h ****  *
 618:C:/Workspace/DAVE-4.4.2-64Bit/xmc1400-getstarted-optiga-trust-m/Libraries/XMCLib/inc\xmc_spi.h ****  * \par<b>Related APIs:</b><BR>
 619:C:/Workspace/DAVE-4.4.2-64Bit/xmc1400-getstarted-optiga-trust-m/Libraries/XMCLib/inc\xmc_spi.h ****  * XMC_SPI_CH_EnableEvent()
 620:C:/Workspace/DAVE-4.4.2-64Bit/xmc1400-getstarted-optiga-trust-m/Libraries/XMCLib/inc\xmc_spi.h ****  */
 621:C:/Workspace/DAVE-4.4.2-64Bit/xmc1400-getstarted-optiga-trust-m/Libraries/XMCLib/inc\xmc_spi.h **** void XMC_SPI_CH_DisableEvent(XMC_USIC_CH_t *const channel, const uint32_t event);
 622:C:/Workspace/DAVE-4.4.2-64Bit/xmc1400-getstarted-optiga-trust-m/Libraries/XMCLib/inc\xmc_spi.h **** 
 623:C:/Workspace/DAVE-4.4.2-64Bit/xmc1400-getstarted-optiga-trust-m/Libraries/XMCLib/inc\xmc_spi.h **** /**
 624:C:/Workspace/DAVE-4.4.2-64Bit/xmc1400-getstarted-optiga-trust-m/Libraries/XMCLib/inc\xmc_spi.h ****  * @param channel A constant pointer to XMC_USIC_CH_t, pointing to the USIC channel base address.
 625:C:/Workspace/DAVE-4.4.2-64Bit/xmc1400-getstarted-optiga-trust-m/Libraries/XMCLib/inc\xmc_spi.h ****  *
 626:C:/Workspace/DAVE-4.4.2-64Bit/xmc1400-getstarted-optiga-trust-m/Libraries/XMCLib/inc\xmc_spi.h ****  * @return uint32_t Status of SPI protocol events.
 627:C:/Workspace/DAVE-4.4.2-64Bit/xmc1400-getstarted-optiga-trust-m/Libraries/XMCLib/inc\xmc_spi.h ****  *
 628:C:/Workspace/DAVE-4.4.2-64Bit/xmc1400-getstarted-optiga-trust-m/Libraries/XMCLib/inc\xmc_spi.h ****  * \par<b>Description:</b><br>
 629:C:/Workspace/DAVE-4.4.2-64Bit/xmc1400-getstarted-optiga-trust-m/Libraries/XMCLib/inc\xmc_spi.h ****  * Returns the status of the events, by reading PSR register.\n\n
 630:C:/Workspace/DAVE-4.4.2-64Bit/xmc1400-getstarted-optiga-trust-m/Libraries/XMCLib/inc\xmc_spi.h ****  * This indicates the status of the all the events, for SPI communication. 
 631:C:/Workspace/DAVE-4.4.2-64Bit/xmc1400-getstarted-optiga-trust-m/Libraries/XMCLib/inc\xmc_spi.h ****  *
 632:C:/Workspace/DAVE-4.4.2-64Bit/xmc1400-getstarted-optiga-trust-m/Libraries/XMCLib/inc\xmc_spi.h ****  * \par<b>Related APIs:</b><BR>
 633:C:/Workspace/DAVE-4.4.2-64Bit/xmc1400-getstarted-optiga-trust-m/Libraries/XMCLib/inc\xmc_spi.h ****  * XMC_SPI_CH_ClearStatusFlag()
 634:C:/Workspace/DAVE-4.4.2-64Bit/xmc1400-getstarted-optiga-trust-m/Libraries/XMCLib/inc\xmc_spi.h ****  */
 635:C:/Workspace/DAVE-4.4.2-64Bit/xmc1400-getstarted-optiga-trust-m/Libraries/XMCLib/inc\xmc_spi.h **** __STATIC_INLINE uint32_t XMC_SPI_CH_GetStatusFlag(XMC_USIC_CH_t *const channel)
 636:C:/Workspace/DAVE-4.4.2-64Bit/xmc1400-getstarted-optiga-trust-m/Libraries/XMCLib/inc\xmc_spi.h **** {
 637:C:/Workspace/DAVE-4.4.2-64Bit/xmc1400-getstarted-optiga-trust-m/Libraries/XMCLib/inc\xmc_spi.h ****   return channel->PSR_SSCMode;
 638:C:/Workspace/DAVE-4.4.2-64Bit/xmc1400-getstarted-optiga-trust-m/Libraries/XMCLib/inc\xmc_spi.h **** }
 639:C:/Workspace/DAVE-4.4.2-64Bit/xmc1400-getstarted-optiga-trust-m/Libraries/XMCLib/inc\xmc_spi.h **** 
 640:C:/Workspace/DAVE-4.4.2-64Bit/xmc1400-getstarted-optiga-trust-m/Libraries/XMCLib/inc\xmc_spi.h **** /**
 641:C:/Workspace/DAVE-4.4.2-64Bit/xmc1400-getstarted-optiga-trust-m/Libraries/XMCLib/inc\xmc_spi.h ****  * @param channel A constant pointer to XMC_USIC_CH_t, pointing to the USIC channel base address.
 642:C:/Workspace/DAVE-4.4.2-64Bit/xmc1400-getstarted-optiga-trust-m/Libraries/XMCLib/inc\xmc_spi.h ****  * @param flag Protocol event status to be cleared for detection of next occurence.
 643:C:/Workspace/DAVE-4.4.2-64Bit/xmc1400-getstarted-optiga-trust-m/Libraries/XMCLib/inc\xmc_spi.h ****  *              Refer @ XMC_SPI_CH_STATUS_FLAG_t for valid values. <b>OR</b> combinations of these 
 644:C:/Workspace/DAVE-4.4.2-64Bit/xmc1400-getstarted-optiga-trust-m/Libraries/XMCLib/inc\xmc_spi.h ****  *              as input.
 645:C:/Workspace/DAVE-4.4.2-64Bit/xmc1400-getstarted-optiga-trust-m/Libraries/XMCLib/inc\xmc_spi.h ****  * @return None
 646:C:/Workspace/DAVE-4.4.2-64Bit/xmc1400-getstarted-optiga-trust-m/Libraries/XMCLib/inc\xmc_spi.h ****  *
 647:C:/Workspace/DAVE-4.4.2-64Bit/xmc1400-getstarted-optiga-trust-m/Libraries/XMCLib/inc\xmc_spi.h ****  * \par<b>Description:</b><br>
 648:C:/Workspace/DAVE-4.4.2-64Bit/xmc1400-getstarted-optiga-trust-m/Libraries/XMCLib/inc\xmc_spi.h ****  * Clears the events specified, by setting PSCR register.\n\n
 649:C:/Workspace/DAVE-4.4.2-64Bit/xmc1400-getstarted-optiga-trust-m/Libraries/XMCLib/inc\xmc_spi.h ****  * During communication the events occurred have to be cleared to detect their next occurence.\n
 650:C:/Workspace/DAVE-4.4.2-64Bit/xmc1400-getstarted-optiga-trust-m/Libraries/XMCLib/inc\xmc_spi.h ****  * e.g: During transmission Transmit buffer event occurs to indicating data word transfer has start
 651:C:/Workspace/DAVE-4.4.2-64Bit/xmc1400-getstarted-optiga-trust-m/Libraries/XMCLib/inc\xmc_spi.h ****  *       event has to be cleared after transmission of each data word. Otherwise next event cannot 
 652:C:/Workspace/DAVE-4.4.2-64Bit/xmc1400-getstarted-optiga-trust-m/Libraries/XMCLib/inc\xmc_spi.h ****  *
 653:C:/Workspace/DAVE-4.4.2-64Bit/xmc1400-getstarted-optiga-trust-m/Libraries/XMCLib/inc\xmc_spi.h ****  * \par<b>Related APIs:</b><BR>
 654:C:/Workspace/DAVE-4.4.2-64Bit/xmc1400-getstarted-optiga-trust-m/Libraries/XMCLib/inc\xmc_spi.h ****  * XMC_SPI_CH_GetStatusFlag()
 655:C:/Workspace/DAVE-4.4.2-64Bit/xmc1400-getstarted-optiga-trust-m/Libraries/XMCLib/inc\xmc_spi.h ****  */
 656:C:/Workspace/DAVE-4.4.2-64Bit/xmc1400-getstarted-optiga-trust-m/Libraries/XMCLib/inc\xmc_spi.h **** __STATIC_INLINE void XMC_SPI_CH_ClearStatusFlag(XMC_USIC_CH_t *const channel, const uint32_t flag)
 657:C:/Workspace/DAVE-4.4.2-64Bit/xmc1400-getstarted-optiga-trust-m/Libraries/XMCLib/inc\xmc_spi.h **** {
 658:C:/Workspace/DAVE-4.4.2-64Bit/xmc1400-getstarted-optiga-trust-m/Libraries/XMCLib/inc\xmc_spi.h ****   channel->PSCR |= flag;
 256              	 .loc 2 658 0
 257 0000 0122     	 mov r2,#1
 258 0002 C36C     	 ldr r3,[r0,#76]
 259              	.LBE13:
 260              	.LBE12:
 185:../Libraries/XMCLib/src/xmc_spi.c ****   XMC_SPI_CH_ClearStatusFlag(channel, (uint32_t)XMC_SPI_CH_STATUS_FLAG_MSLS);
 186:../Libraries/XMCLib/src/xmc_spi.c ****   
 187:../Libraries/XMCLib/src/xmc_spi.c ****   /* Configuration of Protocol Control Register */
 188:../Libraries/XMCLib/src/xmc_spi.c ****   channel->PCR_SSCMode &= (uint32_t)~USIC_CH_PCR_SSCMode_SELO_Msk;
 189:../Libraries/XMCLib/src/xmc_spi.c **** }
 261              	 .loc 1 189 0
 262              	 
 263              	.LBB15:
 264              	.LBB14:
 265              	 .loc 2 658 0
 266 0004 1343     	 orr r3,r2
 267 0006 C364     	 str r3,[r0,#76]
 268              	.LBE14:
 269              	.LBE15:
 188:../Libraries/XMCLib/src/xmc_spi.c **** }
 270              	 .loc 1 188 0
 271 0008 C26B     	 ldr r2,[r0,#60]
 272 000a 024B     	 ldr r3,.L19
 273 000c 1340     	 and r3,r2
 274 000e C363     	 str r3,[r0,#60]
 275              	 .loc 1 189 0
 276 0010 7047     	 bx lr
 277              	.L20:
 278 0012 C046     	 .align 2
 279              	.L19:
 280 0014 FFFF00FF 	 .word -16711681
 281              	 .cfi_endproc
 282              	.LFE170:
 284              	 .section .text.XMC_SPI_CH_Transmit,"ax",%progbits
 285              	 .align 1
 286              	 .global XMC_SPI_CH_Transmit
 287              	 .code 16
 288              	 .thumb_func
 290              	XMC_SPI_CH_Transmit:
 291              	.LFB171:
 190:../Libraries/XMCLib/src/xmc_spi.c **** 
 191:../Libraries/XMCLib/src/xmc_spi.c **** /* Puts the data into FIFO if FIFO mode is enabled or else into standard buffers, by setting the pr
 192:../Libraries/XMCLib/src/xmc_spi.c **** void XMC_SPI_CH_Transmit(XMC_USIC_CH_t *const channel, const uint16_t data, const XMC_SPI_CH_MODE_t
 193:../Libraries/XMCLib/src/xmc_spi.c **** {
 292              	 .loc 1 193 0
 293              	 .cfi_startproc
 294              	.LVL23:
 194:../Libraries/XMCLib/src/xmc_spi.c **** 
 195:../Libraries/XMCLib/src/xmc_spi.c ****   channel->CCR = (channel->CCR & (uint32_t)(~USIC_CH_CCR_HPCEN_Msk)) |
 196:../Libraries/XMCLib/src/xmc_spi.c ****                  (((uint32_t) mode << USIC_CH_CCR_HPCEN_Pos) & (uint32_t)USIC_CH_CCR_HPCEN_Msk);
 295              	 .loc 1 196 0
 296 0000 FF23     	 mov r3,#255
 193:../Libraries/XMCLib/src/xmc_spi.c **** 
 297              	 .loc 1 193 0
 298 0002 30B5     	 push {r4,r5,lr}
 299              	.LCFI3:
 300              	 .cfi_def_cfa_offset 12
 301              	 .cfi_offset 4,-12
 302              	 .cfi_offset 5,-8
 303              	 .cfi_offset 14,-4
 304              	 .loc 1 196 0
 305 0004 9501     	 lsl r5,r2,#6
 306 0006 2B40     	 and r3,r5
 195:../Libraries/XMCLib/src/xmc_spi.c ****                  (((uint32_t) mode << USIC_CH_CCR_HPCEN_Pos) & (uint32_t)USIC_CH_CCR_HPCEN_Msk);
 307              	 .loc 1 195 0
 308 0008 C025     	 mov r5,#192
 309 000a 046C     	 ldr r4,[r0,#64]
 310 000c AC43     	 bic r4,r5
 311 000e 2343     	 orr r3,r4
 312 0010 0364     	 str r3,[r0,#64]
 197:../Libraries/XMCLib/src/xmc_spi.c **** 
 198:../Libraries/XMCLib/src/xmc_spi.c **** 
 199:../Libraries/XMCLib/src/xmc_spi.c ****   /* Check FIFO size */
 200:../Libraries/XMCLib/src/xmc_spi.c ****   if ((channel->TBCTR & USIC_CH_TBCTR_SIZE_Msk) == 0U)
 313              	 .loc 1 200 0
 314 0012 031C     	 mov r3,r0
 315 0014 FC33     	 add r3,r3,#252
 316 0016 DC68     	 ldr r4,[r3,#12]
 317 0018 E023     	 mov r3,#224
 318 001a DB04     	 lsl r3,r3,#19
 319 001c 1C42     	 tst r4,r3
 320 001e 0CD1     	 bne .L22
 321              	.L23:
 322              	.LVL24:
 323              	.LBB16:
 324              	.LBB17:
 325              	 .file 3 "C:/Workspace/DAVE-4.4.2-64Bit/xmc1400-getstarted-optiga-trust-m/Libraries/XMCLib/inc/xmc_usic.h"
   1:C:/Workspace/DAVE-4.4.2-64Bit/xmc1400-getstarted-optiga-trust-m/Libraries/XMCLib/inc\xmc_usic.h **** /**
   2:C:/Workspace/DAVE-4.4.2-64Bit/xmc1400-getstarted-optiga-trust-m/Libraries/XMCLib/inc\xmc_usic.h ****  * @file xmc_usic.h
   3:C:/Workspace/DAVE-4.4.2-64Bit/xmc1400-getstarted-optiga-trust-m/Libraries/XMCLib/inc\xmc_usic.h ****  * @date 2019-07-01
   4:C:/Workspace/DAVE-4.4.2-64Bit/xmc1400-getstarted-optiga-trust-m/Libraries/XMCLib/inc\xmc_usic.h ****  *
   5:C:/Workspace/DAVE-4.4.2-64Bit/xmc1400-getstarted-optiga-trust-m/Libraries/XMCLib/inc\xmc_usic.h ****  * @cond
   6:C:/Workspace/DAVE-4.4.2-64Bit/xmc1400-getstarted-optiga-trust-m/Libraries/XMCLib/inc\xmc_usic.h ****  **************************************************************************************************
   7:C:/Workspace/DAVE-4.4.2-64Bit/xmc1400-getstarted-optiga-trust-m/Libraries/XMCLib/inc\xmc_usic.h ****  * XMClib v2.1.24 - XMC Peripheral Driver Library 
   8:C:/Workspace/DAVE-4.4.2-64Bit/xmc1400-getstarted-optiga-trust-m/Libraries/XMCLib/inc\xmc_usic.h ****  *
   9:C:/Workspace/DAVE-4.4.2-64Bit/xmc1400-getstarted-optiga-trust-m/Libraries/XMCLib/inc\xmc_usic.h ****  * Copyright (c) 2015-2019, Infineon Technologies AG
  10:C:/Workspace/DAVE-4.4.2-64Bit/xmc1400-getstarted-optiga-trust-m/Libraries/XMCLib/inc\xmc_usic.h ****  * All rights reserved.                        
  11:C:/Workspace/DAVE-4.4.2-64Bit/xmc1400-getstarted-optiga-trust-m/Libraries/XMCLib/inc\xmc_usic.h ****  *                                             
  12:C:/Workspace/DAVE-4.4.2-64Bit/xmc1400-getstarted-optiga-trust-m/Libraries/XMCLib/inc\xmc_usic.h ****  * Redistribution and use in source and binary forms, with or without modification,are permitted pr
  13:C:/Workspace/DAVE-4.4.2-64Bit/xmc1400-getstarted-optiga-trust-m/Libraries/XMCLib/inc\xmc_usic.h ****  * following conditions are met:   
  14:C:/Workspace/DAVE-4.4.2-64Bit/xmc1400-getstarted-optiga-trust-m/Libraries/XMCLib/inc\xmc_usic.h ****  *                                                                              
  15:C:/Workspace/DAVE-4.4.2-64Bit/xmc1400-getstarted-optiga-trust-m/Libraries/XMCLib/inc\xmc_usic.h ****  * Redistributions of source code must retain the above copyright notice, this list of conditions a
  16:C:/Workspace/DAVE-4.4.2-64Bit/xmc1400-getstarted-optiga-trust-m/Libraries/XMCLib/inc\xmc_usic.h ****  * disclaimer.                        
  17:C:/Workspace/DAVE-4.4.2-64Bit/xmc1400-getstarted-optiga-trust-m/Libraries/XMCLib/inc\xmc_usic.h ****  * 
  18:C:/Workspace/DAVE-4.4.2-64Bit/xmc1400-getstarted-optiga-trust-m/Libraries/XMCLib/inc\xmc_usic.h ****  * Redistributions in binary form must reproduce the above copyright notice, this list of condition
  19:C:/Workspace/DAVE-4.4.2-64Bit/xmc1400-getstarted-optiga-trust-m/Libraries/XMCLib/inc\xmc_usic.h ****  * disclaimer in the documentation and/or other materials provided with the distribution.          
  20:C:/Workspace/DAVE-4.4.2-64Bit/xmc1400-getstarted-optiga-trust-m/Libraries/XMCLib/inc\xmc_usic.h ****  * 
  21:C:/Workspace/DAVE-4.4.2-64Bit/xmc1400-getstarted-optiga-trust-m/Libraries/XMCLib/inc\xmc_usic.h ****  * Neither the name of the copyright holders nor the names of its contributors may be used to endor
  22:C:/Workspace/DAVE-4.4.2-64Bit/xmc1400-getstarted-optiga-trust-m/Libraries/XMCLib/inc\xmc_usic.h ****  * products derived from this software without specific prior written permission.                  
  23:C:/Workspace/DAVE-4.4.2-64Bit/xmc1400-getstarted-optiga-trust-m/Libraries/XMCLib/inc\xmc_usic.h ****  *                                                                              
  24:C:/Workspace/DAVE-4.4.2-64Bit/xmc1400-getstarted-optiga-trust-m/Libraries/XMCLib/inc\xmc_usic.h ****  * THIS SOFTWARE IS PROVIDED BY THE COPYRIGHT HOLDERS AND CONTRIBUTORS "AS IS" AND ANY EXPRESS OR I
  25:C:/Workspace/DAVE-4.4.2-64Bit/xmc1400-getstarted-optiga-trust-m/Libraries/XMCLib/inc\xmc_usic.h ****  * INCLUDING, BUT NOT LIMITED TO, THE IMPLIED WARRANTIES OF MERCHANTABILITY AND FITNESS FOR A PARTI
  26:C:/Workspace/DAVE-4.4.2-64Bit/xmc1400-getstarted-optiga-trust-m/Libraries/XMCLib/inc\xmc_usic.h ****  * DISCLAIMED. IN NO EVENT SHALL THE COPYRIGHT HOLDER OR CONTRIBUTORS BE LIABLE  FOR ANY DIRECT, IN
  27:C:/Workspace/DAVE-4.4.2-64Bit/xmc1400-getstarted-optiga-trust-m/Libraries/XMCLib/inc\xmc_usic.h ****  * SPECIAL, EXEMPLARY, OR CONSEQUENTIAL DAMAGES (INCLUDING, BUT NOT LIMITED TO, PROCUREMENT OF SUBS
  28:C:/Workspace/DAVE-4.4.2-64Bit/xmc1400-getstarted-optiga-trust-m/Libraries/XMCLib/inc\xmc_usic.h ****  * SERVICES; LOSS OF USE, DATA, OR PROFITS; OR BUSINESS INTERRUPTION) HOWEVER CAUSED AND ON ANY THE
  29:C:/Workspace/DAVE-4.4.2-64Bit/xmc1400-getstarted-optiga-trust-m/Libraries/XMCLib/inc\xmc_usic.h ****  * WHETHER IN CONTRACT, STRICT LIABILITY,OR TORT (INCLUDING NEGLIGENCE OR OTHERWISE) ARISING IN ANY
  30:C:/Workspace/DAVE-4.4.2-64Bit/xmc1400-getstarted-optiga-trust-m/Libraries/XMCLib/inc\xmc_usic.h ****  * OF THIS SOFTWARE, EVEN IF ADVISED OF THE POSSIBILITY OF SUCH DAMAGE.                            
  31:C:/Workspace/DAVE-4.4.2-64Bit/xmc1400-getstarted-optiga-trust-m/Libraries/XMCLib/inc\xmc_usic.h ****  *                                                                              
  32:C:/Workspace/DAVE-4.4.2-64Bit/xmc1400-getstarted-optiga-trust-m/Libraries/XMCLib/inc\xmc_usic.h ****  * To improve the quality of the software, users are encouraged to share modifications, enhancement
  33:C:/Workspace/DAVE-4.4.2-64Bit/xmc1400-getstarted-optiga-trust-m/Libraries/XMCLib/inc\xmc_usic.h ****  * Infineon Technologies AG dave@infineon.com).                                                    
  34:C:/Workspace/DAVE-4.4.2-64Bit/xmc1400-getstarted-optiga-trust-m/Libraries/XMCLib/inc\xmc_usic.h ****  **************************************************************************************************
  35:C:/Workspace/DAVE-4.4.2-64Bit/xmc1400-getstarted-optiga-trust-m/Libraries/XMCLib/inc\xmc_usic.h ****  *
  36:C:/Workspace/DAVE-4.4.2-64Bit/xmc1400-getstarted-optiga-trust-m/Libraries/XMCLib/inc\xmc_usic.h ****  * Change History
  37:C:/Workspace/DAVE-4.4.2-64Bit/xmc1400-getstarted-optiga-trust-m/Libraries/XMCLib/inc\xmc_usic.h ****  * --------------
  38:C:/Workspace/DAVE-4.4.2-64Bit/xmc1400-getstarted-optiga-trust-m/Libraries/XMCLib/inc\xmc_usic.h ****  *
  39:C:/Workspace/DAVE-4.4.2-64Bit/xmc1400-getstarted-optiga-trust-m/Libraries/XMCLib/inc\xmc_usic.h ****  * 2015-02-20:
  40:C:/Workspace/DAVE-4.4.2-64Bit/xmc1400-getstarted-optiga-trust-m/Libraries/XMCLib/inc\xmc_usic.h ****  *     - Initial draft<br>
  41:C:/Workspace/DAVE-4.4.2-64Bit/xmc1400-getstarted-optiga-trust-m/Libraries/XMCLib/inc\xmc_usic.h ****  *     - Documentation improved <br>
  42:C:/Workspace/DAVE-4.4.2-64Bit/xmc1400-getstarted-optiga-trust-m/Libraries/XMCLib/inc\xmc_usic.h ****  *
  43:C:/Workspace/DAVE-4.4.2-64Bit/xmc1400-getstarted-optiga-trust-m/Libraries/XMCLib/inc\xmc_usic.h ****  * 2015-05-08:
  44:C:/Workspace/DAVE-4.4.2-64Bit/xmc1400-getstarted-optiga-trust-m/Libraries/XMCLib/inc\xmc_usic.h ****  *     - Added XMC_USIC_CH_SetInputTriggerCombinationMode() and XMC_USIC_CH_SetTransmitBufferStatus
  45:C:/Workspace/DAVE-4.4.2-64Bit/xmc1400-getstarted-optiga-trust-m/Libraries/XMCLib/inc\xmc_usic.h ****  *      
  46:C:/Workspace/DAVE-4.4.2-64Bit/xmc1400-getstarted-optiga-trust-m/Libraries/XMCLib/inc\xmc_usic.h ****  * 2015-06-20:
  47:C:/Workspace/DAVE-4.4.2-64Bit/xmc1400-getstarted-optiga-trust-m/Libraries/XMCLib/inc\xmc_usic.h ****  *     - Removed version macros and declaration of GetDriverVersion API
  48:C:/Workspace/DAVE-4.4.2-64Bit/xmc1400-getstarted-optiga-trust-m/Libraries/XMCLib/inc\xmc_usic.h ****  * 
  49:C:/Workspace/DAVE-4.4.2-64Bit/xmc1400-getstarted-optiga-trust-m/Libraries/XMCLib/inc\xmc_usic.h ****  * 2015-08-17:
  50:C:/Workspace/DAVE-4.4.2-64Bit/xmc1400-getstarted-optiga-trust-m/Libraries/XMCLib/inc\xmc_usic.h ****  *     - Bug fixed in XMC_USIC_CH_SetTransmitBufferStatus API. OR operator removed.
  51:C:/Workspace/DAVE-4.4.2-64Bit/xmc1400-getstarted-optiga-trust-m/Libraries/XMCLib/inc\xmc_usic.h ****  *
  52:C:/Workspace/DAVE-4.4.2-64Bit/xmc1400-getstarted-optiga-trust-m/Libraries/XMCLib/inc\xmc_usic.h ****  * 2015-08-24:
  53:C:/Workspace/DAVE-4.4.2-64Bit/xmc1400-getstarted-optiga-trust-m/Libraries/XMCLib/inc\xmc_usic.h ****  *     - Added APIs for enabling/disabling delay compensation XMC_USIC_CH_DisableDelayCompensation(
  54:C:/Workspace/DAVE-4.4.2-64Bit/xmc1400-getstarted-optiga-trust-m/Libraries/XMCLib/inc\xmc_usic.h ****  *       XMC_USIC_CH_DisableDelayCompensation()
  55:C:/Workspace/DAVE-4.4.2-64Bit/xmc1400-getstarted-optiga-trust-m/Libraries/XMCLib/inc\xmc_usic.h ****  *
  56:C:/Workspace/DAVE-4.4.2-64Bit/xmc1400-getstarted-optiga-trust-m/Libraries/XMCLib/inc\xmc_usic.h ****  * 2015-08-25:
  57:C:/Workspace/DAVE-4.4.2-64Bit/xmc1400-getstarted-optiga-trust-m/Libraries/XMCLib/inc\xmc_usic.h ****  *     - Added APIs for defining if the data shift unit input is derived
  58:C:/Workspace/DAVE-4.4.2-64Bit/xmc1400-getstarted-optiga-trust-m/Libraries/XMCLib/inc\xmc_usic.h ****  *       from the input data path DXn or from the selected protocol pre-processors: XMC_USIC_CH_Con
  59:C:/Workspace/DAVE-4.4.2-64Bit/xmc1400-getstarted-optiga-trust-m/Libraries/XMCLib/inc\xmc_usic.h ****  *       and XMC_USIC_CH_ConnectInputDataShiftToDataInput()
  60:C:/Workspace/DAVE-4.4.2-64Bit/xmc1400-getstarted-optiga-trust-m/Libraries/XMCLib/inc\xmc_usic.h ****  *
  61:C:/Workspace/DAVE-4.4.2-64Bit/xmc1400-getstarted-optiga-trust-m/Libraries/XMCLib/inc\xmc_usic.h ****  * 2015-08-27:
  62:C:/Workspace/DAVE-4.4.2-64Bit/xmc1400-getstarted-optiga-trust-m/Libraries/XMCLib/inc\xmc_usic.h ****  *     - Fixed bug in XMC_USIC_CH_BRG_CLOCK_SOURCE_DX1T value.
  63:C:/Workspace/DAVE-4.4.2-64Bit/xmc1400-getstarted-optiga-trust-m/Libraries/XMCLib/inc\xmc_usic.h ****  *     - Added APIs for direct TBUF access: XMC_USIC_CH_WriteToTBUF() and XMC_USIC_CH_WriteToTBUFTC
  64:C:/Workspace/DAVE-4.4.2-64Bit/xmc1400-getstarted-optiga-trust-m/Libraries/XMCLib/inc\xmc_usic.h ****  *     - Added APIs for external input for BRG configuration:XMC_USIC_CH_ConfigExternalInputSignalT
  65:C:/Workspace/DAVE-4.4.2-64Bit/xmc1400-getstarted-optiga-trust-m/Libraries/XMCLib/inc\xmc_usic.h ****  *
  66:C:/Workspace/DAVE-4.4.2-64Bit/xmc1400-getstarted-optiga-trust-m/Libraries/XMCLib/inc\xmc_usic.h ****  * 2015-08-28:
  67:C:/Workspace/DAVE-4.4.2-64Bit/xmc1400-getstarted-optiga-trust-m/Libraries/XMCLib/inc\xmc_usic.h ****  *     - Added API for enabling the transfer trigger unit to set bit TCSR.TE if the trigger signal 
  68:C:/Workspace/DAVE-4.4.2-64Bit/xmc1400-getstarted-optiga-trust-m/Libraries/XMCLib/inc\xmc_usic.h ****  *       Clear to Send (CTS) signal: XMC_USIC_CH_EnableTBUFDataValidTrigger() and XMC_USIC_CH_Disab
  69:C:/Workspace/DAVE-4.4.2-64Bit/xmc1400-getstarted-optiga-trust-m/Libraries/XMCLib/inc\xmc_usic.h ****  *
  70:C:/Workspace/DAVE-4.4.2-64Bit/xmc1400-getstarted-optiga-trust-m/Libraries/XMCLib/inc\xmc_usic.h ****  * 2016-03-09:
  71:C:/Workspace/DAVE-4.4.2-64Bit/xmc1400-getstarted-optiga-trust-m/Libraries/XMCLib/inc\xmc_usic.h ****  *     - Optimization of write only registers
  72:C:/Workspace/DAVE-4.4.2-64Bit/xmc1400-getstarted-optiga-trust-m/Libraries/XMCLib/inc\xmc_usic.h ****  *
  73:C:/Workspace/DAVE-4.4.2-64Bit/xmc1400-getstarted-optiga-trust-m/Libraries/XMCLib/inc\xmc_usic.h ****  * 2016-04-10:
  74:C:/Workspace/DAVE-4.4.2-64Bit/xmc1400-getstarted-optiga-trust-m/Libraries/XMCLib/inc\xmc_usic.h ****  *     - Added an API to put the data into FIFO when hardware port control is enabled: XMC_USIC_CH_
  75:C:/Workspace/DAVE-4.4.2-64Bit/xmc1400-getstarted-optiga-trust-m/Libraries/XMCLib/inc\xmc_usic.h ****  *
  76:C:/Workspace/DAVE-4.4.2-64Bit/xmc1400-getstarted-optiga-trust-m/Libraries/XMCLib/inc\xmc_usic.h ****  * 2017-02-10:
  77:C:/Workspace/DAVE-4.4.2-64Bit/xmc1400-getstarted-optiga-trust-m/Libraries/XMCLib/inc\xmc_usic.h ****  *     - Added XMC_USIC_CH_SetShiftDirection() to allow selection of shift direction of the data wo
  78:C:/Workspace/DAVE-4.4.2-64Bit/xmc1400-getstarted-optiga-trust-m/Libraries/XMCLib/inc\xmc_usic.h ****  *     - Added XMC_USIC_CH_GetCaptureTimerValue() and XMC_USIC_CH_SetFractionalDivider()
  79:C:/Workspace/DAVE-4.4.2-64Bit/xmc1400-getstarted-optiga-trust-m/Libraries/XMCLib/inc\xmc_usic.h ****  *
  80:C:/Workspace/DAVE-4.4.2-64Bit/xmc1400-getstarted-optiga-trust-m/Libraries/XMCLib/inc\xmc_usic.h ****  * 2017-09-08:
  81:C:/Workspace/DAVE-4.4.2-64Bit/xmc1400-getstarted-optiga-trust-m/Libraries/XMCLib/inc\xmc_usic.h ****  *     - Fixed value of macro XMC_USIC_CH_SHIFT_DIRECTION_MSB_FIRST used in XMC_USIC_CH_SetShiftDir
  82:C:/Workspace/DAVE-4.4.2-64Bit/xmc1400-getstarted-optiga-trust-m/Libraries/XMCLib/inc\xmc_usic.h ****  *
  83:C:/Workspace/DAVE-4.4.2-64Bit/xmc1400-getstarted-optiga-trust-m/Libraries/XMCLib/inc\xmc_usic.h ****  * 2018-09-29:
  84:C:/Workspace/DAVE-4.4.2-64Bit/xmc1400-getstarted-optiga-trust-m/Libraries/XMCLib/inc\xmc_usic.h ****  *     - Added XMC_USIC_CH_SetBaudrateEx which uses the integer divider instead of the fractional d
  85:C:/Workspace/DAVE-4.4.2-64Bit/xmc1400-getstarted-optiga-trust-m/Libraries/XMCLib/inc\xmc_usic.h ****  * 
  86:C:/Workspace/DAVE-4.4.2-64Bit/xmc1400-getstarted-optiga-trust-m/Libraries/XMCLib/inc\xmc_usic.h ****  * 2019-05-07:
  87:C:/Workspace/DAVE-4.4.2-64Bit/xmc1400-getstarted-optiga-trust-m/Libraries/XMCLib/inc\xmc_usic.h ****  *     - Added XMC_USIC_CH_GetBaudrate(), XMC_USIC_CH_GetSCLKFrequency() and XMC_USIC_CH_GetMCLKFre
  88:C:/Workspace/DAVE-4.4.2-64Bit/xmc1400-getstarted-optiga-trust-m/Libraries/XMCLib/inc\xmc_usic.h ****  *
  89:C:/Workspace/DAVE-4.4.2-64Bit/xmc1400-getstarted-optiga-trust-m/Libraries/XMCLib/inc\xmc_usic.h ****  * 2019-07-01:
  90:C:/Workspace/DAVE-4.4.2-64Bit/xmc1400-getstarted-optiga-trust-m/Libraries/XMCLib/inc\xmc_usic.h ****  *     - Changed XMC_USIC_CH_SetBaudrateEx() input parameter types
  91:C:/Workspace/DAVE-4.4.2-64Bit/xmc1400-getstarted-optiga-trust-m/Libraries/XMCLib/inc\xmc_usic.h ****  *
  92:C:/Workspace/DAVE-4.4.2-64Bit/xmc1400-getstarted-optiga-trust-m/Libraries/XMCLib/inc\xmc_usic.h ****  * @endcond
  93:C:/Workspace/DAVE-4.4.2-64Bit/xmc1400-getstarted-optiga-trust-m/Libraries/XMCLib/inc\xmc_usic.h ****  *
  94:C:/Workspace/DAVE-4.4.2-64Bit/xmc1400-getstarted-optiga-trust-m/Libraries/XMCLib/inc\xmc_usic.h ****  */
  95:C:/Workspace/DAVE-4.4.2-64Bit/xmc1400-getstarted-optiga-trust-m/Libraries/XMCLib/inc\xmc_usic.h **** 
  96:C:/Workspace/DAVE-4.4.2-64Bit/xmc1400-getstarted-optiga-trust-m/Libraries/XMCLib/inc\xmc_usic.h **** #ifndef XMC_USIC_H
  97:C:/Workspace/DAVE-4.4.2-64Bit/xmc1400-getstarted-optiga-trust-m/Libraries/XMCLib/inc\xmc_usic.h **** #define XMC_USIC_H
  98:C:/Workspace/DAVE-4.4.2-64Bit/xmc1400-getstarted-optiga-trust-m/Libraries/XMCLib/inc\xmc_usic.h **** /*******************************************************************************
  99:C:/Workspace/DAVE-4.4.2-64Bit/xmc1400-getstarted-optiga-trust-m/Libraries/XMCLib/inc\xmc_usic.h ****  * HEADER FILES
 100:C:/Workspace/DAVE-4.4.2-64Bit/xmc1400-getstarted-optiga-trust-m/Libraries/XMCLib/inc\xmc_usic.h ****  *******************************************************************************/
 101:C:/Workspace/DAVE-4.4.2-64Bit/xmc1400-getstarted-optiga-trust-m/Libraries/XMCLib/inc\xmc_usic.h **** 
 102:C:/Workspace/DAVE-4.4.2-64Bit/xmc1400-getstarted-optiga-trust-m/Libraries/XMCLib/inc\xmc_usic.h **** #include "xmc_common.h"
 103:C:/Workspace/DAVE-4.4.2-64Bit/xmc1400-getstarted-optiga-trust-m/Libraries/XMCLib/inc\xmc_usic.h **** 
 104:C:/Workspace/DAVE-4.4.2-64Bit/xmc1400-getstarted-optiga-trust-m/Libraries/XMCLib/inc\xmc_usic.h **** /**
 105:C:/Workspace/DAVE-4.4.2-64Bit/xmc1400-getstarted-optiga-trust-m/Libraries/XMCLib/inc\xmc_usic.h ****  * @addtogroup XMClib XMC Peripheral Library
 106:C:/Workspace/DAVE-4.4.2-64Bit/xmc1400-getstarted-optiga-trust-m/Libraries/XMCLib/inc\xmc_usic.h ****  * @{
 107:C:/Workspace/DAVE-4.4.2-64Bit/xmc1400-getstarted-optiga-trust-m/Libraries/XMCLib/inc\xmc_usic.h ****  */
 108:C:/Workspace/DAVE-4.4.2-64Bit/xmc1400-getstarted-optiga-trust-m/Libraries/XMCLib/inc\xmc_usic.h **** 
 109:C:/Workspace/DAVE-4.4.2-64Bit/xmc1400-getstarted-optiga-trust-m/Libraries/XMCLib/inc\xmc_usic.h **** /**
 110:C:/Workspace/DAVE-4.4.2-64Bit/xmc1400-getstarted-optiga-trust-m/Libraries/XMCLib/inc\xmc_usic.h ****  * @addtogroup USIC
 111:C:/Workspace/DAVE-4.4.2-64Bit/xmc1400-getstarted-optiga-trust-m/Libraries/XMCLib/inc\xmc_usic.h ****  * @brief Universal Serial Interface Channel(USIC) driver for serial communication.
 112:C:/Workspace/DAVE-4.4.2-64Bit/xmc1400-getstarted-optiga-trust-m/Libraries/XMCLib/inc\xmc_usic.h ****  *
 113:C:/Workspace/DAVE-4.4.2-64Bit/xmc1400-getstarted-optiga-trust-m/Libraries/XMCLib/inc\xmc_usic.h ****  * The Universal Serial Interface Channel(USIC) module is a flexible interface module
 114:C:/Workspace/DAVE-4.4.2-64Bit/xmc1400-getstarted-optiga-trust-m/Libraries/XMCLib/inc\xmc_usic.h ****  * covering several serial communication protocols. A USIC module contains two
 115:C:/Workspace/DAVE-4.4.2-64Bit/xmc1400-getstarted-optiga-trust-m/Libraries/XMCLib/inc\xmc_usic.h ****  * independent communication channels named USICx_CH0 and USICx_CH1, with x
 116:C:/Workspace/DAVE-4.4.2-64Bit/xmc1400-getstarted-optiga-trust-m/Libraries/XMCLib/inc\xmc_usic.h ****  * being the number of the USIC module. The user can program, during run-time, which protocol will 
 117:C:/Workspace/DAVE-4.4.2-64Bit/xmc1400-getstarted-optiga-trust-m/Libraries/XMCLib/inc\xmc_usic.h ****  * by each communication channel and which pins are used.
 118:C:/Workspace/DAVE-4.4.2-64Bit/xmc1400-getstarted-optiga-trust-m/Libraries/XMCLib/inc\xmc_usic.h ****  * The driver provides APIs, configuration structures and enumerations to configure common features
 119:C:/Workspace/DAVE-4.4.2-64Bit/xmc1400-getstarted-optiga-trust-m/Libraries/XMCLib/inc\xmc_usic.h ****  * communication protocols.
 120:C:/Workspace/DAVE-4.4.2-64Bit/xmc1400-getstarted-optiga-trust-m/Libraries/XMCLib/inc\xmc_usic.h ****  * 
 121:C:/Workspace/DAVE-4.4.2-64Bit/xmc1400-getstarted-optiga-trust-m/Libraries/XMCLib/inc\xmc_usic.h ****  * USIC driver features:
 122:C:/Workspace/DAVE-4.4.2-64Bit/xmc1400-getstarted-optiga-trust-m/Libraries/XMCLib/inc\xmc_usic.h ****  * -# Allows configuration of FIFO for transmit and receive functions.
 123:C:/Workspace/DAVE-4.4.2-64Bit/xmc1400-getstarted-optiga-trust-m/Libraries/XMCLib/inc\xmc_usic.h ****  * -# Provides a structure type XMC_USIC_CH_t to represent the USIC channel registers in a programm
 124:C:/Workspace/DAVE-4.4.2-64Bit/xmc1400-getstarted-optiga-trust-m/Libraries/XMCLib/inc\xmc_usic.h ****  friendly format.
 125:C:/Workspace/DAVE-4.4.2-64Bit/xmc1400-getstarted-optiga-trust-m/Libraries/XMCLib/inc\xmc_usic.h ****  * -# Allows configuration of automatic update for frame length, word length, slave select or slave
 126:C:/Workspace/DAVE-4.4.2-64Bit/xmc1400-getstarted-optiga-trust-m/Libraries/XMCLib/inc\xmc_usic.h ****  * -# Allows transmission of data to FIFO using XMC_USIC_CH_TXFIFO_PutData() and XMC_USIC_CH_TXFIFO
 127:C:/Workspace/DAVE-4.4.2-64Bit/xmc1400-getstarted-optiga-trust-m/Libraries/XMCLib/inc\xmc_usic.h ****  * -# Allows reading of received data in FIFO using XMC_USIC_CH_RXFIFO_GetData()
 128:C:/Workspace/DAVE-4.4.2-64Bit/xmc1400-getstarted-optiga-trust-m/Libraries/XMCLib/inc\xmc_usic.h ****  * -# Allows configuration of baudrate using XMC_USIC_CH_SetBaudrate()
 129:C:/Workspace/DAVE-4.4.2-64Bit/xmc1400-getstarted-optiga-trust-m/Libraries/XMCLib/inc\xmc_usic.h ****  * -# Provides API to trigger interrupts using XMC_USIC_CH_TriggerServiceRequest()
 130:C:/Workspace/DAVE-4.4.2-64Bit/xmc1400-getstarted-optiga-trust-m/Libraries/XMCLib/inc\xmc_usic.h ****  * @{
 131:C:/Workspace/DAVE-4.4.2-64Bit/xmc1400-getstarted-optiga-trust-m/Libraries/XMCLib/inc\xmc_usic.h ****  */
 132:C:/Workspace/DAVE-4.4.2-64Bit/xmc1400-getstarted-optiga-trust-m/Libraries/XMCLib/inc\xmc_usic.h **** 
 133:C:/Workspace/DAVE-4.4.2-64Bit/xmc1400-getstarted-optiga-trust-m/Libraries/XMCLib/inc\xmc_usic.h **** /*******************************************************************************
 134:C:/Workspace/DAVE-4.4.2-64Bit/xmc1400-getstarted-optiga-trust-m/Libraries/XMCLib/inc\xmc_usic.h ****  * MACROS
 135:C:/Workspace/DAVE-4.4.2-64Bit/xmc1400-getstarted-optiga-trust-m/Libraries/XMCLib/inc\xmc_usic.h ****  *******************************************************************************/
 136:C:/Workspace/DAVE-4.4.2-64Bit/xmc1400-getstarted-optiga-trust-m/Libraries/XMCLib/inc\xmc_usic.h **** 
 137:C:/Workspace/DAVE-4.4.2-64Bit/xmc1400-getstarted-optiga-trust-m/Libraries/XMCLib/inc\xmc_usic.h **** #define XMC_USIC0 ((XMC_USIC_t *)USIC0_BASE)			/**< USIC0 module base address */
 138:C:/Workspace/DAVE-4.4.2-64Bit/xmc1400-getstarted-optiga-trust-m/Libraries/XMCLib/inc\xmc_usic.h **** #define XMC_USIC0_CH0 ((XMC_USIC_CH_t *)USIC0_CH0_BASE)	/**< USIC0 channel 0 base address */
 139:C:/Workspace/DAVE-4.4.2-64Bit/xmc1400-getstarted-optiga-trust-m/Libraries/XMCLib/inc\xmc_usic.h **** #define XMC_USIC0_CH1 ((XMC_USIC_CH_t *)USIC0_CH1_BASE)	/**< USIC0 channel 1 base address */
 140:C:/Workspace/DAVE-4.4.2-64Bit/xmc1400-getstarted-optiga-trust-m/Libraries/XMCLib/inc\xmc_usic.h **** 
 141:C:/Workspace/DAVE-4.4.2-64Bit/xmc1400-getstarted-optiga-trust-m/Libraries/XMCLib/inc\xmc_usic.h **** #if defined(USIC1)
 142:C:/Workspace/DAVE-4.4.2-64Bit/xmc1400-getstarted-optiga-trust-m/Libraries/XMCLib/inc\xmc_usic.h **** #define XMC_USIC1 ((XMC_USIC_t *)USIC1_BASE)			/**< USIC1 module base address */
 143:C:/Workspace/DAVE-4.4.2-64Bit/xmc1400-getstarted-optiga-trust-m/Libraries/XMCLib/inc\xmc_usic.h **** #define XMC_USIC1_CH0 ((XMC_USIC_CH_t *)USIC1_CH0_BASE)	/**< USIC1 channel 0 base address */
 144:C:/Workspace/DAVE-4.4.2-64Bit/xmc1400-getstarted-optiga-trust-m/Libraries/XMCLib/inc\xmc_usic.h **** #define XMC_USIC1_CH1 ((XMC_USIC_CH_t *)USIC1_CH1_BASE)	/**< USIC1 channel 1 base address */
 145:C:/Workspace/DAVE-4.4.2-64Bit/xmc1400-getstarted-optiga-trust-m/Libraries/XMCLib/inc\xmc_usic.h **** #endif
 146:C:/Workspace/DAVE-4.4.2-64Bit/xmc1400-getstarted-optiga-trust-m/Libraries/XMCLib/inc\xmc_usic.h **** 
 147:C:/Workspace/DAVE-4.4.2-64Bit/xmc1400-getstarted-optiga-trust-m/Libraries/XMCLib/inc\xmc_usic.h **** #if defined(USIC2)
 148:C:/Workspace/DAVE-4.4.2-64Bit/xmc1400-getstarted-optiga-trust-m/Libraries/XMCLib/inc\xmc_usic.h **** #define XMC_USIC2 ((XMC_USIC_t *)USIC2_BASE)			/**< USIC2 module base address */
 149:C:/Workspace/DAVE-4.4.2-64Bit/xmc1400-getstarted-optiga-trust-m/Libraries/XMCLib/inc\xmc_usic.h **** #define XMC_USIC2_CH0 ((XMC_USIC_CH_t *)USIC2_CH0_BASE)	/**< USIC2 channel 0 base address */
 150:C:/Workspace/DAVE-4.4.2-64Bit/xmc1400-getstarted-optiga-trust-m/Libraries/XMCLib/inc\xmc_usic.h **** #define XMC_USIC2_CH1 ((XMC_USIC_CH_t *)USIC2_CH1_BASE)	/**< USIC2 channel 1 base address */
 151:C:/Workspace/DAVE-4.4.2-64Bit/xmc1400-getstarted-optiga-trust-m/Libraries/XMCLib/inc\xmc_usic.h **** #endif
 152:C:/Workspace/DAVE-4.4.2-64Bit/xmc1400-getstarted-optiga-trust-m/Libraries/XMCLib/inc\xmc_usic.h **** 
 153:C:/Workspace/DAVE-4.4.2-64Bit/xmc1400-getstarted-optiga-trust-m/Libraries/XMCLib/inc\xmc_usic.h **** #define USIC_CH_DXCR_DSEL_Msk  USIC_CH_DX0CR_DSEL_Msk   /**< Common mask for DSEL bitfield mask in 
 154:C:/Workspace/DAVE-4.4.2-64Bit/xmc1400-getstarted-optiga-trust-m/Libraries/XMCLib/inc\xmc_usic.h **** #define USIC_CH_DXCR_DSEL_Pos  USIC_CH_DX0CR_DSEL_Pos   /**< Common mask for DSEL bitfield position
 155:C:/Workspace/DAVE-4.4.2-64Bit/xmc1400-getstarted-optiga-trust-m/Libraries/XMCLib/inc\xmc_usic.h **** #define USIC_CH_DXCR_SFSEL_Pos USIC_CH_DX0CR_SFSEL_Pos  /**< Common mask for SFSEL bitfield positio
 156:C:/Workspace/DAVE-4.4.2-64Bit/xmc1400-getstarted-optiga-trust-m/Libraries/XMCLib/inc\xmc_usic.h **** #define USIC_CH_DXCR_SFSEL_Msk USIC_CH_DX0CR_SFSEL_Msk  /**< Common mask for SFSEL bitfield mask in
 157:C:/Workspace/DAVE-4.4.2-64Bit/xmc1400-getstarted-optiga-trust-m/Libraries/XMCLib/inc\xmc_usic.h **** #define USIC_CH_DXCR_DPOL_Msk  USIC_CH_DX0CR_DPOL_Msk   /**< Common mask for DPOL bitfield mask in 
 158:C:/Workspace/DAVE-4.4.2-64Bit/xmc1400-getstarted-optiga-trust-m/Libraries/XMCLib/inc\xmc_usic.h **** #define USIC_CH_DXCR_DFEN_Msk  USIC_CH_DX0CR_DFEN_Msk   /**< Common mask for DFEN bitfield mask in 
 159:C:/Workspace/DAVE-4.4.2-64Bit/xmc1400-getstarted-optiga-trust-m/Libraries/XMCLib/inc\xmc_usic.h **** #define USIC_CH_DXCR_DSEN_Msk  USIC_CH_DX0CR_DSEN_Msk   /**< Common mask for DSEN bitfield mask in 
 160:C:/Workspace/DAVE-4.4.2-64Bit/xmc1400-getstarted-optiga-trust-m/Libraries/XMCLib/inc\xmc_usic.h **** #define USIC_CH_DXCR_CM_Pos    USIC_CH_DX0CR_CM_Pos     /**< Common mask for CM bitfield position i
 161:C:/Workspace/DAVE-4.4.2-64Bit/xmc1400-getstarted-optiga-trust-m/Libraries/XMCLib/inc\xmc_usic.h **** #define USIC_CH_DXCR_CM_Msk    USIC_CH_DX0CR_CM_Msk     /**< Common mask for CM bitfield mask in DX
 162:C:/Workspace/DAVE-4.4.2-64Bit/xmc1400-getstarted-optiga-trust-m/Libraries/XMCLib/inc\xmc_usic.h **** #define USIC_CH_DXCR_INSW_Msk  USIC_CH_DX0CR_INSW_Msk   /**< Common mask for INSW bitfield mask in 
 163:C:/Workspace/DAVE-4.4.2-64Bit/xmc1400-getstarted-optiga-trust-m/Libraries/XMCLib/inc\xmc_usic.h **** #define USIC_CH_DXCR_INSW_pos  USIC_CH_DX0CR_INSW_Pos   /**< Common mask for INSW bitfield position
 164:C:/Workspace/DAVE-4.4.2-64Bit/xmc1400-getstarted-optiga-trust-m/Libraries/XMCLib/inc\xmc_usic.h **** 
 165:C:/Workspace/DAVE-4.4.2-64Bit/xmc1400-getstarted-optiga-trust-m/Libraries/XMCLib/inc\xmc_usic.h **** #if UC_FAMILY == XMC1
 166:C:/Workspace/DAVE-4.4.2-64Bit/xmc1400-getstarted-optiga-trust-m/Libraries/XMCLib/inc\xmc_usic.h ****  #include "xmc1_usic_map.h"
 167:C:/Workspace/DAVE-4.4.2-64Bit/xmc1400-getstarted-optiga-trust-m/Libraries/XMCLib/inc\xmc_usic.h **** #endif
 168:C:/Workspace/DAVE-4.4.2-64Bit/xmc1400-getstarted-optiga-trust-m/Libraries/XMCLib/inc\xmc_usic.h **** 
 169:C:/Workspace/DAVE-4.4.2-64Bit/xmc1400-getstarted-optiga-trust-m/Libraries/XMCLib/inc\xmc_usic.h **** #if UC_FAMILY == XMC4
 170:C:/Workspace/DAVE-4.4.2-64Bit/xmc1400-getstarted-optiga-trust-m/Libraries/XMCLib/inc\xmc_usic.h ****  #include "xmc4_usic_map.h"
 171:C:/Workspace/DAVE-4.4.2-64Bit/xmc1400-getstarted-optiga-trust-m/Libraries/XMCLib/inc\xmc_usic.h **** #endif
 172:C:/Workspace/DAVE-4.4.2-64Bit/xmc1400-getstarted-optiga-trust-m/Libraries/XMCLib/inc\xmc_usic.h **** 
 173:C:/Workspace/DAVE-4.4.2-64Bit/xmc1400-getstarted-optiga-trust-m/Libraries/XMCLib/inc\xmc_usic.h **** /*******************************************************************************
 174:C:/Workspace/DAVE-4.4.2-64Bit/xmc1400-getstarted-optiga-trust-m/Libraries/XMCLib/inc\xmc_usic.h ****  * ENUMS
 175:C:/Workspace/DAVE-4.4.2-64Bit/xmc1400-getstarted-optiga-trust-m/Libraries/XMCLib/inc\xmc_usic.h ****  *******************************************************************************/
 176:C:/Workspace/DAVE-4.4.2-64Bit/xmc1400-getstarted-optiga-trust-m/Libraries/XMCLib/inc\xmc_usic.h **** 
 177:C:/Workspace/DAVE-4.4.2-64Bit/xmc1400-getstarted-optiga-trust-m/Libraries/XMCLib/inc\xmc_usic.h **** /**
 178:C:/Workspace/DAVE-4.4.2-64Bit/xmc1400-getstarted-optiga-trust-m/Libraries/XMCLib/inc\xmc_usic.h ****  * USIC channel driver status
 179:C:/Workspace/DAVE-4.4.2-64Bit/xmc1400-getstarted-optiga-trust-m/Libraries/XMCLib/inc\xmc_usic.h ****  */
 180:C:/Workspace/DAVE-4.4.2-64Bit/xmc1400-getstarted-optiga-trust-m/Libraries/XMCLib/inc\xmc_usic.h **** typedef enum XMC_USIC_CH_STATUS
 181:C:/Workspace/DAVE-4.4.2-64Bit/xmc1400-getstarted-optiga-trust-m/Libraries/XMCLib/inc\xmc_usic.h **** {
 182:C:/Workspace/DAVE-4.4.2-64Bit/xmc1400-getstarted-optiga-trust-m/Libraries/XMCLib/inc\xmc_usic.h ****   XMC_USIC_CH_STATUS_OK,    /**< USIC driver status : OK */
 183:C:/Workspace/DAVE-4.4.2-64Bit/xmc1400-getstarted-optiga-trust-m/Libraries/XMCLib/inc\xmc_usic.h ****   XMC_USIC_CH_STATUS_ERROR, /**< USIC driver status : ERROR */
 184:C:/Workspace/DAVE-4.4.2-64Bit/xmc1400-getstarted-optiga-trust-m/Libraries/XMCLib/inc\xmc_usic.h ****   XMC_USIC_CH_STATUS_BUSY   /**< USIC driver status : BUSY */
 185:C:/Workspace/DAVE-4.4.2-64Bit/xmc1400-getstarted-optiga-trust-m/Libraries/XMCLib/inc\xmc_usic.h **** } XMC_USIC_CH_STATUS_t;
 186:C:/Workspace/DAVE-4.4.2-64Bit/xmc1400-getstarted-optiga-trust-m/Libraries/XMCLib/inc\xmc_usic.h **** 
 187:C:/Workspace/DAVE-4.4.2-64Bit/xmc1400-getstarted-optiga-trust-m/Libraries/XMCLib/inc\xmc_usic.h **** /**
 188:C:/Workspace/DAVE-4.4.2-64Bit/xmc1400-getstarted-optiga-trust-m/Libraries/XMCLib/inc\xmc_usic.h **** * USIC channel kernel mode
 189:C:/Workspace/DAVE-4.4.2-64Bit/xmc1400-getstarted-optiga-trust-m/Libraries/XMCLib/inc\xmc_usic.h **** */
 190:C:/Workspace/DAVE-4.4.2-64Bit/xmc1400-getstarted-optiga-trust-m/Libraries/XMCLib/inc\xmc_usic.h **** typedef enum XMC_USIC_CH_KERNEL_MODE
 191:C:/Workspace/DAVE-4.4.2-64Bit/xmc1400-getstarted-optiga-trust-m/Libraries/XMCLib/inc\xmc_usic.h **** {
 192:C:/Workspace/DAVE-4.4.2-64Bit/xmc1400-getstarted-optiga-trust-m/Libraries/XMCLib/inc\xmc_usic.h ****   XMC_USIC_CH_KERNEL_MODE_RUN_0  = 0x0UL,  /**< Run mode 0 (transmission and reception possible)*/
 193:C:/Workspace/DAVE-4.4.2-64Bit/xmc1400-getstarted-optiga-trust-m/Libraries/XMCLib/inc\xmc_usic.h ****   XMC_USIC_CH_KERNEL_MODE_RUN_1  = 0x1UL << USIC_CH_KSCFG_NOMCFG_Pos,  /**< Run mode 1 (transmissio
 194:C:/Workspace/DAVE-4.4.2-64Bit/xmc1400-getstarted-optiga-trust-m/Libraries/XMCLib/inc\xmc_usic.h ****   XMC_USIC_CH_KERNEL_MODE_STOP_0 = 0x2UL << USIC_CH_KSCFG_NOMCFG_Pos,  /**< Stop mode 0 (no transmi
 195:C:/Workspace/DAVE-4.4.2-64Bit/xmc1400-getstarted-optiga-trust-m/Libraries/XMCLib/inc\xmc_usic.h ****   XMC_USIC_CH_KERNEL_MODE_STOP_1 = 0x3UL << USIC_CH_KSCFG_NOMCFG_Pos   /**< Stop mode 1 (both trans
 196:C:/Workspace/DAVE-4.4.2-64Bit/xmc1400-getstarted-optiga-trust-m/Libraries/XMCLib/inc\xmc_usic.h **** } XMC_USIC_CH_KERNEL_MODE_t;
 197:C:/Workspace/DAVE-4.4.2-64Bit/xmc1400-getstarted-optiga-trust-m/Libraries/XMCLib/inc\xmc_usic.h **** 
 198:C:/Workspace/DAVE-4.4.2-64Bit/xmc1400-getstarted-optiga-trust-m/Libraries/XMCLib/inc\xmc_usic.h **** /**
 199:C:/Workspace/DAVE-4.4.2-64Bit/xmc1400-getstarted-optiga-trust-m/Libraries/XMCLib/inc\xmc_usic.h ****  * USIC channel operating mode
 200:C:/Workspace/DAVE-4.4.2-64Bit/xmc1400-getstarted-optiga-trust-m/Libraries/XMCLib/inc\xmc_usic.h ****  */
 201:C:/Workspace/DAVE-4.4.2-64Bit/xmc1400-getstarted-optiga-trust-m/Libraries/XMCLib/inc\xmc_usic.h **** typedef enum XMC_USIC_CH_OPERATING_MODE
 202:C:/Workspace/DAVE-4.4.2-64Bit/xmc1400-getstarted-optiga-trust-m/Libraries/XMCLib/inc\xmc_usic.h **** {
 203:C:/Workspace/DAVE-4.4.2-64Bit/xmc1400-getstarted-optiga-trust-m/Libraries/XMCLib/inc\xmc_usic.h ****   XMC_USIC_CH_OPERATING_MODE_IDLE = 0x0UL, /**< USIC channel idle */
 204:C:/Workspace/DAVE-4.4.2-64Bit/xmc1400-getstarted-optiga-trust-m/Libraries/XMCLib/inc\xmc_usic.h ****   XMC_USIC_CH_OPERATING_MODE_SPI  = 0x1UL << USIC_CH_CCR_MODE_Pos, /**< SPI mode */
 205:C:/Workspace/DAVE-4.4.2-64Bit/xmc1400-getstarted-optiga-trust-m/Libraries/XMCLib/inc\xmc_usic.h ****   XMC_USIC_CH_OPERATING_MODE_UART = 0x2UL << USIC_CH_CCR_MODE_Pos, /**< UART mode */
 206:C:/Workspace/DAVE-4.4.2-64Bit/xmc1400-getstarted-optiga-trust-m/Libraries/XMCLib/inc\xmc_usic.h ****   XMC_USIC_CH_OPERATING_MODE_I2S  = 0x3UL << USIC_CH_CCR_MODE_Pos, /**< I2S mode */
 207:C:/Workspace/DAVE-4.4.2-64Bit/xmc1400-getstarted-optiga-trust-m/Libraries/XMCLib/inc\xmc_usic.h ****   XMC_USIC_CH_OPERATING_MODE_I2C  = 0x4UL << USIC_CH_CCR_MODE_Pos  /**< I2C mode */
 208:C:/Workspace/DAVE-4.4.2-64Bit/xmc1400-getstarted-optiga-trust-m/Libraries/XMCLib/inc\xmc_usic.h **** } XMC_USIC_CH_OPERATING_MODE_t;
 209:C:/Workspace/DAVE-4.4.2-64Bit/xmc1400-getstarted-optiga-trust-m/Libraries/XMCLib/inc\xmc_usic.h **** 
 210:C:/Workspace/DAVE-4.4.2-64Bit/xmc1400-getstarted-optiga-trust-m/Libraries/XMCLib/inc\xmc_usic.h **** /**
 211:C:/Workspace/DAVE-4.4.2-64Bit/xmc1400-getstarted-optiga-trust-m/Libraries/XMCLib/inc\xmc_usic.h ****  * USIC channel inputs
 212:C:/Workspace/DAVE-4.4.2-64Bit/xmc1400-getstarted-optiga-trust-m/Libraries/XMCLib/inc\xmc_usic.h ****  */
 213:C:/Workspace/DAVE-4.4.2-64Bit/xmc1400-getstarted-optiga-trust-m/Libraries/XMCLib/inc\xmc_usic.h **** typedef enum XMC_USIC_CH_INPUT
 214:C:/Workspace/DAVE-4.4.2-64Bit/xmc1400-getstarted-optiga-trust-m/Libraries/XMCLib/inc\xmc_usic.h **** {
 215:C:/Workspace/DAVE-4.4.2-64Bit/xmc1400-getstarted-optiga-trust-m/Libraries/XMCLib/inc\xmc_usic.h ****   XMC_USIC_CH_INPUT_DX0, /**< DX0 input */
 216:C:/Workspace/DAVE-4.4.2-64Bit/xmc1400-getstarted-optiga-trust-m/Libraries/XMCLib/inc\xmc_usic.h ****   XMC_USIC_CH_INPUT_DX1, /**< DX1 input */
 217:C:/Workspace/DAVE-4.4.2-64Bit/xmc1400-getstarted-optiga-trust-m/Libraries/XMCLib/inc\xmc_usic.h ****   XMC_USIC_CH_INPUT_DX2, /**< DX2 input */
 218:C:/Workspace/DAVE-4.4.2-64Bit/xmc1400-getstarted-optiga-trust-m/Libraries/XMCLib/inc\xmc_usic.h ****   XMC_USIC_CH_INPUT_DX3, /**< DX3 input */
 219:C:/Workspace/DAVE-4.4.2-64Bit/xmc1400-getstarted-optiga-trust-m/Libraries/XMCLib/inc\xmc_usic.h ****   XMC_USIC_CH_INPUT_DX4, /**< DX4 input */
 220:C:/Workspace/DAVE-4.4.2-64Bit/xmc1400-getstarted-optiga-trust-m/Libraries/XMCLib/inc\xmc_usic.h ****   XMC_USIC_CH_INPUT_DX5  /**< DX5 input */
 221:C:/Workspace/DAVE-4.4.2-64Bit/xmc1400-getstarted-optiga-trust-m/Libraries/XMCLib/inc\xmc_usic.h **** } XMC_USIC_CH_INPUT_t;
 222:C:/Workspace/DAVE-4.4.2-64Bit/xmc1400-getstarted-optiga-trust-m/Libraries/XMCLib/inc\xmc_usic.h **** 
 223:C:/Workspace/DAVE-4.4.2-64Bit/xmc1400-getstarted-optiga-trust-m/Libraries/XMCLib/inc\xmc_usic.h **** /**
 224:C:/Workspace/DAVE-4.4.2-64Bit/xmc1400-getstarted-optiga-trust-m/Libraries/XMCLib/inc\xmc_usic.h ****  * USIC channel input source sampling frequency
 225:C:/Workspace/DAVE-4.4.2-64Bit/xmc1400-getstarted-optiga-trust-m/Libraries/XMCLib/inc\xmc_usic.h ****  */
 226:C:/Workspace/DAVE-4.4.2-64Bit/xmc1400-getstarted-optiga-trust-m/Libraries/XMCLib/inc\xmc_usic.h **** typedef enum XMC_USIC_CH_INPUT_SAMPLING_FREQ
 227:C:/Workspace/DAVE-4.4.2-64Bit/xmc1400-getstarted-optiga-trust-m/Libraries/XMCLib/inc\xmc_usic.h **** {
 228:C:/Workspace/DAVE-4.4.2-64Bit/xmc1400-getstarted-optiga-trust-m/Libraries/XMCLib/inc\xmc_usic.h ****   XMC_USIC_CH_INPUT_SAMPLING_FREQ_FPERIPH            = 0x0UL, /**< Use fperiph frequency for input 
 229:C:/Workspace/DAVE-4.4.2-64Bit/xmc1400-getstarted-optiga-trust-m/Libraries/XMCLib/inc\xmc_usic.h ****   XMC_USIC_CH_INPUT_SAMPLING_FREQ_FRACTIONAL_DIVIDER = 0x1UL << USIC_CH_DXCR_SFSEL_Pos  /**< Use fF
 230:C:/Workspace/DAVE-4.4.2-64Bit/xmc1400-getstarted-optiga-trust-m/Libraries/XMCLib/inc\xmc_usic.h **** } XMC_USIC_CH_INPUT_SAMPLING_FREQ_t;
 231:C:/Workspace/DAVE-4.4.2-64Bit/xmc1400-getstarted-optiga-trust-m/Libraries/XMCLib/inc\xmc_usic.h **** 
 232:C:/Workspace/DAVE-4.4.2-64Bit/xmc1400-getstarted-optiga-trust-m/Libraries/XMCLib/inc\xmc_usic.h **** /**
 233:C:/Workspace/DAVE-4.4.2-64Bit/xmc1400-getstarted-optiga-trust-m/Libraries/XMCLib/inc\xmc_usic.h ****  * USIC channel input combination mode
 234:C:/Workspace/DAVE-4.4.2-64Bit/xmc1400-getstarted-optiga-trust-m/Libraries/XMCLib/inc\xmc_usic.h ****  */
 235:C:/Workspace/DAVE-4.4.2-64Bit/xmc1400-getstarted-optiga-trust-m/Libraries/XMCLib/inc\xmc_usic.h **** typedef enum XMC_USIC_CH_INPUT_COMBINATION_MODE
 236:C:/Workspace/DAVE-4.4.2-64Bit/xmc1400-getstarted-optiga-trust-m/Libraries/XMCLib/inc\xmc_usic.h **** {
 237:C:/Workspace/DAVE-4.4.2-64Bit/xmc1400-getstarted-optiga-trust-m/Libraries/XMCLib/inc\xmc_usic.h ****   XMC_USIC_CH_INPUT_COMBINATION_MODE_TRIGGER_DISABLED = 0x0UL, /**< The trigger activation is disab
 238:C:/Workspace/DAVE-4.4.2-64Bit/xmc1400-getstarted-optiga-trust-m/Libraries/XMCLib/inc\xmc_usic.h ****   XMC_USIC_CH_INPUT_COMBINATION_MODE_RISING_EDGE      = 0x1UL, /**< A rising edge activates DXnT*/
 239:C:/Workspace/DAVE-4.4.2-64Bit/xmc1400-getstarted-optiga-trust-m/Libraries/XMCLib/inc\xmc_usic.h ****   XMC_USIC_CH_INPUT_COMBINATION_MODE_FALLING_EDGE     = 0x2UL, /**< A falling edge activates DXnT*/
 240:C:/Workspace/DAVE-4.4.2-64Bit/xmc1400-getstarted-optiga-trust-m/Libraries/XMCLib/inc\xmc_usic.h ****   XMC_USIC_CH_INPUT_COMBINATION_MODE_BOTH_EDGES       = 0x3UL, /**< Both edges activate DXnT*/
 241:C:/Workspace/DAVE-4.4.2-64Bit/xmc1400-getstarted-optiga-trust-m/Libraries/XMCLib/inc\xmc_usic.h **** } XMC_USIC_CH_INPUT_COMBINATION_MODE_t;
 242:C:/Workspace/DAVE-4.4.2-64Bit/xmc1400-getstarted-optiga-trust-m/Libraries/XMCLib/inc\xmc_usic.h **** 
 243:C:/Workspace/DAVE-4.4.2-64Bit/xmc1400-getstarted-optiga-trust-m/Libraries/XMCLib/inc\xmc_usic.h **** /**
 244:C:/Workspace/DAVE-4.4.2-64Bit/xmc1400-getstarted-optiga-trust-m/Libraries/XMCLib/inc\xmc_usic.h ****  * USIC channel data transmission start modes.
 245:C:/Workspace/DAVE-4.4.2-64Bit/xmc1400-getstarted-optiga-trust-m/Libraries/XMCLib/inc\xmc_usic.h ****  * Data shifted out of the transmit pin depends on the value configured for the
 246:C:/Workspace/DAVE-4.4.2-64Bit/xmc1400-getstarted-optiga-trust-m/Libraries/XMCLib/inc\xmc_usic.h ****  * TDEN bitfield of the TCSR register. Following enum values are used for configuring
 247:C:/Workspace/DAVE-4.4.2-64Bit/xmc1400-getstarted-optiga-trust-m/Libraries/XMCLib/inc\xmc_usic.h ****  * the TCSR->TDEN bitfield.
 248:C:/Workspace/DAVE-4.4.2-64Bit/xmc1400-getstarted-optiga-trust-m/Libraries/XMCLib/inc\xmc_usic.h ****  */
 249:C:/Workspace/DAVE-4.4.2-64Bit/xmc1400-getstarted-optiga-trust-m/Libraries/XMCLib/inc\xmc_usic.h **** typedef enum XMC_USIC_CH_START_TRANSMISION_MODE
 250:C:/Workspace/DAVE-4.4.2-64Bit/xmc1400-getstarted-optiga-trust-m/Libraries/XMCLib/inc\xmc_usic.h **** {
 251:C:/Workspace/DAVE-4.4.2-64Bit/xmc1400-getstarted-optiga-trust-m/Libraries/XMCLib/inc\xmc_usic.h ****   XMC_USIC_CH_START_TRANSMISION_DISABLED      = 0x0U, /**< Passive data level is sent out on transm
 252:C:/Workspace/DAVE-4.4.2-64Bit/xmc1400-getstarted-optiga-trust-m/Libraries/XMCLib/inc\xmc_usic.h ****   XMC_USIC_CH_START_TRANSMISION_ON_TDV        = 0x1UL << USIC_CH_TCSR_TDEN_Pos, /**< Transmission o
 253:C:/Workspace/DAVE-4.4.2-64Bit/xmc1400-getstarted-optiga-trust-m/Libraries/XMCLib/inc\xmc_usic.h ****   XMC_USIC_CH_START_TRANSMISION_ON_TDV_DX2S_0 = 0x2UL << USIC_CH_TCSR_TDEN_Pos, /**< Transmission o
 254:C:/Workspace/DAVE-4.4.2-64Bit/xmc1400-getstarted-optiga-trust-m/Libraries/XMCLib/inc\xmc_usic.h ****   XMC_USIC_CH_START_TRANSMISION_ON_TDV_DX2S_1 = 0x3UL << USIC_CH_TCSR_TDEN_Pos  /**< Transmission o
 255:C:/Workspace/DAVE-4.4.2-64Bit/xmc1400-getstarted-optiga-trust-m/Libraries/XMCLib/inc\xmc_usic.h **** } XMC_USIC_CH_START_TRANSMISION_MODE_t;
 256:C:/Workspace/DAVE-4.4.2-64Bit/xmc1400-getstarted-optiga-trust-m/Libraries/XMCLib/inc\xmc_usic.h **** 
 257:C:/Workspace/DAVE-4.4.2-64Bit/xmc1400-getstarted-optiga-trust-m/Libraries/XMCLib/inc\xmc_usic.h **** /**
 258:C:/Workspace/DAVE-4.4.2-64Bit/xmc1400-getstarted-optiga-trust-m/Libraries/XMCLib/inc\xmc_usic.h ****  * USIC channel interrupt node pointers
 259:C:/Workspace/DAVE-4.4.2-64Bit/xmc1400-getstarted-optiga-trust-m/Libraries/XMCLib/inc\xmc_usic.h ****  */
 260:C:/Workspace/DAVE-4.4.2-64Bit/xmc1400-getstarted-optiga-trust-m/Libraries/XMCLib/inc\xmc_usic.h **** typedef enum XMC_USIC_CH_INTERRUPT_NODE_POINTER
 261:C:/Workspace/DAVE-4.4.2-64Bit/xmc1400-getstarted-optiga-trust-m/Libraries/XMCLib/inc\xmc_usic.h **** {
 262:C:/Workspace/DAVE-4.4.2-64Bit/xmc1400-getstarted-optiga-trust-m/Libraries/XMCLib/inc\xmc_usic.h ****   XMC_USIC_CH_INTERRUPT_NODE_POINTER_TRANSMIT_SHIFT      = USIC_CH_INPR_TSINP_Pos, /**< Node pointe
 263:C:/Workspace/DAVE-4.4.2-64Bit/xmc1400-getstarted-optiga-trust-m/Libraries/XMCLib/inc\xmc_usic.h ****   XMC_USIC_CH_INTERRUPT_NODE_POINTER_TRANSMIT_BUFFER     = USIC_CH_INPR_TBINP_Pos, /**< Node pointe
 264:C:/Workspace/DAVE-4.4.2-64Bit/xmc1400-getstarted-optiga-trust-m/Libraries/XMCLib/inc\xmc_usic.h ****   XMC_USIC_CH_INTERRUPT_NODE_POINTER_RECEIVE             = USIC_CH_INPR_RINP_Pos,  /**< Node pointe
 265:C:/Workspace/DAVE-4.4.2-64Bit/xmc1400-getstarted-optiga-trust-m/Libraries/XMCLib/inc\xmc_usic.h ****   XMC_USIC_CH_INTERRUPT_NODE_POINTER_ALTERNATE_RECEIVE   = USIC_CH_INPR_AINP_Pos,  /**< Node pointe
 266:C:/Workspace/DAVE-4.4.2-64Bit/xmc1400-getstarted-optiga-trust-m/Libraries/XMCLib/inc\xmc_usic.h ****   XMC_USIC_CH_INTERRUPT_NODE_POINTER_PROTOCOL            = USIC_CH_INPR_PINP_Pos   /**< Node pointe
 267:C:/Workspace/DAVE-4.4.2-64Bit/xmc1400-getstarted-optiga-trust-m/Libraries/XMCLib/inc\xmc_usic.h **** } XMC_USIC_CH_INTERRUPT_NODE_POINTER_t;
 268:C:/Workspace/DAVE-4.4.2-64Bit/xmc1400-getstarted-optiga-trust-m/Libraries/XMCLib/inc\xmc_usic.h **** 
 269:C:/Workspace/DAVE-4.4.2-64Bit/xmc1400-getstarted-optiga-trust-m/Libraries/XMCLib/inc\xmc_usic.h **** /**
 270:C:/Workspace/DAVE-4.4.2-64Bit/xmc1400-getstarted-optiga-trust-m/Libraries/XMCLib/inc\xmc_usic.h ****  * USIC channel events
 271:C:/Workspace/DAVE-4.4.2-64Bit/xmc1400-getstarted-optiga-trust-m/Libraries/XMCLib/inc\xmc_usic.h ****  */
 272:C:/Workspace/DAVE-4.4.2-64Bit/xmc1400-getstarted-optiga-trust-m/Libraries/XMCLib/inc\xmc_usic.h **** typedef enum XMC_USIC_CH_EVENT
 273:C:/Workspace/DAVE-4.4.2-64Bit/xmc1400-getstarted-optiga-trust-m/Libraries/XMCLib/inc\xmc_usic.h **** {
 274:C:/Workspace/DAVE-4.4.2-64Bit/xmc1400-getstarted-optiga-trust-m/Libraries/XMCLib/inc\xmc_usic.h ****   XMC_USIC_CH_EVENT_RECEIVE_START       = USIC_CH_CCR_RSIEN_Msk, /**< Receive start event */
 275:C:/Workspace/DAVE-4.4.2-64Bit/xmc1400-getstarted-optiga-trust-m/Libraries/XMCLib/inc\xmc_usic.h ****   XMC_USIC_CH_EVENT_DATA_LOST           = USIC_CH_CCR_DLIEN_Msk, /**< Data lost event */
 276:C:/Workspace/DAVE-4.4.2-64Bit/xmc1400-getstarted-optiga-trust-m/Libraries/XMCLib/inc\xmc_usic.h ****   XMC_USIC_CH_EVENT_TRANSMIT_SHIFT      = USIC_CH_CCR_TSIEN_Msk, /**< Transmit shift event */
 277:C:/Workspace/DAVE-4.4.2-64Bit/xmc1400-getstarted-optiga-trust-m/Libraries/XMCLib/inc\xmc_usic.h ****   XMC_USIC_CH_EVENT_TRANSMIT_BUFFER     = USIC_CH_CCR_TBIEN_Msk, /**< Transmit buffer event */
 278:C:/Workspace/DAVE-4.4.2-64Bit/xmc1400-getstarted-optiga-trust-m/Libraries/XMCLib/inc\xmc_usic.h ****   XMC_USIC_CH_EVENT_STANDARD_RECEIVE    = USIC_CH_CCR_RIEN_Msk,  /**< Receive event */
 279:C:/Workspace/DAVE-4.4.2-64Bit/xmc1400-getstarted-optiga-trust-m/Libraries/XMCLib/inc\xmc_usic.h ****   XMC_USIC_CH_EVENT_ALTERNATIVE_RECEIVE = USIC_CH_CCR_AIEN_Msk,  /**< Alternate receive event */
 280:C:/Workspace/DAVE-4.4.2-64Bit/xmc1400-getstarted-optiga-trust-m/Libraries/XMCLib/inc\xmc_usic.h ****   XMC_USIC_CH_EVENT_BAUD_RATE_GENERATOR = USIC_CH_CCR_BRGIEN_Msk /**< Baudrate generator event */
 281:C:/Workspace/DAVE-4.4.2-64Bit/xmc1400-getstarted-optiga-trust-m/Libraries/XMCLib/inc\xmc_usic.h **** } XMC_USIC_CH_EVENT_t;
 282:C:/Workspace/DAVE-4.4.2-64Bit/xmc1400-getstarted-optiga-trust-m/Libraries/XMCLib/inc\xmc_usic.h **** 
 283:C:/Workspace/DAVE-4.4.2-64Bit/xmc1400-getstarted-optiga-trust-m/Libraries/XMCLib/inc\xmc_usic.h **** /**
 284:C:/Workspace/DAVE-4.4.2-64Bit/xmc1400-getstarted-optiga-trust-m/Libraries/XMCLib/inc\xmc_usic.h **** * USIC channel parity mode
 285:C:/Workspace/DAVE-4.4.2-64Bit/xmc1400-getstarted-optiga-trust-m/Libraries/XMCLib/inc\xmc_usic.h **** */
 286:C:/Workspace/DAVE-4.4.2-64Bit/xmc1400-getstarted-optiga-trust-m/Libraries/XMCLib/inc\xmc_usic.h **** typedef enum XMC_USIC_CH_PARITY_MODE
 287:C:/Workspace/DAVE-4.4.2-64Bit/xmc1400-getstarted-optiga-trust-m/Libraries/XMCLib/inc\xmc_usic.h **** {
 288:C:/Workspace/DAVE-4.4.2-64Bit/xmc1400-getstarted-optiga-trust-m/Libraries/XMCLib/inc\xmc_usic.h ****   XMC_USIC_CH_PARITY_MODE_NONE     = 0x0UL,  /**< Disable parity mode */
 289:C:/Workspace/DAVE-4.4.2-64Bit/xmc1400-getstarted-optiga-trust-m/Libraries/XMCLib/inc\xmc_usic.h ****   XMC_USIC_CH_PARITY_MODE_EVEN     = 0x2UL << USIC_CH_CCR_PM_Pos,  /**< Enable even parity mode */
 290:C:/Workspace/DAVE-4.4.2-64Bit/xmc1400-getstarted-optiga-trust-m/Libraries/XMCLib/inc\xmc_usic.h ****   XMC_USIC_CH_PARITY_MODE_ODD      = 0x3UL << USIC_CH_CCR_PM_Pos   /**< Enable odd parity mode */
 291:C:/Workspace/DAVE-4.4.2-64Bit/xmc1400-getstarted-optiga-trust-m/Libraries/XMCLib/inc\xmc_usic.h **** } XMC_USIC_CH_PARITY_MODE_t;
 292:C:/Workspace/DAVE-4.4.2-64Bit/xmc1400-getstarted-optiga-trust-m/Libraries/XMCLib/inc\xmc_usic.h **** 
 293:C:/Workspace/DAVE-4.4.2-64Bit/xmc1400-getstarted-optiga-trust-m/Libraries/XMCLib/inc\xmc_usic.h **** /**
 294:C:/Workspace/DAVE-4.4.2-64Bit/xmc1400-getstarted-optiga-trust-m/Libraries/XMCLib/inc\xmc_usic.h **** * USIC channel data output mode
 295:C:/Workspace/DAVE-4.4.2-64Bit/xmc1400-getstarted-optiga-trust-m/Libraries/XMCLib/inc\xmc_usic.h **** */
 296:C:/Workspace/DAVE-4.4.2-64Bit/xmc1400-getstarted-optiga-trust-m/Libraries/XMCLib/inc\xmc_usic.h **** typedef enum XMC_USIC_CH_DATA_OUTPUT_MODE
 297:C:/Workspace/DAVE-4.4.2-64Bit/xmc1400-getstarted-optiga-trust-m/Libraries/XMCLib/inc\xmc_usic.h **** {
 298:C:/Workspace/DAVE-4.4.2-64Bit/xmc1400-getstarted-optiga-trust-m/Libraries/XMCLib/inc\xmc_usic.h ****   XMC_USIC_CH_DATA_OUTPUT_MODE_NORMAL   = 0x0UL,  /**< Data output normal mode */
 299:C:/Workspace/DAVE-4.4.2-64Bit/xmc1400-getstarted-optiga-trust-m/Libraries/XMCLib/inc\xmc_usic.h ****   XMC_USIC_CH_DATA_OUTPUT_MODE_INVERTED = 0x1UL << USIC_CH_SCTR_DOCFG_Pos   /**< Data output invert
 300:C:/Workspace/DAVE-4.4.2-64Bit/xmc1400-getstarted-optiga-trust-m/Libraries/XMCLib/inc\xmc_usic.h **** } XMC_USIC_CH_DATA_OUTPUT_MODE_t;
 301:C:/Workspace/DAVE-4.4.2-64Bit/xmc1400-getstarted-optiga-trust-m/Libraries/XMCLib/inc\xmc_usic.h **** 
 302:C:/Workspace/DAVE-4.4.2-64Bit/xmc1400-getstarted-optiga-trust-m/Libraries/XMCLib/inc\xmc_usic.h **** /**
 303:C:/Workspace/DAVE-4.4.2-64Bit/xmc1400-getstarted-optiga-trust-m/Libraries/XMCLib/inc\xmc_usic.h **** * USIC channel data transmit buffer status
 304:C:/Workspace/DAVE-4.4.2-64Bit/xmc1400-getstarted-optiga-trust-m/Libraries/XMCLib/inc\xmc_usic.h **** */
 305:C:/Workspace/DAVE-4.4.2-64Bit/xmc1400-getstarted-optiga-trust-m/Libraries/XMCLib/inc\xmc_usic.h **** typedef enum XMC_USIC_CH_TBUF_STATUS
 306:C:/Workspace/DAVE-4.4.2-64Bit/xmc1400-getstarted-optiga-trust-m/Libraries/XMCLib/inc\xmc_usic.h **** {
 307:C:/Workspace/DAVE-4.4.2-64Bit/xmc1400-getstarted-optiga-trust-m/Libraries/XMCLib/inc\xmc_usic.h ****   XMC_USIC_CH_TBUF_STATUS_IDLE = 0x0UL,                 /**< Transfer buffer is currently idle*/
 308:C:/Workspace/DAVE-4.4.2-64Bit/xmc1400-getstarted-optiga-trust-m/Libraries/XMCLib/inc\xmc_usic.h ****   XMC_USIC_CH_TBUF_STATUS_BUSY = USIC_CH_TCSR_TDV_Msk   /**< Transfer buffer is currently busy*/
 309:C:/Workspace/DAVE-4.4.2-64Bit/xmc1400-getstarted-optiga-trust-m/Libraries/XMCLib/inc\xmc_usic.h **** } XMC_USIC_CH_TBUF_STATUS_t;
 310:C:/Workspace/DAVE-4.4.2-64Bit/xmc1400-getstarted-optiga-trust-m/Libraries/XMCLib/inc\xmc_usic.h **** 
 311:C:/Workspace/DAVE-4.4.2-64Bit/xmc1400-getstarted-optiga-trust-m/Libraries/XMCLib/inc\xmc_usic.h **** 
 312:C:/Workspace/DAVE-4.4.2-64Bit/xmc1400-getstarted-optiga-trust-m/Libraries/XMCLib/inc\xmc_usic.h **** 
 313:C:/Workspace/DAVE-4.4.2-64Bit/xmc1400-getstarted-optiga-trust-m/Libraries/XMCLib/inc\xmc_usic.h **** /**
 314:C:/Workspace/DAVE-4.4.2-64Bit/xmc1400-getstarted-optiga-trust-m/Libraries/XMCLib/inc\xmc_usic.h **** * USIC channel data transmit buffer status modification
 315:C:/Workspace/DAVE-4.4.2-64Bit/xmc1400-getstarted-optiga-trust-m/Libraries/XMCLib/inc\xmc_usic.h **** */
 316:C:/Workspace/DAVE-4.4.2-64Bit/xmc1400-getstarted-optiga-trust-m/Libraries/XMCLib/inc\xmc_usic.h **** typedef enum XMC_USIC_CH_TBUF_STATUS_SET
 317:C:/Workspace/DAVE-4.4.2-64Bit/xmc1400-getstarted-optiga-trust-m/Libraries/XMCLib/inc\xmc_usic.h **** {
 318:C:/Workspace/DAVE-4.4.2-64Bit/xmc1400-getstarted-optiga-trust-m/Libraries/XMCLib/inc\xmc_usic.h ****   XMC_USIC_CH_TBUF_STATUS_SET_BUSY   = 0x1UL, /**< Set Transfer buffer status to busy*/
 319:C:/Workspace/DAVE-4.4.2-64Bit/xmc1400-getstarted-optiga-trust-m/Libraries/XMCLib/inc\xmc_usic.h ****   XMC_USIC_CH_TBUF_STATUS_SET_IDLE   = 0x2UL  /**< Set Transfer buffer status to idle*/
 320:C:/Workspace/DAVE-4.4.2-64Bit/xmc1400-getstarted-optiga-trust-m/Libraries/XMCLib/inc\xmc_usic.h **** } XMC_USIC_CH_TBUF_STATUS_SET_t;
 321:C:/Workspace/DAVE-4.4.2-64Bit/xmc1400-getstarted-optiga-trust-m/Libraries/XMCLib/inc\xmc_usic.h **** 
 322:C:/Workspace/DAVE-4.4.2-64Bit/xmc1400-getstarted-optiga-trust-m/Libraries/XMCLib/inc\xmc_usic.h **** /**
 323:C:/Workspace/DAVE-4.4.2-64Bit/xmc1400-getstarted-optiga-trust-m/Libraries/XMCLib/inc\xmc_usic.h **** * USIC channel receive buffer status
 324:C:/Workspace/DAVE-4.4.2-64Bit/xmc1400-getstarted-optiga-trust-m/Libraries/XMCLib/inc\xmc_usic.h **** */
 325:C:/Workspace/DAVE-4.4.2-64Bit/xmc1400-getstarted-optiga-trust-m/Libraries/XMCLib/inc\xmc_usic.h **** typedef enum XMC_USIC_CH_RBUF_STATUS
 326:C:/Workspace/DAVE-4.4.2-64Bit/xmc1400-getstarted-optiga-trust-m/Libraries/XMCLib/inc\xmc_usic.h **** {
 327:C:/Workspace/DAVE-4.4.2-64Bit/xmc1400-getstarted-optiga-trust-m/Libraries/XMCLib/inc\xmc_usic.h ****   XMC_USIC_CH_RBUF_STATUS_DATA_VALID0 = USIC_CH_RBUFSR_RDV0_Msk, /**< RBUF0 data has not yet been r
 328:C:/Workspace/DAVE-4.4.2-64Bit/xmc1400-getstarted-optiga-trust-m/Libraries/XMCLib/inc\xmc_usic.h ****   XMC_USIC_CH_RBUF_STATUS_DATA_VALID1 = USIC_CH_RBUFSR_RDV1_Msk  /**< RBUF1 data has not yet been r
 329:C:/Workspace/DAVE-4.4.2-64Bit/xmc1400-getstarted-optiga-trust-m/Libraries/XMCLib/inc\xmc_usic.h **** } XMC_USIC_CH_RBUF_STATUS_t;
 330:C:/Workspace/DAVE-4.4.2-64Bit/xmc1400-getstarted-optiga-trust-m/Libraries/XMCLib/inc\xmc_usic.h **** 
 331:C:/Workspace/DAVE-4.4.2-64Bit/xmc1400-getstarted-optiga-trust-m/Libraries/XMCLib/inc\xmc_usic.h **** /**
 332:C:/Workspace/DAVE-4.4.2-64Bit/xmc1400-getstarted-optiga-trust-m/Libraries/XMCLib/inc\xmc_usic.h ****  * USIC channel output signal passive data level
 333:C:/Workspace/DAVE-4.4.2-64Bit/xmc1400-getstarted-optiga-trust-m/Libraries/XMCLib/inc\xmc_usic.h **** */
 334:C:/Workspace/DAVE-4.4.2-64Bit/xmc1400-getstarted-optiga-trust-m/Libraries/XMCLib/inc\xmc_usic.h **** typedef enum XMC_USCI_CH_PASSIVE_DATA_LEVEL
 335:C:/Workspace/DAVE-4.4.2-64Bit/xmc1400-getstarted-optiga-trust-m/Libraries/XMCLib/inc\xmc_usic.h **** {
 336:C:/Workspace/DAVE-4.4.2-64Bit/xmc1400-getstarted-optiga-trust-m/Libraries/XMCLib/inc\xmc_usic.h ****   XMC_USIC_CH_PASSIVE_DATA_LEVEL0 = 0x0UL, /**< Passive level(idle mode signal level) 0 */
 337:C:/Workspace/DAVE-4.4.2-64Bit/xmc1400-getstarted-optiga-trust-m/Libraries/XMCLib/inc\xmc_usic.h ****   XMC_USIC_CH_PASSIVE_DATA_LEVEL1 = 0x1UL << USIC_CH_SCTR_PDL_Pos  /**< Passive level(idle mode sig
 338:C:/Workspace/DAVE-4.4.2-64Bit/xmc1400-getstarted-optiga-trust-m/Libraries/XMCLib/inc\xmc_usic.h **** } XMC_USIC_CH_PASSIVE_DATA_LEVEL_t;
 339:C:/Workspace/DAVE-4.4.2-64Bit/xmc1400-getstarted-optiga-trust-m/Libraries/XMCLib/inc\xmc_usic.h **** 
 340:C:/Workspace/DAVE-4.4.2-64Bit/xmc1400-getstarted-optiga-trust-m/Libraries/XMCLib/inc\xmc_usic.h **** /**
 341:C:/Workspace/DAVE-4.4.2-64Bit/xmc1400-getstarted-optiga-trust-m/Libraries/XMCLib/inc\xmc_usic.h **** * USIC channel receive FIFO size
 342:C:/Workspace/DAVE-4.4.2-64Bit/xmc1400-getstarted-optiga-trust-m/Libraries/XMCLib/inc\xmc_usic.h **** */
 343:C:/Workspace/DAVE-4.4.2-64Bit/xmc1400-getstarted-optiga-trust-m/Libraries/XMCLib/inc\xmc_usic.h **** typedef enum XMC_USIC_CH_FIFO_SIZE
 344:C:/Workspace/DAVE-4.4.2-64Bit/xmc1400-getstarted-optiga-trust-m/Libraries/XMCLib/inc\xmc_usic.h **** {
 345:C:/Workspace/DAVE-4.4.2-64Bit/xmc1400-getstarted-optiga-trust-m/Libraries/XMCLib/inc\xmc_usic.h ****   XMC_USIC_CH_FIFO_DISABLED     = 0x0U,  /**< FIFO Disabled */
 346:C:/Workspace/DAVE-4.4.2-64Bit/xmc1400-getstarted-optiga-trust-m/Libraries/XMCLib/inc\xmc_usic.h ****   XMC_USIC_CH_FIFO_SIZE_2WORDS  = 0x1U,  /**< FIFO size: 2 words */
 347:C:/Workspace/DAVE-4.4.2-64Bit/xmc1400-getstarted-optiga-trust-m/Libraries/XMCLib/inc\xmc_usic.h ****   XMC_USIC_CH_FIFO_SIZE_4WORDS  = 0x2U,  /**< FIFO size: 4 words */
 348:C:/Workspace/DAVE-4.4.2-64Bit/xmc1400-getstarted-optiga-trust-m/Libraries/XMCLib/inc\xmc_usic.h ****   XMC_USIC_CH_FIFO_SIZE_8WORDS  = 0x3U,  /**< FIFO size: 8 words */
 349:C:/Workspace/DAVE-4.4.2-64Bit/xmc1400-getstarted-optiga-trust-m/Libraries/XMCLib/inc\xmc_usic.h ****   XMC_USIC_CH_FIFO_SIZE_16WORDS = 0x4U,  /**< FIFO size: 16 words */
 350:C:/Workspace/DAVE-4.4.2-64Bit/xmc1400-getstarted-optiga-trust-m/Libraries/XMCLib/inc\xmc_usic.h ****   XMC_USIC_CH_FIFO_SIZE_32WORDS = 0x5U,  /**< FIFO size: 32 words */
 351:C:/Workspace/DAVE-4.4.2-64Bit/xmc1400-getstarted-optiga-trust-m/Libraries/XMCLib/inc\xmc_usic.h ****   XMC_USIC_CH_FIFO_SIZE_64WORDS = 0x6U   /**< FIFO size: 64 words */
 352:C:/Workspace/DAVE-4.4.2-64Bit/xmc1400-getstarted-optiga-trust-m/Libraries/XMCLib/inc\xmc_usic.h **** } XMC_USIC_CH_FIFO_SIZE_t;
 353:C:/Workspace/DAVE-4.4.2-64Bit/xmc1400-getstarted-optiga-trust-m/Libraries/XMCLib/inc\xmc_usic.h **** 
 354:C:/Workspace/DAVE-4.4.2-64Bit/xmc1400-getstarted-optiga-trust-m/Libraries/XMCLib/inc\xmc_usic.h **** /**
 355:C:/Workspace/DAVE-4.4.2-64Bit/xmc1400-getstarted-optiga-trust-m/Libraries/XMCLib/inc\xmc_usic.h **** * USIC channel transmit FIFO interrupt node pointers
 356:C:/Workspace/DAVE-4.4.2-64Bit/xmc1400-getstarted-optiga-trust-m/Libraries/XMCLib/inc\xmc_usic.h **** */
 357:C:/Workspace/DAVE-4.4.2-64Bit/xmc1400-getstarted-optiga-trust-m/Libraries/XMCLib/inc\xmc_usic.h **** typedef enum XMC_USIC_CH_TXFIFO_INTERRUPT_NODE_POINTER
 358:C:/Workspace/DAVE-4.4.2-64Bit/xmc1400-getstarted-optiga-trust-m/Libraries/XMCLib/inc\xmc_usic.h **** {
 359:C:/Workspace/DAVE-4.4.2-64Bit/xmc1400-getstarted-optiga-trust-m/Libraries/XMCLib/inc\xmc_usic.h ****   XMC_USIC_CH_TXFIFO_INTERRUPT_NODE_POINTER_STANDARD  = USIC_CH_TBCTR_STBINP_Pos,  /**< Node pointe
 360:C:/Workspace/DAVE-4.4.2-64Bit/xmc1400-getstarted-optiga-trust-m/Libraries/XMCLib/inc\xmc_usic.h ****   XMC_USIC_CH_TXFIFO_INTERRUPT_NODE_POINTER_ALTERNATE = USIC_CH_TBCTR_ATBINP_Pos   /**< Node pointe
 361:C:/Workspace/DAVE-4.4.2-64Bit/xmc1400-getstarted-optiga-trust-m/Libraries/XMCLib/inc\xmc_usic.h **** } XMC_USIC_CH_TXFIFO_INTERRUPT_NODE_POINTER_t;
 362:C:/Workspace/DAVE-4.4.2-64Bit/xmc1400-getstarted-optiga-trust-m/Libraries/XMCLib/inc\xmc_usic.h **** 
 363:C:/Workspace/DAVE-4.4.2-64Bit/xmc1400-getstarted-optiga-trust-m/Libraries/XMCLib/inc\xmc_usic.h **** /**
 364:C:/Workspace/DAVE-4.4.2-64Bit/xmc1400-getstarted-optiga-trust-m/Libraries/XMCLib/inc\xmc_usic.h **** * USIC channel transmit FIFO event configuration
 365:C:/Workspace/DAVE-4.4.2-64Bit/xmc1400-getstarted-optiga-trust-m/Libraries/XMCLib/inc\xmc_usic.h **** */
 366:C:/Workspace/DAVE-4.4.2-64Bit/xmc1400-getstarted-optiga-trust-m/Libraries/XMCLib/inc\xmc_usic.h **** typedef enum XMC_USIC_CH_TXFIFO_EVENT_CONF
 367:C:/Workspace/DAVE-4.4.2-64Bit/xmc1400-getstarted-optiga-trust-m/Libraries/XMCLib/inc\xmc_usic.h **** {
 368:C:/Workspace/DAVE-4.4.2-64Bit/xmc1400-getstarted-optiga-trust-m/Libraries/XMCLib/inc\xmc_usic.h ****   XMC_USIC_CH_TXFIFO_EVENT_CONF_STANDARD  = USIC_CH_TBCTR_STBIEN_Msk,   /**< Enable FIFO standard t
 369:C:/Workspace/DAVE-4.4.2-64Bit/xmc1400-getstarted-optiga-trust-m/Libraries/XMCLib/inc\xmc_usic.h ****   XMC_USIC_CH_TXFIFO_EVENT_CONF_ERROR     = (int32_t)USIC_CH_TBCTR_TBERIEN_Msk  /**< Enable transmi
 370:C:/Workspace/DAVE-4.4.2-64Bit/xmc1400-getstarted-optiga-trust-m/Libraries/XMCLib/inc\xmc_usic.h **** } XMC_USIC_CH_TXFIFO_EVENT_CONF_t;
 371:C:/Workspace/DAVE-4.4.2-64Bit/xmc1400-getstarted-optiga-trust-m/Libraries/XMCLib/inc\xmc_usic.h **** 
 372:C:/Workspace/DAVE-4.4.2-64Bit/xmc1400-getstarted-optiga-trust-m/Libraries/XMCLib/inc\xmc_usic.h **** /**
 373:C:/Workspace/DAVE-4.4.2-64Bit/xmc1400-getstarted-optiga-trust-m/Libraries/XMCLib/inc\xmc_usic.h **** * USIC channel transmit FIFO status
 374:C:/Workspace/DAVE-4.4.2-64Bit/xmc1400-getstarted-optiga-trust-m/Libraries/XMCLib/inc\xmc_usic.h **** */
 375:C:/Workspace/DAVE-4.4.2-64Bit/xmc1400-getstarted-optiga-trust-m/Libraries/XMCLib/inc\xmc_usic.h **** typedef enum XMC_USIC_CH_TXFIFO_EVENT
 376:C:/Workspace/DAVE-4.4.2-64Bit/xmc1400-getstarted-optiga-trust-m/Libraries/XMCLib/inc\xmc_usic.h **** {
 377:C:/Workspace/DAVE-4.4.2-64Bit/xmc1400-getstarted-optiga-trust-m/Libraries/XMCLib/inc\xmc_usic.h ****   XMC_USIC_CH_TXFIFO_EVENT_STANDARD = USIC_CH_TRBSR_STBI_Msk,    /**< Transmit FIFO status: Standar
 378:C:/Workspace/DAVE-4.4.2-64Bit/xmc1400-getstarted-optiga-trust-m/Libraries/XMCLib/inc\xmc_usic.h ****   XMC_USIC_CH_TXFIFO_EVENT_ERROR    = USIC_CH_TRBSR_TBERI_Msk    /**< Transmit FIFO status: Error e
 379:C:/Workspace/DAVE-4.4.2-64Bit/xmc1400-getstarted-optiga-trust-m/Libraries/XMCLib/inc\xmc_usic.h **** } XMC_USIC_CH_TXFIFO_EVENT_t;
 380:C:/Workspace/DAVE-4.4.2-64Bit/xmc1400-getstarted-optiga-trust-m/Libraries/XMCLib/inc\xmc_usic.h **** 
 381:C:/Workspace/DAVE-4.4.2-64Bit/xmc1400-getstarted-optiga-trust-m/Libraries/XMCLib/inc\xmc_usic.h **** /**
 382:C:/Workspace/DAVE-4.4.2-64Bit/xmc1400-getstarted-optiga-trust-m/Libraries/XMCLib/inc\xmc_usic.h **** * USIC channel receive FIFO interrupt node pointers
 383:C:/Workspace/DAVE-4.4.2-64Bit/xmc1400-getstarted-optiga-trust-m/Libraries/XMCLib/inc\xmc_usic.h **** */
 384:C:/Workspace/DAVE-4.4.2-64Bit/xmc1400-getstarted-optiga-trust-m/Libraries/XMCLib/inc\xmc_usic.h **** typedef enum XMC_USIC_CH_RXFIFO_INTERRUPT_NODE_POINTER
 385:C:/Workspace/DAVE-4.4.2-64Bit/xmc1400-getstarted-optiga-trust-m/Libraries/XMCLib/inc\xmc_usic.h **** {
 386:C:/Workspace/DAVE-4.4.2-64Bit/xmc1400-getstarted-optiga-trust-m/Libraries/XMCLib/inc\xmc_usic.h ****   XMC_USIC_CH_RXFIFO_INTERRUPT_NODE_POINTER_STANDARD  = USIC_CH_RBCTR_SRBINP_Pos, /**< Node pointer
 387:C:/Workspace/DAVE-4.4.2-64Bit/xmc1400-getstarted-optiga-trust-m/Libraries/XMCLib/inc\xmc_usic.h ****   XMC_USIC_CH_RXFIFO_INTERRUPT_NODE_POINTER_ALTERNATE = USIC_CH_RBCTR_ARBINP_Pos  /**< Node pointer
 388:C:/Workspace/DAVE-4.4.2-64Bit/xmc1400-getstarted-optiga-trust-m/Libraries/XMCLib/inc\xmc_usic.h **** } XMC_USIC_CH_RXFIFO_INTERRUPT_NODE_POINTER_t;
 389:C:/Workspace/DAVE-4.4.2-64Bit/xmc1400-getstarted-optiga-trust-m/Libraries/XMCLib/inc\xmc_usic.h **** 
 390:C:/Workspace/DAVE-4.4.2-64Bit/xmc1400-getstarted-optiga-trust-m/Libraries/XMCLib/inc\xmc_usic.h **** /**
 391:C:/Workspace/DAVE-4.4.2-64Bit/xmc1400-getstarted-optiga-trust-m/Libraries/XMCLib/inc\xmc_usic.h **** * USIC channel receive FIFO event configuration
 392:C:/Workspace/DAVE-4.4.2-64Bit/xmc1400-getstarted-optiga-trust-m/Libraries/XMCLib/inc\xmc_usic.h **** */
 393:C:/Workspace/DAVE-4.4.2-64Bit/xmc1400-getstarted-optiga-trust-m/Libraries/XMCLib/inc\xmc_usic.h **** typedef enum XMC_USIC_CH_RXFIFO_EVENT_CONF
 394:C:/Workspace/DAVE-4.4.2-64Bit/xmc1400-getstarted-optiga-trust-m/Libraries/XMCLib/inc\xmc_usic.h **** {
 395:C:/Workspace/DAVE-4.4.2-64Bit/xmc1400-getstarted-optiga-trust-m/Libraries/XMCLib/inc\xmc_usic.h ****   XMC_USIC_CH_RXFIFO_EVENT_CONF_STANDARD  = USIC_CH_RBCTR_SRBIEN_Msk,   /**< Enable FIFO standard r
 396:C:/Workspace/DAVE-4.4.2-64Bit/xmc1400-getstarted-optiga-trust-m/Libraries/XMCLib/inc\xmc_usic.h ****   XMC_USIC_CH_RXFIFO_EVENT_CONF_ERROR     = (int32_t)USIC_CH_RBCTR_RBERIEN_Msk,  /**< Enable receiv
 397:C:/Workspace/DAVE-4.4.2-64Bit/xmc1400-getstarted-optiga-trust-m/Libraries/XMCLib/inc\xmc_usic.h ****   XMC_USIC_CH_RXFIFO_EVENT_CONF_ALTERNATE = USIC_CH_RBCTR_ARBIEN_Msk   /**< Enable FIFO alternative
 398:C:/Workspace/DAVE-4.4.2-64Bit/xmc1400-getstarted-optiga-trust-m/Libraries/XMCLib/inc\xmc_usic.h **** } XMC_USIC_CH_RXFIFO_EVENT_CONF_t;
 399:C:/Workspace/DAVE-4.4.2-64Bit/xmc1400-getstarted-optiga-trust-m/Libraries/XMCLib/inc\xmc_usic.h **** 
 400:C:/Workspace/DAVE-4.4.2-64Bit/xmc1400-getstarted-optiga-trust-m/Libraries/XMCLib/inc\xmc_usic.h **** /**
 401:C:/Workspace/DAVE-4.4.2-64Bit/xmc1400-getstarted-optiga-trust-m/Libraries/XMCLib/inc\xmc_usic.h **** * USIC channel receive FIFO status
 402:C:/Workspace/DAVE-4.4.2-64Bit/xmc1400-getstarted-optiga-trust-m/Libraries/XMCLib/inc\xmc_usic.h **** */
 403:C:/Workspace/DAVE-4.4.2-64Bit/xmc1400-getstarted-optiga-trust-m/Libraries/XMCLib/inc\xmc_usic.h **** typedef enum XMC_USIC_CH_RXFIFO_EVENT
 404:C:/Workspace/DAVE-4.4.2-64Bit/xmc1400-getstarted-optiga-trust-m/Libraries/XMCLib/inc\xmc_usic.h **** {
 405:C:/Workspace/DAVE-4.4.2-64Bit/xmc1400-getstarted-optiga-trust-m/Libraries/XMCLib/inc\xmc_usic.h ****   XMC_USIC_CH_RXFIFO_EVENT_STANDARD  = USIC_CH_TRBSR_SRBI_Msk,   /**< Receive FIFO status: Standard
 406:C:/Workspace/DAVE-4.4.2-64Bit/xmc1400-getstarted-optiga-trust-m/Libraries/XMCLib/inc\xmc_usic.h ****   XMC_USIC_CH_RXFIFO_EVENT_ERROR     = USIC_CH_TRBSR_RBERI_Msk,  /**< Receive FIFO status: Error ev
 407:C:/Workspace/DAVE-4.4.2-64Bit/xmc1400-getstarted-optiga-trust-m/Libraries/XMCLib/inc\xmc_usic.h ****   XMC_USIC_CH_RXFIFO_EVENT_ALTERNATE = USIC_CH_TRBSR_ARBI_Msk    /**< Receive FIFO status: Alternat
 408:C:/Workspace/DAVE-4.4.2-64Bit/xmc1400-getstarted-optiga-trust-m/Libraries/XMCLib/inc\xmc_usic.h **** } XMC_USIC_CH_RXFIFO_EVENT_t;
 409:C:/Workspace/DAVE-4.4.2-64Bit/xmc1400-getstarted-optiga-trust-m/Libraries/XMCLib/inc\xmc_usic.h **** 
 410:C:/Workspace/DAVE-4.4.2-64Bit/xmc1400-getstarted-optiga-trust-m/Libraries/XMCLib/inc\xmc_usic.h **** /**
 411:C:/Workspace/DAVE-4.4.2-64Bit/xmc1400-getstarted-optiga-trust-m/Libraries/XMCLib/inc\xmc_usic.h **** * USIC channel baudrate generator clock source
 412:C:/Workspace/DAVE-4.4.2-64Bit/xmc1400-getstarted-optiga-trust-m/Libraries/XMCLib/inc\xmc_usic.h **** */
 413:C:/Workspace/DAVE-4.4.2-64Bit/xmc1400-getstarted-optiga-trust-m/Libraries/XMCLib/inc\xmc_usic.h **** typedef enum XMC_USIC_CH_BRG_CLOCK_SOURCE
 414:C:/Workspace/DAVE-4.4.2-64Bit/xmc1400-getstarted-optiga-trust-m/Libraries/XMCLib/inc\xmc_usic.h **** {
 415:C:/Workspace/DAVE-4.4.2-64Bit/xmc1400-getstarted-optiga-trust-m/Libraries/XMCLib/inc\xmc_usic.h ****   XMC_USIC_CH_BRG_CLOCK_SOURCE_DIVIDER = 0x0UL, /**< Baudrate generator clock source : Source divid
 416:C:/Workspace/DAVE-4.4.2-64Bit/xmc1400-getstarted-optiga-trust-m/Libraries/XMCLib/inc\xmc_usic.h ****   XMC_USIC_CH_BRG_CLOCK_SOURCE_DX1T    = 0x2UL << USIC_CH_BRG_CLKSEL_Pos  /**< Baudrate generator c
 417:C:/Workspace/DAVE-4.4.2-64Bit/xmc1400-getstarted-optiga-trust-m/Libraries/XMCLib/inc\xmc_usic.h **** } XMC_USIC_CH_BRG_CLOCK_SOURCE_t;
 418:C:/Workspace/DAVE-4.4.2-64Bit/xmc1400-getstarted-optiga-trust-m/Libraries/XMCLib/inc\xmc_usic.h **** 
 419:C:/Workspace/DAVE-4.4.2-64Bit/xmc1400-getstarted-optiga-trust-m/Libraries/XMCLib/inc\xmc_usic.h **** /**
 420:C:/Workspace/DAVE-4.4.2-64Bit/xmc1400-getstarted-optiga-trust-m/Libraries/XMCLib/inc\xmc_usic.h **** * USIC channel baudrate generator divider mode
 421:C:/Workspace/DAVE-4.4.2-64Bit/xmc1400-getstarted-optiga-trust-m/Libraries/XMCLib/inc\xmc_usic.h **** */
 422:C:/Workspace/DAVE-4.4.2-64Bit/xmc1400-getstarted-optiga-trust-m/Libraries/XMCLib/inc\xmc_usic.h **** typedef enum XMC_USIC_CH_BRG_CLOCK_DIVIDER_MODE
 423:C:/Workspace/DAVE-4.4.2-64Bit/xmc1400-getstarted-optiga-trust-m/Libraries/XMCLib/inc\xmc_usic.h **** {
 424:C:/Workspace/DAVE-4.4.2-64Bit/xmc1400-getstarted-optiga-trust-m/Libraries/XMCLib/inc\xmc_usic.h ****   XMC_USIC_CH_BRG_CLOCK_DIVIDER_MODE_DISABLED   = 0x0UL, /**< Baudrate generator clock divider: Dis
 425:C:/Workspace/DAVE-4.4.2-64Bit/xmc1400-getstarted-optiga-trust-m/Libraries/XMCLib/inc\xmc_usic.h ****   XMC_USIC_CH_BRG_CLOCK_DIVIDER_MODE_NORMAL     = 0x1UL << USIC_CH_FDR_DM_Pos, /**< Baudrate genera
 426:C:/Workspace/DAVE-4.4.2-64Bit/xmc1400-getstarted-optiga-trust-m/Libraries/XMCLib/inc\xmc_usic.h ****   XMC_USIC_CH_BRG_CLOCK_DIVIDER_MODE_FRACTIONAL = 0x2UL << USIC_CH_FDR_DM_Pos  /**< Baudrate genera
 427:C:/Workspace/DAVE-4.4.2-64Bit/xmc1400-getstarted-optiga-trust-m/Libraries/XMCLib/inc\xmc_usic.h **** } XMC_USIC_CH_BRG_CLOCK_DIVIDER_MODE_t;
 428:C:/Workspace/DAVE-4.4.2-64Bit/xmc1400-getstarted-optiga-trust-m/Libraries/XMCLib/inc\xmc_usic.h **** 
 429:C:/Workspace/DAVE-4.4.2-64Bit/xmc1400-getstarted-optiga-trust-m/Libraries/XMCLib/inc\xmc_usic.h **** /**
 430:C:/Workspace/DAVE-4.4.2-64Bit/xmc1400-getstarted-optiga-trust-m/Libraries/XMCLib/inc\xmc_usic.h **** * USIC channel baudrate generator master clock passive level
 431:C:/Workspace/DAVE-4.4.2-64Bit/xmc1400-getstarted-optiga-trust-m/Libraries/XMCLib/inc\xmc_usic.h **** */
 432:C:/Workspace/DAVE-4.4.2-64Bit/xmc1400-getstarted-optiga-trust-m/Libraries/XMCLib/inc\xmc_usic.h **** typedef enum XMC_USIC_CH_BRG_MASTER_CLOCK_PASSIVE_LEVEL
 433:C:/Workspace/DAVE-4.4.2-64Bit/xmc1400-getstarted-optiga-trust-m/Libraries/XMCLib/inc\xmc_usic.h **** {
 434:C:/Workspace/DAVE-4.4.2-64Bit/xmc1400-getstarted-optiga-trust-m/Libraries/XMCLib/inc\xmc_usic.h ****   XMC_USIC_CH_BRG_MASTER_CLOCK_PASSIVE_LEVEL_0 = 0x0UL, /**< Baudrate generator master clock passiv
 435:C:/Workspace/DAVE-4.4.2-64Bit/xmc1400-getstarted-optiga-trust-m/Libraries/XMCLib/inc\xmc_usic.h ****   XMC_USIC_CH_BRG_MASTER_CLOCK_PASSIVE_LEVEL_1 = 0x1UL << USIC_CH_BRG_MCLKCFG_Pos  /**< Baudrate ge
 436:C:/Workspace/DAVE-4.4.2-64Bit/xmc1400-getstarted-optiga-trust-m/Libraries/XMCLib/inc\xmc_usic.h **** } XMC_USIC_CH_BRG_MASTER_CLOCK_PASSIVE_LEVEL_t;
 437:C:/Workspace/DAVE-4.4.2-64Bit/xmc1400-getstarted-optiga-trust-m/Libraries/XMCLib/inc\xmc_usic.h **** 
 438:C:/Workspace/DAVE-4.4.2-64Bit/xmc1400-getstarted-optiga-trust-m/Libraries/XMCLib/inc\xmc_usic.h **** /**
 439:C:/Workspace/DAVE-4.4.2-64Bit/xmc1400-getstarted-optiga-trust-m/Libraries/XMCLib/inc\xmc_usic.h **** * USIC channel baudrate generator shift clock passive level
 440:C:/Workspace/DAVE-4.4.2-64Bit/xmc1400-getstarted-optiga-trust-m/Libraries/XMCLib/inc\xmc_usic.h **** */
 441:C:/Workspace/DAVE-4.4.2-64Bit/xmc1400-getstarted-optiga-trust-m/Libraries/XMCLib/inc\xmc_usic.h **** typedef enum XMC_USIC_CH_BRG_SHIFT_CLOCK_PASSIVE_LEVEL
 442:C:/Workspace/DAVE-4.4.2-64Bit/xmc1400-getstarted-optiga-trust-m/Libraries/XMCLib/inc\xmc_usic.h **** {
 443:C:/Workspace/DAVE-4.4.2-64Bit/xmc1400-getstarted-optiga-trust-m/Libraries/XMCLib/inc\xmc_usic.h ****   XMC_USIC_CH_BRG_SHIFT_CLOCK_PASSIVE_LEVEL_0_DELAY_DISABLED = 0x0UL, /**< Shift clock passive leve
 444:C:/Workspace/DAVE-4.4.2-64Bit/xmc1400-getstarted-optiga-trust-m/Libraries/XMCLib/inc\xmc_usic.h ****   XMC_USIC_CH_BRG_SHIFT_CLOCK_PASSIVE_LEVEL_1_DELAY_DISABLED = 0x1UL << USIC_CH_BRG_SCLKCFG_Pos, /*
 445:C:/Workspace/DAVE-4.4.2-64Bit/xmc1400-getstarted-optiga-trust-m/Libraries/XMCLib/inc\xmc_usic.h ****   XMC_USIC_CH_BRG_SHIFT_CLOCK_PASSIVE_LEVEL_0_DELAY_ENABLED  = (int32_t)(0x2UL << USIC_CH_BRG_SCLKC
 446:C:/Workspace/DAVE-4.4.2-64Bit/xmc1400-getstarted-optiga-trust-m/Libraries/XMCLib/inc\xmc_usic.h ****   XMC_USIC_CH_BRG_SHIFT_CLOCK_PASSIVE_LEVEL_1_DELAY_ENABLED  = (int32_t)(0x3UL << USIC_CH_BRG_SCLKC
 447:C:/Workspace/DAVE-4.4.2-64Bit/xmc1400-getstarted-optiga-trust-m/Libraries/XMCLib/inc\xmc_usic.h **** } XMC_USIC_CH_BRG_SHIFT_CLOCK_PASSIVE_LEVEL_t;
 448:C:/Workspace/DAVE-4.4.2-64Bit/xmc1400-getstarted-optiga-trust-m/Libraries/XMCLib/inc\xmc_usic.h **** 
 449:C:/Workspace/DAVE-4.4.2-64Bit/xmc1400-getstarted-optiga-trust-m/Libraries/XMCLib/inc\xmc_usic.h **** /**
 450:C:/Workspace/DAVE-4.4.2-64Bit/xmc1400-getstarted-optiga-trust-m/Libraries/XMCLib/inc\xmc_usic.h **** * USIC channel baudrate generator shift clock output
 451:C:/Workspace/DAVE-4.4.2-64Bit/xmc1400-getstarted-optiga-trust-m/Libraries/XMCLib/inc\xmc_usic.h **** */
 452:C:/Workspace/DAVE-4.4.2-64Bit/xmc1400-getstarted-optiga-trust-m/Libraries/XMCLib/inc\xmc_usic.h **** typedef enum XMC_USIC_CH_BRG_SHIFT_CLOCK_OUTPUT
 453:C:/Workspace/DAVE-4.4.2-64Bit/xmc1400-getstarted-optiga-trust-m/Libraries/XMCLib/inc\xmc_usic.h **** {
 454:C:/Workspace/DAVE-4.4.2-64Bit/xmc1400-getstarted-optiga-trust-m/Libraries/XMCLib/inc\xmc_usic.h ****   XMC_USIC_CH_BRG_SHIFT_CLOCK_OUTPUT_SCLK = 0x0UL, /**< Baudrate generator shift clock output: SCL.
 455:C:/Workspace/DAVE-4.4.2-64Bit/xmc1400-getstarted-optiga-trust-m/Libraries/XMCLib/inc\xmc_usic.h ****   XMC_USIC_CH_BRG_SHIFT_CLOCK_OUTPUT_DX1 = 0x1UL << USIC_CH_BRG_SCLKOSEL_Pos   /**< Baudrate genera
 456:C:/Workspace/DAVE-4.4.2-64Bit/xmc1400-getstarted-optiga-trust-m/Libraries/XMCLib/inc\xmc_usic.h **** } XMC_USIC_CH_BRG_SHIFT_CLOCK_OUTPUT_t;
 457:C:/Workspace/DAVE-4.4.2-64Bit/xmc1400-getstarted-optiga-trust-m/Libraries/XMCLib/inc\xmc_usic.h **** 
 458:C:/Workspace/DAVE-4.4.2-64Bit/xmc1400-getstarted-optiga-trust-m/Libraries/XMCLib/inc\xmc_usic.h **** /**
 459:C:/Workspace/DAVE-4.4.2-64Bit/xmc1400-getstarted-optiga-trust-m/Libraries/XMCLib/inc\xmc_usic.h **** * USIC channel shift direction.
 460:C:/Workspace/DAVE-4.4.2-64Bit/xmc1400-getstarted-optiga-trust-m/Libraries/XMCLib/inc\xmc_usic.h **** * Defines the shift direction of the data words for transmission and reception
 461:C:/Workspace/DAVE-4.4.2-64Bit/xmc1400-getstarted-optiga-trust-m/Libraries/XMCLib/inc\xmc_usic.h **** */
 462:C:/Workspace/DAVE-4.4.2-64Bit/xmc1400-getstarted-optiga-trust-m/Libraries/XMCLib/inc\xmc_usic.h **** typedef enum XMC_USIC_CH_SHIFT_DIRECTION
 463:C:/Workspace/DAVE-4.4.2-64Bit/xmc1400-getstarted-optiga-trust-m/Libraries/XMCLib/inc\xmc_usic.h **** {
 464:C:/Workspace/DAVE-4.4.2-64Bit/xmc1400-getstarted-optiga-trust-m/Libraries/XMCLib/inc\xmc_usic.h ****   XMC_USIC_CH_SHIFT_DIRECTION_LSB_FIRST = 0x0UL, /**< Shift LSB first. The first data bit of a data
 465:C:/Workspace/DAVE-4.4.2-64Bit/xmc1400-getstarted-optiga-trust-m/Libraries/XMCLib/inc\xmc_usic.h ****   XMC_USIC_CH_SHIFT_DIRECTION_MSB_FIRST = 0x1UL << USIC_CH_SCTR_SDIR_Pos /**< Shift MSB first. The 
 466:C:/Workspace/DAVE-4.4.2-64Bit/xmc1400-getstarted-optiga-trust-m/Libraries/XMCLib/inc\xmc_usic.h **** } XMC_USIC_CH_SHIFT_DIRECTION_t;
 467:C:/Workspace/DAVE-4.4.2-64Bit/xmc1400-getstarted-optiga-trust-m/Libraries/XMCLib/inc\xmc_usic.h **** 
 468:C:/Workspace/DAVE-4.4.2-64Bit/xmc1400-getstarted-optiga-trust-m/Libraries/XMCLib/inc\xmc_usic.h **** 
 469:C:/Workspace/DAVE-4.4.2-64Bit/xmc1400-getstarted-optiga-trust-m/Libraries/XMCLib/inc\xmc_usic.h **** /*******************************************************************************
 470:C:/Workspace/DAVE-4.4.2-64Bit/xmc1400-getstarted-optiga-trust-m/Libraries/XMCLib/inc\xmc_usic.h ****  * DATA STRUCTURES
 471:C:/Workspace/DAVE-4.4.2-64Bit/xmc1400-getstarted-optiga-trust-m/Libraries/XMCLib/inc\xmc_usic.h ****  *******************************************************************************/
 472:C:/Workspace/DAVE-4.4.2-64Bit/xmc1400-getstarted-optiga-trust-m/Libraries/XMCLib/inc\xmc_usic.h **** 
 473:C:/Workspace/DAVE-4.4.2-64Bit/xmc1400-getstarted-optiga-trust-m/Libraries/XMCLib/inc\xmc_usic.h **** /*Anonymous structure/union guard start*/
 474:C:/Workspace/DAVE-4.4.2-64Bit/xmc1400-getstarted-optiga-trust-m/Libraries/XMCLib/inc\xmc_usic.h **** #if defined(__CC_ARM)
 475:C:/Workspace/DAVE-4.4.2-64Bit/xmc1400-getstarted-optiga-trust-m/Libraries/XMCLib/inc\xmc_usic.h ****   #pragma push
 476:C:/Workspace/DAVE-4.4.2-64Bit/xmc1400-getstarted-optiga-trust-m/Libraries/XMCLib/inc\xmc_usic.h ****   #pragma anon_unions
 477:C:/Workspace/DAVE-4.4.2-64Bit/xmc1400-getstarted-optiga-trust-m/Libraries/XMCLib/inc\xmc_usic.h **** #elif defined(__TASKING__)
 478:C:/Workspace/DAVE-4.4.2-64Bit/xmc1400-getstarted-optiga-trust-m/Libraries/XMCLib/inc\xmc_usic.h ****   #pragma warning 586
 479:C:/Workspace/DAVE-4.4.2-64Bit/xmc1400-getstarted-optiga-trust-m/Libraries/XMCLib/inc\xmc_usic.h **** #endif
 480:C:/Workspace/DAVE-4.4.2-64Bit/xmc1400-getstarted-optiga-trust-m/Libraries/XMCLib/inc\xmc_usic.h **** 
 481:C:/Workspace/DAVE-4.4.2-64Bit/xmc1400-getstarted-optiga-trust-m/Libraries/XMCLib/inc\xmc_usic.h **** /**
 482:C:/Workspace/DAVE-4.4.2-64Bit/xmc1400-getstarted-optiga-trust-m/Libraries/XMCLib/inc\xmc_usic.h ****  * USIC module structure
 483:C:/Workspace/DAVE-4.4.2-64Bit/xmc1400-getstarted-optiga-trust-m/Libraries/XMCLib/inc\xmc_usic.h ****  */
 484:C:/Workspace/DAVE-4.4.2-64Bit/xmc1400-getstarted-optiga-trust-m/Libraries/XMCLib/inc\xmc_usic.h **** typedef USIC_GLOBAL_TypeDef XMC_USIC_t;
 485:C:/Workspace/DAVE-4.4.2-64Bit/xmc1400-getstarted-optiga-trust-m/Libraries/XMCLib/inc\xmc_usic.h **** 
 486:C:/Workspace/DAVE-4.4.2-64Bit/xmc1400-getstarted-optiga-trust-m/Libraries/XMCLib/inc\xmc_usic.h **** /**
 487:C:/Workspace/DAVE-4.4.2-64Bit/xmc1400-getstarted-optiga-trust-m/Libraries/XMCLib/inc\xmc_usic.h ****  * USIC channel structure.<br> The members of the structure are same as in the device header file, 
 488:C:/Workspace/DAVE-4.4.2-64Bit/xmc1400-getstarted-optiga-trust-m/Libraries/XMCLib/inc\xmc_usic.h ****  * except for some registers.
 489:C:/Workspace/DAVE-4.4.2-64Bit/xmc1400-getstarted-optiga-trust-m/Libraries/XMCLib/inc\xmc_usic.h ****  * DX0CR, DX1CR, DX2CR, DX3CR, DX4CR and DX5CR are replaced with the array DXCR[6].
 490:C:/Workspace/DAVE-4.4.2-64Bit/xmc1400-getstarted-optiga-trust-m/Libraries/XMCLib/inc\xmc_usic.h ****  * TBUF0 to TBUF31 are replaced with TBUF[32].
 491:C:/Workspace/DAVE-4.4.2-64Bit/xmc1400-getstarted-optiga-trust-m/Libraries/XMCLib/inc\xmc_usic.h ****  * IN0 to IN31 are replaced with IN[32].
 492:C:/Workspace/DAVE-4.4.2-64Bit/xmc1400-getstarted-optiga-trust-m/Libraries/XMCLib/inc\xmc_usic.h ****  */
 493:C:/Workspace/DAVE-4.4.2-64Bit/xmc1400-getstarted-optiga-trust-m/Libraries/XMCLib/inc\xmc_usic.h **** typedef struct XMC_USIC_CH
 494:C:/Workspace/DAVE-4.4.2-64Bit/xmc1400-getstarted-optiga-trust-m/Libraries/XMCLib/inc\xmc_usic.h **** {
 495:C:/Workspace/DAVE-4.4.2-64Bit/xmc1400-getstarted-optiga-trust-m/Libraries/XMCLib/inc\xmc_usic.h ****   __I  uint32_t  RESERVED0;
 496:C:/Workspace/DAVE-4.4.2-64Bit/xmc1400-getstarted-optiga-trust-m/Libraries/XMCLib/inc\xmc_usic.h ****   __I  uint32_t  CCFG;			/**< Channel configuration register*/
 497:C:/Workspace/DAVE-4.4.2-64Bit/xmc1400-getstarted-optiga-trust-m/Libraries/XMCLib/inc\xmc_usic.h ****   __I  uint32_t  RESERVED1;
 498:C:/Workspace/DAVE-4.4.2-64Bit/xmc1400-getstarted-optiga-trust-m/Libraries/XMCLib/inc\xmc_usic.h ****   __IO uint32_t  KSCFG;			/**< Kernel state configuration register*/
 499:C:/Workspace/DAVE-4.4.2-64Bit/xmc1400-getstarted-optiga-trust-m/Libraries/XMCLib/inc\xmc_usic.h ****   __IO uint32_t  FDR;			/**< Fractional divider configuration register*/
 500:C:/Workspace/DAVE-4.4.2-64Bit/xmc1400-getstarted-optiga-trust-m/Libraries/XMCLib/inc\xmc_usic.h ****   __IO uint32_t  BRG;			/**< Baud rate generator register*/
 501:C:/Workspace/DAVE-4.4.2-64Bit/xmc1400-getstarted-optiga-trust-m/Libraries/XMCLib/inc\xmc_usic.h ****   __IO uint32_t  INPR;			/**< Interrupt node pointer register*/
 502:C:/Workspace/DAVE-4.4.2-64Bit/xmc1400-getstarted-optiga-trust-m/Libraries/XMCLib/inc\xmc_usic.h ****   __IO uint32_t  DXCR[6];		/**< Input control registers DX0 to DX5.*/
 503:C:/Workspace/DAVE-4.4.2-64Bit/xmc1400-getstarted-optiga-trust-m/Libraries/XMCLib/inc\xmc_usic.h ****   __IO uint32_t  SCTR;			/**< Shift control register*/
 504:C:/Workspace/DAVE-4.4.2-64Bit/xmc1400-getstarted-optiga-trust-m/Libraries/XMCLib/inc\xmc_usic.h ****   __IO uint32_t  TCSR;
 505:C:/Workspace/DAVE-4.4.2-64Bit/xmc1400-getstarted-optiga-trust-m/Libraries/XMCLib/inc\xmc_usic.h **** 
 506:C:/Workspace/DAVE-4.4.2-64Bit/xmc1400-getstarted-optiga-trust-m/Libraries/XMCLib/inc\xmc_usic.h ****   union {
 507:C:/Workspace/DAVE-4.4.2-64Bit/xmc1400-getstarted-optiga-trust-m/Libraries/XMCLib/inc\xmc_usic.h ****     __IO uint32_t  PCR_IICMode;	/**< I2C protocol configuration register*/
 508:C:/Workspace/DAVE-4.4.2-64Bit/xmc1400-getstarted-optiga-trust-m/Libraries/XMCLib/inc\xmc_usic.h ****     __IO uint32_t  PCR_IISMode; /**< I2S protocol configuration register*/
 509:C:/Workspace/DAVE-4.4.2-64Bit/xmc1400-getstarted-optiga-trust-m/Libraries/XMCLib/inc\xmc_usic.h ****     __IO uint32_t  PCR_SSCMode;	/**< SPI protocol configuration register*/
 510:C:/Workspace/DAVE-4.4.2-64Bit/xmc1400-getstarted-optiga-trust-m/Libraries/XMCLib/inc\xmc_usic.h ****     __IO uint32_t  PCR;			/**< Protocol configuration register*/
 511:C:/Workspace/DAVE-4.4.2-64Bit/xmc1400-getstarted-optiga-trust-m/Libraries/XMCLib/inc\xmc_usic.h ****     __IO uint32_t  PCR_ASCMode;	/**< UART protocol configuration register*/
 512:C:/Workspace/DAVE-4.4.2-64Bit/xmc1400-getstarted-optiga-trust-m/Libraries/XMCLib/inc\xmc_usic.h ****   };
 513:C:/Workspace/DAVE-4.4.2-64Bit/xmc1400-getstarted-optiga-trust-m/Libraries/XMCLib/inc\xmc_usic.h ****   __IO uint32_t  CCR;			/**< Channel control register*/
 514:C:/Workspace/DAVE-4.4.2-64Bit/xmc1400-getstarted-optiga-trust-m/Libraries/XMCLib/inc\xmc_usic.h ****   __IO uint32_t  CMTR;			/**< Capture mode timer register*/
 515:C:/Workspace/DAVE-4.4.2-64Bit/xmc1400-getstarted-optiga-trust-m/Libraries/XMCLib/inc\xmc_usic.h **** 
 516:C:/Workspace/DAVE-4.4.2-64Bit/xmc1400-getstarted-optiga-trust-m/Libraries/XMCLib/inc\xmc_usic.h ****   union {
 517:C:/Workspace/DAVE-4.4.2-64Bit/xmc1400-getstarted-optiga-trust-m/Libraries/XMCLib/inc\xmc_usic.h ****     __IO uint32_t  PSR_IICMode;	/**< I2C protocol status register*/
 518:C:/Workspace/DAVE-4.4.2-64Bit/xmc1400-getstarted-optiga-trust-m/Libraries/XMCLib/inc\xmc_usic.h ****     __IO uint32_t  PSR_IISMode;	/**< I2S protocol status register*/
 519:C:/Workspace/DAVE-4.4.2-64Bit/xmc1400-getstarted-optiga-trust-m/Libraries/XMCLib/inc\xmc_usic.h ****     __IO uint32_t  PSR_SSCMode;	/**< SPI protocol status register*/
 520:C:/Workspace/DAVE-4.4.2-64Bit/xmc1400-getstarted-optiga-trust-m/Libraries/XMCLib/inc\xmc_usic.h ****     __IO uint32_t  PSR;			/**< Protocol status register*/
 521:C:/Workspace/DAVE-4.4.2-64Bit/xmc1400-getstarted-optiga-trust-m/Libraries/XMCLib/inc\xmc_usic.h ****     __IO uint32_t  PSR_ASCMode;	/**< UART protocol status register*/
 522:C:/Workspace/DAVE-4.4.2-64Bit/xmc1400-getstarted-optiga-trust-m/Libraries/XMCLib/inc\xmc_usic.h ****   };
 523:C:/Workspace/DAVE-4.4.2-64Bit/xmc1400-getstarted-optiga-trust-m/Libraries/XMCLib/inc\xmc_usic.h ****   __O  uint32_t  PSCR;			/**< Protocol status clear register*/
 524:C:/Workspace/DAVE-4.4.2-64Bit/xmc1400-getstarted-optiga-trust-m/Libraries/XMCLib/inc\xmc_usic.h ****   __I  uint32_t  RBUFSR;		/**< Receive buffer status register*/
 525:C:/Workspace/DAVE-4.4.2-64Bit/xmc1400-getstarted-optiga-trust-m/Libraries/XMCLib/inc\xmc_usic.h ****   __I  uint32_t  RBUF;			/**< Receive buffer register*/
 526:C:/Workspace/DAVE-4.4.2-64Bit/xmc1400-getstarted-optiga-trust-m/Libraries/XMCLib/inc\xmc_usic.h ****   __I  uint32_t  RBUFD;			/**< Debug mode receive buffer register*/
 527:C:/Workspace/DAVE-4.4.2-64Bit/xmc1400-getstarted-optiga-trust-m/Libraries/XMCLib/inc\xmc_usic.h ****   __I  uint32_t  RBUF0;			/**< Receive buffer 0*/
 528:C:/Workspace/DAVE-4.4.2-64Bit/xmc1400-getstarted-optiga-trust-m/Libraries/XMCLib/inc\xmc_usic.h ****   __I  uint32_t  RBUF1;			/**< Receive buffer 1*/
 529:C:/Workspace/DAVE-4.4.2-64Bit/xmc1400-getstarted-optiga-trust-m/Libraries/XMCLib/inc\xmc_usic.h ****   __I  uint32_t  RBUF01SR;		/**< Receive buffer status register*/
 530:C:/Workspace/DAVE-4.4.2-64Bit/xmc1400-getstarted-optiga-trust-m/Libraries/XMCLib/inc\xmc_usic.h ****   __O  uint32_t  FMR;			/**< Flag modification register*/
 531:C:/Workspace/DAVE-4.4.2-64Bit/xmc1400-getstarted-optiga-trust-m/Libraries/XMCLib/inc\xmc_usic.h ****   __I  uint32_t  RESERVED2[5];
 532:C:/Workspace/DAVE-4.4.2-64Bit/xmc1400-getstarted-optiga-trust-m/Libraries/XMCLib/inc\xmc_usic.h ****   __IO uint32_t  TBUF[32];		/**< Tranmsit buffer registers*/
 533:C:/Workspace/DAVE-4.4.2-64Bit/xmc1400-getstarted-optiga-trust-m/Libraries/XMCLib/inc\xmc_usic.h ****   __IO uint32_t  BYP;			/**< FIFO bypass register*/
 534:C:/Workspace/DAVE-4.4.2-64Bit/xmc1400-getstarted-optiga-trust-m/Libraries/XMCLib/inc\xmc_usic.h ****   __IO uint32_t  BYPCR;			/**< FIFO bypass control register*/
 535:C:/Workspace/DAVE-4.4.2-64Bit/xmc1400-getstarted-optiga-trust-m/Libraries/XMCLib/inc\xmc_usic.h ****   __IO uint32_t  TBCTR;			/**< Transmit FIFO control register*/
 536:C:/Workspace/DAVE-4.4.2-64Bit/xmc1400-getstarted-optiga-trust-m/Libraries/XMCLib/inc\xmc_usic.h ****   __IO uint32_t  RBCTR;			/**< Receive FIFO control register*/
 537:C:/Workspace/DAVE-4.4.2-64Bit/xmc1400-getstarted-optiga-trust-m/Libraries/XMCLib/inc\xmc_usic.h ****   __I  uint32_t  TRBPTR;		/**< Transmit/recive buffer pointer register*/
 538:C:/Workspace/DAVE-4.4.2-64Bit/xmc1400-getstarted-optiga-trust-m/Libraries/XMCLib/inc\xmc_usic.h ****   __IO uint32_t  TRBSR;			/**< Transmit/receive buffer status register*/
 539:C:/Workspace/DAVE-4.4.2-64Bit/xmc1400-getstarted-optiga-trust-m/Libraries/XMCLib/inc\xmc_usic.h ****   __O  uint32_t  TRBSCR;		/**< Transmit/receive buffer status clear register*/
 540:C:/Workspace/DAVE-4.4.2-64Bit/xmc1400-getstarted-optiga-trust-m/Libraries/XMCLib/inc\xmc_usic.h ****   __I  uint32_t  OUTR;			/**< Receive FIFO output register*/
 541:C:/Workspace/DAVE-4.4.2-64Bit/xmc1400-getstarted-optiga-trust-m/Libraries/XMCLib/inc\xmc_usic.h ****   __I  uint32_t  OUTDR;			/**< Receive FIFO debug output register*/
 542:C:/Workspace/DAVE-4.4.2-64Bit/xmc1400-getstarted-optiga-trust-m/Libraries/XMCLib/inc\xmc_usic.h ****   __I  uint32_t  RESERVED3[23];
 543:C:/Workspace/DAVE-4.4.2-64Bit/xmc1400-getstarted-optiga-trust-m/Libraries/XMCLib/inc\xmc_usic.h ****   __O  uint32_t  IN[32];		/**< Transmit FIFO input register*/
 544:C:/Workspace/DAVE-4.4.2-64Bit/xmc1400-getstarted-optiga-trust-m/Libraries/XMCLib/inc\xmc_usic.h **** } XMC_USIC_CH_t;
 545:C:/Workspace/DAVE-4.4.2-64Bit/xmc1400-getstarted-optiga-trust-m/Libraries/XMCLib/inc\xmc_usic.h **** 
 546:C:/Workspace/DAVE-4.4.2-64Bit/xmc1400-getstarted-optiga-trust-m/Libraries/XMCLib/inc\xmc_usic.h **** 
 547:C:/Workspace/DAVE-4.4.2-64Bit/xmc1400-getstarted-optiga-trust-m/Libraries/XMCLib/inc\xmc_usic.h **** /*Anonymous structure/union guard end*/
 548:C:/Workspace/DAVE-4.4.2-64Bit/xmc1400-getstarted-optiga-trust-m/Libraries/XMCLib/inc\xmc_usic.h **** #if defined(__CC_ARM)
 549:C:/Workspace/DAVE-4.4.2-64Bit/xmc1400-getstarted-optiga-trust-m/Libraries/XMCLib/inc\xmc_usic.h ****   #pragma pop
 550:C:/Workspace/DAVE-4.4.2-64Bit/xmc1400-getstarted-optiga-trust-m/Libraries/XMCLib/inc\xmc_usic.h **** #elif defined(__TASKING__)
 551:C:/Workspace/DAVE-4.4.2-64Bit/xmc1400-getstarted-optiga-trust-m/Libraries/XMCLib/inc\xmc_usic.h ****   #pragma warning restore
 552:C:/Workspace/DAVE-4.4.2-64Bit/xmc1400-getstarted-optiga-trust-m/Libraries/XMCLib/inc\xmc_usic.h **** #endif
 553:C:/Workspace/DAVE-4.4.2-64Bit/xmc1400-getstarted-optiga-trust-m/Libraries/XMCLib/inc\xmc_usic.h **** 
 554:C:/Workspace/DAVE-4.4.2-64Bit/xmc1400-getstarted-optiga-trust-m/Libraries/XMCLib/inc\xmc_usic.h **** /*******************************************************************************
 555:C:/Workspace/DAVE-4.4.2-64Bit/xmc1400-getstarted-optiga-trust-m/Libraries/XMCLib/inc\xmc_usic.h ****  * API PROTOTYPES
 556:C:/Workspace/DAVE-4.4.2-64Bit/xmc1400-getstarted-optiga-trust-m/Libraries/XMCLib/inc\xmc_usic.h ****  ******************************************************************************/
 557:C:/Workspace/DAVE-4.4.2-64Bit/xmc1400-getstarted-optiga-trust-m/Libraries/XMCLib/inc\xmc_usic.h **** 
 558:C:/Workspace/DAVE-4.4.2-64Bit/xmc1400-getstarted-optiga-trust-m/Libraries/XMCLib/inc\xmc_usic.h **** #ifdef __cplusplus
 559:C:/Workspace/DAVE-4.4.2-64Bit/xmc1400-getstarted-optiga-trust-m/Libraries/XMCLib/inc\xmc_usic.h **** extern "C" {
 560:C:/Workspace/DAVE-4.4.2-64Bit/xmc1400-getstarted-optiga-trust-m/Libraries/XMCLib/inc\xmc_usic.h **** #endif
 561:C:/Workspace/DAVE-4.4.2-64Bit/xmc1400-getstarted-optiga-trust-m/Libraries/XMCLib/inc\xmc_usic.h **** 
 562:C:/Workspace/DAVE-4.4.2-64Bit/xmc1400-getstarted-optiga-trust-m/Libraries/XMCLib/inc\xmc_usic.h **** __STATIC_INLINE bool XMC_USIC_IsModuleValid(const XMC_USIC_t *const module)
 563:C:/Workspace/DAVE-4.4.2-64Bit/xmc1400-getstarted-optiga-trust-m/Libraries/XMCLib/inc\xmc_usic.h **** {
 564:C:/Workspace/DAVE-4.4.2-64Bit/xmc1400-getstarted-optiga-trust-m/Libraries/XMCLib/inc\xmc_usic.h ****   bool tmp;
 565:C:/Workspace/DAVE-4.4.2-64Bit/xmc1400-getstarted-optiga-trust-m/Libraries/XMCLib/inc\xmc_usic.h **** 
 566:C:/Workspace/DAVE-4.4.2-64Bit/xmc1400-getstarted-optiga-trust-m/Libraries/XMCLib/inc\xmc_usic.h ****   tmp = (module == XMC_USIC0);
 567:C:/Workspace/DAVE-4.4.2-64Bit/xmc1400-getstarted-optiga-trust-m/Libraries/XMCLib/inc\xmc_usic.h **** #if defined(XMC_USIC1)  
 568:C:/Workspace/DAVE-4.4.2-64Bit/xmc1400-getstarted-optiga-trust-m/Libraries/XMCLib/inc\xmc_usic.h ****   tmp = tmp || (module == XMC_USIC1);
 569:C:/Workspace/DAVE-4.4.2-64Bit/xmc1400-getstarted-optiga-trust-m/Libraries/XMCLib/inc\xmc_usic.h **** #endif
 570:C:/Workspace/DAVE-4.4.2-64Bit/xmc1400-getstarted-optiga-trust-m/Libraries/XMCLib/inc\xmc_usic.h **** #if defined(XMC_USIC2)  
 571:C:/Workspace/DAVE-4.4.2-64Bit/xmc1400-getstarted-optiga-trust-m/Libraries/XMCLib/inc\xmc_usic.h ****   tmp = tmp || (module == XMC_USIC2);
 572:C:/Workspace/DAVE-4.4.2-64Bit/xmc1400-getstarted-optiga-trust-m/Libraries/XMCLib/inc\xmc_usic.h **** #endif
 573:C:/Workspace/DAVE-4.4.2-64Bit/xmc1400-getstarted-optiga-trust-m/Libraries/XMCLib/inc\xmc_usic.h **** 
 574:C:/Workspace/DAVE-4.4.2-64Bit/xmc1400-getstarted-optiga-trust-m/Libraries/XMCLib/inc\xmc_usic.h ****   return tmp;
 575:C:/Workspace/DAVE-4.4.2-64Bit/xmc1400-getstarted-optiga-trust-m/Libraries/XMCLib/inc\xmc_usic.h **** }
 576:C:/Workspace/DAVE-4.4.2-64Bit/xmc1400-getstarted-optiga-trust-m/Libraries/XMCLib/inc\xmc_usic.h **** 
 577:C:/Workspace/DAVE-4.4.2-64Bit/xmc1400-getstarted-optiga-trust-m/Libraries/XMCLib/inc\xmc_usic.h **** __STATIC_INLINE bool XMC_USIC_IsChannelValid(const XMC_USIC_CH_t *const channel)
 578:C:/Workspace/DAVE-4.4.2-64Bit/xmc1400-getstarted-optiga-trust-m/Libraries/XMCLib/inc\xmc_usic.h **** {
 579:C:/Workspace/DAVE-4.4.2-64Bit/xmc1400-getstarted-optiga-trust-m/Libraries/XMCLib/inc\xmc_usic.h ****   bool tmp;
 580:C:/Workspace/DAVE-4.4.2-64Bit/xmc1400-getstarted-optiga-trust-m/Libraries/XMCLib/inc\xmc_usic.h **** 
 581:C:/Workspace/DAVE-4.4.2-64Bit/xmc1400-getstarted-optiga-trust-m/Libraries/XMCLib/inc\xmc_usic.h ****   tmp = ((channel == XMC_USIC0_CH0) || (channel == XMC_USIC0_CH1));
 582:C:/Workspace/DAVE-4.4.2-64Bit/xmc1400-getstarted-optiga-trust-m/Libraries/XMCLib/inc\xmc_usic.h **** #if defined(XMC_USIC1)  
 583:C:/Workspace/DAVE-4.4.2-64Bit/xmc1400-getstarted-optiga-trust-m/Libraries/XMCLib/inc\xmc_usic.h ****   tmp = tmp || ((channel == XMC_USIC1_CH0) || (channel == XMC_USIC1_CH1));
 584:C:/Workspace/DAVE-4.4.2-64Bit/xmc1400-getstarted-optiga-trust-m/Libraries/XMCLib/inc\xmc_usic.h **** #endif
 585:C:/Workspace/DAVE-4.4.2-64Bit/xmc1400-getstarted-optiga-trust-m/Libraries/XMCLib/inc\xmc_usic.h **** #if defined(XMC_USIC2)  
 586:C:/Workspace/DAVE-4.4.2-64Bit/xmc1400-getstarted-optiga-trust-m/Libraries/XMCLib/inc\xmc_usic.h ****   tmp = tmp || ((channel == XMC_USIC2_CH0) || (channel == XMC_USIC2_CH1));
 587:C:/Workspace/DAVE-4.4.2-64Bit/xmc1400-getstarted-optiga-trust-m/Libraries/XMCLib/inc\xmc_usic.h **** #endif
 588:C:/Workspace/DAVE-4.4.2-64Bit/xmc1400-getstarted-optiga-trust-m/Libraries/XMCLib/inc\xmc_usic.h **** 
 589:C:/Workspace/DAVE-4.4.2-64Bit/xmc1400-getstarted-optiga-trust-m/Libraries/XMCLib/inc\xmc_usic.h ****   return tmp;
 590:C:/Workspace/DAVE-4.4.2-64Bit/xmc1400-getstarted-optiga-trust-m/Libraries/XMCLib/inc\xmc_usic.h **** }
 591:C:/Workspace/DAVE-4.4.2-64Bit/xmc1400-getstarted-optiga-trust-m/Libraries/XMCLib/inc\xmc_usic.h **** 
 592:C:/Workspace/DAVE-4.4.2-64Bit/xmc1400-getstarted-optiga-trust-m/Libraries/XMCLib/inc\xmc_usic.h **** /* Common APIs */
 593:C:/Workspace/DAVE-4.4.2-64Bit/xmc1400-getstarted-optiga-trust-m/Libraries/XMCLib/inc\xmc_usic.h **** 
 594:C:/Workspace/DAVE-4.4.2-64Bit/xmc1400-getstarted-optiga-trust-m/Libraries/XMCLib/inc\xmc_usic.h **** /**
 595:C:/Workspace/DAVE-4.4.2-64Bit/xmc1400-getstarted-optiga-trust-m/Libraries/XMCLib/inc\xmc_usic.h ****  * @param  usic Pointer to USIC module handler of type @ref XMC_USIC_t.\n
 596:C:/Workspace/DAVE-4.4.2-64Bit/xmc1400-getstarted-optiga-trust-m/Libraries/XMCLib/inc\xmc_usic.h ****  * 				\b Range: @ref XMC_USIC0 to @ref XMC_USIC2 based on device support.
 597:C:/Workspace/DAVE-4.4.2-64Bit/xmc1400-getstarted-optiga-trust-m/Libraries/XMCLib/inc\xmc_usic.h ****  * @return None
 598:C:/Workspace/DAVE-4.4.2-64Bit/xmc1400-getstarted-optiga-trust-m/Libraries/XMCLib/inc\xmc_usic.h ****  * 
 599:C:/Workspace/DAVE-4.4.2-64Bit/xmc1400-getstarted-optiga-trust-m/Libraries/XMCLib/inc\xmc_usic.h ****  * \par<b>Description</b><br>
 600:C:/Workspace/DAVE-4.4.2-64Bit/xmc1400-getstarted-optiga-trust-m/Libraries/XMCLib/inc\xmc_usic.h ****  * Enables the USIC module.\n\n
 601:C:/Workspace/DAVE-4.4.2-64Bit/xmc1400-getstarted-optiga-trust-m/Libraries/XMCLib/inc\xmc_usic.h ****  * Enables the clock for the USIC module by following the
 602:C:/Workspace/DAVE-4.4.2-64Bit/xmc1400-getstarted-optiga-trust-m/Libraries/XMCLib/inc\xmc_usic.h ****  * clock enabling sequence for the selected device.
 603:C:/Workspace/DAVE-4.4.2-64Bit/xmc1400-getstarted-optiga-trust-m/Libraries/XMCLib/inc\xmc_usic.h ****  *
 604:C:/Workspace/DAVE-4.4.2-64Bit/xmc1400-getstarted-optiga-trust-m/Libraries/XMCLib/inc\xmc_usic.h ****  * \par<b>Related APIs:</b><BR>
 605:C:/Workspace/DAVE-4.4.2-64Bit/xmc1400-getstarted-optiga-trust-m/Libraries/XMCLib/inc\xmc_usic.h ****  * XMC_USIC_CH_Enable(), XMC_USIC_Disable() \n\n\n
 606:C:/Workspace/DAVE-4.4.2-64Bit/xmc1400-getstarted-optiga-trust-m/Libraries/XMCLib/inc\xmc_usic.h ****  */
 607:C:/Workspace/DAVE-4.4.2-64Bit/xmc1400-getstarted-optiga-trust-m/Libraries/XMCLib/inc\xmc_usic.h **** void XMC_USIC_Enable(XMC_USIC_t *const usic);
 608:C:/Workspace/DAVE-4.4.2-64Bit/xmc1400-getstarted-optiga-trust-m/Libraries/XMCLib/inc\xmc_usic.h **** /**
 609:C:/Workspace/DAVE-4.4.2-64Bit/xmc1400-getstarted-optiga-trust-m/Libraries/XMCLib/inc\xmc_usic.h ****  * @param  usic Pointer to USIC module handler of type @ref XMC_USIC_t.\n
 610:C:/Workspace/DAVE-4.4.2-64Bit/xmc1400-getstarted-optiga-trust-m/Libraries/XMCLib/inc\xmc_usic.h ****  * 				\b Range: @ref XMC_USIC0 to @ref XMC_USIC2 based on device support.
 611:C:/Workspace/DAVE-4.4.2-64Bit/xmc1400-getstarted-optiga-trust-m/Libraries/XMCLib/inc\xmc_usic.h ****  * @return None
 612:C:/Workspace/DAVE-4.4.2-64Bit/xmc1400-getstarted-optiga-trust-m/Libraries/XMCLib/inc\xmc_usic.h ****  *
 613:C:/Workspace/DAVE-4.4.2-64Bit/xmc1400-getstarted-optiga-trust-m/Libraries/XMCLib/inc\xmc_usic.h ****  * \par<b>Description</b><br>
 614:C:/Workspace/DAVE-4.4.2-64Bit/xmc1400-getstarted-optiga-trust-m/Libraries/XMCLib/inc\xmc_usic.h ****  * Disables the USIC module.\n\n
 615:C:/Workspace/DAVE-4.4.2-64Bit/xmc1400-getstarted-optiga-trust-m/Libraries/XMCLib/inc\xmc_usic.h ****  * Disables the clock for the USIC module by following the clock
 616:C:/Workspace/DAVE-4.4.2-64Bit/xmc1400-getstarted-optiga-trust-m/Libraries/XMCLib/inc\xmc_usic.h ****  * disabling sequence for the selected device.
 617:C:/Workspace/DAVE-4.4.2-64Bit/xmc1400-getstarted-optiga-trust-m/Libraries/XMCLib/inc\xmc_usic.h ****  *
 618:C:/Workspace/DAVE-4.4.2-64Bit/xmc1400-getstarted-optiga-trust-m/Libraries/XMCLib/inc\xmc_usic.h ****  * \par<b>Related APIs:</b><BR>
 619:C:/Workspace/DAVE-4.4.2-64Bit/xmc1400-getstarted-optiga-trust-m/Libraries/XMCLib/inc\xmc_usic.h ****  * XMC_USIC_CH_Disable(), XMC_USIC_Enable() \n\n\n
 620:C:/Workspace/DAVE-4.4.2-64Bit/xmc1400-getstarted-optiga-trust-m/Libraries/XMCLib/inc\xmc_usic.h ****  */
 621:C:/Workspace/DAVE-4.4.2-64Bit/xmc1400-getstarted-optiga-trust-m/Libraries/XMCLib/inc\xmc_usic.h **** void XMC_USIC_Disable(XMC_USIC_t *const usic);
 622:C:/Workspace/DAVE-4.4.2-64Bit/xmc1400-getstarted-optiga-trust-m/Libraries/XMCLib/inc\xmc_usic.h **** /**
 623:C:/Workspace/DAVE-4.4.2-64Bit/xmc1400-getstarted-optiga-trust-m/Libraries/XMCLib/inc\xmc_usic.h ****  * @param  channel Pointer to USIC channel handler of type @ref XMC_USIC_CH_t \n
 624:C:/Workspace/DAVE-4.4.2-64Bit/xmc1400-getstarted-optiga-trust-m/Libraries/XMCLib/inc\xmc_usic.h ****  * 				   \b Range: @ref XMC_USIC0_CH0, @ref XMC_USIC0_CH1 to @ref XMC_USIC2_CH1 based on device su
 625:C:/Workspace/DAVE-4.4.2-64Bit/xmc1400-getstarted-optiga-trust-m/Libraries/XMCLib/inc\xmc_usic.h ****  * @return None
 626:C:/Workspace/DAVE-4.4.2-64Bit/xmc1400-getstarted-optiga-trust-m/Libraries/XMCLib/inc\xmc_usic.h ****  *
 627:C:/Workspace/DAVE-4.4.2-64Bit/xmc1400-getstarted-optiga-trust-m/Libraries/XMCLib/inc\xmc_usic.h ****  * \par<b>Description</b><br>
 628:C:/Workspace/DAVE-4.4.2-64Bit/xmc1400-getstarted-optiga-trust-m/Libraries/XMCLib/inc\xmc_usic.h ****  * Enables the USIC channel. \n\n
 629:C:/Workspace/DAVE-4.4.2-64Bit/xmc1400-getstarted-optiga-trust-m/Libraries/XMCLib/inc\xmc_usic.h ****  * USIC channel is enabled by setting the module enable bit in KSCFG register bitfield MODEN.
 630:C:/Workspace/DAVE-4.4.2-64Bit/xmc1400-getstarted-optiga-trust-m/Libraries/XMCLib/inc\xmc_usic.h ****  * On enabling, the channel is set to idle mode.
 631:C:/Workspace/DAVE-4.4.2-64Bit/xmc1400-getstarted-optiga-trust-m/Libraries/XMCLib/inc\xmc_usic.h ****  *
 632:C:/Workspace/DAVE-4.4.2-64Bit/xmc1400-getstarted-optiga-trust-m/Libraries/XMCLib/inc\xmc_usic.h ****  * \par<b>Related APIs:</b><BR>
 633:C:/Workspace/DAVE-4.4.2-64Bit/xmc1400-getstarted-optiga-trust-m/Libraries/XMCLib/inc\xmc_usic.h ****  * XMC_USIC_CH_Disable(), XMC_USIC_Enable() \n\n\n
 634:C:/Workspace/DAVE-4.4.2-64Bit/xmc1400-getstarted-optiga-trust-m/Libraries/XMCLib/inc\xmc_usic.h ****  */
 635:C:/Workspace/DAVE-4.4.2-64Bit/xmc1400-getstarted-optiga-trust-m/Libraries/XMCLib/inc\xmc_usic.h **** void XMC_USIC_CH_Enable(XMC_USIC_CH_t *const channel);
 636:C:/Workspace/DAVE-4.4.2-64Bit/xmc1400-getstarted-optiga-trust-m/Libraries/XMCLib/inc\xmc_usic.h **** /**
 637:C:/Workspace/DAVE-4.4.2-64Bit/xmc1400-getstarted-optiga-trust-m/Libraries/XMCLib/inc\xmc_usic.h ****  * @param  channel Pointer to USIC channel handler of type @ref XMC_USIC_CH_t \n
 638:C:/Workspace/DAVE-4.4.2-64Bit/xmc1400-getstarted-optiga-trust-m/Libraries/XMCLib/inc\xmc_usic.h ****  * 				   \b Range: @ref XMC_USIC0_CH0, @ref XMC_USIC0_CH1 to @ref XMC_USIC2_CH1 based on device su
 639:C:/Workspace/DAVE-4.4.2-64Bit/xmc1400-getstarted-optiga-trust-m/Libraries/XMCLib/inc\xmc_usic.h ****  * @return None
 640:C:/Workspace/DAVE-4.4.2-64Bit/xmc1400-getstarted-optiga-trust-m/Libraries/XMCLib/inc\xmc_usic.h ****  *
 641:C:/Workspace/DAVE-4.4.2-64Bit/xmc1400-getstarted-optiga-trust-m/Libraries/XMCLib/inc\xmc_usic.h ****  * \par<b>Description</b><br>
 642:C:/Workspace/DAVE-4.4.2-64Bit/xmc1400-getstarted-optiga-trust-m/Libraries/XMCLib/inc\xmc_usic.h ****  * Disables the USIC channel.\n\n
 643:C:/Workspace/DAVE-4.4.2-64Bit/xmc1400-getstarted-optiga-trust-m/Libraries/XMCLib/inc\xmc_usic.h ****  * USIC channel is disabled by setting the module enable bit(MDEN) to 0 in the register KSCFG.
 644:C:/Workspace/DAVE-4.4.2-64Bit/xmc1400-getstarted-optiga-trust-m/Libraries/XMCLib/inc\xmc_usic.h ****  *
 645:C:/Workspace/DAVE-4.4.2-64Bit/xmc1400-getstarted-optiga-trust-m/Libraries/XMCLib/inc\xmc_usic.h ****  * \par<b>Related APIs:</b><BR>
 646:C:/Workspace/DAVE-4.4.2-64Bit/xmc1400-getstarted-optiga-trust-m/Libraries/XMCLib/inc\xmc_usic.h ****  * XMC_USIC_CH_Enable(), XMC_USIC_Disable() \n\n\n
 647:C:/Workspace/DAVE-4.4.2-64Bit/xmc1400-getstarted-optiga-trust-m/Libraries/XMCLib/inc\xmc_usic.h ****  */
 648:C:/Workspace/DAVE-4.4.2-64Bit/xmc1400-getstarted-optiga-trust-m/Libraries/XMCLib/inc\xmc_usic.h **** void XMC_USIC_CH_Disable(XMC_USIC_CH_t *const channel);
 649:C:/Workspace/DAVE-4.4.2-64Bit/xmc1400-getstarted-optiga-trust-m/Libraries/XMCLib/inc\xmc_usic.h **** 
 650:C:/Workspace/DAVE-4.4.2-64Bit/xmc1400-getstarted-optiga-trust-m/Libraries/XMCLib/inc\xmc_usic.h **** /**
 651:C:/Workspace/DAVE-4.4.2-64Bit/xmc1400-getstarted-optiga-trust-m/Libraries/XMCLib/inc\xmc_usic.h ****  * @param  channel Pointer to USIC channel handler of type @ref XMC_USIC_CH_t \n
 652:C:/Workspace/DAVE-4.4.2-64Bit/xmc1400-getstarted-optiga-trust-m/Libraries/XMCLib/inc\xmc_usic.h ****  * 				   \b Range: @ref XMC_USIC0_CH0, @ref XMC_USIC0_CH1 to @ref XMC_USIC2_CH1 based on device su
 653:C:/Workspace/DAVE-4.4.2-64Bit/xmc1400-getstarted-optiga-trust-m/Libraries/XMCLib/inc\xmc_usic.h ****  * @param  rate Desired baudrate. \b Range: minimum value = 100, maximum value depends on the perip
 654:C:/Workspace/DAVE-4.4.2-64Bit/xmc1400-getstarted-optiga-trust-m/Libraries/XMCLib/inc\xmc_usic.h ****  * 				and \a oversampling. Maximum baudrate can be derived using the formula: (fperiph * 1023)/(10
 655:C:/Workspace/DAVE-4.4.2-64Bit/xmc1400-getstarted-optiga-trust-m/Libraries/XMCLib/inc\xmc_usic.h ****  * @param  oversampling Required oversampling. The value indicates the number of time quanta for on
 656:C:/Workspace/DAVE-4.4.2-64Bit/xmc1400-getstarted-optiga-trust-m/Libraries/XMCLib/inc\xmc_usic.h ****  * 						This can be related to the number of samples for each logic state of the data signal. \n
 657:C:/Workspace/DAVE-4.4.2-64Bit/xmc1400-getstarted-optiga-trust-m/Libraries/XMCLib/inc\xmc_usic.h ****  * 						\b Range: 1 to 32. Value should be chosen based on the protocol used.
 658:C:/Workspace/DAVE-4.4.2-64Bit/xmc1400-getstarted-optiga-trust-m/Libraries/XMCLib/inc\xmc_usic.h ****  * @return Status indicating the baudrate configuration.\n
 659:C:/Workspace/DAVE-4.4.2-64Bit/xmc1400-getstarted-optiga-trust-m/Libraries/XMCLib/inc\xmc_usic.h ****  * 			\b Range: @ref XMC_USIC_CH_STATUS_OK if baudrate is successfully configured,
 660:C:/Workspace/DAVE-4.4.2-64Bit/xmc1400-getstarted-optiga-trust-m/Libraries/XMCLib/inc\xmc_usic.h ****  * 					  @ref XMC_USIC_CH_STATUS_ERROR if desired baudrate or oversampling is invalid.
 661:C:/Workspace/DAVE-4.4.2-64Bit/xmc1400-getstarted-optiga-trust-m/Libraries/XMCLib/inc\xmc_usic.h ****  *
 662:C:/Workspace/DAVE-4.4.2-64Bit/xmc1400-getstarted-optiga-trust-m/Libraries/XMCLib/inc\xmc_usic.h ****  * \par<b>Description</b><br>
 663:C:/Workspace/DAVE-4.4.2-64Bit/xmc1400-getstarted-optiga-trust-m/Libraries/XMCLib/inc\xmc_usic.h ****  * Configures the baudrate of the USIC channel. \n\n
 664:C:/Workspace/DAVE-4.4.2-64Bit/xmc1400-getstarted-optiga-trust-m/Libraries/XMCLib/inc\xmc_usic.h ****  * Baudrate is configured by considering the peripheral frequency and the desired baudrate.
 665:C:/Workspace/DAVE-4.4.2-64Bit/xmc1400-getstarted-optiga-trust-m/Libraries/XMCLib/inc\xmc_usic.h ****  * Optimum values of FDR->STEP and BRG->PDIV are calulated and used for generating the desired
 666:C:/Workspace/DAVE-4.4.2-64Bit/xmc1400-getstarted-optiga-trust-m/Libraries/XMCLib/inc\xmc_usic.h ****  * baudrate.
 667:C:/Workspace/DAVE-4.4.2-64Bit/xmc1400-getstarted-optiga-trust-m/Libraries/XMCLib/inc\xmc_usic.h ****  *
 668:C:/Workspace/DAVE-4.4.2-64Bit/xmc1400-getstarted-optiga-trust-m/Libraries/XMCLib/inc\xmc_usic.h ****  * \par<b>Related APIs:</b><BR>
 669:C:/Workspace/DAVE-4.4.2-64Bit/xmc1400-getstarted-optiga-trust-m/Libraries/XMCLib/inc\xmc_usic.h ****  * XMC_USIC_CH_SetStartTransmisionMode(), XMC_USIC_CH_SetInputSource() \n\n\n
 670:C:/Workspace/DAVE-4.4.2-64Bit/xmc1400-getstarted-optiga-trust-m/Libraries/XMCLib/inc\xmc_usic.h ****  */
 671:C:/Workspace/DAVE-4.4.2-64Bit/xmc1400-getstarted-optiga-trust-m/Libraries/XMCLib/inc\xmc_usic.h **** XMC_USIC_CH_STATUS_t XMC_USIC_CH_SetBaudrate(XMC_USIC_CH_t *const channel, uint32_t rate, uint32_t 
 672:C:/Workspace/DAVE-4.4.2-64Bit/xmc1400-getstarted-optiga-trust-m/Libraries/XMCLib/inc\xmc_usic.h **** 
 673:C:/Workspace/DAVE-4.4.2-64Bit/xmc1400-getstarted-optiga-trust-m/Libraries/XMCLib/inc\xmc_usic.h **** /**
 674:C:/Workspace/DAVE-4.4.2-64Bit/xmc1400-getstarted-optiga-trust-m/Libraries/XMCLib/inc\xmc_usic.h ****  * @param  channel Pointer to USIC channel handler of type @ref XMC_USIC_CH_t \n
 675:C:/Workspace/DAVE-4.4.2-64Bit/xmc1400-getstarted-optiga-trust-m/Libraries/XMCLib/inc\xmc_usic.h ****  *           \b Range: @ref XMC_USIC0_CH0, @ref XMC_USIC0_CH1 to @ref XMC_USIC2_CH1 based on device
 676:C:/Workspace/DAVE-4.4.2-64Bit/xmc1400-getstarted-optiga-trust-m/Libraries/XMCLib/inc\xmc_usic.h ****  * @param  rate Desired baudrate. Only integer dividers of peripheral clock are achievable
 677:C:/Workspace/DAVE-4.4.2-64Bit/xmc1400-getstarted-optiga-trust-m/Libraries/XMCLib/inc\xmc_usic.h ****  * @param  oversampling Required oversampling. The value indicates the number of time quanta for on
 678:C:/Workspace/DAVE-4.4.2-64Bit/xmc1400-getstarted-optiga-trust-m/Libraries/XMCLib/inc\xmc_usic.h ****  *            This can be related to the number of samples for each logic state of the data signal.
 679:C:/Workspace/DAVE-4.4.2-64Bit/xmc1400-getstarted-optiga-trust-m/Libraries/XMCLib/inc\xmc_usic.h ****  *            \b Range: 1 to 32. Value should be chosen based on the protocol used.
 680:C:/Workspace/DAVE-4.4.2-64Bit/xmc1400-getstarted-optiga-trust-m/Libraries/XMCLib/inc\xmc_usic.h ****  * @return Status indicating the baudrate configuration.\n
 681:C:/Workspace/DAVE-4.4.2-64Bit/xmc1400-getstarted-optiga-trust-m/Libraries/XMCLib/inc\xmc_usic.h ****  *      \b Range: @ref XMC_USIC_CH_STATUS_OK if baudrate is successfully configured,
 682:C:/Workspace/DAVE-4.4.2-64Bit/xmc1400-getstarted-optiga-trust-m/Libraries/XMCLib/inc\xmc_usic.h ****  *            @ref XMC_USIC_CH_STATUS_ERROR if desired baudrate or oversampling is invalid.
 683:C:/Workspace/DAVE-4.4.2-64Bit/xmc1400-getstarted-optiga-trust-m/Libraries/XMCLib/inc\xmc_usic.h ****  *
 684:C:/Workspace/DAVE-4.4.2-64Bit/xmc1400-getstarted-optiga-trust-m/Libraries/XMCLib/inc\xmc_usic.h ****  * \par<b>Description</b><br>
 685:C:/Workspace/DAVE-4.4.2-64Bit/xmc1400-getstarted-optiga-trust-m/Libraries/XMCLib/inc\xmc_usic.h ****  * Configures the baudrate of the USIC channel using the integer divider which restrics the achieva
 686:C:/Workspace/DAVE-4.4.2-64Bit/xmc1400-getstarted-optiga-trust-m/Libraries/XMCLib/inc\xmc_usic.h ****  * Baudrate is configured by considering the peripheral frequency and the desired baudrate.
 687:C:/Workspace/DAVE-4.4.2-64Bit/xmc1400-getstarted-optiga-trust-m/Libraries/XMCLib/inc\xmc_usic.h ****  * Optimum values of FDR->STEP and BRG->PDIV are calulated and used for generating the desired
 688:C:/Workspace/DAVE-4.4.2-64Bit/xmc1400-getstarted-optiga-trust-m/Libraries/XMCLib/inc\xmc_usic.h ****  * baudrate.
 689:C:/Workspace/DAVE-4.4.2-64Bit/xmc1400-getstarted-optiga-trust-m/Libraries/XMCLib/inc\xmc_usic.h ****  *
 690:C:/Workspace/DAVE-4.4.2-64Bit/xmc1400-getstarted-optiga-trust-m/Libraries/XMCLib/inc\xmc_usic.h ****  * \par<b>Related APIs:</b><BR>
 691:C:/Workspace/DAVE-4.4.2-64Bit/xmc1400-getstarted-optiga-trust-m/Libraries/XMCLib/inc\xmc_usic.h ****  * XMC_USIC_CH_SetStartTransmisionMode(), XMC_USIC_CH_SetInputSource() \n\n\n
 692:C:/Workspace/DAVE-4.4.2-64Bit/xmc1400-getstarted-optiga-trust-m/Libraries/XMCLib/inc\xmc_usic.h ****  */
 693:C:/Workspace/DAVE-4.4.2-64Bit/xmc1400-getstarted-optiga-trust-m/Libraries/XMCLib/inc\xmc_usic.h **** XMC_USIC_CH_STATUS_t XMC_USIC_CH_SetBaudrateEx(XMC_USIC_CH_t *const channel, int32_t rate, int32_t 
 694:C:/Workspace/DAVE-4.4.2-64Bit/xmc1400-getstarted-optiga-trust-m/Libraries/XMCLib/inc\xmc_usic.h **** 
 695:C:/Workspace/DAVE-4.4.2-64Bit/xmc1400-getstarted-optiga-trust-m/Libraries/XMCLib/inc\xmc_usic.h **** 
 696:C:/Workspace/DAVE-4.4.2-64Bit/xmc1400-getstarted-optiga-trust-m/Libraries/XMCLib/inc\xmc_usic.h **** /**
 697:C:/Workspace/DAVE-4.4.2-64Bit/xmc1400-getstarted-optiga-trust-m/Libraries/XMCLib/inc\xmc_usic.h ****  * @param  channel Pointer to USIC channel handler of type @ref XMC_USIC_CH_t \n
 698:C:/Workspace/DAVE-4.4.2-64Bit/xmc1400-getstarted-optiga-trust-m/Libraries/XMCLib/inc\xmc_usic.h ****  *           \b Range: @ref XMC_USIC0_CH0, @ref XMC_USIC0_CH1 to @ref XMC_USIC2_CH1 based on device
 699:C:/Workspace/DAVE-4.4.2-64Bit/xmc1400-getstarted-optiga-trust-m/Libraries/XMCLib/inc\xmc_usic.h ****  * @return baudrate currently used by USIC channel for .\n
 700:C:/Workspace/DAVE-4.4.2-64Bit/xmc1400-getstarted-optiga-trust-m/Libraries/XMCLib/inc\xmc_usic.h ****  *
 701:C:/Workspace/DAVE-4.4.2-64Bit/xmc1400-getstarted-optiga-trust-m/Libraries/XMCLib/inc\xmc_usic.h ****  * \par<b>Description</b><br>
 702:C:/Workspace/DAVE-4.4.2-64Bit/xmc1400-getstarted-optiga-trust-m/Libraries/XMCLib/inc\xmc_usic.h ****  * Calculates the current used baudrate (fCTQIN) of a USIC channel. \n\n
 703:C:/Workspace/DAVE-4.4.2-64Bit/xmc1400-getstarted-optiga-trust-m/Libraries/XMCLib/inc\xmc_usic.h ****  * @image html ../images/usic_brg.png	 
 704:C:/Workspace/DAVE-4.4.2-64Bit/xmc1400-getstarted-optiga-trust-m/Libraries/XMCLib/inc\xmc_usic.h ****  * @image latex ../images/usic_brg.png	 
 705:C:/Workspace/DAVE-4.4.2-64Bit/xmc1400-getstarted-optiga-trust-m/Libraries/XMCLib/inc\xmc_usic.h ****  *
 706:C:/Workspace/DAVE-4.4.2-64Bit/xmc1400-getstarted-optiga-trust-m/Libraries/XMCLib/inc\xmc_usic.h ****  * \par<b>Related APIs:</b><BR>
 707:C:/Workspace/DAVE-4.4.2-64Bit/xmc1400-getstarted-optiga-trust-m/Libraries/XMCLib/inc\xmc_usic.h ****  * XMC_USIC_CH_SetBaudrateMode(), XMC_USIC_CH_SetBaudrate(), XMC_USIC_CH_SetBaudrateEx() \n\n\n
 708:C:/Workspace/DAVE-4.4.2-64Bit/xmc1400-getstarted-optiga-trust-m/Libraries/XMCLib/inc\xmc_usic.h ****  */
 709:C:/Workspace/DAVE-4.4.2-64Bit/xmc1400-getstarted-optiga-trust-m/Libraries/XMCLib/inc\xmc_usic.h **** uint32_t XMC_USIC_CH_GetBaudrate(XMC_USIC_CH_t *const channel);
 710:C:/Workspace/DAVE-4.4.2-64Bit/xmc1400-getstarted-optiga-trust-m/Libraries/XMCLib/inc\xmc_usic.h **** 
 711:C:/Workspace/DAVE-4.4.2-64Bit/xmc1400-getstarted-optiga-trust-m/Libraries/XMCLib/inc\xmc_usic.h **** /**
 712:C:/Workspace/DAVE-4.4.2-64Bit/xmc1400-getstarted-optiga-trust-m/Libraries/XMCLib/inc\xmc_usic.h ****  * @param  channel Pointer to USIC channel handler of type @ref XMC_USIC_CH_t \n
 713:C:/Workspace/DAVE-4.4.2-64Bit/xmc1400-getstarted-optiga-trust-m/Libraries/XMCLib/inc\xmc_usic.h ****  *           \b Range: @ref XMC_USIC0_CH0, @ref XMC_USIC0_CH1 to @ref XMC_USIC2_CH1 based on device
 714:C:/Workspace/DAVE-4.4.2-64Bit/xmc1400-getstarted-optiga-trust-m/Libraries/XMCLib/inc\xmc_usic.h ****  * @return baudrate currently used by USIC channel.\n
 715:C:/Workspace/DAVE-4.4.2-64Bit/xmc1400-getstarted-optiga-trust-m/Libraries/XMCLib/inc\xmc_usic.h ****  *
 716:C:/Workspace/DAVE-4.4.2-64Bit/xmc1400-getstarted-optiga-trust-m/Libraries/XMCLib/inc\xmc_usic.h ****  * \par<b>Description</b><br>
 717:C:/Workspace/DAVE-4.4.2-64Bit/xmc1400-getstarted-optiga-trust-m/Libraries/XMCLib/inc\xmc_usic.h ****  * Calculates the current used SCLK frequency of a USIC channel. \n\n
 718:C:/Workspace/DAVE-4.4.2-64Bit/xmc1400-getstarted-optiga-trust-m/Libraries/XMCLib/inc\xmc_usic.h ****  * @image html ../images/usic_brg.png	 
 719:C:/Workspace/DAVE-4.4.2-64Bit/xmc1400-getstarted-optiga-trust-m/Libraries/XMCLib/inc\xmc_usic.h ****  * @image latex ../images/usic_brg.png	 
 720:C:/Workspace/DAVE-4.4.2-64Bit/xmc1400-getstarted-optiga-trust-m/Libraries/XMCLib/inc\xmc_usic.h ****  *
 721:C:/Workspace/DAVE-4.4.2-64Bit/xmc1400-getstarted-optiga-trust-m/Libraries/XMCLib/inc\xmc_usic.h ****  * \par<b>Related APIs:</b><BR>
 722:C:/Workspace/DAVE-4.4.2-64Bit/xmc1400-getstarted-optiga-trust-m/Libraries/XMCLib/inc\xmc_usic.h ****  * XMC_USIC_CH_SetBaudrateMode(), XMC_USIC_CH_SetBaudrate(), XMC_USIC_CH_SetBaudrateEx() \n\n\n
 723:C:/Workspace/DAVE-4.4.2-64Bit/xmc1400-getstarted-optiga-trust-m/Libraries/XMCLib/inc\xmc_usic.h ****  */
 724:C:/Workspace/DAVE-4.4.2-64Bit/xmc1400-getstarted-optiga-trust-m/Libraries/XMCLib/inc\xmc_usic.h **** uint32_t XMC_USIC_CH_GetSCLKFrequency(XMC_USIC_CH_t *const channel);
 725:C:/Workspace/DAVE-4.4.2-64Bit/xmc1400-getstarted-optiga-trust-m/Libraries/XMCLib/inc\xmc_usic.h **** 
 726:C:/Workspace/DAVE-4.4.2-64Bit/xmc1400-getstarted-optiga-trust-m/Libraries/XMCLib/inc\xmc_usic.h **** /**
 727:C:/Workspace/DAVE-4.4.2-64Bit/xmc1400-getstarted-optiga-trust-m/Libraries/XMCLib/inc\xmc_usic.h ****  * @param  channel Pointer to USIC channel handler of type @ref XMC_USIC_CH_t \n
 728:C:/Workspace/DAVE-4.4.2-64Bit/xmc1400-getstarted-optiga-trust-m/Libraries/XMCLib/inc\xmc_usic.h ****  *           \b Range: @ref XMC_USIC0_CH0, @ref XMC_USIC0_CH1 to @ref XMC_USIC2_CH1 based on device
 729:C:/Workspace/DAVE-4.4.2-64Bit/xmc1400-getstarted-optiga-trust-m/Libraries/XMCLib/inc\xmc_usic.h ****  * @return baudrate currently used by USIC channel.\n
 730:C:/Workspace/DAVE-4.4.2-64Bit/xmc1400-getstarted-optiga-trust-m/Libraries/XMCLib/inc\xmc_usic.h ****  *
 731:C:/Workspace/DAVE-4.4.2-64Bit/xmc1400-getstarted-optiga-trust-m/Libraries/XMCLib/inc\xmc_usic.h ****  * \par<b>Description</b><br>
 732:C:/Workspace/DAVE-4.4.2-64Bit/xmc1400-getstarted-optiga-trust-m/Libraries/XMCLib/inc\xmc_usic.h ****  * Calculates the current used MCLK frequency of a USIC channel. \n\n
 733:C:/Workspace/DAVE-4.4.2-64Bit/xmc1400-getstarted-optiga-trust-m/Libraries/XMCLib/inc\xmc_usic.h ****  * @image html ../images/usic_brg.png	 
 734:C:/Workspace/DAVE-4.4.2-64Bit/xmc1400-getstarted-optiga-trust-m/Libraries/XMCLib/inc\xmc_usic.h ****  * @image latex ../images/usic_brg.png	 
 735:C:/Workspace/DAVE-4.4.2-64Bit/xmc1400-getstarted-optiga-trust-m/Libraries/XMCLib/inc\xmc_usic.h ****  *
 736:C:/Workspace/DAVE-4.4.2-64Bit/xmc1400-getstarted-optiga-trust-m/Libraries/XMCLib/inc\xmc_usic.h ****  * \par<b>Related APIs:</b><BR>
 737:C:/Workspace/DAVE-4.4.2-64Bit/xmc1400-getstarted-optiga-trust-m/Libraries/XMCLib/inc\xmc_usic.h ****  * XMC_USIC_CH_SetBaudrateMode(), XMC_USIC_CH_SetBaudrate(), XMC_USIC_CH_SetBaudrateEx() \n\n\n
 738:C:/Workspace/DAVE-4.4.2-64Bit/xmc1400-getstarted-optiga-trust-m/Libraries/XMCLib/inc\xmc_usic.h ****  */
 739:C:/Workspace/DAVE-4.4.2-64Bit/xmc1400-getstarted-optiga-trust-m/Libraries/XMCLib/inc\xmc_usic.h **** uint32_t XMC_USIC_CH_GetMCLKFrequency(XMC_USIC_CH_t *const channel);
 740:C:/Workspace/DAVE-4.4.2-64Bit/xmc1400-getstarted-optiga-trust-m/Libraries/XMCLib/inc\xmc_usic.h **** 
 741:C:/Workspace/DAVE-4.4.2-64Bit/xmc1400-getstarted-optiga-trust-m/Libraries/XMCLib/inc\xmc_usic.h **** /**
 742:C:/Workspace/DAVE-4.4.2-64Bit/xmc1400-getstarted-optiga-trust-m/Libraries/XMCLib/inc\xmc_usic.h ****  * @param  channel Pointer to USIC channel handler of type @ref XMC_USIC_CH_t \n
 743:C:/Workspace/DAVE-4.4.2-64Bit/xmc1400-getstarted-optiga-trust-m/Libraries/XMCLib/inc\xmc_usic.h ****  * 				   \b Range: @ref XMC_USIC0_CH0, @ref XMC_USIC0_CH1 to @ref XMC_USIC2_CH1 based on device su
 744:C:/Workspace/DAVE-4.4.2-64Bit/xmc1400-getstarted-optiga-trust-m/Libraries/XMCLib/inc\xmc_usic.h ****  * @param  pdiv Desired divider for the external frequency input. \b Range: minimum value = 1, maxi
 745:C:/Workspace/DAVE-4.4.2-64Bit/xmc1400-getstarted-optiga-trust-m/Libraries/XMCLib/inc\xmc_usic.h ****  * @param  oversampling Required oversampling. The value indicates the number of time quanta for on
 746:C:/Workspace/DAVE-4.4.2-64Bit/xmc1400-getstarted-optiga-trust-m/Libraries/XMCLib/inc\xmc_usic.h ****  * 						This can be related to the number of samples for each logic state of the data signal. \n
 747:C:/Workspace/DAVE-4.4.2-64Bit/xmc1400-getstarted-optiga-trust-m/Libraries/XMCLib/inc\xmc_usic.h ****  * 						\b Range: 1 to 32. Value should be chosen based on the protocol used.
 748:C:/Workspace/DAVE-4.4.2-64Bit/xmc1400-getstarted-optiga-trust-m/Libraries/XMCLib/inc\xmc_usic.h ****  * @param  combination_mode Selects which edge of the synchronized(and optionally filtered) signal 
 749:C:/Workspace/DAVE-4.4.2-64Bit/xmc1400-getstarted-optiga-trust-m/Libraries/XMCLib/inc\xmc_usic.h ****  *                          output DXnT of the input stage.
 750:C:/Workspace/DAVE-4.4.2-64Bit/xmc1400-getstarted-optiga-trust-m/Libraries/XMCLib/inc\xmc_usic.h ****  *
 751:C:/Workspace/DAVE-4.4.2-64Bit/xmc1400-getstarted-optiga-trust-m/Libraries/XMCLib/inc\xmc_usic.h ****  * @return None
 752:C:/Workspace/DAVE-4.4.2-64Bit/xmc1400-getstarted-optiga-trust-m/Libraries/XMCLib/inc\xmc_usic.h ****  *
 753:C:/Workspace/DAVE-4.4.2-64Bit/xmc1400-getstarted-optiga-trust-m/Libraries/XMCLib/inc\xmc_usic.h ****  * \par<b>Description</b><br>
 754:C:/Workspace/DAVE-4.4.2-64Bit/xmc1400-getstarted-optiga-trust-m/Libraries/XMCLib/inc\xmc_usic.h ****  * Enables the external frequency input for the Baudrate Generator and configures the divider, over
 755:C:/Workspace/DAVE-4.4.2-64Bit/xmc1400-getstarted-optiga-trust-m/Libraries/XMCLib/inc\xmc_usic.h ****  * the combination mode of the USIC channel. \n\n
 756:C:/Workspace/DAVE-4.4.2-64Bit/xmc1400-getstarted-optiga-trust-m/Libraries/XMCLib/inc\xmc_usic.h ****  *
 757:C:/Workspace/DAVE-4.4.2-64Bit/xmc1400-getstarted-optiga-trust-m/Libraries/XMCLib/inc\xmc_usic.h ****  * \par<b>Related APIs:</b><BR>
 758:C:/Workspace/DAVE-4.4.2-64Bit/xmc1400-getstarted-optiga-trust-m/Libraries/XMCLib/inc\xmc_usic.h ****  * XMC_USIC_CH_SetBRGInputClockSource(), XMC_USIC_CH_SetInputTriggerCombinationMode() \n\n\n
 759:C:/Workspace/DAVE-4.4.2-64Bit/xmc1400-getstarted-optiga-trust-m/Libraries/XMCLib/inc\xmc_usic.h ****  */
 760:C:/Workspace/DAVE-4.4.2-64Bit/xmc1400-getstarted-optiga-trust-m/Libraries/XMCLib/inc\xmc_usic.h **** void XMC_USIC_CH_ConfigExternalInputSignalToBRG(XMC_USIC_CH_t *const channel,
 761:C:/Workspace/DAVE-4.4.2-64Bit/xmc1400-getstarted-optiga-trust-m/Libraries/XMCLib/inc\xmc_usic.h **** 		                                         const uint16_t pdiv,
 762:C:/Workspace/DAVE-4.4.2-64Bit/xmc1400-getstarted-optiga-trust-m/Libraries/XMCLib/inc\xmc_usic.h **** 												 const uint32_t oversampling,
 763:C:/Workspace/DAVE-4.4.2-64Bit/xmc1400-getstarted-optiga-trust-m/Libraries/XMCLib/inc\xmc_usic.h **** 												 const XMC_USIC_CH_INPUT_COMBINATION_MODE_t combination_mode);
 764:C:/Workspace/DAVE-4.4.2-64Bit/xmc1400-getstarted-optiga-trust-m/Libraries/XMCLib/inc\xmc_usic.h **** 
 765:C:/Workspace/DAVE-4.4.2-64Bit/xmc1400-getstarted-optiga-trust-m/Libraries/XMCLib/inc\xmc_usic.h **** /**
 766:C:/Workspace/DAVE-4.4.2-64Bit/xmc1400-getstarted-optiga-trust-m/Libraries/XMCLib/inc\xmc_usic.h ****  * @param  channel Pointer to USIC channel handler of type @ref XMC_USIC_CH_t \n
 767:C:/Workspace/DAVE-4.4.2-64Bit/xmc1400-getstarted-optiga-trust-m/Libraries/XMCLib/inc\xmc_usic.h ****  * 				   \b Range: @ref XMC_USIC0_CH0, @ref XMC_USIC0_CH1 to @ref XMC_USIC2_CH1 based on device su
 768:C:/Workspace/DAVE-4.4.2-64Bit/xmc1400-getstarted-optiga-trust-m/Libraries/XMCLib/inc\xmc_usic.h ****  * @param  input USIC channel input stage of type @ref XMC_USIC_CH_INPUT_t. \n
 769:C:/Workspace/DAVE-4.4.2-64Bit/xmc1400-getstarted-optiga-trust-m/Libraries/XMCLib/inc\xmc_usic.h ****  * 				 \b Range: @ref XMC_USIC_CH_INPUT_DX0 to @ref XMC_USIC_CH_INPUT_DX5
 770:C:/Workspace/DAVE-4.4.2-64Bit/xmc1400-getstarted-optiga-trust-m/Libraries/XMCLib/inc\xmc_usic.h ****  * @param  source Input source select for the input stage. The table below maps the enum value with
 771:C:/Workspace/DAVE-4.4.2-64Bit/xmc1400-getstarted-optiga-trust-m/Libraries/XMCLib/inc\xmc_usic.h ****  * <table><tr><td>0</td><td>DXnA</td></tr><tr><td>1</td><td>DXnB</td></tr><tr><td>2</td><td>DXnC</t
 772:C:/Workspace/DAVE-4.4.2-64Bit/xmc1400-getstarted-optiga-trust-m/Libraries/XMCLib/inc\xmc_usic.h ****  * <tr><td>4</td><td>DXnE</td></tr><tr><td>5</td><td>DXnF</td></tr><tr><td>6</td><td>DXnG</td></tr>
 773:C:/Workspace/DAVE-4.4.2-64Bit/xmc1400-getstarted-optiga-trust-m/Libraries/XMCLib/inc\xmc_usic.h ****  * </tr></table>
 774:C:/Workspace/DAVE-4.4.2-64Bit/xmc1400-getstarted-optiga-trust-m/Libraries/XMCLib/inc\xmc_usic.h ****  * @return None
 775:C:/Workspace/DAVE-4.4.2-64Bit/xmc1400-getstarted-optiga-trust-m/Libraries/XMCLib/inc\xmc_usic.h ****  *
 776:C:/Workspace/DAVE-4.4.2-64Bit/xmc1400-getstarted-optiga-trust-m/Libraries/XMCLib/inc\xmc_usic.h ****  * \par<b>Description</b><br>
 777:C:/Workspace/DAVE-4.4.2-64Bit/xmc1400-getstarted-optiga-trust-m/Libraries/XMCLib/inc\xmc_usic.h ****  * Selects the data source for USIC input stage.\n\n
 778:C:/Workspace/DAVE-4.4.2-64Bit/xmc1400-getstarted-optiga-trust-m/Libraries/XMCLib/inc\xmc_usic.h ****  * Selects the input data signal source among DXnA, DXnB.. DXnG for the input stage. The API can be
 779:C:/Workspace/DAVE-4.4.2-64Bit/xmc1400-getstarted-optiga-trust-m/Libraries/XMCLib/inc\xmc_usic.h ****  * like DX0CR, DX1CR etc. 
 780:C:/Workspace/DAVE-4.4.2-64Bit/xmc1400-getstarted-optiga-trust-m/Libraries/XMCLib/inc\xmc_usic.h ****  *  
 781:C:/Workspace/DAVE-4.4.2-64Bit/xmc1400-getstarted-optiga-trust-m/Libraries/XMCLib/inc\xmc_usic.h ****  * \par<b>Related APIs:</b><BR>
 782:C:/Workspace/DAVE-4.4.2-64Bit/xmc1400-getstarted-optiga-trust-m/Libraries/XMCLib/inc\xmc_usic.h ****  * XMC_USIC_CH_EnableInputInversion(), XMC_USIC_CH_EnableInputDigitalFilter(), XMC_USIC_CH_EnableIn
 783:C:/Workspace/DAVE-4.4.2-64Bit/xmc1400-getstarted-optiga-trust-m/Libraries/XMCLib/inc\xmc_usic.h ****  * XMC_USIC_CH_SetInputSamplingFreq()\n\n\n
 784:C:/Workspace/DAVE-4.4.2-64Bit/xmc1400-getstarted-optiga-trust-m/Libraries/XMCLib/inc\xmc_usic.h ****  */
 785:C:/Workspace/DAVE-4.4.2-64Bit/xmc1400-getstarted-optiga-trust-m/Libraries/XMCLib/inc\xmc_usic.h **** __STATIC_INLINE void XMC_USIC_CH_SetInputSource(XMC_USIC_CH_t *const channel, const XMC_USIC_CH_INP
 786:C:/Workspace/DAVE-4.4.2-64Bit/xmc1400-getstarted-optiga-trust-m/Libraries/XMCLib/inc\xmc_usic.h **** {
 787:C:/Workspace/DAVE-4.4.2-64Bit/xmc1400-getstarted-optiga-trust-m/Libraries/XMCLib/inc\xmc_usic.h ****   channel->DXCR[input] = (uint32_t)((channel->DXCR[input] & (uint32_t)(~USIC_CH_DXCR_DSEL_Msk)) |
 788:C:/Workspace/DAVE-4.4.2-64Bit/xmc1400-getstarted-optiga-trust-m/Libraries/XMCLib/inc\xmc_usic.h ****                          ((uint32_t)source << USIC_CH_DXCR_DSEL_Pos));
 789:C:/Workspace/DAVE-4.4.2-64Bit/xmc1400-getstarted-optiga-trust-m/Libraries/XMCLib/inc\xmc_usic.h **** }
 790:C:/Workspace/DAVE-4.4.2-64Bit/xmc1400-getstarted-optiga-trust-m/Libraries/XMCLib/inc\xmc_usic.h **** /**
 791:C:/Workspace/DAVE-4.4.2-64Bit/xmc1400-getstarted-optiga-trust-m/Libraries/XMCLib/inc\xmc_usic.h ****  * @param  channel Pointer to USIC channel handler of type @ref XMC_USIC_CH_t \n
 792:C:/Workspace/DAVE-4.4.2-64Bit/xmc1400-getstarted-optiga-trust-m/Libraries/XMCLib/inc\xmc_usic.h ****  * 				   \b Range: @ref XMC_USIC0_CH0, @ref XMC_USIC0_CH1 to @ref XMC_USIC2_CH1 based on device su
 793:C:/Workspace/DAVE-4.4.2-64Bit/xmc1400-getstarted-optiga-trust-m/Libraries/XMCLib/inc\xmc_usic.h ****  * @param  input USIC channel input stage of type @ref XMC_USIC_CH_INPUT_t. \n
 794:C:/Workspace/DAVE-4.4.2-64Bit/xmc1400-getstarted-optiga-trust-m/Libraries/XMCLib/inc\xmc_usic.h ****  * 				 \b Range: @ref XMC_USIC_CH_INPUT_DX0 to @ref XMC_USIC_CH_INPUT_DX5
 795:C:/Workspace/DAVE-4.4.2-64Bit/xmc1400-getstarted-optiga-trust-m/Libraries/XMCLib/inc\xmc_usic.h ****  * @return None
 796:C:/Workspace/DAVE-4.4.2-64Bit/xmc1400-getstarted-optiga-trust-m/Libraries/XMCLib/inc\xmc_usic.h ****  *
 797:C:/Workspace/DAVE-4.4.2-64Bit/xmc1400-getstarted-optiga-trust-m/Libraries/XMCLib/inc\xmc_usic.h ****  * \par<b>Description</b><br>
 798:C:/Workspace/DAVE-4.4.2-64Bit/xmc1400-getstarted-optiga-trust-m/Libraries/XMCLib/inc\xmc_usic.h ****  * The input of the data shift unit is controlled by the
 799:C:/Workspace/DAVE-4.4.2-64Bit/xmc1400-getstarted-optiga-trust-m/Libraries/XMCLib/inc\xmc_usic.h ****  * protocol pre-processor. \n\n
 800:C:/Workspace/DAVE-4.4.2-64Bit/xmc1400-getstarted-optiga-trust-m/Libraries/XMCLib/inc\xmc_usic.h ****  *
 801:C:/Workspace/DAVE-4.4.2-64Bit/xmc1400-getstarted-optiga-trust-m/Libraries/XMCLib/inc\xmc_usic.h ****  * \par<b>Related APIs:</b><BR>
 802:C:/Workspace/DAVE-4.4.2-64Bit/xmc1400-getstarted-optiga-trust-m/Libraries/XMCLib/inc\xmc_usic.h ****  * XMC_USIC_CH_ConnectInputDataShiftToDataInput()\n\n\n
 803:C:/Workspace/DAVE-4.4.2-64Bit/xmc1400-getstarted-optiga-trust-m/Libraries/XMCLib/inc\xmc_usic.h ****  */
 804:C:/Workspace/DAVE-4.4.2-64Bit/xmc1400-getstarted-optiga-trust-m/Libraries/XMCLib/inc\xmc_usic.h **** __STATIC_INLINE void XMC_USIC_CH_ConnectInputDataShiftToPPP(XMC_USIC_CH_t *const channel, const XMC
 805:C:/Workspace/DAVE-4.4.2-64Bit/xmc1400-getstarted-optiga-trust-m/Libraries/XMCLib/inc\xmc_usic.h **** {
 806:C:/Workspace/DAVE-4.4.2-64Bit/xmc1400-getstarted-optiga-trust-m/Libraries/XMCLib/inc\xmc_usic.h ****   channel->DXCR[input] &=(uint32_t)~USIC_CH_DXCR_INSW_Msk;
 807:C:/Workspace/DAVE-4.4.2-64Bit/xmc1400-getstarted-optiga-trust-m/Libraries/XMCLib/inc\xmc_usic.h **** }
 808:C:/Workspace/DAVE-4.4.2-64Bit/xmc1400-getstarted-optiga-trust-m/Libraries/XMCLib/inc\xmc_usic.h **** 
 809:C:/Workspace/DAVE-4.4.2-64Bit/xmc1400-getstarted-optiga-trust-m/Libraries/XMCLib/inc\xmc_usic.h **** /**
 810:C:/Workspace/DAVE-4.4.2-64Bit/xmc1400-getstarted-optiga-trust-m/Libraries/XMCLib/inc\xmc_usic.h ****  * @param  channel Pointer to USIC channel handler of type @ref XMC_USIC_CH_t \n
 811:C:/Workspace/DAVE-4.4.2-64Bit/xmc1400-getstarted-optiga-trust-m/Libraries/XMCLib/inc\xmc_usic.h ****  * 				   \b Range: @ref XMC_USIC0_CH0, @ref XMC_USIC0_CH1 to @ref XMC_USIC2_CH1 based on device su
