   1              	 .cpu cortex-m0
   2              	 .fpu softvfp
   3              	 .eabi_attribute 20,1
   4              	 .eabi_attribute 21,1
   5              	 .eabi_attribute 23,3
   6              	 .eabi_attribute 24,1
   7              	 .eabi_attribute 25,1
   8              	 .eabi_attribute 26,1
   9              	 .eabi_attribute 30,4
  10              	 .eabi_attribute 34,0
  11              	 .eabi_attribute 18,4
  12              	 .code 16
  13              	 .file "xmc_acmp.c"
  14              	 .text
  15              	.Ltext0:
  16              	 .cfi_sections .debug_frame
  17              	 .section .text.XMC_ACMP_Init,"ax",%progbits
  18              	 .align 1
  19              	 .global XMC_ACMP_Init
  20              	 .code 16
  21              	 .thumb_func
  23              	XMC_ACMP_Init:
  24              	.LFB53:
  25              	 .file 1 "../Libraries/XMCLib/src/xmc_acmp.c"
   1:../Libraries/XMCLib/src/xmc_acmp.c **** /**
   2:../Libraries/XMCLib/src/xmc_acmp.c ****  * @file xmc_acmp.c
   3:../Libraries/XMCLib/src/xmc_acmp.c ****  * @date 2015-06-20
   4:../Libraries/XMCLib/src/xmc_acmp.c ****  *
   5:../Libraries/XMCLib/src/xmc_acmp.c ****  * @cond
   6:../Libraries/XMCLib/src/xmc_acmp.c ****  **************************************************************************************************
   7:../Libraries/XMCLib/src/xmc_acmp.c ****  * XMClib v2.1.24 - XMC Peripheral Driver Library 
   8:../Libraries/XMCLib/src/xmc_acmp.c ****  *
   9:../Libraries/XMCLib/src/xmc_acmp.c ****  * Copyright (c) 2015-2019, Infineon Technologies AG
  10:../Libraries/XMCLib/src/xmc_acmp.c ****  * All rights reserved.                        
  11:../Libraries/XMCLib/src/xmc_acmp.c ****  *                                             
  12:../Libraries/XMCLib/src/xmc_acmp.c ****  * Redistribution and use in source and binary forms, with or without modification,are permitted pr
  13:../Libraries/XMCLib/src/xmc_acmp.c ****  * following conditions are met:   
  14:../Libraries/XMCLib/src/xmc_acmp.c ****  *                                                                              
  15:../Libraries/XMCLib/src/xmc_acmp.c ****  * Redistributions of source code must retain the above copyright notice, this list of conditions a
  16:../Libraries/XMCLib/src/xmc_acmp.c ****  * disclaimer.                        
  17:../Libraries/XMCLib/src/xmc_acmp.c ****  * 
  18:../Libraries/XMCLib/src/xmc_acmp.c ****  * Redistributions in binary form must reproduce the above copyright notice, this list of condition
  19:../Libraries/XMCLib/src/xmc_acmp.c ****  * disclaimer in the documentation and/or other materials provided with the distribution.          
  20:../Libraries/XMCLib/src/xmc_acmp.c ****  * 
  21:../Libraries/XMCLib/src/xmc_acmp.c ****  * Neither the name of the copyright holders nor the names of its contributors may be used to endor
  22:../Libraries/XMCLib/src/xmc_acmp.c ****  * products derived from this software without specific prior written permission.                  
  23:../Libraries/XMCLib/src/xmc_acmp.c ****  *                                                                              
  24:../Libraries/XMCLib/src/xmc_acmp.c ****  * THIS SOFTWARE IS PROVIDED BY THE COPYRIGHT HOLDERS AND CONTRIBUTORS "AS IS" AND ANY EXPRESS OR I
  25:../Libraries/XMCLib/src/xmc_acmp.c ****  * INCLUDING, BUT NOT LIMITED TO, THE IMPLIED WARRANTIES OF MERCHANTABILITY AND FITNESS FOR A PARTI
  26:../Libraries/XMCLib/src/xmc_acmp.c ****  * DISCLAIMED. IN NO EVENT SHALL THE COPYRIGHT HOLDER OR CONTRIBUTORS BE LIABLE  FOR ANY DIRECT, IN
  27:../Libraries/XMCLib/src/xmc_acmp.c ****  * SPECIAL, EXEMPLARY, OR CONSEQUENTIAL DAMAGES (INCLUDING, BUT NOT LIMITED TO, PROCUREMENT OF SUBS
  28:../Libraries/XMCLib/src/xmc_acmp.c ****  * SERVICES; LOSS OF USE, DATA, OR PROFITS; OR BUSINESS INTERRUPTION) HOWEVER CAUSED AND ON ANY THE
  29:../Libraries/XMCLib/src/xmc_acmp.c ****  * WHETHER IN CONTRACT, STRICT LIABILITY,OR TORT (INCLUDING NEGLIGENCE OR OTHERWISE) ARISING IN ANY
  30:../Libraries/XMCLib/src/xmc_acmp.c ****  * OF THIS SOFTWARE, EVEN IF ADVISED OF THE POSSIBILITY OF SUCH DAMAGE.                            
  31:../Libraries/XMCLib/src/xmc_acmp.c ****  *                                                                              
  32:../Libraries/XMCLib/src/xmc_acmp.c ****  * To improve the quality of the software, users are encouraged to share modifications, enhancement
  33:../Libraries/XMCLib/src/xmc_acmp.c ****  * Infineon Technologies AG dave@infineon.com).                                                    
  34:../Libraries/XMCLib/src/xmc_acmp.c ****  **************************************************************************************************
  35:../Libraries/XMCLib/src/xmc_acmp.c ****  *
  36:../Libraries/XMCLib/src/xmc_acmp.c ****  * Change History
  37:../Libraries/XMCLib/src/xmc_acmp.c ****  * --------------
  38:../Libraries/XMCLib/src/xmc_acmp.c ****  *
  39:../Libraries/XMCLib/src/xmc_acmp.c ****  * 2014-12-10:
  40:../Libraries/XMCLib/src/xmc_acmp.c ****  *     - Initial <br>
  41:../Libraries/XMCLib/src/xmc_acmp.c ****  * 2015-02-20:
  42:../Libraries/XMCLib/src/xmc_acmp.c ****  *     - Removed unused declarations<br> 
  43:../Libraries/XMCLib/src/xmc_acmp.c ****  * 2015-05-08:
  44:../Libraries/XMCLib/src/xmc_acmp.c ****  *     - Fixed sequence problem of low power mode in XMC_ACMP_Init() API<br>
  45:../Libraries/XMCLib/src/xmc_acmp.c ****  *     - Fixed wrong register setting in XMC_ACMP_SetInput() API<br> 
  46:../Libraries/XMCLib/src/xmc_acmp.c ****  *     - Removed return type variable and by default comparator enable from XMC_ACMP_Init() API. <b
  47:../Libraries/XMCLib/src/xmc_acmp.c ****  *       Additional call to XMC_ACMP_EnableComparator() API needed to start Comparator after Init.<
  48:../Libraries/XMCLib/src/xmc_acmp.c ****  * 2015-06-04:
  49:../Libraries/XMCLib/src/xmc_acmp.c ****  *     - Removed return type variable and by default comparator enable from XMC_ACMP_Init() API. <b
  50:../Libraries/XMCLib/src/xmc_acmp.c ****  *     - Divided XMC_ACMP_SetInput into two 3 APIs to reduce the code size and complexity as stated
  51:../Libraries/XMCLib/src/xmc_acmp.c ****  *       (a)XMC_ACMP_EnableReferenceDivider <br>
  52:../Libraries/XMCLib/src/xmc_acmp.c ****  *       (b)XMC_ACMP_DisableReferenceDivider <br> 
  53:../Libraries/XMCLib/src/xmc_acmp.c ****  *       (c)XMC_ACMP_SetInput <br> 
  54:../Libraries/XMCLib/src/xmc_acmp.c ****  *     - Optimized enable and disable API's and moved to header file as static inline APIs.
  55:../Libraries/XMCLib/src/xmc_acmp.c ****  *     - XMC_ACMP_t typedef changed to structure which overrides the standard header file structure
  56:../Libraries/XMCLib/src/xmc_acmp.c ****  * 2015-06-20: 
  57:../Libraries/XMCLib/src/xmc_acmp.c ****  *     - Removed definition of GetDriverVersion API 
  58:../Libraries/XMCLib/src/xmc_acmp.c ****  * @endcond 
  59:../Libraries/XMCLib/src/xmc_acmp.c ****  *
  60:../Libraries/XMCLib/src/xmc_acmp.c ****  */
  61:../Libraries/XMCLib/src/xmc_acmp.c **** 
  62:../Libraries/XMCLib/src/xmc_acmp.c **** 
  63:../Libraries/XMCLib/src/xmc_acmp.c **** /**************************************************************************************************
  64:../Libraries/XMCLib/src/xmc_acmp.c ****  * HEADER FILES
  65:../Libraries/XMCLib/src/xmc_acmp.c ****  **************************************************************************************************
  66:../Libraries/XMCLib/src/xmc_acmp.c **** #include <xmc_acmp.h>
  67:../Libraries/XMCLib/src/xmc_acmp.c **** 
  68:../Libraries/XMCLib/src/xmc_acmp.c **** /* If ACMP is available*/
  69:../Libraries/XMCLib/src/xmc_acmp.c **** #if defined (COMPARATOR)
  70:../Libraries/XMCLib/src/xmc_acmp.c **** 
  71:../Libraries/XMCLib/src/xmc_acmp.c **** /**************************************************************************************************
  72:../Libraries/XMCLib/src/xmc_acmp.c ****  * MACROS
  73:../Libraries/XMCLib/src/xmc_acmp.c ****  **************************************************************************************************
  74:../Libraries/XMCLib/src/xmc_acmp.c **** 
  75:../Libraries/XMCLib/src/xmc_acmp.c **** #define XMC_ACMP_INSTANCE_1    (1U) /* Instance number for Slice-1 */
  76:../Libraries/XMCLib/src/xmc_acmp.c **** 
  77:../Libraries/XMCLib/src/xmc_acmp.c **** /**************************************************************************************************
  78:../Libraries/XMCLib/src/xmc_acmp.c ****  * API IMPLEMENTATION
  79:../Libraries/XMCLib/src/xmc_acmp.c ****  **************************************************************************************************
  80:../Libraries/XMCLib/src/xmc_acmp.c **** 
  81:../Libraries/XMCLib/src/xmc_acmp.c **** /* API to initialize an instance of ACMP module */
  82:../Libraries/XMCLib/src/xmc_acmp.c **** void XMC_ACMP_Init(XMC_ACMP_t *const peripheral, uint32_t instance, const XMC_ACMP_CONFIG_t *const 
  83:../Libraries/XMCLib/src/xmc_acmp.c **** {
  26              	 .loc 1 83 0
  27              	 .cfi_startproc
  28              	.LVL0:
  84:../Libraries/XMCLib/src/xmc_acmp.c **** 
  85:../Libraries/XMCLib/src/xmc_acmp.c ****   XMC_ASSERT("XMC_ACMP_Init:NULL Configuration", (config != (XMC_ACMP_CONFIG_t *)NULL))
  86:../Libraries/XMCLib/src/xmc_acmp.c ****   XMC_ASSERT("XMC_ACMP_Init:Wrong module pointer", XMC_ACMP_CHECK_MODULE_PTR(peripheral))
  87:../Libraries/XMCLib/src/xmc_acmp.c ****   XMC_ASSERT("XMC_ACMP_Init:Wrong instance number", XMC_ACMP_CHECK_INSTANCE(instance) )
  88:../Libraries/XMCLib/src/xmc_acmp.c **** 
  89:../Libraries/XMCLib/src/xmc_acmp.c ****   /*
  90:../Libraries/XMCLib/src/xmc_acmp.c ****    * Initializes the comparator with configuration supplied. Low power node setting is retained dur
  91:../Libraries/XMCLib/src/xmc_acmp.c ****    * All the instances passed are handled with low power setting, to avoid conditional check for AC
  92:../Libraries/XMCLib/src/xmc_acmp.c ****    * This reduces the code size. No side effects, because this register bit field is empty for othe
  93:../Libraries/XMCLib/src/xmc_acmp.c ****    */
  94:../Libraries/XMCLib/src/xmc_acmp.c ****   peripheral->ANACMP[instance] = ((peripheral->ANACMP[instance] & (uint32_t)COMPARATOR_ANACMP0_CMP_
  29              	 .loc 1 94 0
  30 0000 8023     	 mov r3,#128
  83:../Libraries/XMCLib/src/xmc_acmp.c **** 
  31              	 .loc 1 83 0
  32 0002 10B5     	 push {r4,lr}
  33              	.LCFI0:
  34              	 .cfi_def_cfa_offset 8
  35              	 .cfi_offset 4,-8
  36              	 .cfi_offset 14,-4
  37 0004 8900     	 lsl r1,r1,#2
  38              	.LVL1:
  39 0006 4118     	 add r1,r0,r1
  40              	 .loc 1 94 0
  41 0008 0348     	 ldr r0,.L2
  42              	.LVL2:
  43 000a 1268     	 ldr r2,[r2]
  44              	.LVL3:
  45 000c 0C58     	 ldr r4,[r1,r0]
  46 000e 5B00     	 lsl r3,r3,#1
  47 0010 2340     	 and r3,r4
  48 0012 1343     	 orr r3,r2
  49 0014 0B50     	 str r3,[r1,r0]
  95:../Libraries/XMCLib/src/xmc_acmp.c ****                                  (uint32_t)config->anacmp;
  96:../Libraries/XMCLib/src/xmc_acmp.c **** }
  50              	 .loc 1 96 0
  51              	 
  52 0016 10BD     	 pop {r4,pc}
  53              	.L3:
  54              	 .align 2
  55              	.L2:
  56 0018 5C0B0000 	 .word 2908
  57              	 .cfi_endproc
  58              	.LFE53:
  60              	 .section .text.XMC_ACMP_SetInput,"ax",%progbits
  61              	 .align 1
  62              	 .global XMC_ACMP_SetInput
  63              	 .code 16
  64              	 .thumb_func
  66              	XMC_ACMP_SetInput:
  67              	.LFB54:
  97:../Libraries/XMCLib/src/xmc_acmp.c **** 
  98:../Libraries/XMCLib/src/xmc_acmp.c **** /* API to select INP source */
  99:../Libraries/XMCLib/src/xmc_acmp.c **** void XMC_ACMP_SetInput(XMC_ACMP_t *const peripheral, uint32_t instance, XMC_ACMP_INP_SOURCE_t sourc
 100:../Libraries/XMCLib/src/xmc_acmp.c **** {
  68              	 .loc 1 100 0
  69              	 .cfi_startproc
  70              	.LVL4:
  71 0000 10B5     	 push {r4,lr}
  72              	.LCFI1:
  73              	 .cfi_def_cfa_offset 8
  74              	 .cfi_offset 4,-8
  75              	 .cfi_offset 14,-4
 101:../Libraries/XMCLib/src/xmc_acmp.c ****   XMC_ASSERT("XMC_ACMP_SetInput:Wrong module pointer", XMC_ACMP_CHECK_MODULE_PTR(peripheral))
 102:../Libraries/XMCLib/src/xmc_acmp.c ****   XMC_ASSERT("XMC_ACMP_SetInput:Wrong instance number", ((instance != XMC_ACMP_INSTANCE_1) &&
 103:../Libraries/XMCLib/src/xmc_acmp.c ****                                                           XMC_ACMP_CHECK_INSTANCE(instance)) )
 104:../Libraries/XMCLib/src/xmc_acmp.c ****   XMC_ASSERT("XMC_ACMP_SetInput:Wrong input source", ((source == XMC_ACMP_INP_SOURCE_STANDARD_PORT)
 105:../Libraries/XMCLib/src/xmc_acmp.c ****                                                       (source == XMC_ACMP_INP_SOURCE_ACMP1_INP_PORT
 106:../Libraries/XMCLib/src/xmc_acmp.c **** 
 107:../Libraries/XMCLib/src/xmc_acmp.c ****   /*
 108:../Libraries/XMCLib/src/xmc_acmp.c ****    * Three options of Input Setting are listed below
 109:../Libraries/XMCLib/src/xmc_acmp.c ****    * 1. The comparator inputs aren't connected to other comparator inputs
 110:../Libraries/XMCLib/src/xmc_acmp.c ****    * 2. Can program the comparators to connect ACMP0.INP to ACMP1.INP in XMC1200 AA or XMC1300 AA
 111:../Libraries/XMCLib/src/xmc_acmp.c ****    *    Can program the comparators to connect ACMP0.INN to ACMP1.INP in XMC1200 AB or XMC1300 AB o
 112:../Libraries/XMCLib/src/xmc_acmp.c ****    * 3. Can program the comparators to connect ACMP2.INP to ACMP1.INP
 113:../Libraries/XMCLib/src/xmc_acmp.c ****    * 4. Can program the comparators to connect ACMP3.INP to ACMP1.INP in XMC1400
 114:../Libraries/XMCLib/src/xmc_acmp.c ****    */
 115:../Libraries/XMCLib/src/xmc_acmp.c ****   peripheral->ANACMP[instance] = ((peripheral->ANACMP[instance] & (uint32_t)(~COMPARATOR_ANACMP0_AC
  76              	 .loc 1 115 0
  77 0002 4024     	 mov r4,#64
  78 0004 8900     	 lsl r1,r1,#2
  79              	.LVL5:
  80 0006 4118     	 add r1,r0,r1
  81 0008 0248     	 ldr r0,.L5
  82              	.LVL6:
 116:../Libraries/XMCLib/src/xmc_acmp.c ****                                  (uint32_t)source;
 117:../Libraries/XMCLib/src/xmc_acmp.c **** }
  83              	 .loc 1 117 0
  84              	 
 115:../Libraries/XMCLib/src/xmc_acmp.c ****                                  (uint32_t)source;
  85              	 .loc 1 115 0
  86 000a 0B58     	 ldr r3,[r1,r0]
  87 000c A343     	 bic r3,r4
  88 000e 1A43     	 orr r2,r3
  89              	.LVL7:
  90 0010 0A50     	 str r2,[r1,r0]
  91              	 .loc 1 117 0
  92 0012 10BD     	 pop {r4,pc}
  93              	.L6:
  94              	 .align 2
  95              	.L5:
  96 0014 5C0B0000 	 .word 2908
  97              	 .cfi_endproc
  98              	.LFE54:
 100              	 .text
 101              	.Letext0:
 102              	 .file 2 "c:\\dave_4-4-2_64bit\\dave-ide-4.4.2-64bit\\eclipse\\arm-gcc-49\\arm-none-eabi\\include\\machine\\_default_types.h"
 103              	 .file 3 "c:\\dave_4-4-2_64bit\\dave-ide-4.4.2-64bit\\eclipse\\arm-gcc-49\\arm-none-eabi\\include\\stdint.h"
 104              	 .file 4 "C:/Workspace/DAVE-4.4.2-64Bit/xmc1400-getstarted-optiga-trust-m/Libraries/XMCLib/inc/xmc_acmp.h"
 105              	 .file 5 "C:/Workspace/DAVE-4.4.2-64Bit/xmc1400-getstarted-optiga-trust-m/Libraries/CMSIS/Include/cmsis_gcc.h"