   1              	 .cpu cortex-m0
   2              	 .fpu softvfp
   3              	 .eabi_attribute 20,1
   4              	 .eabi_attribute 21,1
   5              	 .eabi_attribute 23,3
   6              	 .eabi_attribute 24,1
   7              	 .eabi_attribute 25,1
   8              	 .eabi_attribute 26,1
   9              	 .eabi_attribute 30,4
  10              	 .eabi_attribute 34,0
  11              	 .eabi_attribute 18,4
  12              	 .code 16
  13              	 .file "xmc_vadc.c"
  14              	 .text
  15              	.Ltext0:
  16              	 .cfi_sections .debug_frame
  17              	 .section .text.XMC_VADC_GLOBAL_EnableModule,"ax",%progbits
  18              	 .align 1
  19              	 .global XMC_VADC_GLOBAL_EnableModule
  20              	 .code 16
  21              	 .thumb_func
  23              	XMC_VADC_GLOBAL_EnableModule:
  24              	.LFB157:
  25              	 .file 1 "../Libraries/XMCLib/src/xmc_vadc.c"
   1:../Libraries/XMCLib/src/xmc_vadc.c **** /**
   2:../Libraries/XMCLib/src/xmc_vadc.c ****  * @file xmc_vadc.c
   3:../Libraries/XMCLib/src/xmc_vadc.c ****  * @date 2019-05-07
   4:../Libraries/XMCLib/src/xmc_vadc.c ****  *
   5:../Libraries/XMCLib/src/xmc_vadc.c ****  * @cond
   6:../Libraries/XMCLib/src/xmc_vadc.c ****  **************************************************************************************************
   7:../Libraries/XMCLib/src/xmc_vadc.c ****  * XMClib v2.1.24 - XMC Peripheral Driver Library 
   8:../Libraries/XMCLib/src/xmc_vadc.c ****  *
   9:../Libraries/XMCLib/src/xmc_vadc.c ****  * Copyright (c) 2015-2019, Infineon Technologies AG
  10:../Libraries/XMCLib/src/xmc_vadc.c ****  * All rights reserved.                        
  11:../Libraries/XMCLib/src/xmc_vadc.c ****  *                                             
  12:../Libraries/XMCLib/src/xmc_vadc.c ****  * Redistribution and use in source and binary forms, with or without modification,are permitted pr
  13:../Libraries/XMCLib/src/xmc_vadc.c ****  * following conditions are met:   
  14:../Libraries/XMCLib/src/xmc_vadc.c ****  *                                                                              
  15:../Libraries/XMCLib/src/xmc_vadc.c ****  * Redistributions of source code must retain the above copyright notice, this list of conditions a
  16:../Libraries/XMCLib/src/xmc_vadc.c ****  * disclaimer.                        
  17:../Libraries/XMCLib/src/xmc_vadc.c ****  * 
  18:../Libraries/XMCLib/src/xmc_vadc.c ****  * Redistributions in binary form must reproduce the above copyright notice, this list of condition
  19:../Libraries/XMCLib/src/xmc_vadc.c ****  * disclaimer in the documentation and/or other materials provided with the distribution.          
  20:../Libraries/XMCLib/src/xmc_vadc.c ****  * 
  21:../Libraries/XMCLib/src/xmc_vadc.c ****  * Neither the name of the copyright holders nor the names of its contributors may be used to endor
  22:../Libraries/XMCLib/src/xmc_vadc.c ****  * products derived from this software without specific prior written permission.                  
  23:../Libraries/XMCLib/src/xmc_vadc.c ****  *                                                                              
  24:../Libraries/XMCLib/src/xmc_vadc.c ****  * THIS SOFTWARE IS PROVIDED BY THE COPYRIGHT HOLDERS AND CONTRIBUTORS "AS IS" AND ANY EXPRESS OR I
  25:../Libraries/XMCLib/src/xmc_vadc.c ****  * INCLUDING, BUT NOT LIMITED TO, THE IMPLIED WARRANTIES OF MERCHANTABILITY AND FITNESS FOR A PARTI
  26:../Libraries/XMCLib/src/xmc_vadc.c ****  * DISCLAIMED. IN NO EVENT SHALL THE COPYRIGHT HOLDER OR CONTRIBUTORS BE LIABLE  FOR ANY DIRECT, IN
  27:../Libraries/XMCLib/src/xmc_vadc.c ****  * SPECIAL, EXEMPLARY, OR CONSEQUENTIAL DAMAGES (INCLUDING, BUT NOT LIMITED TO, PROCUREMENT OF SUBS
  28:../Libraries/XMCLib/src/xmc_vadc.c ****  * SERVICES; LOSS OF USE, DATA, OR PROFITS; OR BUSINESS INTERRUPTION) HOWEVER CAUSED AND ON ANY THE
  29:../Libraries/XMCLib/src/xmc_vadc.c ****  * WHETHER IN CONTRACT, STRICT LIABILITY,OR TORT (INCLUDING NEGLIGENCE OR OTHERWISE) ARISING IN ANY
  30:../Libraries/XMCLib/src/xmc_vadc.c ****  * OF THIS SOFTWARE, EVEN IF ADVISED OF THE POSSIBILITY OF SUCH DAMAGE.                            
  31:../Libraries/XMCLib/src/xmc_vadc.c ****  *                                                                              
  32:../Libraries/XMCLib/src/xmc_vadc.c ****  * To improve the quality of the software, users are encouraged to share modifications, enhancement
  33:../Libraries/XMCLib/src/xmc_vadc.c ****  * Infineon Technologies AG dave@infineon.com).                                                    
  34:../Libraries/XMCLib/src/xmc_vadc.c ****  **************************************************************************************************
  35:../Libraries/XMCLib/src/xmc_vadc.c ****  *
  36:../Libraries/XMCLib/src/xmc_vadc.c ****  * Change History
  37:../Libraries/XMCLib/src/xmc_vadc.c ****  * --------------
  38:../Libraries/XMCLib/src/xmc_vadc.c ****  *
  39:../Libraries/XMCLib/src/xmc_vadc.c ****  * 2015-02-15:
  40:../Libraries/XMCLib/src/xmc_vadc.c ****  *     - Initial <br>
  41:../Libraries/XMCLib/src/xmc_vadc.c ****  *      
  42:../Libraries/XMCLib/src/xmc_vadc.c ****  * 2015-02-20:
  43:../Libraries/XMCLib/src/xmc_vadc.c ****  *     - Revised for XMC1201 device.<br>
  44:../Libraries/XMCLib/src/xmc_vadc.c ****  *   
  45:../Libraries/XMCLib/src/xmc_vadc.c ****  * 2015-04-27:
  46:../Libraries/XMCLib/src/xmc_vadc.c ****  *     - Added new APIs for SHS.<br>
  47:../Libraries/XMCLib/src/xmc_vadc.c ****  *     - Added New APIs for trigger edge selection.<BR>
  48:../Libraries/XMCLib/src/xmc_vadc.c ****  *     - Added new APIs for Queue flush entries, boundary selection, Boundary node pointer.<BR>
  49:../Libraries/XMCLib/src/xmc_vadc.c ****  *     - Revised GatingMode APIs and EMUX Control Init API.<BR>
  50:../Libraries/XMCLib/src/xmc_vadc.c ****  *
  51:../Libraries/XMCLib/src/xmc_vadc.c ****  * 2015-06-20:
  52:../Libraries/XMCLib/src/xmc_vadc.c ****  *     - Removed version macros and declaration of GetDriverVersion API
  53:../Libraries/XMCLib/src/xmc_vadc.c ****  *
  54:../Libraries/XMCLib/src/xmc_vadc.c ****  * 2015-06-25:
  55:../Libraries/XMCLib/src/xmc_vadc.c ****  *     - BFL configuration in channel initialization fixed.
  56:../Libraries/XMCLib/src/xmc_vadc.c ****  *
  57:../Libraries/XMCLib/src/xmc_vadc.c ****  * 2015-07-28:
  58:../Libraries/XMCLib/src/xmc_vadc.c ****  *     - CLOCK_GATING_SUPPORTED and PERIPHERAL_RESET_SUPPORTED macros used
  59:../Libraries/XMCLib/src/xmc_vadc.c ****  *     - Clubbed the macro definitions for XMC13 XMC12 and XMC14
  60:../Libraries/XMCLib/src/xmc_vadc.c ****  *     - Clubbed the macro definitions for XMC44 XMC47 and XMC48
  61:../Libraries/XMCLib/src/xmc_vadc.c ****  *     - New APIs Created.
  62:../Libraries/XMCLib/src/xmc_vadc.c ****  *           - XMC_VADC_GLOBAL_SetIndividualBoundary
  63:../Libraries/XMCLib/src/xmc_vadc.c ****  *           - XMC_VADC_GROUP_SetIndividualBoundary
  64:../Libraries/XMCLib/src/xmc_vadc.c ****  *           - XMC_VADC_GROUP_GetAlias
  65:../Libraries/XMCLib/src/xmc_vadc.c ****  *           - XMC_VADC_GROUP_GetInputClass
  66:../Libraries/XMCLib/src/xmc_vadc.c ****  *           - XMC_VADC_GROUP_ChannelSetIclass
  67:../Libraries/XMCLib/src/xmc_vadc.c ****  *           - XMC_VADC_GROUP_ChannelGetResultAlignment
  68:../Libraries/XMCLib/src/xmc_vadc.c ****  *           - XMC_VADC_GROUP_ChannelGetInputClass
  69:../Libraries/XMCLib/src/xmc_vadc.c ****  *           - XMC_VADC_GROUP_SetResultSubtractionValue
  70:../Libraries/XMCLib/src/xmc_vadc.c ****  *
  71:../Libraries/XMCLib/src/xmc_vadc.c ****  * 2015-12-01:
  72:../Libraries/XMCLib/src/xmc_vadc.c ****  *     - Fixed the analog calibration voltage for XMC1100 to external reference upper supply range.
  73:../Libraries/XMCLib/src/xmc_vadc.c ****  *     - Fixed the XMC_VADC_GLOBAL_StartupCalibration() for XMC1100.
  74:../Libraries/XMCLib/src/xmc_vadc.c ****  *
  75:../Libraries/XMCLib/src/xmc_vadc.c ****  * 2016-06-17:
  76:../Libraries/XMCLib/src/xmc_vadc.c ****  *     - New macros added XMC_VADC_SHS_FULL_SET_REG, XMC_VADC_RESULT_PRIORITY_AVAILABLE 
  77:../Libraries/XMCLib/src/xmc_vadc.c ****  *       and XMC_VADC_SYNCTR_START_LOCATION
  78:../Libraries/XMCLib/src/xmc_vadc.c ****  *     - New Enum added XMC_VADC_SHS_GAIN_LEVEL_t and XMC_VADC_SYNCTR_EVAL_t
  79:../Libraries/XMCLib/src/xmc_vadc.c ****  *     - Fixed the EVAL configuration in API XMC_VADC_GROUP_CheckSlaveReadiness and XMC_VADC_GROUP_
  80:../Libraries/XMCLib/src/xmc_vadc.c ****  *     - New APIs added are:
  81:../Libraries/XMCLib/src/xmc_vadc.c ****  *           - XMC_VADC_GROUP_SetSyncSlaveReadySignal
  82:../Libraries/XMCLib/src/xmc_vadc.c ****  *           - XMC_VADC_GROUP_ChannelGetAssertedEvents
  83:../Libraries/XMCLib/src/xmc_vadc.c ****  *           - XMC_VADC_GROUP_GetAssertedResultEvents
  84:../Libraries/XMCLib/src/xmc_vadc.c ****  *           - XMC_VADC_GROUP_SetResultRegPriority
  85:../Libraries/XMCLib/src/xmc_vadc.c ****  *           - XMC_VADC_GROUP_SetSyncReadySignal
  86:../Libraries/XMCLib/src/xmc_vadc.c ****  *           - XMC_VADC_GROUP_GetSyncReadySignal
  87:../Libraries/XMCLib/src/xmc_vadc.c ****  *           - XMC_VADC_GROUP_GetResultRegPriority
  88:../Libraries/XMCLib/src/xmc_vadc.c ****  *
  89:../Libraries/XMCLib/src/xmc_vadc.c ****  * 2017-01-11:
  90:../Libraries/XMCLib/src/xmc_vadc.c ****  *     - Fix assertion in XMC_VADC_GROUP_CheckSlaveReadiness() and XMC_VADC_GROUP_IgnoreSlaveReadin
  91:../Libraries/XMCLib/src/xmc_vadc.c ****  *
  92:../Libraries/XMCLib/src/xmc_vadc.c ****  * 2018-06-26:
  93:../Libraries/XMCLib/src/xmc_vadc.c ****  *     - Fixed XMC_VADC_GLOBAL_StartupCalibration(), added wait until calibration is started
  94:../Libraries/XMCLib/src/xmc_vadc.c ****  *
  95:../Libraries/XMCLib/src/xmc_vadc.c ****  * 2019-03-30:
  96:../Libraries/XMCLib/src/xmc_vadc.c ****  *     - Changed XMC_VADC_GROUP_SetChannelAlias() to inline function
  97:../Libraries/XMCLib/src/xmc_vadc.c ****  *
  98:../Libraries/XMCLib/src/xmc_vadc.c ****  * 2019-05-07:
  99:../Libraries/XMCLib/src/xmc_vadc.c ****  *     - Fix compilation warnings
 100:../Libraries/XMCLib/src/xmc_vadc.c ****  * 
 101:../Libraries/XMCLib/src/xmc_vadc.c ****  * @endcond 
 102:../Libraries/XMCLib/src/xmc_vadc.c ****  *
 103:../Libraries/XMCLib/src/xmc_vadc.c ****  */
 104:../Libraries/XMCLib/src/xmc_vadc.c **** 
 105:../Libraries/XMCLib/src/xmc_vadc.c **** /**************************************************************************************************
 106:../Libraries/XMCLib/src/xmc_vadc.c ****  * HEADER FILES
 107:../Libraries/XMCLib/src/xmc_vadc.c ****  **************************************************************************************************
 108:../Libraries/XMCLib/src/xmc_vadc.c **** #include <xmc_vadc.h>
 109:../Libraries/XMCLib/src/xmc_vadc.c **** 
 110:../Libraries/XMCLib/src/xmc_vadc.c **** /**************************************************************************************************
 111:../Libraries/XMCLib/src/xmc_vadc.c ****  * MACROS
 112:../Libraries/XMCLib/src/xmc_vadc.c ****  **************************************************************************************************
 113:../Libraries/XMCLib/src/xmc_vadc.c **** #define XMC_VADC_MAX_ICLASS_SET          (2U)  /**< Defines the maximum number of conversion parame
 114:../Libraries/XMCLib/src/xmc_vadc.c **** #define XMC_VADC_NUM_EMUX_INTERFACES     (2U)  /**< Defines the maximum number of external multiple
 115:../Libraries/XMCLib/src/xmc_vadc.c **** 
 116:../Libraries/XMCLib/src/xmc_vadc.c **** #define XMC_VADC_RESULT_LEFT_ALIGN_10BIT (2U)  /**< Defines the 10 bit converted result register le
 117:../Libraries/XMCLib/src/xmc_vadc.c ****                                                     is used in the XMC_VADC_GLOBAL_SetCompareValue(
 118:../Libraries/XMCLib/src/xmc_vadc.c **** 
 119:../Libraries/XMCLib/src/xmc_vadc.c **** #define XMC_VADC_SYNCTR_START_LOCATION (3U)  /**< Defines the location in SYNCTR needed for calcula
 120:../Libraries/XMCLib/src/xmc_vadc.c **** /**************************************************************************************************
 121:../Libraries/XMCLib/src/xmc_vadc.c ****  * ENUMS
 122:../Libraries/XMCLib/src/xmc_vadc.c ****  **************************************************************************************************
 123:../Libraries/XMCLib/src/xmc_vadc.c **** 
 124:../Libraries/XMCLib/src/xmc_vadc.c **** /**************************************************************************************************
 125:../Libraries/XMCLib/src/xmc_vadc.c ****  * DATA STRUCTURES
 126:../Libraries/XMCLib/src/xmc_vadc.c ****  **************************************************************************************************
 127:../Libraries/XMCLib/src/xmc_vadc.c **** 
 128:../Libraries/XMCLib/src/xmc_vadc.c **** /**************************************************************************************************
 129:../Libraries/XMCLib/src/xmc_vadc.c ****  * GLOBAL DATA
 130:../Libraries/XMCLib/src/xmc_vadc.c ****  **************************************************************************************************
 131:../Libraries/XMCLib/src/xmc_vadc.c **** 
 132:../Libraries/XMCLib/src/xmc_vadc.c **** #if (XMC_VADC_GROUP_AVAILABLE == 1U)
 133:../Libraries/XMCLib/src/xmc_vadc.c **** 
 134:../Libraries/XMCLib/src/xmc_vadc.c **** #if (XMC_VADC_MAXIMUM_NUM_GROUPS == 4U) 
 135:../Libraries/XMCLib/src/xmc_vadc.c **** static VADC_G_TypeDef *const g_xmc_vadc_group_array[XMC_VADC_MAXIMUM_NUM_GROUPS] = {(VADC_G_TypeDef
 136:../Libraries/XMCLib/src/xmc_vadc.c ****                                                                                     (VADC_G_TypeDef
 137:../Libraries/XMCLib/src/xmc_vadc.c ****                                                                                     (VADC_G_TypeDef
 138:../Libraries/XMCLib/src/xmc_vadc.c ****                                                                                     (VADC_G_TypeDef
 139:../Libraries/XMCLib/src/xmc_vadc.c **** #else
 140:../Libraries/XMCLib/src/xmc_vadc.c **** static VADC_G_TypeDef *const g_xmc_vadc_group_array[XMC_VADC_MAXIMUM_NUM_GROUPS] = {(VADC_G_TypeDef
 141:../Libraries/XMCLib/src/xmc_vadc.c ****                                                                                     (VADC_G_TypeDef
 142:../Libraries/XMCLib/src/xmc_vadc.c **** #endif
 143:../Libraries/XMCLib/src/xmc_vadc.c **** 
 144:../Libraries/XMCLib/src/xmc_vadc.c **** #endif 
 145:../Libraries/XMCLib/src/xmc_vadc.c **** 
 146:../Libraries/XMCLib/src/xmc_vadc.c **** /**************************************************************************************************
 147:../Libraries/XMCLib/src/xmc_vadc.c ****  * LOCAL ROUTINES
 148:../Libraries/XMCLib/src/xmc_vadc.c ****  **************************************************************************************************
 149:../Libraries/XMCLib/src/xmc_vadc.c **** 
 150:../Libraries/XMCLib/src/xmc_vadc.c **** /**************************************************************************************************
 151:../Libraries/XMCLib/src/xmc_vadc.c ****  * API IMPLEMENTATION
 152:../Libraries/XMCLib/src/xmc_vadc.c ****  **************************************************************************************************
 153:../Libraries/XMCLib/src/xmc_vadc.c **** 
 154:../Libraries/XMCLib/src/xmc_vadc.c **** /*API to enable the VADC Module*/
 155:../Libraries/XMCLib/src/xmc_vadc.c **** void XMC_VADC_GLOBAL_EnableModule(void)
 156:../Libraries/XMCLib/src/xmc_vadc.c **** {
  26              	 .loc 1 156 0
  27              	 .cfi_startproc
 157:../Libraries/XMCLib/src/xmc_vadc.c ****   /*
 158:../Libraries/XMCLib/src/xmc_vadc.c ****    * Enable Out of Range Comparator for ADC channels pins P2.2to P2.9. This hack is applicable only
 159:../Libraries/XMCLib/src/xmc_vadc.c ****    * and in particular the G11 step.
 160:../Libraries/XMCLib/src/xmc_vadc.c ****    *
 161:../Libraries/XMCLib/src/xmc_vadc.c ****    * Please refer to the XMC1000 Errata sheet V1.4 released 2014-06 Errata ID : ADC_AI.003 Additona
 162:../Libraries/XMCLib/src/xmc_vadc.c ****    * function
 163:../Libraries/XMCLib/src/xmc_vadc.c ****    */
 164:../Libraries/XMCLib/src/xmc_vadc.c **** 
 165:../Libraries/XMCLib/src/xmc_vadc.c **** #if defined (COMPARATOR)
 166:../Libraries/XMCLib/src/xmc_vadc.c ****   COMPARATOR->ORCCTRL = (uint32_t)0xFF;
  28              	 .loc 1 166 0
  29 0000 FF22     	 mov r2,#255
 156:../Libraries/XMCLib/src/xmc_vadc.c ****   /*
  30              	 .loc 1 156 0
  31 0002 08B5     	 push {r3,lr}
  32              	.LCFI0:
  33              	 .cfi_def_cfa_offset 8
  34              	 .cfi_offset 3,-8
  35              	 .cfi_offset 14,-4
  36              	 .loc 1 166 0
  37 0004 024B     	 ldr r3,.L2
 167:../Libraries/XMCLib/src/xmc_vadc.c **** #endif
 168:../Libraries/XMCLib/src/xmc_vadc.c **** 
 169:../Libraries/XMCLib/src/xmc_vadc.c **** #if defined(CLOCK_GATING_SUPPORTED)
 170:../Libraries/XMCLib/src/xmc_vadc.c ****     XMC_SCU_CLOCK_UngatePeripheralClock(XMC_SCU_PERIPHERAL_CLOCK_VADC);
  38              	 .loc 1 170 0
  39 0006 0120     	 mov r0,#1
 166:../Libraries/XMCLib/src/xmc_vadc.c **** #endif
  40              	 .loc 1 166 0
  41 0008 1A60     	 str r2,[r3]
  42              	 .loc 1 170 0
  43 000a FFF7FEFF 	 bl XMC_SCU_CLOCK_UngatePeripheralClock
  44              	.LVL0:
 171:../Libraries/XMCLib/src/xmc_vadc.c **** #endif
 172:../Libraries/XMCLib/src/xmc_vadc.c **** 
 173:../Libraries/XMCLib/src/xmc_vadc.c **** #if defined(PERIPHERAL_RESET_SUPPORTED)
 174:../Libraries/XMCLib/src/xmc_vadc.c ****   /* Reset the Hardware */
 175:../Libraries/XMCLib/src/xmc_vadc.c ****   XMC_SCU_RESET_DeassertPeripheralReset((XMC_SCU_PERIPHERAL_RESET_t)XMC_SCU_PERIPHERAL_RESET_VADC )
 176:../Libraries/XMCLib/src/xmc_vadc.c **** #endif
 177:../Libraries/XMCLib/src/xmc_vadc.c **** }
  45              	 .loc 1 177 0
  46              	 
  47 000e 08BD     	 pop {r3,pc}
  48              	.L3:
  49              	 .align 2
  50              	.L2:
  51 0010 00050140 	 .word 1073808640
  52              	 .cfi_endproc
  53              	.LFE157:
  55              	 .section .text.XMC_VADC_GLOBAL_DisableModule,"ax",%progbits
  56              	 .align 1
  57              	 .global XMC_VADC_GLOBAL_DisableModule
  58              	 .code 16
  59              	 .thumb_func
  61              	XMC_VADC_GLOBAL_DisableModule:
  62              	.LFB158:
 178:../Libraries/XMCLib/src/xmc_vadc.c **** 
 179:../Libraries/XMCLib/src/xmc_vadc.c **** /*API to Disable the VADC Module*/
 180:../Libraries/XMCLib/src/xmc_vadc.c **** void XMC_VADC_GLOBAL_DisableModule(void)
 181:../Libraries/XMCLib/src/xmc_vadc.c **** {
  63              	 .loc 1 181 0
  64              	 .cfi_startproc
  65 0000 08B5     	 push {r3,lr}
  66              	.LCFI1:
  67              	 .cfi_def_cfa_offset 8
  68              	 .cfi_offset 3,-8
  69              	 .cfi_offset 14,-4
 182:../Libraries/XMCLib/src/xmc_vadc.c **** #if defined(PERIPHERAL_RESET_SUPPORTED)
 183:../Libraries/XMCLib/src/xmc_vadc.c ****   /* Reset the Hardware */
 184:../Libraries/XMCLib/src/xmc_vadc.c ****   XMC_SCU_RESET_AssertPeripheralReset((XMC_SCU_PERIPHERAL_RESET_t)XMC_SCU_PERIPHERAL_RESET_VADC );
 185:../Libraries/XMCLib/src/xmc_vadc.c **** #endif
 186:../Libraries/XMCLib/src/xmc_vadc.c **** 
 187:../Libraries/XMCLib/src/xmc_vadc.c **** #if defined(CLOCK_GATING_SUPPORTED)
 188:../Libraries/XMCLib/src/xmc_vadc.c ****   XMC_SCU_CLOCK_GatePeripheralClock(XMC_SCU_PERIPHERAL_CLOCK_VADC);
  70              	 .loc 1 188 0
  71 0002 0120     	 mov r0,#1
  72 0004 FFF7FEFF 	 bl XMC_SCU_CLOCK_GatePeripheralClock
  73              	.LVL1:
 189:../Libraries/XMCLib/src/xmc_vadc.c **** #endif
 190:../Libraries/XMCLib/src/xmc_vadc.c **** 
 191:../Libraries/XMCLib/src/xmc_vadc.c **** }
  74              	 .loc 1 191 0
  75              	 
  76 0008 08BD     	 pop {r3,pc}
  77              	 .cfi_endproc
  78              	.LFE158:
  80              	 .section .text.XMC_VADC_GLOBAL_Init,"ax",%progbits
  81              	 .align 1
  82              	 .global XMC_VADC_GLOBAL_Init
  83              	 .code 16
  84              	 .thumb_func
  86              	XMC_VADC_GLOBAL_Init:
  87              	.LFB159:
 192:../Libraries/XMCLib/src/xmc_vadc.c **** 
 193:../Libraries/XMCLib/src/xmc_vadc.c **** 
 194:../Libraries/XMCLib/src/xmc_vadc.c **** /* API to initialize global resources */
 195:../Libraries/XMCLib/src/xmc_vadc.c **** void XMC_VADC_GLOBAL_Init(XMC_VADC_GLOBAL_t *const global_ptr, const XMC_VADC_GLOBAL_CONFIG_t *conf
 196:../Libraries/XMCLib/src/xmc_vadc.c **** {
  88              	 .loc 1 196 0
  89              	 .cfi_startproc
  90              	.LVL2:
  91 0000 38B5     	 push {r3,r4,r5,lr}
  92              	.LCFI2:
  93              	 .cfi_def_cfa_offset 16
  94              	 .cfi_offset 3,-16
  95              	 .cfi_offset 4,-12
  96              	 .cfi_offset 5,-8
  97              	 .cfi_offset 14,-4
  98              	 .loc 1 196 0
  99 0002 041C     	 mov r4,r0
 100 0004 0D1C     	 mov r5,r1
 197:../Libraries/XMCLib/src/xmc_vadc.c **** #if (XMC_VADC_GROUP_AVAILABLE == 0U)
 198:../Libraries/XMCLib/src/xmc_vadc.c ****   uint32_t reg;
 199:../Libraries/XMCLib/src/xmc_vadc.c **** #endif
 200:../Libraries/XMCLib/src/xmc_vadc.c ****   XMC_ASSERT("XMC_VADC_GLOBAL_Init:Wrong Module Pointer", (global_ptr == VADC))
 201:../Libraries/XMCLib/src/xmc_vadc.c **** 
 202:../Libraries/XMCLib/src/xmc_vadc.c ****   /* Enable the VADC module*/
 203:../Libraries/XMCLib/src/xmc_vadc.c ****   XMC_VADC_GLOBAL_EnableModule();
 101              	 .loc 1 203 0
 102 0006 FFF7FEFF 	 bl XMC_VADC_GLOBAL_EnableModule
 103              	.LVL3:
 204:../Libraries/XMCLib/src/xmc_vadc.c **** 
 205:../Libraries/XMCLib/src/xmc_vadc.c ****   global_ptr->CLC = (uint32_t)(config->clc);
 104              	 .loc 1 205 0
 105 000a 231C     	 mov r3,r4
 106 000c 6A69     	 ldr r2,[r5,#20]
 206:../Libraries/XMCLib/src/xmc_vadc.c **** 
 207:../Libraries/XMCLib/src/xmc_vadc.c ****   /* Clock configuration */
 208:../Libraries/XMCLib/src/xmc_vadc.c **** 
 209:../Libraries/XMCLib/src/xmc_vadc.c **** #if (XMC_VADC_GROUP_AVAILABLE == 1U)
 210:../Libraries/XMCLib/src/xmc_vadc.c ****   global_ptr->GLOBCFG  = (uint32_t)(config->clock_config.globcfg | (uint32_t)(VADC_GLOBCFG_DIVWC_Ms
 211:../Libraries/XMCLib/src/xmc_vadc.c **** #endif
 212:../Libraries/XMCLib/src/xmc_vadc.c **** 
 213:../Libraries/XMCLib/src/xmc_vadc.c ****   /* ICLASS-0 configuration */
 214:../Libraries/XMCLib/src/xmc_vadc.c ****   global_ptr->GLOBICLASS[0] = (uint32_t)(config->class0.globiclass);
 215:../Libraries/XMCLib/src/xmc_vadc.c **** 
 216:../Libraries/XMCLib/src/xmc_vadc.c ****   /* ICLASS-1 configuration */
 217:../Libraries/XMCLib/src/xmc_vadc.c ****   global_ptr->GLOBICLASS[1] = (uint32_t)(config->class1.globiclass);
 218:../Libraries/XMCLib/src/xmc_vadc.c **** 
 219:../Libraries/XMCLib/src/xmc_vadc.c **** 
 220:../Libraries/XMCLib/src/xmc_vadc.c ****   /*Result generation related configuration */
 221:../Libraries/XMCLib/src/xmc_vadc.c ****   global_ptr->GLOBRCR = (uint32_t)(config->globrcr);
 222:../Libraries/XMCLib/src/xmc_vadc.c **** 
 223:../Libraries/XMCLib/src/xmc_vadc.c **** #if (XMC_VADC_BOUNDARY_AVAILABLE == 1U)
 224:../Libraries/XMCLib/src/xmc_vadc.c **** 
 225:../Libraries/XMCLib/src/xmc_vadc.c ****   /* Boundaries */
 226:../Libraries/XMCLib/src/xmc_vadc.c ****   global_ptr->GLOBBOUND = (uint32_t)(config->globbound);
 227:../Libraries/XMCLib/src/xmc_vadc.c **** 
 228:../Libraries/XMCLib/src/xmc_vadc.c **** #endif
 229:../Libraries/XMCLib/src/xmc_vadc.c **** 
 230:../Libraries/XMCLib/src/xmc_vadc.c ****   /* Configure the SHS register that are needed for XMC11xx devices*/
 231:../Libraries/XMCLib/src/xmc_vadc.c **** #if (XMC_VADC_GROUP_AVAILABLE == 0U)
 232:../Libraries/XMCLib/src/xmc_vadc.c **** 
 233:../Libraries/XMCLib/src/xmc_vadc.c ****   /* Enabling the Analog part of the converter*/
 234:../Libraries/XMCLib/src/xmc_vadc.c ****   reg = SHS0->SHSCFG  | SHS_SHSCFG_SCWC_Msk;
 235:../Libraries/XMCLib/src/xmc_vadc.c ****   reg &= ~(SHS_SHSCFG_ANOFF_Msk);
 236:../Libraries/XMCLib/src/xmc_vadc.c ****   SHS0->SHSCFG = reg;
 237:../Libraries/XMCLib/src/xmc_vadc.c **** 
 238:../Libraries/XMCLib/src/xmc_vadc.c ****   /* From the Errata sheet of XMC1100 V1.7*/
 239:../Libraries/XMCLib/src/xmc_vadc.c ****   XMC_VADC_CONV_ENABLE_FOR_XMC11 = 1U;
 240:../Libraries/XMCLib/src/xmc_vadc.c **** #endif
 241:../Libraries/XMCLib/src/xmc_vadc.c **** 
 242:../Libraries/XMCLib/src/xmc_vadc.c **** }
 107              	 .loc 1 242 0
 108              	 
 205:../Libraries/XMCLib/src/xmc_vadc.c **** 
 109              	 .loc 1 205 0
 110 000e 04C3     	 stmia r3!,{r2}
 210:../Libraries/XMCLib/src/xmc_vadc.c **** #endif
 111              	 .loc 1 210 0
 112 0010 8022     	 mov r2,#128
 113 0012 6968     	 ldr r1,[r5,#4]
 114 0014 1202     	 lsl r2,r2,#8
 115 0016 0A43     	 orr r2,r1
 116 0018 DA67     	 str r2,[r3,#124]
 214:../Libraries/XMCLib/src/xmc_vadc.c **** 
 117              	 .loc 1 214 0
 118 001a 231C     	 mov r3,r4
 119 001c AA68     	 ldr r2,[r5,#8]
 120 001e A033     	 add r3,r3,#160
 121 0020 1A60     	 str r2,[r3]
 217:../Libraries/XMCLib/src/xmc_vadc.c **** 
 122              	 .loc 1 217 0
 123 0022 EA68     	 ldr r2,[r5,#12]
 124 0024 5A60     	 str r2,[r3,#4]
 221:../Libraries/XMCLib/src/xmc_vadc.c **** 
 125              	 .loc 1 221 0
 126 0026 A023     	 mov r3,#160
 127 0028 2A69     	 ldr r2,[r5,#16]
 128 002a 9B00     	 lsl r3,r3,#2
 129 002c E250     	 str r2,[r4,r3]
 226:../Libraries/XMCLib/src/xmc_vadc.c **** 
 130              	 .loc 1 226 0
 131 002e 2B68     	 ldr r3,[r5]
 132 0030 B834     	 add r4,r4,#184
 133              	.LVL4:
 134 0032 2360     	 str r3,[r4]
 135              	.LVL5:
 136              	.LVL6:
 137              	 .loc 1 242 0
 138 0034 38BD     	 pop {r3,r4,r5,pc}
 139              	 .cfi_endproc
 140              	.LFE159:
 142              	 .section .text.XMC_VADC_GLOBAL_InputClassInit,"ax",%progbits
 143              	 .align 1
 144              	 .global XMC_VADC_GLOBAL_InputClassInit
 145              	 .code 16
 146              	 .thumb_func
 148              	XMC_VADC_GLOBAL_InputClassInit:
 149              	.LFB160:
 243:../Libraries/XMCLib/src/xmc_vadc.c **** 
 244:../Libraries/XMCLib/src/xmc_vadc.c **** /* API to Set the Global IClass registers*/
 245:../Libraries/XMCLib/src/xmc_vadc.c **** void XMC_VADC_GLOBAL_InputClassInit(XMC_VADC_GLOBAL_t *const global_ptr, const XMC_VADC_GLOBAL_CLAS
 246:../Libraries/XMCLib/src/xmc_vadc.c ****                                           const XMC_VADC_GROUP_CONV_t conv_type, const uint32_t set
 247:../Libraries/XMCLib/src/xmc_vadc.c **** {
 150              	 .loc 1 247 0
 151              	 .cfi_startproc
 152              	.LVL7:
 153 0000 2833     	 add r3,r3,#40
 154              	.LVL8:
 248:../Libraries/XMCLib/src/xmc_vadc.c **** 
 249:../Libraries/XMCLib/src/xmc_vadc.c ****   XMC_ASSERT("XMC_VADC_GLOBAL_InputClassInit:Wrong Module Pointer", (global_ptr == VADC))
 250:../Libraries/XMCLib/src/xmc_vadc.c ****   XMC_ASSERT("XMC_VADC_GLOBAL_InputClassInit:Wrong Conversion Type", ((conv_type) <= XMC_VADC_GROUP
 251:../Libraries/XMCLib/src/xmc_vadc.c ****   XMC_ASSERT("XMC_VADC_GLOBAL_InputClassInit:Wrong ICLASS set number", (set_num < XMC_VADC_MAX_ICLA
 252:../Libraries/XMCLib/src/xmc_vadc.c **** 
 253:../Libraries/XMCLib/src/xmc_vadc.c **** #if(XMC_VADC_EMUX_AVAILABLE == 1U)
 254:../Libraries/XMCLib/src/xmc_vadc.c ****   if (conv_type == XMC_VADC_GROUP_CONV_STD )
 155              	 .loc 1 254 0
 156 0002 002A     	 cmp r2,#0
 157 0004 01D1     	 bne .L7
 255:../Libraries/XMCLib/src/xmc_vadc.c ****   {
 256:../Libraries/XMCLib/src/xmc_vadc.c **** #endif
 257:../Libraries/XMCLib/src/xmc_vadc.c **** 	XMC_UNUSED_ARG(conv_type);
 258:../Libraries/XMCLib/src/xmc_vadc.c ****     global_ptr->GLOBICLASS[set_num] = config.globiclass &
 158              	 .loc 1 258 0
 159 0006 034A     	 ldr r2,.L11
 160              	.LVL9:
 161 0008 00E0     	 b .L9
 162              	.LVL10:
 163              	.L7:
 259:../Libraries/XMCLib/src/xmc_vadc.c ****                                       (uint32_t)(VADC_GLOBICLASS_CMS_Msk | VADC_GLOBICLASS_STCS_Msk
 260:../Libraries/XMCLib/src/xmc_vadc.c **** #if(XMC_VADC_EMUX_AVAILABLE == 1U)
 261:../Libraries/XMCLib/src/xmc_vadc.c ****   }
 262:../Libraries/XMCLib/src/xmc_vadc.c ****   else
 263:../Libraries/XMCLib/src/xmc_vadc.c ****   {
 264:../Libraries/XMCLib/src/xmc_vadc.c ****     global_ptr->GLOBICLASS[set_num] = config.globiclass & (uint32_t)(VADC_GLOBICLASS_CME_Msk | VADC
 164              	 .loc 1 264 0
 165 000a 034A     	 ldr r2,.L11+4
 166              	.LVL11:
 167              	.L9:
 168 000c 1140     	 and r1,r2
 169              	.LVL12:
 170 000e 9B00     	 lsl r3,r3,#2
 171              	.LVL13:
 172 0010 1950     	 str r1,[r3,r0]
 265:../Libraries/XMCLib/src/xmc_vadc.c ****   }
 266:../Libraries/XMCLib/src/xmc_vadc.c **** #endif
 267:../Libraries/XMCLib/src/xmc_vadc.c **** }
 173              	 .loc 1 267 0
 174              	 
 175 0012 7047     	 bx lr
 176              	.L12:
 177              	 .align 2
 178              	.L11:
 179 0014 1F070000 	 .word 1823
 180 0018 00001F07 	 .word 119472128
 181              	 .cfi_endproc
 182              	.LFE160:
 184              	 .section .text.XMC_VADC_GLOBAL_StartupCalibration,"ax",%progbits
 185              	 .align 1
 186              	 .global XMC_VADC_GLOBAL_StartupCalibration
 187              	 .code 16
 188              	 .thumb_func
 190              	XMC_VADC_GLOBAL_StartupCalibration:
 191              	.LFB161:
 268:../Libraries/XMCLib/src/xmc_vadc.c **** 
 269:../Libraries/XMCLib/src/xmc_vadc.c **** /* API to enable startup calibration feature */
 270:../Libraries/XMCLib/src/xmc_vadc.c **** void XMC_VADC_GLOBAL_StartupCalibration(XMC_VADC_GLOBAL_t *const global_ptr)
 271:../Libraries/XMCLib/src/xmc_vadc.c **** {
 192              	 .loc 1 271 0
 193              	 .cfi_startproc
 194              	.LVL14:
 272:../Libraries/XMCLib/src/xmc_vadc.c **** #if (XMC_VADC_GROUP_AVAILABLE == 1U)
 273:../Libraries/XMCLib/src/xmc_vadc.c ****   uint8_t i;
 274:../Libraries/XMCLib/src/xmc_vadc.c ****   VADC_G_TypeDef *group_ptr;
 275:../Libraries/XMCLib/src/xmc_vadc.c **** #endif
 276:../Libraries/XMCLib/src/xmc_vadc.c ****   
 277:../Libraries/XMCLib/src/xmc_vadc.c ****   XMC_ASSERT("XMC_VADC_GLOBAL_StartupCalibration:Wrong Module Pointer", (global_ptr == VADC))
 278:../Libraries/XMCLib/src/xmc_vadc.c **** 
 279:../Libraries/XMCLib/src/xmc_vadc.c ****   global_ptr->GLOBCFG |= (uint32_t)VADC_GLOBCFG_SUCAL_Msk;
 195              	 .loc 1 279 0
 196 0000 8022     	 mov r2,#128
 197 0002 0430     	 add r0,r0,#4
 198              	.LVL15:
 199 0004 C36F     	 ldr r3,[r0,#124]
 200 0006 1206     	 lsl r2,r2,#24
 201 0008 1343     	 orr r3,r2
 280:../Libraries/XMCLib/src/xmc_vadc.c **** 
 281:../Libraries/XMCLib/src/xmc_vadc.c **** #if (XMC_VADC_GROUP_AVAILABLE == 1U)
 282:../Libraries/XMCLib/src/xmc_vadc.c ****   /* Loop until all active groups finish calibration */
 283:../Libraries/XMCLib/src/xmc_vadc.c ****   for(i=0U; i<XMC_VADC_MAXIMUM_NUM_GROUPS; i++)
 284:../Libraries/XMCLib/src/xmc_vadc.c ****   {
 285:../Libraries/XMCLib/src/xmc_vadc.c ****     group_ptr = g_xmc_vadc_group_array[i];
 286:../Libraries/XMCLib/src/xmc_vadc.c ****     if ( (group_ptr->ARBCFG) & (uint32_t)VADC_G_ARBCFG_ANONS_Msk)
 202              	 .loc 1 286 0
 203 000a C022     	 mov r2,#192
 279:../Libraries/XMCLib/src/xmc_vadc.c **** 
 204              	 .loc 1 279 0
 205 000c C367     	 str r3,[r0,#124]
 206              	.LVL16:
 207              	 .loc 1 286 0
 208 000e 0B4B     	 ldr r3,.L30
 209 0010 9202     	 lsl r2,r2,#10
 210 0012 D96F     	 ldr r1,[r3,#124]
 211 0014 1142     	 tst r1,r2
 212 0016 04D0     	 beq .L14
 213              	.L15:
 287:../Libraries/XMCLib/src/xmc_vadc.c ****     {
 288:../Libraries/XMCLib/src/xmc_vadc.c ****       /* This group is active. Loop until it finishes calibration */
 289:../Libraries/XMCLib/src/xmc_vadc.c ****       while((group_ptr->ARBCFG) & (uint32_t)VADC_G_ARBCFG_CAL_Msk)
 214              	 .loc 1 289 0
 215 0018 DA6F     	 ldr r2,[r3,#124]
 216 001a D200     	 lsl r2,r2,#3
 217 001c 01D5     	 bpl .L14
 290:../Libraries/XMCLib/src/xmc_vadc.c ****       {
 291:../Libraries/XMCLib/src/xmc_vadc.c ****         __NOP();
 218              	 .loc 1 291 0
 219              	
 220 001e C046     	 nop
 221              	
 222              	 .code 16
 223 0020 FAE7     	 b .L15
 224              	.L14:
 225              	.LVL17:
 286:../Libraries/XMCLib/src/xmc_vadc.c ****     {
 226              	 .loc 1 286 0
 227 0022 C022     	 mov r2,#192
 228 0024 064B     	 ldr r3,.L30+4
 229 0026 9202     	 lsl r2,r2,#10
 230 0028 D96F     	 ldr r1,[r3,#124]
 231 002a 1142     	 tst r1,r2
 232 002c 04D0     	 beq .L13
 233              	.L17:
 289:../Libraries/XMCLib/src/xmc_vadc.c ****       {
 234              	 .loc 1 289 0
 235 002e DA6F     	 ldr r2,[r3,#124]
 236 0030 D200     	 lsl r2,r2,#3
 237 0032 01D5     	 bpl .L13
 238              	 .loc 1 291 0
 239              	
 240 0034 C046     	 nop
 241              	
 242              	 .code 16
 243 0036 FAE7     	 b .L17
 244              	.L13:
 292:../Libraries/XMCLib/src/xmc_vadc.c ****       }
 293:../Libraries/XMCLib/src/xmc_vadc.c ****     }
 294:../Libraries/XMCLib/src/xmc_vadc.c ****   }
 295:../Libraries/XMCLib/src/xmc_vadc.c **** #else
 296:../Libraries/XMCLib/src/xmc_vadc.c **** 
 297:../Libraries/XMCLib/src/xmc_vadc.c ****   /* Loop until calibration is started */
 298:../Libraries/XMCLib/src/xmc_vadc.c ****   while ((((SHS0->SHSCFG) & (uint32_t)SHS_SHSCFG_STATE_Msk) >> (uint32_t)SHS_SHSCFG_STATE_Pos) !=
 299:../Libraries/XMCLib/src/xmc_vadc.c **** 		  XMC_VADC_SHS_START_UP_CAL_ACTIVE  )
 300:../Libraries/XMCLib/src/xmc_vadc.c ****    {
 301:../Libraries/XMCLib/src/xmc_vadc.c ****      __NOP();
 302:../Libraries/XMCLib/src/xmc_vadc.c ****    }
 303:../Libraries/XMCLib/src/xmc_vadc.c ****   /* Loop until it finishes calibration */
 304:../Libraries/XMCLib/src/xmc_vadc.c ****   while ((((SHS0->SHSCFG) & (uint32_t)SHS_SHSCFG_STATE_Msk) >> (uint32_t)SHS_SHSCFG_STATE_Pos) ==
 305:../Libraries/XMCLib/src/xmc_vadc.c ****          XMC_VADC_SHS_START_UP_CAL_ACTIVE )
 306:../Libraries/XMCLib/src/xmc_vadc.c ****   {
 307:../Libraries/XMCLib/src/xmc_vadc.c ****     __NOP();
 308:../Libraries/XMCLib/src/xmc_vadc.c ****   }
 309:../Libraries/XMCLib/src/xmc_vadc.c **** #endif
 310:../Libraries/XMCLib/src/xmc_vadc.c **** }
 245              	 .loc 1 310 0
 246              	 
 247 0038 7047     	 bx lr
 248              	.L31:
 249 003a C046     	 .align 2
 250              	.L30:
 251 003c 04040348 	 .word 1208157188
 252 0040 04080348 	 .word 1208158212
 253              	 .cfi_endproc
 254              	.LFE161:
 256              	 .section .text.XMC_VADC_GLOBAL_SetBoundaries,"ax",%progbits
 257              	 .align 1
 258              	 .global XMC_VADC_GLOBAL_SetBoundaries
 259              	 .code 16
 260              	 .thumb_func
 262              	XMC_VADC_GLOBAL_SetBoundaries:
 263              	.LFB162:
 311:../Libraries/XMCLib/src/xmc_vadc.c **** 
 312:../Libraries/XMCLib/src/xmc_vadc.c **** /* API to set boudaries for result of conversion. Should the boundaries be violated, interrupts are
 313:../Libraries/XMCLib/src/xmc_vadc.c **** #if (XMC_VADC_BOUNDARY_AVAILABLE == 1U)
 314:../Libraries/XMCLib/src/xmc_vadc.c **** void XMC_VADC_GLOBAL_SetBoundaries(XMC_VADC_GLOBAL_t *const global_ptr,
 315:../Libraries/XMCLib/src/xmc_vadc.c ****                                    const uint32_t boundary0,
 316:../Libraries/XMCLib/src/xmc_vadc.c ****                                    const uint32_t boundary1)
 317:../Libraries/XMCLib/src/xmc_vadc.c **** {
 264              	 .loc 1 317 0
 265              	 .cfi_startproc
 266              	.LVL18:
 318:../Libraries/XMCLib/src/xmc_vadc.c ****   uint32_t globbound;
 319:../Libraries/XMCLib/src/xmc_vadc.c **** 
 320:../Libraries/XMCLib/src/xmc_vadc.c ****   XMC_ASSERT("XMC_VADC_GLOBAL_SetBoundaries:Wrong Module Pointer", (global_ptr == VADC))
 321:../Libraries/XMCLib/src/xmc_vadc.c **** 
 322:../Libraries/XMCLib/src/xmc_vadc.c ****   globbound = 0U;
 323:../Libraries/XMCLib/src/xmc_vadc.c ****   globbound |= (uint32_t) (boundary0 << VADC_GLOBBOUND_BOUNDARY0_Pos);
 324:../Libraries/XMCLib/src/xmc_vadc.c ****   globbound |= (uint32_t) (boundary1 << VADC_GLOBBOUND_BOUNDARY1_Pos);
 267              	 .loc 1 324 0
 268 0000 1204     	 lsl r2,r2,#16
 269              	.LVL19:
 270 0002 1143     	 orr r1,r2
 271              	.LVL20:
 325:../Libraries/XMCLib/src/xmc_vadc.c **** 
 326:../Libraries/XMCLib/src/xmc_vadc.c ****   global_ptr->GLOBBOUND = globbound;
 272              	 .loc 1 326 0
 273 0004 B830     	 add r0,r0,#184
 274              	.LVL21:
 275 0006 0160     	 str r1,[r0]
 327:../Libraries/XMCLib/src/xmc_vadc.c **** }
 276              	 .loc 1 327 0
 277              	 
 278 0008 7047     	 bx lr
 279              	 .cfi_endproc
 280              	.LFE162:
 282              	 .section .text.XMC_VADC_GLOBAL_SetIndividualBoundary,"ax",%progbits
 283              	 .align 1
 284              	 .global XMC_VADC_GLOBAL_SetIndividualBoundary
 285              	 .code 16
 286              	 .thumb_func
 288              	XMC_VADC_GLOBAL_SetIndividualBoundary:
 289              	.LFB163:
 328:../Libraries/XMCLib/src/xmc_vadc.c **** 
 329:../Libraries/XMCLib/src/xmc_vadc.c **** /* API to set an individual boundary for conversion results */
 330:../Libraries/XMCLib/src/xmc_vadc.c **** void XMC_VADC_GLOBAL_SetIndividualBoundary(XMC_VADC_GLOBAL_t *const global_ptr,
 331:../Libraries/XMCLib/src/xmc_vadc.c ****                                            const XMC_VADC_CHANNEL_BOUNDARY_t selection,
 332:../Libraries/XMCLib/src/xmc_vadc.c ****                                            const uint16_t boundary_value)
 333:../Libraries/XMCLib/src/xmc_vadc.c **** {
 290              	 .loc 1 333 0
 291              	 .cfi_startproc
 292              	.LVL22:
 334:../Libraries/XMCLib/src/xmc_vadc.c **** 
 335:../Libraries/XMCLib/src/xmc_vadc.c ****   uint32_t globbound;
 336:../Libraries/XMCLib/src/xmc_vadc.c **** 
 337:../Libraries/XMCLib/src/xmc_vadc.c ****   XMC_ASSERT("XMC_VADC_GLOBAL_SetBoundaries:Wrong Module Pointer", (global_ptr == VADC))
 338:../Libraries/XMCLib/src/xmc_vadc.c ****   XMC_ASSERT("XMC_VADC_GLOBAL_SetBoundaries:Wrong Boundary Selection",
 339:../Libraries/XMCLib/src/xmc_vadc.c ****              ((XMC_VADC_CHANNEL_BOUNDARY_GLOBAL_BOUND0 == selection) ||
 340:../Libraries/XMCLib/src/xmc_vadc.c ****               (XMC_VADC_CHANNEL_BOUNDARY_GLOBAL_BOUND1 == selection)))
 341:../Libraries/XMCLib/src/xmc_vadc.c **** 
 342:../Libraries/XMCLib/src/xmc_vadc.c ****   /* Program the Boundary registers */
 343:../Libraries/XMCLib/src/xmc_vadc.c ****   globbound = global_ptr->GLOBBOUND;
 293              	 .loc 1 343 0
 294 0000 B830     	 add r0,r0,#184
 295              	.LVL23:
 296 0002 0368     	 ldr r3,[r0]
 297              	.LVL24:
 344:../Libraries/XMCLib/src/xmc_vadc.c **** 
 345:../Libraries/XMCLib/src/xmc_vadc.c ****   if (XMC_VADC_CHANNEL_BOUNDARY_GLOBAL_BOUND0 == selection)
 298              	 .loc 1 345 0
 299 0004 0229     	 cmp r1,#2
 300 0006 02D1     	 bne .L34
 346:../Libraries/XMCLib/src/xmc_vadc.c ****   {
 347:../Libraries/XMCLib/src/xmc_vadc.c ****     globbound &= ~((uint32_t) VADC_GLOBBOUND_BOUNDARY0_Msk);
 301              	 .loc 1 347 0
 302 0008 1B0B     	 lsr r3,r3,#12
 303              	.LVL25:
 304 000a 1B03     	 lsl r3,r3,#12
 305              	.LVL26:
 306 000c 04E0     	 b .L36
 307              	.L34:
 348:../Libraries/XMCLib/src/xmc_vadc.c ****     globbound |= (uint32_t) ((uint32_t) boundary_value << VADC_GLOBBOUND_BOUNDARY0_Pos);
 349:../Libraries/XMCLib/src/xmc_vadc.c ****   }
 350:../Libraries/XMCLib/src/xmc_vadc.c ****   else if (XMC_VADC_CHANNEL_BOUNDARY_GLOBAL_BOUND1 == selection)
 308              	 .loc 1 350 0
 309 000e 0329     	 cmp r1,#3
 310 0010 03D1     	 bne .L35
 351:../Libraries/XMCLib/src/xmc_vadc.c ****   {
 352:../Libraries/XMCLib/src/xmc_vadc.c ****     globbound &= ~((uint32_t) VADC_GLOBBOUND_BOUNDARY1_Msk);
 311              	 .loc 1 352 0
 312 0012 0349     	 ldr r1,.L37
 313              	.LVL27:
 353:../Libraries/XMCLib/src/xmc_vadc.c ****     globbound |= (uint32_t) ((uint32_t) boundary_value << VADC_GLOBBOUND_BOUNDARY1_Pos);
 314              	 .loc 1 353 0
 315 0014 1204     	 lsl r2,r2,#16
 316              	.LVL28:
 352:../Libraries/XMCLib/src/xmc_vadc.c ****     globbound |= (uint32_t) ((uint32_t) boundary_value << VADC_GLOBBOUND_BOUNDARY1_Pos);
 317              	 .loc 1 352 0
 318 0016 0B40     	 and r3,r1
 319              	.LVL29:
 320              	.L36:
 321              	 .loc 1 353 0
 322 0018 1343     	 orr r3,r2
 323              	.LVL30:
 324              	.L35:
 354:../Libraries/XMCLib/src/xmc_vadc.c ****   }
 355:../Libraries/XMCLib/src/xmc_vadc.c ****   else
 356:../Libraries/XMCLib/src/xmc_vadc.c ****   {
 357:../Libraries/XMCLib/src/xmc_vadc.c ****     /* For MISRA*/
 358:../Libraries/XMCLib/src/xmc_vadc.c ****   }
 359:../Libraries/XMCLib/src/xmc_vadc.c ****   global_ptr->GLOBBOUND = globbound;
 325              	 .loc 1 359 0
 326 001a 0360     	 str r3,[r0]
 360:../Libraries/XMCLib/src/xmc_vadc.c **** 
 361:../Libraries/XMCLib/src/xmc_vadc.c **** }
 327              	 .loc 1 361 0
 328              	 
 329 001c 7047     	 bx lr
 330              	.L38:
 331 001e C046     	 .align 2
 332              	.L37:
 333 0020 FFFF00F0 	 .word -268369921
 334              	 .cfi_endproc
 335              	.LFE163:
 337              	 .section .text.XMC_VADC_GLOBAL_SetCompareValue,"ax",%progbits
 338              	 .align 1
 339              	 .global XMC_VADC_GLOBAL_SetCompareValue
 340              	 .code 16
 341              	 .thumb_func
 343              	XMC_VADC_GLOBAL_SetCompareValue:
 344              	.LFB164:
 362:../Libraries/XMCLib/src/xmc_vadc.c **** 
 363:../Libraries/XMCLib/src/xmc_vadc.c **** #endif
 364:../Libraries/XMCLib/src/xmc_vadc.c **** 
 365:../Libraries/XMCLib/src/xmc_vadc.c **** /* API to set compare value for the result register. Result of conversion is compared against this 
 366:../Libraries/XMCLib/src/xmc_vadc.c **** void XMC_VADC_GLOBAL_SetCompareValue(XMC_VADC_GLOBAL_t *const global_ptr, const XMC_VADC_RESULT_SIZ
 367:../Libraries/XMCLib/src/xmc_vadc.c **** {
 345              	 .loc 1 367 0
 346              	 .cfi_startproc
 347              	.LVL31:
 368:../Libraries/XMCLib/src/xmc_vadc.c ****   XMC_ASSERT("XMC_VADC_GLOBAL_SetCompareValue:Wrong Module Pointer", (global_ptr == VADC))
 369:../Libraries/XMCLib/src/xmc_vadc.c **** 
 370:../Libraries/XMCLib/src/xmc_vadc.c ****   global_ptr->GLOBRES &= ~((uint32_t)VADC_GLOBRES_RESULT_Msk);
 348              	 .loc 1 370 0
 349 0000 C022     	 mov r2,#192
 350 0002 9200     	 lsl r2,r2,#2
 351 0004 8358     	 ldr r3,[r0,r2]
 371:../Libraries/XMCLib/src/xmc_vadc.c ****   global_ptr->GLOBRES |= (uint32_t)((uint32_t)compare_val << XMC_VADC_RESULT_LEFT_ALIGN_10BIT);
 352              	 .loc 1 371 0
 353 0006 8900     	 lsl r1,r1,#2
 354              	.LVL32:
 370:../Libraries/XMCLib/src/xmc_vadc.c ****   global_ptr->GLOBRES |= (uint32_t)((uint32_t)compare_val << XMC_VADC_RESULT_LEFT_ALIGN_10BIT);
 355              	 .loc 1 370 0
 356 0008 1B0C     	 lsr r3,r3,#16
 357 000a 1B04     	 lsl r3,r3,#16
 358 000c 8350     	 str r3,[r0,r2]
 359              	 .loc 1 371 0
 360 000e 8358     	 ldr r3,[r0,r2]
 372:../Libraries/XMCLib/src/xmc_vadc.c **** }
 361              	 .loc 1 372 0
 362              	 
 371:../Libraries/XMCLib/src/xmc_vadc.c ****   global_ptr->GLOBRES |= (uint32_t)((uint32_t)compare_val << XMC_VADC_RESULT_LEFT_ALIGN_10BIT);
 363              	 .loc 1 371 0
 364 0010 1943     	 orr r1,r3
 365 0012 8150     	 str r1,[r0,r2]
 366              	 .loc 1 372 0
 367 0014 7047     	 bx lr
 368              	 .cfi_endproc
 369              	.LFE164:
 371              	 .section .text.XMC_VADC_GLOBAL_GetCompareResult,"ax",%progbits
 372              	 .align 1
 373              	 .global XMC_VADC_GLOBAL_GetCompareResult
 374              	 .code 16
 375              	 .thumb_func
 377              	XMC_VADC_GLOBAL_GetCompareResult:
 378              	.LFB165:
 373:../Libraries/XMCLib/src/xmc_vadc.c **** 
 374:../Libraries/XMCLib/src/xmc_vadc.c **** /* API to retrieve the result of comparison */
 375:../Libraries/XMCLib/src/xmc_vadc.c **** XMC_VADC_FAST_COMPARE_t XMC_VADC_GLOBAL_GetCompareResult(XMC_VADC_GLOBAL_t *const global_ptr)
 376:../Libraries/XMCLib/src/xmc_vadc.c **** {
 379              	 .loc 1 376 0
 380              	 .cfi_startproc
 381              	.LVL33:
 377:../Libraries/XMCLib/src/xmc_vadc.c ****   XMC_VADC_FAST_COMPARE_t result;
 378:../Libraries/XMCLib/src/xmc_vadc.c ****   uint32_t res;
 379:../Libraries/XMCLib/src/xmc_vadc.c **** 
 380:../Libraries/XMCLib/src/xmc_vadc.c ****   XMC_ASSERT("XMC_VADC_GLOBAL_GetCompareResult:Wrong Module Pointer", (global_ptr == VADC))
 381:../Libraries/XMCLib/src/xmc_vadc.c **** 
 382:../Libraries/XMCLib/src/xmc_vadc.c ****   res = global_ptr->GLOBRES;
 382              	 .loc 1 382 0
 383 0000 C023     	 mov r3,#192
 384 0002 9B00     	 lsl r3,r3,#2
 385 0004 C358     	 ldr r3,[r0,r3]
 386              	.LVL34:
 383:../Libraries/XMCLib/src/xmc_vadc.c **** 
 384:../Libraries/XMCLib/src/xmc_vadc.c ****   if (res & (uint32_t)VADC_GLOBRES_VF_Msk)
 385:../Libraries/XMCLib/src/xmc_vadc.c ****   {
 386:../Libraries/XMCLib/src/xmc_vadc.c ****     result = (XMC_VADC_FAST_COMPARE_t)((uint32_t)(res >> (uint32_t)VADC_GLOBRES_FCR_Pos) & (uint32_
 387:../Libraries/XMCLib/src/xmc_vadc.c ****   }
 388:../Libraries/XMCLib/src/xmc_vadc.c ****   else
 389:../Libraries/XMCLib/src/xmc_vadc.c ****   {
 390:../Libraries/XMCLib/src/xmc_vadc.c ****     result = XMC_VADC_FAST_COMPARE_UNKNOWN;
 387              	 .loc 1 390 0
 388 0006 0220     	 mov r0,#2
 389              	.LVL35:
 384:../Libraries/XMCLib/src/xmc_vadc.c ****   {
 390              	 .loc 1 384 0
 391 0008 002B     	 cmp r3,#0
 392 000a 01DA     	 bge .L41
 386:../Libraries/XMCLib/src/xmc_vadc.c ****   }
 393              	 .loc 1 386 0
 394 000c 5B00     	 lsl r3,r3,#1
 395              	.LVL36:
 396 000e D80F     	 lsr r0,r3,#31
 397              	.LVL37:
 398              	.L41:
 391:../Libraries/XMCLib/src/xmc_vadc.c ****   }
 392:../Libraries/XMCLib/src/xmc_vadc.c **** 
 393:../Libraries/XMCLib/src/xmc_vadc.c ****   return result;
 394:../Libraries/XMCLib/src/xmc_vadc.c **** }
 399              	 .loc 1 394 0
 400              	 
 401 0010 7047     	 bx lr
 402              	 .cfi_endproc
 403              	.LFE165:
 405              	 .section .text.XMC_VADC_GLOBAL_BindGroupToEMux,"ax",%progbits
 406              	 .align 1
 407              	 .global XMC_VADC_GLOBAL_BindGroupToEMux
 408              	 .code 16
 409              	 .thumb_func
 411              	XMC_VADC_GLOBAL_BindGroupToEMux:
 412              	.LFB166:
 395:../Libraries/XMCLib/src/xmc_vadc.c **** 
 396:../Libraries/XMCLib/src/xmc_vadc.c **** /* Bind one of the four groups to one of the two EMUX interfaces */
 397:../Libraries/XMCLib/src/xmc_vadc.c **** #if (XMC_VADC_EMUX_AVAILABLE == 1U)
 398:../Libraries/XMCLib/src/xmc_vadc.c **** void XMC_VADC_GLOBAL_BindGroupToEMux(XMC_VADC_GLOBAL_t *const global_ptr, const uint32_t emuxif, co
 399:../Libraries/XMCLib/src/xmc_vadc.c **** {
 413              	 .loc 1 399 0
 414              	 .cfi_startproc
 415              	.LVL38:
 416 0000 30B5     	 push {r4,r5,lr}
 417              	.LCFI3:
 418              	 .cfi_def_cfa_offset 12
 419              	 .cfi_offset 4,-12
 420              	 .cfi_offset 5,-8
 421              	 .cfi_offset 14,-4
 400:../Libraries/XMCLib/src/xmc_vadc.c ****   uint32_t mask;
 401:../Libraries/XMCLib/src/xmc_vadc.c ****   uint32_t pos;
 402:../Libraries/XMCLib/src/xmc_vadc.c **** 
 403:../Libraries/XMCLib/src/xmc_vadc.c ****   XMC_ASSERT("XMC_VADC_GLOBAL_BindGroupToEMux:Wrong Module Pointer", (global_ptr == VADC))
 404:../Libraries/XMCLib/src/xmc_vadc.c ****   XMC_ASSERT("XMC_VADC_GLOBAL_BindGroupToEMux:Wrong EMUX Group", (emuxif < XMC_VADC_NUM_EMUX_INTERF
 405:../Libraries/XMCLib/src/xmc_vadc.c ****   XMC_ASSERT("XMC_VADC_GLOBAL_BindGroupToEMux:Wrong VADC Group", (group < XMC_VADC_MAXIMUM_NUM_GROU
 406:../Libraries/XMCLib/src/xmc_vadc.c **** 
 407:../Libraries/XMCLib/src/xmc_vadc.c ****   if (0U == emuxif)
 408:../Libraries/XMCLib/src/xmc_vadc.c ****   {
 409:../Libraries/XMCLib/src/xmc_vadc.c ****     pos  = (uint32_t)VADC_EMUXSEL_EMUXGRP0_Pos;
 410:../Libraries/XMCLib/src/xmc_vadc.c ****     mask = (uint32_t)VADC_EMUXSEL_EMUXGRP0_Msk;
 422              	 .loc 1 410 0
 423 0002 0F25     	 mov r5,#15
 407:../Libraries/XMCLib/src/xmc_vadc.c ****   {
 424              	 .loc 1 407 0
 425 0004 0029     	 cmp r1,#0
 426 0006 01D0     	 beq .L44
 411:../Libraries/XMCLib/src/xmc_vadc.c ****   }
 412:../Libraries/XMCLib/src/xmc_vadc.c ****   else
 413:../Libraries/XMCLib/src/xmc_vadc.c ****   {
 414:../Libraries/XMCLib/src/xmc_vadc.c ****     pos  = (uint32_t)VADC_EMUXSEL_EMUXGRP1_Pos;
 427              	 .loc 1 414 0
 428 0008 0421     	 mov r1,#4
 429              	.LVL39:
 415:../Libraries/XMCLib/src/xmc_vadc.c ****     mask = (uint32_t)VADC_EMUXSEL_EMUXGRP1_Msk;
 430              	 .loc 1 415 0
 431 000a F025     	 mov r5,#240
 432              	.L44:
 433              	.LVL40:
 416:../Libraries/XMCLib/src/xmc_vadc.c ****   }
 417:../Libraries/XMCLib/src/xmc_vadc.c **** 
 418:../Libraries/XMCLib/src/xmc_vadc.c ****   global_ptr->EMUXSEL &= ~(mask);
 419:../Libraries/XMCLib/src/xmc_vadc.c ****   global_ptr->EMUXSEL |= (uint32_t) (group << pos);
 434              	 .loc 1 419 0
 435 000c 8A40     	 lsl r2,r2,r1
 436              	.LVL41:
 418:../Libraries/XMCLib/src/xmc_vadc.c ****   global_ptr->EMUXSEL |= (uint32_t) (group << pos);
 437              	 .loc 1 418 0
 438 000e FC23     	 mov r3,#252
 439              	 .loc 1 419 0
 440 0010 111C     	 mov r1,r2
 441              	.LVL42:
 418:../Libraries/XMCLib/src/xmc_vadc.c ****   global_ptr->EMUXSEL |= (uint32_t) (group << pos);
 442              	 .loc 1 418 0
 443 0012 9B00     	 lsl r3,r3,#2
 444 0014 C458     	 ldr r4,[r0,r3]
 420:../Libraries/XMCLib/src/xmc_vadc.c **** 
 421:../Libraries/XMCLib/src/xmc_vadc.c **** }
 445              	 .loc 1 421 0
 446              	 
 418:../Libraries/XMCLib/src/xmc_vadc.c ****   global_ptr->EMUXSEL |= (uint32_t) (group << pos);
 447              	 .loc 1 418 0
 448 0016 AC43     	 bic r4,r5
 449 0018 C450     	 str r4,[r0,r3]
 419:../Libraries/XMCLib/src/xmc_vadc.c **** 
 450              	 .loc 1 419 0
 451 001a C458     	 ldr r4,[r0,r3]
 452 001c 2143     	 orr r1,r4
 453 001e C150     	 str r1,[r0,r3]
 454              	.LVL43:
 455              	 .loc 1 421 0
 456 0020 30BD     	 pop {r4,r5,pc}
 457              	 .cfi_endproc
 458              	.LFE166:
 460              	 .section .text.XMC_VADC_GLOBAL_SetResultEventInterruptNode,"ax",%progbits
 461              	 .align 1
 462              	 .global XMC_VADC_GLOBAL_SetResultEventInterruptNode
 463              	 .code 16
 464              	 .thumb_func
 466              	XMC_VADC_GLOBAL_SetResultEventInterruptNode:
 467              	.LFB167:
 422:../Libraries/XMCLib/src/xmc_vadc.c **** #endif 
 423:../Libraries/XMCLib/src/xmc_vadc.c **** 
 424:../Libraries/XMCLib/src/xmc_vadc.c **** /* API to bind result event with a service request line */
 425:../Libraries/XMCLib/src/xmc_vadc.c **** void XMC_VADC_GLOBAL_SetResultEventInterruptNode(XMC_VADC_GLOBAL_t *const global_ptr, XMC_VADC_SR_t
 426:../Libraries/XMCLib/src/xmc_vadc.c **** {
 468              	 .loc 1 426 0
 469              	 .cfi_startproc
 470              	.LVL44:
 427:../Libraries/XMCLib/src/xmc_vadc.c ****   uint32_t node;
 428:../Libraries/XMCLib/src/xmc_vadc.c ****   
 429:../Libraries/XMCLib/src/xmc_vadc.c ****   XMC_ASSERT("XMC_VADC_GLOBAL_SetResultEventInterruptNode:Wrong Module Pointer", (global_ptr == VAD
 430:../Libraries/XMCLib/src/xmc_vadc.c ****   XMC_ASSERT("XMC_VADC_GLOBAL_SetResultEventInterruptNode:Wrong SR Number", (sr <= XMC_VADC_SR_SHAR
 431:../Libraries/XMCLib/src/xmc_vadc.c **** 
 432:../Libraries/XMCLib/src/xmc_vadc.c ****   if (sr >= XMC_VADC_SR_SHARED_SR0)
 471              	 .loc 1 432 0
 472 0000 0329     	 cmp r1,#3
 473 0002 00D9     	 bls .L48
 433:../Libraries/XMCLib/src/xmc_vadc.c ****   {
 434:../Libraries/XMCLib/src/xmc_vadc.c ****     node = (uint32_t)sr - (uint32_t)XMC_VADC_SR_SHARED_SR0;
 474              	 .loc 1 434 0
 475 0004 0439     	 sub r1,r1,#4
 476              	.LVL45:
 477              	.L48:
 435:../Libraries/XMCLib/src/xmc_vadc.c ****   }
 436:../Libraries/XMCLib/src/xmc_vadc.c ****   else
 437:../Libraries/XMCLib/src/xmc_vadc.c ****   {
 438:../Libraries/XMCLib/src/xmc_vadc.c ****     node = (uint32_t)sr;
 439:../Libraries/XMCLib/src/xmc_vadc.c ****   }
 440:../Libraries/XMCLib/src/xmc_vadc.c **** 
 441:../Libraries/XMCLib/src/xmc_vadc.c ****   global_ptr->GLOBEVNP &= ~((uint32_t)VADC_GLOBEVNP_REV0NP_Msk);
 478              	 .loc 1 441 0
 479 0006 FC30     	 add r0,r0,#252
 480              	.LVL46:
 481 0008 426C     	 ldr r2,[r0,#68]
 482 000a 044B     	 ldr r3,.L49
 442:../Libraries/XMCLib/src/xmc_vadc.c ****   global_ptr->GLOBEVNP |= (uint32_t)(node << VADC_GLOBEVNP_REV0NP_Pos);
 483              	 .loc 1 442 0
 484 000c 0904     	 lsl r1,r1,#16
 485              	.LVL47:
 441:../Libraries/XMCLib/src/xmc_vadc.c ****   global_ptr->GLOBEVNP |= (uint32_t)(node << VADC_GLOBEVNP_REV0NP_Pos);
 486              	 .loc 1 441 0
 487 000e 1340     	 and r3,r2
 488 0010 4364     	 str r3,[r0,#68]
 489              	 .loc 1 442 0
 490 0012 436C     	 ldr r3,[r0,#68]
 443:../Libraries/XMCLib/src/xmc_vadc.c **** }
 491              	 .loc 1 443 0
 492              	 
 442:../Libraries/XMCLib/src/xmc_vadc.c ****   global_ptr->GLOBEVNP |= (uint32_t)(node << VADC_GLOBEVNP_REV0NP_Pos);
 493              	 .loc 1 442 0
 494 0014 1943     	 orr r1,r3
 495 0016 4164     	 str r1,[r0,#68]
 496              	 .loc 1 443 0
 497 0018 7047     	 bx lr
 498              	.L50:
 499 001a C046     	 .align 2
 500              	.L49:
 501 001c FFFFF0FF 	 .word -983041
 502              	 .cfi_endproc
 503              	.LFE167:
 505              	 .section .text.XMC_VADC_GLOBAL_BackgroundSetReqSrcEventInterruptNode,"ax",%progbits
 506              	 .align 1
 507              	 .global XMC_VADC_GLOBAL_BackgroundSetReqSrcEventInterruptNode
 508              	 .code 16
 509              	 .thumb_func
 511              	XMC_VADC_GLOBAL_BackgroundSetReqSrcEventInterruptNode:
 512              	.LFB168:
 444:../Libraries/XMCLib/src/xmc_vadc.c **** 
 445:../Libraries/XMCLib/src/xmc_vadc.c **** /* API to bind request source event with a service request line */
 446:../Libraries/XMCLib/src/xmc_vadc.c **** void XMC_VADC_GLOBAL_BackgroundSetReqSrcEventInterruptNode(XMC_VADC_GLOBAL_t *const global_ptr, XMC
 447:../Libraries/XMCLib/src/xmc_vadc.c **** {
 513              	 .loc 1 447 0
 514              	 .cfi_startproc
 515              	.LVL48:
 448:../Libraries/XMCLib/src/xmc_vadc.c ****   uint32_t node;
 449:../Libraries/XMCLib/src/xmc_vadc.c ****   
 450:../Libraries/XMCLib/src/xmc_vadc.c ****   XMC_ASSERT("XMC_VADC_GLOBAL_BackgroundSetReqSrcEventInterruptNode:Wrong Module Pointer", (global_
 451:../Libraries/XMCLib/src/xmc_vadc.c **** 
 452:../Libraries/XMCLib/src/xmc_vadc.c ****   if (sr >= XMC_VADC_SR_SHARED_SR0)
 516              	 .loc 1 452 0
 517 0000 0329     	 cmp r1,#3
 518 0002 00D9     	 bls .L53
 453:../Libraries/XMCLib/src/xmc_vadc.c ****   {
 454:../Libraries/XMCLib/src/xmc_vadc.c ****     node = (uint32_t)sr - (uint32_t)XMC_VADC_SR_SHARED_SR0;
 519              	 .loc 1 454 0
 520 0004 0439     	 sub r1,r1,#4
 521              	.LVL49:
 522              	.L53:
 455:../Libraries/XMCLib/src/xmc_vadc.c ****   }
 456:../Libraries/XMCLib/src/xmc_vadc.c ****   else
 457:../Libraries/XMCLib/src/xmc_vadc.c ****   {
 458:../Libraries/XMCLib/src/xmc_vadc.c ****     node = (uint32_t)sr;
 459:../Libraries/XMCLib/src/xmc_vadc.c ****   }
 460:../Libraries/XMCLib/src/xmc_vadc.c **** 
 461:../Libraries/XMCLib/src/xmc_vadc.c ****   global_ptr->GLOBEVNP &= ~((uint32_t)VADC_GLOBEVNP_SEV0NP_Msk);
 523              	 .loc 1 461 0
 524 0006 0F22     	 mov r2,#15
 525 0008 FC30     	 add r0,r0,#252
 526              	.LVL50:
 527 000a 436C     	 ldr r3,[r0,#68]
 462:../Libraries/XMCLib/src/xmc_vadc.c ****   global_ptr->GLOBEVNP |= (uint32_t) (node << VADC_GLOBEVNP_SEV0NP_Pos);
 463:../Libraries/XMCLib/src/xmc_vadc.c **** }
 528              	 .loc 1 463 0
 529              	 
 461:../Libraries/XMCLib/src/xmc_vadc.c ****   global_ptr->GLOBEVNP |= (uint32_t) (node << VADC_GLOBEVNP_SEV0NP_Pos);
 530              	 .loc 1 461 0
 531 000c 9343     	 bic r3,r2
 532 000e 4364     	 str r3,[r0,#68]
 462:../Libraries/XMCLib/src/xmc_vadc.c ****   global_ptr->GLOBEVNP |= (uint32_t) (node << VADC_GLOBEVNP_SEV0NP_Pos);
 533              	 .loc 1 462 0
 534 0010 436C     	 ldr r3,[r0,#68]
 535 0012 1943     	 orr r1,r3
 536              	.LVL51:
 537 0014 4164     	 str r1,[r0,#68]
 538              	 .loc 1 463 0
 539 0016 7047     	 bx lr
 540              	 .cfi_endproc
 541              	.LFE168:
 543              	 .section .text.XMC_VADC_GROUP_InputClassInit,"ax",%progbits
 544              	 .align 1
 545              	 .global XMC_VADC_GROUP_InputClassInit
 546              	 .code 16
 547              	 .thumb_func
 549              	XMC_VADC_GROUP_InputClassInit:
 550              	.LFB170:
 464:../Libraries/XMCLib/src/xmc_vadc.c **** 
 465:../Libraries/XMCLib/src/xmc_vadc.c **** /* API to initialize an instance of group of VADC hardware */
 466:../Libraries/XMCLib/src/xmc_vadc.c **** #if (XMC_VADC_GROUP_AVAILABLE == 1U)  
 467:../Libraries/XMCLib/src/xmc_vadc.c **** void XMC_VADC_GROUP_Init( XMC_VADC_GROUP_t *const group_ptr, const XMC_VADC_GROUP_CONFIG_t *config)
 468:../Libraries/XMCLib/src/xmc_vadc.c **** {
 469:../Libraries/XMCLib/src/xmc_vadc.c ****   XMC_ASSERT("XMC_VADC_GROUP_Init:Wrong Group Pointer", XMC_VADC_CHECK_GROUP_PTR(group_ptr))
 470:../Libraries/XMCLib/src/xmc_vadc.c **** 
 471:../Libraries/XMCLib/src/xmc_vadc.c ****   /* Program the input classes */
 472:../Libraries/XMCLib/src/xmc_vadc.c ****   XMC_VADC_GROUP_InputClassInit(group_ptr, config->class0, XMC_VADC_GROUP_CONV_STD, 0U);
 473:../Libraries/XMCLib/src/xmc_vadc.c ****   XMC_VADC_GROUP_InputClassInit(group_ptr, config->class0, XMC_VADC_GROUP_CONV_EMUX, 0U);
 474:../Libraries/XMCLib/src/xmc_vadc.c ****   XMC_VADC_GROUP_InputClassInit(group_ptr, config->class1, XMC_VADC_GROUP_CONV_STD, 1U);
 475:../Libraries/XMCLib/src/xmc_vadc.c ****   XMC_VADC_GROUP_InputClassInit(group_ptr, config->class1, XMC_VADC_GROUP_CONV_EMUX, 1U);
 476:../Libraries/XMCLib/src/xmc_vadc.c **** 
 477:../Libraries/XMCLib/src/xmc_vadc.c ****   group_ptr->ARBCFG = config->g_arbcfg;
 478:../Libraries/XMCLib/src/xmc_vadc.c **** 
 479:../Libraries/XMCLib/src/xmc_vadc.c ****   group_ptr->BOUND = config->g_bound;
 480:../Libraries/XMCLib/src/xmc_vadc.c **** 
 481:../Libraries/XMCLib/src/xmc_vadc.c ****   /* External mux configuration */
 482:../Libraries/XMCLib/src/xmc_vadc.c ****   XMC_VADC_GROUP_ExternalMuxControlInit(group_ptr,config->emux_config);
 483:../Libraries/XMCLib/src/xmc_vadc.c **** 
 484:../Libraries/XMCLib/src/xmc_vadc.c **** }
 485:../Libraries/XMCLib/src/xmc_vadc.c **** 
 486:../Libraries/XMCLib/src/xmc_vadc.c **** /* API to program conversion characteristics */
 487:../Libraries/XMCLib/src/xmc_vadc.c **** void XMC_VADC_GROUP_InputClassInit(XMC_VADC_GROUP_t *const group_ptr, const XMC_VADC_GROUP_CLASS_t 
 488:../Libraries/XMCLib/src/xmc_vadc.c ****                                           const XMC_VADC_GROUP_CONV_t conv_type, const uint32_t set
 489:../Libraries/XMCLib/src/xmc_vadc.c **** {
 551              	 .loc 1 489 0
 552              	 .cfi_startproc
 553              	.LVL52:
 554 0000 F0B5     	 push {r4,r5,r6,r7,lr}
 555              	.LCFI4:
 556              	 .cfi_def_cfa_offset 20
 557              	 .cfi_offset 4,-20
 558              	 .cfi_offset 5,-16
 559              	 .cfi_offset 6,-12
 560              	 .cfi_offset 7,-8
 561              	 .cfi_offset 14,-4
 490:../Libraries/XMCLib/src/xmc_vadc.c ****   uint32_t        conv_class;
 491:../Libraries/XMCLib/src/xmc_vadc.c ****   uint32_t        conv_mode_pos;
 492:../Libraries/XMCLib/src/xmc_vadc.c ****   uint32_t        sample_time_pos;
 493:../Libraries/XMCLib/src/xmc_vadc.c ****   uint32_t        conv_mode_mask;
 494:../Libraries/XMCLib/src/xmc_vadc.c ****   uint32_t        sample_time_mask;
 495:../Libraries/XMCLib/src/xmc_vadc.c ****   uint32_t        sample_time;
 496:../Libraries/XMCLib/src/xmc_vadc.c ****   XMC_VADC_CONVMODE_t conv_mode;
 497:../Libraries/XMCLib/src/xmc_vadc.c **** 
 498:../Libraries/XMCLib/src/xmc_vadc.c ****   XMC_ASSERT("XMC_VADC_GROUP_InputClassInit:Wrong Group Pointer", XMC_VADC_CHECK_GROUP_PTR(group_pt
 499:../Libraries/XMCLib/src/xmc_vadc.c ****   XMC_ASSERT("XMC_VADC_GROUP_InputClassInit:Wrong Conversion Type", ((conv_type) <= XMC_VADC_GROUP_
 500:../Libraries/XMCLib/src/xmc_vadc.c ****   XMC_ASSERT("XMC_VADC_GROUP_InputClassInit:Wrong ICLASS set number", (set_num < XMC_VADC_MAX_ICLAS
 501:../Libraries/XMCLib/src/xmc_vadc.c **** 
 502:../Libraries/XMCLib/src/xmc_vadc.c ****   /* 
 503:../Libraries/XMCLib/src/xmc_vadc.c ****    * Obtain the mask and position macros of the parameters based on what is being requested - Stand
 504:../Libraries/XMCLib/src/xmc_vadc.c ****    * external mux channels.
 505:../Libraries/XMCLib/src/xmc_vadc.c ****    */
 506:../Libraries/XMCLib/src/xmc_vadc.c ****   if (XMC_VADC_GROUP_CONV_STD == conv_type)
 562              	 .loc 1 506 0
 563 0002 002A     	 cmp r2,#0
 564 0004 08D1     	 bne .L55
 565              	.LVL53:
 507:../Libraries/XMCLib/src/xmc_vadc.c ****   {
 508:../Libraries/XMCLib/src/xmc_vadc.c ****     conv_mode_pos    = (uint32_t) VADC_G_ICLASS_CMS_Pos;
 509:../Libraries/XMCLib/src/xmc_vadc.c ****     conv_mode_mask   = (uint32_t) VADC_G_ICLASS_CMS_Msk;
 566              	 .loc 1 509 0
 567 0006 E026     	 mov r6,#224
 510:../Libraries/XMCLib/src/xmc_vadc.c ****     sample_time_pos  = (uint32_t) VADC_G_ICLASS_STCS_Pos;
 511:../Libraries/XMCLib/src/xmc_vadc.c ****     sample_time_mask = (uint32_t) VADC_G_ICLASS_STCS_Msk;
 512:../Libraries/XMCLib/src/xmc_vadc.c ****     sample_time      = (uint32_t) config.sample_time_std_conv;
 568              	 .loc 1 512 0
 569 0008 CC06     	 lsl r4,r1,#27
 513:../Libraries/XMCLib/src/xmc_vadc.c ****     conv_mode        = (XMC_VADC_CONVMODE_t)config.conversion_mode_standard;
 570              	 .loc 1 513 0
 571 000a 4905     	 lsl r1,r1,#21
 572              	.LVL54:
 512:../Libraries/XMCLib/src/xmc_vadc.c ****     conv_mode        = (XMC_VADC_CONVMODE_t)config.conversion_mode_standard;
 573              	 .loc 1 512 0
 574 000c E40E     	 lsr r4,r4,#27
 575              	.LVL55:
 576              	 .loc 1 513 0
 577 000e 490F     	 lsr r1,r1,#29
 578              	.LVL56:
 511:../Libraries/XMCLib/src/xmc_vadc.c ****     sample_time      = (uint32_t) config.sample_time_std_conv;
 579              	 .loc 1 511 0
 580 0010 1F25     	 mov r5,#31
 509:../Libraries/XMCLib/src/xmc_vadc.c ****     sample_time_pos  = (uint32_t) VADC_G_ICLASS_STCS_Pos;
 581              	 .loc 1 509 0
 582 0012 F600     	 lsl r6,r6,#3
 508:../Libraries/XMCLib/src/xmc_vadc.c ****     conv_mode_mask   = (uint32_t) VADC_G_ICLASS_CMS_Msk;
 583              	 .loc 1 508 0
 584 0014 0827     	 mov r7,#8
 585 0016 09E0     	 b .L56
 586              	.LVL57:
 587              	.L55:
 514:../Libraries/XMCLib/src/xmc_vadc.c ****   }
 515:../Libraries/XMCLib/src/xmc_vadc.c ****   else
 516:../Libraries/XMCLib/src/xmc_vadc.c ****   {
 517:../Libraries/XMCLib/src/xmc_vadc.c ****     conv_mode_pos    = (uint32_t) VADC_G_ICLASS_CME_Pos;
 518:../Libraries/XMCLib/src/xmc_vadc.c ****     conv_mode_mask   = (uint32_t) VADC_G_ICLASS_CME_Msk;
 519:../Libraries/XMCLib/src/xmc_vadc.c ****     sample_time_pos  = (uint32_t) VADC_G_ICLASS_STCE_Pos;
 520:../Libraries/XMCLib/src/xmc_vadc.c ****     sample_time_mask = (uint32_t) VADC_G_ICLASS_STCE_Msk;
 588              	 .loc 1 520 0
 589 0018 F825     	 mov r5,#248
 518:../Libraries/XMCLib/src/xmc_vadc.c ****     sample_time_pos  = (uint32_t) VADC_G_ICLASS_STCE_Pos;
 590              	 .loc 1 518 0
 591 001a E026     	 mov r6,#224
 519:../Libraries/XMCLib/src/xmc_vadc.c ****     sample_time_mask = (uint32_t) VADC_G_ICLASS_STCE_Msk;
 592              	 .loc 1 519 0
 593 001c 1022     	 mov r2,#16
 594              	.LVL58:
 517:../Libraries/XMCLib/src/xmc_vadc.c ****     conv_mode_mask   = (uint32_t) VADC_G_ICLASS_CME_Msk;
 595              	 .loc 1 517 0
 596 001e 1827     	 mov r7,#24
 521:../Libraries/XMCLib/src/xmc_vadc.c ****     sample_time      = (uint32_t) config.sampling_phase_emux_channel;
 597              	 .loc 1 521 0
 598 0020 CC02     	 lsl r4,r1,#11
 522:../Libraries/XMCLib/src/xmc_vadc.c ****     conv_mode        = (XMC_VADC_CONVMODE_t)config.conversion_mode_emux;
 599              	 .loc 1 522 0
 600 0022 4901     	 lsl r1,r1,#5
 601              	.LVL59:
 521:../Libraries/XMCLib/src/xmc_vadc.c ****     sample_time      = (uint32_t) config.sampling_phase_emux_channel;
 602              	 .loc 1 521 0
 603 0024 E40E     	 lsr r4,r4,#27
 604              	.LVL60:
 605              	 .loc 1 522 0
 606 0026 490F     	 lsr r1,r1,#29
 520:../Libraries/XMCLib/src/xmc_vadc.c ****     sample_time      = (uint32_t) config.sampling_phase_emux_channel;
 607              	 .loc 1 520 0
 608 0028 6D03     	 lsl r5,r5,#13
 518:../Libraries/XMCLib/src/xmc_vadc.c ****     sample_time_pos  = (uint32_t) VADC_G_ICLASS_STCE_Pos;
 609              	 .loc 1 518 0
 610 002a F604     	 lsl r6,r6,#19
 611              	.LVL61:
 612              	.L56:
 523:../Libraries/XMCLib/src/xmc_vadc.c ****   }
 524:../Libraries/XMCLib/src/xmc_vadc.c **** 
 525:../Libraries/XMCLib/src/xmc_vadc.c ****   /* Determine the class */
 526:../Libraries/XMCLib/src/xmc_vadc.c ****   conv_class  = group_ptr->ICLASS[set_num];
 527:../Libraries/XMCLib/src/xmc_vadc.c **** 
 528:../Libraries/XMCLib/src/xmc_vadc.c ****   /* Program the class register */
 529:../Libraries/XMCLib/src/xmc_vadc.c ****   conv_class &= ~(conv_mode_mask);
 530:../Libraries/XMCLib/src/xmc_vadc.c ****   conv_class |= (uint32_t)((uint32_t) conv_mode << conv_mode_pos);
 613              	 .loc 1 530 0
 614 002c B940     	 lsl r1,r1,r7
 615              	.LVL62:
 531:../Libraries/XMCLib/src/xmc_vadc.c ****   conv_class &= ~(sample_time_mask);
 532:../Libraries/XMCLib/src/xmc_vadc.c ****   conv_class |= (uint32_t)(sample_time <<  sample_time_pos);
 616              	 .loc 1 532 0
 617 002e 9440     	 lsl r4,r4,r2
 618              	.LVL63:
 619 0030 9B00     	 lsl r3,r3,#2
 620              	.LVL64:
 621 0032 C018     	 add r0,r0,r3
 622              	.LVL65:
 526:../Libraries/XMCLib/src/xmc_vadc.c **** 
 623              	 .loc 1 526 0
 624 0034 A030     	 add r0,r0,#160
 625 0036 0368     	 ldr r3,[r0]
 626              	.LVL66:
 533:../Libraries/XMCLib/src/xmc_vadc.c ****   group_ptr->ICLASS[set_num] = conv_class;
 534:../Libraries/XMCLib/src/xmc_vadc.c **** }
 627              	 .loc 1 534 0
 628              	 
 529:../Libraries/XMCLib/src/xmc_vadc.c ****   conv_class |= (uint32_t)((uint32_t) conv_mode << conv_mode_pos);
 629              	 .loc 1 529 0
 630 0038 B343     	 bic r3,r6
 631              	.LVL67:
 530:../Libraries/XMCLib/src/xmc_vadc.c ****   conv_class &= ~(sample_time_mask);
 632              	 .loc 1 530 0
 633 003a 1943     	 orr r1,r3
 634              	.LVL68:
 531:../Libraries/XMCLib/src/xmc_vadc.c ****   conv_class |= (uint32_t)(sample_time <<  sample_time_pos);
 635              	 .loc 1 531 0
 636 003c A943     	 bic r1,r5
 637              	.LVL69:
 532:../Libraries/XMCLib/src/xmc_vadc.c ****   group_ptr->ICLASS[set_num] = conv_class;
 638              	 .loc 1 532 0
 639 003e 2143     	 orr r1,r4
 640              	.LVL70:
 533:../Libraries/XMCLib/src/xmc_vadc.c **** }
 641              	 .loc 1 533 0
 642 0040 0160     	 str r1,[r0]
 643              	.LVL71:
 644              	.LVL72:
 645              	.LVL73:
 646              	 .loc 1 534 0
 647 0042 F0BD     	 pop {r4,r5,r6,r7,pc}
 648              	 .cfi_endproc
 649              	.LFE170:
 651              	 .section .text.XMC_VADC_GROUP_Init,"ax",%progbits
 652              	 .align 1
 653              	 .global XMC_VADC_GROUP_Init
 654              	 .code 16
 655              	 .thumb_func
 657              	XMC_VADC_GROUP_Init:
 658              	.LFB169:
 468:../Libraries/XMCLib/src/xmc_vadc.c ****   XMC_ASSERT("XMC_VADC_GROUP_Init:Wrong Group Pointer", XMC_VADC_CHECK_GROUP_PTR(group_ptr))
 659              	 .loc 1 468 0
 660              	 .cfi_startproc
 661              	.LVL74:
 472:../Libraries/XMCLib/src/xmc_vadc.c ****   XMC_VADC_GROUP_InputClassInit(group_ptr, config->class0, XMC_VADC_GROUP_CONV_EMUX, 0U);
 662              	 .loc 1 472 0
 663 0000 0022     	 mov r2,#0
 468:../Libraries/XMCLib/src/xmc_vadc.c ****   XMC_ASSERT("XMC_VADC_GROUP_Init:Wrong Group Pointer", XMC_VADC_CHECK_GROUP_PTR(group_ptr))
 664              	 .loc 1 468 0
 665 0002 F8B5     	 push {r3,r4,r5,r6,r7,lr}
 666              	.LCFI5:
 667              	 .cfi_def_cfa_offset 24
 668              	 .cfi_offset 3,-24
 669              	 .cfi_offset 4,-20
 670              	 .cfi_offset 5,-16
 671              	 .cfi_offset 6,-12
 672              	 .cfi_offset 7,-8
 673              	 .cfi_offset 14,-4
 468:../Libraries/XMCLib/src/xmc_vadc.c ****   XMC_ASSERT("XMC_VADC_GROUP_Init:Wrong Group Pointer", XMC_VADC_CHECK_GROUP_PTR(group_ptr))
 674              	 .loc 1 468 0
 675 0004 041C     	 mov r4,r0
 676 0006 0D1C     	 mov r5,r1
 472:../Libraries/XMCLib/src/xmc_vadc.c ****   XMC_VADC_GROUP_InputClassInit(group_ptr, config->class0, XMC_VADC_GROUP_CONV_EMUX, 0U);
 677              	 .loc 1 472 0
 678 0008 131C     	 mov r3,r2
 679 000a 4968     	 ldr r1,[r1,#4]
 680              	.LVL75:
 681 000c FFF7FEFF 	 bl XMC_VADC_GROUP_InputClassInit
 682              	.LVL76:
 473:../Libraries/XMCLib/src/xmc_vadc.c ****   XMC_VADC_GROUP_InputClassInit(group_ptr, config->class1, XMC_VADC_GROUP_CONV_STD, 1U);
 683              	 .loc 1 473 0
 684 0010 201C     	 mov r0,r4
 685 0012 6968     	 ldr r1,[r5,#4]
 686 0014 0122     	 mov r2,#1
 687 0016 0023     	 mov r3,#0
 688 0018 FFF7FEFF 	 bl XMC_VADC_GROUP_InputClassInit
 689              	.LVL77:
 474:../Libraries/XMCLib/src/xmc_vadc.c ****   XMC_VADC_GROUP_InputClassInit(group_ptr, config->class1, XMC_VADC_GROUP_CONV_EMUX, 1U);
 690              	 .loc 1 474 0
 691 001c 201C     	 mov r0,r4
 692 001e A968     	 ldr r1,[r5,#8]
 693 0020 0022     	 mov r2,#0
 694 0022 0123     	 mov r3,#1
 695 0024 FFF7FEFF 	 bl XMC_VADC_GROUP_InputClassInit
 696              	.LVL78:
 475:../Libraries/XMCLib/src/xmc_vadc.c **** 
 697              	 .loc 1 475 0
 698 0028 0122     	 mov r2,#1
 699 002a 201C     	 mov r0,r4
 700 002c A968     	 ldr r1,[r5,#8]
 701 002e 131C     	 mov r3,r2
 702 0030 FFF7FEFF 	 bl XMC_VADC_GROUP_InputClassInit
 703              	.LVL79:
 477:../Libraries/XMCLib/src/xmc_vadc.c **** 
 704              	 .loc 1 477 0
 705 0034 2A69     	 ldr r2,[r5,#16]
 706 0036 231D     	 add r3,r4,#4
 707 0038 DA67     	 str r2,[r3,#124]
 479:../Libraries/XMCLib/src/xmc_vadc.c **** 
 708              	 .loc 1 479 0
 709 003a EA68     	 ldr r2,[r5,#12]
 710 003c B433     	 add r3,r3,#180
 711 003e 1A60     	 str r2,[r3]
 712              	.LVL80:
 713 0040 6E88     	 ldrh r6,[r5,#2]
 714 0042 EB78     	 ldrb r3,[r5,#3]
 715 0044 2D78     	 ldrb r5,[r5]
 716              	.LVL81:
 717 0046 B605     	 lsl r6,r6,#22
 718              	.LVL82:
 719 0048 6D07     	 lsl r5,r5,#29
 720              	.LVL83:
 721              	.LBB26:
 722              	.LBB27:
 723              	 .file 2 "C:/Workspace/DAVE-4.4.2-64Bit/xmc1400-getstarted-optiga-trust-m/Libraries/XMCLib/inc/xmc_vadc.h"
   1:C:/Workspace/DAVE-4.4.2-64Bit/xmc1400-getstarted-optiga-trust-m/Libraries/XMCLib/inc\xmc_vadc.h **** /**
   2:C:/Workspace/DAVE-4.4.2-64Bit/xmc1400-getstarted-optiga-trust-m/Libraries/XMCLib/inc\xmc_vadc.h ****  * @file xmc_vadc.h
   3:C:/Workspace/DAVE-4.4.2-64Bit/xmc1400-getstarted-optiga-trust-m/Libraries/XMCLib/inc\xmc_vadc.h ****  * @date 2019-03-30
   4:C:/Workspace/DAVE-4.4.2-64Bit/xmc1400-getstarted-optiga-trust-m/Libraries/XMCLib/inc\xmc_vadc.h ****  *
   5:C:/Workspace/DAVE-4.4.2-64Bit/xmc1400-getstarted-optiga-trust-m/Libraries/XMCLib/inc\xmc_vadc.h ****  * @cond
   6:C:/Workspace/DAVE-4.4.2-64Bit/xmc1400-getstarted-optiga-trust-m/Libraries/XMCLib/inc\xmc_vadc.h ****  **************************************************************************************************
   7:C:/Workspace/DAVE-4.4.2-64Bit/xmc1400-getstarted-optiga-trust-m/Libraries/XMCLib/inc\xmc_vadc.h ****  * XMClib v2.1.24 - XMC Peripheral Driver Library 
   8:C:/Workspace/DAVE-4.4.2-64Bit/xmc1400-getstarted-optiga-trust-m/Libraries/XMCLib/inc\xmc_vadc.h ****  *
   9:C:/Workspace/DAVE-4.4.2-64Bit/xmc1400-getstarted-optiga-trust-m/Libraries/XMCLib/inc\xmc_vadc.h ****  * Copyright (c) 2015-2019, Infineon Technologies AG
  10:C:/Workspace/DAVE-4.4.2-64Bit/xmc1400-getstarted-optiga-trust-m/Libraries/XMCLib/inc\xmc_vadc.h ****  * All rights reserved.                        
  11:C:/Workspace/DAVE-4.4.2-64Bit/xmc1400-getstarted-optiga-trust-m/Libraries/XMCLib/inc\xmc_vadc.h ****  *                                             
  12:C:/Workspace/DAVE-4.4.2-64Bit/xmc1400-getstarted-optiga-trust-m/Libraries/XMCLib/inc\xmc_vadc.h ****  * Redistribution and use in source and binary forms, with or without modification,are permitted pr
  13:C:/Workspace/DAVE-4.4.2-64Bit/xmc1400-getstarted-optiga-trust-m/Libraries/XMCLib/inc\xmc_vadc.h ****  * following conditions are met:   
  14:C:/Workspace/DAVE-4.4.2-64Bit/xmc1400-getstarted-optiga-trust-m/Libraries/XMCLib/inc\xmc_vadc.h ****  *                                                                              
  15:C:/Workspace/DAVE-4.4.2-64Bit/xmc1400-getstarted-optiga-trust-m/Libraries/XMCLib/inc\xmc_vadc.h ****  * Redistributions of source code must retain the above copyright notice, this list of conditions a
  16:C:/Workspace/DAVE-4.4.2-64Bit/xmc1400-getstarted-optiga-trust-m/Libraries/XMCLib/inc\xmc_vadc.h ****  * disclaimer.                        
  17:C:/Workspace/DAVE-4.4.2-64Bit/xmc1400-getstarted-optiga-trust-m/Libraries/XMCLib/inc\xmc_vadc.h ****  * 
  18:C:/Workspace/DAVE-4.4.2-64Bit/xmc1400-getstarted-optiga-trust-m/Libraries/XMCLib/inc\xmc_vadc.h ****  * Redistributions in binary form must reproduce the above copyright notice, this list of condition
  19:C:/Workspace/DAVE-4.4.2-64Bit/xmc1400-getstarted-optiga-trust-m/Libraries/XMCLib/inc\xmc_vadc.h ****  * disclaimer in the documentation and/or other materials provided with the distribution.          
  20:C:/Workspace/DAVE-4.4.2-64Bit/xmc1400-getstarted-optiga-trust-m/Libraries/XMCLib/inc\xmc_vadc.h ****  * 
  21:C:/Workspace/DAVE-4.4.2-64Bit/xmc1400-getstarted-optiga-trust-m/Libraries/XMCLib/inc\xmc_vadc.h ****  * Neither the name of the copyright holders nor the names of its contributors may be used to endor
  22:C:/Workspace/DAVE-4.4.2-64Bit/xmc1400-getstarted-optiga-trust-m/Libraries/XMCLib/inc\xmc_vadc.h ****  * products derived from this software without specific prior written permission.                  
  23:C:/Workspace/DAVE-4.4.2-64Bit/xmc1400-getstarted-optiga-trust-m/Libraries/XMCLib/inc\xmc_vadc.h ****  *                                                                              
  24:C:/Workspace/DAVE-4.4.2-64Bit/xmc1400-getstarted-optiga-trust-m/Libraries/XMCLib/inc\xmc_vadc.h ****  * THIS SOFTWARE IS PROVIDED BY THE COPYRIGHT HOLDERS AND CONTRIBUTORS "AS IS" AND ANY EXPRESS OR I
  25:C:/Workspace/DAVE-4.4.2-64Bit/xmc1400-getstarted-optiga-trust-m/Libraries/XMCLib/inc\xmc_vadc.h ****  * INCLUDING, BUT NOT LIMITED TO, THE IMPLIED WARRANTIES OF MERCHANTABILITY AND FITNESS FOR A PARTI
  26:C:/Workspace/DAVE-4.4.2-64Bit/xmc1400-getstarted-optiga-trust-m/Libraries/XMCLib/inc\xmc_vadc.h ****  * DISCLAIMED. IN NO EVENT SHALL THE COPYRIGHT HOLDER OR CONTRIBUTORS BE LIABLE  FOR ANY DIRECT, IN
  27:C:/Workspace/DAVE-4.4.2-64Bit/xmc1400-getstarted-optiga-trust-m/Libraries/XMCLib/inc\xmc_vadc.h ****  * SPECIAL, EXEMPLARY, OR CONSEQUENTIAL DAMAGES (INCLUDING, BUT NOT LIMITED TO, PROCUREMENT OF SUBS
  28:C:/Workspace/DAVE-4.4.2-64Bit/xmc1400-getstarted-optiga-trust-m/Libraries/XMCLib/inc\xmc_vadc.h ****  * SERVICES; LOSS OF USE, DATA, OR PROFITS; OR BUSINESS INTERRUPTION) HOWEVER CAUSED AND ON ANY THE
  29:C:/Workspace/DAVE-4.4.2-64Bit/xmc1400-getstarted-optiga-trust-m/Libraries/XMCLib/inc\xmc_vadc.h ****  * WHETHER IN CONTRACT, STRICT LIABILITY,OR TORT (INCLUDING NEGLIGENCE OR OTHERWISE) ARISING IN ANY
  30:C:/Workspace/DAVE-4.4.2-64Bit/xmc1400-getstarted-optiga-trust-m/Libraries/XMCLib/inc\xmc_vadc.h ****  * OF THIS SOFTWARE, EVEN IF ADVISED OF THE POSSIBILITY OF SUCH DAMAGE.                            
  31:C:/Workspace/DAVE-4.4.2-64Bit/xmc1400-getstarted-optiga-trust-m/Libraries/XMCLib/inc\xmc_vadc.h ****  *                                                                              
  32:C:/Workspace/DAVE-4.4.2-64Bit/xmc1400-getstarted-optiga-trust-m/Libraries/XMCLib/inc\xmc_vadc.h ****  * To improve the quality of the software, users are encouraged to share modifications, enhancement
  33:C:/Workspace/DAVE-4.4.2-64Bit/xmc1400-getstarted-optiga-trust-m/Libraries/XMCLib/inc\xmc_vadc.h ****  * Infineon Technologies AG dave@infineon.com).                                                    
  34:C:/Workspace/DAVE-4.4.2-64Bit/xmc1400-getstarted-optiga-trust-m/Libraries/XMCLib/inc\xmc_vadc.h ****  **************************************************************************************************
  35:C:/Workspace/DAVE-4.4.2-64Bit/xmc1400-getstarted-optiga-trust-m/Libraries/XMCLib/inc\xmc_vadc.h ****  *
  36:C:/Workspace/DAVE-4.4.2-64Bit/xmc1400-getstarted-optiga-trust-m/Libraries/XMCLib/inc\xmc_vadc.h ****  * Change History
  37:C:/Workspace/DAVE-4.4.2-64Bit/xmc1400-getstarted-optiga-trust-m/Libraries/XMCLib/inc\xmc_vadc.h ****  * --------------
  38:C:/Workspace/DAVE-4.4.2-64Bit/xmc1400-getstarted-optiga-trust-m/Libraries/XMCLib/inc\xmc_vadc.h ****  *
  39:C:/Workspace/DAVE-4.4.2-64Bit/xmc1400-getstarted-optiga-trust-m/Libraries/XMCLib/inc\xmc_vadc.h ****  * 2015-02-15:
  40:C:/Workspace/DAVE-4.4.2-64Bit/xmc1400-getstarted-optiga-trust-m/Libraries/XMCLib/inc\xmc_vadc.h ****  *     - Initial <br>
  41:C:/Workspace/DAVE-4.4.2-64Bit/xmc1400-getstarted-optiga-trust-m/Libraries/XMCLib/inc\xmc_vadc.h ****  *      
  42:C:/Workspace/DAVE-4.4.2-64Bit/xmc1400-getstarted-optiga-trust-m/Libraries/XMCLib/inc\xmc_vadc.h ****  * 2015-02-20:
  43:C:/Workspace/DAVE-4.4.2-64Bit/xmc1400-getstarted-optiga-trust-m/Libraries/XMCLib/inc\xmc_vadc.h ****  *     - Revised for XMC1201 device.<br>
  44:C:/Workspace/DAVE-4.4.2-64Bit/xmc1400-getstarted-optiga-trust-m/Libraries/XMCLib/inc\xmc_vadc.h ****  *   
  45:C:/Workspace/DAVE-4.4.2-64Bit/xmc1400-getstarted-optiga-trust-m/Libraries/XMCLib/inc\xmc_vadc.h ****  * 2015-04-27:
  46:C:/Workspace/DAVE-4.4.2-64Bit/xmc1400-getstarted-optiga-trust-m/Libraries/XMCLib/inc\xmc_vadc.h ****  *     - Added new APIs for SHS.<br>
  47:C:/Workspace/DAVE-4.4.2-64Bit/xmc1400-getstarted-optiga-trust-m/Libraries/XMCLib/inc\xmc_vadc.h ****  *     - Added New APIs for trigger edge selection.<BR>
  48:C:/Workspace/DAVE-4.4.2-64Bit/xmc1400-getstarted-optiga-trust-m/Libraries/XMCLib/inc\xmc_vadc.h ****  *     - Added new APIs for Queue flush entries, boundary selection, Boundary node pointer.<BR>
  49:C:/Workspace/DAVE-4.4.2-64Bit/xmc1400-getstarted-optiga-trust-m/Libraries/XMCLib/inc\xmc_vadc.h ****  *     - Revised GatingMode APIs and EMUX Control Init API.<BR>
  50:C:/Workspace/DAVE-4.4.2-64Bit/xmc1400-getstarted-optiga-trust-m/Libraries/XMCLib/inc\xmc_vadc.h ****  *
  51:C:/Workspace/DAVE-4.4.2-64Bit/xmc1400-getstarted-optiga-trust-m/Libraries/XMCLib/inc\xmc_vadc.h ****  * 2015-06-20:
  52:C:/Workspace/DAVE-4.4.2-64Bit/xmc1400-getstarted-optiga-trust-m/Libraries/XMCLib/inc\xmc_vadc.h ****  *     - Removed version macros and declaration of GetDriverVersion API
  53:C:/Workspace/DAVE-4.4.2-64Bit/xmc1400-getstarted-optiga-trust-m/Libraries/XMCLib/inc\xmc_vadc.h ****  * 2015-06-25:
  54:C:/Workspace/DAVE-4.4.2-64Bit/xmc1400-getstarted-optiga-trust-m/Libraries/XMCLib/inc\xmc_vadc.h ****  *     - BFL configuration in channel initialization fixed.
  55:C:/Workspace/DAVE-4.4.2-64Bit/xmc1400-getstarted-optiga-trust-m/Libraries/XMCLib/inc\xmc_vadc.h ****  *
  56:C:/Workspace/DAVE-4.4.2-64Bit/xmc1400-getstarted-optiga-trust-m/Libraries/XMCLib/inc\xmc_vadc.h ****  * 2015-07-28:
  57:C:/Workspace/DAVE-4.4.2-64Bit/xmc1400-getstarted-optiga-trust-m/Libraries/XMCLib/inc\xmc_vadc.h ****  *     - CLOCK_GATING_SUPPORTED and PERIPHERAL_RESET_SUPPORTED macros used
  58:C:/Workspace/DAVE-4.4.2-64Bit/xmc1400-getstarted-optiga-trust-m/Libraries/XMCLib/inc\xmc_vadc.h ****  *     - Clubbed the macro definitions for XMC13 XMC12 and XMC14
  59:C:/Workspace/DAVE-4.4.2-64Bit/xmc1400-getstarted-optiga-trust-m/Libraries/XMCLib/inc\xmc_vadc.h ****  *     - Clubbed the macro definitions for XMC44 XMC47 and XMC48
  60:C:/Workspace/DAVE-4.4.2-64Bit/xmc1400-getstarted-optiga-trust-m/Libraries/XMCLib/inc\xmc_vadc.h ****  *     - New APIs Created.
  61:C:/Workspace/DAVE-4.4.2-64Bit/xmc1400-getstarted-optiga-trust-m/Libraries/XMCLib/inc\xmc_vadc.h ****  *           - XMC_VADC_GLOBAL_SetIndividualBoundary
  62:C:/Workspace/DAVE-4.4.2-64Bit/xmc1400-getstarted-optiga-trust-m/Libraries/XMCLib/inc\xmc_vadc.h ****  *           - XMC_VADC_GROUP_SetIndividualBoundary
  63:C:/Workspace/DAVE-4.4.2-64Bit/xmc1400-getstarted-optiga-trust-m/Libraries/XMCLib/inc\xmc_vadc.h ****  *           - XMC_VADC_GROUP_GetAlias
  64:C:/Workspace/DAVE-4.4.2-64Bit/xmc1400-getstarted-optiga-trust-m/Libraries/XMCLib/inc\xmc_vadc.h ****  *           - XMC_VADC_GROUP_GetInputClass
  65:C:/Workspace/DAVE-4.4.2-64Bit/xmc1400-getstarted-optiga-trust-m/Libraries/XMCLib/inc\xmc_vadc.h ****  *           - XMC_VADC_GROUP_ChannelSetIclass
  66:C:/Workspace/DAVE-4.4.2-64Bit/xmc1400-getstarted-optiga-trust-m/Libraries/XMCLib/inc\xmc_vadc.h ****  *           - XMC_VADC_GROUP_ChannelGetResultAlignment
  67:C:/Workspace/DAVE-4.4.2-64Bit/xmc1400-getstarted-optiga-trust-m/Libraries/XMCLib/inc\xmc_vadc.h ****  *           - XMC_VADC_GROUP_ChannelGetInputClass
  68:C:/Workspace/DAVE-4.4.2-64Bit/xmc1400-getstarted-optiga-trust-m/Libraries/XMCLib/inc\xmc_vadc.h ****  *           - XMC_VADC_GROUP_SetResultSubtractionValue
  69:C:/Workspace/DAVE-4.4.2-64Bit/xmc1400-getstarted-optiga-trust-m/Libraries/XMCLib/inc\xmc_vadc.h ****  *
  70:C:/Workspace/DAVE-4.4.2-64Bit/xmc1400-getstarted-optiga-trust-m/Libraries/XMCLib/inc\xmc_vadc.h ****  * 2015-12-01:
  71:C:/Workspace/DAVE-4.4.2-64Bit/xmc1400-getstarted-optiga-trust-m/Libraries/XMCLib/inc\xmc_vadc.h ****  *     - Added:
  72:C:/Workspace/DAVE-4.4.2-64Bit/xmc1400-getstarted-optiga-trust-m/Libraries/XMCLib/inc\xmc_vadc.h ****  *     - XMC4300 device supported
  73:C:/Workspace/DAVE-4.4.2-64Bit/xmc1400-getstarted-optiga-trust-m/Libraries/XMCLib/inc\xmc_vadc.h ****  *
  74:C:/Workspace/DAVE-4.4.2-64Bit/xmc1400-getstarted-optiga-trust-m/Libraries/XMCLib/inc\xmc_vadc.h ****  *     - Fixed:
  75:C:/Workspace/DAVE-4.4.2-64Bit/xmc1400-getstarted-optiga-trust-m/Libraries/XMCLib/inc\xmc_vadc.h ****  *     - XMC_VADC_GLOBAL_TriggerEvent API updated. OR operation removed. 
  76:C:/Workspace/DAVE-4.4.2-64Bit/xmc1400-getstarted-optiga-trust-m/Libraries/XMCLib/inc\xmc_vadc.h ****  *     - XMC_VADC_GLOBAL_ClearEvent API updated. Multiple events triggering on clearing the event i
  77:C:/Workspace/DAVE-4.4.2-64Bit/xmc1400-getstarted-optiga-trust-m/Libraries/XMCLib/inc\xmc_vadc.h ****  *     - Wrong MACRO name defined in xmc_vadc_map.h file corrected for XMC4200/4100 devices.
  78:C:/Workspace/DAVE-4.4.2-64Bit/xmc1400-getstarted-optiga-trust-m/Libraries/XMCLib/inc\xmc_vadc.h ****  *       XMC_VADC_G3_SAMPLE renamed to XMC_VADC_G1_SAMPLE
  79:C:/Workspace/DAVE-4.4.2-64Bit/xmc1400-getstarted-optiga-trust-m/Libraries/XMCLib/inc\xmc_vadc.h ****  *
  80:C:/Workspace/DAVE-4.4.2-64Bit/xmc1400-getstarted-optiga-trust-m/Libraries/XMCLib/inc\xmc_vadc.h ****  * 2015-12-01:
  81:C:/Workspace/DAVE-4.4.2-64Bit/xmc1400-getstarted-optiga-trust-m/Libraries/XMCLib/inc\xmc_vadc.h ****  *     - New APIs Created.
  82:C:/Workspace/DAVE-4.4.2-64Bit/xmc1400-getstarted-optiga-trust-m/Libraries/XMCLib/inc\xmc_vadc.h ****  *           - XMC_VADC_GROUP_ScanIsArbitrationSlotEnabled
  83:C:/Workspace/DAVE-4.4.2-64Bit/xmc1400-getstarted-optiga-trust-m/Libraries/XMCLib/inc\xmc_vadc.h ****  *           - XMC_VADC_GROUP_QueueIsArbitrationSlotEnabled
  84:C:/Workspace/DAVE-4.4.2-64Bit/xmc1400-getstarted-optiga-trust-m/Libraries/XMCLib/inc\xmc_vadc.h ****  *     - Fixed the analog calibration voltage for XMC1100 to external reference upper supply range.
  85:C:/Workspace/DAVE-4.4.2-64Bit/xmc1400-getstarted-optiga-trust-m/Libraries/XMCLib/inc\xmc_vadc.h ****  *     - Fixed the XMC_VADC_GLOBAL_StartupCalibration() for XMC1100.
  86:C:/Workspace/DAVE-4.4.2-64Bit/xmc1400-getstarted-optiga-trust-m/Libraries/XMCLib/inc\xmc_vadc.h ****  *
  87:C:/Workspace/DAVE-4.4.2-64Bit/xmc1400-getstarted-optiga-trust-m/Libraries/XMCLib/inc\xmc_vadc.h ****  * 2016-03-09:
  88:C:/Workspace/DAVE-4.4.2-64Bit/xmc1400-getstarted-optiga-trust-m/Libraries/XMCLib/inc\xmc_vadc.h ****  *     - Optimization of write only registers
  89:C:/Workspace/DAVE-4.4.2-64Bit/xmc1400-getstarted-optiga-trust-m/Libraries/XMCLib/inc\xmc_vadc.h ****  *
  90:C:/Workspace/DAVE-4.4.2-64Bit/xmc1400-getstarted-optiga-trust-m/Libraries/XMCLib/inc\xmc_vadc.h ****  * 2016-03-18:
  91:C:/Workspace/DAVE-4.4.2-64Bit/xmc1400-getstarted-optiga-trust-m/Libraries/XMCLib/inc\xmc_vadc.h ****  *     - Fixed XMC_VADC_GLOBAL_SHS_IsConverterReady(): API checks the STEPCFG register for the read
  92:C:/Workspace/DAVE-4.4.2-64Bit/xmc1400-getstarted-optiga-trust-m/Libraries/XMCLib/inc\xmc_vadc.h ****  *       SHSCFG SFR. 
  93:C:/Workspace/DAVE-4.4.2-64Bit/xmc1400-getstarted-optiga-trust-m/Libraries/XMCLib/inc\xmc_vadc.h ****  *
  94:C:/Workspace/DAVE-4.4.2-64Bit/xmc1400-getstarted-optiga-trust-m/Libraries/XMCLib/inc\xmc_vadc.h ****  * 2016-06-17:
  95:C:/Workspace/DAVE-4.4.2-64Bit/xmc1400-getstarted-optiga-trust-m/Libraries/XMCLib/inc\xmc_vadc.h ****  *     - New macros added XMC_VADC_SHS_FULL_SET_REG, XMC_VADC_RESULT_PRIORITY_AVAILABLE
  96:C:/Workspace/DAVE-4.4.2-64Bit/xmc1400-getstarted-optiga-trust-m/Libraries/XMCLib/inc\xmc_vadc.h ****  *     - New Enum added XMC_VADC_SHS_GAIN_LEVEL_t and XMC_VADC_SYNCTR_EVAL_t
  97:C:/Workspace/DAVE-4.4.2-64Bit/xmc1400-getstarted-optiga-trust-m/Libraries/XMCLib/inc\xmc_vadc.h ****  *     - New APIs added are:
  98:C:/Workspace/DAVE-4.4.2-64Bit/xmc1400-getstarted-optiga-trust-m/Libraries/XMCLib/inc\xmc_vadc.h ****  *           - XMC_VADC_GROUP_SetSyncSlaveReadySignal
  99:C:/Workspace/DAVE-4.4.2-64Bit/xmc1400-getstarted-optiga-trust-m/Libraries/XMCLib/inc\xmc_vadc.h ****  *           - XMC_VADC_GROUP_ChannelGetAssertedEvents
 100:C:/Workspace/DAVE-4.4.2-64Bit/xmc1400-getstarted-optiga-trust-m/Libraries/XMCLib/inc\xmc_vadc.h ****  *           - XMC_VADC_GROUP_GetAssertedResultEvents
 101:C:/Workspace/DAVE-4.4.2-64Bit/xmc1400-getstarted-optiga-trust-m/Libraries/XMCLib/inc\xmc_vadc.h ****  *           - XMC_VADC_GROUP_SetResultRegPriority
 102:C:/Workspace/DAVE-4.4.2-64Bit/xmc1400-getstarted-optiga-trust-m/Libraries/XMCLib/inc\xmc_vadc.h ****  *           - XMC_VADC_GROUP_SetSyncReadySignal
 103:C:/Workspace/DAVE-4.4.2-64Bit/xmc1400-getstarted-optiga-trust-m/Libraries/XMCLib/inc\xmc_vadc.h ****  *           - XMC_VADC_GROUP_GetSyncReadySignal
 104:C:/Workspace/DAVE-4.4.2-64Bit/xmc1400-getstarted-optiga-trust-m/Libraries/XMCLib/inc\xmc_vadc.h ****  *           - XMC_VADC_GROUP_GetResultRegPriority
 105:C:/Workspace/DAVE-4.4.2-64Bit/xmc1400-getstarted-optiga-trust-m/Libraries/XMCLib/inc\xmc_vadc.h ****  *
 106:C:/Workspace/DAVE-4.4.2-64Bit/xmc1400-getstarted-optiga-trust-m/Libraries/XMCLib/inc\xmc_vadc.h ****  * 2017-02-06:
 107:C:/Workspace/DAVE-4.4.2-64Bit/xmc1400-getstarted-optiga-trust-m/Libraries/XMCLib/inc\xmc_vadc.h ****  *     - Added new functions to remove channels from background request source, XMC_VADC_GLOBAL_Bac
 108:C:/Workspace/DAVE-4.4.2-64Bit/xmc1400-getstarted-optiga-trust-m/Libraries/XMCLib/inc\xmc_vadc.h ****  *
 109:C:/Workspace/DAVE-4.4.2-64Bit/xmc1400-getstarted-optiga-trust-m/Libraries/XMCLib/inc\xmc_vadc.h ****  * 2017-06-24:
 110:C:/Workspace/DAVE-4.4.2-64Bit/xmc1400-getstarted-optiga-trust-m/Libraries/XMCLib/inc\xmc_vadc.h ****  *     - Added new function XMC_VADC_GLOBAL_SHS_SetAnalogReference() for XMC1 family
 111:C:/Workspace/DAVE-4.4.2-64Bit/xmc1400-getstarted-optiga-trust-m/Libraries/XMCLib/inc\xmc_vadc.h ****  *
 112:C:/Workspace/DAVE-4.4.2-64Bit/xmc1400-getstarted-optiga-trust-m/Libraries/XMCLib/inc\xmc_vadc.h ****  * 2017-08-14:
 113:C:/Workspace/DAVE-4.4.2-64Bit/xmc1400-getstarted-optiga-trust-m/Libraries/XMCLib/inc\xmc_vadc.h ****  *     - Added XMC_VADC_GLOBAL_DETAILED_RESULT_t
 114:C:/Workspace/DAVE-4.4.2-64Bit/xmc1400-getstarted-optiga-trust-m/Libraries/XMCLib/inc\xmc_vadc.h ****  *       You can cast the return of XMC_VADC_GLOBAL_GetDetailedResult() to a varible of type XMC_VA
 115:C:/Workspace/DAVE-4.4.2-64Bit/xmc1400-getstarted-optiga-trust-m/Libraries/XMCLib/inc\xmc_vadc.h ****  *     - Fixed XMC_VADC_GLOBAL_SHS_SetAnalogReference() to update AREF bitfield correctly
 116:C:/Workspace/DAVE-4.4.2-64Bit/xmc1400-getstarted-optiga-trust-m/Libraries/XMCLib/inc\xmc_vadc.h ****  *
 117:C:/Workspace/DAVE-4.4.2-64Bit/xmc1400-getstarted-optiga-trust-m/Libraries/XMCLib/inc\xmc_vadc.h ****  * 2019-03-30:
 118:C:/Workspace/DAVE-4.4.2-64Bit/xmc1400-getstarted-optiga-trust-m/Libraries/XMCLib/inc\xmc_vadc.h ****  *     - Changed XMC_VADC_GROUP_SetChannelAlias() to inline function
 119:C:/Workspace/DAVE-4.4.2-64Bit/xmc1400-getstarted-optiga-trust-m/Libraries/XMCLib/inc\xmc_vadc.h ****  *     - Added XMC_VADC_GROUP_GetChannelAlias()
 120:C:/Workspace/DAVE-4.4.2-64Bit/xmc1400-getstarted-optiga-trust-m/Libraries/XMCLib/inc\xmc_vadc.h ****  * 
 121:C:/Workspace/DAVE-4.4.2-64Bit/xmc1400-getstarted-optiga-trust-m/Libraries/XMCLib/inc\xmc_vadc.h ****  * @endcond 
 122:C:/Workspace/DAVE-4.4.2-64Bit/xmc1400-getstarted-optiga-trust-m/Libraries/XMCLib/inc\xmc_vadc.h ****  *
 123:C:/Workspace/DAVE-4.4.2-64Bit/xmc1400-getstarted-optiga-trust-m/Libraries/XMCLib/inc\xmc_vadc.h ****  */
 124:C:/Workspace/DAVE-4.4.2-64Bit/xmc1400-getstarted-optiga-trust-m/Libraries/XMCLib/inc\xmc_vadc.h **** 
 125:C:/Workspace/DAVE-4.4.2-64Bit/xmc1400-getstarted-optiga-trust-m/Libraries/XMCLib/inc\xmc_vadc.h **** #ifndef XMC_VADC_H
 126:C:/Workspace/DAVE-4.4.2-64Bit/xmc1400-getstarted-optiga-trust-m/Libraries/XMCLib/inc\xmc_vadc.h **** #define XMC_VADC_H
 127:C:/Workspace/DAVE-4.4.2-64Bit/xmc1400-getstarted-optiga-trust-m/Libraries/XMCLib/inc\xmc_vadc.h ****  
 128:C:/Workspace/DAVE-4.4.2-64Bit/xmc1400-getstarted-optiga-trust-m/Libraries/XMCLib/inc\xmc_vadc.h **** /**************************************************************************************************
 129:C:/Workspace/DAVE-4.4.2-64Bit/xmc1400-getstarted-optiga-trust-m/Libraries/XMCLib/inc\xmc_vadc.h ****  * HEADER FILES
 130:C:/Workspace/DAVE-4.4.2-64Bit/xmc1400-getstarted-optiga-trust-m/Libraries/XMCLib/inc\xmc_vadc.h ****  **************************************************************************************************
 131:C:/Workspace/DAVE-4.4.2-64Bit/xmc1400-getstarted-optiga-trust-m/Libraries/XMCLib/inc\xmc_vadc.h **** #include <xmc_common.h>
 132:C:/Workspace/DAVE-4.4.2-64Bit/xmc1400-getstarted-optiga-trust-m/Libraries/XMCLib/inc\xmc_vadc.h **** #include <xmc_scu.h>
 133:C:/Workspace/DAVE-4.4.2-64Bit/xmc1400-getstarted-optiga-trust-m/Libraries/XMCLib/inc\xmc_vadc.h **** #include <xmc_vadc_map.h>
 134:C:/Workspace/DAVE-4.4.2-64Bit/xmc1400-getstarted-optiga-trust-m/Libraries/XMCLib/inc\xmc_vadc.h **** 
 135:C:/Workspace/DAVE-4.4.2-64Bit/xmc1400-getstarted-optiga-trust-m/Libraries/XMCLib/inc\xmc_vadc.h **** /**
 136:C:/Workspace/DAVE-4.4.2-64Bit/xmc1400-getstarted-optiga-trust-m/Libraries/XMCLib/inc\xmc_vadc.h ****  * @addtogroup XMClib XMC Peripheral Library
 137:C:/Workspace/DAVE-4.4.2-64Bit/xmc1400-getstarted-optiga-trust-m/Libraries/XMCLib/inc\xmc_vadc.h ****  * @{
 138:C:/Workspace/DAVE-4.4.2-64Bit/xmc1400-getstarted-optiga-trust-m/Libraries/XMCLib/inc\xmc_vadc.h ****  */
 139:C:/Workspace/DAVE-4.4.2-64Bit/xmc1400-getstarted-optiga-trust-m/Libraries/XMCLib/inc\xmc_vadc.h ****  
 140:C:/Workspace/DAVE-4.4.2-64Bit/xmc1400-getstarted-optiga-trust-m/Libraries/XMCLib/inc\xmc_vadc.h **** /**
 141:C:/Workspace/DAVE-4.4.2-64Bit/xmc1400-getstarted-optiga-trust-m/Libraries/XMCLib/inc\xmc_vadc.h ****  * @addtogroup VADC
 142:C:/Workspace/DAVE-4.4.2-64Bit/xmc1400-getstarted-optiga-trust-m/Libraries/XMCLib/inc\xmc_vadc.h ****  * @brief Versatile Analog to Digital Converter (VADC) driver for XMC microcontroller family.
 143:C:/Workspace/DAVE-4.4.2-64Bit/xmc1400-getstarted-optiga-trust-m/Libraries/XMCLib/inc\xmc_vadc.h ****  *
 144:C:/Workspace/DAVE-4.4.2-64Bit/xmc1400-getstarted-optiga-trust-m/Libraries/XMCLib/inc\xmc_vadc.h ****  * The XMC microcontroller provides a series of analog input channels connected to a cluster of Ana
 145:C:/Workspace/DAVE-4.4.2-64Bit/xmc1400-getstarted-optiga-trust-m/Libraries/XMCLib/inc\xmc_vadc.h ****  * Converters using the Successive Approximation Register (SAR) principle to convert analog input v
 146:C:/Workspace/DAVE-4.4.2-64Bit/xmc1400-getstarted-optiga-trust-m/Libraries/XMCLib/inc\xmc_vadc.h ****  * to discrete digital values.
 147:C:/Workspace/DAVE-4.4.2-64Bit/xmc1400-getstarted-optiga-trust-m/Libraries/XMCLib/inc\xmc_vadc.h ****  * \if XMC1
 148:C:/Workspace/DAVE-4.4.2-64Bit/xmc1400-getstarted-optiga-trust-m/Libraries/XMCLib/inc\xmc_vadc.h ****  * The XMC1x is based on Sample & Hold converters, where a cluster contains 2 Sample&Hold units whi
 149:C:/Workspace/DAVE-4.4.2-64Bit/xmc1400-getstarted-optiga-trust-m/Libraries/XMCLib/inc\xmc_vadc.h ****  * converter.
 150:C:/Workspace/DAVE-4.4.2-64Bit/xmc1400-getstarted-optiga-trust-m/Libraries/XMCLib/inc\xmc_vadc.h ****  * \endif
 151:C:/Workspace/DAVE-4.4.2-64Bit/xmc1400-getstarted-optiga-trust-m/Libraries/XMCLib/inc\xmc_vadc.h ****  *
 152:C:/Workspace/DAVE-4.4.2-64Bit/xmc1400-getstarted-optiga-trust-m/Libraries/XMCLib/inc\xmc_vadc.h ****  * Each converter of the ADC cluster can operate independent of the others, controlled by a dedicat
 153:C:/Workspace/DAVE-4.4.2-64Bit/xmc1400-getstarted-optiga-trust-m/Libraries/XMCLib/inc\xmc_vadc.h ****  * registers and triggered by a dedicated group request source. The results of each channel can be 
 154:C:/Workspace/DAVE-4.4.2-64Bit/xmc1400-getstarted-optiga-trust-m/Libraries/XMCLib/inc\xmc_vadc.h ****  * dedicated channel-specific result register or in a group-specific result register.<BR>
 155:C:/Workspace/DAVE-4.4.2-64Bit/xmc1400-getstarted-optiga-trust-m/Libraries/XMCLib/inc\xmc_vadc.h ****  *
 156:C:/Workspace/DAVE-4.4.2-64Bit/xmc1400-getstarted-optiga-trust-m/Libraries/XMCLib/inc\xmc_vadc.h ****  * The Versatile Analog to Digital Converter module (VADC) of the XMC comprises a set of converter 
 157:C:/Workspace/DAVE-4.4.2-64Bit/xmc1400-getstarted-optiga-trust-m/Libraries/XMCLib/inc\xmc_vadc.h ****  * can be operated either independently or via a common request source that emulates a background c
 158:C:/Workspace/DAVE-4.4.2-64Bit/xmc1400-getstarted-optiga-trust-m/Libraries/XMCLib/inc\xmc_vadc.h ****  * Each converter block is equipped with a dedicated input multiplexer and dedicated request source
 159:C:/Workspace/DAVE-4.4.2-64Bit/xmc1400-getstarted-optiga-trust-m/Libraries/XMCLib/inc\xmc_vadc.h ****  * which together build separate groups.
 160:C:/Workspace/DAVE-4.4.2-64Bit/xmc1400-getstarted-optiga-trust-m/Libraries/XMCLib/inc\xmc_vadc.h ****  *
 161:C:/Workspace/DAVE-4.4.2-64Bit/xmc1400-getstarted-optiga-trust-m/Libraries/XMCLib/inc\xmc_vadc.h ****  * \if XMC4
 162:C:/Workspace/DAVE-4.4.2-64Bit/xmc1400-getstarted-optiga-trust-m/Libraries/XMCLib/inc\xmc_vadc.h ****  * @image html "vadc_overview_xmc4x.png"
 163:C:/Workspace/DAVE-4.4.2-64Bit/xmc1400-getstarted-optiga-trust-m/Libraries/XMCLib/inc\xmc_vadc.h ****  * \else
 164:C:/Workspace/DAVE-4.4.2-64Bit/xmc1400-getstarted-optiga-trust-m/Libraries/XMCLib/inc\xmc_vadc.h ****  * @image html "vadc_overview_xmc1x.png"
 165:C:/Workspace/DAVE-4.4.2-64Bit/xmc1400-getstarted-optiga-trust-m/Libraries/XMCLib/inc\xmc_vadc.h ****  * \endif
 166:C:/Workspace/DAVE-4.4.2-64Bit/xmc1400-getstarted-optiga-trust-m/Libraries/XMCLib/inc\xmc_vadc.h ****  *
 167:C:/Workspace/DAVE-4.4.2-64Bit/xmc1400-getstarted-optiga-trust-m/Libraries/XMCLib/inc\xmc_vadc.h ****  * The VADC LLD is split into GLOBAL and GROUP related APIs.<BR>
 168:C:/Workspace/DAVE-4.4.2-64Bit/xmc1400-getstarted-optiga-trust-m/Libraries/XMCLib/inc\xmc_vadc.h ****  * <B>GLOBAL: </B><BR>
 169:C:/Workspace/DAVE-4.4.2-64Bit/xmc1400-getstarted-optiga-trust-m/Libraries/XMCLib/inc\xmc_vadc.h ****  * <UL>
 170:C:/Workspace/DAVE-4.4.2-64Bit/xmc1400-getstarted-optiga-trust-m/Libraries/XMCLib/inc\xmc_vadc.h ****  * <LI>Global APIs act on the entire ADC module. Configures global configuration registers</LI>
 171:C:/Workspace/DAVE-4.4.2-64Bit/xmc1400-getstarted-optiga-trust-m/Libraries/XMCLib/inc\xmc_vadc.h ****  * <LI>Allows configuration of the background request source of the VADC.</LI>
 172:C:/Workspace/DAVE-4.4.2-64Bit/xmc1400-getstarted-optiga-trust-m/Libraries/XMCLib/inc\xmc_vadc.h ****  * <LI>The clock related configurations for the VADC module are configured in the Global APIs/</LI>
 173:C:/Workspace/DAVE-4.4.2-64Bit/xmc1400-getstarted-optiga-trust-m/Libraries/XMCLib/inc\xmc_vadc.h ****  * <LI>The Global API names are prefixed by the \b XMC_VADC_GLOBAL_ and they accept ::XMC_VADC_GLOB
 174:C:/Workspace/DAVE-4.4.2-64Bit/xmc1400-getstarted-optiga-trust-m/Libraries/XMCLib/inc\xmc_vadc.h ****  *     one of its arguments.</LI>
 175:C:/Workspace/DAVE-4.4.2-64Bit/xmc1400-getstarted-optiga-trust-m/Libraries/XMCLib/inc\xmc_vadc.h ****  * <LI>Configures the background request source of the VADC. The APIs which act on the background r
 176:C:/Workspace/DAVE-4.4.2-64Bit/xmc1400-getstarted-optiga-trust-m/Libraries/XMCLib/inc\xmc_vadc.h ****  *     are prefixed by \b XMC_VADC_GLOBAL_Background</LI>
 177:C:/Workspace/DAVE-4.4.2-64Bit/xmc1400-getstarted-optiga-trust-m/Libraries/XMCLib/inc\xmc_vadc.h ****  * <LI>Configures the sample and hold unit of the VADC. The APIs which act on the SHS related regis
 178:C:/Workspace/DAVE-4.4.2-64Bit/xmc1400-getstarted-optiga-trust-m/Libraries/XMCLib/inc\xmc_vadc.h ****  *     are prefixed by \b XMC_VADC_GLOBAL_SHS_</LI>
 179:C:/Workspace/DAVE-4.4.2-64Bit/xmc1400-getstarted-optiga-trust-m/Libraries/XMCLib/inc\xmc_vadc.h ****  * </UL><BR>
 180:C:/Workspace/DAVE-4.4.2-64Bit/xmc1400-getstarted-optiga-trust-m/Libraries/XMCLib/inc\xmc_vadc.h ****  *
 181:C:/Workspace/DAVE-4.4.2-64Bit/xmc1400-getstarted-optiga-trust-m/Libraries/XMCLib/inc\xmc_vadc.h ****  * <B>GROUP: </B><BR>
 182:C:/Workspace/DAVE-4.4.2-64Bit/xmc1400-getstarted-optiga-trust-m/Libraries/XMCLib/inc\xmc_vadc.h ****  * <UL>
 183:C:/Workspace/DAVE-4.4.2-64Bit/xmc1400-getstarted-optiga-trust-m/Libraries/XMCLib/inc\xmc_vadc.h ****  * <LI>Group APIs act on a VADC group. Configures the group configuration registers</LI>
 184:C:/Workspace/DAVE-4.4.2-64Bit/xmc1400-getstarted-optiga-trust-m/Libraries/XMCLib/inc\xmc_vadc.h ****  * <LI>Configures the queue request source of the VADC. The APIs which act on the queue related reg
 185:C:/Workspace/DAVE-4.4.2-64Bit/xmc1400-getstarted-optiga-trust-m/Libraries/XMCLib/inc\xmc_vadc.h ****  *     are prefixed by \b XMC_VADC_GROUP_Queue</LI>
 186:C:/Workspace/DAVE-4.4.2-64Bit/xmc1400-getstarted-optiga-trust-m/Libraries/XMCLib/inc\xmc_vadc.h ****  * <LI>Configures the scan request source of the VADC. The APIs which act on the scan related regis
 187:C:/Workspace/DAVE-4.4.2-64Bit/xmc1400-getstarted-optiga-trust-m/Libraries/XMCLib/inc\xmc_vadc.h ****  *     are prefixed by \b XMC_VADC_GROUP_Scan</LI>
 188:C:/Workspace/DAVE-4.4.2-64Bit/xmc1400-getstarted-optiga-trust-m/Libraries/XMCLib/inc\xmc_vadc.h ****  * <LI>Configuration of the channels of each group are done by the API which have a prefix as
 189:C:/Workspace/DAVE-4.4.2-64Bit/xmc1400-getstarted-optiga-trust-m/Libraries/XMCLib/inc\xmc_vadc.h ****  *     \b XMC_VADC_GROUP_Channel.</LI>
 190:C:/Workspace/DAVE-4.4.2-64Bit/xmc1400-getstarted-optiga-trust-m/Libraries/XMCLib/inc\xmc_vadc.h ****  * <LI>The Group API names are prefixed by the \b XMC_VADC_GROUP_ and they accept ::XMC_VADC_GROUP_
 191:C:/Workspace/DAVE-4.4.2-64Bit/xmc1400-getstarted-optiga-trust-m/Libraries/XMCLib/inc\xmc_vadc.h ****  *     one of its arguments.</LI>
 192:C:/Workspace/DAVE-4.4.2-64Bit/xmc1400-getstarted-optiga-trust-m/Libraries/XMCLib/inc\xmc_vadc.h ****  * </UL><BR>
 193:C:/Workspace/DAVE-4.4.2-64Bit/xmc1400-getstarted-optiga-trust-m/Libraries/XMCLib/inc\xmc_vadc.h ****  * @{
 194:C:/Workspace/DAVE-4.4.2-64Bit/xmc1400-getstarted-optiga-trust-m/Libraries/XMCLib/inc\xmc_vadc.h ****  */
 195:C:/Workspace/DAVE-4.4.2-64Bit/xmc1400-getstarted-optiga-trust-m/Libraries/XMCLib/inc\xmc_vadc.h ****  
 196:C:/Workspace/DAVE-4.4.2-64Bit/xmc1400-getstarted-optiga-trust-m/Libraries/XMCLib/inc\xmc_vadc.h **** /**************************************************************************************************
 197:C:/Workspace/DAVE-4.4.2-64Bit/xmc1400-getstarted-optiga-trust-m/Libraries/XMCLib/inc\xmc_vadc.h ****  * MACROS
 198:C:/Workspace/DAVE-4.4.2-64Bit/xmc1400-getstarted-optiga-trust-m/Libraries/XMCLib/inc\xmc_vadc.h ****  **************************************************************************************************
 199:C:/Workspace/DAVE-4.4.2-64Bit/xmc1400-getstarted-optiga-trust-m/Libraries/XMCLib/inc\xmc_vadc.h **** 
 200:C:/Workspace/DAVE-4.4.2-64Bit/xmc1400-getstarted-optiga-trust-m/Libraries/XMCLib/inc\xmc_vadc.h **** #if ((UC_SERIES == XMC42)||(UC_SERIES == XMC41) || (UC_SERIES == XMC43))
 201:C:/Workspace/DAVE-4.4.2-64Bit/xmc1400-getstarted-optiga-trust-m/Libraries/XMCLib/inc\xmc_vadc.h **** #define XMC_VADC_GROUP_AVAILABLE           (1U) /*  Defines the availability of group resource in a
 202:C:/Workspace/DAVE-4.4.2-64Bit/xmc1400-getstarted-optiga-trust-m/Libraries/XMCLib/inc\xmc_vadc.h **** #define XMC_VADC_GSCAN_AVAILABLE           (1U) /*  Defines the availability of scan request resour
 203:C:/Workspace/DAVE-4.4.2-64Bit/xmc1400-getstarted-optiga-trust-m/Libraries/XMCLib/inc\xmc_vadc.h **** #define XMC_VADC_QUEUE_AVAILABLE           (1U) /*  Defines the availability of queue request resou
 204:C:/Workspace/DAVE-4.4.2-64Bit/xmc1400-getstarted-optiga-trust-m/Libraries/XMCLib/inc\xmc_vadc.h **** #define XMC_VADC_EMUX_AVAILABLE            (1U) /*  Defines the availability of external multiplexe
 205:C:/Workspace/DAVE-4.4.2-64Bit/xmc1400-getstarted-optiga-trust-m/Libraries/XMCLib/inc\xmc_vadc.h ****                                                     device*/
 206:C:/Workspace/DAVE-4.4.2-64Bit/xmc1400-getstarted-optiga-trust-m/Libraries/XMCLib/inc\xmc_vadc.h **** #define XMC_VADC_BOUNDARY_AVAILABLE        (1U) /*  Defines the availability of boundary check supp
 207:C:/Workspace/DAVE-4.4.2-64Bit/xmc1400-getstarted-optiga-trust-m/Libraries/XMCLib/inc\xmc_vadc.h **** #define XMC_VADC_MULTIPLE_SLAVEGROUPS      (1U) /*  Defines the availability of synchronous request
 208:C:/Workspace/DAVE-4.4.2-64Bit/xmc1400-getstarted-optiga-trust-m/Libraries/XMCLib/inc\xmc_vadc.h **** #define XMC_VADC_MAXIMUM_NUM_GROUPS        (2U) /*  Defines the maximum number of groups available 
 209:C:/Workspace/DAVE-4.4.2-64Bit/xmc1400-getstarted-optiga-trust-m/Libraries/XMCLib/inc\xmc_vadc.h **** #define XMC_VADC_BOUNDARY_FLAG_SELECT      (1U) /*  Defines the availability of boundary flags in a
 210:C:/Workspace/DAVE-4.4.2-64Bit/xmc1400-getstarted-optiga-trust-m/Libraries/XMCLib/inc\xmc_vadc.h **** #define XMC_VADC_EMUX_CH_SEL_STYLE         (1U) /*  Defines the external multiplexer channel select
 211:C:/Workspace/DAVE-4.4.2-64Bit/xmc1400-getstarted-optiga-trust-m/Libraries/XMCLib/inc\xmc_vadc.h ****                                                     operation for a particular device*/
 212:C:/Workspace/DAVE-4.4.2-64Bit/xmc1400-getstarted-optiga-trust-m/Libraries/XMCLib/inc\xmc_vadc.h **** #define XMC_VADC_SHS_AVAILABLE             (0U) /* Defines the availability of sample and hold modu
 213:C:/Workspace/DAVE-4.4.2-64Bit/xmc1400-getstarted-optiga-trust-m/Libraries/XMCLib/inc\xmc_vadc.h **** #define XMC_VADC_SHS_FULL_SET_REG          (0U) /* Defines the availability of sample and hold modu
 214:C:/Workspace/DAVE-4.4.2-64Bit/xmc1400-getstarted-optiga-trust-m/Libraries/XMCLib/inc\xmc_vadc.h **** #define XMC_VADC_GROUP_SRCREG_AVAILABLE    (1U) /* Define the availability of a source specific res
 215:C:/Workspace/DAVE-4.4.2-64Bit/xmc1400-getstarted-optiga-trust-m/Libraries/XMCLib/inc\xmc_vadc.h **** #define XMC_VADC_RESULT_PRIORITY_AVAILABLE (0U) /* Define the availability of a priority for result
 216:C:/Workspace/DAVE-4.4.2-64Bit/xmc1400-getstarted-optiga-trust-m/Libraries/XMCLib/inc\xmc_vadc.h **** #endif
 217:C:/Workspace/DAVE-4.4.2-64Bit/xmc1400-getstarted-optiga-trust-m/Libraries/XMCLib/inc\xmc_vadc.h **** 
 218:C:/Workspace/DAVE-4.4.2-64Bit/xmc1400-getstarted-optiga-trust-m/Libraries/XMCLib/inc\xmc_vadc.h **** #if (UC_SERIES == XMC44 || UC_SERIES == XMC47 || UC_SERIES == XMC48)
 219:C:/Workspace/DAVE-4.4.2-64Bit/xmc1400-getstarted-optiga-trust-m/Libraries/XMCLib/inc\xmc_vadc.h **** #define XMC_VADC_GROUP_AVAILABLE         (1U) /*  Defines the availability of group resource in a d
 220:C:/Workspace/DAVE-4.4.2-64Bit/xmc1400-getstarted-optiga-trust-m/Libraries/XMCLib/inc\xmc_vadc.h **** #define XMC_VADC_GSCAN_AVAILABLE         (1U) /*  Defines the availability of scan request resource
 221:C:/Workspace/DAVE-4.4.2-64Bit/xmc1400-getstarted-optiga-trust-m/Libraries/XMCLib/inc\xmc_vadc.h **** #define XMC_VADC_QUEUE_AVAILABLE         (1U) /*  Defines the availability of queue request resourc
 222:C:/Workspace/DAVE-4.4.2-64Bit/xmc1400-getstarted-optiga-trust-m/Libraries/XMCLib/inc\xmc_vadc.h **** #define XMC_VADC_EMUX_AVAILABLE          (1U) /*  Defines the availability of external multiplexer 
 223:C:/Workspace/DAVE-4.4.2-64Bit/xmc1400-getstarted-optiga-trust-m/Libraries/XMCLib/inc\xmc_vadc.h ****                                                     device*/
 224:C:/Workspace/DAVE-4.4.2-64Bit/xmc1400-getstarted-optiga-trust-m/Libraries/XMCLib/inc\xmc_vadc.h **** #define XMC_VADC_BOUNDARY_AVAILABLE      (1U) /*  Defines the availability of boundary check suppor
 225:C:/Workspace/DAVE-4.4.2-64Bit/xmc1400-getstarted-optiga-trust-m/Libraries/XMCLib/inc\xmc_vadc.h **** #define XMC_VADC_MULTIPLE_SLAVEGROUPS    (1U) /*  Defines the availability of synchronous request s
 226:C:/Workspace/DAVE-4.4.2-64Bit/xmc1400-getstarted-optiga-trust-m/Libraries/XMCLib/inc\xmc_vadc.h **** #define XMC_VADC_MAXIMUM_NUM_GROUPS      (4U) /*  Defines the maximum number of groups available in
 227:C:/Workspace/DAVE-4.4.2-64Bit/xmc1400-getstarted-optiga-trust-m/Libraries/XMCLib/inc\xmc_vadc.h **** #define XMC_VADC_BOUNDARY_FLAG_SELECT    (1U) /*  Defines the availability of boundary flags in a d
 228:C:/Workspace/DAVE-4.4.2-64Bit/xmc1400-getstarted-optiga-trust-m/Libraries/XMCLib/inc\xmc_vadc.h **** #define XMC_VADC_EMUX_CH_SEL_STYLE       (1U) /*  Defines the external multiplexer channel selectio
 229:C:/Workspace/DAVE-4.4.2-64Bit/xmc1400-getstarted-optiga-trust-m/Libraries/XMCLib/inc\xmc_vadc.h ****                                                     operation for a particular device*/
 230:C:/Workspace/DAVE-4.4.2-64Bit/xmc1400-getstarted-optiga-trust-m/Libraries/XMCLib/inc\xmc_vadc.h **** #define XMC_VADC_SHS_AVAILABLE           (0U) /* Defines the availability of sample and hold module
 231:C:/Workspace/DAVE-4.4.2-64Bit/xmc1400-getstarted-optiga-trust-m/Libraries/XMCLib/inc\xmc_vadc.h **** #define XMC_VADC_SHS_FULL_SET_REG        (0U) /* Defines the availability of sample and hold module
 232:C:/Workspace/DAVE-4.4.2-64Bit/xmc1400-getstarted-optiga-trust-m/Libraries/XMCLib/inc\xmc_vadc.h **** #define XMC_VADC_GROUP_SRCREG_AVAILABLE  (1U) /* Define the availability of a source specific resul
 233:C:/Workspace/DAVE-4.4.2-64Bit/xmc1400-getstarted-optiga-trust-m/Libraries/XMCLib/inc\xmc_vadc.h **** #define XMC_VADC_RESULT_PRIORITY_AVAILABLE (0U) /* Define the availability of a priority for result
 234:C:/Workspace/DAVE-4.4.2-64Bit/xmc1400-getstarted-optiga-trust-m/Libraries/XMCLib/inc\xmc_vadc.h **** #endif
 235:C:/Workspace/DAVE-4.4.2-64Bit/xmc1400-getstarted-optiga-trust-m/Libraries/XMCLib/inc\xmc_vadc.h **** 
 236:C:/Workspace/DAVE-4.4.2-64Bit/xmc1400-getstarted-optiga-trust-m/Libraries/XMCLib/inc\xmc_vadc.h **** #if (UC_SERIES == XMC45)
 237:C:/Workspace/DAVE-4.4.2-64Bit/xmc1400-getstarted-optiga-trust-m/Libraries/XMCLib/inc\xmc_vadc.h **** #define XMC_VADC_GROUP_AVAILABLE         (1U) /*  Defines the availability of group resource in a d
 238:C:/Workspace/DAVE-4.4.2-64Bit/xmc1400-getstarted-optiga-trust-m/Libraries/XMCLib/inc\xmc_vadc.h **** #define XMC_VADC_GSCAN_AVAILABLE         (1U) /*  Defines the availability of scan request resource
 239:C:/Workspace/DAVE-4.4.2-64Bit/xmc1400-getstarted-optiga-trust-m/Libraries/XMCLib/inc\xmc_vadc.h **** #define XMC_VADC_QUEUE_AVAILABLE         (1U) /*  Defines the availability of queue request resourc
 240:C:/Workspace/DAVE-4.4.2-64Bit/xmc1400-getstarted-optiga-trust-m/Libraries/XMCLib/inc\xmc_vadc.h **** #define XMC_VADC_EMUX_AVAILABLE          (1U) /*  Defines the availability of external multiplexer 
 241:C:/Workspace/DAVE-4.4.2-64Bit/xmc1400-getstarted-optiga-trust-m/Libraries/XMCLib/inc\xmc_vadc.h ****                                                     device*/
 242:C:/Workspace/DAVE-4.4.2-64Bit/xmc1400-getstarted-optiga-trust-m/Libraries/XMCLib/inc\xmc_vadc.h **** #define XMC_VADC_BOUNDARY_AVAILABLE      (1U) /*  Defines the availability of boundary check suppor
 243:C:/Workspace/DAVE-4.4.2-64Bit/xmc1400-getstarted-optiga-trust-m/Libraries/XMCLib/inc\xmc_vadc.h **** #define XMC_VADC_MULTIPLE_SLAVEGROUPS    (1U) /*  Defines the availability of synchronous request s
 244:C:/Workspace/DAVE-4.4.2-64Bit/xmc1400-getstarted-optiga-trust-m/Libraries/XMCLib/inc\xmc_vadc.h **** #define XMC_VADC_MAXIMUM_NUM_GROUPS      (4U) /*  Defines the maximum number of groups available in
 245:C:/Workspace/DAVE-4.4.2-64Bit/xmc1400-getstarted-optiga-trust-m/Libraries/XMCLib/inc\xmc_vadc.h **** #define XMC_VADC_BOUNDARY_FLAG_SELECT    (0U) /*  Defines the availability of boundary flags in a d
 246:C:/Workspace/DAVE-4.4.2-64Bit/xmc1400-getstarted-optiga-trust-m/Libraries/XMCLib/inc\xmc_vadc.h **** #define XMC_VADC_EMUX_CH_SEL_STYLE       (0U) /*  Defines the external multiplexer channel selectio
 247:C:/Workspace/DAVE-4.4.2-64Bit/xmc1400-getstarted-optiga-trust-m/Libraries/XMCLib/inc\xmc_vadc.h ****                                                     operation for a particular device*/
 248:C:/Workspace/DAVE-4.4.2-64Bit/xmc1400-getstarted-optiga-trust-m/Libraries/XMCLib/inc\xmc_vadc.h **** #define XMC_VADC_SHS_AVAILABLE           (0U) /* Defines the availability of sample and hold module
 249:C:/Workspace/DAVE-4.4.2-64Bit/xmc1400-getstarted-optiga-trust-m/Libraries/XMCLib/inc\xmc_vadc.h **** #define XMC_VADC_SHS_FULL_SET_REG        (0U) /* Defines the availability of sample and hold module
 250:C:/Workspace/DAVE-4.4.2-64Bit/xmc1400-getstarted-optiga-trust-m/Libraries/XMCLib/inc\xmc_vadc.h **** #define XMC_VADC_GROUP_SRCREG_AVAILABLE  (0U) /* Define the availability of a source specific resul
 251:C:/Workspace/DAVE-4.4.2-64Bit/xmc1400-getstarted-optiga-trust-m/Libraries/XMCLib/inc\xmc_vadc.h **** #define XMC_VADC_RESULT_PRIORITY_AVAILABLE (0U) /* Define the availability of a priority for result
 252:C:/Workspace/DAVE-4.4.2-64Bit/xmc1400-getstarted-optiga-trust-m/Libraries/XMCLib/inc\xmc_vadc.h **** #endif
 253:C:/Workspace/DAVE-4.4.2-64Bit/xmc1400-getstarted-optiga-trust-m/Libraries/XMCLib/inc\xmc_vadc.h **** 
 254:C:/Workspace/DAVE-4.4.2-64Bit/xmc1400-getstarted-optiga-trust-m/Libraries/XMCLib/inc\xmc_vadc.h **** #if (UC_SERIES == XMC14 || UC_SERIES == XMC13 || UC_SERIES == XMC12)
 255:C:/Workspace/DAVE-4.4.2-64Bit/xmc1400-getstarted-optiga-trust-m/Libraries/XMCLib/inc\xmc_vadc.h **** #define XMC_VADC_GROUP_AVAILABLE         (1U) /*  Defines the availability of group resource in a d
 256:C:/Workspace/DAVE-4.4.2-64Bit/xmc1400-getstarted-optiga-trust-m/Libraries/XMCLib/inc\xmc_vadc.h **** #define XMC_VADC_GSCAN_AVAILABLE         (1U) /*  Defines the availability of scan request resource
 257:C:/Workspace/DAVE-4.4.2-64Bit/xmc1400-getstarted-optiga-trust-m/Libraries/XMCLib/inc\xmc_vadc.h **** #define XMC_VADC_QUEUE_AVAILABLE         (1U) /*  Defines the availability of queue request resourc
 258:C:/Workspace/DAVE-4.4.2-64Bit/xmc1400-getstarted-optiga-trust-m/Libraries/XMCLib/inc\xmc_vadc.h **** #define XMC_VADC_EMUX_AVAILABLE          (1U) /*  Defines the availability of external multiplexer 
 259:C:/Workspace/DAVE-4.4.2-64Bit/xmc1400-getstarted-optiga-trust-m/Libraries/XMCLib/inc\xmc_vadc.h ****                                                     device*/
 260:C:/Workspace/DAVE-4.4.2-64Bit/xmc1400-getstarted-optiga-trust-m/Libraries/XMCLib/inc\xmc_vadc.h **** #define XMC_VADC_BOUNDARY_AVAILABLE      (1U) /*  Defines the availability of boundary check suppor
 261:C:/Workspace/DAVE-4.4.2-64Bit/xmc1400-getstarted-optiga-trust-m/Libraries/XMCLib/inc\xmc_vadc.h **** #define XMC_VADC_MULTIPLE_SLAVEGROUPS    (1U) /*  Defines the availability of synchronous request s
 262:C:/Workspace/DAVE-4.4.2-64Bit/xmc1400-getstarted-optiga-trust-m/Libraries/XMCLib/inc\xmc_vadc.h **** #define XMC_VADC_MAXIMUM_NUM_GROUPS      (2U) /*  Defines the maximum number of groups available in
 263:C:/Workspace/DAVE-4.4.2-64Bit/xmc1400-getstarted-optiga-trust-m/Libraries/XMCLib/inc\xmc_vadc.h **** #define XMC_VADC_BOUNDARY_FLAG_SELECT    (1U) /*  Defines the availability of boundary flags in a d
 264:C:/Workspace/DAVE-4.4.2-64Bit/xmc1400-getstarted-optiga-trust-m/Libraries/XMCLib/inc\xmc_vadc.h **** #define XMC_VADC_EMUX_CH_SEL_STYLE       (1U) /*  Defines the external multiplexer channel selectio
 265:C:/Workspace/DAVE-4.4.2-64Bit/xmc1400-getstarted-optiga-trust-m/Libraries/XMCLib/inc\xmc_vadc.h ****                                                     operation for a particular device*/
 266:C:/Workspace/DAVE-4.4.2-64Bit/xmc1400-getstarted-optiga-trust-m/Libraries/XMCLib/inc\xmc_vadc.h **** #define XMC_VADC_SHS_AVAILABLE           (1U) /* Defines the availability of sample and hold module
 267:C:/Workspace/DAVE-4.4.2-64Bit/xmc1400-getstarted-optiga-trust-m/Libraries/XMCLib/inc\xmc_vadc.h **** #define XMC_VADC_SHS_FULL_SET_REG        (1U) /* Defines the availability of sample and hold module
 268:C:/Workspace/DAVE-4.4.2-64Bit/xmc1400-getstarted-optiga-trust-m/Libraries/XMCLib/inc\xmc_vadc.h **** #define XMC_VADC_GROUP_SRCREG_AVAILABLE  (1U) /* Define the availability of a source specific resul
 269:C:/Workspace/DAVE-4.4.2-64Bit/xmc1400-getstarted-optiga-trust-m/Libraries/XMCLib/inc\xmc_vadc.h **** #define XMC_VADC_RESULT_PRIORITY_AVAILABLE (1U) /* Define the availability of a priority for result
 270:C:/Workspace/DAVE-4.4.2-64Bit/xmc1400-getstarted-optiga-trust-m/Libraries/XMCLib/inc\xmc_vadc.h **** #endif
 271:C:/Workspace/DAVE-4.4.2-64Bit/xmc1400-getstarted-optiga-trust-m/Libraries/XMCLib/inc\xmc_vadc.h **** 
 272:C:/Workspace/DAVE-4.4.2-64Bit/xmc1400-getstarted-optiga-trust-m/Libraries/XMCLib/inc\xmc_vadc.h **** #if (UC_SERIES == XMC11)
 273:C:/Workspace/DAVE-4.4.2-64Bit/xmc1400-getstarted-optiga-trust-m/Libraries/XMCLib/inc\xmc_vadc.h **** #define XMC_VADC_GROUP_AVAILABLE         (0U) /*  Defines the availability of group resource in a d
 274:C:/Workspace/DAVE-4.4.2-64Bit/xmc1400-getstarted-optiga-trust-m/Libraries/XMCLib/inc\xmc_vadc.h **** #define XMC_VADC_GSCAN_AVAILABLE         (0U) /*  Defines the availability of scan request resource
 275:C:/Workspace/DAVE-4.4.2-64Bit/xmc1400-getstarted-optiga-trust-m/Libraries/XMCLib/inc\xmc_vadc.h **** #define XMC_VADC_QUEUE_AVAILABLE         (0U) /*  Defines the availability of queue request resourc
 276:C:/Workspace/DAVE-4.4.2-64Bit/xmc1400-getstarted-optiga-trust-m/Libraries/XMCLib/inc\xmc_vadc.h **** #define XMC_VADC_EMUX_AVAILABLE          (0U) /*  Defines the availability of external multiplexer 
 277:C:/Workspace/DAVE-4.4.2-64Bit/xmc1400-getstarted-optiga-trust-m/Libraries/XMCLib/inc\xmc_vadc.h ****                                                     device*/
 278:C:/Workspace/DAVE-4.4.2-64Bit/xmc1400-getstarted-optiga-trust-m/Libraries/XMCLib/inc\xmc_vadc.h **** #define XMC_VADC_BOUNDARY_AVAILABLE      (0U) /*  Defines the availability of boundary check suppor
 279:C:/Workspace/DAVE-4.4.2-64Bit/xmc1400-getstarted-optiga-trust-m/Libraries/XMCLib/inc\xmc_vadc.h **** #define XMC_VADC_MULTIPLE_SLAVEGROUPS    (0U) /*  Defines the availability of synchronous request s
 280:C:/Workspace/DAVE-4.4.2-64Bit/xmc1400-getstarted-optiga-trust-m/Libraries/XMCLib/inc\xmc_vadc.h **** #define XMC_VADC_MAXIMUM_NUM_GROUPS      (2U) /*  Defines the maximum number of groups available in
 281:C:/Workspace/DAVE-4.4.2-64Bit/xmc1400-getstarted-optiga-trust-m/Libraries/XMCLib/inc\xmc_vadc.h **** #define XMC_VADC_BOUNDARY_FLAG_SELECT    (0U) /*  Defines the availability of boundary flags in a d
 282:C:/Workspace/DAVE-4.4.2-64Bit/xmc1400-getstarted-optiga-trust-m/Libraries/XMCLib/inc\xmc_vadc.h **** #define XMC_VADC_SHS_START_UP_CAL_ACTIVE (3U) /*  Defines the need for SHS startup calibration acti
 283:C:/Workspace/DAVE-4.4.2-64Bit/xmc1400-getstarted-optiga-trust-m/Libraries/XMCLib/inc\xmc_vadc.h ****                                                     XMC1100 devices */
 284:C:/Workspace/DAVE-4.4.2-64Bit/xmc1400-getstarted-optiga-trust-m/Libraries/XMCLib/inc\xmc_vadc.h **** #define XMC_VADC_CONV_ENABLE_FOR_XMC11   (*(uint32_t*) 0x40010500UL) /*  Defines the additional err
 285:C:/Workspace/DAVE-4.4.2-64Bit/xmc1400-getstarted-optiga-trust-m/Libraries/XMCLib/inc\xmc_vadc.h ****                                                     XMC1100 device for effective working*/ 
 286:C:/Workspace/DAVE-4.4.2-64Bit/xmc1400-getstarted-optiga-trust-m/Libraries/XMCLib/inc\xmc_vadc.h **** #define XMC_VADC_EMUX_CH_SEL_STYLE       (0U) /*  Defines the external multiplexer channel selectio
 287:C:/Workspace/DAVE-4.4.2-64Bit/xmc1400-getstarted-optiga-trust-m/Libraries/XMCLib/inc\xmc_vadc.h ****                                                     operation for a particular device*/
 288:C:/Workspace/DAVE-4.4.2-64Bit/xmc1400-getstarted-optiga-trust-m/Libraries/XMCLib/inc\xmc_vadc.h **** #define XMC_VADC_SHS_AVAILABLE           (1U) /* Defines the availability of sample and hold module
 289:C:/Workspace/DAVE-4.4.2-64Bit/xmc1400-getstarted-optiga-trust-m/Libraries/XMCLib/inc\xmc_vadc.h **** #define XMC_VADC_SHS_FULL_SET_REG        (0U) /* Defines the availability of sample and hold module
 290:C:/Workspace/DAVE-4.4.2-64Bit/xmc1400-getstarted-optiga-trust-m/Libraries/XMCLib/inc\xmc_vadc.h **** #define XMC_VADC_GROUP_SRCREG_AVAILABLE  (0U) /* Define the availability of a source specific resul
 291:C:/Workspace/DAVE-4.4.2-64Bit/xmc1400-getstarted-optiga-trust-m/Libraries/XMCLib/inc\xmc_vadc.h **** #define XMC_VADC_RESULT_PRIORITY_AVAILABLE (0U) /* Define the availability of a priority for result
 292:C:/Workspace/DAVE-4.4.2-64Bit/xmc1400-getstarted-optiga-trust-m/Libraries/XMCLib/inc\xmc_vadc.h **** #endif
 293:C:/Workspace/DAVE-4.4.2-64Bit/xmc1400-getstarted-optiga-trust-m/Libraries/XMCLib/inc\xmc_vadc.h **** 
 294:C:/Workspace/DAVE-4.4.2-64Bit/xmc1400-getstarted-optiga-trust-m/Libraries/XMCLib/inc\xmc_vadc.h **** #define XMC_VADC_NUM_PORTS               (16U) /* Defines the number of hardware ports that can be 
 295:C:/Workspace/DAVE-4.4.2-64Bit/xmc1400-getstarted-optiga-trust-m/Libraries/XMCLib/inc\xmc_vadc.h ****                                                     as triggers and gating signals */
 296:C:/Workspace/DAVE-4.4.2-64Bit/xmc1400-getstarted-optiga-trust-m/Libraries/XMCLib/inc\xmc_vadc.h **** 
 297:C:/Workspace/DAVE-4.4.2-64Bit/xmc1400-getstarted-optiga-trust-m/Libraries/XMCLib/inc\xmc_vadc.h **** #define XMC_VADC_NUM_RESULT_REGISTERS    (16U) /* Defines the number of result holding registers pe
 298:C:/Workspace/DAVE-4.4.2-64Bit/xmc1400-getstarted-optiga-trust-m/Libraries/XMCLib/inc\xmc_vadc.h **** 
 299:C:/Workspace/DAVE-4.4.2-64Bit/xmc1400-getstarted-optiga-trust-m/Libraries/XMCLib/inc\xmc_vadc.h **** #define XMC_VADC_NUM_CHANNELS_PER_GROUP  (8U)  /**< Defines the number of ADC channels per group */
 300:C:/Workspace/DAVE-4.4.2-64Bit/xmc1400-getstarted-optiga-trust-m/Libraries/XMCLib/inc\xmc_vadc.h **** 
 301:C:/Workspace/DAVE-4.4.2-64Bit/xmc1400-getstarted-optiga-trust-m/Libraries/XMCLib/inc\xmc_vadc.h **** /**************************************************************************************************
 302:C:/Workspace/DAVE-4.4.2-64Bit/xmc1400-getstarted-optiga-trust-m/Libraries/XMCLib/inc\xmc_vadc.h ****  * ENUMS
 303:C:/Workspace/DAVE-4.4.2-64Bit/xmc1400-getstarted-optiga-trust-m/Libraries/XMCLib/inc\xmc_vadc.h ****  **************************************************************************************************
 304:C:/Workspace/DAVE-4.4.2-64Bit/xmc1400-getstarted-optiga-trust-m/Libraries/XMCLib/inc\xmc_vadc.h **** typedef uint16_t XMC_VADC_RESULT_SIZE_t; /**< Type defined the converted result size to unsigned 16
 305:C:/Workspace/DAVE-4.4.2-64Bit/xmc1400-getstarted-optiga-trust-m/Libraries/XMCLib/inc\xmc_vadc.h **** typedef VADC_GLOBAL_TypeDef XMC_VADC_GLOBAL_t; /**< Type defined the device header file vadc global
 306:C:/Workspace/DAVE-4.4.2-64Bit/xmc1400-getstarted-optiga-trust-m/Libraries/XMCLib/inc\xmc_vadc.h ****                                              type to VADC type*/
 307:C:/Workspace/DAVE-4.4.2-64Bit/xmc1400-getstarted-optiga-trust-m/Libraries/XMCLib/inc\xmc_vadc.h **** 
 308:C:/Workspace/DAVE-4.4.2-64Bit/xmc1400-getstarted-optiga-trust-m/Libraries/XMCLib/inc\xmc_vadc.h **** #if(XMC_VADC_GROUP_AVAILABLE == 1U)
 309:C:/Workspace/DAVE-4.4.2-64Bit/xmc1400-getstarted-optiga-trust-m/Libraries/XMCLib/inc\xmc_vadc.h **** typedef VADC_G_TypeDef XMC_VADC_GROUP_t; /**< Type defined the device header file vadc group regist
 310:C:/Workspace/DAVE-4.4.2-64Bit/xmc1400-getstarted-optiga-trust-m/Libraries/XMCLib/inc\xmc_vadc.h ****                                              type to VADC Group type*/
 311:C:/Workspace/DAVE-4.4.2-64Bit/xmc1400-getstarted-optiga-trust-m/Libraries/XMCLib/inc\xmc_vadc.h **** #endif
 312:C:/Workspace/DAVE-4.4.2-64Bit/xmc1400-getstarted-optiga-trust-m/Libraries/XMCLib/inc\xmc_vadc.h **** 
 313:C:/Workspace/DAVE-4.4.2-64Bit/xmc1400-getstarted-optiga-trust-m/Libraries/XMCLib/inc\xmc_vadc.h **** #if(XMC_VADC_SHS_AVAILABLE == 1U)
 314:C:/Workspace/DAVE-4.4.2-64Bit/xmc1400-getstarted-optiga-trust-m/Libraries/XMCLib/inc\xmc_vadc.h **** typedef SHS_Type XMC_VADC_GLOBAL_SHS_t; /**< Type defined the sample and hold register structure*/
 315:C:/Workspace/DAVE-4.4.2-64Bit/xmc1400-getstarted-optiga-trust-m/Libraries/XMCLib/inc\xmc_vadc.h **** #endif
 316:C:/Workspace/DAVE-4.4.2-64Bit/xmc1400-getstarted-optiga-trust-m/Libraries/XMCLib/inc\xmc_vadc.h **** /**
 317:C:/Workspace/DAVE-4.4.2-64Bit/xmc1400-getstarted-optiga-trust-m/Libraries/XMCLib/inc\xmc_vadc.h ****  *  Defines the return status after execution of VADC specific API's. Use @ref XMC_VADC_STATUS_t fo
 318:C:/Workspace/DAVE-4.4.2-64Bit/xmc1400-getstarted-optiga-trust-m/Libraries/XMCLib/inc\xmc_vadc.h ****  */
 319:C:/Workspace/DAVE-4.4.2-64Bit/xmc1400-getstarted-optiga-trust-m/Libraries/XMCLib/inc\xmc_vadc.h **** typedef enum XMC_VADC_STATUS
 320:C:/Workspace/DAVE-4.4.2-64Bit/xmc1400-getstarted-optiga-trust-m/Libraries/XMCLib/inc\xmc_vadc.h **** {
 321:C:/Workspace/DAVE-4.4.2-64Bit/xmc1400-getstarted-optiga-trust-m/Libraries/XMCLib/inc\xmc_vadc.h ****   XMC_VADC_STATUS_SUCCESS = 0,   /**< Returned when the API has been able to fulfill the callers re
 322:C:/Workspace/DAVE-4.4.2-64Bit/xmc1400-getstarted-optiga-trust-m/Libraries/XMCLib/inc\xmc_vadc.h ****   XMC_VADC_STATUS_ERROR          /**< Returned when the API cannot fulfill the request */
 323:C:/Workspace/DAVE-4.4.2-64Bit/xmc1400-getstarted-optiga-trust-m/Libraries/XMCLib/inc\xmc_vadc.h **** } XMC_VADC_STATUS_t;
 324:C:/Workspace/DAVE-4.4.2-64Bit/xmc1400-getstarted-optiga-trust-m/Libraries/XMCLib/inc\xmc_vadc.h **** 
 325:C:/Workspace/DAVE-4.4.2-64Bit/xmc1400-getstarted-optiga-trust-m/Libraries/XMCLib/inc\xmc_vadc.h **** /**
 326:C:/Workspace/DAVE-4.4.2-64Bit/xmc1400-getstarted-optiga-trust-m/Libraries/XMCLib/inc\xmc_vadc.h ****  *  Defines the various service requests lines. Each group can raise up to 4 service requests indep
 327:C:/Workspace/DAVE-4.4.2-64Bit/xmc1400-getstarted-optiga-trust-m/Libraries/XMCLib/inc\xmc_vadc.h ****  *  all groups together have the possibility of raising 4 module wide service requests. Use @ref XM
 328:C:/Workspace/DAVE-4.4.2-64Bit/xmc1400-getstarted-optiga-trust-m/Libraries/XMCLib/inc\xmc_vadc.h ****  *  enumeration.
 329:C:/Workspace/DAVE-4.4.2-64Bit/xmc1400-getstarted-optiga-trust-m/Libraries/XMCLib/inc\xmc_vadc.h ****  */
 330:C:/Workspace/DAVE-4.4.2-64Bit/xmc1400-getstarted-optiga-trust-m/Libraries/XMCLib/inc\xmc_vadc.h **** typedef enum XMC_VADC_SR
 331:C:/Workspace/DAVE-4.4.2-64Bit/xmc1400-getstarted-optiga-trust-m/Libraries/XMCLib/inc\xmc_vadc.h **** {
 332:C:/Workspace/DAVE-4.4.2-64Bit/xmc1400-getstarted-optiga-trust-m/Libraries/XMCLib/inc\xmc_vadc.h ****   XMC_VADC_SR_GROUP_SR0 = 0, /**< Group specific Service Request-0 */
 333:C:/Workspace/DAVE-4.4.2-64Bit/xmc1400-getstarted-optiga-trust-m/Libraries/XMCLib/inc\xmc_vadc.h ****   XMC_VADC_SR_GROUP_SR1,     /**< Group specific Service Request-1 */
 334:C:/Workspace/DAVE-4.4.2-64Bit/xmc1400-getstarted-optiga-trust-m/Libraries/XMCLib/inc\xmc_vadc.h ****   XMC_VADC_SR_GROUP_SR2,     /**< Group specific Service Request-2 */
 335:C:/Workspace/DAVE-4.4.2-64Bit/xmc1400-getstarted-optiga-trust-m/Libraries/XMCLib/inc\xmc_vadc.h ****   XMC_VADC_SR_GROUP_SR3,     /**< Group specific Service Request-3 */
 336:C:/Workspace/DAVE-4.4.2-64Bit/xmc1400-getstarted-optiga-trust-m/Libraries/XMCLib/inc\xmc_vadc.h ****   XMC_VADC_SR_SHARED_SR0,    /**< Module Wide Common Service Request-0 */
 337:C:/Workspace/DAVE-4.4.2-64Bit/xmc1400-getstarted-optiga-trust-m/Libraries/XMCLib/inc\xmc_vadc.h ****   XMC_VADC_SR_SHARED_SR1,    /**< Module Wide Common Service Request-1 */
 338:C:/Workspace/DAVE-4.4.2-64Bit/xmc1400-getstarted-optiga-trust-m/Libraries/XMCLib/inc\xmc_vadc.h ****   XMC_VADC_SR_SHARED_SR2,    /**< Module Wide Common Service Request-2 */
 339:C:/Workspace/DAVE-4.4.2-64Bit/xmc1400-getstarted-optiga-trust-m/Libraries/XMCLib/inc\xmc_vadc.h ****   XMC_VADC_SR_SHARED_SR3    /**< Module Wide Common Service Request-3 */
 340:C:/Workspace/DAVE-4.4.2-64Bit/xmc1400-getstarted-optiga-trust-m/Libraries/XMCLib/inc\xmc_vadc.h **** } XMC_VADC_SR_t;
 341:C:/Workspace/DAVE-4.4.2-64Bit/xmc1400-getstarted-optiga-trust-m/Libraries/XMCLib/inc\xmc_vadc.h **** 
 342:C:/Workspace/DAVE-4.4.2-64Bit/xmc1400-getstarted-optiga-trust-m/Libraries/XMCLib/inc\xmc_vadc.h **** /**
 343:C:/Workspace/DAVE-4.4.2-64Bit/xmc1400-getstarted-optiga-trust-m/Libraries/XMCLib/inc\xmc_vadc.h ****  *  Defines the mode of operation of a channel, when an ongoing conversion gets interrupted in betw
 344:C:/Workspace/DAVE-4.4.2-64Bit/xmc1400-getstarted-optiga-trust-m/Libraries/XMCLib/inc\xmc_vadc.h ****  *  Use @ref XMC_VADC_STARTMODE_t for this enumeration.
 345:C:/Workspace/DAVE-4.4.2-64Bit/xmc1400-getstarted-optiga-trust-m/Libraries/XMCLib/inc\xmc_vadc.h ****  */
 346:C:/Workspace/DAVE-4.4.2-64Bit/xmc1400-getstarted-optiga-trust-m/Libraries/XMCLib/inc\xmc_vadc.h **** typedef enum XMC_VADC_STARTMODE
 347:C:/Workspace/DAVE-4.4.2-64Bit/xmc1400-getstarted-optiga-trust-m/Libraries/XMCLib/inc\xmc_vadc.h **** {
 348:C:/Workspace/DAVE-4.4.2-64Bit/xmc1400-getstarted-optiga-trust-m/Libraries/XMCLib/inc\xmc_vadc.h ****   XMC_VADC_STARTMODE_WFS = 0, /**< An ongoing conversion completes without interruption */
 349:C:/Workspace/DAVE-4.4.2-64Bit/xmc1400-getstarted-optiga-trust-m/Libraries/XMCLib/inc\xmc_vadc.h ****   XMC_VADC_STARTMODE_CIR,     /**< An ongoing conversion can be interrupted and resumed later*/
 350:C:/Workspace/DAVE-4.4.2-64Bit/xmc1400-getstarted-optiga-trust-m/Libraries/XMCLib/inc\xmc_vadc.h ****   XMC_VADC_STARTMODE_CNR     /**< An ongoing conversion can be interrupted and never resumed */
 351:C:/Workspace/DAVE-4.4.2-64Bit/xmc1400-getstarted-optiga-trust-m/Libraries/XMCLib/inc\xmc_vadc.h **** } XMC_VADC_STARTMODE_t;
 352:C:/Workspace/DAVE-4.4.2-64Bit/xmc1400-getstarted-optiga-trust-m/Libraries/XMCLib/inc\xmc_vadc.h **** 
 353:C:/Workspace/DAVE-4.4.2-64Bit/xmc1400-getstarted-optiga-trust-m/Libraries/XMCLib/inc\xmc_vadc.h **** /**
 354:C:/Workspace/DAVE-4.4.2-64Bit/xmc1400-getstarted-optiga-trust-m/Libraries/XMCLib/inc\xmc_vadc.h ****  *  Defines the edge sensitivity of the trigger signal which can assert a conversion.
 355:C:/Workspace/DAVE-4.4.2-64Bit/xmc1400-getstarted-optiga-trust-m/Libraries/XMCLib/inc\xmc_vadc.h ****  *  Use @ref XMC_VADC_TRIGGER_EDGE_t for this enumeration.
 356:C:/Workspace/DAVE-4.4.2-64Bit/xmc1400-getstarted-optiga-trust-m/Libraries/XMCLib/inc\xmc_vadc.h ****  */
 357:C:/Workspace/DAVE-4.4.2-64Bit/xmc1400-getstarted-optiga-trust-m/Libraries/XMCLib/inc\xmc_vadc.h **** typedef enum XMC_VADC_TRIGGER_EDGE
 358:C:/Workspace/DAVE-4.4.2-64Bit/xmc1400-getstarted-optiga-trust-m/Libraries/XMCLib/inc\xmc_vadc.h **** {
 359:C:/Workspace/DAVE-4.4.2-64Bit/xmc1400-getstarted-optiga-trust-m/Libraries/XMCLib/inc\xmc_vadc.h ****   XMC_VADC_TRIGGER_EDGE_NONE = 0, /**< No external trigger. Conversion request can be asserted by s
 360:C:/Workspace/DAVE-4.4.2-64Bit/xmc1400-getstarted-optiga-trust-m/Libraries/XMCLib/inc\xmc_vadc.h ****   XMC_VADC_TRIGGER_EDGE_FALLING,  /**< The falling edge of the external trigger can assert conversi
 361:C:/Workspace/DAVE-4.4.2-64Bit/xmc1400-getstarted-optiga-trust-m/Libraries/XMCLib/inc\xmc_vadc.h ****   XMC_VADC_TRIGGER_EDGE_RISING,   /**< The rising edge of the external trigger can assert conversio
 362:C:/Workspace/DAVE-4.4.2-64Bit/xmc1400-getstarted-optiga-trust-m/Libraries/XMCLib/inc\xmc_vadc.h ****   XMC_VADC_TRIGGER_EDGE_ANY       /**< Both the edges can assert conversion request */
 363:C:/Workspace/DAVE-4.4.2-64Bit/xmc1400-getstarted-optiga-trust-m/Libraries/XMCLib/inc\xmc_vadc.h **** } XMC_VADC_TRIGGER_EDGE_t;
 364:C:/Workspace/DAVE-4.4.2-64Bit/xmc1400-getstarted-optiga-trust-m/Libraries/XMCLib/inc\xmc_vadc.h **** 
 365:C:/Workspace/DAVE-4.4.2-64Bit/xmc1400-getstarted-optiga-trust-m/Libraries/XMCLib/inc\xmc_vadc.h **** /**
 366:C:/Workspace/DAVE-4.4.2-64Bit/xmc1400-getstarted-optiga-trust-m/Libraries/XMCLib/inc\xmc_vadc.h ****  *  Defines the external trigger input selection possibilities, to assert a conversion. Refer the V
 367:C:/Workspace/DAVE-4.4.2-64Bit/xmc1400-getstarted-optiga-trust-m/Libraries/XMCLib/inc\xmc_vadc.h ****  *  section of the reference manual for details of peripherals which can be used. Also refer xmc_va
 368:C:/Workspace/DAVE-4.4.2-64Bit/xmc1400-getstarted-optiga-trust-m/Libraries/XMCLib/inc\xmc_vadc.h ****  *  detailed definitions of the peripherals which can take the control of these enumeration items.
 369:C:/Workspace/DAVE-4.4.2-64Bit/xmc1400-getstarted-optiga-trust-m/Libraries/XMCLib/inc\xmc_vadc.h ****  *  Use @ref XMC_VADC_TRIGGER_INPUT_SELECT_t for this enumeration.
 370:C:/Workspace/DAVE-4.4.2-64Bit/xmc1400-getstarted-optiga-trust-m/Libraries/XMCLib/inc\xmc_vadc.h ****  */
 371:C:/Workspace/DAVE-4.4.2-64Bit/xmc1400-getstarted-optiga-trust-m/Libraries/XMCLib/inc\xmc_vadc.h **** typedef enum XMC_VADC_TRIGGER_INPUT_SELECT
 372:C:/Workspace/DAVE-4.4.2-64Bit/xmc1400-getstarted-optiga-trust-m/Libraries/XMCLib/inc\xmc_vadc.h **** {
 373:C:/Workspace/DAVE-4.4.2-64Bit/xmc1400-getstarted-optiga-trust-m/Libraries/XMCLib/inc\xmc_vadc.h ****   XMC_VADC_REQ_TR_A = 0, /**< Trigger select signal A */
 374:C:/Workspace/DAVE-4.4.2-64Bit/xmc1400-getstarted-optiga-trust-m/Libraries/XMCLib/inc\xmc_vadc.h ****   XMC_VADC_REQ_TR_B,     /**< Trigger select signal B */
 375:C:/Workspace/DAVE-4.4.2-64Bit/xmc1400-getstarted-optiga-trust-m/Libraries/XMCLib/inc\xmc_vadc.h ****   XMC_VADC_REQ_TR_C,     /**< Trigger select signal C */
 376:C:/Workspace/DAVE-4.4.2-64Bit/xmc1400-getstarted-optiga-trust-m/Libraries/XMCLib/inc\xmc_vadc.h ****   XMC_VADC_REQ_TR_D,     /**< Trigger select signal D */
 377:C:/Workspace/DAVE-4.4.2-64Bit/xmc1400-getstarted-optiga-trust-m/Libraries/XMCLib/inc\xmc_vadc.h ****   XMC_VADC_REQ_TR_E,     /**< Trigger select signal E */
 378:C:/Workspace/DAVE-4.4.2-64Bit/xmc1400-getstarted-optiga-trust-m/Libraries/XMCLib/inc\xmc_vadc.h ****   XMC_VADC_REQ_TR_F,     /**< Trigger select signal F */
 379:C:/Workspace/DAVE-4.4.2-64Bit/xmc1400-getstarted-optiga-trust-m/Libraries/XMCLib/inc\xmc_vadc.h ****   XMC_VADC_REQ_TR_G,     /**< Trigger select signal G */
 380:C:/Workspace/DAVE-4.4.2-64Bit/xmc1400-getstarted-optiga-trust-m/Libraries/XMCLib/inc\xmc_vadc.h ****   XMC_VADC_REQ_TR_H,     /**< Trigger select signal H */
 381:C:/Workspace/DAVE-4.4.2-64Bit/xmc1400-getstarted-optiga-trust-m/Libraries/XMCLib/inc\xmc_vadc.h ****   XMC_VADC_REQ_TR_I,     /**< Trigger select signal I */
 382:C:/Workspace/DAVE-4.4.2-64Bit/xmc1400-getstarted-optiga-trust-m/Libraries/XMCLib/inc\xmc_vadc.h ****   XMC_VADC_REQ_TR_J,     /**< Trigger select signal J */
 383:C:/Workspace/DAVE-4.4.2-64Bit/xmc1400-getstarted-optiga-trust-m/Libraries/XMCLib/inc\xmc_vadc.h ****   XMC_VADC_REQ_TR_K,     /**< Trigger select signal K */
 384:C:/Workspace/DAVE-4.4.2-64Bit/xmc1400-getstarted-optiga-trust-m/Libraries/XMCLib/inc\xmc_vadc.h ****   XMC_VADC_REQ_TR_L,     /**< Trigger select signal L */
 385:C:/Workspace/DAVE-4.4.2-64Bit/xmc1400-getstarted-optiga-trust-m/Libraries/XMCLib/inc\xmc_vadc.h ****   XMC_VADC_REQ_TR_M,     /**< Trigger select signal M */
 386:C:/Workspace/DAVE-4.4.2-64Bit/xmc1400-getstarted-optiga-trust-m/Libraries/XMCLib/inc\xmc_vadc.h ****   XMC_VADC_REQ_TR_N,     /**< Trigger select signal N */
 387:C:/Workspace/DAVE-4.4.2-64Bit/xmc1400-getstarted-optiga-trust-m/Libraries/XMCLib/inc\xmc_vadc.h ****   XMC_VADC_REQ_TR_O,     /**< Trigger select signal O */
 388:C:/Workspace/DAVE-4.4.2-64Bit/xmc1400-getstarted-optiga-trust-m/Libraries/XMCLib/inc\xmc_vadc.h ****   XMC_VADC_REQ_TR_P      /**< Trigger select signal P */
 389:C:/Workspace/DAVE-4.4.2-64Bit/xmc1400-getstarted-optiga-trust-m/Libraries/XMCLib/inc\xmc_vadc.h ****   
 390:C:/Workspace/DAVE-4.4.2-64Bit/xmc1400-getstarted-optiga-trust-m/Libraries/XMCLib/inc\xmc_vadc.h **** } XMC_VADC_TRIGGER_INPUT_SELECT_t;
 391:C:/Workspace/DAVE-4.4.2-64Bit/xmc1400-getstarted-optiga-trust-m/Libraries/XMCLib/inc\xmc_vadc.h **** 
 392:C:/Workspace/DAVE-4.4.2-64Bit/xmc1400-getstarted-optiga-trust-m/Libraries/XMCLib/inc\xmc_vadc.h **** /**
 393:C:/Workspace/DAVE-4.4.2-64Bit/xmc1400-getstarted-optiga-trust-m/Libraries/XMCLib/inc\xmc_vadc.h ****  *  Defines the external gating input selection possibilities, to gate the conversion requests. Ref
 394:C:/Workspace/DAVE-4.4.2-64Bit/xmc1400-getstarted-optiga-trust-m/Libraries/XMCLib/inc\xmc_vadc.h ****  *  interconnects section of the reference manual for details of peripherals which can be used. Als
 395:C:/Workspace/DAVE-4.4.2-64Bit/xmc1400-getstarted-optiga-trust-m/Libraries/XMCLib/inc\xmc_vadc.h ****  *  xmc_vadc_map.h file for detailed definitions of the peripherals which can take the control of t
 396:C:/Workspace/DAVE-4.4.2-64Bit/xmc1400-getstarted-optiga-trust-m/Libraries/XMCLib/inc\xmc_vadc.h ****  *  items. Use @ref XMC_VADC_GATE_INPUT_SELECT_t for this enumeration.
 397:C:/Workspace/DAVE-4.4.2-64Bit/xmc1400-getstarted-optiga-trust-m/Libraries/XMCLib/inc\xmc_vadc.h ****  */
 398:C:/Workspace/DAVE-4.4.2-64Bit/xmc1400-getstarted-optiga-trust-m/Libraries/XMCLib/inc\xmc_vadc.h **** typedef enum XMC_VADC_GATE_INPUT_SELECT
 399:C:/Workspace/DAVE-4.4.2-64Bit/xmc1400-getstarted-optiga-trust-m/Libraries/XMCLib/inc\xmc_vadc.h **** {
 400:C:/Workspace/DAVE-4.4.2-64Bit/xmc1400-getstarted-optiga-trust-m/Libraries/XMCLib/inc\xmc_vadc.h ****   XMC_VADC_REQ_GT_A = 0, /**< Gating select signal A */
 401:C:/Workspace/DAVE-4.4.2-64Bit/xmc1400-getstarted-optiga-trust-m/Libraries/XMCLib/inc\xmc_vadc.h ****   XMC_VADC_REQ_GT_B,     /**< Gating select signal B */
 402:C:/Workspace/DAVE-4.4.2-64Bit/xmc1400-getstarted-optiga-trust-m/Libraries/XMCLib/inc\xmc_vadc.h ****   XMC_VADC_REQ_GT_C,     /**< Gating select signal C */
 403:C:/Workspace/DAVE-4.4.2-64Bit/xmc1400-getstarted-optiga-trust-m/Libraries/XMCLib/inc\xmc_vadc.h ****   XMC_VADC_REQ_GT_D,     /**< Gating select signal D */
 404:C:/Workspace/DAVE-4.4.2-64Bit/xmc1400-getstarted-optiga-trust-m/Libraries/XMCLib/inc\xmc_vadc.h ****   XMC_VADC_REQ_GT_E,     /**< Gating select signal E */
 405:C:/Workspace/DAVE-4.4.2-64Bit/xmc1400-getstarted-optiga-trust-m/Libraries/XMCLib/inc\xmc_vadc.h ****   XMC_VADC_REQ_GT_F,     /**< Gating select signal F */
 406:C:/Workspace/DAVE-4.4.2-64Bit/xmc1400-getstarted-optiga-trust-m/Libraries/XMCLib/inc\xmc_vadc.h ****   XMC_VADC_REQ_GT_G,     /**< Gating select signal G */
 407:C:/Workspace/DAVE-4.4.2-64Bit/xmc1400-getstarted-optiga-trust-m/Libraries/XMCLib/inc\xmc_vadc.h ****   XMC_VADC_REQ_GT_H,     /**< Gating select signal H */
 408:C:/Workspace/DAVE-4.4.2-64Bit/xmc1400-getstarted-optiga-trust-m/Libraries/XMCLib/inc\xmc_vadc.h ****   XMC_VADC_REQ_GT_I,     /**< Gating select signal I */
 409:C:/Workspace/DAVE-4.4.2-64Bit/xmc1400-getstarted-optiga-trust-m/Libraries/XMCLib/inc\xmc_vadc.h ****   XMC_VADC_REQ_GT_J,     /**< Gating select signal J */
 410:C:/Workspace/DAVE-4.4.2-64Bit/xmc1400-getstarted-optiga-trust-m/Libraries/XMCLib/inc\xmc_vadc.h ****   XMC_VADC_REQ_GT_K,     /**< Gating select signal K */
 411:C:/Workspace/DAVE-4.4.2-64Bit/xmc1400-getstarted-optiga-trust-m/Libraries/XMCLib/inc\xmc_vadc.h ****   XMC_VADC_REQ_GT_L,     /**< Gating select signal L */
 412:C:/Workspace/DAVE-4.4.2-64Bit/xmc1400-getstarted-optiga-trust-m/Libraries/XMCLib/inc\xmc_vadc.h ****   XMC_VADC_REQ_GT_M,     /**< Gating select signal M */
 413:C:/Workspace/DAVE-4.4.2-64Bit/xmc1400-getstarted-optiga-trust-m/Libraries/XMCLib/inc\xmc_vadc.h ****   XMC_VADC_REQ_GT_N,     /**< Gating select signal N */
 414:C:/Workspace/DAVE-4.4.2-64Bit/xmc1400-getstarted-optiga-trust-m/Libraries/XMCLib/inc\xmc_vadc.h ****   XMC_VADC_REQ_GT_O,     /**< Gating select signal O */
 415:C:/Workspace/DAVE-4.4.2-64Bit/xmc1400-getstarted-optiga-trust-m/Libraries/XMCLib/inc\xmc_vadc.h ****   XMC_VADC_REQ_GT_P      /**< Gating select signal P */
 416:C:/Workspace/DAVE-4.4.2-64Bit/xmc1400-getstarted-optiga-trust-m/Libraries/XMCLib/inc\xmc_vadc.h ****   
 417:C:/Workspace/DAVE-4.4.2-64Bit/xmc1400-getstarted-optiga-trust-m/Libraries/XMCLib/inc\xmc_vadc.h **** } XMC_VADC_GATE_INPUT_SELECT_t;
 418:C:/Workspace/DAVE-4.4.2-64Bit/xmc1400-getstarted-optiga-trust-m/Libraries/XMCLib/inc\xmc_vadc.h **** 
 419:C:/Workspace/DAVE-4.4.2-64Bit/xmc1400-getstarted-optiga-trust-m/Libraries/XMCLib/inc\xmc_vadc.h **** /**
 420:C:/Workspace/DAVE-4.4.2-64Bit/xmc1400-getstarted-optiga-trust-m/Libraries/XMCLib/inc\xmc_vadc.h ****  * Defines the condition for gating the conversion requests. It can be used to set the ENGT field
 421:C:/Workspace/DAVE-4.4.2-64Bit/xmc1400-getstarted-optiga-trust-m/Libraries/XMCLib/inc\xmc_vadc.h ****  * of ASMR/BSMR/QMR register respectively for auto_scan/background_scan/queue request sources.
 422:C:/Workspace/DAVE-4.4.2-64Bit/xmc1400-getstarted-optiga-trust-m/Libraries/XMCLib/inc\xmc_vadc.h ****  * Use @ref XMC_VADC_GATEMODE_t for this enumeration.
 423:C:/Workspace/DAVE-4.4.2-64Bit/xmc1400-getstarted-optiga-trust-m/Libraries/XMCLib/inc\xmc_vadc.h ****  */
 424:C:/Workspace/DAVE-4.4.2-64Bit/xmc1400-getstarted-optiga-trust-m/Libraries/XMCLib/inc\xmc_vadc.h **** typedef enum XMC_VADC_GATEMODE
 425:C:/Workspace/DAVE-4.4.2-64Bit/xmc1400-getstarted-optiga-trust-m/Libraries/XMCLib/inc\xmc_vadc.h **** {
 426:C:/Workspace/DAVE-4.4.2-64Bit/xmc1400-getstarted-optiga-trust-m/Libraries/XMCLib/inc\xmc_vadc.h ****   XMC_VADC_GATEMODE_BLOCK = 0,  /**< External triggers are permanently blocked */
 427:C:/Workspace/DAVE-4.4.2-64Bit/xmc1400-getstarted-optiga-trust-m/Libraries/XMCLib/inc\xmc_vadc.h ****   XMC_VADC_GATEMODE_IGNORE,     /**< External triggers are unconditionally passed */
 428:C:/Workspace/DAVE-4.4.2-64Bit/xmc1400-getstarted-optiga-trust-m/Libraries/XMCLib/inc\xmc_vadc.h ****   XMC_VADC_GATEMODE_ACTIVEHIGH, /**< External trigger is passed only if the gate signal is high */
 429:C:/Workspace/DAVE-4.4.2-64Bit/xmc1400-getstarted-optiga-trust-m/Libraries/XMCLib/inc\xmc_vadc.h ****   XMC_VADC_GATEMODE_ACTIVELOW  /**< External trigger is passed only if the gate signal is low */
 430:C:/Workspace/DAVE-4.4.2-64Bit/xmc1400-getstarted-optiga-trust-m/Libraries/XMCLib/inc\xmc_vadc.h **** } XMC_VADC_GATEMODE_t;
 431:C:/Workspace/DAVE-4.4.2-64Bit/xmc1400-getstarted-optiga-trust-m/Libraries/XMCLib/inc\xmc_vadc.h **** 
 432:C:/Workspace/DAVE-4.4.2-64Bit/xmc1400-getstarted-optiga-trust-m/Libraries/XMCLib/inc\xmc_vadc.h **** /**
 433:C:/Workspace/DAVE-4.4.2-64Bit/xmc1400-getstarted-optiga-trust-m/Libraries/XMCLib/inc\xmc_vadc.h ****  * Defines the conversion result handling mode. Use @ref XMC_VADC_DMM_t for this enumeration.
 434:C:/Workspace/DAVE-4.4.2-64Bit/xmc1400-getstarted-optiga-trust-m/Libraries/XMCLib/inc\xmc_vadc.h ****  */
 435:C:/Workspace/DAVE-4.4.2-64Bit/xmc1400-getstarted-optiga-trust-m/Libraries/XMCLib/inc\xmc_vadc.h **** typedef enum XMC_VADC_DMM
 436:C:/Workspace/DAVE-4.4.2-64Bit/xmc1400-getstarted-optiga-trust-m/Libraries/XMCLib/inc\xmc_vadc.h **** {
 437:C:/Workspace/DAVE-4.4.2-64Bit/xmc1400-getstarted-optiga-trust-m/Libraries/XMCLib/inc\xmc_vadc.h ****   XMC_VADC_DMM_REDUCTION_MODE = 0, /**< Standard Data reduction mode*/
 438:C:/Workspace/DAVE-4.4.2-64Bit/xmc1400-getstarted-optiga-trust-m/Libraries/XMCLib/inc\xmc_vadc.h ****   XMC_VADC_DMM_FILTERING_MODE,     /**< Provide option to select Finite Impulse Response Filter (FI
 439:C:/Workspace/DAVE-4.4.2-64Bit/xmc1400-getstarted-optiga-trust-m/Libraries/XMCLib/inc\xmc_vadc.h ****                                         Infinite Impulse Response Filter (IIR)*/
 440:C:/Workspace/DAVE-4.4.2-64Bit/xmc1400-getstarted-optiga-trust-m/Libraries/XMCLib/inc\xmc_vadc.h ****   XMC_VADC_DMM_DIFFERENCE_MODE,    /**< Difference mode is selected*/
 441:C:/Workspace/DAVE-4.4.2-64Bit/xmc1400-getstarted-optiga-trust-m/Libraries/XMCLib/inc\xmc_vadc.h **** } XMC_VADC_DMM_t;
 442:C:/Workspace/DAVE-4.4.2-64Bit/xmc1400-getstarted-optiga-trust-m/Libraries/XMCLib/inc\xmc_vadc.h **** 
 443:C:/Workspace/DAVE-4.4.2-64Bit/xmc1400-getstarted-optiga-trust-m/Libraries/XMCLib/inc\xmc_vadc.h **** /**
 444:C:/Workspace/DAVE-4.4.2-64Bit/xmc1400-getstarted-optiga-trust-m/Libraries/XMCLib/inc\xmc_vadc.h ****  *  Defines the conversion mode. It defines the resolution of conversion. Use XMC_VADC_CONVMODE_t f
 445:C:/Workspace/DAVE-4.4.2-64Bit/xmc1400-getstarted-optiga-trust-m/Libraries/XMCLib/inc\xmc_vadc.h ****  */
 446:C:/Workspace/DAVE-4.4.2-64Bit/xmc1400-getstarted-optiga-trust-m/Libraries/XMCLib/inc\xmc_vadc.h **** typedef enum XMC_VADC_CONVMODE
 447:C:/Workspace/DAVE-4.4.2-64Bit/xmc1400-getstarted-optiga-trust-m/Libraries/XMCLib/inc\xmc_vadc.h **** {
 448:C:/Workspace/DAVE-4.4.2-64Bit/xmc1400-getstarted-optiga-trust-m/Libraries/XMCLib/inc\xmc_vadc.h ****   XMC_VADC_CONVMODE_12BIT       = 0,  /**< Results of conversion are 12bits wide */
 449:C:/Workspace/DAVE-4.4.2-64Bit/xmc1400-getstarted-optiga-trust-m/Libraries/XMCLib/inc\xmc_vadc.h ****   XMC_VADC_CONVMODE_10BIT       = 1,  /**< Results of conversion are 10bits wide */
 450:C:/Workspace/DAVE-4.4.2-64Bit/xmc1400-getstarted-optiga-trust-m/Libraries/XMCLib/inc\xmc_vadc.h ****   XMC_VADC_CONVMODE_8BIT        = 2,  /**< Results of conversion are 8bits wide */
 451:C:/Workspace/DAVE-4.4.2-64Bit/xmc1400-getstarted-optiga-trust-m/Libraries/XMCLib/inc\xmc_vadc.h ****   XMC_VADC_CONVMODE_FASTCOMPARE = 5  /**< Input signal compared with a preset range */
 452:C:/Workspace/DAVE-4.4.2-64Bit/xmc1400-getstarted-optiga-trust-m/Libraries/XMCLib/inc\xmc_vadc.h **** } XMC_VADC_CONVMODE_t;
 453:C:/Workspace/DAVE-4.4.2-64Bit/xmc1400-getstarted-optiga-trust-m/Libraries/XMCLib/inc\xmc_vadc.h **** 
 454:C:/Workspace/DAVE-4.4.2-64Bit/xmc1400-getstarted-optiga-trust-m/Libraries/XMCLib/inc\xmc_vadc.h **** /**
 455:C:/Workspace/DAVE-4.4.2-64Bit/xmc1400-getstarted-optiga-trust-m/Libraries/XMCLib/inc\xmc_vadc.h ****  *  Defines the output of a fast compare mode. Use @ref XMC_VADC_FAST_COMPARE_t for
 456:C:/Workspace/DAVE-4.4.2-64Bit/xmc1400-getstarted-optiga-trust-m/Libraries/XMCLib/inc\xmc_vadc.h ****  *  this enumeration.
 457:C:/Workspace/DAVE-4.4.2-64Bit/xmc1400-getstarted-optiga-trust-m/Libraries/XMCLib/inc\xmc_vadc.h ****  */
 458:C:/Workspace/DAVE-4.4.2-64Bit/xmc1400-getstarted-optiga-trust-m/Libraries/XMCLib/inc\xmc_vadc.h **** typedef enum XMC_VADC_FAST_COMPARE
 459:C:/Workspace/DAVE-4.4.2-64Bit/xmc1400-getstarted-optiga-trust-m/Libraries/XMCLib/inc\xmc_vadc.h **** {
 460:C:/Workspace/DAVE-4.4.2-64Bit/xmc1400-getstarted-optiga-trust-m/Libraries/XMCLib/inc\xmc_vadc.h ****   XMC_VADC_FAST_COMPARE_LOW = 0, /**< Input lower than than programmed reference */
 461:C:/Workspace/DAVE-4.4.2-64Bit/xmc1400-getstarted-optiga-trust-m/Libraries/XMCLib/inc\xmc_vadc.h ****   XMC_VADC_FAST_COMPARE_HIGH ,   /**< Input higher than than programmed reference */
 462:C:/Workspace/DAVE-4.4.2-64Bit/xmc1400-getstarted-optiga-trust-m/Libraries/XMCLib/inc\xmc_vadc.h ****   XMC_VADC_FAST_COMPARE_UNKNOWN  /**< Unknown, Conversion probably still ongoing */
 463:C:/Workspace/DAVE-4.4.2-64Bit/xmc1400-getstarted-optiga-trust-m/Libraries/XMCLib/inc\xmc_vadc.h **** } XMC_VADC_FAST_COMPARE_t;
 464:C:/Workspace/DAVE-4.4.2-64Bit/xmc1400-getstarted-optiga-trust-m/Libraries/XMCLib/inc\xmc_vadc.h ****  
 465:C:/Workspace/DAVE-4.4.2-64Bit/xmc1400-getstarted-optiga-trust-m/Libraries/XMCLib/inc\xmc_vadc.h **** /**
 466:C:/Workspace/DAVE-4.4.2-64Bit/xmc1400-getstarted-optiga-trust-m/Libraries/XMCLib/inc\xmc_vadc.h ****  * Defines the type of scan request source to be used. It can choose between auto scan and backgrou
 467:C:/Workspace/DAVE-4.4.2-64Bit/xmc1400-getstarted-optiga-trust-m/Libraries/XMCLib/inc\xmc_vadc.h ****  * source methods. Use @ref XMC_VADC_SCAN_TYPE_t for this enumeration.
 468:C:/Workspace/DAVE-4.4.2-64Bit/xmc1400-getstarted-optiga-trust-m/Libraries/XMCLib/inc\xmc_vadc.h ****  */
 469:C:/Workspace/DAVE-4.4.2-64Bit/xmc1400-getstarted-optiga-trust-m/Libraries/XMCLib/inc\xmc_vadc.h **** typedef enum XMC_VADC_SCAN_TYPE
 470:C:/Workspace/DAVE-4.4.2-64Bit/xmc1400-getstarted-optiga-trust-m/Libraries/XMCLib/inc\xmc_vadc.h **** {
 471:C:/Workspace/DAVE-4.4.2-64Bit/xmc1400-getstarted-optiga-trust-m/Libraries/XMCLib/inc\xmc_vadc.h ****   XMC_VADC_SCAN_TYPE_GROUPSCAN = 0, /**< Auto scan mode of operation selected. Also called as Group
 472:C:/Workspace/DAVE-4.4.2-64Bit/xmc1400-getstarted-optiga-trust-m/Libraries/XMCLib/inc\xmc_vadc.h ****   XMC_VADC_SCAN_TYPE_BACKGROUND    /**< Background scan mode of operation selected. Also called as 
 473:C:/Workspace/DAVE-4.4.2-64Bit/xmc1400-getstarted-optiga-trust-m/Libraries/XMCLib/inc\xmc_vadc.h **** } XMC_VADC_SCAN_TYPE_t;
 474:C:/Workspace/DAVE-4.4.2-64Bit/xmc1400-getstarted-optiga-trust-m/Libraries/XMCLib/inc\xmc_vadc.h **** 
 475:C:/Workspace/DAVE-4.4.2-64Bit/xmc1400-getstarted-optiga-trust-m/Libraries/XMCLib/inc\xmc_vadc.h **** /**
 476:C:/Workspace/DAVE-4.4.2-64Bit/xmc1400-getstarted-optiga-trust-m/Libraries/XMCLib/inc\xmc_vadc.h ****  * Defines the behavior of load event for the scan request source. Use @ref XMC_VADC_SCAN_LOAD_t fo
 477:C:/Workspace/DAVE-4.4.2-64Bit/xmc1400-getstarted-optiga-trust-m/Libraries/XMCLib/inc\xmc_vadc.h ****  */
 478:C:/Workspace/DAVE-4.4.2-64Bit/xmc1400-getstarted-optiga-trust-m/Libraries/XMCLib/inc\xmc_vadc.h **** typedef enum XMC_VADC_SCAN_LOAD
 479:C:/Workspace/DAVE-4.4.2-64Bit/xmc1400-getstarted-optiga-trust-m/Libraries/XMCLib/inc\xmc_vadc.h **** {
 480:C:/Workspace/DAVE-4.4.2-64Bit/xmc1400-getstarted-optiga-trust-m/Libraries/XMCLib/inc\xmc_vadc.h ****   XMC_VADC_SCAN_LOAD_OVERWRITE = 0, /**< The old set of channels is discarded in favor of the new s
 481:C:/Workspace/DAVE-4.4.2-64Bit/xmc1400-getstarted-optiga-trust-m/Libraries/XMCLib/inc\xmc_vadc.h ****                                          awaiting conversion */
 482:C:/Workspace/DAVE-4.4.2-64Bit/xmc1400-getstarted-optiga-trust-m/Libraries/XMCLib/inc\xmc_vadc.h ****   XMC_VADC_SCAN_LOAD_COMBINE       /**< The new set of channels are combined with the pending chann
 483:C:/Workspace/DAVE-4.4.2-64Bit/xmc1400-getstarted-optiga-trust-m/Libraries/XMCLib/inc\xmc_vadc.h ****                                          previous set */
 484:C:/Workspace/DAVE-4.4.2-64Bit/xmc1400-getstarted-optiga-trust-m/Libraries/XMCLib/inc\xmc_vadc.h **** } XMC_VADC_SCAN_LOAD_t;
 485:C:/Workspace/DAVE-4.4.2-64Bit/xmc1400-getstarted-optiga-trust-m/Libraries/XMCLib/inc\xmc_vadc.h **** 
 486:C:/Workspace/DAVE-4.4.2-64Bit/xmc1400-getstarted-optiga-trust-m/Libraries/XMCLib/inc\xmc_vadc.h **** /**
 487:C:/Workspace/DAVE-4.4.2-64Bit/xmc1400-getstarted-optiga-trust-m/Libraries/XMCLib/inc\xmc_vadc.h ****  * Defines the conversion classes that can be selected for each channel. The enumeration members ho
 488:C:/Workspace/DAVE-4.4.2-64Bit/xmc1400-getstarted-optiga-trust-m/Libraries/XMCLib/inc\xmc_vadc.h ****  * global classes. The conversion classes decides the properties of conversion, like resolution, sa
 489:C:/Workspace/DAVE-4.4.2-64Bit/xmc1400-getstarted-optiga-trust-m/Libraries/XMCLib/inc\xmc_vadc.h ****  * Use @ref XMC_VADC_CHANNEL_CONV_t for this enumeration.
 490:C:/Workspace/DAVE-4.4.2-64Bit/xmc1400-getstarted-optiga-trust-m/Libraries/XMCLib/inc\xmc_vadc.h ****  */
 491:C:/Workspace/DAVE-4.4.2-64Bit/xmc1400-getstarted-optiga-trust-m/Libraries/XMCLib/inc\xmc_vadc.h **** 
 492:C:/Workspace/DAVE-4.4.2-64Bit/xmc1400-getstarted-optiga-trust-m/Libraries/XMCLib/inc\xmc_vadc.h **** typedef enum XMC_VADC_CHANNEL_CONV
 493:C:/Workspace/DAVE-4.4.2-64Bit/xmc1400-getstarted-optiga-trust-m/Libraries/XMCLib/inc\xmc_vadc.h **** {
 494:C:/Workspace/DAVE-4.4.2-64Bit/xmc1400-getstarted-optiga-trust-m/Libraries/XMCLib/inc\xmc_vadc.h ****   XMC_VADC_CHANNEL_CONV_GROUP_CLASS0 = 0, /**< Conversion property set-0 specific to the group */
 495:C:/Workspace/DAVE-4.4.2-64Bit/xmc1400-getstarted-optiga-trust-m/Libraries/XMCLib/inc\xmc_vadc.h ****   XMC_VADC_CHANNEL_CONV_GROUP_CLASS1,     /**< Conversion property set-1 specific to the group */
 496:C:/Workspace/DAVE-4.4.2-64Bit/xmc1400-getstarted-optiga-trust-m/Libraries/XMCLib/inc\xmc_vadc.h ****   XMC_VADC_CHANNEL_CONV_GLOBAL_CLASS0,    /**< Conversion property set-0, Module wide */
 497:C:/Workspace/DAVE-4.4.2-64Bit/xmc1400-getstarted-optiga-trust-m/Libraries/XMCLib/inc\xmc_vadc.h ****   XMC_VADC_CHANNEL_CONV_GLOBAL_CLASS1    /**< Conversion property set-1, Module wide */
 498:C:/Workspace/DAVE-4.4.2-64Bit/xmc1400-getstarted-optiga-trust-m/Libraries/XMCLib/inc\xmc_vadc.h **** } XMC_VADC_CHANNEL_CONV_t;
 499:C:/Workspace/DAVE-4.4.2-64Bit/xmc1400-getstarted-optiga-trust-m/Libraries/XMCLib/inc\xmc_vadc.h **** 
 500:C:/Workspace/DAVE-4.4.2-64Bit/xmc1400-getstarted-optiga-trust-m/Libraries/XMCLib/inc\xmc_vadc.h **** /**
 501:C:/Workspace/DAVE-4.4.2-64Bit/xmc1400-getstarted-optiga-trust-m/Libraries/XMCLib/inc\xmc_vadc.h ****  * Defines the references to boundary values used for limit checking feature. Each of these can be 
 502:C:/Workspace/DAVE-4.4.2-64Bit/xmc1400-getstarted-optiga-trust-m/Libraries/XMCLib/inc\xmc_vadc.h ****  * either an upper bound or a lower bound. Use @ref XMC_VADC_CHANNEL_BOUNDARY_t for this enumeratio
 503:C:/Workspace/DAVE-4.4.2-64Bit/xmc1400-getstarted-optiga-trust-m/Libraries/XMCLib/inc\xmc_vadc.h ****  */
 504:C:/Workspace/DAVE-4.4.2-64Bit/xmc1400-getstarted-optiga-trust-m/Libraries/XMCLib/inc\xmc_vadc.h **** 
 505:C:/Workspace/DAVE-4.4.2-64Bit/xmc1400-getstarted-optiga-trust-m/Libraries/XMCLib/inc\xmc_vadc.h **** typedef enum XMC_VADC_CHANNEL_BOUNDARY
 506:C:/Workspace/DAVE-4.4.2-64Bit/xmc1400-getstarted-optiga-trust-m/Libraries/XMCLib/inc\xmc_vadc.h **** {
 507:C:/Workspace/DAVE-4.4.2-64Bit/xmc1400-getstarted-optiga-trust-m/Libraries/XMCLib/inc\xmc_vadc.h ****   XMC_VADC_CHANNEL_BOUNDARY_GROUP_BOUND0 = 0, /**< Group specific Boundary-0 value */
 508:C:/Workspace/DAVE-4.4.2-64Bit/xmc1400-getstarted-optiga-trust-m/Libraries/XMCLib/inc\xmc_vadc.h ****   XMC_VADC_CHANNEL_BOUNDARY_GROUP_BOUND1,     /**< Group specific Boundary-1 value */
 509:C:/Workspace/DAVE-4.4.2-64Bit/xmc1400-getstarted-optiga-trust-m/Libraries/XMCLib/inc\xmc_vadc.h ****   XMC_VADC_CHANNEL_BOUNDARY_GLOBAL_BOUND0,    /**< Module wide Boundary-0 value */
 510:C:/Workspace/DAVE-4.4.2-64Bit/xmc1400-getstarted-optiga-trust-m/Libraries/XMCLib/inc\xmc_vadc.h ****   XMC_VADC_CHANNEL_BOUNDARY_GLOBAL_BOUND1    /**< Module wide Boundary-1 value */
 511:C:/Workspace/DAVE-4.4.2-64Bit/xmc1400-getstarted-optiga-trust-m/Libraries/XMCLib/inc\xmc_vadc.h **** } XMC_VADC_CHANNEL_BOUNDARY_t;
 512:C:/Workspace/DAVE-4.4.2-64Bit/xmc1400-getstarted-optiga-trust-m/Libraries/XMCLib/inc\xmc_vadc.h **** 
 513:C:/Workspace/DAVE-4.4.2-64Bit/xmc1400-getstarted-optiga-trust-m/Libraries/XMCLib/inc\xmc_vadc.h **** /**
 514:C:/Workspace/DAVE-4.4.2-64Bit/xmc1400-getstarted-optiga-trust-m/Libraries/XMCLib/inc\xmc_vadc.h ****  * Defines the voltage which the capacitor is charged to. Used in Broken wire detection feature. Us
 515:C:/Workspace/DAVE-4.4.2-64Bit/xmc1400-getstarted-optiga-trust-m/Libraries/XMCLib/inc\xmc_vadc.h ****  * @ref XMC_VADC_CHANNEL_BWDCH_t for this enumeration.
 516:C:/Workspace/DAVE-4.4.2-64Bit/xmc1400-getstarted-optiga-trust-m/Libraries/XMCLib/inc\xmc_vadc.h ****  */
 517:C:/Workspace/DAVE-4.4.2-64Bit/xmc1400-getstarted-optiga-trust-m/Libraries/XMCLib/inc\xmc_vadc.h **** typedef enum XMC_VADC_CHANNEL_BWDCH
 518:C:/Workspace/DAVE-4.4.2-64Bit/xmc1400-getstarted-optiga-trust-m/Libraries/XMCLib/inc\xmc_vadc.h **** {
 519:C:/Workspace/DAVE-4.4.2-64Bit/xmc1400-getstarted-optiga-trust-m/Libraries/XMCLib/inc\xmc_vadc.h ****   XMC_VADC_CHANNEL_BWDCH_VAGND = 0, /**< Capacitor pre-charged to ground*/
 520:C:/Workspace/DAVE-4.4.2-64Bit/xmc1400-getstarted-optiga-trust-m/Libraries/XMCLib/inc\xmc_vadc.h ****   XMC_VADC_CHANNEL_BWDCH_VAREF     /**< Capacitor pre-charged to reference voltage*/
 521:C:/Workspace/DAVE-4.4.2-64Bit/xmc1400-getstarted-optiga-trust-m/Libraries/XMCLib/inc\xmc_vadc.h **** } XMC_VADC_CHANNEL_BWDCH_t;
 522:C:/Workspace/DAVE-4.4.2-64Bit/xmc1400-getstarted-optiga-trust-m/Libraries/XMCLib/inc\xmc_vadc.h **** 
 523:C:/Workspace/DAVE-4.4.2-64Bit/xmc1400-getstarted-optiga-trust-m/Libraries/XMCLib/inc\xmc_vadc.h **** /**
 524:C:/Workspace/DAVE-4.4.2-64Bit/xmc1400-getstarted-optiga-trust-m/Libraries/XMCLib/inc\xmc_vadc.h ****  *   Defines the criteria for event generation by the channel. Use @ref XMC_VADC_CHANNEL_EVGEN_t fo
 525:C:/Workspace/DAVE-4.4.2-64Bit/xmc1400-getstarted-optiga-trust-m/Libraries/XMCLib/inc\xmc_vadc.h ****  */
 526:C:/Workspace/DAVE-4.4.2-64Bit/xmc1400-getstarted-optiga-trust-m/Libraries/XMCLib/inc\xmc_vadc.h **** typedef enum XMC_VADC_CHANNEL_EVGEN
 527:C:/Workspace/DAVE-4.4.2-64Bit/xmc1400-getstarted-optiga-trust-m/Libraries/XMCLib/inc\xmc_vadc.h **** {
 528:C:/Workspace/DAVE-4.4.2-64Bit/xmc1400-getstarted-optiga-trust-m/Libraries/XMCLib/inc\xmc_vadc.h ****   XMC_VADC_CHANNEL_EVGEN_NEVER     = 0,  /**< No event generated */
 529:C:/Workspace/DAVE-4.4.2-64Bit/xmc1400-getstarted-optiga-trust-m/Libraries/XMCLib/inc\xmc_vadc.h ****   XMC_VADC_CHANNEL_EVGEN_INBOUND   = 1U, /**< Event generated when the result is within the normal 
 530:C:/Workspace/DAVE-4.4.2-64Bit/xmc1400-getstarted-optiga-trust-m/Libraries/XMCLib/inc\xmc_vadc.h ****   XMC_VADC_CHANNEL_EVGEN_COMPHIGH  = 1U, /**< Event generated when the result of fast compare opera
 531:C:/Workspace/DAVE-4.4.2-64Bit/xmc1400-getstarted-optiga-trust-m/Libraries/XMCLib/inc\xmc_vadc.h ****   XMC_VADC_CHANNEL_EVGEN_OUTBOUND  = 2U, /**< Event generated when the result is outside the normal
 532:C:/Workspace/DAVE-4.4.2-64Bit/xmc1400-getstarted-optiga-trust-m/Libraries/XMCLib/inc\xmc_vadc.h ****   XMC_VADC_CHANNEL_EVGEN_COMPLOW   = 2U, /**< Event generated when the result result of fast compar
 533:C:/Workspace/DAVE-4.4.2-64Bit/xmc1400-getstarted-optiga-trust-m/Libraries/XMCLib/inc\xmc_vadc.h ****   XMC_VADC_CHANNEL_EVGEN_ALWAYS    = 3U /**< Event generated always after conversion - unconditiona
 534:C:/Workspace/DAVE-4.4.2-64Bit/xmc1400-getstarted-optiga-trust-m/Libraries/XMCLib/inc\xmc_vadc.h **** } XMC_VADC_CHANNEL_EVGEN_t;
 535:C:/Workspace/DAVE-4.4.2-64Bit/xmc1400-getstarted-optiga-trust-m/Libraries/XMCLib/inc\xmc_vadc.h **** 
 536:C:/Workspace/DAVE-4.4.2-64Bit/xmc1400-getstarted-optiga-trust-m/Libraries/XMCLib/inc\xmc_vadc.h **** /**
 537:C:/Workspace/DAVE-4.4.2-64Bit/xmc1400-getstarted-optiga-trust-m/Libraries/XMCLib/inc\xmc_vadc.h ****  * Defines the reference voltage selection for conversion. Use @ref XMC_VADC_CHANNEL_REF_t for this
 538:C:/Workspace/DAVE-4.4.2-64Bit/xmc1400-getstarted-optiga-trust-m/Libraries/XMCLib/inc\xmc_vadc.h ****  */
 539:C:/Workspace/DAVE-4.4.2-64Bit/xmc1400-getstarted-optiga-trust-m/Libraries/XMCLib/inc\xmc_vadc.h **** typedef enum XMC_VADC_CHANNEL_REF
 540:C:/Workspace/DAVE-4.4.2-64Bit/xmc1400-getstarted-optiga-trust-m/Libraries/XMCLib/inc\xmc_vadc.h **** {
 541:C:/Workspace/DAVE-4.4.2-64Bit/xmc1400-getstarted-optiga-trust-m/Libraries/XMCLib/inc\xmc_vadc.h ****   XMC_VADC_CHANNEL_REF_INTREF = 0, /**< Internal VARef */
 542:C:/Workspace/DAVE-4.4.2-64Bit/xmc1400-getstarted-optiga-trust-m/Libraries/XMCLib/inc\xmc_vadc.h ****   XMC_VADC_CHANNEL_REF_ALT_CH0    /**< External voltage available on Channel-0 of the perticular gr
 543:C:/Workspace/DAVE-4.4.2-64Bit/xmc1400-getstarted-optiga-trust-m/Libraries/XMCLib/inc\xmc_vadc.h **** } XMC_VADC_CHANNEL_REF_t;
 544:C:/Workspace/DAVE-4.4.2-64Bit/xmc1400-getstarted-optiga-trust-m/Libraries/XMCLib/inc\xmc_vadc.h ****  
 545:C:/Workspace/DAVE-4.4.2-64Bit/xmc1400-getstarted-optiga-trust-m/Libraries/XMCLib/inc\xmc_vadc.h **** /**
 546:C:/Workspace/DAVE-4.4.2-64Bit/xmc1400-getstarted-optiga-trust-m/Libraries/XMCLib/inc\xmc_vadc.h ****  * Defines the criteria for boundary flag assertion. Use @ref XMC_VADC_CHANNEL_BOUNDARY_CONDITION_t
 547:C:/Workspace/DAVE-4.4.2-64Bit/xmc1400-getstarted-optiga-trust-m/Libraries/XMCLib/inc\xmc_vadc.h ****  * enumeration.
 548:C:/Workspace/DAVE-4.4.2-64Bit/xmc1400-getstarted-optiga-trust-m/Libraries/XMCLib/inc\xmc_vadc.h ****  */
 549:C:/Workspace/DAVE-4.4.2-64Bit/xmc1400-getstarted-optiga-trust-m/Libraries/XMCLib/inc\xmc_vadc.h **** typedef enum XMC_VADC_CHANNEL_BOUNDARY_CONDITION
 550:C:/Workspace/DAVE-4.4.2-64Bit/xmc1400-getstarted-optiga-trust-m/Libraries/XMCLib/inc\xmc_vadc.h **** {
 551:C:/Workspace/DAVE-4.4.2-64Bit/xmc1400-getstarted-optiga-trust-m/Libraries/XMCLib/inc\xmc_vadc.h ****   XMC_VADC_CHANNEL_BOUNDARY_CONDITION_ABOVE_BAND = 0, /**< Set Boundary condition criteria to asser
 552:C:/Workspace/DAVE-4.4.2-64Bit/xmc1400-getstarted-optiga-trust-m/Libraries/XMCLib/inc\xmc_vadc.h ****   XMC_VADC_CHANNEL_BOUNDARY_CONDITION_BELOW_BAND     /**< Set Boundary condition criteria to assert
 553:C:/Workspace/DAVE-4.4.2-64Bit/xmc1400-getstarted-optiga-trust-m/Libraries/XMCLib/inc\xmc_vadc.h **** } XMC_VADC_CHANNEL_BOUNDARY_CONDITION_t;
 554:C:/Workspace/DAVE-4.4.2-64Bit/xmc1400-getstarted-optiga-trust-m/Libraries/XMCLib/inc\xmc_vadc.h ****  
 555:C:/Workspace/DAVE-4.4.2-64Bit/xmc1400-getstarted-optiga-trust-m/Libraries/XMCLib/inc\xmc_vadc.h **** /**
 556:C:/Workspace/DAVE-4.4.2-64Bit/xmc1400-getstarted-optiga-trust-m/Libraries/XMCLib/inc\xmc_vadc.h ****  * Defines the event which can lead to a global service request assertion. Use @ref XMC_VADC_GLOBAL
 557:C:/Workspace/DAVE-4.4.2-64Bit/xmc1400-getstarted-optiga-trust-m/Libraries/XMCLib/inc\xmc_vadc.h ****  * enumeration.
 558:C:/Workspace/DAVE-4.4.2-64Bit/xmc1400-getstarted-optiga-trust-m/Libraries/XMCLib/inc\xmc_vadc.h ****  */
 559:C:/Workspace/DAVE-4.4.2-64Bit/xmc1400-getstarted-optiga-trust-m/Libraries/XMCLib/inc\xmc_vadc.h **** typedef enum XMC_VADC_GLOBAL_EVENT
 560:C:/Workspace/DAVE-4.4.2-64Bit/xmc1400-getstarted-optiga-trust-m/Libraries/XMCLib/inc\xmc_vadc.h **** {
 561:C:/Workspace/DAVE-4.4.2-64Bit/xmc1400-getstarted-optiga-trust-m/Libraries/XMCLib/inc\xmc_vadc.h ****   XMC_VADC_GLOBAL_EVENT_BKGNDSOURCE = VADC_GLOBEFLAG_SEVGLB_Msk, /**< Background scan request sourc
 562:C:/Workspace/DAVE-4.4.2-64Bit/xmc1400-getstarted-optiga-trust-m/Libraries/XMCLib/inc\xmc_vadc.h ****   XMC_VADC_GLOBAL_EVENT_RESULT      = VADC_GLOBEFLAG_REVGLB_Msk  /**< Global result event */
 563:C:/Workspace/DAVE-4.4.2-64Bit/xmc1400-getstarted-optiga-trust-m/Libraries/XMCLib/inc\xmc_vadc.h **** } XMC_VADC_GLOBAL_EVENT_t;
 564:C:/Workspace/DAVE-4.4.2-64Bit/xmc1400-getstarted-optiga-trust-m/Libraries/XMCLib/inc\xmc_vadc.h ****  
 565:C:/Workspace/DAVE-4.4.2-64Bit/xmc1400-getstarted-optiga-trust-m/Libraries/XMCLib/inc\xmc_vadc.h **** /**
 566:C:/Workspace/DAVE-4.4.2-64Bit/xmc1400-getstarted-optiga-trust-m/Libraries/XMCLib/inc\xmc_vadc.h ****  * Defines the power modes of a VADC Group. Use @ref XMC_VADC_GROUP_POWERMODE_t for this enumeratio
 567:C:/Workspace/DAVE-4.4.2-64Bit/xmc1400-getstarted-optiga-trust-m/Libraries/XMCLib/inc\xmc_vadc.h ****  */
 568:C:/Workspace/DAVE-4.4.2-64Bit/xmc1400-getstarted-optiga-trust-m/Libraries/XMCLib/inc\xmc_vadc.h **** typedef enum XMC_VADC_GROUP_POWERMODE
 569:C:/Workspace/DAVE-4.4.2-64Bit/xmc1400-getstarted-optiga-trust-m/Libraries/XMCLib/inc\xmc_vadc.h **** {
 570:C:/Workspace/DAVE-4.4.2-64Bit/xmc1400-getstarted-optiga-trust-m/Libraries/XMCLib/inc\xmc_vadc.h ****   XMC_VADC_GROUP_POWERMODE_OFF       = 0, /**< Group is powered down */
 571:C:/Workspace/DAVE-4.4.2-64Bit/xmc1400-getstarted-optiga-trust-m/Libraries/XMCLib/inc\xmc_vadc.h ****   XMC_VADC_GROUP_POWERMODE_RESERVED1,     /**< Reserved */
 572:C:/Workspace/DAVE-4.4.2-64Bit/xmc1400-getstarted-optiga-trust-m/Libraries/XMCLib/inc\xmc_vadc.h ****   XMC_VADC_GROUP_POWERMODE_RESERVED2,     /**< Reserved */
 573:C:/Workspace/DAVE-4.4.2-64Bit/xmc1400-getstarted-optiga-trust-m/Libraries/XMCLib/inc\xmc_vadc.h ****   XMC_VADC_GROUP_POWERMODE_NORMAL        /**< Group is powered up */
 574:C:/Workspace/DAVE-4.4.2-64Bit/xmc1400-getstarted-optiga-trust-m/Libraries/XMCLib/inc\xmc_vadc.h **** } XMC_VADC_GROUP_POWERMODE_t;
 575:C:/Workspace/DAVE-4.4.2-64Bit/xmc1400-getstarted-optiga-trust-m/Libraries/XMCLib/inc\xmc_vadc.h **** 
 576:C:/Workspace/DAVE-4.4.2-64Bit/xmc1400-getstarted-optiga-trust-m/Libraries/XMCLib/inc\xmc_vadc.h **** /**
 577:C:/Workspace/DAVE-4.4.2-64Bit/xmc1400-getstarted-optiga-trust-m/Libraries/XMCLib/inc\xmc_vadc.h ****  *  Defines the status of a VADC group (also known as kernel). Use @ref XMC_VADC_GROUP_STATE_t for 
 578:C:/Workspace/DAVE-4.4.2-64Bit/xmc1400-getstarted-optiga-trust-m/Libraries/XMCLib/inc\xmc_vadc.h ****  */
 579:C:/Workspace/DAVE-4.4.2-64Bit/xmc1400-getstarted-optiga-trust-m/Libraries/XMCLib/inc\xmc_vadc.h **** typedef enum XMC_VADC_GROUP_STATE
 580:C:/Workspace/DAVE-4.4.2-64Bit/xmc1400-getstarted-optiga-trust-m/Libraries/XMCLib/inc\xmc_vadc.h **** {
 581:C:/Workspace/DAVE-4.4.2-64Bit/xmc1400-getstarted-optiga-trust-m/Libraries/XMCLib/inc\xmc_vadc.h ****   XMC_VADC_GROUP_STATE_IDLE = 0, /**< Idle and can convert if requested */
 582:C:/Workspace/DAVE-4.4.2-64Bit/xmc1400-getstarted-optiga-trust-m/Libraries/XMCLib/inc\xmc_vadc.h ****   XMC_VADC_GROUP_STATE_BUSY      /**< Busy with an ongoing conversion */
 583:C:/Workspace/DAVE-4.4.2-64Bit/xmc1400-getstarted-optiga-trust-m/Libraries/XMCLib/inc\xmc_vadc.h **** } XMC_VADC_GROUP_STATE_t;
 584:C:/Workspace/DAVE-4.4.2-64Bit/xmc1400-getstarted-optiga-trust-m/Libraries/XMCLib/inc\xmc_vadc.h **** 
 585:C:/Workspace/DAVE-4.4.2-64Bit/xmc1400-getstarted-optiga-trust-m/Libraries/XMCLib/inc\xmc_vadc.h **** /**
 586:C:/Workspace/DAVE-4.4.2-64Bit/xmc1400-getstarted-optiga-trust-m/Libraries/XMCLib/inc\xmc_vadc.h ****  *  Defines the reference to sample time and conversion mode settings. Use @ref XMC_VADC_GROUP_CONV
 587:C:/Workspace/DAVE-4.4.2-64Bit/xmc1400-getstarted-optiga-trust-m/Libraries/XMCLib/inc\xmc_vadc.h ****  *  enumeration.
 588:C:/Workspace/DAVE-4.4.2-64Bit/xmc1400-getstarted-optiga-trust-m/Libraries/XMCLib/inc\xmc_vadc.h ****  */
 589:C:/Workspace/DAVE-4.4.2-64Bit/xmc1400-getstarted-optiga-trust-m/Libraries/XMCLib/inc\xmc_vadc.h **** typedef enum XMC_VADC_GROUP_CONV
 590:C:/Workspace/DAVE-4.4.2-64Bit/xmc1400-getstarted-optiga-trust-m/Libraries/XMCLib/inc\xmc_vadc.h **** {
 591:C:/Workspace/DAVE-4.4.2-64Bit/xmc1400-getstarted-optiga-trust-m/Libraries/XMCLib/inc\xmc_vadc.h ****   XMC_VADC_GROUP_CONV_STD = 0, /**< Settings pertaining to channels directly attached to VADC modul
 592:C:/Workspace/DAVE-4.4.2-64Bit/xmc1400-getstarted-optiga-trust-m/Libraries/XMCLib/inc\xmc_vadc.h ****   XMC_VADC_GROUP_CONV_EMUX    /**< Settings pertaining to channels connected to VADC via EMUX */
 593:C:/Workspace/DAVE-4.4.2-64Bit/xmc1400-getstarted-optiga-trust-m/Libraries/XMCLib/inc\xmc_vadc.h **** } XMC_VADC_GROUP_CONV_t;
 594:C:/Workspace/DAVE-4.4.2-64Bit/xmc1400-getstarted-optiga-trust-m/Libraries/XMCLib/inc\xmc_vadc.h **** 
 595:C:/Workspace/DAVE-4.4.2-64Bit/xmc1400-getstarted-optiga-trust-m/Libraries/XMCLib/inc\xmc_vadc.h **** /**
 596:C:/Workspace/DAVE-4.4.2-64Bit/xmc1400-getstarted-optiga-trust-m/Libraries/XMCLib/inc\xmc_vadc.h ****  *  Defines the request source arbiter behavior. Use @ref XMC_VADC_GROUP_ARBMODE_t for this enumera
 597:C:/Workspace/DAVE-4.4.2-64Bit/xmc1400-getstarted-optiga-trust-m/Libraries/XMCLib/inc\xmc_vadc.h ****  */
 598:C:/Workspace/DAVE-4.4.2-64Bit/xmc1400-getstarted-optiga-trust-m/Libraries/XMCLib/inc\xmc_vadc.h **** typedef enum XMC_VADC_GROUP_ARBMODE
 599:C:/Workspace/DAVE-4.4.2-64Bit/xmc1400-getstarted-optiga-trust-m/Libraries/XMCLib/inc\xmc_vadc.h **** {
 600:C:/Workspace/DAVE-4.4.2-64Bit/xmc1400-getstarted-optiga-trust-m/Libraries/XMCLib/inc\xmc_vadc.h ****   XMC_VADC_GROUP_ARBMODE_ALWAYS = 0, /**< Arbiter runs all the time */
 601:C:/Workspace/DAVE-4.4.2-64Bit/xmc1400-getstarted-optiga-trust-m/Libraries/XMCLib/inc\xmc_vadc.h ****   XMC_VADC_GROUP_ARBMODE_ONDEMAND    /**< Arbiter runs only if a conversion request is asserted by 
 602:C:/Workspace/DAVE-4.4.2-64Bit/xmc1400-getstarted-optiga-trust-m/Libraries/XMCLib/inc\xmc_vadc.h ****                                           request sources */
 603:C:/Workspace/DAVE-4.4.2-64Bit/xmc1400-getstarted-optiga-trust-m/Libraries/XMCLib/inc\xmc_vadc.h **** } XMC_VADC_GROUP_ARBMODE_t;
 604:C:/Workspace/DAVE-4.4.2-64Bit/xmc1400-getstarted-optiga-trust-m/Libraries/XMCLib/inc\xmc_vadc.h **** 
 605:C:/Workspace/DAVE-4.4.2-64Bit/xmc1400-getstarted-optiga-trust-m/Libraries/XMCLib/inc\xmc_vadc.h **** /**
 606:C:/Workspace/DAVE-4.4.2-64Bit/xmc1400-getstarted-optiga-trust-m/Libraries/XMCLib/inc\xmc_vadc.h ****  *  Defines the EMUX mode of operation. Use @ref XMC_VADC_GROUP_EMUXMODE_t for this enumeration.
 607:C:/Workspace/DAVE-4.4.2-64Bit/xmc1400-getstarted-optiga-trust-m/Libraries/XMCLib/inc\xmc_vadc.h ****  */
 608:C:/Workspace/DAVE-4.4.2-64Bit/xmc1400-getstarted-optiga-trust-m/Libraries/XMCLib/inc\xmc_vadc.h **** typedef enum XMC_VADC_GROUP_EMUXMODE
 609:C:/Workspace/DAVE-4.4.2-64Bit/xmc1400-getstarted-optiga-trust-m/Libraries/XMCLib/inc\xmc_vadc.h **** {
 610:C:/Workspace/DAVE-4.4.2-64Bit/xmc1400-getstarted-optiga-trust-m/Libraries/XMCLib/inc\xmc_vadc.h ****   XMC_VADC_GROUP_EMUXMODE_SWCTRL = 0,     /**< Perform EMUX in Software control mode*/
 611:C:/Workspace/DAVE-4.4.2-64Bit/xmc1400-getstarted-optiga-trust-m/Libraries/XMCLib/inc\xmc_vadc.h ****   XMC_VADC_GROUP_EMUXMODE_STEADYMODE,     /**< Perform EMUX in Steady mode (Use EMUX set value)*/
 612:C:/Workspace/DAVE-4.4.2-64Bit/xmc1400-getstarted-optiga-trust-m/Libraries/XMCLib/inc\xmc_vadc.h ****   XMC_VADC_GROUP_EMUXMODE_SINGLEMODE,     /**< Perform EMUX in Single step mode*/
 613:C:/Workspace/DAVE-4.4.2-64Bit/xmc1400-getstarted-optiga-trust-m/Libraries/XMCLib/inc\xmc_vadc.h ****   XMC_VADC_GROUP_EMUXMODE_SEQUENCEMODE,   /**< Perform EMUX in Sequence mode*/
 614:C:/Workspace/DAVE-4.4.2-64Bit/xmc1400-getstarted-optiga-trust-m/Libraries/XMCLib/inc\xmc_vadc.h **** } XMC_VADC_GROUP_EMUXMODE_t;
 615:C:/Workspace/DAVE-4.4.2-64Bit/xmc1400-getstarted-optiga-trust-m/Libraries/XMCLib/inc\xmc_vadc.h **** 
 616:C:/Workspace/DAVE-4.4.2-64Bit/xmc1400-getstarted-optiga-trust-m/Libraries/XMCLib/inc\xmc_vadc.h **** /**
 617:C:/Workspace/DAVE-4.4.2-64Bit/xmc1400-getstarted-optiga-trust-m/Libraries/XMCLib/inc\xmc_vadc.h ****  *  Defines the EMUX channel selection encoding scheme. Use @ref XMC_VADC_GROUP_EMUXCODE_t for this
 618:C:/Workspace/DAVE-4.4.2-64Bit/xmc1400-getstarted-optiga-trust-m/Libraries/XMCLib/inc\xmc_vadc.h ****  */
 619:C:/Workspace/DAVE-4.4.2-64Bit/xmc1400-getstarted-optiga-trust-m/Libraries/XMCLib/inc\xmc_vadc.h **** typedef enum XMC_VADC_GROUP_EMUXCODE
 620:C:/Workspace/DAVE-4.4.2-64Bit/xmc1400-getstarted-optiga-trust-m/Libraries/XMCLib/inc\xmc_vadc.h **** {
 621:C:/Workspace/DAVE-4.4.2-64Bit/xmc1400-getstarted-optiga-trust-m/Libraries/XMCLib/inc\xmc_vadc.h ****   XMC_VADC_GROUP_EMUXCODE_BINARY = 0, /**< A linearly incrementing code serves are MUX-SEL */
 622:C:/Workspace/DAVE-4.4.2-64Bit/xmc1400-getstarted-optiga-trust-m/Libraries/XMCLib/inc\xmc_vadc.h ****   XMC_VADC_GROUP_EMUXCODE_GRAY       /**< The MUX-SEL is gray encoded */
 623:C:/Workspace/DAVE-4.4.2-64Bit/xmc1400-getstarted-optiga-trust-m/Libraries/XMCLib/inc\xmc_vadc.h **** } XMC_VADC_GROUP_EMUXCODE_t;
 624:C:/Workspace/DAVE-4.4.2-64Bit/xmc1400-getstarted-optiga-trust-m/Libraries/XMCLib/inc\xmc_vadc.h **** 
 625:C:/Workspace/DAVE-4.4.2-64Bit/xmc1400-getstarted-optiga-trust-m/Libraries/XMCLib/inc\xmc_vadc.h **** /**
 626:C:/Workspace/DAVE-4.4.2-64Bit/xmc1400-getstarted-optiga-trust-m/Libraries/XMCLib/inc\xmc_vadc.h ****  *  Defines the service request set used. Use @ref XMC_VADC_GROUP_IRQ_t for this enumeration.
 627:C:/Workspace/DAVE-4.4.2-64Bit/xmc1400-getstarted-optiga-trust-m/Libraries/XMCLib/inc\xmc_vadc.h ****  */
 628:C:/Workspace/DAVE-4.4.2-64Bit/xmc1400-getstarted-optiga-trust-m/Libraries/XMCLib/inc\xmc_vadc.h **** typedef enum XMC_VADC_GROUP_IRQ
 629:C:/Workspace/DAVE-4.4.2-64Bit/xmc1400-getstarted-optiga-trust-m/Libraries/XMCLib/inc\xmc_vadc.h **** {
 630:C:/Workspace/DAVE-4.4.2-64Bit/xmc1400-getstarted-optiga-trust-m/Libraries/XMCLib/inc\xmc_vadc.h ****   XMC_VADC_GROUP_IRQ_KERNEL = 0, /**< Refers to Group specific service request */
 631:C:/Workspace/DAVE-4.4.2-64Bit/xmc1400-getstarted-optiga-trust-m/Libraries/XMCLib/inc\xmc_vadc.h ****   XMC_VADC_GROUP_IRQ_SHARED     /**< Refers to Module wide service request */
 632:C:/Workspace/DAVE-4.4.2-64Bit/xmc1400-getstarted-optiga-trust-m/Libraries/XMCLib/inc\xmc_vadc.h **** } XMC_VADC_GROUP_IRQ_t;
 633:C:/Workspace/DAVE-4.4.2-64Bit/xmc1400-getstarted-optiga-trust-m/Libraries/XMCLib/inc\xmc_vadc.h **** 
 634:C:/Workspace/DAVE-4.4.2-64Bit/xmc1400-getstarted-optiga-trust-m/Libraries/XMCLib/inc\xmc_vadc.h **** /**
 635:C:/Workspace/DAVE-4.4.2-64Bit/xmc1400-getstarted-optiga-trust-m/Libraries/XMCLib/inc\xmc_vadc.h ****  *  Defines the alignment of the converted result. Use @ref XMC_VADC_RESULT_ALIGN_t for this enumer
 636:C:/Workspace/DAVE-4.4.2-64Bit/xmc1400-getstarted-optiga-trust-m/Libraries/XMCLib/inc\xmc_vadc.h ****  */
 637:C:/Workspace/DAVE-4.4.2-64Bit/xmc1400-getstarted-optiga-trust-m/Libraries/XMCLib/inc\xmc_vadc.h **** typedef enum XMC_VADC_RESULT_ALIGN
 638:C:/Workspace/DAVE-4.4.2-64Bit/xmc1400-getstarted-optiga-trust-m/Libraries/XMCLib/inc\xmc_vadc.h **** {
 639:C:/Workspace/DAVE-4.4.2-64Bit/xmc1400-getstarted-optiga-trust-m/Libraries/XMCLib/inc\xmc_vadc.h ****   XMC_VADC_RESULT_ALIGN_LEFT = 0,  /**< Always align result to left */
 640:C:/Workspace/DAVE-4.4.2-64Bit/xmc1400-getstarted-optiga-trust-m/Libraries/XMCLib/inc\xmc_vadc.h ****   XMC_VADC_RESULT_ALIGN_RIGHT      /**< Always align result to right */
 641:C:/Workspace/DAVE-4.4.2-64Bit/xmc1400-getstarted-optiga-trust-m/Libraries/XMCLib/inc\xmc_vadc.h **** } XMC_VADC_RESULT_ALIGN_t;
 642:C:/Workspace/DAVE-4.4.2-64Bit/xmc1400-getstarted-optiga-trust-m/Libraries/XMCLib/inc\xmc_vadc.h **** 
 643:C:/Workspace/DAVE-4.4.2-64Bit/xmc1400-getstarted-optiga-trust-m/Libraries/XMCLib/inc\xmc_vadc.h **** typedef enum XMC_VADC_RESULT_SUBTRATION 
 644:C:/Workspace/DAVE-4.4.2-64Bit/xmc1400-getstarted-optiga-trust-m/Libraries/XMCLib/inc\xmc_vadc.h **** {
 645:C:/Workspace/DAVE-4.4.2-64Bit/xmc1400-getstarted-optiga-trust-m/Libraries/XMCLib/inc\xmc_vadc.h ****   XMC_VADC_RESULT_SUBTRATION_12BIT_LEFT_ALIGN  = 0U,  /**< Always align result to left */
 646:C:/Workspace/DAVE-4.4.2-64Bit/xmc1400-getstarted-optiga-trust-m/Libraries/XMCLib/inc\xmc_vadc.h ****   XMC_VADC_RESULT_SUBTRATION_12BIT_RIGHT_ALIGN = 0U,  /**< Always align result to right */
 647:C:/Workspace/DAVE-4.4.2-64Bit/xmc1400-getstarted-optiga-trust-m/Libraries/XMCLib/inc\xmc_vadc.h ****   XMC_VADC_RESULT_SUBTRATION_10BIT_LEFT_ALIGN  = 2U,  /**< Always align result to left */
 648:C:/Workspace/DAVE-4.4.2-64Bit/xmc1400-getstarted-optiga-trust-m/Libraries/XMCLib/inc\xmc_vadc.h ****   XMC_VADC_RESULT_SUBTRATION_10BIT_RIGHT_ALIGN = 0U,  /**< Always align result to right */
 649:C:/Workspace/DAVE-4.4.2-64Bit/xmc1400-getstarted-optiga-trust-m/Libraries/XMCLib/inc\xmc_vadc.h ****   XMC_VADC_RESULT_SUBTRATION_8BIT_LEFT_ALIGN   = 4U,  /**< Always align result to left */
 650:C:/Workspace/DAVE-4.4.2-64Bit/xmc1400-getstarted-optiga-trust-m/Libraries/XMCLib/inc\xmc_vadc.h ****   XMC_VADC_RESULT_SUBTRATION_8BIT_RIGHT_ALIGN  = 0U,  /**< Always align result to right */
 651:C:/Workspace/DAVE-4.4.2-64Bit/xmc1400-getstarted-optiga-trust-m/Libraries/XMCLib/inc\xmc_vadc.h **** } XMC_VADC_RESULT_SUBTRATION_t;
 652:C:/Workspace/DAVE-4.4.2-64Bit/xmc1400-getstarted-optiga-trust-m/Libraries/XMCLib/inc\xmc_vadc.h **** 
 653:C:/Workspace/DAVE-4.4.2-64Bit/xmc1400-getstarted-optiga-trust-m/Libraries/XMCLib/inc\xmc_vadc.h **** /**
 654:C:/Workspace/DAVE-4.4.2-64Bit/xmc1400-getstarted-optiga-trust-m/Libraries/XMCLib/inc\xmc_vadc.h ****  *  Defines the request source arbitration priority. Use @ref XMC_VADC_GROUP_RS_PRIORITY_t for this
 655:C:/Workspace/DAVE-4.4.2-64Bit/xmc1400-getstarted-optiga-trust-m/Libraries/XMCLib/inc\xmc_vadc.h ****  */
 656:C:/Workspace/DAVE-4.4.2-64Bit/xmc1400-getstarted-optiga-trust-m/Libraries/XMCLib/inc\xmc_vadc.h **** typedef enum XMC_VADC_GROUP_RS_PRIORITY
 657:C:/Workspace/DAVE-4.4.2-64Bit/xmc1400-getstarted-optiga-trust-m/Libraries/XMCLib/inc\xmc_vadc.h **** {
 658:C:/Workspace/DAVE-4.4.2-64Bit/xmc1400-getstarted-optiga-trust-m/Libraries/XMCLib/inc\xmc_vadc.h ****     XMC_VADC_GROUP_RS_PRIORITY_0 = 0, /**< Lowest priority for the request source*/
 659:C:/Workspace/DAVE-4.4.2-64Bit/xmc1400-getstarted-optiga-trust-m/Libraries/XMCLib/inc\xmc_vadc.h ****     XMC_VADC_GROUP_RS_PRIORITY_1,     /**< Second lowest priority for the request source*/
 660:C:/Workspace/DAVE-4.4.2-64Bit/xmc1400-getstarted-optiga-trust-m/Libraries/XMCLib/inc\xmc_vadc.h ****     XMC_VADC_GROUP_RS_PRIORITY_2,     /**< Second highest priority for the request source*/
 661:C:/Workspace/DAVE-4.4.2-64Bit/xmc1400-getstarted-optiga-trust-m/Libraries/XMCLib/inc\xmc_vadc.h ****     XMC_VADC_GROUP_RS_PRIORITY_3,     /**< Highest priority for the request source*/
 662:C:/Workspace/DAVE-4.4.2-64Bit/xmc1400-getstarted-optiga-trust-m/Libraries/XMCLib/inc\xmc_vadc.h **** }XMC_VADC_GROUP_RS_PRIORITY_t;
 663:C:/Workspace/DAVE-4.4.2-64Bit/xmc1400-getstarted-optiga-trust-m/Libraries/XMCLib/inc\xmc_vadc.h **** 
 664:C:/Workspace/DAVE-4.4.2-64Bit/xmc1400-getstarted-optiga-trust-m/Libraries/XMCLib/inc\xmc_vadc.h **** /**
 665:C:/Workspace/DAVE-4.4.2-64Bit/xmc1400-getstarted-optiga-trust-m/Libraries/XMCLib/inc\xmc_vadc.h ****  *  Defines the various modes for the boundary flag. Use @ref XMC_VADC_GROUP_BOUNDARY_FLAG_MODE_t f
 666:C:/Workspace/DAVE-4.4.2-64Bit/xmc1400-getstarted-optiga-trust-m/Libraries/XMCLib/inc\xmc_vadc.h ****  */
 667:C:/Workspace/DAVE-4.4.2-64Bit/xmc1400-getstarted-optiga-trust-m/Libraries/XMCLib/inc\xmc_vadc.h **** typedef enum XMC_VADC_GROUP_BOUNDARY_FLAG_MODE
 668:C:/Workspace/DAVE-4.4.2-64Bit/xmc1400-getstarted-optiga-trust-m/Libraries/XMCLib/inc\xmc_vadc.h **** {
 669:C:/Workspace/DAVE-4.4.2-64Bit/xmc1400-getstarted-optiga-trust-m/Libraries/XMCLib/inc\xmc_vadc.h ****     XMC_VADC_GROUP_BOUNDARY_FLAG_MODE_DISABLED = 0,       /**< Disable boundary flag*/
 670:C:/Workspace/DAVE-4.4.2-64Bit/xmc1400-getstarted-optiga-trust-m/Libraries/XMCLib/inc\xmc_vadc.h ****     XMC_VADC_GROUP_BOUNDARY_FLAG_MODE_ENABLED,            /**< Always enable boundary*/
 671:C:/Workspace/DAVE-4.4.2-64Bit/xmc1400-getstarted-optiga-trust-m/Libraries/XMCLib/inc\xmc_vadc.h ****     XMC_VADC_GROUP_BOUNDARY_FLAG_MODE_ENABLED_ACTIVE_LOW, /**< Enable boundary flag when gate level
 672:C:/Workspace/DAVE-4.4.2-64Bit/xmc1400-getstarted-optiga-trust-m/Libraries/XMCLib/inc\xmc_vadc.h ****     XMC_VADC_GROUP_BOUNDARY_FLAG_MODE_ENABLED_ACTIVE_HIGH /**< Enable boundary flag when gate level
 673:C:/Workspace/DAVE-4.4.2-64Bit/xmc1400-getstarted-optiga-trust-m/Libraries/XMCLib/inc\xmc_vadc.h **** }XMC_VADC_GROUP_BOUNDARY_FLAG_MODE_t;
 674:C:/Workspace/DAVE-4.4.2-64Bit/xmc1400-getstarted-optiga-trust-m/Libraries/XMCLib/inc\xmc_vadc.h **** 
 675:C:/Workspace/DAVE-4.4.2-64Bit/xmc1400-getstarted-optiga-trust-m/Libraries/XMCLib/inc\xmc_vadc.h **** 
 676:C:/Workspace/DAVE-4.4.2-64Bit/xmc1400-getstarted-optiga-trust-m/Libraries/XMCLib/inc\xmc_vadc.h **** /**
 677:C:/Workspace/DAVE-4.4.2-64Bit/xmc1400-getstarted-optiga-trust-m/Libraries/XMCLib/inc\xmc_vadc.h ****  *  Defines the boundary select for Channel. Use @ref XMC_VADC_GROUP_BOUNDARY_FLAG_MODE_t for this 
 678:C:/Workspace/DAVE-4.4.2-64Bit/xmc1400-getstarted-optiga-trust-m/Libraries/XMCLib/inc\xmc_vadc.h ****  */
 679:C:/Workspace/DAVE-4.4.2-64Bit/xmc1400-getstarted-optiga-trust-m/Libraries/XMCLib/inc\xmc_vadc.h **** typedef enum XMC_VADC_BOUNDARY_SELECT
 680:C:/Workspace/DAVE-4.4.2-64Bit/xmc1400-getstarted-optiga-trust-m/Libraries/XMCLib/inc\xmc_vadc.h **** {
 681:C:/Workspace/DAVE-4.4.2-64Bit/xmc1400-getstarted-optiga-trust-m/Libraries/XMCLib/inc\xmc_vadc.h ****   XMC_VADC_BOUNDARY_SELECT_LOWER_BOUND = 0U,       /**< Select the lower boundary*/
 682:C:/Workspace/DAVE-4.4.2-64Bit/xmc1400-getstarted-optiga-trust-m/Libraries/XMCLib/inc\xmc_vadc.h ****   XMC_VADC_BOUNDARY_SELECT_UPPER_BOUND = 2U        /**< Selects the upper boundary*/
 683:C:/Workspace/DAVE-4.4.2-64Bit/xmc1400-getstarted-optiga-trust-m/Libraries/XMCLib/inc\xmc_vadc.h **** }XMC_VADC_BOUNDARY_SELECT_t;
 684:C:/Workspace/DAVE-4.4.2-64Bit/xmc1400-getstarted-optiga-trust-m/Libraries/XMCLib/inc\xmc_vadc.h **** 
 685:C:/Workspace/DAVE-4.4.2-64Bit/xmc1400-getstarted-optiga-trust-m/Libraries/XMCLib/inc\xmc_vadc.h **** 
 686:C:/Workspace/DAVE-4.4.2-64Bit/xmc1400-getstarted-optiga-trust-m/Libraries/XMCLib/inc\xmc_vadc.h **** /**
 687:C:/Workspace/DAVE-4.4.2-64Bit/xmc1400-getstarted-optiga-trust-m/Libraries/XMCLib/inc\xmc_vadc.h ****  * Defines the group indices. Use @ref XMC_VADC_GROUP_INDEX_t for this enumeration.
 688:C:/Workspace/DAVE-4.4.2-64Bit/xmc1400-getstarted-optiga-trust-m/Libraries/XMCLib/inc\xmc_vadc.h ****  */
 689:C:/Workspace/DAVE-4.4.2-64Bit/xmc1400-getstarted-optiga-trust-m/Libraries/XMCLib/inc\xmc_vadc.h **** typedef enum XMC_VADC_GROUP_INDEX
 690:C:/Workspace/DAVE-4.4.2-64Bit/xmc1400-getstarted-optiga-trust-m/Libraries/XMCLib/inc\xmc_vadc.h **** {
 691:C:/Workspace/DAVE-4.4.2-64Bit/xmc1400-getstarted-optiga-trust-m/Libraries/XMCLib/inc\xmc_vadc.h ****     XMC_VADC_GROUP_INDEX_0   = 0,
 692:C:/Workspace/DAVE-4.4.2-64Bit/xmc1400-getstarted-optiga-trust-m/Libraries/XMCLib/inc\xmc_vadc.h ****     XMC_VADC_GROUP_INDEX_1,
 693:C:/Workspace/DAVE-4.4.2-64Bit/xmc1400-getstarted-optiga-trust-m/Libraries/XMCLib/inc\xmc_vadc.h **** #if (XMC_VADC_MAXIMUM_NUM_GROUPS > 2U)
 694:C:/Workspace/DAVE-4.4.2-64Bit/xmc1400-getstarted-optiga-trust-m/Libraries/XMCLib/inc\xmc_vadc.h ****     XMC_VADC_GROUP_INDEX_2,
 695:C:/Workspace/DAVE-4.4.2-64Bit/xmc1400-getstarted-optiga-trust-m/Libraries/XMCLib/inc\xmc_vadc.h ****     XMC_VADC_GROUP_INDEX_3
 696:C:/Workspace/DAVE-4.4.2-64Bit/xmc1400-getstarted-optiga-trust-m/Libraries/XMCLib/inc\xmc_vadc.h **** #endif
 697:C:/Workspace/DAVE-4.4.2-64Bit/xmc1400-getstarted-optiga-trust-m/Libraries/XMCLib/inc\xmc_vadc.h **** }XMC_VADC_GROUP_INDEX_t;
 698:C:/Workspace/DAVE-4.4.2-64Bit/xmc1400-getstarted-optiga-trust-m/Libraries/XMCLib/inc\xmc_vadc.h **** 
 699:C:/Workspace/DAVE-4.4.2-64Bit/xmc1400-getstarted-optiga-trust-m/Libraries/XMCLib/inc\xmc_vadc.h **** /**
 700:C:/Workspace/DAVE-4.4.2-64Bit/xmc1400-getstarted-optiga-trust-m/Libraries/XMCLib/inc\xmc_vadc.h **** * Defines channel alias.
 701:C:/Workspace/DAVE-4.4.2-64Bit/xmc1400-getstarted-optiga-trust-m/Libraries/XMCLib/inc\xmc_vadc.h **** * All enum items are available for channels 0 and 1. Other Channels can accept only XMC_VADC_CHANNE
 702:C:/Workspace/DAVE-4.4.2-64Bit/xmc1400-getstarted-optiga-trust-m/Libraries/XMCLib/inc\xmc_vadc.h **** */
 703:C:/Workspace/DAVE-4.4.2-64Bit/xmc1400-getstarted-optiga-trust-m/Libraries/XMCLib/inc\xmc_vadc.h **** typedef enum XMC_VADC_CHANNEL_ALIAS
 704:C:/Workspace/DAVE-4.4.2-64Bit/xmc1400-getstarted-optiga-trust-m/Libraries/XMCLib/inc\xmc_vadc.h **** {
 705:C:/Workspace/DAVE-4.4.2-64Bit/xmc1400-getstarted-optiga-trust-m/Libraries/XMCLib/inc\xmc_vadc.h ****   XMC_VADC_CHANNEL_ALIAS_DISABLED = -1,
 706:C:/Workspace/DAVE-4.4.2-64Bit/xmc1400-getstarted-optiga-trust-m/Libraries/XMCLib/inc\xmc_vadc.h ****   XMC_VADC_CHANNEL_ALIAS_CH0 = 0,
 707:C:/Workspace/DAVE-4.4.2-64Bit/xmc1400-getstarted-optiga-trust-m/Libraries/XMCLib/inc\xmc_vadc.h ****   XMC_VADC_CHANNEL_ALIAS_CH1 = 1,
 708:C:/Workspace/DAVE-4.4.2-64Bit/xmc1400-getstarted-optiga-trust-m/Libraries/XMCLib/inc\xmc_vadc.h ****   XMC_VADC_CHANNEL_ALIAS_CH2 = 2,
 709:C:/Workspace/DAVE-4.4.2-64Bit/xmc1400-getstarted-optiga-trust-m/Libraries/XMCLib/inc\xmc_vadc.h ****   XMC_VADC_CHANNEL_ALIAS_CH3 = 3,
 710:C:/Workspace/DAVE-4.4.2-64Bit/xmc1400-getstarted-optiga-trust-m/Libraries/XMCLib/inc\xmc_vadc.h ****   XMC_VADC_CHANNEL_ALIAS_CH4 = 4,
 711:C:/Workspace/DAVE-4.4.2-64Bit/xmc1400-getstarted-optiga-trust-m/Libraries/XMCLib/inc\xmc_vadc.h ****   XMC_VADC_CHANNEL_ALIAS_CH5 = 5,
 712:C:/Workspace/DAVE-4.4.2-64Bit/xmc1400-getstarted-optiga-trust-m/Libraries/XMCLib/inc\xmc_vadc.h ****   XMC_VADC_CHANNEL_ALIAS_CH6 = 6,
 713:C:/Workspace/DAVE-4.4.2-64Bit/xmc1400-getstarted-optiga-trust-m/Libraries/XMCLib/inc\xmc_vadc.h ****   XMC_VADC_CHANNEL_ALIAS_CH7 = 7
 714:C:/Workspace/DAVE-4.4.2-64Bit/xmc1400-getstarted-optiga-trust-m/Libraries/XMCLib/inc\xmc_vadc.h **** } XMC_VADC_CHANNEL_ALIAS_t;
 715:C:/Workspace/DAVE-4.4.2-64Bit/xmc1400-getstarted-optiga-trust-m/Libraries/XMCLib/inc\xmc_vadc.h **** 
 716:C:/Workspace/DAVE-4.4.2-64Bit/xmc1400-getstarted-optiga-trust-m/Libraries/XMCLib/inc\xmc_vadc.h **** #if(XMC_VADC_SHS_AVAILABLE == 1U)
 717:C:/Workspace/DAVE-4.4.2-64Bit/xmc1400-getstarted-optiga-trust-m/Libraries/XMCLib/inc\xmc_vadc.h **** 
 718:C:/Workspace/DAVE-4.4.2-64Bit/xmc1400-getstarted-optiga-trust-m/Libraries/XMCLib/inc\xmc_vadc.h **** /**
 719:C:/Workspace/DAVE-4.4.2-64Bit/xmc1400-getstarted-optiga-trust-m/Libraries/XMCLib/inc\xmc_vadc.h ****  * Selection of the reference voltage that is required for conversions (VREF).
 720:C:/Workspace/DAVE-4.4.2-64Bit/xmc1400-getstarted-optiga-trust-m/Libraries/XMCLib/inc\xmc_vadc.h ****  */
 721:C:/Workspace/DAVE-4.4.2-64Bit/xmc1400-getstarted-optiga-trust-m/Libraries/XMCLib/inc\xmc_vadc.h **** typedef enum XMC_VADC_GLOBAL_SHS_AREF
 722:C:/Workspace/DAVE-4.4.2-64Bit/xmc1400-getstarted-optiga-trust-m/Libraries/XMCLib/inc\xmc_vadc.h **** {
 723:C:/Workspace/DAVE-4.4.2-64Bit/xmc1400-getstarted-optiga-trust-m/Libraries/XMCLib/inc\xmc_vadc.h ****   XMC_VADC_GLOBAL_SHS_AREF_EXTERNAL_VDD_UPPER_RANGE = 0 << SHS_SHSCFG_AREF_Pos, /**< External refer
 724:C:/Workspace/DAVE-4.4.2-64Bit/xmc1400-getstarted-optiga-trust-m/Libraries/XMCLib/inc\xmc_vadc.h ****   XMC_VADC_GLOBAL_SHS_AREF_INTERNAL_VDD_UPPER_RANGE = 2 << SHS_SHSCFG_AREF_Pos, /**< Internal refer
 725:C:/Workspace/DAVE-4.4.2-64Bit/xmc1400-getstarted-optiga-trust-m/Libraries/XMCLib/inc\xmc_vadc.h ****   XMC_VADC_GLOBAL_SHS_AREF_INTERNAL_VDD_LOWER_RANGE = 3 << SHS_SHSCFG_AREF_Pos, /**< Internal refer
 726:C:/Workspace/DAVE-4.4.2-64Bit/xmc1400-getstarted-optiga-trust-m/Libraries/XMCLib/inc\xmc_vadc.h **** } XMC_VADC_GLOBAL_SHS_AREF_t;
 727:C:/Workspace/DAVE-4.4.2-64Bit/xmc1400-getstarted-optiga-trust-m/Libraries/XMCLib/inc\xmc_vadc.h **** 
 728:C:/Workspace/DAVE-4.4.2-64Bit/xmc1400-getstarted-optiga-trust-m/Libraries/XMCLib/inc\xmc_vadc.h **** #if(XMC_VADC_SHS_FULL_SET_REG == 1U)
 729:C:/Workspace/DAVE-4.4.2-64Bit/xmc1400-getstarted-optiga-trust-m/Libraries/XMCLib/inc\xmc_vadc.h **** /**
 730:C:/Workspace/DAVE-4.4.2-64Bit/xmc1400-getstarted-optiga-trust-m/Libraries/XMCLib/inc\xmc_vadc.h ****  * Defines the gain calibration selection.
 731:C:/Workspace/DAVE-4.4.2-64Bit/xmc1400-getstarted-optiga-trust-m/Libraries/XMCLib/inc\xmc_vadc.h ****  */
 732:C:/Workspace/DAVE-4.4.2-64Bit/xmc1400-getstarted-optiga-trust-m/Libraries/XMCLib/inc\xmc_vadc.h **** typedef enum XMC_VADC_SHS_GAIN_LEVEL
 733:C:/Workspace/DAVE-4.4.2-64Bit/xmc1400-getstarted-optiga-trust-m/Libraries/XMCLib/inc\xmc_vadc.h **** {
 734:C:/Workspace/DAVE-4.4.2-64Bit/xmc1400-getstarted-optiga-trust-m/Libraries/XMCLib/inc\xmc_vadc.h ****   XMC_VADC_SHS_GAIN_LEVEL_0 = SHS_CALOC0_CALOFFVAL0_Pos, /**< Select the calibration value for gain
 735:C:/Workspace/DAVE-4.4.2-64Bit/xmc1400-getstarted-optiga-trust-m/Libraries/XMCLib/inc\xmc_vadc.h ****   XMC_VADC_SHS_GAIN_LEVEL_1 = SHS_CALOC0_CALOFFVAL1_Pos, /**< Select the calibration value for gain
 736:C:/Workspace/DAVE-4.4.2-64Bit/xmc1400-getstarted-optiga-trust-m/Libraries/XMCLib/inc\xmc_vadc.h ****   XMC_VADC_SHS_GAIN_LEVEL_2 = SHS_CALOC0_CALOFFVAL2_Pos, /**< Select the calibration value for gain
 737:C:/Workspace/DAVE-4.4.2-64Bit/xmc1400-getstarted-optiga-trust-m/Libraries/XMCLib/inc\xmc_vadc.h ****   XMC_VADC_SHS_GAIN_LEVEL_3 = SHS_CALOC0_CALOFFVAL3_Pos  /**< Select the calibration value for gain
 738:C:/Workspace/DAVE-4.4.2-64Bit/xmc1400-getstarted-optiga-trust-m/Libraries/XMCLib/inc\xmc_vadc.h **** }XMC_VADC_SHS_GAIN_LEVEL_t;
 739:C:/Workspace/DAVE-4.4.2-64Bit/xmc1400-getstarted-optiga-trust-m/Libraries/XMCLib/inc\xmc_vadc.h **** #endif
 740:C:/Workspace/DAVE-4.4.2-64Bit/xmc1400-getstarted-optiga-trust-m/Libraries/XMCLib/inc\xmc_vadc.h **** 
 741:C:/Workspace/DAVE-4.4.2-64Bit/xmc1400-getstarted-optiga-trust-m/Libraries/XMCLib/inc\xmc_vadc.h **** /**
 742:C:/Workspace/DAVE-4.4.2-64Bit/xmc1400-getstarted-optiga-trust-m/Libraries/XMCLib/inc\xmc_vadc.h ****  * Defines the Delta sigma loop.
 743:C:/Workspace/DAVE-4.4.2-64Bit/xmc1400-getstarted-optiga-trust-m/Libraries/XMCLib/inc\xmc_vadc.h ****  */
 744:C:/Workspace/DAVE-4.4.2-64Bit/xmc1400-getstarted-optiga-trust-m/Libraries/XMCLib/inc\xmc_vadc.h **** typedef enum XMC_VADC_SHS_LOOP_CH
 745:C:/Workspace/DAVE-4.4.2-64Bit/xmc1400-getstarted-optiga-trust-m/Libraries/XMCLib/inc\xmc_vadc.h **** {
 746:C:/Workspace/DAVE-4.4.2-64Bit/xmc1400-getstarted-optiga-trust-m/Libraries/XMCLib/inc\xmc_vadc.h ****   XMC_VADC_SHS_LOOP_CH_0 = SHS_LOOP_LPCH0_Pos, /**< Select Delta-sigma loop 0*/
 747:C:/Workspace/DAVE-4.4.2-64Bit/xmc1400-getstarted-optiga-trust-m/Libraries/XMCLib/inc\xmc_vadc.h ****   XMC_VADC_SHS_LOOP_CH_1 = SHS_LOOP_LPCH1_Pos /**< Select Delta-sigma loop 1*/
 748:C:/Workspace/DAVE-4.4.2-64Bit/xmc1400-getstarted-optiga-trust-m/Libraries/XMCLib/inc\xmc_vadc.h **** }XMC_VADC_SHS_LOOP_CH_t;
 749:C:/Workspace/DAVE-4.4.2-64Bit/xmc1400-getstarted-optiga-trust-m/Libraries/XMCLib/inc\xmc_vadc.h **** 
 750:C:/Workspace/DAVE-4.4.2-64Bit/xmc1400-getstarted-optiga-trust-m/Libraries/XMCLib/inc\xmc_vadc.h **** /**
 751:C:/Workspace/DAVE-4.4.2-64Bit/xmc1400-getstarted-optiga-trust-m/Libraries/XMCLib/inc\xmc_vadc.h ****  * Provides the order in which the SHS should do the calibration
 752:C:/Workspace/DAVE-4.4.2-64Bit/xmc1400-getstarted-optiga-trust-m/Libraries/XMCLib/inc\xmc_vadc.h ****  */
 753:C:/Workspace/DAVE-4.4.2-64Bit/xmc1400-getstarted-optiga-trust-m/Libraries/XMCLib/inc\xmc_vadc.h **** typedef enum XMC_VADC_GLOBAL_SHS_CALIBRATION_ORDER
 754:C:/Workspace/DAVE-4.4.2-64Bit/xmc1400-getstarted-optiga-trust-m/Libraries/XMCLib/inc\xmc_vadc.h **** {
 755:C:/Workspace/DAVE-4.4.2-64Bit/xmc1400-getstarted-optiga-trust-m/Libraries/XMCLib/inc\xmc_vadc.h ****   XMC_VADC_GLOBAL_SHS_CALIBRATION_ORDER_POST_CONV = 0, /**< Calibration occur after conversion take
 756:C:/Workspace/DAVE-4.4.2-64Bit/xmc1400-getstarted-optiga-trust-m/Libraries/XMCLib/inc\xmc_vadc.h ****   XMC_VADC_GLOBAL_SHS_CALIBRATION_ORDER_PRE_CONV   /**< Calibration occur before conversion takes p
 757:C:/Workspace/DAVE-4.4.2-64Bit/xmc1400-getstarted-optiga-trust-m/Libraries/XMCLib/inc\xmc_vadc.h **** }XMC_VADC_GLOBAL_SHS_CALIBRATION_ORDER_t;
 758:C:/Workspace/DAVE-4.4.2-64Bit/xmc1400-getstarted-optiga-trust-m/Libraries/XMCLib/inc\xmc_vadc.h **** #endif
 759:C:/Workspace/DAVE-4.4.2-64Bit/xmc1400-getstarted-optiga-trust-m/Libraries/XMCLib/inc\xmc_vadc.h **** 
 760:C:/Workspace/DAVE-4.4.2-64Bit/xmc1400-getstarted-optiga-trust-m/Libraries/XMCLib/inc\xmc_vadc.h **** #if (XMC_VADC_BOUNDARY_FLAG_SELECT == 1U)
 761:C:/Workspace/DAVE-4.4.2-64Bit/xmc1400-getstarted-optiga-trust-m/Libraries/XMCLib/inc\xmc_vadc.h **** /**
 762:C:/Workspace/DAVE-4.4.2-64Bit/xmc1400-getstarted-optiga-trust-m/Libraries/XMCLib/inc\xmc_vadc.h ****  * Provides possible routing values for the boundary flag.
 763:C:/Workspace/DAVE-4.4.2-64Bit/xmc1400-getstarted-optiga-trust-m/Libraries/XMCLib/inc\xmc_vadc.h ****  */
 764:C:/Workspace/DAVE-4.4.2-64Bit/xmc1400-getstarted-optiga-trust-m/Libraries/XMCLib/inc\xmc_vadc.h **** typedef enum XMC_VADC_BOUNDARY_NODE
 765:C:/Workspace/DAVE-4.4.2-64Bit/xmc1400-getstarted-optiga-trust-m/Libraries/XMCLib/inc\xmc_vadc.h **** {
 766:C:/Workspace/DAVE-4.4.2-64Bit/xmc1400-getstarted-optiga-trust-m/Libraries/XMCLib/inc\xmc_vadc.h ****   XMC_VADC_BOUNDARY_NODE_COMMON_BOUNDARY_FLAG_0 = 0U, /**<Route the Group boundary flag to Common b
 767:C:/Workspace/DAVE-4.4.2-64Bit/xmc1400-getstarted-optiga-trust-m/Libraries/XMCLib/inc\xmc_vadc.h ****   XMC_VADC_BOUNDARY_NODE_COMMON_BOUNDARY_FLAG_1,      /**<Route the Group boundary flag to Common b
 768:C:/Workspace/DAVE-4.4.2-64Bit/xmc1400-getstarted-optiga-trust-m/Libraries/XMCLib/inc\xmc_vadc.h ****   XMC_VADC_BOUNDARY_NODE_COMMON_BOUNDARY_FLAG_2,      /**<Route the Group boundary flag to Common b
 769:C:/Workspace/DAVE-4.4.2-64Bit/xmc1400-getstarted-optiga-trust-m/Libraries/XMCLib/inc\xmc_vadc.h ****   XMC_VADC_BOUNDARY_NODE_COMMON_BOUNDARY_FLAG_3,      /**<Route the Group boundary flag to Common b
 770:C:/Workspace/DAVE-4.4.2-64Bit/xmc1400-getstarted-optiga-trust-m/Libraries/XMCLib/inc\xmc_vadc.h ****   XMC_VADC_BOUNDARY_NODE_COMMON_SR_LINE_0,  /**<Route the Group boundary flag to Common Service Req
 771:C:/Workspace/DAVE-4.4.2-64Bit/xmc1400-getstarted-optiga-trust-m/Libraries/XMCLib/inc\xmc_vadc.h ****   XMC_VADC_BOUNDARY_NODE_COMMON_SR_LINE_1,  /**<Route the Group boundary flag to Common Service Req
 772:C:/Workspace/DAVE-4.4.2-64Bit/xmc1400-getstarted-optiga-trust-m/Libraries/XMCLib/inc\xmc_vadc.h ****   XMC_VADC_BOUNDARY_NODE_COMMON_SR_LINE_2,  /**<Route the Group boundary flag to Common Service Req
 773:C:/Workspace/DAVE-4.4.2-64Bit/xmc1400-getstarted-optiga-trust-m/Libraries/XMCLib/inc\xmc_vadc.h ****   XMC_VADC_BOUNDARY_NODE_COMMON_SR_LINE_3   /**<Route the Group boundary flag to Common Service Req
 774:C:/Workspace/DAVE-4.4.2-64Bit/xmc1400-getstarted-optiga-trust-m/Libraries/XMCLib/inc\xmc_vadc.h **** }XMC_VADC_BOUNDARY_NODE_t;
 775:C:/Workspace/DAVE-4.4.2-64Bit/xmc1400-getstarted-optiga-trust-m/Libraries/XMCLib/inc\xmc_vadc.h **** #endif
 776:C:/Workspace/DAVE-4.4.2-64Bit/xmc1400-getstarted-optiga-trust-m/Libraries/XMCLib/inc\xmc_vadc.h **** 
 777:C:/Workspace/DAVE-4.4.2-64Bit/xmc1400-getstarted-optiga-trust-m/Libraries/XMCLib/inc\xmc_vadc.h **** #if (XMC_VADC_GROUP_AVAILABLE == 1U)
 778:C:/Workspace/DAVE-4.4.2-64Bit/xmc1400-getstarted-optiga-trust-m/Libraries/XMCLib/inc\xmc_vadc.h **** /**
 779:C:/Workspace/DAVE-4.4.2-64Bit/xmc1400-getstarted-optiga-trust-m/Libraries/XMCLib/inc\xmc_vadc.h ****  * Defines the ready signal selection
 780:C:/Workspace/DAVE-4.4.2-64Bit/xmc1400-getstarted-optiga-trust-m/Libraries/XMCLib/inc\xmc_vadc.h ****  */
 781:C:/Workspace/DAVE-4.4.2-64Bit/xmc1400-getstarted-optiga-trust-m/Libraries/XMCLib/inc\xmc_vadc.h **** typedef enum XMC_VADC_SYNCTR_EVAL
 782:C:/Workspace/DAVE-4.4.2-64Bit/xmc1400-getstarted-optiga-trust-m/Libraries/XMCLib/inc\xmc_vadc.h **** {
 783:C:/Workspace/DAVE-4.4.2-64Bit/xmc1400-getstarted-optiga-trust-m/Libraries/XMCLib/inc\xmc_vadc.h ****   XMC_VADC_SYNCTR_EVAL_1 = VADC_G_SYNCTR_EVALR1_Msk, /**<Mask to set the EVAL1 bits of SYNCTR */
 784:C:/Workspace/DAVE-4.4.2-64Bit/xmc1400-getstarted-optiga-trust-m/Libraries/XMCLib/inc\xmc_vadc.h **** #if (XMC_VADC_MAXIMUM_NUM_GROUPS > 2U)
 785:C:/Workspace/DAVE-4.4.2-64Bit/xmc1400-getstarted-optiga-trust-m/Libraries/XMCLib/inc\xmc_vadc.h ****   XMC_VADC_SYNCTR_EVAL_2 = VADC_G_SYNCTR_EVALR2_Msk, /**<Mask to set the EVAL2 bits of SYNCTR */
 786:C:/Workspace/DAVE-4.4.2-64Bit/xmc1400-getstarted-optiga-trust-m/Libraries/XMCLib/inc\xmc_vadc.h ****   XMC_VADC_SYNCTR_EVAL_3 = VADC_G_SYNCTR_EVALR3_Msk  /**<Mask to set the EVAL3 bits of SYNCTR */
 787:C:/Workspace/DAVE-4.4.2-64Bit/xmc1400-getstarted-optiga-trust-m/Libraries/XMCLib/inc\xmc_vadc.h **** #endif
 788:C:/Workspace/DAVE-4.4.2-64Bit/xmc1400-getstarted-optiga-trust-m/Libraries/XMCLib/inc\xmc_vadc.h **** }XMC_VADC_SYNCTR_EVAL_t;
 789:C:/Workspace/DAVE-4.4.2-64Bit/xmc1400-getstarted-optiga-trust-m/Libraries/XMCLib/inc\xmc_vadc.h **** #endif
 790:C:/Workspace/DAVE-4.4.2-64Bit/xmc1400-getstarted-optiga-trust-m/Libraries/XMCLib/inc\xmc_vadc.h **** /**************************************************************************************************
 791:C:/Workspace/DAVE-4.4.2-64Bit/xmc1400-getstarted-optiga-trust-m/Libraries/XMCLib/inc\xmc_vadc.h ****  * DATA STRUCTURES
 792:C:/Workspace/DAVE-4.4.2-64Bit/xmc1400-getstarted-optiga-trust-m/Libraries/XMCLib/inc\xmc_vadc.h ****  **************************************************************************************************
 793:C:/Workspace/DAVE-4.4.2-64Bit/xmc1400-getstarted-optiga-trust-m/Libraries/XMCLib/inc\xmc_vadc.h **** /*Anonymous structure/union guard start*/
 794:C:/Workspace/DAVE-4.4.2-64Bit/xmc1400-getstarted-optiga-trust-m/Libraries/XMCLib/inc\xmc_vadc.h **** #if defined(__CC_ARM)
 795:C:/Workspace/DAVE-4.4.2-64Bit/xmc1400-getstarted-optiga-trust-m/Libraries/XMCLib/inc\xmc_vadc.h ****   #pragma push
 796:C:/Workspace/DAVE-4.4.2-64Bit/xmc1400-getstarted-optiga-trust-m/Libraries/XMCLib/inc\xmc_vadc.h ****   #pragma anon_unions
 797:C:/Workspace/DAVE-4.4.2-64Bit/xmc1400-getstarted-optiga-trust-m/Libraries/XMCLib/inc\xmc_vadc.h **** #elif defined(__TASKING__)
 798:C:/Workspace/DAVE-4.4.2-64Bit/xmc1400-getstarted-optiga-trust-m/Libraries/XMCLib/inc\xmc_vadc.h ****   #pragma warning 586
 799:C:/Workspace/DAVE-4.4.2-64Bit/xmc1400-getstarted-optiga-trust-m/Libraries/XMCLib/inc\xmc_vadc.h **** #endif
 800:C:/Workspace/DAVE-4.4.2-64Bit/xmc1400-getstarted-optiga-trust-m/Libraries/XMCLib/inc\xmc_vadc.h **** 
 801:C:/Workspace/DAVE-4.4.2-64Bit/xmc1400-getstarted-optiga-trust-m/Libraries/XMCLib/inc\xmc_vadc.h **** /**
 802:C:/Workspace/DAVE-4.4.2-64Bit/xmc1400-getstarted-optiga-trust-m/Libraries/XMCLib/inc\xmc_vadc.h ****  *  Structure initializing the VADC scan request source. Use type @ref XMC_VADC_SCAN_CONFIG_t for t
 803:C:/Workspace/DAVE-4.4.2-64Bit/xmc1400-getstarted-optiga-trust-m/Libraries/XMCLib/inc\xmc_vadc.h ****  */
 804:C:/Workspace/DAVE-4.4.2-64Bit/xmc1400-getstarted-optiga-trust-m/Libraries/XMCLib/inc\xmc_vadc.h **** typedef struct XMC_VADC_SCAN_CONFIG
 805:C:/Workspace/DAVE-4.4.2-64Bit/xmc1400-getstarted-optiga-trust-m/Libraries/XMCLib/inc\xmc_vadc.h **** {
 806:C:/Workspace/DAVE-4.4.2-64Bit/xmc1400-getstarted-optiga-trust-m/Libraries/XMCLib/inc\xmc_vadc.h ****     uint32_t conv_start_mode  : 2;  /**< One converter is shared between the queue and scan request
 807:C:/Workspace/DAVE-4.4.2-64Bit/xmc1400-getstarted-optiga-trust-m/Libraries/XMCLib/inc\xmc_vadc.h ****                                          group. This field determines how scan request source would
 808:C:/Workspace/DAVE-4.4.2-64Bit/xmc1400-getstarted-optiga-trust-m/Libraries/XMCLib/inc\xmc_vadc.h ****                                          conversion. Uses @ref XMC_VADC_STARTMODE_t */
 809:C:/Workspace/DAVE-4.4.2-64Bit/xmc1400-getstarted-optiga-trust-m/Libraries/XMCLib/inc\xmc_vadc.h ****     uint32_t req_src_priority : 2;  /**< Request source priority for the arbiter. If the Conversion
 810:C:/Workspace/DAVE-4.4.2-64Bit/xmc1400-getstarted-optiga-trust-m/Libraries/XMCLib/inc\xmc_vadc.h ****                                          selected as Cancel inject repeat/Never mode then this fiel
 811:C:/Workspace/DAVE-4.4.2-64Bit/xmc1400-getstarted-optiga-trust-m/Libraries/XMCLib/inc\xmc_vadc.h ****                                          priority of scan request source. Uses @ref XMC_VADC_GROUP_
 812:C:/Workspace/DAVE-4.4.2-64Bit/xmc1400-getstarted-optiga-trust-m/Libraries/XMCLib/inc\xmc_vadc.h ****     union
 813:C:/Workspace/DAVE-4.4.2-64Bit/xmc1400-getstarted-optiga-trust-m/Libraries/XMCLib/inc\xmc_vadc.h ****     {
 814:C:/Workspace/DAVE-4.4.2-64Bit/xmc1400-getstarted-optiga-trust-m/Libraries/XMCLib/inc\xmc_vadc.h ****        struct
 815:C:/Workspace/DAVE-4.4.2-64Bit/xmc1400-getstarted-optiga-trust-m/Libraries/XMCLib/inc\xmc_vadc.h ****        {
 816:C:/Workspace/DAVE-4.4.2-64Bit/xmc1400-getstarted-optiga-trust-m/Libraries/XMCLib/inc\xmc_vadc.h **** #if(XMC_VADC_GROUP_SRCREG_AVAILABLE == (1U))
 817:C:/Workspace/DAVE-4.4.2-64Bit/xmc1400-getstarted-optiga-trust-m/Libraries/XMCLib/inc\xmc_vadc.h ****           uint32_t src_specific_result_reg : 4;  /**< Use any one Group related result register as 
 818:C:/Workspace/DAVE-4.4.2-64Bit/xmc1400-getstarted-optiga-trust-m/Libraries/XMCLib/inc\xmc_vadc.h ****                                                     for all conversions results. To use the  indivi
 819:C:/Workspace/DAVE-4.4.2-64Bit/xmc1400-getstarted-optiga-trust-m/Libraries/XMCLib/inc\xmc_vadc.h ****                                                     from each channel configuration, configure this
 820:C:/Workspace/DAVE-4.4.2-64Bit/xmc1400-getstarted-optiga-trust-m/Libraries/XMCLib/inc\xmc_vadc.h **** #else
 821:C:/Workspace/DAVE-4.4.2-64Bit/xmc1400-getstarted-optiga-trust-m/Libraries/XMCLib/inc\xmc_vadc.h ****           uint32_t                         : 4;
 822:C:/Workspace/DAVE-4.4.2-64Bit/xmc1400-getstarted-optiga-trust-m/Libraries/XMCLib/inc\xmc_vadc.h **** #endif
 823:C:/Workspace/DAVE-4.4.2-64Bit/xmc1400-getstarted-optiga-trust-m/Libraries/XMCLib/inc\xmc_vadc.h ****           uint32_t                         : 4;
 824:C:/Workspace/DAVE-4.4.2-64Bit/xmc1400-getstarted-optiga-trust-m/Libraries/XMCLib/inc\xmc_vadc.h ****           uint32_t trigger_signal          : 4;  /**< Select one of the 16 possibilities for trigge
 825:C:/Workspace/DAVE-4.4.2-64Bit/xmc1400-getstarted-optiga-trust-m/Libraries/XMCLib/inc\xmc_vadc.h ****                                                       XMC_VADC_TRIGGER_INPUT_SELECT_t enumeration*/
 826:C:/Workspace/DAVE-4.4.2-64Bit/xmc1400-getstarted-optiga-trust-m/Libraries/XMCLib/inc\xmc_vadc.h ****           uint32_t                         : 1;
 827:C:/Workspace/DAVE-4.4.2-64Bit/xmc1400-getstarted-optiga-trust-m/Libraries/XMCLib/inc\xmc_vadc.h ****           uint32_t trigger_edge            : 2;  /**< Edge selection for trigger signal. Uses @ref
 828:C:/Workspace/DAVE-4.4.2-64Bit/xmc1400-getstarted-optiga-trust-m/Libraries/XMCLib/inc\xmc_vadc.h ****                                                       XMC_VADC_TRIGGER_EDGE_t */
 829:C:/Workspace/DAVE-4.4.2-64Bit/xmc1400-getstarted-optiga-trust-m/Libraries/XMCLib/inc\xmc_vadc.h ****           uint32_t                         : 1;
 830:C:/Workspace/DAVE-4.4.2-64Bit/xmc1400-getstarted-optiga-trust-m/Libraries/XMCLib/inc\xmc_vadc.h ****           uint32_t gate_signal             : 4;  /**< Select one of the 16 possibilities for gating
 831:C:/Workspace/DAVE-4.4.2-64Bit/xmc1400-getstarted-optiga-trust-m/Libraries/XMCLib/inc\xmc_vadc.h ****                                                       XMC_VADC_GATE_INPUT_SELECT_t */
 832:C:/Workspace/DAVE-4.4.2-64Bit/xmc1400-getstarted-optiga-trust-m/Libraries/XMCLib/inc\xmc_vadc.h ****           uint32_t                         : 8;
 833:C:/Workspace/DAVE-4.4.2-64Bit/xmc1400-getstarted-optiga-trust-m/Libraries/XMCLib/inc\xmc_vadc.h ****           uint32_t timer_mode              : 1;  /**< Decides whether timer mode for equi-distant s
 834:C:/Workspace/DAVE-4.4.2-64Bit/xmc1400-getstarted-optiga-trust-m/Libraries/XMCLib/inc\xmc_vadc.h ****                                                       activated or not.*/
 835:C:/Workspace/DAVE-4.4.2-64Bit/xmc1400-getstarted-optiga-trust-m/Libraries/XMCLib/inc\xmc_vadc.h ****           uint32_t                         : 3;
 836:C:/Workspace/DAVE-4.4.2-64Bit/xmc1400-getstarted-optiga-trust-m/Libraries/XMCLib/inc\xmc_vadc.h ****        };
 837:C:/Workspace/DAVE-4.4.2-64Bit/xmc1400-getstarted-optiga-trust-m/Libraries/XMCLib/inc\xmc_vadc.h ****        uint32_t asctrl;
 838:C:/Workspace/DAVE-4.4.2-64Bit/xmc1400-getstarted-optiga-trust-m/Libraries/XMCLib/inc\xmc_vadc.h ****     };
 839:C:/Workspace/DAVE-4.4.2-64Bit/xmc1400-getstarted-optiga-trust-m/Libraries/XMCLib/inc\xmc_vadc.h ****     union
 840:C:/Workspace/DAVE-4.4.2-64Bit/xmc1400-getstarted-optiga-trust-m/Libraries/XMCLib/inc\xmc_vadc.h ****     {
 841:C:/Workspace/DAVE-4.4.2-64Bit/xmc1400-getstarted-optiga-trust-m/Libraries/XMCLib/inc\xmc_vadc.h ****        struct
 842:C:/Workspace/DAVE-4.4.2-64Bit/xmc1400-getstarted-optiga-trust-m/Libraries/XMCLib/inc\xmc_vadc.h ****        {
 843:C:/Workspace/DAVE-4.4.2-64Bit/xmc1400-getstarted-optiga-trust-m/Libraries/XMCLib/inc\xmc_vadc.h ****           uint32_t                    : 2;
 844:C:/Workspace/DAVE-4.4.2-64Bit/xmc1400-getstarted-optiga-trust-m/Libraries/XMCLib/inc\xmc_vadc.h ****           uint32_t external_trigger   : 1;  /**< Conversions be initiated by external hardware trig
 845:C:/Workspace/DAVE-4.4.2-64Bit/xmc1400-getstarted-optiga-trust-m/Libraries/XMCLib/inc\xmc_vadc.h ****           uint32_t req_src_interrupt  : 1;  /**< Request source event can be generated after a conv
 846:C:/Workspace/DAVE-4.4.2-64Bit/xmc1400-getstarted-optiga-trust-m/Libraries/XMCLib/inc\xmc_vadc.h ****           uint32_t enable_auto_scan   : 1;  /**< Enables the continuous conversion mode. Conversion
 847:C:/Workspace/DAVE-4.4.2-64Bit/xmc1400-getstarted-optiga-trust-m/Libraries/XMCLib/inc\xmc_vadc.h ****                                                  of the last channel in a scan sequence will cause 
 848:C:/Workspace/DAVE-4.4.2-64Bit/xmc1400-getstarted-optiga-trust-m/Libraries/XMCLib/inc\xmc_vadc.h ****           uint32_t load_mode          : 1;  /**< Selects load event mode. Uses @ref XMC_VADC_SCAN_L
 849:C:/Workspace/DAVE-4.4.2-64Bit/xmc1400-getstarted-optiga-trust-m/Libraries/XMCLib/inc\xmc_vadc.h ****           uint32_t                    : 26;
 850:C:/Workspace/DAVE-4.4.2-64Bit/xmc1400-getstarted-optiga-trust-m/Libraries/XMCLib/inc\xmc_vadc.h ****        };
 851:C:/Workspace/DAVE-4.4.2-64Bit/xmc1400-getstarted-optiga-trust-m/Libraries/XMCLib/inc\xmc_vadc.h ****        uint32_t asmr;
 852:C:/Workspace/DAVE-4.4.2-64Bit/xmc1400-getstarted-optiga-trust-m/Libraries/XMCLib/inc\xmc_vadc.h ****     };
 853:C:/Workspace/DAVE-4.4.2-64Bit/xmc1400-getstarted-optiga-trust-m/Libraries/XMCLib/inc\xmc_vadc.h **** } XMC_VADC_SCAN_CONFIG_t;
 854:C:/Workspace/DAVE-4.4.2-64Bit/xmc1400-getstarted-optiga-trust-m/Libraries/XMCLib/inc\xmc_vadc.h **** 
 855:C:/Workspace/DAVE-4.4.2-64Bit/xmc1400-getstarted-optiga-trust-m/Libraries/XMCLib/inc\xmc_vadc.h **** 
 856:C:/Workspace/DAVE-4.4.2-64Bit/xmc1400-getstarted-optiga-trust-m/Libraries/XMCLib/inc\xmc_vadc.h **** typedef XMC_VADC_SCAN_CONFIG_t XMC_VADC_BACKGROUND_CONFIG_t; /**< Type defined the scan configurati
 857:C:/Workspace/DAVE-4.4.2-64Bit/xmc1400-getstarted-optiga-trust-m/Libraries/XMCLib/inc\xmc_vadc.h ****                                                                  structure for background Request S
 858:C:/Workspace/DAVE-4.4.2-64Bit/xmc1400-getstarted-optiga-trust-m/Libraries/XMCLib/inc\xmc_vadc.h **** 
 859:C:/Workspace/DAVE-4.4.2-64Bit/xmc1400-getstarted-optiga-trust-m/Libraries/XMCLib/inc\xmc_vadc.h **** /**
 860:C:/Workspace/DAVE-4.4.2-64Bit/xmc1400-getstarted-optiga-trust-m/Libraries/XMCLib/inc\xmc_vadc.h ****  *  Structure initializing the VADC channel. Use type XMC_VADC_CHANNEL_CONFIG_t for this enumeratio
 861:C:/Workspace/DAVE-4.4.2-64Bit/xmc1400-getstarted-optiga-trust-m/Libraries/XMCLib/inc\xmc_vadc.h ****  */
 862:C:/Workspace/DAVE-4.4.2-64Bit/xmc1400-getstarted-optiga-trust-m/Libraries/XMCLib/inc\xmc_vadc.h **** typedef struct XMC_VADC_CHANNEL_CONFIG
 863:C:/Workspace/DAVE-4.4.2-64Bit/xmc1400-getstarted-optiga-trust-m/Libraries/XMCLib/inc\xmc_vadc.h **** {
 864:C:/Workspace/DAVE-4.4.2-64Bit/xmc1400-getstarted-optiga-trust-m/Libraries/XMCLib/inc\xmc_vadc.h ****     union
 865:C:/Workspace/DAVE-4.4.2-64Bit/xmc1400-getstarted-optiga-trust-m/Libraries/XMCLib/inc\xmc_vadc.h ****     {
 866:C:/Workspace/DAVE-4.4.2-64Bit/xmc1400-getstarted-optiga-trust-m/Libraries/XMCLib/inc\xmc_vadc.h ****        struct
 867:C:/Workspace/DAVE-4.4.2-64Bit/xmc1400-getstarted-optiga-trust-m/Libraries/XMCLib/inc\xmc_vadc.h ****        {
 868:C:/Workspace/DAVE-4.4.2-64Bit/xmc1400-getstarted-optiga-trust-m/Libraries/XMCLib/inc\xmc_vadc.h ****           uint32_t input_class                : 2;  /**< Input conversion class selection.
 869:C:/Workspace/DAVE-4.4.2-64Bit/xmc1400-getstarted-optiga-trust-m/Libraries/XMCLib/inc\xmc_vadc.h ****                                                          Uses @ref XMC_VADC_CHANNEL_CONV_t */
 870:C:/Workspace/DAVE-4.4.2-64Bit/xmc1400-getstarted-optiga-trust-m/Libraries/XMCLib/inc\xmc_vadc.h ****           uint32_t                            : 2;
 871:C:/Workspace/DAVE-4.4.2-64Bit/xmc1400-getstarted-optiga-trust-m/Libraries/XMCLib/inc\xmc_vadc.h ****           uint32_t lower_boundary_select      : 2;  /**< Which boundary register serves as lower bo
 872:C:/Workspace/DAVE-4.4.2-64Bit/xmc1400-getstarted-optiga-trust-m/Libraries/XMCLib/inc\xmc_vadc.h ****                                                          Accepts enum @ref XMC_VADC_CHANNEL_BOUNDAR
 873:C:/Workspace/DAVE-4.4.2-64Bit/xmc1400-getstarted-optiga-trust-m/Libraries/XMCLib/inc\xmc_vadc.h ****           uint32_t upper_boundary_select      : 2;  /**< Which boundary register serves as upper bo
 874:C:/Workspace/DAVE-4.4.2-64Bit/xmc1400-getstarted-optiga-trust-m/Libraries/XMCLib/inc\xmc_vadc.h ****                                                          Accepts enum @ref XMC_VADC_CHANNEL_BOUNDAR
 875:C:/Workspace/DAVE-4.4.2-64Bit/xmc1400-getstarted-optiga-trust-m/Libraries/XMCLib/inc\xmc_vadc.h ****           uint32_t event_gen_criteria         : 2;  /**< When should an event be generated?
 876:C:/Workspace/DAVE-4.4.2-64Bit/xmc1400-getstarted-optiga-trust-m/Libraries/XMCLib/inc\xmc_vadc.h ****                                                          Uses @ref XMC_VADC_CHANNEL_EVGEN_t */
 877:C:/Workspace/DAVE-4.4.2-64Bit/xmc1400-getstarted-optiga-trust-m/Libraries/XMCLib/inc\xmc_vadc.h ****           uint32_t sync_conversion            : 1;  /**< Enables synchronous conversion for the con
 878:C:/Workspace/DAVE-4.4.2-64Bit/xmc1400-getstarted-optiga-trust-m/Libraries/XMCLib/inc\xmc_vadc.h ****           uint32_t alternate_reference        : 1;  /**< Input reference voltage selection either V
 879:C:/Workspace/DAVE-4.4.2-64Bit/xmc1400-getstarted-optiga-trust-m/Libraries/XMCLib/inc\xmc_vadc.h ****                                                          Uses @ref XMC_VADC_CHANNEL_REF_t*/
 880:C:/Workspace/DAVE-4.4.2-64Bit/xmc1400-getstarted-optiga-trust-m/Libraries/XMCLib/inc\xmc_vadc.h ****           uint32_t                            : 4;
 881:C:/Workspace/DAVE-4.4.2-64Bit/xmc1400-getstarted-optiga-trust-m/Libraries/XMCLib/inc\xmc_vadc.h ****           uint32_t result_reg_number          : 4;  /**< Group result register number */
 882:C:/Workspace/DAVE-4.4.2-64Bit/xmc1400-getstarted-optiga-trust-m/Libraries/XMCLib/inc\xmc_vadc.h ****           uint32_t use_global_result          : 1;  /**< Use global result register for background 
 883:C:/Workspace/DAVE-4.4.2-64Bit/xmc1400-getstarted-optiga-trust-m/Libraries/XMCLib/inc\xmc_vadc.h ****           uint32_t result_alignment           : 1;  /**< Alignment of the results read in the resul
 884:C:/Workspace/DAVE-4.4.2-64Bit/xmc1400-getstarted-optiga-trust-m/Libraries/XMCLib/inc\xmc_vadc.h ****                                                          Uses @ref XMC_VADC_RESULT_ALIGN_t */
 885:C:/Workspace/DAVE-4.4.2-64Bit/xmc1400-getstarted-optiga-trust-m/Libraries/XMCLib/inc\xmc_vadc.h ****           uint32_t                            : 6;
 886:C:/Workspace/DAVE-4.4.2-64Bit/xmc1400-getstarted-optiga-trust-m/Libraries/XMCLib/inc\xmc_vadc.h ****           uint32_t broken_wire_detect_channel : 2;  /**< Source to be used to charge the capacitor 
 887:C:/Workspace/DAVE-4.4.2-64Bit/xmc1400-getstarted-optiga-trust-m/Libraries/XMCLib/inc\xmc_vadc.h ****                                                          Uses @ref XMC_VADC_CHANNEL_BWDCH_t. */
 888:C:/Workspace/DAVE-4.4.2-64Bit/xmc1400-getstarted-optiga-trust-m/Libraries/XMCLib/inc\xmc_vadc.h ****           uint32_t broken_wire_detect         : 1;  /**< Configures extra phase before the capacito
 889:C:/Workspace/DAVE-4.4.2-64Bit/xmc1400-getstarted-optiga-trust-m/Libraries/XMCLib/inc\xmc_vadc.h ****        };
 890:C:/Workspace/DAVE-4.4.2-64Bit/xmc1400-getstarted-optiga-trust-m/Libraries/XMCLib/inc\xmc_vadc.h ****        uint32_t chctr;
 891:C:/Workspace/DAVE-4.4.2-64Bit/xmc1400-getstarted-optiga-trust-m/Libraries/XMCLib/inc\xmc_vadc.h ****     };
 892:C:/Workspace/DAVE-4.4.2-64Bit/xmc1400-getstarted-optiga-trust-m/Libraries/XMCLib/inc\xmc_vadc.h ****     union
 893:C:/Workspace/DAVE-4.4.2-64Bit/xmc1400-getstarted-optiga-trust-m/Libraries/XMCLib/inc\xmc_vadc.h ****     {
 894:C:/Workspace/DAVE-4.4.2-64Bit/xmc1400-getstarted-optiga-trust-m/Libraries/XMCLib/inc\xmc_vadc.h ****        struct
 895:C:/Workspace/DAVE-4.4.2-64Bit/xmc1400-getstarted-optiga-trust-m/Libraries/XMCLib/inc\xmc_vadc.h ****        {
 896:C:/Workspace/DAVE-4.4.2-64Bit/xmc1400-getstarted-optiga-trust-m/Libraries/XMCLib/inc\xmc_vadc.h ****           uint32_t                           : 8;
 897:C:/Workspace/DAVE-4.4.2-64Bit/xmc1400-getstarted-optiga-trust-m/Libraries/XMCLib/inc\xmc_vadc.h **** #if (XMC_VADC_BOUNDARY_FLAG_SELECT == 1U)
 898:C:/Workspace/DAVE-4.4.2-64Bit/xmc1400-getstarted-optiga-trust-m/Libraries/XMCLib/inc\xmc_vadc.h ****           uint32_t flag_output_condition_ch0 : 1; /**< Condition for which the boundary flag should
 899:C:/Workspace/DAVE-4.4.2-64Bit/xmc1400-getstarted-optiga-trust-m/Libraries/XMCLib/inc\xmc_vadc.h ****                                                        Uses @ref XMC_VADC_CHANNEL_BOUNDARY_CONDITIO
 900:C:/Workspace/DAVE-4.4.2-64Bit/xmc1400-getstarted-optiga-trust-m/Libraries/XMCLib/inc\xmc_vadc.h ****           uint32_t flag_output_condition_ch1 : 1; /**< Condition for which the boundary flag should
 901:C:/Workspace/DAVE-4.4.2-64Bit/xmc1400-getstarted-optiga-trust-m/Libraries/XMCLib/inc\xmc_vadc.h ****                                                          Uses @ref XMC_VADC_CHANNEL_BOUNDARY_CONDIT
 902:C:/Workspace/DAVE-4.4.2-64Bit/xmc1400-getstarted-optiga-trust-m/Libraries/XMCLib/inc\xmc_vadc.h ****           uint32_t flag_output_condition_ch2 : 1; /**< Condition for which the boundary flag should
 903:C:/Workspace/DAVE-4.4.2-64Bit/xmc1400-getstarted-optiga-trust-m/Libraries/XMCLib/inc\xmc_vadc.h ****                                                          Uses @ref XMC_VADC_CHANNEL_BOUNDARY_CONDIT
 904:C:/Workspace/DAVE-4.4.2-64Bit/xmc1400-getstarted-optiga-trust-m/Libraries/XMCLib/inc\xmc_vadc.h ****           uint32_t flag_output_condition_ch3 : 1; /**< Condition for which the boundary flag should
 905:C:/Workspace/DAVE-4.4.2-64Bit/xmc1400-getstarted-optiga-trust-m/Libraries/XMCLib/inc\xmc_vadc.h ****                                                          Uses @ref XMC_VADC_CHANNEL_BOUNDARY_CONDIT
 906:C:/Workspace/DAVE-4.4.2-64Bit/xmc1400-getstarted-optiga-trust-m/Libraries/XMCLib/inc\xmc_vadc.h **** #else
 907:C:/Workspace/DAVE-4.4.2-64Bit/xmc1400-getstarted-optiga-trust-m/Libraries/XMCLib/inc\xmc_vadc.h ****           uint32_t                           : 4;
 908:C:/Workspace/DAVE-4.4.2-64Bit/xmc1400-getstarted-optiga-trust-m/Libraries/XMCLib/inc\xmc_vadc.h **** #endif
 909:C:/Workspace/DAVE-4.4.2-64Bit/xmc1400-getstarted-optiga-trust-m/Libraries/XMCLib/inc\xmc_vadc.h ****           uint32_t                           : 4;
 910:C:/Workspace/DAVE-4.4.2-64Bit/xmc1400-getstarted-optiga-trust-m/Libraries/XMCLib/inc\xmc_vadc.h **** #if (XMC_VADC_BOUNDARY_FLAG_SELECT == 1U)
 911:C:/Workspace/DAVE-4.4.2-64Bit/xmc1400-getstarted-optiga-trust-m/Libraries/XMCLib/inc\xmc_vadc.h ****           uint32_t invert_boundary_flag_ch0  : 1; /**< Inverts boundary flag output.*/
 912:C:/Workspace/DAVE-4.4.2-64Bit/xmc1400-getstarted-optiga-trust-m/Libraries/XMCLib/inc\xmc_vadc.h ****           uint32_t invert_boundary_flag_ch1  : 1; /**< Inverts boundary flag output.*/
 913:C:/Workspace/DAVE-4.4.2-64Bit/xmc1400-getstarted-optiga-trust-m/Libraries/XMCLib/inc\xmc_vadc.h ****           uint32_t invert_boundary_flag_ch2  : 1; /**< Inverts boundary flag output.*/
 914:C:/Workspace/DAVE-4.4.2-64Bit/xmc1400-getstarted-optiga-trust-m/Libraries/XMCLib/inc\xmc_vadc.h ****           uint32_t invert_boundary_flag_ch3  : 1; /**< Inverts boundary flag output.*/
 915:C:/Workspace/DAVE-4.4.2-64Bit/xmc1400-getstarted-optiga-trust-m/Libraries/XMCLib/inc\xmc_vadc.h **** 
 916:C:/Workspace/DAVE-4.4.2-64Bit/xmc1400-getstarted-optiga-trust-m/Libraries/XMCLib/inc\xmc_vadc.h **** #else
 917:C:/Workspace/DAVE-4.4.2-64Bit/xmc1400-getstarted-optiga-trust-m/Libraries/XMCLib/inc\xmc_vadc.h ****           uint32_t boundary_flag_output_ch0  : 1; /**< Enable the boundary flag output on the speci
 918:C:/Workspace/DAVE-4.4.2-64Bit/xmc1400-getstarted-optiga-trust-m/Libraries/XMCLib/inc\xmc_vadc.h ****           uint32_t boundary_flag_output_ch1  : 1; /**< Enable the boundary flag output on the speci
 919:C:/Workspace/DAVE-4.4.2-64Bit/xmc1400-getstarted-optiga-trust-m/Libraries/XMCLib/inc\xmc_vadc.h ****           uint32_t boundary_flag_output_ch2  : 1; /**< Enable the boundary flag output on the speci
 920:C:/Workspace/DAVE-4.4.2-64Bit/xmc1400-getstarted-optiga-trust-m/Libraries/XMCLib/inc\xmc_vadc.h ****           uint32_t boundary_flag_output_ch3  : 1; /**< Enable the boundary flag output on the speci
 921:C:/Workspace/DAVE-4.4.2-64Bit/xmc1400-getstarted-optiga-trust-m/Libraries/XMCLib/inc\xmc_vadc.h **** #endif
 922:C:/Workspace/DAVE-4.4.2-64Bit/xmc1400-getstarted-optiga-trust-m/Libraries/XMCLib/inc\xmc_vadc.h ****           uint32_t                           : 12;
 923:C:/Workspace/DAVE-4.4.2-64Bit/xmc1400-getstarted-optiga-trust-m/Libraries/XMCLib/inc\xmc_vadc.h ****        };
 924:C:/Workspace/DAVE-4.4.2-64Bit/xmc1400-getstarted-optiga-trust-m/Libraries/XMCLib/inc\xmc_vadc.h ****        uint32_t bfl;
 925:C:/Workspace/DAVE-4.4.2-64Bit/xmc1400-getstarted-optiga-trust-m/Libraries/XMCLib/inc\xmc_vadc.h ****     };
 926:C:/Workspace/DAVE-4.4.2-64Bit/xmc1400-getstarted-optiga-trust-m/Libraries/XMCLib/inc\xmc_vadc.h **** #if (XMC_VADC_BOUNDARY_FLAG_SELECT == 1U)
 927:C:/Workspace/DAVE-4.4.2-64Bit/xmc1400-getstarted-optiga-trust-m/Libraries/XMCLib/inc\xmc_vadc.h ****     union
 928:C:/Workspace/DAVE-4.4.2-64Bit/xmc1400-getstarted-optiga-trust-m/Libraries/XMCLib/inc\xmc_vadc.h ****     {
 929:C:/Workspace/DAVE-4.4.2-64Bit/xmc1400-getstarted-optiga-trust-m/Libraries/XMCLib/inc\xmc_vadc.h ****        struct
 930:C:/Workspace/DAVE-4.4.2-64Bit/xmc1400-getstarted-optiga-trust-m/Libraries/XMCLib/inc\xmc_vadc.h ****        {
 931:C:/Workspace/DAVE-4.4.2-64Bit/xmc1400-getstarted-optiga-trust-m/Libraries/XMCLib/inc\xmc_vadc.h ****          uint32_t boundary_flag_mode_ch0    : 4; /**< Specify the basic operation of boundary flag 
 932:C:/Workspace/DAVE-4.4.2-64Bit/xmc1400-getstarted-optiga-trust-m/Libraries/XMCLib/inc\xmc_vadc.h ****                                                       Uses @ref  XMC_VADC_GROUP_BOUNDARY_FLAG_MODE_
 933:C:/Workspace/DAVE-4.4.2-64Bit/xmc1400-getstarted-optiga-trust-m/Libraries/XMCLib/inc\xmc_vadc.h ****          uint32_t boundary_flag_mode_ch1    : 4; /**< Specify the basic operation of boundary flag 
 934:C:/Workspace/DAVE-4.4.2-64Bit/xmc1400-getstarted-optiga-trust-m/Libraries/XMCLib/inc\xmc_vadc.h ****                                                       Uses @ref  XMC_VADC_GROUP_BOUNDARY_FLAG_MODE_
 935:C:/Workspace/DAVE-4.4.2-64Bit/xmc1400-getstarted-optiga-trust-m/Libraries/XMCLib/inc\xmc_vadc.h ****          uint32_t boundary_flag_mode_ch2    : 4; /**< Specify the basic operation of boundary flag 
 936:C:/Workspace/DAVE-4.4.2-64Bit/xmc1400-getstarted-optiga-trust-m/Libraries/XMCLib/inc\xmc_vadc.h ****                                                       Uses @ref  XMC_VADC_GROUP_BOUNDARY_FLAG_MODE_
 937:C:/Workspace/DAVE-4.4.2-64Bit/xmc1400-getstarted-optiga-trust-m/Libraries/XMCLib/inc\xmc_vadc.h ****          uint32_t boundary_flag_mode_ch3    : 4; /**< Specify the basic operation of boundary flag 
 938:C:/Workspace/DAVE-4.4.2-64Bit/xmc1400-getstarted-optiga-trust-m/Libraries/XMCLib/inc\xmc_vadc.h ****                                                       Uses @ref  XMC_VADC_GROUP_BOUNDARY_FLAG_MODE_
 939:C:/Workspace/DAVE-4.4.2-64Bit/xmc1400-getstarted-optiga-trust-m/Libraries/XMCLib/inc\xmc_vadc.h ****          uint32_t                           : 16;
 940:C:/Workspace/DAVE-4.4.2-64Bit/xmc1400-getstarted-optiga-trust-m/Libraries/XMCLib/inc\xmc_vadc.h ****        };
 941:C:/Workspace/DAVE-4.4.2-64Bit/xmc1400-getstarted-optiga-trust-m/Libraries/XMCLib/inc\xmc_vadc.h ****        uint32_t bflc;
 942:C:/Workspace/DAVE-4.4.2-64Bit/xmc1400-getstarted-optiga-trust-m/Libraries/XMCLib/inc\xmc_vadc.h ****     };
 943:C:/Workspace/DAVE-4.4.2-64Bit/xmc1400-getstarted-optiga-trust-m/Libraries/XMCLib/inc\xmc_vadc.h **** #endif
 944:C:/Workspace/DAVE-4.4.2-64Bit/xmc1400-getstarted-optiga-trust-m/Libraries/XMCLib/inc\xmc_vadc.h ****     bool    channel_priority;  /**< Only non priority channels can be converted by Background Reque
 945:C:/Workspace/DAVE-4.4.2-64Bit/xmc1400-getstarted-optiga-trust-m/Libraries/XMCLib/inc\xmc_vadc.h ****     int8_t  alias_channel;     /**< Specifies the channel which has to be aliased with CH0/CH1 (whi
 946:C:/Workspace/DAVE-4.4.2-64Bit/xmc1400-getstarted-optiga-trust-m/Libraries/XMCLib/inc\xmc_vadc.h ****                                     Force the value to \b(int8_t)-1 to bypass alias feature.
 947:C:/Workspace/DAVE-4.4.2-64Bit/xmc1400-getstarted-optiga-trust-m/Libraries/XMCLib/inc\xmc_vadc.h ****                                     Uses @ref XMC_VADC_CHANNEL_ALIAS_t  for configuration.*/
 948:C:/Workspace/DAVE-4.4.2-64Bit/xmc1400-getstarted-optiga-trust-m/Libraries/XMCLib/inc\xmc_vadc.h **** } XMC_VADC_CHANNEL_CONFIG_t;
 949:C:/Workspace/DAVE-4.4.2-64Bit/xmc1400-getstarted-optiga-trust-m/Libraries/XMCLib/inc\xmc_vadc.h **** 
 950:C:/Workspace/DAVE-4.4.2-64Bit/xmc1400-getstarted-optiga-trust-m/Libraries/XMCLib/inc\xmc_vadc.h **** /**
 951:C:/Workspace/DAVE-4.4.2-64Bit/xmc1400-getstarted-optiga-trust-m/Libraries/XMCLib/inc\xmc_vadc.h ****  *  Structure to initialize a queue entry. Use type @ref XMC_VADC_QUEUE_ENTRY_t.
 952:C:/Workspace/DAVE-4.4.2-64Bit/xmc1400-getstarted-optiga-trust-m/Libraries/XMCLib/inc\xmc_vadc.h ****  */
 953:C:/Workspace/DAVE-4.4.2-64Bit/xmc1400-getstarted-optiga-trust-m/Libraries/XMCLib/inc\xmc_vadc.h **** typedef struct XMC_VADC_QUEUE_ENTRY
 954:C:/Workspace/DAVE-4.4.2-64Bit/xmc1400-getstarted-optiga-trust-m/Libraries/XMCLib/inc\xmc_vadc.h **** {
 955:C:/Workspace/DAVE-4.4.2-64Bit/xmc1400-getstarted-optiga-trust-m/Libraries/XMCLib/inc\xmc_vadc.h ****     union
 956:C:/Workspace/DAVE-4.4.2-64Bit/xmc1400-getstarted-optiga-trust-m/Libraries/XMCLib/inc\xmc_vadc.h ****     {
 957:C:/Workspace/DAVE-4.4.2-64Bit/xmc1400-getstarted-optiga-trust-m/Libraries/XMCLib/inc\xmc_vadc.h ****        struct
 958:C:/Workspace/DAVE-4.4.2-64Bit/xmc1400-getstarted-optiga-trust-m/Libraries/XMCLib/inc\xmc_vadc.h ****        {
 959:C:/Workspace/DAVE-4.4.2-64Bit/xmc1400-getstarted-optiga-trust-m/Libraries/XMCLib/inc\xmc_vadc.h ****           uint32_t channel_num        : 5;  /**< Channel number associated with this queue entry.<B
 960:C:/Workspace/DAVE-4.4.2-64Bit/xmc1400-getstarted-optiga-trust-m/Libraries/XMCLib/inc\xmc_vadc.h ****           uint32_t refill_needed      : 1;  /**< Conversion completed channel gets inserted back in
 961:C:/Workspace/DAVE-4.4.2-64Bit/xmc1400-getstarted-optiga-trust-m/Libraries/XMCLib/inc\xmc_vadc.h ****           uint32_t generate_interrupt : 1;  /**< Generates a queue request source event */
 962:C:/Workspace/DAVE-4.4.2-64Bit/xmc1400-getstarted-optiga-trust-m/Libraries/XMCLib/inc\xmc_vadc.h ****           uint32_t external_trigger   : 1;  /**< Conversion requests are raised on an external trig
 963:C:/Workspace/DAVE-4.4.2-64Bit/xmc1400-getstarted-optiga-trust-m/Libraries/XMCLib/inc\xmc_vadc.h ****           uint32_t                    : 24;
 964:C:/Workspace/DAVE-4.4.2-64Bit/xmc1400-getstarted-optiga-trust-m/Libraries/XMCLib/inc\xmc_vadc.h **** 
 965:C:/Workspace/DAVE-4.4.2-64Bit/xmc1400-getstarted-optiga-trust-m/Libraries/XMCLib/inc\xmc_vadc.h ****        };
 966:C:/Workspace/DAVE-4.4.2-64Bit/xmc1400-getstarted-optiga-trust-m/Libraries/XMCLib/inc\xmc_vadc.h ****        uint32_t qinr0;
 967:C:/Workspace/DAVE-4.4.2-64Bit/xmc1400-getstarted-optiga-trust-m/Libraries/XMCLib/inc\xmc_vadc.h ****     };
 968:C:/Workspace/DAVE-4.4.2-64Bit/xmc1400-getstarted-optiga-trust-m/Libraries/XMCLib/inc\xmc_vadc.h **** } XMC_VADC_QUEUE_ENTRY_t;
 969:C:/Workspace/DAVE-4.4.2-64Bit/xmc1400-getstarted-optiga-trust-m/Libraries/XMCLib/inc\xmc_vadc.h **** 
 970:C:/Workspace/DAVE-4.4.2-64Bit/xmc1400-getstarted-optiga-trust-m/Libraries/XMCLib/inc\xmc_vadc.h **** /**
 971:C:/Workspace/DAVE-4.4.2-64Bit/xmc1400-getstarted-optiga-trust-m/Libraries/XMCLib/inc\xmc_vadc.h ****  *  Structure initializing a VADC queue request source. Use type @ref XMC_VADC_QUEUE_CONFIG_t.
 972:C:/Workspace/DAVE-4.4.2-64Bit/xmc1400-getstarted-optiga-trust-m/Libraries/XMCLib/inc\xmc_vadc.h ****  */
 973:C:/Workspace/DAVE-4.4.2-64Bit/xmc1400-getstarted-optiga-trust-m/Libraries/XMCLib/inc\xmc_vadc.h **** typedef struct XMC_VADC_QUEUE_CONFIG
 974:C:/Workspace/DAVE-4.4.2-64Bit/xmc1400-getstarted-optiga-trust-m/Libraries/XMCLib/inc\xmc_vadc.h **** {
 975:C:/Workspace/DAVE-4.4.2-64Bit/xmc1400-getstarted-optiga-trust-m/Libraries/XMCLib/inc\xmc_vadc.h ****     uint32_t conv_start_mode  : 2;  /**< One converter is shared between the queue and scan request
 976:C:/Workspace/DAVE-4.4.2-64Bit/xmc1400-getstarted-optiga-trust-m/Libraries/XMCLib/inc\xmc_vadc.h ****                                          group. This field determines how queue request source woul
 977:C:/Workspace/DAVE-4.4.2-64Bit/xmc1400-getstarted-optiga-trust-m/Libraries/XMCLib/inc\xmc_vadc.h ****                                          conversion. Uses @ref XMC_VADC_STARTMODE_t */
 978:C:/Workspace/DAVE-4.4.2-64Bit/xmc1400-getstarted-optiga-trust-m/Libraries/XMCLib/inc\xmc_vadc.h ****     uint32_t req_src_priority : 2;  /**< Request source priority for the arbiter.Uses @ref XMC_VADC
 979:C:/Workspace/DAVE-4.4.2-64Bit/xmc1400-getstarted-optiga-trust-m/Libraries/XMCLib/inc\xmc_vadc.h ****     union
 980:C:/Workspace/DAVE-4.4.2-64Bit/xmc1400-getstarted-optiga-trust-m/Libraries/XMCLib/inc\xmc_vadc.h ****     {
 981:C:/Workspace/DAVE-4.4.2-64Bit/xmc1400-getstarted-optiga-trust-m/Libraries/XMCLib/inc\xmc_vadc.h ****        struct
 982:C:/Workspace/DAVE-4.4.2-64Bit/xmc1400-getstarted-optiga-trust-m/Libraries/XMCLib/inc\xmc_vadc.h ****        {
 983:C:/Workspace/DAVE-4.4.2-64Bit/xmc1400-getstarted-optiga-trust-m/Libraries/XMCLib/inc\xmc_vadc.h **** #if(XMC_VADC_GROUP_SRCREG_AVAILABLE == (1U))
 984:C:/Workspace/DAVE-4.4.2-64Bit/xmc1400-getstarted-optiga-trust-m/Libraries/XMCLib/inc\xmc_vadc.h ****           uint32_t src_specific_result_reg : 4;  /**< Uses any one Group related result register as
 985:C:/Workspace/DAVE-4.4.2-64Bit/xmc1400-getstarted-optiga-trust-m/Libraries/XMCLib/inc\xmc_vadc.h ****                                                     for all conversions results. To use the  indivi
 986:C:/Workspace/DAVE-4.4.2-64Bit/xmc1400-getstarted-optiga-trust-m/Libraries/XMCLib/inc\xmc_vadc.h ****                                                     from each channel configuration, configure this
 987:C:/Workspace/DAVE-4.4.2-64Bit/xmc1400-getstarted-optiga-trust-m/Libraries/XMCLib/inc\xmc_vadc.h **** #else
 988:C:/Workspace/DAVE-4.4.2-64Bit/xmc1400-getstarted-optiga-trust-m/Libraries/XMCLib/inc\xmc_vadc.h ****           uint32_t                         : 4;
 989:C:/Workspace/DAVE-4.4.2-64Bit/xmc1400-getstarted-optiga-trust-m/Libraries/XMCLib/inc\xmc_vadc.h **** #endif
 990:C:/Workspace/DAVE-4.4.2-64Bit/xmc1400-getstarted-optiga-trust-m/Libraries/XMCLib/inc\xmc_vadc.h ****           uint32_t                         : 4;
 991:C:/Workspace/DAVE-4.4.2-64Bit/xmc1400-getstarted-optiga-trust-m/Libraries/XMCLib/inc\xmc_vadc.h ****           uint32_t trigger_signal          : 4;  /**< Select one of the 16 possibilities for trigge
 992:C:/Workspace/DAVE-4.4.2-64Bit/xmc1400-getstarted-optiga-trust-m/Libraries/XMCLib/inc\xmc_vadc.h ****                                                       Uses @ref XMC_VADC_TRIGGER_INPUT_SELECT_t */
 993:C:/Workspace/DAVE-4.4.2-64Bit/xmc1400-getstarted-optiga-trust-m/Libraries/XMCLib/inc\xmc_vadc.h ****           uint32_t                         : 1;
 994:C:/Workspace/DAVE-4.4.2-64Bit/xmc1400-getstarted-optiga-trust-m/Libraries/XMCLib/inc\xmc_vadc.h ****           uint32_t trigger_edge            : 2;  /**< Edge selection for trigger signal.
 995:C:/Workspace/DAVE-4.4.2-64Bit/xmc1400-getstarted-optiga-trust-m/Libraries/XMCLib/inc\xmc_vadc.h ****                                                       Uses @ref XMC_VADC_TRIGGER_EDGE_t */
 996:C:/Workspace/DAVE-4.4.2-64Bit/xmc1400-getstarted-optiga-trust-m/Libraries/XMCLib/inc\xmc_vadc.h ****           uint32_t                         : 1;
 997:C:/Workspace/DAVE-4.4.2-64Bit/xmc1400-getstarted-optiga-trust-m/Libraries/XMCLib/inc\xmc_vadc.h ****           uint32_t gate_signal             : 4;  /**< Select one of the 16 possibilities for gating
 998:C:/Workspace/DAVE-4.4.2-64Bit/xmc1400-getstarted-optiga-trust-m/Libraries/XMCLib/inc\xmc_vadc.h ****                                                       Uses @ref XMC_VADC_GATE_INPUT_SELECT_t */
 999:C:/Workspace/DAVE-4.4.2-64Bit/xmc1400-getstarted-optiga-trust-m/Libraries/XMCLib/inc\xmc_vadc.h ****           uint32_t                         : 8;
1000:C:/Workspace/DAVE-4.4.2-64Bit/xmc1400-getstarted-optiga-trust-m/Libraries/XMCLib/inc\xmc_vadc.h ****           uint32_t timer_mode              : 1;  /**< Timer mode for equi-distant sampling shall be
1001:C:/Workspace/DAVE-4.4.2-64Bit/xmc1400-getstarted-optiga-trust-m/Libraries/XMCLib/inc\xmc_vadc.h ****           uint32_t                         : 3;
1002:C:/Workspace/DAVE-4.4.2-64Bit/xmc1400-getstarted-optiga-trust-m/Libraries/XMCLib/inc\xmc_vadc.h ****        };
1003:C:/Workspace/DAVE-4.4.2-64Bit/xmc1400-getstarted-optiga-trust-m/Libraries/XMCLib/inc\xmc_vadc.h ****        uint32_t qctrl0;
1004:C:/Workspace/DAVE-4.4.2-64Bit/xmc1400-getstarted-optiga-trust-m/Libraries/XMCLib/inc\xmc_vadc.h ****     };
1005:C:/Workspace/DAVE-4.4.2-64Bit/xmc1400-getstarted-optiga-trust-m/Libraries/XMCLib/inc\xmc_vadc.h ****     union
1006:C:/Workspace/DAVE-4.4.2-64Bit/xmc1400-getstarted-optiga-trust-m/Libraries/XMCLib/inc\xmc_vadc.h ****     {
1007:C:/Workspace/DAVE-4.4.2-64Bit/xmc1400-getstarted-optiga-trust-m/Libraries/XMCLib/inc\xmc_vadc.h ****        struct
1008:C:/Workspace/DAVE-4.4.2-64Bit/xmc1400-getstarted-optiga-trust-m/Libraries/XMCLib/inc\xmc_vadc.h ****        {
1009:C:/Workspace/DAVE-4.4.2-64Bit/xmc1400-getstarted-optiga-trust-m/Libraries/XMCLib/inc\xmc_vadc.h ****           uint32_t                   : 2;
1010:C:/Workspace/DAVE-4.4.2-64Bit/xmc1400-getstarted-optiga-trust-m/Libraries/XMCLib/inc\xmc_vadc.h ****           uint32_t external_trigger  : 1;  /**< Are external triggers supported? */
1011:C:/Workspace/DAVE-4.4.2-64Bit/xmc1400-getstarted-optiga-trust-m/Libraries/XMCLib/inc\xmc_vadc.h ****           uint32_t                   : 29;
1012:C:/Workspace/DAVE-4.4.2-64Bit/xmc1400-getstarted-optiga-trust-m/Libraries/XMCLib/inc\xmc_vadc.h ****        };
1013:C:/Workspace/DAVE-4.4.2-64Bit/xmc1400-getstarted-optiga-trust-m/Libraries/XMCLib/inc\xmc_vadc.h ****        uint32_t qmr0;
1014:C:/Workspace/DAVE-4.4.2-64Bit/xmc1400-getstarted-optiga-trust-m/Libraries/XMCLib/inc\xmc_vadc.h ****     };
1015:C:/Workspace/DAVE-4.4.2-64Bit/xmc1400-getstarted-optiga-trust-m/Libraries/XMCLib/inc\xmc_vadc.h **** } XMC_VADC_QUEUE_CONFIG_t;
1016:C:/Workspace/DAVE-4.4.2-64Bit/xmc1400-getstarted-optiga-trust-m/Libraries/XMCLib/inc\xmc_vadc.h **** 
1017:C:/Workspace/DAVE-4.4.2-64Bit/xmc1400-getstarted-optiga-trust-m/Libraries/XMCLib/inc\xmc_vadc.h **** 
1018:C:/Workspace/DAVE-4.4.2-64Bit/xmc1400-getstarted-optiga-trust-m/Libraries/XMCLib/inc\xmc_vadc.h **** /**
1019:C:/Workspace/DAVE-4.4.2-64Bit/xmc1400-getstarted-optiga-trust-m/Libraries/XMCLib/inc\xmc_vadc.h ****  *  Structure to initialize the global input class configuration. Configured parameters are sample 
1020:C:/Workspace/DAVE-4.4.2-64Bit/xmc1400-getstarted-optiga-trust-m/Libraries/XMCLib/inc\xmc_vadc.h ****  *  conversion Mode.
1021:C:/Workspace/DAVE-4.4.2-64Bit/xmc1400-getstarted-optiga-trust-m/Libraries/XMCLib/inc\xmc_vadc.h ****  */
1022:C:/Workspace/DAVE-4.4.2-64Bit/xmc1400-getstarted-optiga-trust-m/Libraries/XMCLib/inc\xmc_vadc.h **** typedef struct XMC_VADC_GLOBAL_CLASS
1023:C:/Workspace/DAVE-4.4.2-64Bit/xmc1400-getstarted-optiga-trust-m/Libraries/XMCLib/inc\xmc_vadc.h **** {
1024:C:/Workspace/DAVE-4.4.2-64Bit/xmc1400-getstarted-optiga-trust-m/Libraries/XMCLib/inc\xmc_vadc.h ****     union
1025:C:/Workspace/DAVE-4.4.2-64Bit/xmc1400-getstarted-optiga-trust-m/Libraries/XMCLib/inc\xmc_vadc.h ****     {
1026:C:/Workspace/DAVE-4.4.2-64Bit/xmc1400-getstarted-optiga-trust-m/Libraries/XMCLib/inc\xmc_vadc.h ****        struct
1027:C:/Workspace/DAVE-4.4.2-64Bit/xmc1400-getstarted-optiga-trust-m/Libraries/XMCLib/inc\xmc_vadc.h ****        {
1028:C:/Workspace/DAVE-4.4.2-64Bit/xmc1400-getstarted-optiga-trust-m/Libraries/XMCLib/inc\xmc_vadc.h ****           uint32_t sample_time_std_conv            : 5;  /**< Sample time for channels directly con
1029:C:/Workspace/DAVE-4.4.2-64Bit/xmc1400-getstarted-optiga-trust-m/Libraries/XMCLib/inc\xmc_vadc.h ****                                                               <BR>Range: [0x0 to 0x1F] */
1030:C:/Workspace/DAVE-4.4.2-64Bit/xmc1400-getstarted-optiga-trust-m/Libraries/XMCLib/inc\xmc_vadc.h ****           uint32_t                                 : 3;
1031:C:/Workspace/DAVE-4.4.2-64Bit/xmc1400-getstarted-optiga-trust-m/Libraries/XMCLib/inc\xmc_vadc.h ****           uint32_t conversion_mode_standard        : 3;  /**< Conversion mode for channels directly
1032:C:/Workspace/DAVE-4.4.2-64Bit/xmc1400-getstarted-optiga-trust-m/Libraries/XMCLib/inc\xmc_vadc.h ****                                                               Uses @ref XMC_VADC_CONVMODE_t */
1033:C:/Workspace/DAVE-4.4.2-64Bit/xmc1400-getstarted-optiga-trust-m/Libraries/XMCLib/inc\xmc_vadc.h ****           uint32_t                                 : 5;
1034:C:/Workspace/DAVE-4.4.2-64Bit/xmc1400-getstarted-optiga-trust-m/Libraries/XMCLib/inc\xmc_vadc.h **** #if(XMC_VADC_EMUX_AVAILABLE == 1U)
1035:C:/Workspace/DAVE-4.4.2-64Bit/xmc1400-getstarted-optiga-trust-m/Libraries/XMCLib/inc\xmc_vadc.h ****           uint32_t sampling_phase_emux_channel     : 5;  /**< Sample time for channels connected vi
1036:C:/Workspace/DAVE-4.4.2-64Bit/xmc1400-getstarted-optiga-trust-m/Libraries/XMCLib/inc\xmc_vadc.h ****                                                               <BR>Range: [0x0 to 0x1F] */
1037:C:/Workspace/DAVE-4.4.2-64Bit/xmc1400-getstarted-optiga-trust-m/Libraries/XMCLib/inc\xmc_vadc.h ****           uint32_t                                 : 3;
1038:C:/Workspace/DAVE-4.4.2-64Bit/xmc1400-getstarted-optiga-trust-m/Libraries/XMCLib/inc\xmc_vadc.h ****           uint32_t conversion_mode_emux            : 3;  /**< Conversion mode for channels connecte
1039:C:/Workspace/DAVE-4.4.2-64Bit/xmc1400-getstarted-optiga-trust-m/Libraries/XMCLib/inc\xmc_vadc.h ****                                                               Uses @ref XMC_VADC_CONVMODE_t */
1040:C:/Workspace/DAVE-4.4.2-64Bit/xmc1400-getstarted-optiga-trust-m/Libraries/XMCLib/inc\xmc_vadc.h ****           uint32_t                                 : 5;
1041:C:/Workspace/DAVE-4.4.2-64Bit/xmc1400-getstarted-optiga-trust-m/Libraries/XMCLib/inc\xmc_vadc.h **** #else
1042:C:/Workspace/DAVE-4.4.2-64Bit/xmc1400-getstarted-optiga-trust-m/Libraries/XMCLib/inc\xmc_vadc.h ****           uint32_t                                 : 16;
1043:C:/Workspace/DAVE-4.4.2-64Bit/xmc1400-getstarted-optiga-trust-m/Libraries/XMCLib/inc\xmc_vadc.h **** #endif
1044:C:/Workspace/DAVE-4.4.2-64Bit/xmc1400-getstarted-optiga-trust-m/Libraries/XMCLib/inc\xmc_vadc.h ****        };
1045:C:/Workspace/DAVE-4.4.2-64Bit/xmc1400-getstarted-optiga-trust-m/Libraries/XMCLib/inc\xmc_vadc.h ****        uint32_t globiclass;
1046:C:/Workspace/DAVE-4.4.2-64Bit/xmc1400-getstarted-optiga-trust-m/Libraries/XMCLib/inc\xmc_vadc.h ****     };
1047:C:/Workspace/DAVE-4.4.2-64Bit/xmc1400-getstarted-optiga-trust-m/Libraries/XMCLib/inc\xmc_vadc.h **** } XMC_VADC_GLOBAL_CLASS_t;
1048:C:/Workspace/DAVE-4.4.2-64Bit/xmc1400-getstarted-optiga-trust-m/Libraries/XMCLib/inc\xmc_vadc.h **** 
1049:C:/Workspace/DAVE-4.4.2-64Bit/xmc1400-getstarted-optiga-trust-m/Libraries/XMCLib/inc\xmc_vadc.h **** #if (XMC_VADC_GROUP_AVAILABLE != 0U)
1050:C:/Workspace/DAVE-4.4.2-64Bit/xmc1400-getstarted-optiga-trust-m/Libraries/XMCLib/inc\xmc_vadc.h **** /**
1051:C:/Workspace/DAVE-4.4.2-64Bit/xmc1400-getstarted-optiga-trust-m/Libraries/XMCLib/inc\xmc_vadc.h ****  *   Structure to initialize converter and arbiter clock configuration
1052:C:/Workspace/DAVE-4.4.2-64Bit/xmc1400-getstarted-optiga-trust-m/Libraries/XMCLib/inc\xmc_vadc.h ****  */
1053:C:/Workspace/DAVE-4.4.2-64Bit/xmc1400-getstarted-optiga-trust-m/Libraries/XMCLib/inc\xmc_vadc.h **** typedef struct XMC_VADC_GLOBAL_CLOCK
1054:C:/Workspace/DAVE-4.4.2-64Bit/xmc1400-getstarted-optiga-trust-m/Libraries/XMCLib/inc\xmc_vadc.h **** {
1055:C:/Workspace/DAVE-4.4.2-64Bit/xmc1400-getstarted-optiga-trust-m/Libraries/XMCLib/inc\xmc_vadc.h ****     union
1056:C:/Workspace/DAVE-4.4.2-64Bit/xmc1400-getstarted-optiga-trust-m/Libraries/XMCLib/inc\xmc_vadc.h ****     {
1057:C:/Workspace/DAVE-4.4.2-64Bit/xmc1400-getstarted-optiga-trust-m/Libraries/XMCLib/inc\xmc_vadc.h ****        struct
1058:C:/Workspace/DAVE-4.4.2-64Bit/xmc1400-getstarted-optiga-trust-m/Libraries/XMCLib/inc\xmc_vadc.h ****        {
1059:C:/Workspace/DAVE-4.4.2-64Bit/xmc1400-getstarted-optiga-trust-m/Libraries/XMCLib/inc\xmc_vadc.h **** 
1060:C:/Workspace/DAVE-4.4.2-64Bit/xmc1400-getstarted-optiga-trust-m/Libraries/XMCLib/inc\xmc_vadc.h ****           uint32_t analog_clock_divider     : 5;  /**< Clock for the converter. <BR>Range: [0x0 to 
1061:C:/Workspace/DAVE-4.4.2-64Bit/xmc1400-getstarted-optiga-trust-m/Libraries/XMCLib/inc\xmc_vadc.h ****           uint32_t                          : 2;
1062:C:/Workspace/DAVE-4.4.2-64Bit/xmc1400-getstarted-optiga-trust-m/Libraries/XMCLib/inc\xmc_vadc.h ****           uint32_t msb_conversion_clock     : 1;  /**< Additional clock cycle for analog converter 
1063:C:/Workspace/DAVE-4.4.2-64Bit/xmc1400-getstarted-optiga-trust-m/Libraries/XMCLib/inc\xmc_vadc.h ****           uint32_t arbiter_clock_divider    : 2;  /**< Request source arbiter clock divider. <BR>Ra
1064:C:/Workspace/DAVE-4.4.2-64Bit/xmc1400-getstarted-optiga-trust-m/Libraries/XMCLib/inc\xmc_vadc.h ****           uint32_t                          : 5;
1065:C:/Workspace/DAVE-4.4.2-64Bit/xmc1400-getstarted-optiga-trust-m/Libraries/XMCLib/inc\xmc_vadc.h ****           uint32_t                          : 17;
1066:C:/Workspace/DAVE-4.4.2-64Bit/xmc1400-getstarted-optiga-trust-m/Libraries/XMCLib/inc\xmc_vadc.h ****        };
1067:C:/Workspace/DAVE-4.4.2-64Bit/xmc1400-getstarted-optiga-trust-m/Libraries/XMCLib/inc\xmc_vadc.h ****        uint32_t globcfg;
1068:C:/Workspace/DAVE-4.4.2-64Bit/xmc1400-getstarted-optiga-trust-m/Libraries/XMCLib/inc\xmc_vadc.h ****     };
1069:C:/Workspace/DAVE-4.4.2-64Bit/xmc1400-getstarted-optiga-trust-m/Libraries/XMCLib/inc\xmc_vadc.h **** } XMC_VADC_GLOBAL_CLOCK_t;
1070:C:/Workspace/DAVE-4.4.2-64Bit/xmc1400-getstarted-optiga-trust-m/Libraries/XMCLib/inc\xmc_vadc.h **** #endif
1071:C:/Workspace/DAVE-4.4.2-64Bit/xmc1400-getstarted-optiga-trust-m/Libraries/XMCLib/inc\xmc_vadc.h **** 
1072:C:/Workspace/DAVE-4.4.2-64Bit/xmc1400-getstarted-optiga-trust-m/Libraries/XMCLib/inc\xmc_vadc.h **** 
1073:C:/Workspace/DAVE-4.4.2-64Bit/xmc1400-getstarted-optiga-trust-m/Libraries/XMCLib/inc\xmc_vadc.h **** /**
1074:C:/Workspace/DAVE-4.4.2-64Bit/xmc1400-getstarted-optiga-trust-m/Libraries/XMCLib/inc\xmc_vadc.h ****  *   Structure to initialize the VADC Global functions
1075:C:/Workspace/DAVE-4.4.2-64Bit/xmc1400-getstarted-optiga-trust-m/Libraries/XMCLib/inc\xmc_vadc.h ****  */
1076:C:/Workspace/DAVE-4.4.2-64Bit/xmc1400-getstarted-optiga-trust-m/Libraries/XMCLib/inc\xmc_vadc.h **** typedef struct XMC_VADC_GLOBAL_CONFIG
1077:C:/Workspace/DAVE-4.4.2-64Bit/xmc1400-getstarted-optiga-trust-m/Libraries/XMCLib/inc\xmc_vadc.h **** {
1078:C:/Workspace/DAVE-4.4.2-64Bit/xmc1400-getstarted-optiga-trust-m/Libraries/XMCLib/inc\xmc_vadc.h ****     union
1079:C:/Workspace/DAVE-4.4.2-64Bit/xmc1400-getstarted-optiga-trust-m/Libraries/XMCLib/inc\xmc_vadc.h ****     {
1080:C:/Workspace/DAVE-4.4.2-64Bit/xmc1400-getstarted-optiga-trust-m/Libraries/XMCLib/inc\xmc_vadc.h ****        struct
1081:C:/Workspace/DAVE-4.4.2-64Bit/xmc1400-getstarted-optiga-trust-m/Libraries/XMCLib/inc\xmc_vadc.h ****        {
1082:C:/Workspace/DAVE-4.4.2-64Bit/xmc1400-getstarted-optiga-trust-m/Libraries/XMCLib/inc\xmc_vadc.h ****           uint32_t boundary0  : 12;  /**< Boundary value for results comparison*/
1083:C:/Workspace/DAVE-4.4.2-64Bit/xmc1400-getstarted-optiga-trust-m/Libraries/XMCLib/inc\xmc_vadc.h ****           uint32_t            : 4;
1084:C:/Workspace/DAVE-4.4.2-64Bit/xmc1400-getstarted-optiga-trust-m/Libraries/XMCLib/inc\xmc_vadc.h ****           uint32_t boundary1  : 12;  /**< Boundary value for results comparison*/
1085:C:/Workspace/DAVE-4.4.2-64Bit/xmc1400-getstarted-optiga-trust-m/Libraries/XMCLib/inc\xmc_vadc.h ****           uint32_t            : 4;
1086:C:/Workspace/DAVE-4.4.2-64Bit/xmc1400-getstarted-optiga-trust-m/Libraries/XMCLib/inc\xmc_vadc.h ****        };
1087:C:/Workspace/DAVE-4.4.2-64Bit/xmc1400-getstarted-optiga-trust-m/Libraries/XMCLib/inc\xmc_vadc.h ****        uint32_t globbound;
1088:C:/Workspace/DAVE-4.4.2-64Bit/xmc1400-getstarted-optiga-trust-m/Libraries/XMCLib/inc\xmc_vadc.h ****     };
1089:C:/Workspace/DAVE-4.4.2-64Bit/xmc1400-getstarted-optiga-trust-m/Libraries/XMCLib/inc\xmc_vadc.h **** #if (XMC_VADC_GROUP_AVAILABLE != 0U)
1090:C:/Workspace/DAVE-4.4.2-64Bit/xmc1400-getstarted-optiga-trust-m/Libraries/XMCLib/inc\xmc_vadc.h ****     XMC_VADC_GLOBAL_CLOCK_t clock_config; /**< ADC clock configurations*/
1091:C:/Workspace/DAVE-4.4.2-64Bit/xmc1400-getstarted-optiga-trust-m/Libraries/XMCLib/inc\xmc_vadc.h **** #endif
1092:C:/Workspace/DAVE-4.4.2-64Bit/xmc1400-getstarted-optiga-trust-m/Libraries/XMCLib/inc\xmc_vadc.h ****     XMC_VADC_GLOBAL_CLASS_t  class0;      /**< ADC input conversion configurations for GLOBICLASS[0
1093:C:/Workspace/DAVE-4.4.2-64Bit/xmc1400-getstarted-optiga-trust-m/Libraries/XMCLib/inc\xmc_vadc.h ****     XMC_VADC_GLOBAL_CLASS_t  class1;      /**< ADC input conversion configurations for GLOBICLASS[1
1094:C:/Workspace/DAVE-4.4.2-64Bit/xmc1400-getstarted-optiga-trust-m/Libraries/XMCLib/inc\xmc_vadc.h ****     union
1095:C:/Workspace/DAVE-4.4.2-64Bit/xmc1400-getstarted-optiga-trust-m/Libraries/XMCLib/inc\xmc_vadc.h ****     {
1096:C:/Workspace/DAVE-4.4.2-64Bit/xmc1400-getstarted-optiga-trust-m/Libraries/XMCLib/inc\xmc_vadc.h ****        struct
1097:C:/Workspace/DAVE-4.4.2-64Bit/xmc1400-getstarted-optiga-trust-m/Libraries/XMCLib/inc\xmc_vadc.h ****        {
1098:C:/Workspace/DAVE-4.4.2-64Bit/xmc1400-getstarted-optiga-trust-m/Libraries/XMCLib/inc\xmc_vadc.h ****           uint32_t                         : 16;
1099:C:/Workspace/DAVE-4.4.2-64Bit/xmc1400-getstarted-optiga-trust-m/Libraries/XMCLib/inc\xmc_vadc.h ****           uint32_t data_reduction_control  : 4;  /**< Data reduction stages */
1100:C:/Workspace/DAVE-4.4.2-64Bit/xmc1400-getstarted-optiga-trust-m/Libraries/XMCLib/inc\xmc_vadc.h ****           uint32_t                         : 4;
1101:C:/Workspace/DAVE-4.4.2-64Bit/xmc1400-getstarted-optiga-trust-m/Libraries/XMCLib/inc\xmc_vadc.h ****           uint32_t wait_for_read_mode      : 1;  /**< Results of the next conversion will not be ov
1102:C:/Workspace/DAVE-4.4.2-64Bit/xmc1400-getstarted-optiga-trust-m/Libraries/XMCLib/inc\xmc_vadc.h ****                                                       result register until the previous value is r
1103:C:/Workspace/DAVE-4.4.2-64Bit/xmc1400-getstarted-optiga-trust-m/Libraries/XMCLib/inc\xmc_vadc.h ****           uint32_t                         : 6;
1104:C:/Workspace/DAVE-4.4.2-64Bit/xmc1400-getstarted-optiga-trust-m/Libraries/XMCLib/inc\xmc_vadc.h ****           uint32_t event_gen_enable        : 1;  /**< Generates an event on availability of new res
1105:C:/Workspace/DAVE-4.4.2-64Bit/xmc1400-getstarted-optiga-trust-m/Libraries/XMCLib/inc\xmc_vadc.h ****        };
1106:C:/Workspace/DAVE-4.4.2-64Bit/xmc1400-getstarted-optiga-trust-m/Libraries/XMCLib/inc\xmc_vadc.h ****        uint32_t globrcr;
1107:C:/Workspace/DAVE-4.4.2-64Bit/xmc1400-getstarted-optiga-trust-m/Libraries/XMCLib/inc\xmc_vadc.h ****     };
1108:C:/Workspace/DAVE-4.4.2-64Bit/xmc1400-getstarted-optiga-trust-m/Libraries/XMCLib/inc\xmc_vadc.h ****     union
1109:C:/Workspace/DAVE-4.4.2-64Bit/xmc1400-getstarted-optiga-trust-m/Libraries/XMCLib/inc\xmc_vadc.h ****     {
1110:C:/Workspace/DAVE-4.4.2-64Bit/xmc1400-getstarted-optiga-trust-m/Libraries/XMCLib/inc\xmc_vadc.h ****        struct
1111:C:/Workspace/DAVE-4.4.2-64Bit/xmc1400-getstarted-optiga-trust-m/Libraries/XMCLib/inc\xmc_vadc.h ****        {
1112:C:/Workspace/DAVE-4.4.2-64Bit/xmc1400-getstarted-optiga-trust-m/Libraries/XMCLib/inc\xmc_vadc.h ****           uint32_t module_disable              : 1;  /**< Disables the module clock.*/
1113:C:/Workspace/DAVE-4.4.2-64Bit/xmc1400-getstarted-optiga-trust-m/Libraries/XMCLib/inc\xmc_vadc.h ****           uint32_t                             : 2;
1114:C:/Workspace/DAVE-4.4.2-64Bit/xmc1400-getstarted-optiga-trust-m/Libraries/XMCLib/inc\xmc_vadc.h ****           uint32_t disable_sleep_mode_control  : 1;  /**< Set it to true in order to disable the Sl
1115:C:/Workspace/DAVE-4.4.2-64Bit/xmc1400-getstarted-optiga-trust-m/Libraries/XMCLib/inc\xmc_vadc.h ****           uint32_t                             : 28;
1116:C:/Workspace/DAVE-4.4.2-64Bit/xmc1400-getstarted-optiga-trust-m/Libraries/XMCLib/inc\xmc_vadc.h ****        };
1117:C:/Workspace/DAVE-4.4.2-64Bit/xmc1400-getstarted-optiga-trust-m/Libraries/XMCLib/inc\xmc_vadc.h ****        uint32_t clc;
1118:C:/Workspace/DAVE-4.4.2-64Bit/xmc1400-getstarted-optiga-trust-m/Libraries/XMCLib/inc\xmc_vadc.h ****     };
1119:C:/Workspace/DAVE-4.4.2-64Bit/xmc1400-getstarted-optiga-trust-m/Libraries/XMCLib/inc\xmc_vadc.h **** } XMC_VADC_GLOBAL_CONFIG_t;
1120:C:/Workspace/DAVE-4.4.2-64Bit/xmc1400-getstarted-optiga-trust-m/Libraries/XMCLib/inc\xmc_vadc.h **** 
1121:C:/Workspace/DAVE-4.4.2-64Bit/xmc1400-getstarted-optiga-trust-m/Libraries/XMCLib/inc\xmc_vadc.h **** 
1122:C:/Workspace/DAVE-4.4.2-64Bit/xmc1400-getstarted-optiga-trust-m/Libraries/XMCLib/inc\xmc_vadc.h **** /**
1123:C:/Workspace/DAVE-4.4.2-64Bit/xmc1400-getstarted-optiga-trust-m/Libraries/XMCLib/inc\xmc_vadc.h ****  *  Structure to initialize the group input class configuration. Configured parameters are sample t
1124:C:/Workspace/DAVE-4.4.2-64Bit/xmc1400-getstarted-optiga-trust-m/Libraries/XMCLib/inc\xmc_vadc.h ****  *  conversion Mode.
1125:C:/Workspace/DAVE-4.4.2-64Bit/xmc1400-getstarted-optiga-trust-m/Libraries/XMCLib/inc\xmc_vadc.h ****  */
1126:C:/Workspace/DAVE-4.4.2-64Bit/xmc1400-getstarted-optiga-trust-m/Libraries/XMCLib/inc\xmc_vadc.h **** typedef struct XMC_VADC_GROUP_CLASS
1127:C:/Workspace/DAVE-4.4.2-64Bit/xmc1400-getstarted-optiga-trust-m/Libraries/XMCLib/inc\xmc_vadc.h **** {
1128:C:/Workspace/DAVE-4.4.2-64Bit/xmc1400-getstarted-optiga-trust-m/Libraries/XMCLib/inc\xmc_vadc.h ****     union
1129:C:/Workspace/DAVE-4.4.2-64Bit/xmc1400-getstarted-optiga-trust-m/Libraries/XMCLib/inc\xmc_vadc.h ****     {
1130:C:/Workspace/DAVE-4.4.2-64Bit/xmc1400-getstarted-optiga-trust-m/Libraries/XMCLib/inc\xmc_vadc.h ****        struct
1131:C:/Workspace/DAVE-4.4.2-64Bit/xmc1400-getstarted-optiga-trust-m/Libraries/XMCLib/inc\xmc_vadc.h ****        {
1132:C:/Workspace/DAVE-4.4.2-64Bit/xmc1400-getstarted-optiga-trust-m/Libraries/XMCLib/inc\xmc_vadc.h ****           uint32_t sample_time_std_conv            : 5;  /**< Sample time for channels directly con
1133:C:/Workspace/DAVE-4.4.2-64Bit/xmc1400-getstarted-optiga-trust-m/Libraries/XMCLib/inc\xmc_vadc.h ****                                                               <BR>Range: [0x0 to 0x1F] */
