   1              	 .cpu cortex-m0
   2              	 .fpu softvfp
   3              	 .eabi_attribute 20,1
   4              	 .eabi_attribute 21,1
   5              	 .eabi_attribute 23,3
   6              	 .eabi_attribute 24,1
   7              	 .eabi_attribute 25,1
   8              	 .eabi_attribute 26,1
   9              	 .eabi_attribute 30,4
  10              	 .eabi_attribute 34,0
  11              	 .eabi_attribute 18,4
  12              	 .code 16
  13              	 .file "xmc_usic.c"
  14              	 .text
  15              	.Ltext0:
  16              	 .cfi_sections .debug_frame
  17              	 .section .text.XMC_USIC_Enable.part.0,"ax",%progbits
  18              	 .align 1
  19              	 .code 16
  20              	 .thumb_func
  22              	XMC_USIC_Enable.part.0:
  23              	.LFB145:
  24              	 .file 1 "../Libraries/XMCLib/src/xmc_usic.c"
   1:../Libraries/XMCLib/src/xmc_usic.c **** /**
   2:../Libraries/XMCLib/src/xmc_usic.c ****  * @file xmc_usic.c
   3:../Libraries/XMCLib/src/xmc_usic.c ****  * @date 2019-07-01
   4:../Libraries/XMCLib/src/xmc_usic.c ****  *
   5:../Libraries/XMCLib/src/xmc_usic.c ****  * @cond
   6:../Libraries/XMCLib/src/xmc_usic.c ****  **************************************************************************************************
   7:../Libraries/XMCLib/src/xmc_usic.c ****  * XMClib v2.1.24 - XMC Peripheral Driver Library 
   8:../Libraries/XMCLib/src/xmc_usic.c ****  *
   9:../Libraries/XMCLib/src/xmc_usic.c ****  * Copyright (c) 2015-2019, Infineon Technologies AG
  10:../Libraries/XMCLib/src/xmc_usic.c ****  * All rights reserved.                        
  11:../Libraries/XMCLib/src/xmc_usic.c ****  *                                             
  12:../Libraries/XMCLib/src/xmc_usic.c ****  * Redistribution and use in source and binary forms, with or without modification,are permitted pr
  13:../Libraries/XMCLib/src/xmc_usic.c ****  * following conditions are met:   
  14:../Libraries/XMCLib/src/xmc_usic.c ****  *                                                                              
  15:../Libraries/XMCLib/src/xmc_usic.c ****  * Redistributions of source code must retain the above copyright notice, this list of conditions a
  16:../Libraries/XMCLib/src/xmc_usic.c ****  * disclaimer.                        
  17:../Libraries/XMCLib/src/xmc_usic.c ****  * 
  18:../Libraries/XMCLib/src/xmc_usic.c ****  * Redistributions in binary form must reproduce the above copyright notice, this list of condition
  19:../Libraries/XMCLib/src/xmc_usic.c ****  * disclaimer in the documentation and/or other materials provided with the distribution.          
  20:../Libraries/XMCLib/src/xmc_usic.c ****  * 
  21:../Libraries/XMCLib/src/xmc_usic.c ****  * Neither the name of the copyright holders nor the names of its contributors may be used to endor
  22:../Libraries/XMCLib/src/xmc_usic.c ****  * products derived from this software without specific prior written permission.                  
  23:../Libraries/XMCLib/src/xmc_usic.c ****  *                                                                              
  24:../Libraries/XMCLib/src/xmc_usic.c ****  * THIS SOFTWARE IS PROVIDED BY THE COPYRIGHT HOLDERS AND CONTRIBUTORS "AS IS" AND ANY EXPRESS OR I
  25:../Libraries/XMCLib/src/xmc_usic.c ****  * INCLUDING, BUT NOT LIMITED TO, THE IMPLIED WARRANTIES OF MERCHANTABILITY AND FITNESS FOR A PARTI
  26:../Libraries/XMCLib/src/xmc_usic.c ****  * DISCLAIMED. IN NO EVENT SHALL THE COPYRIGHT HOLDER OR CONTRIBUTORS BE LIABLE  FOR ANY DIRECT, IN
  27:../Libraries/XMCLib/src/xmc_usic.c ****  * SPECIAL, EXEMPLARY, OR CONSEQUENTIAL DAMAGES (INCLUDING, BUT NOT LIMITED TO, PROCUREMENT OF SUBS
  28:../Libraries/XMCLib/src/xmc_usic.c ****  * SERVICES; LOSS OF USE, DATA, OR PROFITS; OR BUSINESS INTERRUPTION) HOWEVER CAUSED AND ON ANY THE
  29:../Libraries/XMCLib/src/xmc_usic.c ****  * WHETHER IN CONTRACT, STRICT LIABILITY,OR TORT (INCLUDING NEGLIGENCE OR OTHERWISE) ARISING IN ANY
  30:../Libraries/XMCLib/src/xmc_usic.c ****  * OF THIS SOFTWARE, EVEN IF ADVISED OF THE POSSIBILITY OF SUCH DAMAGE.                            
  31:../Libraries/XMCLib/src/xmc_usic.c ****  *                                                                              
  32:../Libraries/XMCLib/src/xmc_usic.c ****  * To improve the quality of the software, users are encouraged to share modifications, enhancement
  33:../Libraries/XMCLib/src/xmc_usic.c ****  * Infineon Technologies AG dave@infineon.com).                                                    
  34:../Libraries/XMCLib/src/xmc_usic.c ****  **************************************************************************************************
  35:../Libraries/XMCLib/src/xmc_usic.c ****  *
  36:../Libraries/XMCLib/src/xmc_usic.c ****  * Change History
  37:../Libraries/XMCLib/src/xmc_usic.c ****  * --------------
  38:../Libraries/XMCLib/src/xmc_usic.c ****  *
  39:../Libraries/XMCLib/src/xmc_usic.c ****  * 2015-02-20:
  40:../Libraries/XMCLib/src/xmc_usic.c ****  *     - Initial draft <br>
  41:../Libraries/XMCLib/src/xmc_usic.c ****  *     - Documentation improved <br>
  42:../Libraries/XMCLib/src/xmc_usic.c ****  *
  43:../Libraries/XMCLib/src/xmc_usic.c ****  * 2015-05-08:
  44:../Libraries/XMCLib/src/xmc_usic.c ****  *     - Clearing bit fields PDIV, PCTQ, PPPEN in XMC_USIC_CH_SetBaudrate() API <br>
  45:../Libraries/XMCLib/src/xmc_usic.c ****  *      
  46:../Libraries/XMCLib/src/xmc_usic.c ****  * 2015-06-20:
  47:../Libraries/XMCLib/src/xmc_usic.c ****  *     - Removed version macros and declaration of GetDriverVersion API <br>
  48:../Libraries/XMCLib/src/xmc_usic.c ****  *
  49:../Libraries/XMCLib/src/xmc_usic.c ****  * 2015-08-27:
  50:../Libraries/XMCLib/src/xmc_usic.c ****  *     - Added APIs for external input for BRG configuration:XMC_USIC_CH_ConfigExternalInputSignalT
  51:../Libraries/XMCLib/src/xmc_usic.c ****  *
  52:../Libraries/XMCLib/src/xmc_usic.c ****  * 2015-08-28:
  53:../Libraries/XMCLib/src/xmc_usic.c ****  *     - Added asserts to XMC_USIC_CH_ConfigExternalInputSignalToBRG() <br>
  54:../Libraries/XMCLib/src/xmc_usic.c ****  *
  55:../Libraries/XMCLib/src/xmc_usic.c ****  * 2015-09-01:
  56:../Libraries/XMCLib/src/xmc_usic.c ****  *     - Fixed warning in the asserts <br>
  57:../Libraries/XMCLib/src/xmc_usic.c ****  *
  58:../Libraries/XMCLib/src/xmc_usic.c ****  * 2018-09-29:
  59:../Libraries/XMCLib/src/xmc_usic.c ****  *     - Added XMC_USIC_CH_SetBaudrateEx which uses the integer divider instead of the fractional d
  60:../Libraries/XMCLib/src/xmc_usic.c ****  * 
  61:../Libraries/XMCLib/src/xmc_usic.c ****  * 2019-03-30:
  62:../Libraries/XMCLib/src/xmc_usic.c ****  *     - Changed XMC_USIC_Enable() adding polling to check clock ungate
  63:../Libraries/XMCLib/src/xmc_usic.c ****  *
  64:../Libraries/XMCLib/src/xmc_usic.c ****  * 2019-05-07:
  65:../Libraries/XMCLib/src/xmc_usic.c ****  *     - Added XMC_USIC_CH_GetBaudrate(), XMC_USIC_CH_GetSCLKFrequency() and XMC_USIC_CH_GetMCLKFre
  66:../Libraries/XMCLib/src/xmc_usic.c ****  *
  67:../Libraries/XMCLib/src/xmc_usic.c ****  * 2019-07-01:
  68:../Libraries/XMCLib/src/xmc_usic.c ****  *     - XMC_USIC_CH_SetBaudrateEx() change type of input parameters
  69:../Libraries/XMCLib/src/xmc_usic.c ****  *
  70:../Libraries/XMCLib/src/xmc_usic.c ****  * @endcond
  71:../Libraries/XMCLib/src/xmc_usic.c ****  *
  72:../Libraries/XMCLib/src/xmc_usic.c ****  */
  73:../Libraries/XMCLib/src/xmc_usic.c **** 
  74:../Libraries/XMCLib/src/xmc_usic.c **** /*******************************************************************************
  75:../Libraries/XMCLib/src/xmc_usic.c ****  * HEADER FILES
  76:../Libraries/XMCLib/src/xmc_usic.c ****  *******************************************************************************/
  77:../Libraries/XMCLib/src/xmc_usic.c **** 
  78:../Libraries/XMCLib/src/xmc_usic.c **** #include "xmc_usic.h"
  79:../Libraries/XMCLib/src/xmc_usic.c **** #include "xmc_scu.h"
  80:../Libraries/XMCLib/src/xmc_usic.c **** 
  81:../Libraries/XMCLib/src/xmc_usic.c **** #include <stdlib.h>     /* abs */
  82:../Libraries/XMCLib/src/xmc_usic.c **** 
  83:../Libraries/XMCLib/src/xmc_usic.c **** /*******************************************************************************
  84:../Libraries/XMCLib/src/xmc_usic.c ****  * MACROS
  85:../Libraries/XMCLib/src/xmc_usic.c ****  *******************************************************************************/
  86:../Libraries/XMCLib/src/xmc_usic.c **** 
  87:../Libraries/XMCLib/src/xmc_usic.c **** #define USIC_CH_INPR_Msk       (0x7UL)
  88:../Libraries/XMCLib/src/xmc_usic.c **** 
  89:../Libraries/XMCLib/src/xmc_usic.c **** /*******************************************************************************
  90:../Libraries/XMCLib/src/xmc_usic.c ****  * API IMPLEMENTATION
  91:../Libraries/XMCLib/src/xmc_usic.c ****  *******************************************************************************/
  92:../Libraries/XMCLib/src/xmc_usic.c **** 
  93:../Libraries/XMCLib/src/xmc_usic.c **** void XMC_USIC_CH_Enable(XMC_USIC_CH_t *const channel)
  94:../Libraries/XMCLib/src/xmc_usic.c **** {
  95:../Libraries/XMCLib/src/xmc_usic.c ****   XMC_ASSERT("XMC_USIC_CH_Enable: channel not valid", XMC_USIC_IsChannelValid(channel));
  96:../Libraries/XMCLib/src/xmc_usic.c **** 
  97:../Libraries/XMCLib/src/xmc_usic.c ****   if ((channel == XMC_USIC0_CH0) || (channel == XMC_USIC0_CH1))
  98:../Libraries/XMCLib/src/xmc_usic.c ****   {
  99:../Libraries/XMCLib/src/xmc_usic.c ****     XMC_USIC_Enable(XMC_USIC0);
 100:../Libraries/XMCLib/src/xmc_usic.c ****   }
 101:../Libraries/XMCLib/src/xmc_usic.c **** #if defined(USIC1)
 102:../Libraries/XMCLib/src/xmc_usic.c ****   else if((channel == XMC_USIC1_CH0) || (channel == XMC_USIC1_CH1))
 103:../Libraries/XMCLib/src/xmc_usic.c ****   {
 104:../Libraries/XMCLib/src/xmc_usic.c ****     XMC_USIC_Enable(XMC_USIC1);
 105:../Libraries/XMCLib/src/xmc_usic.c ****   }
 106:../Libraries/XMCLib/src/xmc_usic.c **** #endif
 107:../Libraries/XMCLib/src/xmc_usic.c **** #if defined(USIC2)
 108:../Libraries/XMCLib/src/xmc_usic.c ****   else if((channel == XMC_USIC2_CH0) || (channel == XMC_USIC2_CH1))
 109:../Libraries/XMCLib/src/xmc_usic.c ****   {
 110:../Libraries/XMCLib/src/xmc_usic.c ****     XMC_USIC_Enable(XMC_USIC2);
 111:../Libraries/XMCLib/src/xmc_usic.c ****   }
 112:../Libraries/XMCLib/src/xmc_usic.c **** #endif
 113:../Libraries/XMCLib/src/xmc_usic.c ****   else
 114:../Libraries/XMCLib/src/xmc_usic.c ****   {
 115:../Libraries/XMCLib/src/xmc_usic.c ****     XMC_ASSERT("USIC module not available", 0U/*Always*/);
 116:../Libraries/XMCLib/src/xmc_usic.c ****   }
 117:../Libraries/XMCLib/src/xmc_usic.c **** 
 118:../Libraries/XMCLib/src/xmc_usic.c ****   /* USIC channel switched on*/
 119:../Libraries/XMCLib/src/xmc_usic.c ****   channel->KSCFG = (USIC_CH_KSCFG_MODEN_Msk | USIC_CH_KSCFG_BPMODEN_Msk);
 120:../Libraries/XMCLib/src/xmc_usic.c ****   while ((channel->KSCFG & USIC_CH_KSCFG_MODEN_Msk) == 0U)
 121:../Libraries/XMCLib/src/xmc_usic.c ****   {
 122:../Libraries/XMCLib/src/xmc_usic.c ****     /* Wait till the channel is enabled */
 123:../Libraries/XMCLib/src/xmc_usic.c ****   }
 124:../Libraries/XMCLib/src/xmc_usic.c **** 
 125:../Libraries/XMCLib/src/xmc_usic.c ****   /* Set USIC channel in IDLE mode */
 126:../Libraries/XMCLib/src/xmc_usic.c ****   channel->CCR &= (uint32_t)~USIC_CH_CCR_MODE_Msk;
 127:../Libraries/XMCLib/src/xmc_usic.c **** }
 128:../Libraries/XMCLib/src/xmc_usic.c **** 
 129:../Libraries/XMCLib/src/xmc_usic.c **** void XMC_USIC_CH_Disable(XMC_USIC_CH_t *const channel)
 130:../Libraries/XMCLib/src/xmc_usic.c **** {
 131:../Libraries/XMCLib/src/xmc_usic.c ****   channel->KSCFG = (uint32_t)((channel->KSCFG & (~USIC_CH_KSCFG_MODEN_Msk)) | USIC_CH_KSCFG_BPMODEN
 132:../Libraries/XMCLib/src/xmc_usic.c **** }
 133:../Libraries/XMCLib/src/xmc_usic.c **** 
 134:../Libraries/XMCLib/src/xmc_usic.c **** XMC_USIC_CH_STATUS_t XMC_USIC_CH_SetBaudrate(XMC_USIC_CH_t *const channel, uint32_t rate, uint32_t 
 135:../Libraries/XMCLib/src/xmc_usic.c **** {
 136:../Libraries/XMCLib/src/xmc_usic.c ****   XMC_USIC_CH_STATUS_t status;
 137:../Libraries/XMCLib/src/xmc_usic.c ****   
 138:../Libraries/XMCLib/src/xmc_usic.c ****   uint32_t peripheral_clock;
 139:../Libraries/XMCLib/src/xmc_usic.c ****   
 140:../Libraries/XMCLib/src/xmc_usic.c ****   uint32_t clock_divider;
 141:../Libraries/XMCLib/src/xmc_usic.c ****   uint32_t clock_divider_min;
 142:../Libraries/XMCLib/src/xmc_usic.c **** 
 143:../Libraries/XMCLib/src/xmc_usic.c ****   uint32_t pdiv;
 144:../Libraries/XMCLib/src/xmc_usic.c ****   uint32_t pdiv_int;
 145:../Libraries/XMCLib/src/xmc_usic.c ****   uint32_t pdiv_int_min;
 146:../Libraries/XMCLib/src/xmc_usic.c ****   
 147:../Libraries/XMCLib/src/xmc_usic.c ****   uint32_t pdiv_frac;
 148:../Libraries/XMCLib/src/xmc_usic.c ****   uint32_t pdiv_frac_min;
 149:../Libraries/XMCLib/src/xmc_usic.c **** 
 150:../Libraries/XMCLib/src/xmc_usic.c ****   /* The rate and peripheral clock are divided by 100 to be able to use only 32bit arithmetic */
 151:../Libraries/XMCLib/src/xmc_usic.c ****   if ((rate >= 100U) && (oversampling != 0U))
 152:../Libraries/XMCLib/src/xmc_usic.c ****   {
 153:../Libraries/XMCLib/src/xmc_usic.c ****     peripheral_clock = XMC_SCU_CLOCK_GetPeripheralClockFrequency() / 100U;
 154:../Libraries/XMCLib/src/xmc_usic.c ****     rate = rate / 100U;
 155:../Libraries/XMCLib/src/xmc_usic.c **** 
 156:../Libraries/XMCLib/src/xmc_usic.c ****     clock_divider_min = 1U;
 157:../Libraries/XMCLib/src/xmc_usic.c ****     pdiv_int_min = 1U;
 158:../Libraries/XMCLib/src/xmc_usic.c ****     pdiv_frac_min = 0x3ffU;
 159:../Libraries/XMCLib/src/xmc_usic.c **** 
 160:../Libraries/XMCLib/src/xmc_usic.c ****     for(clock_divider = 1023U; clock_divider > 0U; --clock_divider)
 161:../Libraries/XMCLib/src/xmc_usic.c ****     {
 162:../Libraries/XMCLib/src/xmc_usic.c ****       pdiv = ((peripheral_clock * clock_divider) / (rate * oversampling));
 163:../Libraries/XMCLib/src/xmc_usic.c ****       pdiv_int = pdiv >> 10U;
 164:../Libraries/XMCLib/src/xmc_usic.c ****       pdiv_frac = pdiv & 0x3ffU;
 165:../Libraries/XMCLib/src/xmc_usic.c **** 
 166:../Libraries/XMCLib/src/xmc_usic.c ****       if ((pdiv_int < 1024U) && (pdiv_frac < pdiv_frac_min))
 167:../Libraries/XMCLib/src/xmc_usic.c ****       {
 168:../Libraries/XMCLib/src/xmc_usic.c ****         pdiv_frac_min = pdiv_frac;
 169:../Libraries/XMCLib/src/xmc_usic.c ****         pdiv_int_min = pdiv_int;
 170:../Libraries/XMCLib/src/xmc_usic.c ****         clock_divider_min = clock_divider;
 171:../Libraries/XMCLib/src/xmc_usic.c ****       }
 172:../Libraries/XMCLib/src/xmc_usic.c ****     }
 173:../Libraries/XMCLib/src/xmc_usic.c **** 
 174:../Libraries/XMCLib/src/xmc_usic.c ****     channel->FDR = XMC_USIC_CH_BRG_CLOCK_DIVIDER_MODE_FRACTIONAL |
 175:../Libraries/XMCLib/src/xmc_usic.c ****                    (clock_divider_min << USIC_CH_FDR_STEP_Pos);
 176:../Libraries/XMCLib/src/xmc_usic.c **** 
 177:../Libraries/XMCLib/src/xmc_usic.c ****     channel->BRG = (channel->BRG & ~(USIC_CH_BRG_DCTQ_Msk |
 178:../Libraries/XMCLib/src/xmc_usic.c ****                                      USIC_CH_BRG_PDIV_Msk |
 179:../Libraries/XMCLib/src/xmc_usic.c ****                                      USIC_CH_BRG_PCTQ_Msk |
 180:../Libraries/XMCLib/src/xmc_usic.c ****                                      USIC_CH_BRG_PPPEN_Msk)) |
 181:../Libraries/XMCLib/src/xmc_usic.c ****                    ((oversampling - 1U) << USIC_CH_BRG_DCTQ_Pos) |
 182:../Libraries/XMCLib/src/xmc_usic.c ****                    ((pdiv_int_min - 1U) << USIC_CH_BRG_PDIV_Pos);
 183:../Libraries/XMCLib/src/xmc_usic.c ****                     
 184:../Libraries/XMCLib/src/xmc_usic.c ****     status = XMC_USIC_CH_STATUS_OK;
 185:../Libraries/XMCLib/src/xmc_usic.c ****   }
 186:../Libraries/XMCLib/src/xmc_usic.c ****   else 
 187:../Libraries/XMCLib/src/xmc_usic.c ****   {
 188:../Libraries/XMCLib/src/xmc_usic.c ****     status = XMC_USIC_CH_STATUS_ERROR;
 189:../Libraries/XMCLib/src/xmc_usic.c ****   }
 190:../Libraries/XMCLib/src/xmc_usic.c ****   
 191:../Libraries/XMCLib/src/xmc_usic.c ****   return status;
 192:../Libraries/XMCLib/src/xmc_usic.c **** }
 193:../Libraries/XMCLib/src/xmc_usic.c **** 
 194:../Libraries/XMCLib/src/xmc_usic.c **** XMC_USIC_CH_STATUS_t XMC_USIC_CH_SetBaudrateEx(XMC_USIC_CH_t *const channel, int32_t rate, int32_t 
 195:../Libraries/XMCLib/src/xmc_usic.c **** {
 196:../Libraries/XMCLib/src/xmc_usic.c ****   int32_t peripheral_clock = XMC_SCU_CLOCK_GetPeripheralClockFrequency();
 197:../Libraries/XMCLib/src/xmc_usic.c ****   int32_t brg_clock = rate * oversampling;
 198:../Libraries/XMCLib/src/xmc_usic.c ****   int32_t actual_rate_upper;
 199:../Libraries/XMCLib/src/xmc_usic.c ****   int32_t actual_rate_lower;
 200:../Libraries/XMCLib/src/xmc_usic.c ****   uint32_t pdiv = 1;
 201:../Libraries/XMCLib/src/xmc_usic.c ****   uint32_t divider_step;
 202:../Libraries/XMCLib/src/xmc_usic.c ****   XMC_USIC_CH_STATUS_t status;
 203:../Libraries/XMCLib/src/xmc_usic.c **** 
 204:../Libraries/XMCLib/src/xmc_usic.c ****   if (peripheral_clock > brg_clock)
 205:../Libraries/XMCLib/src/xmc_usic.c ****   {
 206:../Libraries/XMCLib/src/xmc_usic.c ****     divider_step = peripheral_clock / brg_clock; // integer division gets truncated
 207:../Libraries/XMCLib/src/xmc_usic.c ****     while (divider_step >= 1023)
 208:../Libraries/XMCLib/src/xmc_usic.c ****     {
 209:../Libraries/XMCLib/src/xmc_usic.c ****       pdiv++;
 210:../Libraries/XMCLib/src/xmc_usic.c ****       brg_clock = rate * oversampling * pdiv;
 211:../Libraries/XMCLib/src/xmc_usic.c ****       divider_step = peripheral_clock / brg_clock; // integer division gets truncated
 212:../Libraries/XMCLib/src/xmc_usic.c ****     }
 213:../Libraries/XMCLib/src/xmc_usic.c ****     actual_rate_upper = peripheral_clock / (divider_step * oversampling * pdiv);
 214:../Libraries/XMCLib/src/xmc_usic.c ****     actual_rate_lower = peripheral_clock / ((divider_step + 1) * oversampling * pdiv);
 215:../Libraries/XMCLib/src/xmc_usic.c **** 
 216:../Libraries/XMCLib/src/xmc_usic.c ****     // choose better approximation if the peripheral frequency is not a multiple of the baudrate
 217:../Libraries/XMCLib/src/xmc_usic.c ****     if (abs(rate - actual_rate_lower) < abs(rate - actual_rate_upper))
 218:../Libraries/XMCLib/src/xmc_usic.c ****     {
 219:../Libraries/XMCLib/src/xmc_usic.c ****       divider_step += 1;
 220:../Libraries/XMCLib/src/xmc_usic.c ****     }
 221:../Libraries/XMCLib/src/xmc_usic.c **** 
 222:../Libraries/XMCLib/src/xmc_usic.c ****     divider_step = 1024 - divider_step;
 223:../Libraries/XMCLib/src/xmc_usic.c **** 
 224:../Libraries/XMCLib/src/xmc_usic.c **** 
 225:../Libraries/XMCLib/src/xmc_usic.c ****     channel->FDR = XMC_USIC_CH_BRG_CLOCK_DIVIDER_MODE_NORMAL |
 226:../Libraries/XMCLib/src/xmc_usic.c ****                    (divider_step << USIC_CH_FDR_STEP_Pos);
 227:../Libraries/XMCLib/src/xmc_usic.c **** 
 228:../Libraries/XMCLib/src/xmc_usic.c ****     channel->BRG = (channel->BRG & ~(USIC_CH_BRG_DCTQ_Msk |
 229:../Libraries/XMCLib/src/xmc_usic.c ****                                      USIC_CH_BRG_PDIV_Msk |
 230:../Libraries/XMCLib/src/xmc_usic.c ****                                      USIC_CH_BRG_PCTQ_Msk |
 231:../Libraries/XMCLib/src/xmc_usic.c ****                                      USIC_CH_BRG_PPPEN_Msk)) |
 232:../Libraries/XMCLib/src/xmc_usic.c ****                    ((oversampling - 1U) << USIC_CH_BRG_DCTQ_Pos) |
 233:../Libraries/XMCLib/src/xmc_usic.c **** 				   ((pdiv -1) << USIC_CH_BRG_PDIV_Pos);
 234:../Libraries/XMCLib/src/xmc_usic.c **** 
 235:../Libraries/XMCLib/src/xmc_usic.c ****     status = XMC_USIC_CH_STATUS_OK;
 236:../Libraries/XMCLib/src/xmc_usic.c ****   }
 237:../Libraries/XMCLib/src/xmc_usic.c ****   else
 238:../Libraries/XMCLib/src/xmc_usic.c ****   {
 239:../Libraries/XMCLib/src/xmc_usic.c ****     status = XMC_USIC_CH_STATUS_ERROR;
 240:../Libraries/XMCLib/src/xmc_usic.c ****   }
 241:../Libraries/XMCLib/src/xmc_usic.c **** 
 242:../Libraries/XMCLib/src/xmc_usic.c ****   return status;
 243:../Libraries/XMCLib/src/xmc_usic.c **** }
 244:../Libraries/XMCLib/src/xmc_usic.c **** 
 245:../Libraries/XMCLib/src/xmc_usic.c **** uint32_t XMC_USIC_CH_GetBaudrate(XMC_USIC_CH_t *const channel)
 246:../Libraries/XMCLib/src/xmc_usic.c **** {
 247:../Libraries/XMCLib/src/xmc_usic.c ****   uint32_t divider;
 248:../Libraries/XMCLib/src/xmc_usic.c ****   if ((channel->BRG & USIC_CH_BRG_CTQSEL_Msk) == USIC_CH_BRG_CTQSEL_Msk)
 249:../Libraries/XMCLib/src/xmc_usic.c ****   {
 250:../Libraries/XMCLib/src/xmc_usic.c **** 	// CTQSEL = 3
 251:../Libraries/XMCLib/src/xmc_usic.c ****     divider = 2;
 252:../Libraries/XMCLib/src/xmc_usic.c ****   }
 253:../Libraries/XMCLib/src/xmc_usic.c ****   else
 254:../Libraries/XMCLib/src/xmc_usic.c ****   {
 255:../Libraries/XMCLib/src/xmc_usic.c **** 	// CTQSEL = 0, 1, or 2
 256:../Libraries/XMCLib/src/xmc_usic.c ****     divider = (channel->BRG & USIC_CH_BRG_PPPEN_Msk) ? 2 : 1;
 257:../Libraries/XMCLib/src/xmc_usic.c ****   
 258:../Libraries/XMCLib/src/xmc_usic.c ****     if ((((channel->BRG & USIC_CH_BRG_CTQSEL_Msk) >> USIC_CH_BRG_CTQSEL_Pos) & 0x1) == 0)
 259:../Libraries/XMCLib/src/xmc_usic.c ****     {
 260:../Libraries/XMCLib/src/xmc_usic.c **** 	  // CTQSEL = 0 or 2
 261:../Libraries/XMCLib/src/xmc_usic.c ****       divider *= ((channel->BRG & USIC_CH_BRG_PDIV_Msk) >> USIC_CH_BRG_PDIV_Pos) + 1;
 262:../Libraries/XMCLib/src/xmc_usic.c ****       if ((((channel->BRG & USIC_CH_BRG_CTQSEL_Msk) >> USIC_CH_BRG_CTQSEL_Pos) & 0x2) != 0)
 263:../Libraries/XMCLib/src/xmc_usic.c ****       {
 264:../Libraries/XMCLib/src/xmc_usic.c ****         // CTQSEL = 2
 265:../Libraries/XMCLib/src/xmc_usic.c ****         divider *= 2;
 266:../Libraries/XMCLib/src/xmc_usic.c ****       }
 267:../Libraries/XMCLib/src/xmc_usic.c ****     }
 268:../Libraries/XMCLib/src/xmc_usic.c ****   }
 269:../Libraries/XMCLib/src/xmc_usic.c **** 
 270:../Libraries/XMCLib/src/xmc_usic.c ****   divider *= ((channel->BRG & USIC_CH_BRG_PCTQ_Msk) >> USIC_CH_BRG_PCTQ_Pos) + 1;
 271:../Libraries/XMCLib/src/xmc_usic.c ****   divider *= ((channel->BRG & USIC_CH_BRG_DCTQ_Msk) >> USIC_CH_BRG_DCTQ_Pos) + 1;
 272:../Libraries/XMCLib/src/xmc_usic.c **** 
 273:../Libraries/XMCLib/src/xmc_usic.c ****   uint32_t fperi = XMC_SCU_CLOCK_GetPeripheralClockFrequency();
 274:../Libraries/XMCLib/src/xmc_usic.c ****   float baudrate;
 275:../Libraries/XMCLib/src/xmc_usic.c ****   if ((channel->FDR & USIC_CH_FDR_DM_Msk) == XMC_USIC_CH_BRG_CLOCK_DIVIDER_MODE_FRACTIONAL)
 276:../Libraries/XMCLib/src/xmc_usic.c ****   {
 277:../Libraries/XMCLib/src/xmc_usic.c **** 	baudrate = fperi * (((channel->FDR & USIC_CH_FDR_STEP_Msk) >> USIC_CH_FDR_STEP_Pos) / 1024.0F);
 278:../Libraries/XMCLib/src/xmc_usic.c ****   }
 279:../Libraries/XMCLib/src/xmc_usic.c ****   else
 280:../Libraries/XMCLib/src/xmc_usic.c ****   {
 281:../Libraries/XMCLib/src/xmc_usic.c ****     /* Normal divider mode */
 282:../Libraries/XMCLib/src/xmc_usic.c ****     baudrate = fperi * (1.0F / (1024 - ((channel->FDR & USIC_CH_FDR_STEP_Msk) >> USIC_CH_FDR_STEP_P
 283:../Libraries/XMCLib/src/xmc_usic.c ****   }
 284:../Libraries/XMCLib/src/xmc_usic.c **** 
 285:../Libraries/XMCLib/src/xmc_usic.c ****   baudrate /= divider;
 286:../Libraries/XMCLib/src/xmc_usic.c **** 
 287:../Libraries/XMCLib/src/xmc_usic.c ****   return baudrate;
 288:../Libraries/XMCLib/src/xmc_usic.c **** }
 289:../Libraries/XMCLib/src/xmc_usic.c **** 
 290:../Libraries/XMCLib/src/xmc_usic.c **** uint32_t XMC_USIC_CH_GetSCLKFrequency(XMC_USIC_CH_t *const channel)
 291:../Libraries/XMCLib/src/xmc_usic.c **** {
 292:../Libraries/XMCLib/src/xmc_usic.c ****   uint32_t divider;
 293:../Libraries/XMCLib/src/xmc_usic.c ****   divider = (channel->BRG & USIC_CH_BRG_PPPEN_Msk) ? 2 : 1;
 294:../Libraries/XMCLib/src/xmc_usic.c ****   divider *= ((channel->BRG & USIC_CH_BRG_PDIV_Msk) >> USIC_CH_BRG_PDIV_Pos) + 1;
 295:../Libraries/XMCLib/src/xmc_usic.c ****   divider *= 2;
 296:../Libraries/XMCLib/src/xmc_usic.c **** 
 297:../Libraries/XMCLib/src/xmc_usic.c ****   uint32_t fperi = XMC_SCU_CLOCK_GetPeripheralClockFrequency();
 298:../Libraries/XMCLib/src/xmc_usic.c ****   float baudrate;
 299:../Libraries/XMCLib/src/xmc_usic.c ****   if ((channel->FDR & USIC_CH_FDR_DM_Msk) == XMC_USIC_CH_BRG_CLOCK_DIVIDER_MODE_FRACTIONAL)
 300:../Libraries/XMCLib/src/xmc_usic.c ****   {
 301:../Libraries/XMCLib/src/xmc_usic.c ****     /* Fractional divider mode */
 302:../Libraries/XMCLib/src/xmc_usic.c ****     baudrate = fperi * (((channel->FDR & USIC_CH_FDR_STEP_Msk) >> USIC_CH_FDR_STEP_Pos) / 1024.0F);
 303:../Libraries/XMCLib/src/xmc_usic.c ****   }
 304:../Libraries/XMCLib/src/xmc_usic.c ****   else
 305:../Libraries/XMCLib/src/xmc_usic.c ****   {
 306:../Libraries/XMCLib/src/xmc_usic.c ****     /* Normal divider mode */
 307:../Libraries/XMCLib/src/xmc_usic.c ****     baudrate = fperi * (1.0F / (1024 - ((channel->FDR & USIC_CH_FDR_STEP_Msk) >> USIC_CH_FDR_STEP_P
 308:../Libraries/XMCLib/src/xmc_usic.c ****   }
 309:../Libraries/XMCLib/src/xmc_usic.c **** 
 310:../Libraries/XMCLib/src/xmc_usic.c ****   baudrate /= divider;
 311:../Libraries/XMCLib/src/xmc_usic.c **** 
 312:../Libraries/XMCLib/src/xmc_usic.c ****   return baudrate;
 313:../Libraries/XMCLib/src/xmc_usic.c **** }
 314:../Libraries/XMCLib/src/xmc_usic.c **** 
 315:../Libraries/XMCLib/src/xmc_usic.c **** uint32_t XMC_USIC_CH_GetMCLKFrequency(XMC_USIC_CH_t *const channel)
 316:../Libraries/XMCLib/src/xmc_usic.c **** {
 317:../Libraries/XMCLib/src/xmc_usic.c ****   uint32_t fperi = XMC_SCU_CLOCK_GetPeripheralClockFrequency();
 318:../Libraries/XMCLib/src/xmc_usic.c **** 
 319:../Libraries/XMCLib/src/xmc_usic.c ****   float baudrate;
 320:../Libraries/XMCLib/src/xmc_usic.c ****   if ((channel->FDR & USIC_CH_FDR_DM_Msk) == XMC_USIC_CH_BRG_CLOCK_DIVIDER_MODE_FRACTIONAL)
 321:../Libraries/XMCLib/src/xmc_usic.c ****   {
 322:../Libraries/XMCLib/src/xmc_usic.c ****     /* Fractional divider mode */
 323:../Libraries/XMCLib/src/xmc_usic.c ****     baudrate = fperi * (1.0F / (1024 - ((channel->FDR & USIC_CH_FDR_STEP_Msk) >> USIC_CH_FDR_STEP_P
 324:../Libraries/XMCLib/src/xmc_usic.c ****   }
 325:../Libraries/XMCLib/src/xmc_usic.c ****   else
 326:../Libraries/XMCLib/src/xmc_usic.c ****   {
 327:../Libraries/XMCLib/src/xmc_usic.c ****     /* Normal divider mode */
 328:../Libraries/XMCLib/src/xmc_usic.c ****     baudrate = fperi / (((channel->FDR & USIC_CH_FDR_STEP_Msk) >> USIC_CH_FDR_STEP_Pos) / 1024.0F);
 329:../Libraries/XMCLib/src/xmc_usic.c ****   }
 330:../Libraries/XMCLib/src/xmc_usic.c **** 
 331:../Libraries/XMCLib/src/xmc_usic.c ****   baudrate /= 2;
 332:../Libraries/XMCLib/src/xmc_usic.c **** 
 333:../Libraries/XMCLib/src/xmc_usic.c ****   return baudrate;
 334:../Libraries/XMCLib/src/xmc_usic.c **** }
 335:../Libraries/XMCLib/src/xmc_usic.c **** 
 336:../Libraries/XMCLib/src/xmc_usic.c **** 
 337:../Libraries/XMCLib/src/xmc_usic.c **** void XMC_USIC_CH_ConfigExternalInputSignalToBRG(XMC_USIC_CH_t *const channel,
 338:../Libraries/XMCLib/src/xmc_usic.c **** 		                                        const uint16_t pdiv,
 339:../Libraries/XMCLib/src/xmc_usic.c **** 												const uint32_t oversampling,
 340:../Libraries/XMCLib/src/xmc_usic.c **** 												const XMC_USIC_CH_INPUT_COMBINATION_MODE_t combination_mode)
 341:../Libraries/XMCLib/src/xmc_usic.c **** {
 342:../Libraries/XMCLib/src/xmc_usic.c ****   XMC_ASSERT("XMC_USIC_CH_ConfigExternalInputSignalToBRG: Divider out of range", ((1U < pdiv) || (p
 343:../Libraries/XMCLib/src/xmc_usic.c ****   XMC_ASSERT("XMC_USIC_CH_ConfigExternalInputSignalToBRG: Oversampling out of range", ((1U < oversa
 344:../Libraries/XMCLib/src/xmc_usic.c **** 
 345:../Libraries/XMCLib/src/xmc_usic.c ****   /* Setting the external input frequency source through DX1 */
 346:../Libraries/XMCLib/src/xmc_usic.c ****   XMC_USIC_CH_SetBRGInputClockSource(channel, XMC_USIC_CH_BRG_CLOCK_SOURCE_DX1T);
 347:../Libraries/XMCLib/src/xmc_usic.c **** 
 348:../Libraries/XMCLib/src/xmc_usic.c ****   /* Setting the trigger combination mode */
 349:../Libraries/XMCLib/src/xmc_usic.c ****   XMC_USIC_CH_SetInputTriggerCombinationMode(channel,XMC_USIC_CH_INPUT_DX1,combination_mode);
 350:../Libraries/XMCLib/src/xmc_usic.c **** 
 351:../Libraries/XMCLib/src/xmc_usic.c ****   /* Configuring the dividers and oversampling */
 352:../Libraries/XMCLib/src/xmc_usic.c ****   channel->BRG = (channel->BRG & ~(USIC_CH_BRG_DCTQ_Msk |
 353:../Libraries/XMCLib/src/xmc_usic.c ****                                    USIC_CH_BRG_PDIV_Msk |
 354:../Libraries/XMCLib/src/xmc_usic.c ****                                    USIC_CH_BRG_PCTQ_Msk |
 355:../Libraries/XMCLib/src/xmc_usic.c ****                                    USIC_CH_BRG_PPPEN_Msk)) |
 356:../Libraries/XMCLib/src/xmc_usic.c ****                   (((oversampling) - 1U) << USIC_CH_BRG_DCTQ_Pos) |
 357:../Libraries/XMCLib/src/xmc_usic.c ****                   (((pdiv) - 1U) << USIC_CH_BRG_PDIV_Pos);
 358:../Libraries/XMCLib/src/xmc_usic.c **** }
 359:../Libraries/XMCLib/src/xmc_usic.c **** 
 360:../Libraries/XMCLib/src/xmc_usic.c **** void XMC_USIC_CH_TXFIFO_Configure(XMC_USIC_CH_t *const channel,
 361:../Libraries/XMCLib/src/xmc_usic.c ****                                   const uint32_t data_pointer,
 362:../Libraries/XMCLib/src/xmc_usic.c ****                                   const XMC_USIC_CH_FIFO_SIZE_t size,
 363:../Libraries/XMCLib/src/xmc_usic.c ****                                   const uint32_t limit)
 364:../Libraries/XMCLib/src/xmc_usic.c **** {
 365:../Libraries/XMCLib/src/xmc_usic.c ****   /* Disable FIFO */
 366:../Libraries/XMCLib/src/xmc_usic.c ****   channel->TBCTR &= (uint32_t)~USIC_CH_TBCTR_SIZE_Msk;
 367:../Libraries/XMCLib/src/xmc_usic.c **** 
 368:../Libraries/XMCLib/src/xmc_usic.c ****   /* LOF = 0, A standard transmit buffer event occurs when the filling level equals the limit value
 369:../Libraries/XMCLib/src/xmc_usic.c ****    * lower due to transmission of a data word
 370:../Libraries/XMCLib/src/xmc_usic.c ****    * STBTEN = 0, the trigger of the standard transmit buffer event is based on the transition of th
 371:../Libraries/XMCLib/src/xmc_usic.c ****    *  from equal to below the limit, not the fact being below
 372:../Libraries/XMCLib/src/xmc_usic.c ****    */
 373:../Libraries/XMCLib/src/xmc_usic.c ****   channel->TBCTR = (uint32_t)(channel->TBCTR & (uint32_t)~(USIC_CH_TBCTR_LIMIT_Msk |
 374:../Libraries/XMCLib/src/xmc_usic.c ****                                                            USIC_CH_TBCTR_DPTR_Msk |
 375:../Libraries/XMCLib/src/xmc_usic.c ****                                                            USIC_CH_TBCTR_SIZE_Msk)) |
 376:../Libraries/XMCLib/src/xmc_usic.c ****                    (uint32_t)((limit << USIC_CH_TBCTR_LIMIT_Pos) |
 377:../Libraries/XMCLib/src/xmc_usic.c ****                    (data_pointer << USIC_CH_TBCTR_DPTR_Pos) |
 378:../Libraries/XMCLib/src/xmc_usic.c ****                    ((uint32_t)size << USIC_CH_TBCTR_SIZE_Pos));
 379:../Libraries/XMCLib/src/xmc_usic.c **** }
 380:../Libraries/XMCLib/src/xmc_usic.c **** 
 381:../Libraries/XMCLib/src/xmc_usic.c **** 
 382:../Libraries/XMCLib/src/xmc_usic.c **** void XMC_USIC_CH_RXFIFO_Configure(XMC_USIC_CH_t *const channel,
 383:../Libraries/XMCLib/src/xmc_usic.c ****                                   const uint32_t data_pointer,
 384:../Libraries/XMCLib/src/xmc_usic.c ****                                   const XMC_USIC_CH_FIFO_SIZE_t size,
 385:../Libraries/XMCLib/src/xmc_usic.c ****                                   const uint32_t limit)
 386:../Libraries/XMCLib/src/xmc_usic.c **** {
 387:../Libraries/XMCLib/src/xmc_usic.c ****   /* Disable FIFO */
 388:../Libraries/XMCLib/src/xmc_usic.c ****   channel->RBCTR &= (uint32_t)~USIC_CH_RBCTR_SIZE_Msk;
 389:../Libraries/XMCLib/src/xmc_usic.c **** 
 390:../Libraries/XMCLib/src/xmc_usic.c ****   /* LOF = 1, A standard receive buffer event occurs when the filling level equals the limit value 
 391:../Libraries/XMCLib/src/xmc_usic.c ****    *  due to the reception of a new data word
 392:../Libraries/XMCLib/src/xmc_usic.c ****    */
 393:../Libraries/XMCLib/src/xmc_usic.c ****   channel->RBCTR = (uint32_t)((channel->RBCTR & (uint32_t)~(USIC_CH_RBCTR_LIMIT_Msk |
 394:../Libraries/XMCLib/src/xmc_usic.c ****                                                             USIC_CH_RBCTR_DPTR_Msk |
 395:../Libraries/XMCLib/src/xmc_usic.c ****                                                             USIC_CH_RBCTR_LOF_Msk)) |
 396:../Libraries/XMCLib/src/xmc_usic.c ****                    ((limit << USIC_CH_RBCTR_LIMIT_Pos) |
 397:../Libraries/XMCLib/src/xmc_usic.c ****                    (data_pointer << USIC_CH_RBCTR_DPTR_Pos) |
 398:../Libraries/XMCLib/src/xmc_usic.c ****                    ((uint32_t)size << USIC_CH_RBCTR_SIZE_Pos) |
 399:../Libraries/XMCLib/src/xmc_usic.c ****                    (uint32_t)USIC_CH_RBCTR_LOF_Msk));
 400:../Libraries/XMCLib/src/xmc_usic.c **** }
 401:../Libraries/XMCLib/src/xmc_usic.c **** 
 402:../Libraries/XMCLib/src/xmc_usic.c **** void XMC_USIC_CH_TXFIFO_SetSizeTriggerLimit(XMC_USIC_CH_t *const channel,
 403:../Libraries/XMCLib/src/xmc_usic.c ****                                             const XMC_USIC_CH_FIFO_SIZE_t size,
 404:../Libraries/XMCLib/src/xmc_usic.c ****                                             const uint32_t limit)
 405:../Libraries/XMCLib/src/xmc_usic.c **** {
 406:../Libraries/XMCLib/src/xmc_usic.c ****   /* Disable FIFO */
 407:../Libraries/XMCLib/src/xmc_usic.c ****   channel->TBCTR &= (uint32_t)~USIC_CH_TBCTR_SIZE_Msk;
 408:../Libraries/XMCLib/src/xmc_usic.c **** 
 409:../Libraries/XMCLib/src/xmc_usic.c ****   /* STBTEN = 0, the trigger of the standard transmit buffer event is based on the transition of th
 410:../Libraries/XMCLib/src/xmc_usic.c ****    *  from equal to below the limit, not the fact being below
 411:../Libraries/XMCLib/src/xmc_usic.c ****    */
 412:../Libraries/XMCLib/src/xmc_usic.c ****   channel->TBCTR = (uint32_t)((uint32_t)(channel->TBCTR & (uint32_t)~USIC_CH_TBCTR_LIMIT_Msk) |
 413:../Libraries/XMCLib/src/xmc_usic.c ****                    (limit << USIC_CH_TBCTR_LIMIT_Pos) |
 414:../Libraries/XMCLib/src/xmc_usic.c ****                    ((uint32_t)size << USIC_CH_TBCTR_SIZE_Pos));
 415:../Libraries/XMCLib/src/xmc_usic.c **** }
 416:../Libraries/XMCLib/src/xmc_usic.c **** 
 417:../Libraries/XMCLib/src/xmc_usic.c **** void XMC_USIC_CH_RXFIFO_SetSizeTriggerLimit(XMC_USIC_CH_t *const channel,
 418:../Libraries/XMCLib/src/xmc_usic.c ****                                             const XMC_USIC_CH_FIFO_SIZE_t size,
 419:../Libraries/XMCLib/src/xmc_usic.c ****                                             const uint32_t limit)
 420:../Libraries/XMCLib/src/xmc_usic.c **** {
 421:../Libraries/XMCLib/src/xmc_usic.c ****   /* Disable FIFO */
 422:../Libraries/XMCLib/src/xmc_usic.c ****   channel->RBCTR &= (uint32_t)~USIC_CH_RBCTR_SIZE_Msk;
 423:../Libraries/XMCLib/src/xmc_usic.c **** 
 424:../Libraries/XMCLib/src/xmc_usic.c ****   channel->RBCTR = (uint32_t)((uint32_t)(channel->RBCTR & (uint32_t)~USIC_CH_RBCTR_LIMIT_Msk) |
 425:../Libraries/XMCLib/src/xmc_usic.c ****                    (limit << USIC_CH_RBCTR_LIMIT_Pos) |
 426:../Libraries/XMCLib/src/xmc_usic.c ****                    ((uint32_t)size << USIC_CH_RBCTR_SIZE_Pos));
 427:../Libraries/XMCLib/src/xmc_usic.c **** }
 428:../Libraries/XMCLib/src/xmc_usic.c **** 
 429:../Libraries/XMCLib/src/xmc_usic.c **** void XMC_USIC_CH_SetInterruptNodePointer(XMC_USIC_CH_t *const channel,
 430:../Libraries/XMCLib/src/xmc_usic.c ****                                          const XMC_USIC_CH_INTERRUPT_NODE_POINTER_t interrupt_node,
 431:../Libraries/XMCLib/src/xmc_usic.c ****                                          const uint32_t service_request)
 432:../Libraries/XMCLib/src/xmc_usic.c **** {
 433:../Libraries/XMCLib/src/xmc_usic.c ****   channel->INPR = (uint32_t)((channel->INPR & (~(uint32_t)(USIC_CH_INPR_Msk << (uint32_t)interrupt_
 434:../Libraries/XMCLib/src/xmc_usic.c ****                   (service_request << (uint32_t)interrupt_node));
 435:../Libraries/XMCLib/src/xmc_usic.c **** }
 436:../Libraries/XMCLib/src/xmc_usic.c **** 
 437:../Libraries/XMCLib/src/xmc_usic.c **** void XMC_USIC_CH_TXFIFO_SetInterruptNodePointer(XMC_USIC_CH_t *const channel,
 438:../Libraries/XMCLib/src/xmc_usic.c ****                                                 const XMC_USIC_CH_TXFIFO_INTERRUPT_NODE_POINTER_t i
 439:../Libraries/XMCLib/src/xmc_usic.c ****                                                 const uint32_t service_request)
 440:../Libraries/XMCLib/src/xmc_usic.c **** {
 441:../Libraries/XMCLib/src/xmc_usic.c ****   channel->TBCTR = (uint32_t)((channel->TBCTR & (~(uint32_t)(USIC_CH_INPR_Msk << (uint32_t)interrup
 442:../Libraries/XMCLib/src/xmc_usic.c ****                    (service_request << (uint32_t)interrupt_node));
 443:../Libraries/XMCLib/src/xmc_usic.c **** }
 444:../Libraries/XMCLib/src/xmc_usic.c **** 
 445:../Libraries/XMCLib/src/xmc_usic.c **** void XMC_USIC_CH_RXFIFO_SetInterruptNodePointer(XMC_USIC_CH_t *const channel,
 446:../Libraries/XMCLib/src/xmc_usic.c ****                                                 const XMC_USIC_CH_RXFIFO_INTERRUPT_NODE_POINTER_t i
 447:../Libraries/XMCLib/src/xmc_usic.c ****                                                 const uint32_t service_request)
 448:../Libraries/XMCLib/src/xmc_usic.c **** {
 449:../Libraries/XMCLib/src/xmc_usic.c ****   channel->RBCTR = (uint32_t)((channel->RBCTR & (~(uint32_t)(USIC_CH_INPR_Msk << (uint32_t)interrup
 450:../Libraries/XMCLib/src/xmc_usic.c ****                    (service_request << (uint32_t)interrupt_node));
 451:../Libraries/XMCLib/src/xmc_usic.c **** }
 452:../Libraries/XMCLib/src/xmc_usic.c **** 
 453:../Libraries/XMCLib/src/xmc_usic.c **** void XMC_USIC_Enable(XMC_USIC_t *const usic)
  25              	 .loc 1 453 0
  26              	 .cfi_startproc
  27              	.LVL0:
  28 0000 08B5     	 push {r3,lr}
  29              	.LCFI0:
  30              	 .cfi_def_cfa_offset 8
  31              	 .cfi_offset 3,-8
  32              	 .cfi_offset 14,-4
 454:../Libraries/XMCLib/src/xmc_usic.c **** {
 455:../Libraries/XMCLib/src/xmc_usic.c ****   if (usic == USIC0)
 456:../Libraries/XMCLib/src/xmc_usic.c ****   {
 457:../Libraries/XMCLib/src/xmc_usic.c **** #if defined(CLOCK_GATING_SUPPORTED)
 458:../Libraries/XMCLib/src/xmc_usic.c ****     XMC_SCU_CLOCK_UngatePeripheralClock(XMC_SCU_PERIPHERAL_CLOCK_USIC0);
  33              	 .loc 1 458 0
  34 0002 0820     	 mov r0,#8
  35 0004 FFF7FEFF 	 bl XMC_SCU_CLOCK_UngatePeripheralClock
  36              	.LVL1:
  37              	.L2:
 459:../Libraries/XMCLib/src/xmc_usic.c ****     while (XMC_SCU_CLOCK_IsPeripheralClockGated(XMC_SCU_PERIPHERAL_CLOCK_USIC0));
  38              	 .loc 1 459 0
  39 0008 0820     	 mov r0,#8
  40 000a FFF7FEFF 	 bl XMC_SCU_CLOCK_IsPeripheralClockGated
  41              	.LVL2:
  42 000e 0028     	 cmp r0,#0
  43 0010 FAD1     	 bne .L2
 460:../Libraries/XMCLib/src/xmc_usic.c **** #endif
 461:../Libraries/XMCLib/src/xmc_usic.c **** #if defined(PERIPHERAL_RESET_SUPPORTED)
 462:../Libraries/XMCLib/src/xmc_usic.c ****     XMC_SCU_RESET_DeassertPeripheralReset(XMC_SCU_PERIPHERAL_RESET_USIC0);
 463:../Libraries/XMCLib/src/xmc_usic.c ****     while (XMC_SCU_RESET_IsPeripheralResetAsserted(XMC_SCU_PERIPHERAL_RESET_USIC0));
 464:../Libraries/XMCLib/src/xmc_usic.c **** #endif 
 465:../Libraries/XMCLib/src/xmc_usic.c ****   }
 466:../Libraries/XMCLib/src/xmc_usic.c **** #if defined(USIC1)  
 467:../Libraries/XMCLib/src/xmc_usic.c ****   else if (usic == USIC1)
 468:../Libraries/XMCLib/src/xmc_usic.c ****   {
 469:../Libraries/XMCLib/src/xmc_usic.c **** #if defined(CLOCK_GATING_SUPPORTED)
 470:../Libraries/XMCLib/src/xmc_usic.c ****     XMC_SCU_CLOCK_UngatePeripheralClock(XMC_SCU_PERIPHERAL_CLOCK_USIC1);
 471:../Libraries/XMCLib/src/xmc_usic.c ****     while (XMC_SCU_CLOCK_IsPeripheralClockGated(XMC_SCU_PERIPHERAL_CLOCK_USIC1));
 472:../Libraries/XMCLib/src/xmc_usic.c **** #endif 
 473:../Libraries/XMCLib/src/xmc_usic.c **** #if defined(PERIPHERAL_RESET_SUPPORTED)
 474:../Libraries/XMCLib/src/xmc_usic.c ****     XMC_SCU_RESET_DeassertPeripheralReset(XMC_SCU_PERIPHERAL_RESET_USIC1);
 475:../Libraries/XMCLib/src/xmc_usic.c ****     while (XMC_SCU_RESET_IsPeripheralResetAsserted(XMC_SCU_PERIPHERAL_RESET_USIC1));
 476:../Libraries/XMCLib/src/xmc_usic.c **** #endif 
 477:../Libraries/XMCLib/src/xmc_usic.c ****   }
 478:../Libraries/XMCLib/src/xmc_usic.c **** #endif  
 479:../Libraries/XMCLib/src/xmc_usic.c **** #if defined(USIC2)  
 480:../Libraries/XMCLib/src/xmc_usic.c ****   else if (usic == USIC2)
 481:../Libraries/XMCLib/src/xmc_usic.c ****   {
 482:../Libraries/XMCLib/src/xmc_usic.c **** #if defined(CLOCK_GATING_SUPPORTED) 
 483:../Libraries/XMCLib/src/xmc_usic.c ****     XMC_SCU_CLOCK_UngatePeripheralClock(XMC_SCU_PERIPHERAL_CLOCK_USIC2);
 484:../Libraries/XMCLib/src/xmc_usic.c ****     while (XMC_SCU_CLOCK_IsPeripheralClockGated(XMC_SCU_PERIPHERAL_CLOCK_USIC2));
 485:../Libraries/XMCLib/src/xmc_usic.c **** #endif
 486:../Libraries/XMCLib/src/xmc_usic.c **** #if defined(PERIPHERAL_RESET_SUPPORTED)
 487:../Libraries/XMCLib/src/xmc_usic.c ****     XMC_SCU_RESET_DeassertPeripheralReset(XMC_SCU_PERIPHERAL_RESET_USIC2);
 488:../Libraries/XMCLib/src/xmc_usic.c ****     while (XMC_SCU_RESET_IsPeripheralResetAsserted(XMC_SCU_PERIPHERAL_RESET_USIC2));
 489:../Libraries/XMCLib/src/xmc_usic.c **** #endif 
 490:../Libraries/XMCLib/src/xmc_usic.c ****   }
 491:../Libraries/XMCLib/src/xmc_usic.c **** #endif  
 492:../Libraries/XMCLib/src/xmc_usic.c ****   else
 493:../Libraries/XMCLib/src/xmc_usic.c ****   {
 494:../Libraries/XMCLib/src/xmc_usic.c ****     XMC_ASSERT("USIC module not available", 0/*Always*/);
 495:../Libraries/XMCLib/src/xmc_usic.c ****   }
 496:../Libraries/XMCLib/src/xmc_usic.c **** }
  44              	 .loc 1 496 0
  45              	 
  46 0012 08BD     	 pop {r3,pc}
  47              	 .cfi_endproc
  48              	.LFE145:
  50              	 .section .text.XMC_USIC_CH_Disable,"ax",%progbits
  51              	 .align 1
  52              	 .global XMC_USIC_CH_Disable
  53              	 .code 16
  54              	 .thumb_func
  56              	XMC_USIC_CH_Disable:
  57              	.LFB129:
 130:../Libraries/XMCLib/src/xmc_usic.c ****   channel->KSCFG = (uint32_t)((channel->KSCFG & (~USIC_CH_KSCFG_MODEN_Msk)) | USIC_CH_KSCFG_BPMODEN
  58              	 .loc 1 130 0
  59              	 .cfi_startproc
  60              	.LVL3:
 131:../Libraries/XMCLib/src/xmc_usic.c **** }
  61              	 .loc 1 131 0
  62 0000 0322     	 mov r2,#3
  63 0002 C368     	 ldr r3,[r0,#12]
 132:../Libraries/XMCLib/src/xmc_usic.c **** 
  64              	 .loc 1 132 0
  65              	 
 131:../Libraries/XMCLib/src/xmc_usic.c **** }
  66              	 .loc 1 131 0
  67 0004 9343     	 bic r3,r2
  68 0006 013A     	 sub r2,r2,#1
  69 0008 1343     	 orr r3,r2
  70 000a C360     	 str r3,[r0,#12]
 132:../Libraries/XMCLib/src/xmc_usic.c **** 
  71              	 .loc 1 132 0
  72 000c 7047     	 bx lr
  73              	 .cfi_endproc
  74              	.LFE129:
  76              	 .global __aeabi_uidiv
  77              	 .section .text.XMC_USIC_CH_SetBaudrate,"ax",%progbits
  78              	 .align 1
  79              	 .global XMC_USIC_CH_SetBaudrate
  80              	 .code 16
  81              	 .thumb_func
  83              	XMC_USIC_CH_SetBaudrate:
  84              	.LFB130:
 135:../Libraries/XMCLib/src/xmc_usic.c ****   XMC_USIC_CH_STATUS_t status;
  85              	 .loc 1 135 0
  86              	 .cfi_startproc
  87              	.LVL4:
  88 0000 F0B5     	 push {r4,r5,r6,r7,lr}
  89              	.LCFI1:
  90              	 .cfi_def_cfa_offset 20
  91              	 .cfi_offset 4,-20
  92              	 .cfi_offset 5,-16
  93              	 .cfi_offset 6,-12
  94              	 .cfi_offset 7,-8
  95              	 .cfi_offset 14,-4
 188:../Libraries/XMCLib/src/xmc_usic.c ****   }
  96              	 .loc 1 188 0
  97 0002 0124     	 mov r4,#1
 135:../Libraries/XMCLib/src/xmc_usic.c ****   XMC_USIC_CH_STATUS_t status;
  98              	 .loc 1 135 0
  99 0004 87B0     	 sub sp,sp,#28
 100              	.LCFI2:
 101              	 .cfi_def_cfa_offset 48
 151:../Libraries/XMCLib/src/xmc_usic.c ****   {
 102              	 .loc 1 151 0
 103 0006 6329     	 cmp r1,#99
 104 0008 3ED9     	 bls .L6
 151:../Libraries/XMCLib/src/xmc_usic.c ****   {
 105              	 .loc 1 151 0 is_stmt 0 discriminator 1
 106 000a 002A     	 cmp r2,#0
 107 000c 3CD0     	 beq .L6
 108 000e 0E1C     	 mov r6,r1
 109 0010 0492     	 str r2,[sp,#16]
 110 0012 051C     	 mov r5,r0
 153:../Libraries/XMCLib/src/xmc_usic.c ****     rate = rate / 100U;
 111              	 .loc 1 153 0 is_stmt 1
 112 0014 FFF7FEFF 	 bl XMC_SCU_CLOCK_GetPeripheralClockFrequency
 113              	.LVL5:
 114 0018 6421     	 mov r1,#100
 115 001a FFF7FEFF 	 bl __aeabi_uidiv
 116              	.LVL6:
 154:../Libraries/XMCLib/src/xmc_usic.c **** 
 117              	 .loc 1 154 0
 118 001e 6421     	 mov r1,#100
 153:../Libraries/XMCLib/src/xmc_usic.c ****     rate = rate / 100U;
 119              	 .loc 1 153 0
 120 0020 071C     	 mov r7,r0
 121              	.LVL7:
 154:../Libraries/XMCLib/src/xmc_usic.c **** 
 122              	 .loc 1 154 0
 123 0022 301C     	 mov r0,r6
 124              	.LVL8:
 125 0024 FFF7FEFF 	 bl __aeabi_uidiv
 126              	.LVL9:
 158:../Libraries/XMCLib/src/xmc_usic.c **** 
 127              	 .loc 1 158 0
 128 0028 194E     	 ldr r6,.L12
 129              	.LVL10:
 157:../Libraries/XMCLib/src/xmc_usic.c ****     pdiv_frac_min = 0x3ffU;
 130              	 .loc 1 157 0
 131 002a 0194     	 str r4,[sp,#4]
 156:../Libraries/XMCLib/src/xmc_usic.c ****     pdiv_int_min = 1U;
 132              	 .loc 1 156 0
 133 002c 0394     	 str r4,[sp,#12]
 160:../Libraries/XMCLib/src/xmc_usic.c ****     {
 134              	 .loc 1 160 0
 135 002e 341C     	 mov r4,r6
 162:../Libraries/XMCLib/src/xmc_usic.c ****       pdiv_int = pdiv >> 10U;
 136              	 .loc 1 162 0
 137 0030 049B     	 ldr r3,[sp,#16]
 138 0032 4343     	 mul r3,r0
 139 0034 0593     	 str r3,[sp,#20]
 140 0036 BB02     	 lsl r3,r7,#10
 141 0038 DB1B     	 sub r3,r3,r7
 142 003a 0293     	 str r3,[sp,#8]
 143              	.LVL11:
 144              	.L8:
 145 003c 0298     	 ldr r0,[sp,#8]
 146 003e 0599     	 ldr r1,[sp,#20]
 147 0040 FFF7FEFF 	 bl __aeabi_uidiv
 148              	.LVL12:
 166:../Libraries/XMCLib/src/xmc_usic.c ****       {
 149              	 .loc 1 166 0
 150 0044 124A     	 ldr r2,.L12
 163:../Libraries/XMCLib/src/xmc_usic.c ****       pdiv_frac = pdiv & 0x3ffU;
 151              	 .loc 1 163 0
 152 0046 830A     	 lsr r3,r0,#10
 153              	.LVL13:
 166:../Libraries/XMCLib/src/xmc_usic.c ****       {
 154              	 .loc 1 166 0
 155 0048 9342     	 cmp r3,r2
 156 004a 06D8     	 bhi .L7
 164:../Libraries/XMCLib/src/xmc_usic.c **** 
 157              	 .loc 1 164 0 discriminator 1
 158 004c 8005     	 lsl r0,r0,#22
 159              	.LVL14:
 160 004e 800D     	 lsr r0,r0,#22
 166:../Libraries/XMCLib/src/xmc_usic.c ****       {
 161              	 .loc 1 166 0 discriminator 1
 162 0050 B042     	 cmp r0,r6
 163 0052 02D2     	 bcs .L7
 166:../Libraries/XMCLib/src/xmc_usic.c ****       {
 164              	 .loc 1 166 0 is_stmt 0
 165 0054 061C     	 mov r6,r0
 166              	.LVL15:
 167 0056 0193     	 str r3,[sp,#4]
 168              	.LVL16:
 169 0058 0394     	 str r4,[sp,#12]
 170              	.LVL17:
 171              	.L7:
 172 005a 029B     	 ldr r3,[sp,#8]
 173              	.LVL18:
 160:../Libraries/XMCLib/src/xmc_usic.c ****     {
 174              	 .loc 1 160 0 is_stmt 1 discriminator 2
 175 005c 013C     	 sub r4,r4,#1
 176              	.LVL19:
 177 005e DB1B     	 sub r3,r3,r7
 178 0060 0293     	 str r3,[sp,#8]
 179 0062 002C     	 cmp r4,#0
 180 0064 EAD1     	 bne .L8
 174:../Libraries/XMCLib/src/xmc_usic.c ****                    (clock_divider_min << USIC_CH_FDR_STEP_Pos);
 181              	 .loc 1 174 0
 182 0066 8023     	 mov r3,#128
 183 0068 039A     	 ldr r2,[sp,#12]
 184 006a 1B02     	 lsl r3,r3,#8
 185 006c 1343     	 orr r3,r2
 186 006e 2B61     	 str r3,[r5,#16]
 181:../Libraries/XMCLib/src/xmc_usic.c ****                    ((pdiv_int_min - 1U) << USIC_CH_BRG_PDIV_Pos);
 187              	 .loc 1 181 0
 188 0070 049B     	 ldr r3,[sp,#16]
 177:../Libraries/XMCLib/src/xmc_usic.c ****                                      USIC_CH_BRG_PDIV_Msk |
 189              	 .loc 1 177 0
 190 0072 6969     	 ldr r1,[r5,#20]
 191 0074 074A     	 ldr r2,.L12+4
 181:../Libraries/XMCLib/src/xmc_usic.c ****                    ((pdiv_int_min - 1U) << USIC_CH_BRG_PDIV_Pos);
 192              	 .loc 1 181 0
 193 0076 013B     	 sub r3,r3,#1
 194 0078 9B02     	 lsl r3,r3,#10
 177:../Libraries/XMCLib/src/xmc_usic.c ****                                      USIC_CH_BRG_PDIV_Msk |
 195              	 .loc 1 177 0
 196 007a 0A40     	 and r2,r1
 180:../Libraries/XMCLib/src/xmc_usic.c ****                    ((oversampling - 1U) << USIC_CH_BRG_DCTQ_Pos) |
 197              	 .loc 1 180 0
 198 007c 1A43     	 orr r2,r3
 182:../Libraries/XMCLib/src/xmc_usic.c ****                     
 199              	 .loc 1 182 0
 200 007e 019B     	 ldr r3,[sp,#4]
 201 0080 013B     	 sub r3,r3,#1
 202 0082 1B04     	 lsl r3,r3,#16
 181:../Libraries/XMCLib/src/xmc_usic.c ****                    ((pdiv_int_min - 1U) << USIC_CH_BRG_PDIV_Pos);
 203              	 .loc 1 181 0
 204 0084 1A43     	 orr r2,r3
 177:../Libraries/XMCLib/src/xmc_usic.c ****                                      USIC_CH_BRG_PDIV_Msk |
 205              	 .loc 1 177 0
 206 0086 6A61     	 str r2,[r5,#20]
 207              	.LVL20:
 208              	.L6:
 192:../Libraries/XMCLib/src/xmc_usic.c **** 
 209              	 .loc 1 192 0
 210 0088 201C     	 mov r0,r4
 211 008a 07B0     	 add sp,sp,#28
 212              	 
 213              	.LVL21:
 214 008c F0BD     	 pop {r4,r5,r6,r7,pc}
 215              	.L13:
 216 008e C046     	 .align 2
 217              	.L12:
 218 0090 FF030000 	 .word 1023
 219 0094 EF8000FC 	 .word -67075857
 220              	 .cfi_endproc
 221              	.LFE130:
 223              	 .global __aeabi_idiv
 224              	 .section .text.XMC_USIC_CH_SetBaudrateEx,"ax",%progbits
 225              	 .align 1
 226              	 .global XMC_USIC_CH_SetBaudrateEx
 227              	 .code 16
 228              	 .thumb_func
 230              	XMC_USIC_CH_SetBaudrateEx:
 231              	.LFB131:
 195:../Libraries/XMCLib/src/xmc_usic.c ****   int32_t peripheral_clock = XMC_SCU_CLOCK_GetPeripheralClockFrequency();
 232              	 .loc 1 195 0
 233              	 .cfi_startproc
 234              	.LVL22:
 235 0000 F0B5     	 push {r4,r5,r6,r7,lr}
 236              	.LCFI3:
 237              	 .cfi_def_cfa_offset 20
 238              	 .cfi_offset 4,-20
 239              	 .cfi_offset 5,-16
 240              	 .cfi_offset 6,-12
 241              	 .cfi_offset 7,-8
 242              	 .cfi_offset 14,-4
 243 0002 85B0     	 sub sp,sp,#20
 244              	.LCFI4:
 245              	 .cfi_def_cfa_offset 40
 195:../Libraries/XMCLib/src/xmc_usic.c ****   int32_t peripheral_clock = XMC_SCU_CLOCK_GetPeripheralClockFrequency();
 246              	 .loc 1 195 0
 247 0004 0192     	 str r2,[sp,#4]
 248 0006 071C     	 mov r7,r0
 249 0008 0391     	 str r1,[sp,#12]
 196:../Libraries/XMCLib/src/xmc_usic.c ****   int32_t brg_clock = rate * oversampling;
 250              	 .loc 1 196 0
 251 000a FFF7FEFF 	 bl XMC_SCU_CLOCK_GetPeripheralClockFrequency
 252              	.LVL23:
 197:../Libraries/XMCLib/src/xmc_usic.c ****   int32_t actual_rate_upper;
 253              	 .loc 1 197 0
 254 000e 019B     	 ldr r3,[sp,#4]
 255 0010 039A     	 ldr r2,[sp,#12]
 196:../Libraries/XMCLib/src/xmc_usic.c ****   int32_t brg_clock = rate * oversampling;
 256              	 .loc 1 196 0
 257 0012 061C     	 mov r6,r0
 258              	.LVL24:
 197:../Libraries/XMCLib/src/xmc_usic.c ****   int32_t actual_rate_upper;
 259              	 .loc 1 197 0
 260 0014 5343     	 mul r3,r2
 239:../Libraries/XMCLib/src/xmc_usic.c ****   }
 261              	 .loc 1 239 0
 262 0016 0124     	 mov r4,#1
 197:../Libraries/XMCLib/src/xmc_usic.c ****   int32_t actual_rate_upper;
 263              	 .loc 1 197 0
 264 0018 0093     	 str r3,[sp]
 265              	.LVL25:
 204:../Libraries/XMCLib/src/xmc_usic.c ****   {
 266              	 .loc 1 204 0
 267 001a 9842     	 cmp r0,r3
 268 001c 45DD     	 ble .L15
 206:../Libraries/XMCLib/src/xmc_usic.c ****     while (divider_step >= 1023)
 269              	 .loc 1 206 0
 270 001e 191C     	 mov r1,r3
 271 0020 FFF7FEFF 	 bl __aeabi_idiv
 272              	.LVL26:
 273 0024 009B     	 ldr r3,[sp]
 274 0026 051C     	 mov r5,r0
 275              	.LVL27:
 276 0028 A340     	 lsl r3,r3,r4
 277              	.LVL28:
 278              	.L20:
 279 002a 0293     	 str r3,[sp,#8]
 280              	.LVL29:
 207:../Libraries/XMCLib/src/xmc_usic.c ****     {
 281              	 .loc 1 207 0
 282 002c 204B     	 ldr r3,.L22
 283 002e 9D42     	 cmp r5,r3
 284 0030 0AD9     	 bls .L21
 211:../Libraries/XMCLib/src/xmc_usic.c ****     }
 285              	 .loc 1 211 0
 286 0032 301C     	 mov r0,r6
 287              	.LVL30:
 288 0034 0299     	 ldr r1,[sp,#8]
 289 0036 FFF7FEFF 	 bl __aeabi_idiv
 290              	.LVL31:
 291 003a 009A     	 ldr r2,[sp]
 292 003c 029B     	 ldr r3,[sp,#8]
 293 003e 9446     	 mov ip,r2
 209:../Libraries/XMCLib/src/xmc_usic.c ****       brg_clock = rate * oversampling * pdiv;
 294              	 .loc 1 209 0
 295 0040 0134     	 add r4,r4,#1
 296              	.LVL32:
 211:../Libraries/XMCLib/src/xmc_usic.c ****     }
 297              	 .loc 1 211 0
 298 0042 051C     	 mov r5,r0
 299              	.LVL33:
 300 0044 6344     	 add r3,r3,ip
 301              	.LVL34:
 302 0046 F0E7     	 b .L20
 303              	.LVL35:
 304              	.L21:
 305 0048 0199     	 ldr r1,[sp,#4]
 214:../Libraries/XMCLib/src/xmc_usic.c **** 
 306              	 .loc 1 214 0
 307 004a 6B1C     	 add r3,r5,#1
 308 004c 6143     	 mul r1,r4
 309 004e 301C     	 mov r0,r6
 310              	.LVL36:
 311 0050 5943     	 mul r1,r3
 312 0052 0093     	 str r3,[sp]
 313              	.LVL37:
 314 0054 FFF7FEFF 	 bl __aeabi_uidiv
 315              	.LVL38:
 316 0058 211C     	 mov r1,r4
 217:../Libraries/XMCLib/src/xmc_usic.c ****     {
 317              	 .loc 1 217 0
 318 005a 039B     	 ldr r3,[sp,#12]
 319 005c 6943     	 mul r1,r5
 320 005e 181A     	 sub r0,r3,r0
 321 0060 C217     	 asr r2,r0,#31
 322 0062 8318     	 add r3,r0,r2
 323 0064 5340     	 eor r3,r2
 324 0066 0293     	 str r3,[sp,#8]
 213:../Libraries/XMCLib/src/xmc_usic.c ****     actual_rate_lower = peripheral_clock / ((divider_step + 1) * oversampling * pdiv);
 325              	 .loc 1 213 0
 326 0068 019B     	 ldr r3,[sp,#4]
 327 006a 301C     	 mov r0,r6
 328 006c 5943     	 mul r1,r3
 329 006e FFF7FEFF 	 bl __aeabi_uidiv
 330              	.LVL39:
 217:../Libraries/XMCLib/src/xmc_usic.c ****     {
 331              	 .loc 1 217 0
 332 0072 039B     	 ldr r3,[sp,#12]
 333 0074 181A     	 sub r0,r3,r0
 334 0076 C317     	 asr r3,r0,#31
 335 0078 C018     	 add r0,r0,r3
 336 007a 5840     	 eor r0,r3
 337 007c 029B     	 ldr r3,[sp,#8]
 338 007e 8342     	 cmp r3,r0
 339 0080 00DA     	 bge .L18
 219:../Libraries/XMCLib/src/xmc_usic.c ****     }
 340              	 .loc 1 219 0
 341 0082 009D     	 ldr r5,[sp]
 342              	.LVL40:
 343              	.L18:
 222:../Libraries/XMCLib/src/xmc_usic.c **** 
 344              	 .loc 1 222 0
 345 0084 8023     	 mov r3,#128
 346 0086 DB00     	 lsl r3,r3,#3
 347 0088 5D1B     	 sub r5,r3,r5
 348              	.LVL41:
 225:../Libraries/XMCLib/src/xmc_usic.c ****                    (divider_step << USIC_CH_FDR_STEP_Pos);
 349              	 .loc 1 225 0
 350 008a 8023     	 mov r3,#128
 351 008c DB01     	 lsl r3,r3,#7
 352 008e 1D43     	 orr r5,r3
 353 0090 3D61     	 str r5,[r7,#16]
 232:../Libraries/XMCLib/src/xmc_usic.c **** 				   ((pdiv -1) << USIC_CH_BRG_PDIV_Pos);
 354              	 .loc 1 232 0
 355 0092 019B     	 ldr r3,[sp,#4]
 228:../Libraries/XMCLib/src/xmc_usic.c ****                                      USIC_CH_BRG_PDIV_Msk |
 356              	 .loc 1 228 0
 357 0094 7969     	 ldr r1,[r7,#20]
 358 0096 074A     	 ldr r2,.L22+4
 232:../Libraries/XMCLib/src/xmc_usic.c **** 				   ((pdiv -1) << USIC_CH_BRG_PDIV_Pos);
 359              	 .loc 1 232 0
 360 0098 013B     	 sub r3,r3,#1
 361 009a 9B02     	 lsl r3,r3,#10
 228:../Libraries/XMCLib/src/xmc_usic.c ****                                      USIC_CH_BRG_PDIV_Msk |
 362              	 .loc 1 228 0
 363 009c 0A40     	 and r2,r1
 233:../Libraries/XMCLib/src/xmc_usic.c **** 
 364              	 .loc 1 233 0
 365 009e 013C     	 sub r4,r4,#1
 366              	.LVL42:
 231:../Libraries/XMCLib/src/xmc_usic.c ****                    ((oversampling - 1U) << USIC_CH_BRG_DCTQ_Pos) |
 367              	 .loc 1 231 0
 368 00a0 1343     	 orr r3,r2
 233:../Libraries/XMCLib/src/xmc_usic.c **** 
 369              	 .loc 1 233 0
 370 00a2 2404     	 lsl r4,r4,#16
 371              	.LVL43:
 232:../Libraries/XMCLib/src/xmc_usic.c **** 				   ((pdiv -1) << USIC_CH_BRG_PDIV_Pos);
 372              	 .loc 1 232 0
 373 00a4 1C43     	 orr r4,r3
 228:../Libraries/XMCLib/src/xmc_usic.c ****                                      USIC_CH_BRG_PDIV_Msk |
 374              	 .loc 1 228 0
 375 00a6 7C61     	 str r4,[r7,#20]
 376              	.LVL44:
 235:../Libraries/XMCLib/src/xmc_usic.c ****   }
 377              	 .loc 1 235 0
 378 00a8 0024     	 mov r4,#0
 379              	.LVL45:
 380              	.L15:
 243:../Libraries/XMCLib/src/xmc_usic.c **** 
 381              	 .loc 1 243 0
 382 00aa 201C     	 mov r0,r4
 383 00ac 05B0     	 add sp,sp,#20
 384              	 
 385              	.LVL46:
 386              	.LVL47:
 387              	.LVL48:
 388 00ae F0BD     	 pop {r4,r5,r6,r7,pc}
 389              	.L23:
 390              	 .align 2
 391              	.L22:
 392 00b0 FE030000 	 .word 1022
 393 00b4 EF8000FC 	 .word -67075857
 394              	 .cfi_endproc
 395              	.LFE131:
 397              	 .global __aeabi_ui2f
 398              	 .global __aeabi_fmul
 399              	 .global __aeabi_fdiv
 400              	 .global __aeabi_f2uiz
 401              	 .section .text.XMC_USIC_CH_GetBaudrate,"ax",%progbits
 402              	 .align 1
 403              	 .global XMC_USIC_CH_GetBaudrate
 404              	 .code 16
 405              	 .thumb_func
 407              	XMC_USIC_CH_GetBaudrate:
 408              	.LFB132:
 246:../Libraries/XMCLib/src/xmc_usic.c ****   uint32_t divider;
 409              	 .loc 1 246 0
 410              	 .cfi_startproc
 411              	.LVL49:
 248:../Libraries/XMCLib/src/xmc_usic.c ****   {
 412              	 .loc 1 248 0
 413 0000 C023     	 mov r3,#192
 414 0002 4269     	 ldr r2,[r0,#20]
 246:../Libraries/XMCLib/src/xmc_usic.c ****   uint32_t divider;
 415              	 .loc 1 246 0
 416 0004 70B5     	 push {r4,r5,r6,lr}
 417              	.LCFI5:
 418              	 .cfi_def_cfa_offset 16
 419              	 .cfi_offset 4,-16
 420              	 .cfi_offset 5,-12
 421              	 .cfi_offset 6,-8
 422              	 .cfi_offset 14,-4
 248:../Libraries/XMCLib/src/xmc_usic.c ****   {
 423              	 .loc 1 248 0
 424 0006 1A40     	 and r2,r3
 246:../Libraries/XMCLib/src/xmc_usic.c ****   uint32_t divider;
 425              	 .loc 1 246 0
 426 0008 051C     	 mov r5,r0
 251:../Libraries/XMCLib/src/xmc_usic.c ****   }
 427              	 .loc 1 251 0
 428 000a BE3B     	 sub r3,r3,#190
 248:../Libraries/XMCLib/src/xmc_usic.c ****   {
 429              	 .loc 1 248 0
 430 000c C02A     	 cmp r2,#192
 431 000e 0FD0     	 beq .L25
 256:../Libraries/XMCLib/src/xmc_usic.c ****   
 432              	 .loc 1 256 0
 433 0010 4369     	 ldr r3,[r0,#20]
 258:../Libraries/XMCLib/src/xmc_usic.c ****     {
 434              	 .loc 1 258 0
 435 0012 4269     	 ldr r2,[r0,#20]
 256:../Libraries/XMCLib/src/xmc_usic.c ****   
 436              	 .loc 1 256 0
 437 0014 DB06     	 lsl r3,r3,#27
 438 0016 DB0F     	 lsr r3,r3,#31
 439 0018 0133     	 add r3,r3,#1
 440              	.LVL50:
 258:../Libraries/XMCLib/src/xmc_usic.c ****     {
 441              	 .loc 1 258 0
 442 001a 5206     	 lsl r2,r2,#25
 443 001c 08D4     	 bmi .L25
 261:../Libraries/XMCLib/src/xmc_usic.c ****       if ((((channel->BRG & USIC_CH_BRG_CTQSEL_Msk) >> USIC_CH_BRG_CTQSEL_Pos) & 0x2) != 0)
 444              	 .loc 1 261 0
 445 001e 4269     	 ldr r2,[r0,#20]
 446 0020 9201     	 lsl r2,r2,#6
 447 0022 920D     	 lsr r2,r2,#22
 448 0024 0132     	 add r2,r2,#1
 449 0026 5343     	 mul r3,r2
 450              	.LVL51:
 262:../Libraries/XMCLib/src/xmc_usic.c ****       {
 451              	 .loc 1 262 0
 452 0028 4269     	 ldr r2,[r0,#20]
 453 002a 1206     	 lsl r2,r2,#24
 454 002c 00D5     	 bpl .L25
 265:../Libraries/XMCLib/src/xmc_usic.c ****       }
 455              	 .loc 1 265 0
 456 002e 5B00     	 lsl r3,r3,#1
 457              	.LVL52:
 458              	.L25:
 270:../Libraries/XMCLib/src/xmc_usic.c ****   divider *= ((channel->BRG & USIC_CH_BRG_DCTQ_Msk) >> USIC_CH_BRG_DCTQ_Pos) + 1;
 459              	 .loc 1 270 0
 460 0030 6A69     	 ldr r2,[r5,#20]
 461              	.LVL53:
 271:../Libraries/XMCLib/src/xmc_usic.c **** 
 462              	 .loc 1 271 0
 463 0032 6C69     	 ldr r4,[r5,#20]
 270:../Libraries/XMCLib/src/xmc_usic.c ****   divider *= ((channel->BRG & USIC_CH_BRG_DCTQ_Msk) >> USIC_CH_BRG_DCTQ_Pos) + 1;
 464              	 .loc 1 270 0
 465 0034 9205     	 lsl r2,r2,#22
 466              	.LVL54:
 271:../Libraries/XMCLib/src/xmc_usic.c **** 
 467              	 .loc 1 271 0
 468 0036 6404     	 lsl r4,r4,#17
 469 0038 E40E     	 lsr r4,r4,#27
 270:../Libraries/XMCLib/src/xmc_usic.c ****   divider *= ((channel->BRG & USIC_CH_BRG_DCTQ_Msk) >> USIC_CH_BRG_DCTQ_Pos) + 1;
 470              	 .loc 1 270 0
 471 003a 920F     	 lsr r2,r2,#30
 472 003c 0132     	 add r2,r2,#1
 271:../Libraries/XMCLib/src/xmc_usic.c **** 
 473              	 .loc 1 271 0
 474 003e 0134     	 add r4,r4,#1
 475 0040 5443     	 mul r4,r2
 476 0042 5C43     	 mul r4,r3
 477              	.LVL55:
 273:../Libraries/XMCLib/src/xmc_usic.c ****   float baudrate;
 478              	 .loc 1 273 0
 479 0044 FFF7FEFF 	 bl XMC_SCU_CLOCK_GetPeripheralClockFrequency
 480              	.LVL56:
 275:../Libraries/XMCLib/src/xmc_usic.c ****   {
 481              	 .loc 1 275 0
 482 0048 C023     	 mov r3,#192
 483 004a 2A69     	 ldr r2,[r5,#16]
 484 004c 1B02     	 lsl r3,r3,#8
 485 004e 1340     	 and r3,r2
 486 0050 8022     	 mov r2,#128
 277:../Libraries/XMCLib/src/xmc_usic.c ****   }
 487              	 .loc 1 277 0
 488 0052 2D69     	 ldr r5,[r5,#16]
 489              	.LVL57:
 275:../Libraries/XMCLib/src/xmc_usic.c ****   {
 490              	 .loc 1 275 0
 491 0054 1202     	 lsl r2,r2,#8
 492 0056 9342     	 cmp r3,r2
 493 0058 0BD1     	 bne .L27
 277:../Libraries/XMCLib/src/xmc_usic.c ****   }
 494              	 .loc 1 277 0
 495 005a FFF7FEFF 	 bl __aeabi_ui2f
 496              	.LVL58:
 497 005e 061C     	 add r6,r0,#0
 498 0060 A805     	 lsl r0,r5,#22
 499 0062 800D     	 lsr r0,r0,#22
 500 0064 FFF7FEFF 	 bl __aeabi_ui2f
 501              	.LVL59:
 502 0068 EA21     	 mov r1,#234
 503 006a 8905     	 lsl r1,r1,#22
 504 006c FFF7FEFF 	 bl __aeabi_fmul
 505              	.LVL60:
 506 0070 0EE0     	 b .L34
 507              	.LVL61:
 508              	.L27:
 282:../Libraries/XMCLib/src/xmc_usic.c ****   }
 509              	 .loc 1 282 0
 510 0072 FFF7FEFF 	 bl __aeabi_ui2f
 511              	.LVL62:
 512 0076 061C     	 add r6,r0,#0
 513 0078 8020     	 mov r0,#128
 514 007a AD05     	 lsl r5,r5,#22
 515 007c AD0D     	 lsr r5,r5,#22
 516 007e C000     	 lsl r0,r0,#3
 517 0080 401B     	 sub r0,r0,r5
 518 0082 FFF7FEFF 	 bl __aeabi_ui2f
 519              	.LVL63:
 520 0086 011C     	 add r1,r0,#0
 521 0088 FE20     	 mov r0,#254
 522 008a 8005     	 lsl r0,r0,#22
 523 008c FFF7FEFF 	 bl __aeabi_fdiv
 524              	.LVL64:
 525              	.L34:
 526 0090 011C     	 add r1,r0,#0
 527 0092 301C     	 add r0,r6,#0
 528 0094 FFF7FEFF 	 bl __aeabi_fmul
 529              	.LVL65:
 530 0098 051C     	 add r5,r0,#0
 531              	.LVL66:
 285:../Libraries/XMCLib/src/xmc_usic.c **** 
 532              	 .loc 1 285 0
 533 009a 201C     	 mov r0,r4
 534              	.LVL67:
 535 009c FFF7FEFF 	 bl __aeabi_ui2f
 536              	.LVL68:
 537 00a0 011C     	 add r1,r0,#0
 538 00a2 281C     	 add r0,r5,#0
 539 00a4 FFF7FEFF 	 bl __aeabi_fdiv
 540              	.LVL69:
 287:../Libraries/XMCLib/src/xmc_usic.c **** }
 541              	 .loc 1 287 0
 542 00a8 FFF7FEFF 	 bl __aeabi_f2uiz
 543              	.LVL70:
 288:../Libraries/XMCLib/src/xmc_usic.c **** 
 544              	 .loc 1 288 0
 545              	 
 546              	.LVL71:
 547 00ac 70BD     	 pop {r4,r5,r6,pc}
 548              	 .cfi_endproc
 549              	.LFE132:
 551              	 .section .text.XMC_USIC_CH_GetSCLKFrequency,"ax",%progbits
 552              	 .align 1
 553              	 .global XMC_USIC_CH_GetSCLKFrequency
 554              	 .code 16
 555              	 .thumb_func
 557              	XMC_USIC_CH_GetSCLKFrequency:
 558              	.LFB133:
 291:../Libraries/XMCLib/src/xmc_usic.c ****   uint32_t divider;
 559              	 .loc 1 291 0
 560              	 .cfi_startproc
 561              	.LVL72:
 562 0000 70B5     	 push {r4,r5,r6,lr}
 563              	.LCFI6:
 564              	 .cfi_def_cfa_offset 16
 565              	 .cfi_offset 4,-16
 566              	 .cfi_offset 5,-12
 567              	 .cfi_offset 6,-8
 568              	 .cfi_offset 14,-4
 293:../Libraries/XMCLib/src/xmc_usic.c ****   divider *= ((channel->BRG & USIC_CH_BRG_PDIV_Msk) >> USIC_CH_BRG_PDIV_Pos) + 1;
 569              	 .loc 1 293 0
 570 0002 4469     	 ldr r4,[r0,#20]
 294:../Libraries/XMCLib/src/xmc_usic.c ****   divider *= 2;
 571              	 .loc 1 294 0
 572 0004 4369     	 ldr r3,[r0,#20]
 293:../Libraries/XMCLib/src/xmc_usic.c ****   divider *= ((channel->BRG & USIC_CH_BRG_PDIV_Msk) >> USIC_CH_BRG_PDIV_Pos) + 1;
 573              	 .loc 1 293 0
 574 0006 E406     	 lsl r4,r4,#27
 294:../Libraries/XMCLib/src/xmc_usic.c ****   divider *= 2;
 575              	 .loc 1 294 0
 576 0008 9B01     	 lsl r3,r3,#6
 577 000a 9B0D     	 lsr r3,r3,#22
 293:../Libraries/XMCLib/src/xmc_usic.c ****   divider *= ((channel->BRG & USIC_CH_BRG_PDIV_Msk) >> USIC_CH_BRG_PDIV_Pos) + 1;
 578              	 .loc 1 293 0
 579 000c E40F     	 lsr r4,r4,#31
 294:../Libraries/XMCLib/src/xmc_usic.c ****   divider *= 2;
 580              	 .loc 1 294 0
 581 000e 0133     	 add r3,r3,#1
 291:../Libraries/XMCLib/src/xmc_usic.c ****   uint32_t divider;
 582              	 .loc 1 291 0
 583 0010 051C     	 mov r5,r0
 584 0012 5B00     	 lsl r3,r3,#1
 293:../Libraries/XMCLib/src/xmc_usic.c ****   divider *= ((channel->BRG & USIC_CH_BRG_PDIV_Msk) >> USIC_CH_BRG_PDIV_Pos) + 1;
 585              	 .loc 1 293 0
 586 0014 0134     	 add r4,r4,#1
 587              	.LVL73:
 295:../Libraries/XMCLib/src/xmc_usic.c **** 
 588              	 .loc 1 295 0
 589 0016 5C43     	 mul r4,r3
 590              	.LVL74:
 297:../Libraries/XMCLib/src/xmc_usic.c ****   float baudrate;
 591              	 .loc 1 297 0
 592 0018 FFF7FEFF 	 bl XMC_SCU_CLOCK_GetPeripheralClockFrequency
 593              	.LVL75:
 299:../Libraries/XMCLib/src/xmc_usic.c ****   {
 594              	 .loc 1 299 0
 595 001c C023     	 mov r3,#192
 596 001e 2A69     	 ldr r2,[r5,#16]
 597 0020 1B02     	 lsl r3,r3,#8
 598 0022 1340     	 and r3,r2
 599 0024 8022     	 mov r2,#128
 302:../Libraries/XMCLib/src/xmc_usic.c ****   }
 600              	 .loc 1 302 0
 601 0026 2D69     	 ldr r5,[r5,#16]
 602              	.LVL76:
 299:../Libraries/XMCLib/src/xmc_usic.c ****   {
 603              	 .loc 1 299 0
 604 0028 1202     	 lsl r2,r2,#8
 605 002a 9342     	 cmp r3,r2
 606 002c 0BD1     	 bne .L37
 302:../Libraries/XMCLib/src/xmc_usic.c ****   }
 607              	 .loc 1 302 0
 608 002e FFF7FEFF 	 bl __aeabi_ui2f
 609              	.LVL77:
 610 0032 061C     	 add r6,r0,#0
 611 0034 A805     	 lsl r0,r5,#22
 612 0036 800D     	 lsr r0,r0,#22
 613 0038 FFF7FEFF 	 bl __aeabi_ui2f
 614              	.LVL78:
 615 003c EA21     	 mov r1,#234
 616 003e 8905     	 lsl r1,r1,#22
 617 0040 FFF7FEFF 	 bl __aeabi_fmul
 618              	.LVL79:
 619 0044 0EE0     	 b .L40
 620              	.LVL80:
 621              	.L37:
 307:../Libraries/XMCLib/src/xmc_usic.c ****   }
 622              	 .loc 1 307 0
 623 0046 FFF7FEFF 	 bl __aeabi_ui2f
 624              	.LVL81:
 625 004a 061C     	 add r6,r0,#0
 626 004c 8020     	 mov r0,#128
 627 004e AD05     	 lsl r5,r5,#22
 628 0050 AD0D     	 lsr r5,r5,#22
 629 0052 C000     	 lsl r0,r0,#3
 630 0054 401B     	 sub r0,r0,r5
 631 0056 FFF7FEFF 	 bl __aeabi_ui2f
 632              	.LVL82:
 633 005a 011C     	 add r1,r0,#0
 634 005c FE20     	 mov r0,#254
 635 005e 8005     	 lsl r0,r0,#22
 636 0060 FFF7FEFF 	 bl __aeabi_fdiv
 637              	.LVL83:
 638              	.L40:
 639 0064 011C     	 add r1,r0,#0
 640 0066 301C     	 add r0,r6,#0
 641 0068 FFF7FEFF 	 bl __aeabi_fmul
 642              	.LVL84:
 643 006c 051C     	 add r5,r0,#0
 644              	.LVL85:
 310:../Libraries/XMCLib/src/xmc_usic.c **** 
 645              	 .loc 1 310 0
 646 006e 201C     	 mov r0,r4
 647              	.LVL86:
 648 0070 FFF7FEFF 	 bl __aeabi_ui2f
 649              	.LVL87:
 650 0074 011C     	 add r1,r0,#0
 651 0076 281C     	 add r0,r5,#0
 652 0078 FFF7FEFF 	 bl __aeabi_fdiv
 653              	.LVL88:
 312:../Libraries/XMCLib/src/xmc_usic.c **** }
 654              	 .loc 1 312 0
 655 007c FFF7FEFF 	 bl __aeabi_f2uiz
 656              	.LVL89:
 313:../Libraries/XMCLib/src/xmc_usic.c **** 
 657              	 .loc 1 313 0
 658              	 
 659              	.LVL90:
 660 0080 70BD     	 pop {r4,r5,r6,pc}
 661              	 .cfi_endproc
 662              	.LFE133:
 664              	 .section .text.XMC_USIC_CH_GetMCLKFrequency,"ax",%progbits
 665              	 .align 1
 666              	 .global XMC_USIC_CH_GetMCLKFrequency
 667              	 .code 16
 668              	 .thumb_func
 670              	XMC_USIC_CH_GetMCLKFrequency:
 671              	.LFB134:
 316:../Libraries/XMCLib/src/xmc_usic.c ****   uint32_t fperi = XMC_SCU_CLOCK_GetPeripheralClockFrequency();
 672              	 .loc 1 316 0
 673              	 .cfi_startproc
 674              	.LVL91:
 675 0000 38B5     	 push {r3,r4,r5,lr}
 676              	.LCFI7:
 677              	 .cfi_def_cfa_offset 16
 678              	 .cfi_offset 3,-16
 679              	 .cfi_offset 4,-12
 680              	 .cfi_offset 5,-8
 681              	 .cfi_offset 14,-4
 316:../Libraries/XMCLib/src/xmc_usic.c ****   uint32_t fperi = XMC_SCU_CLOCK_GetPeripheralClockFrequency();
 682              	 .loc 1 316 0
 683 0002 041C     	 mov r4,r0
 317:../Libraries/XMCLib/src/xmc_usic.c **** 
 684              	 .loc 1 317 0
 685 0004 FFF7FEFF 	 bl XMC_SCU_CLOCK_GetPeripheralClockFrequency
 686              	.LVL92:
 320:../Libraries/XMCLib/src/xmc_usic.c ****   {
 687              	 .loc 1 320 0
 688 0008 C023     	 mov r3,#192
 689 000a 2269     	 ldr r2,[r4,#16]
 690 000c 1B02     	 lsl r3,r3,#8
 691 000e 1340     	 and r3,r2
 692 0010 8022     	 mov r2,#128
 323:../Libraries/XMCLib/src/xmc_usic.c ****   }
 693              	 .loc 1 323 0
 694 0012 2469     	 ldr r4,[r4,#16]
 695              	.LVL93:
 320:../Libraries/XMCLib/src/xmc_usic.c ****   {
 696              	 .loc 1 320 0
 697 0014 1202     	 lsl r2,r2,#8
 698 0016 9342     	 cmp r3,r2
 699 0018 13D1     	 bne .L42
 323:../Libraries/XMCLib/src/xmc_usic.c ****   }
 700              	 .loc 1 323 0
 701 001a FFF7FEFF 	 bl __aeabi_ui2f
 702              	.LVL94:
 703 001e 051C     	 add r5,r0,#0
 704 0020 8020     	 mov r0,#128
 705 0022 A405     	 lsl r4,r4,#22
 706 0024 A40D     	 lsr r4,r4,#22
 707 0026 C000     	 lsl r0,r0,#3
 708 0028 001B     	 sub r0,r0,r4
 709 002a FFF7FEFF 	 bl __aeabi_ui2f
 710              	.LVL95:
 711 002e 011C     	 add r1,r0,#0
 712 0030 FE20     	 mov r0,#254
 713 0032 8005     	 lsl r0,r0,#22
 714 0034 FFF7FEFF 	 bl __aeabi_fdiv
 715              	.LVL96:
 716 0038 011C     	 add r1,r0,#0
 717 003a 281C     	 add r0,r5,#0
 718 003c FFF7FEFF 	 bl __aeabi_fmul
 719              	.LVL97:
 720 0040 0EE0     	 b .L43
 721              	.LVL98:
 722              	.L42:
 328:../Libraries/XMCLib/src/xmc_usic.c ****   }
 723              	 .loc 1 328 0
 724 0042 FFF7FEFF 	 bl __aeabi_ui2f
 725              	.LVL99:
 726 0046 051C     	 add r5,r0,#0
 727 0048 A005     	 lsl r0,r4,#22
 728 004a 800D     	 lsr r0,r0,#22
 729 004c FFF7FEFF 	 bl __aeabi_ui2f
 730              	.LVL100:
 731 0050 EA21     	 mov r1,#234
 732 0052 8905     	 lsl r1,r1,#22
 733 0054 FFF7FEFF 	 bl __aeabi_fmul
 734              	.LVL101:
 735 0058 011C     	 add r1,r0,#0
 736 005a 281C     	 add r0,r5,#0
 737 005c FFF7FEFF 	 bl __aeabi_fdiv
 738              	.LVL102:
 739              	.L43:
 331:../Libraries/XMCLib/src/xmc_usic.c **** 
 740              	 .loc 1 331 0
 741 0060 FC21     	 mov r1,#252
 742 0062 8905     	 lsl r1,r1,#22
 743 0064 FFF7FEFF 	 bl __aeabi_fmul
 744              	.LVL103:
 333:../Libraries/XMCLib/src/xmc_usic.c **** }
 745              	 .loc 1 333 0
 746 0068 FFF7FEFF 	 bl __aeabi_f2uiz
 747              	.LVL104:
 334:../Libraries/XMCLib/src/xmc_usic.c **** 
 748              	 .loc 1 334 0
 749              	 
 750 006c 38BD     	 pop {r3,r4,r5,pc}
 751              	 .cfi_endproc
 752              	.LFE134:
 754              	 .section .text.XMC_USIC_CH_ConfigExternalInputSignalToBRG,"ax",%progbits
 755              	 .align 1
 756              	 .global XMC_USIC_CH_ConfigExternalInputSignalToBRG
 757              	 .code 16
 758              	 .thumb_func
 760              	XMC_USIC_CH_ConfigExternalInputSignalToBRG:
 761              	.LFB135:
 341:../Libraries/XMCLib/src/xmc_usic.c ****   XMC_ASSERT("XMC_USIC_CH_ConfigExternalInputSignalToBRG: Divider out of range", ((1U < pdiv) || (p
 762              	 .loc 1 341 0
 763              	 .cfi_startproc
 764              	.LVL105:
 765 0000 30B5     	 push {r4,r5,lr}
 766              	.LCFI8:
 767              	 .cfi_def_cfa_offset 12
 768              	 .cfi_offset 4,-12
 769              	 .cfi_offset 5,-8
 770              	 .cfi_offset 14,-4
 771              	.LBB6:
 772              	.LBB7:
 773              	 .file 2 "C:/Workspace/DAVE-4.4.2-64Bit/xmc1400-getstarted-optiga-trust-m/Libraries/XMCLib/inc/xmc_usic.h"
   1:C:/Workspace/DAVE-4.4.2-64Bit/xmc1400-getstarted-optiga-trust-m/Libraries/XMCLib/inc\xmc_usic.h **** /**
   2:C:/Workspace/DAVE-4.4.2-64Bit/xmc1400-getstarted-optiga-trust-m/Libraries/XMCLib/inc\xmc_usic.h ****  * @file xmc_usic.h
   3:C:/Workspace/DAVE-4.4.2-64Bit/xmc1400-getstarted-optiga-trust-m/Libraries/XMCLib/inc\xmc_usic.h ****  * @date 2019-07-01
   4:C:/Workspace/DAVE-4.4.2-64Bit/xmc1400-getstarted-optiga-trust-m/Libraries/XMCLib/inc\xmc_usic.h ****  *
   5:C:/Workspace/DAVE-4.4.2-64Bit/xmc1400-getstarted-optiga-trust-m/Libraries/XMCLib/inc\xmc_usic.h ****  * @cond
   6:C:/Workspace/DAVE-4.4.2-64Bit/xmc1400-getstarted-optiga-trust-m/Libraries/XMCLib/inc\xmc_usic.h ****  **************************************************************************************************
   7:C:/Workspace/DAVE-4.4.2-64Bit/xmc1400-getstarted-optiga-trust-m/Libraries/XMCLib/inc\xmc_usic.h ****  * XMClib v2.1.24 - XMC Peripheral Driver Library 
   8:C:/Workspace/DAVE-4.4.2-64Bit/xmc1400-getstarted-optiga-trust-m/Libraries/XMCLib/inc\xmc_usic.h ****  *
   9:C:/Workspace/DAVE-4.4.2-64Bit/xmc1400-getstarted-optiga-trust-m/Libraries/XMCLib/inc\xmc_usic.h ****  * Copyright (c) 2015-2019, Infineon Technologies AG
  10:C:/Workspace/DAVE-4.4.2-64Bit/xmc1400-getstarted-optiga-trust-m/Libraries/XMCLib/inc\xmc_usic.h ****  * All rights reserved.                        
  11:C:/Workspace/DAVE-4.4.2-64Bit/xmc1400-getstarted-optiga-trust-m/Libraries/XMCLib/inc\xmc_usic.h ****  *                                             
  12:C:/Workspace/DAVE-4.4.2-64Bit/xmc1400-getstarted-optiga-trust-m/Libraries/XMCLib/inc\xmc_usic.h ****  * Redistribution and use in source and binary forms, with or without modification,are permitted pr
  13:C:/Workspace/DAVE-4.4.2-64Bit/xmc1400-getstarted-optiga-trust-m/Libraries/XMCLib/inc\xmc_usic.h ****  * following conditions are met:   
  14:C:/Workspace/DAVE-4.4.2-64Bit/xmc1400-getstarted-optiga-trust-m/Libraries/XMCLib/inc\xmc_usic.h ****  *                                                                              
  15:C:/Workspace/DAVE-4.4.2-64Bit/xmc1400-getstarted-optiga-trust-m/Libraries/XMCLib/inc\xmc_usic.h ****  * Redistributions of source code must retain the above copyright notice, this list of conditions a
  16:C:/Workspace/DAVE-4.4.2-64Bit/xmc1400-getstarted-optiga-trust-m/Libraries/XMCLib/inc\xmc_usic.h ****  * disclaimer.                        
  17:C:/Workspace/DAVE-4.4.2-64Bit/xmc1400-getstarted-optiga-trust-m/Libraries/XMCLib/inc\xmc_usic.h ****  * 
  18:C:/Workspace/DAVE-4.4.2-64Bit/xmc1400-getstarted-optiga-trust-m/Libraries/XMCLib/inc\xmc_usic.h ****  * Redistributions in binary form must reproduce the above copyright notice, this list of condition
  19:C:/Workspace/DAVE-4.4.2-64Bit/xmc1400-getstarted-optiga-trust-m/Libraries/XMCLib/inc\xmc_usic.h ****  * disclaimer in the documentation and/or other materials provided with the distribution.          
  20:C:/Workspace/DAVE-4.4.2-64Bit/xmc1400-getstarted-optiga-trust-m/Libraries/XMCLib/inc\xmc_usic.h ****  * 
  21:C:/Workspace/DAVE-4.4.2-64Bit/xmc1400-getstarted-optiga-trust-m/Libraries/XMCLib/inc\xmc_usic.h ****  * Neither the name of the copyright holders nor the names of its contributors may be used to endor
  22:C:/Workspace/DAVE-4.4.2-64Bit/xmc1400-getstarted-optiga-trust-m/Libraries/XMCLib/inc\xmc_usic.h ****  * products derived from this software without specific prior written permission.                  
  23:C:/Workspace/DAVE-4.4.2-64Bit/xmc1400-getstarted-optiga-trust-m/Libraries/XMCLib/inc\xmc_usic.h ****  *                                                                              
  24:C:/Workspace/DAVE-4.4.2-64Bit/xmc1400-getstarted-optiga-trust-m/Libraries/XMCLib/inc\xmc_usic.h ****  * THIS SOFTWARE IS PROVIDED BY THE COPYRIGHT HOLDERS AND CONTRIBUTORS "AS IS" AND ANY EXPRESS OR I
  25:C:/Workspace/DAVE-4.4.2-64Bit/xmc1400-getstarted-optiga-trust-m/Libraries/XMCLib/inc\xmc_usic.h ****  * INCLUDING, BUT NOT LIMITED TO, THE IMPLIED WARRANTIES OF MERCHANTABILITY AND FITNESS FOR A PARTI
  26:C:/Workspace/DAVE-4.4.2-64Bit/xmc1400-getstarted-optiga-trust-m/Libraries/XMCLib/inc\xmc_usic.h ****  * DISCLAIMED. IN NO EVENT SHALL THE COPYRIGHT HOLDER OR CONTRIBUTORS BE LIABLE  FOR ANY DIRECT, IN
  27:C:/Workspace/DAVE-4.4.2-64Bit/xmc1400-getstarted-optiga-trust-m/Libraries/XMCLib/inc\xmc_usic.h ****  * SPECIAL, EXEMPLARY, OR CONSEQUENTIAL DAMAGES (INCLUDING, BUT NOT LIMITED TO, PROCUREMENT OF SUBS
  28:C:/Workspace/DAVE-4.4.2-64Bit/xmc1400-getstarted-optiga-trust-m/Libraries/XMCLib/inc\xmc_usic.h ****  * SERVICES; LOSS OF USE, DATA, OR PROFITS; OR BUSINESS INTERRUPTION) HOWEVER CAUSED AND ON ANY THE
  29:C:/Workspace/DAVE-4.4.2-64Bit/xmc1400-getstarted-optiga-trust-m/Libraries/XMCLib/inc\xmc_usic.h ****  * WHETHER IN CONTRACT, STRICT LIABILITY,OR TORT (INCLUDING NEGLIGENCE OR OTHERWISE) ARISING IN ANY
  30:C:/Workspace/DAVE-4.4.2-64Bit/xmc1400-getstarted-optiga-trust-m/Libraries/XMCLib/inc\xmc_usic.h ****  * OF THIS SOFTWARE, EVEN IF ADVISED OF THE POSSIBILITY OF SUCH DAMAGE.                            
  31:C:/Workspace/DAVE-4.4.2-64Bit/xmc1400-getstarted-optiga-trust-m/Libraries/XMCLib/inc\xmc_usic.h ****  *                                                                              
  32:C:/Workspace/DAVE-4.4.2-64Bit/xmc1400-getstarted-optiga-trust-m/Libraries/XMCLib/inc\xmc_usic.h ****  * To improve the quality of the software, users are encouraged to share modifications, enhancement
  33:C:/Workspace/DAVE-4.4.2-64Bit/xmc1400-getstarted-optiga-trust-m/Libraries/XMCLib/inc\xmc_usic.h ****  * Infineon Technologies AG dave@infineon.com).                                                    
  34:C:/Workspace/DAVE-4.4.2-64Bit/xmc1400-getstarted-optiga-trust-m/Libraries/XMCLib/inc\xmc_usic.h ****  **************************************************************************************************
  35:C:/Workspace/DAVE-4.4.2-64Bit/xmc1400-getstarted-optiga-trust-m/Libraries/XMCLib/inc\xmc_usic.h ****  *
  36:C:/Workspace/DAVE-4.4.2-64Bit/xmc1400-getstarted-optiga-trust-m/Libraries/XMCLib/inc\xmc_usic.h ****  * Change History
  37:C:/Workspace/DAVE-4.4.2-64Bit/xmc1400-getstarted-optiga-trust-m/Libraries/XMCLib/inc\xmc_usic.h ****  * --------------
  38:C:/Workspace/DAVE-4.4.2-64Bit/xmc1400-getstarted-optiga-trust-m/Libraries/XMCLib/inc\xmc_usic.h ****  *
  39:C:/Workspace/DAVE-4.4.2-64Bit/xmc1400-getstarted-optiga-trust-m/Libraries/XMCLib/inc\xmc_usic.h ****  * 2015-02-20:
  40:C:/Workspace/DAVE-4.4.2-64Bit/xmc1400-getstarted-optiga-trust-m/Libraries/XMCLib/inc\xmc_usic.h ****  *     - Initial draft<br>
  41:C:/Workspace/DAVE-4.4.2-64Bit/xmc1400-getstarted-optiga-trust-m/Libraries/XMCLib/inc\xmc_usic.h ****  *     - Documentation improved <br>
  42:C:/Workspace/DAVE-4.4.2-64Bit/xmc1400-getstarted-optiga-trust-m/Libraries/XMCLib/inc\xmc_usic.h ****  *
  43:C:/Workspace/DAVE-4.4.2-64Bit/xmc1400-getstarted-optiga-trust-m/Libraries/XMCLib/inc\xmc_usic.h ****  * 2015-05-08:
  44:C:/Workspace/DAVE-4.4.2-64Bit/xmc1400-getstarted-optiga-trust-m/Libraries/XMCLib/inc\xmc_usic.h ****  *     - Added XMC_USIC_CH_SetInputTriggerCombinationMode() and XMC_USIC_CH_SetTransmitBufferStatus
  45:C:/Workspace/DAVE-4.4.2-64Bit/xmc1400-getstarted-optiga-trust-m/Libraries/XMCLib/inc\xmc_usic.h ****  *      
  46:C:/Workspace/DAVE-4.4.2-64Bit/xmc1400-getstarted-optiga-trust-m/Libraries/XMCLib/inc\xmc_usic.h ****  * 2015-06-20:
  47:C:/Workspace/DAVE-4.4.2-64Bit/xmc1400-getstarted-optiga-trust-m/Libraries/XMCLib/inc\xmc_usic.h ****  *     - Removed version macros and declaration of GetDriverVersion API
  48:C:/Workspace/DAVE-4.4.2-64Bit/xmc1400-getstarted-optiga-trust-m/Libraries/XMCLib/inc\xmc_usic.h ****  * 
  49:C:/Workspace/DAVE-4.4.2-64Bit/xmc1400-getstarted-optiga-trust-m/Libraries/XMCLib/inc\xmc_usic.h ****  * 2015-08-17:
  50:C:/Workspace/DAVE-4.4.2-64Bit/xmc1400-getstarted-optiga-trust-m/Libraries/XMCLib/inc\xmc_usic.h ****  *     - Bug fixed in XMC_USIC_CH_SetTransmitBufferStatus API. OR operator removed.
  51:C:/Workspace/DAVE-4.4.2-64Bit/xmc1400-getstarted-optiga-trust-m/Libraries/XMCLib/inc\xmc_usic.h ****  *
  52:C:/Workspace/DAVE-4.4.2-64Bit/xmc1400-getstarted-optiga-trust-m/Libraries/XMCLib/inc\xmc_usic.h ****  * 2015-08-24:
  53:C:/Workspace/DAVE-4.4.2-64Bit/xmc1400-getstarted-optiga-trust-m/Libraries/XMCLib/inc\xmc_usic.h ****  *     - Added APIs for enabling/disabling delay compensation XMC_USIC_CH_DisableDelayCompensation(
  54:C:/Workspace/DAVE-4.4.2-64Bit/xmc1400-getstarted-optiga-trust-m/Libraries/XMCLib/inc\xmc_usic.h ****  *       XMC_USIC_CH_DisableDelayCompensation()
  55:C:/Workspace/DAVE-4.4.2-64Bit/xmc1400-getstarted-optiga-trust-m/Libraries/XMCLib/inc\xmc_usic.h ****  *
  56:C:/Workspace/DAVE-4.4.2-64Bit/xmc1400-getstarted-optiga-trust-m/Libraries/XMCLib/inc\xmc_usic.h ****  * 2015-08-25:
  57:C:/Workspace/DAVE-4.4.2-64Bit/xmc1400-getstarted-optiga-trust-m/Libraries/XMCLib/inc\xmc_usic.h ****  *     - Added APIs for defining if the data shift unit input is derived
  58:C:/Workspace/DAVE-4.4.2-64Bit/xmc1400-getstarted-optiga-trust-m/Libraries/XMCLib/inc\xmc_usic.h ****  *       from the input data path DXn or from the selected protocol pre-processors: XMC_USIC_CH_Con
  59:C:/Workspace/DAVE-4.4.2-64Bit/xmc1400-getstarted-optiga-trust-m/Libraries/XMCLib/inc\xmc_usic.h ****  *       and XMC_USIC_CH_ConnectInputDataShiftToDataInput()
  60:C:/Workspace/DAVE-4.4.2-64Bit/xmc1400-getstarted-optiga-trust-m/Libraries/XMCLib/inc\xmc_usic.h ****  *
  61:C:/Workspace/DAVE-4.4.2-64Bit/xmc1400-getstarted-optiga-trust-m/Libraries/XMCLib/inc\xmc_usic.h ****  * 2015-08-27:
  62:C:/Workspace/DAVE-4.4.2-64Bit/xmc1400-getstarted-optiga-trust-m/Libraries/XMCLib/inc\xmc_usic.h ****  *     - Fixed bug in XMC_USIC_CH_BRG_CLOCK_SOURCE_DX1T value.
  63:C:/Workspace/DAVE-4.4.2-64Bit/xmc1400-getstarted-optiga-trust-m/Libraries/XMCLib/inc\xmc_usic.h ****  *     - Added APIs for direct TBUF access: XMC_USIC_CH_WriteToTBUF() and XMC_USIC_CH_WriteToTBUFTC
  64:C:/Workspace/DAVE-4.4.2-64Bit/xmc1400-getstarted-optiga-trust-m/Libraries/XMCLib/inc\xmc_usic.h ****  *     - Added APIs for external input for BRG configuration:XMC_USIC_CH_ConfigExternalInputSignalT
  65:C:/Workspace/DAVE-4.4.2-64Bit/xmc1400-getstarted-optiga-trust-m/Libraries/XMCLib/inc\xmc_usic.h ****  *
  66:C:/Workspace/DAVE-4.4.2-64Bit/xmc1400-getstarted-optiga-trust-m/Libraries/XMCLib/inc\xmc_usic.h ****  * 2015-08-28:
  67:C:/Workspace/DAVE-4.4.2-64Bit/xmc1400-getstarted-optiga-trust-m/Libraries/XMCLib/inc\xmc_usic.h ****  *     - Added API for enabling the transfer trigger unit to set bit TCSR.TE if the trigger signal 
  68:C:/Workspace/DAVE-4.4.2-64Bit/xmc1400-getstarted-optiga-trust-m/Libraries/XMCLib/inc\xmc_usic.h ****  *       Clear to Send (CTS) signal: XMC_USIC_CH_EnableTBUFDataValidTrigger() and XMC_USIC_CH_Disab
  69:C:/Workspace/DAVE-4.4.2-64Bit/xmc1400-getstarted-optiga-trust-m/Libraries/XMCLib/inc\xmc_usic.h ****  *
  70:C:/Workspace/DAVE-4.4.2-64Bit/xmc1400-getstarted-optiga-trust-m/Libraries/XMCLib/inc\xmc_usic.h ****  * 2016-03-09:
  71:C:/Workspace/DAVE-4.4.2-64Bit/xmc1400-getstarted-optiga-trust-m/Libraries/XMCLib/inc\xmc_usic.h ****  *     - Optimization of write only registers
  72:C:/Workspace/DAVE-4.4.2-64Bit/xmc1400-getstarted-optiga-trust-m/Libraries/XMCLib/inc\xmc_usic.h ****  *
  73:C:/Workspace/DAVE-4.4.2-64Bit/xmc1400-getstarted-optiga-trust-m/Libraries/XMCLib/inc\xmc_usic.h ****  * 2016-04-10:
  74:C:/Workspace/DAVE-4.4.2-64Bit/xmc1400-getstarted-optiga-trust-m/Libraries/XMCLib/inc\xmc_usic.h ****  *     - Added an API to put the data into FIFO when hardware port control is enabled: XMC_USIC_CH_
  75:C:/Workspace/DAVE-4.4.2-64Bit/xmc1400-getstarted-optiga-trust-m/Libraries/XMCLib/inc\xmc_usic.h ****  *
  76:C:/Workspace/DAVE-4.4.2-64Bit/xmc1400-getstarted-optiga-trust-m/Libraries/XMCLib/inc\xmc_usic.h ****  * 2017-02-10:
  77:C:/Workspace/DAVE-4.4.2-64Bit/xmc1400-getstarted-optiga-trust-m/Libraries/XMCLib/inc\xmc_usic.h ****  *     - Added XMC_USIC_CH_SetShiftDirection() to allow selection of shift direction of the data wo
  78:C:/Workspace/DAVE-4.4.2-64Bit/xmc1400-getstarted-optiga-trust-m/Libraries/XMCLib/inc\xmc_usic.h ****  *     - Added XMC_USIC_CH_GetCaptureTimerValue() and XMC_USIC_CH_SetFractionalDivider()
  79:C:/Workspace/DAVE-4.4.2-64Bit/xmc1400-getstarted-optiga-trust-m/Libraries/XMCLib/inc\xmc_usic.h ****  *
  80:C:/Workspace/DAVE-4.4.2-64Bit/xmc1400-getstarted-optiga-trust-m/Libraries/XMCLib/inc\xmc_usic.h ****  * 2017-09-08:
  81:C:/Workspace/DAVE-4.4.2-64Bit/xmc1400-getstarted-optiga-trust-m/Libraries/XMCLib/inc\xmc_usic.h ****  *     - Fixed value of macro XMC_USIC_CH_SHIFT_DIRECTION_MSB_FIRST used in XMC_USIC_CH_SetShiftDir
  82:C:/Workspace/DAVE-4.4.2-64Bit/xmc1400-getstarted-optiga-trust-m/Libraries/XMCLib/inc\xmc_usic.h ****  *
  83:C:/Workspace/DAVE-4.4.2-64Bit/xmc1400-getstarted-optiga-trust-m/Libraries/XMCLib/inc\xmc_usic.h ****  * 2018-09-29:
  84:C:/Workspace/DAVE-4.4.2-64Bit/xmc1400-getstarted-optiga-trust-m/Libraries/XMCLib/inc\xmc_usic.h ****  *     - Added XMC_USIC_CH_SetBaudrateEx which uses the integer divider instead of the fractional d
  85:C:/Workspace/DAVE-4.4.2-64Bit/xmc1400-getstarted-optiga-trust-m/Libraries/XMCLib/inc\xmc_usic.h ****  * 
  86:C:/Workspace/DAVE-4.4.2-64Bit/xmc1400-getstarted-optiga-trust-m/Libraries/XMCLib/inc\xmc_usic.h ****  * 2019-05-07:
  87:C:/Workspace/DAVE-4.4.2-64Bit/xmc1400-getstarted-optiga-trust-m/Libraries/XMCLib/inc\xmc_usic.h ****  *     - Added XMC_USIC_CH_GetBaudrate(), XMC_USIC_CH_GetSCLKFrequency() and XMC_USIC_CH_GetMCLKFre
  88:C:/Workspace/DAVE-4.4.2-64Bit/xmc1400-getstarted-optiga-trust-m/Libraries/XMCLib/inc\xmc_usic.h ****  *
  89:C:/Workspace/DAVE-4.4.2-64Bit/xmc1400-getstarted-optiga-trust-m/Libraries/XMCLib/inc\xmc_usic.h ****  * 2019-07-01:
  90:C:/Workspace/DAVE-4.4.2-64Bit/xmc1400-getstarted-optiga-trust-m/Libraries/XMCLib/inc\xmc_usic.h ****  *     - Changed XMC_USIC_CH_SetBaudrateEx() input parameter types
  91:C:/Workspace/DAVE-4.4.2-64Bit/xmc1400-getstarted-optiga-trust-m/Libraries/XMCLib/inc\xmc_usic.h ****  *
  92:C:/Workspace/DAVE-4.4.2-64Bit/xmc1400-getstarted-optiga-trust-m/Libraries/XMCLib/inc\xmc_usic.h ****  * @endcond
  93:C:/Workspace/DAVE-4.4.2-64Bit/xmc1400-getstarted-optiga-trust-m/Libraries/XMCLib/inc\xmc_usic.h ****  *
  94:C:/Workspace/DAVE-4.4.2-64Bit/xmc1400-getstarted-optiga-trust-m/Libraries/XMCLib/inc\xmc_usic.h ****  */
  95:C:/Workspace/DAVE-4.4.2-64Bit/xmc1400-getstarted-optiga-trust-m/Libraries/XMCLib/inc\xmc_usic.h **** 
  96:C:/Workspace/DAVE-4.4.2-64Bit/xmc1400-getstarted-optiga-trust-m/Libraries/XMCLib/inc\xmc_usic.h **** #ifndef XMC_USIC_H
  97:C:/Workspace/DAVE-4.4.2-64Bit/xmc1400-getstarted-optiga-trust-m/Libraries/XMCLib/inc\xmc_usic.h **** #define XMC_USIC_H
  98:C:/Workspace/DAVE-4.4.2-64Bit/xmc1400-getstarted-optiga-trust-m/Libraries/XMCLib/inc\xmc_usic.h **** /*******************************************************************************
  99:C:/Workspace/DAVE-4.4.2-64Bit/xmc1400-getstarted-optiga-trust-m/Libraries/XMCLib/inc\xmc_usic.h ****  * HEADER FILES
 100:C:/Workspace/DAVE-4.4.2-64Bit/xmc1400-getstarted-optiga-trust-m/Libraries/XMCLib/inc\xmc_usic.h ****  *******************************************************************************/
 101:C:/Workspace/DAVE-4.4.2-64Bit/xmc1400-getstarted-optiga-trust-m/Libraries/XMCLib/inc\xmc_usic.h **** 
 102:C:/Workspace/DAVE-4.4.2-64Bit/xmc1400-getstarted-optiga-trust-m/Libraries/XMCLib/inc\xmc_usic.h **** #include "xmc_common.h"
 103:C:/Workspace/DAVE-4.4.2-64Bit/xmc1400-getstarted-optiga-trust-m/Libraries/XMCLib/inc\xmc_usic.h **** 
 104:C:/Workspace/DAVE-4.4.2-64Bit/xmc1400-getstarted-optiga-trust-m/Libraries/XMCLib/inc\xmc_usic.h **** /**
 105:C:/Workspace/DAVE-4.4.2-64Bit/xmc1400-getstarted-optiga-trust-m/Libraries/XMCLib/inc\xmc_usic.h ****  * @addtogroup XMClib XMC Peripheral Library
 106:C:/Workspace/DAVE-4.4.2-64Bit/xmc1400-getstarted-optiga-trust-m/Libraries/XMCLib/inc\xmc_usic.h ****  * @{
 107:C:/Workspace/DAVE-4.4.2-64Bit/xmc1400-getstarted-optiga-trust-m/Libraries/XMCLib/inc\xmc_usic.h ****  */
 108:C:/Workspace/DAVE-4.4.2-64Bit/xmc1400-getstarted-optiga-trust-m/Libraries/XMCLib/inc\xmc_usic.h **** 
 109:C:/Workspace/DAVE-4.4.2-64Bit/xmc1400-getstarted-optiga-trust-m/Libraries/XMCLib/inc\xmc_usic.h **** /**
 110:C:/Workspace/DAVE-4.4.2-64Bit/xmc1400-getstarted-optiga-trust-m/Libraries/XMCLib/inc\xmc_usic.h ****  * @addtogroup USIC
 111:C:/Workspace/DAVE-4.4.2-64Bit/xmc1400-getstarted-optiga-trust-m/Libraries/XMCLib/inc\xmc_usic.h ****  * @brief Universal Serial Interface Channel(USIC) driver for serial communication.
 112:C:/Workspace/DAVE-4.4.2-64Bit/xmc1400-getstarted-optiga-trust-m/Libraries/XMCLib/inc\xmc_usic.h ****  *
 113:C:/Workspace/DAVE-4.4.2-64Bit/xmc1400-getstarted-optiga-trust-m/Libraries/XMCLib/inc\xmc_usic.h ****  * The Universal Serial Interface Channel(USIC) module is a flexible interface module
 114:C:/Workspace/DAVE-4.4.2-64Bit/xmc1400-getstarted-optiga-trust-m/Libraries/XMCLib/inc\xmc_usic.h ****  * covering several serial communication protocols. A USIC module contains two
 115:C:/Workspace/DAVE-4.4.2-64Bit/xmc1400-getstarted-optiga-trust-m/Libraries/XMCLib/inc\xmc_usic.h ****  * independent communication channels named USICx_CH0 and USICx_CH1, with x
 116:C:/Workspace/DAVE-4.4.2-64Bit/xmc1400-getstarted-optiga-trust-m/Libraries/XMCLib/inc\xmc_usic.h ****  * being the number of the USIC module. The user can program, during run-time, which protocol will 
 117:C:/Workspace/DAVE-4.4.2-64Bit/xmc1400-getstarted-optiga-trust-m/Libraries/XMCLib/inc\xmc_usic.h ****  * by each communication channel and which pins are used.
 118:C:/Workspace/DAVE-4.4.2-64Bit/xmc1400-getstarted-optiga-trust-m/Libraries/XMCLib/inc\xmc_usic.h ****  * The driver provides APIs, configuration structures and enumerations to configure common features
 119:C:/Workspace/DAVE-4.4.2-64Bit/xmc1400-getstarted-optiga-trust-m/Libraries/XMCLib/inc\xmc_usic.h ****  * communication protocols.
 120:C:/Workspace/DAVE-4.4.2-64Bit/xmc1400-getstarted-optiga-trust-m/Libraries/XMCLib/inc\xmc_usic.h ****  * 
 121:C:/Workspace/DAVE-4.4.2-64Bit/xmc1400-getstarted-optiga-trust-m/Libraries/XMCLib/inc\xmc_usic.h ****  * USIC driver features:
 122:C:/Workspace/DAVE-4.4.2-64Bit/xmc1400-getstarted-optiga-trust-m/Libraries/XMCLib/inc\xmc_usic.h ****  * -# Allows configuration of FIFO for transmit and receive functions.
 123:C:/Workspace/DAVE-4.4.2-64Bit/xmc1400-getstarted-optiga-trust-m/Libraries/XMCLib/inc\xmc_usic.h ****  * -# Provides a structure type XMC_USIC_CH_t to represent the USIC channel registers in a programm
 124:C:/Workspace/DAVE-4.4.2-64Bit/xmc1400-getstarted-optiga-trust-m/Libraries/XMCLib/inc\xmc_usic.h ****  friendly format.
 125:C:/Workspace/DAVE-4.4.2-64Bit/xmc1400-getstarted-optiga-trust-m/Libraries/XMCLib/inc\xmc_usic.h ****  * -# Allows configuration of automatic update for frame length, word length, slave select or slave
 126:C:/Workspace/DAVE-4.4.2-64Bit/xmc1400-getstarted-optiga-trust-m/Libraries/XMCLib/inc\xmc_usic.h ****  * -# Allows transmission of data to FIFO using XMC_USIC_CH_TXFIFO_PutData() and XMC_USIC_CH_TXFIFO
 127:C:/Workspace/DAVE-4.4.2-64Bit/xmc1400-getstarted-optiga-trust-m/Libraries/XMCLib/inc\xmc_usic.h ****  * -# Allows reading of received data in FIFO using XMC_USIC_CH_RXFIFO_GetData()
 128:C:/Workspace/DAVE-4.4.2-64Bit/xmc1400-getstarted-optiga-trust-m/Libraries/XMCLib/inc\xmc_usic.h ****  * -# Allows configuration of baudrate using XMC_USIC_CH_SetBaudrate()
 129:C:/Workspace/DAVE-4.4.2-64Bit/xmc1400-getstarted-optiga-trust-m/Libraries/XMCLib/inc\xmc_usic.h ****  * -# Provides API to trigger interrupts using XMC_USIC_CH_TriggerServiceRequest()
 130:C:/Workspace/DAVE-4.4.2-64Bit/xmc1400-getstarted-optiga-trust-m/Libraries/XMCLib/inc\xmc_usic.h ****  * @{
 131:C:/Workspace/DAVE-4.4.2-64Bit/xmc1400-getstarted-optiga-trust-m/Libraries/XMCLib/inc\xmc_usic.h ****  */
 132:C:/Workspace/DAVE-4.4.2-64Bit/xmc1400-getstarted-optiga-trust-m/Libraries/XMCLib/inc\xmc_usic.h **** 
 133:C:/Workspace/DAVE-4.4.2-64Bit/xmc1400-getstarted-optiga-trust-m/Libraries/XMCLib/inc\xmc_usic.h **** /*******************************************************************************
 134:C:/Workspace/DAVE-4.4.2-64Bit/xmc1400-getstarted-optiga-trust-m/Libraries/XMCLib/inc\xmc_usic.h ****  * MACROS
 135:C:/Workspace/DAVE-4.4.2-64Bit/xmc1400-getstarted-optiga-trust-m/Libraries/XMCLib/inc\xmc_usic.h ****  *******************************************************************************/
 136:C:/Workspace/DAVE-4.4.2-64Bit/xmc1400-getstarted-optiga-trust-m/Libraries/XMCLib/inc\xmc_usic.h **** 
 137:C:/Workspace/DAVE-4.4.2-64Bit/xmc1400-getstarted-optiga-trust-m/Libraries/XMCLib/inc\xmc_usic.h **** #define XMC_USIC0 ((XMC_USIC_t *)USIC0_BASE)			/**< USIC0 module base address */
 138:C:/Workspace/DAVE-4.4.2-64Bit/xmc1400-getstarted-optiga-trust-m/Libraries/XMCLib/inc\xmc_usic.h **** #define XMC_USIC0_CH0 ((XMC_USIC_CH_t *)USIC0_CH0_BASE)	/**< USIC0 channel 0 base address */
 139:C:/Workspace/DAVE-4.4.2-64Bit/xmc1400-getstarted-optiga-trust-m/Libraries/XMCLib/inc\xmc_usic.h **** #define XMC_USIC0_CH1 ((XMC_USIC_CH_t *)USIC0_CH1_BASE)	/**< USIC0 channel 1 base address */
 140:C:/Workspace/DAVE-4.4.2-64Bit/xmc1400-getstarted-optiga-trust-m/Libraries/XMCLib/inc\xmc_usic.h **** 
 141:C:/Workspace/DAVE-4.4.2-64Bit/xmc1400-getstarted-optiga-trust-m/Libraries/XMCLib/inc\xmc_usic.h **** #if defined(USIC1)
 142:C:/Workspace/DAVE-4.4.2-64Bit/xmc1400-getstarted-optiga-trust-m/Libraries/XMCLib/inc\xmc_usic.h **** #define XMC_USIC1 ((XMC_USIC_t *)USIC1_BASE)			/**< USIC1 module base address */
 143:C:/Workspace/DAVE-4.4.2-64Bit/xmc1400-getstarted-optiga-trust-m/Libraries/XMCLib/inc\xmc_usic.h **** #define XMC_USIC1_CH0 ((XMC_USIC_CH_t *)USIC1_CH0_BASE)	/**< USIC1 channel 0 base address */
 144:C:/Workspace/DAVE-4.4.2-64Bit/xmc1400-getstarted-optiga-trust-m/Libraries/XMCLib/inc\xmc_usic.h **** #define XMC_USIC1_CH1 ((XMC_USIC_CH_t *)USIC1_CH1_BASE)	/**< USIC1 channel 1 base address */
 145:C:/Workspace/DAVE-4.4.2-64Bit/xmc1400-getstarted-optiga-trust-m/Libraries/XMCLib/inc\xmc_usic.h **** #endif
 146:C:/Workspace/DAVE-4.4.2-64Bit/xmc1400-getstarted-optiga-trust-m/Libraries/XMCLib/inc\xmc_usic.h **** 
 147:C:/Workspace/DAVE-4.4.2-64Bit/xmc1400-getstarted-optiga-trust-m/Libraries/XMCLib/inc\xmc_usic.h **** #if defined(USIC2)
 148:C:/Workspace/DAVE-4.4.2-64Bit/xmc1400-getstarted-optiga-trust-m/Libraries/XMCLib/inc\xmc_usic.h **** #define XMC_USIC2 ((XMC_USIC_t *)USIC2_BASE)			/**< USIC2 module base address */
 149:C:/Workspace/DAVE-4.4.2-64Bit/xmc1400-getstarted-optiga-trust-m/Libraries/XMCLib/inc\xmc_usic.h **** #define XMC_USIC2_CH0 ((XMC_USIC_CH_t *)USIC2_CH0_BASE)	/**< USIC2 channel 0 base address */
 150:C:/Workspace/DAVE-4.4.2-64Bit/xmc1400-getstarted-optiga-trust-m/Libraries/XMCLib/inc\xmc_usic.h **** #define XMC_USIC2_CH1 ((XMC_USIC_CH_t *)USIC2_CH1_BASE)	/**< USIC2 channel 1 base address */
 151:C:/Workspace/DAVE-4.4.2-64Bit/xmc1400-getstarted-optiga-trust-m/Libraries/XMCLib/inc\xmc_usic.h **** #endif
 152:C:/Workspace/DAVE-4.4.2-64Bit/xmc1400-getstarted-optiga-trust-m/Libraries/XMCLib/inc\xmc_usic.h **** 
 153:C:/Workspace/DAVE-4.4.2-64Bit/xmc1400-getstarted-optiga-trust-m/Libraries/XMCLib/inc\xmc_usic.h **** #define USIC_CH_DXCR_DSEL_Msk  USIC_CH_DX0CR_DSEL_Msk   /**< Common mask for DSEL bitfield mask in 
 154:C:/Workspace/DAVE-4.4.2-64Bit/xmc1400-getstarted-optiga-trust-m/Libraries/XMCLib/inc\xmc_usic.h **** #define USIC_CH_DXCR_DSEL_Pos  USIC_CH_DX0CR_DSEL_Pos   /**< Common mask for DSEL bitfield position
 155:C:/Workspace/DAVE-4.4.2-64Bit/xmc1400-getstarted-optiga-trust-m/Libraries/XMCLib/inc\xmc_usic.h **** #define USIC_CH_DXCR_SFSEL_Pos USIC_CH_DX0CR_SFSEL_Pos  /**< Common mask for SFSEL bitfield positio
 156:C:/Workspace/DAVE-4.4.2-64Bit/xmc1400-getstarted-optiga-trust-m/Libraries/XMCLib/inc\xmc_usic.h **** #define USIC_CH_DXCR_SFSEL_Msk USIC_CH_DX0CR_SFSEL_Msk  /**< Common mask for SFSEL bitfield mask in
 157:C:/Workspace/DAVE-4.4.2-64Bit/xmc1400-getstarted-optiga-trust-m/Libraries/XMCLib/inc\xmc_usic.h **** #define USIC_CH_DXCR_DPOL_Msk  USIC_CH_DX0CR_DPOL_Msk   /**< Common mask for DPOL bitfield mask in 
 158:C:/Workspace/DAVE-4.4.2-64Bit/xmc1400-getstarted-optiga-trust-m/Libraries/XMCLib/inc\xmc_usic.h **** #define USIC_CH_DXCR_DFEN_Msk  USIC_CH_DX0CR_DFEN_Msk   /**< Common mask for DFEN bitfield mask in 
 159:C:/Workspace/DAVE-4.4.2-64Bit/xmc1400-getstarted-optiga-trust-m/Libraries/XMCLib/inc\xmc_usic.h **** #define USIC_CH_DXCR_DSEN_Msk  USIC_CH_DX0CR_DSEN_Msk   /**< Common mask for DSEN bitfield mask in 
 160:C:/Workspace/DAVE-4.4.2-64Bit/xmc1400-getstarted-optiga-trust-m/Libraries/XMCLib/inc\xmc_usic.h **** #define USIC_CH_DXCR_CM_Pos    USIC_CH_DX0CR_CM_Pos     /**< Common mask for CM bitfield position i
 161:C:/Workspace/DAVE-4.4.2-64Bit/xmc1400-getstarted-optiga-trust-m/Libraries/XMCLib/inc\xmc_usic.h **** #define USIC_CH_DXCR_CM_Msk    USIC_CH_DX0CR_CM_Msk     /**< Common mask for CM bitfield mask in DX
 162:C:/Workspace/DAVE-4.4.2-64Bit/xmc1400-getstarted-optiga-trust-m/Libraries/XMCLib/inc\xmc_usic.h **** #define USIC_CH_DXCR_INSW_Msk  USIC_CH_DX0CR_INSW_Msk   /**< Common mask for INSW bitfield mask in 
 163:C:/Workspace/DAVE-4.4.2-64Bit/xmc1400-getstarted-optiga-trust-m/Libraries/XMCLib/inc\xmc_usic.h **** #define USIC_CH_DXCR_INSW_pos  USIC_CH_DX0CR_INSW_Pos   /**< Common mask for INSW bitfield position
 164:C:/Workspace/DAVE-4.4.2-64Bit/xmc1400-getstarted-optiga-trust-m/Libraries/XMCLib/inc\xmc_usic.h **** 
 165:C:/Workspace/DAVE-4.4.2-64Bit/xmc1400-getstarted-optiga-trust-m/Libraries/XMCLib/inc\xmc_usic.h **** #if UC_FAMILY == XMC1
 166:C:/Workspace/DAVE-4.4.2-64Bit/xmc1400-getstarted-optiga-trust-m/Libraries/XMCLib/inc\xmc_usic.h ****  #include "xmc1_usic_map.h"
 167:C:/Workspace/DAVE-4.4.2-64Bit/xmc1400-getstarted-optiga-trust-m/Libraries/XMCLib/inc\xmc_usic.h **** #endif
 168:C:/Workspace/DAVE-4.4.2-64Bit/xmc1400-getstarted-optiga-trust-m/Libraries/XMCLib/inc\xmc_usic.h **** 
 169:C:/Workspace/DAVE-4.4.2-64Bit/xmc1400-getstarted-optiga-trust-m/Libraries/XMCLib/inc\xmc_usic.h **** #if UC_FAMILY == XMC4
 170:C:/Workspace/DAVE-4.4.2-64Bit/xmc1400-getstarted-optiga-trust-m/Libraries/XMCLib/inc\xmc_usic.h ****  #include "xmc4_usic_map.h"
 171:C:/Workspace/DAVE-4.4.2-64Bit/xmc1400-getstarted-optiga-trust-m/Libraries/XMCLib/inc\xmc_usic.h **** #endif
 172:C:/Workspace/DAVE-4.4.2-64Bit/xmc1400-getstarted-optiga-trust-m/Libraries/XMCLib/inc\xmc_usic.h **** 
 173:C:/Workspace/DAVE-4.4.2-64Bit/xmc1400-getstarted-optiga-trust-m/Libraries/XMCLib/inc\xmc_usic.h **** /*******************************************************************************
 174:C:/Workspace/DAVE-4.4.2-64Bit/xmc1400-getstarted-optiga-trust-m/Libraries/XMCLib/inc\xmc_usic.h ****  * ENUMS
 175:C:/Workspace/DAVE-4.4.2-64Bit/xmc1400-getstarted-optiga-trust-m/Libraries/XMCLib/inc\xmc_usic.h ****  *******************************************************************************/
 176:C:/Workspace/DAVE-4.4.2-64Bit/xmc1400-getstarted-optiga-trust-m/Libraries/XMCLib/inc\xmc_usic.h **** 
 177:C:/Workspace/DAVE-4.4.2-64Bit/xmc1400-getstarted-optiga-trust-m/Libraries/XMCLib/inc\xmc_usic.h **** /**
 178:C:/Workspace/DAVE-4.4.2-64Bit/xmc1400-getstarted-optiga-trust-m/Libraries/XMCLib/inc\xmc_usic.h ****  * USIC channel driver status
 179:C:/Workspace/DAVE-4.4.2-64Bit/xmc1400-getstarted-optiga-trust-m/Libraries/XMCLib/inc\xmc_usic.h ****  */
 180:C:/Workspace/DAVE-4.4.2-64Bit/xmc1400-getstarted-optiga-trust-m/Libraries/XMCLib/inc\xmc_usic.h **** typedef enum XMC_USIC_CH_STATUS
 181:C:/Workspace/DAVE-4.4.2-64Bit/xmc1400-getstarted-optiga-trust-m/Libraries/XMCLib/inc\xmc_usic.h **** {
 182:C:/Workspace/DAVE-4.4.2-64Bit/xmc1400-getstarted-optiga-trust-m/Libraries/XMCLib/inc\xmc_usic.h ****   XMC_USIC_CH_STATUS_OK,    /**< USIC driver status : OK */
 183:C:/Workspace/DAVE-4.4.2-64Bit/xmc1400-getstarted-optiga-trust-m/Libraries/XMCLib/inc\xmc_usic.h ****   XMC_USIC_CH_STATUS_ERROR, /**< USIC driver status : ERROR */
 184:C:/Workspace/DAVE-4.4.2-64Bit/xmc1400-getstarted-optiga-trust-m/Libraries/XMCLib/inc\xmc_usic.h ****   XMC_USIC_CH_STATUS_BUSY   /**< USIC driver status : BUSY */
 185:C:/Workspace/DAVE-4.4.2-64Bit/xmc1400-getstarted-optiga-trust-m/Libraries/XMCLib/inc\xmc_usic.h **** } XMC_USIC_CH_STATUS_t;
 186:C:/Workspace/DAVE-4.4.2-64Bit/xmc1400-getstarted-optiga-trust-m/Libraries/XMCLib/inc\xmc_usic.h **** 
 187:C:/Workspace/DAVE-4.4.2-64Bit/xmc1400-getstarted-optiga-trust-m/Libraries/XMCLib/inc\xmc_usic.h **** /**
 188:C:/Workspace/DAVE-4.4.2-64Bit/xmc1400-getstarted-optiga-trust-m/Libraries/XMCLib/inc\xmc_usic.h **** * USIC channel kernel mode
 189:C:/Workspace/DAVE-4.4.2-64Bit/xmc1400-getstarted-optiga-trust-m/Libraries/XMCLib/inc\xmc_usic.h **** */
 190:C:/Workspace/DAVE-4.4.2-64Bit/xmc1400-getstarted-optiga-trust-m/Libraries/XMCLib/inc\xmc_usic.h **** typedef enum XMC_USIC_CH_KERNEL_MODE
 191:C:/Workspace/DAVE-4.4.2-64Bit/xmc1400-getstarted-optiga-trust-m/Libraries/XMCLib/inc\xmc_usic.h **** {
 192:C:/Workspace/DAVE-4.4.2-64Bit/xmc1400-getstarted-optiga-trust-m/Libraries/XMCLib/inc\xmc_usic.h ****   XMC_USIC_CH_KERNEL_MODE_RUN_0  = 0x0UL,  /**< Run mode 0 (transmission and reception possible)*/
 193:C:/Workspace/DAVE-4.4.2-64Bit/xmc1400-getstarted-optiga-trust-m/Libraries/XMCLib/inc\xmc_usic.h ****   XMC_USIC_CH_KERNEL_MODE_RUN_1  = 0x1UL << USIC_CH_KSCFG_NOMCFG_Pos,  /**< Run mode 1 (transmissio
 194:C:/Workspace/DAVE-4.4.2-64Bit/xmc1400-getstarted-optiga-trust-m/Libraries/XMCLib/inc\xmc_usic.h ****   XMC_USIC_CH_KERNEL_MODE_STOP_0 = 0x2UL << USIC_CH_KSCFG_NOMCFG_Pos,  /**< Stop mode 0 (no transmi
 195:C:/Workspace/DAVE-4.4.2-64Bit/xmc1400-getstarted-optiga-trust-m/Libraries/XMCLib/inc\xmc_usic.h ****   XMC_USIC_CH_KERNEL_MODE_STOP_1 = 0x3UL << USIC_CH_KSCFG_NOMCFG_Pos   /**< Stop mode 1 (both trans
 196:C:/Workspace/DAVE-4.4.2-64Bit/xmc1400-getstarted-optiga-trust-m/Libraries/XMCLib/inc\xmc_usic.h **** } XMC_USIC_CH_KERNEL_MODE_t;
 197:C:/Workspace/DAVE-4.4.2-64Bit/xmc1400-getstarted-optiga-trust-m/Libraries/XMCLib/inc\xmc_usic.h **** 
 198:C:/Workspace/DAVE-4.4.2-64Bit/xmc1400-getstarted-optiga-trust-m/Libraries/XMCLib/inc\xmc_usic.h **** /**
 199:C:/Workspace/DAVE-4.4.2-64Bit/xmc1400-getstarted-optiga-trust-m/Libraries/XMCLib/inc\xmc_usic.h ****  * USIC channel operating mode
 200:C:/Workspace/DAVE-4.4.2-64Bit/xmc1400-getstarted-optiga-trust-m/Libraries/XMCLib/inc\xmc_usic.h ****  */
 201:C:/Workspace/DAVE-4.4.2-64Bit/xmc1400-getstarted-optiga-trust-m/Libraries/XMCLib/inc\xmc_usic.h **** typedef enum XMC_USIC_CH_OPERATING_MODE
 202:C:/Workspace/DAVE-4.4.2-64Bit/xmc1400-getstarted-optiga-trust-m/Libraries/XMCLib/inc\xmc_usic.h **** {
 203:C:/Workspace/DAVE-4.4.2-64Bit/xmc1400-getstarted-optiga-trust-m/Libraries/XMCLib/inc\xmc_usic.h ****   XMC_USIC_CH_OPERATING_MODE_IDLE = 0x0UL, /**< USIC channel idle */
 204:C:/Workspace/DAVE-4.4.2-64Bit/xmc1400-getstarted-optiga-trust-m/Libraries/XMCLib/inc\xmc_usic.h ****   XMC_USIC_CH_OPERATING_MODE_SPI  = 0x1UL << USIC_CH_CCR_MODE_Pos, /**< SPI mode */
 205:C:/Workspace/DAVE-4.4.2-64Bit/xmc1400-getstarted-optiga-trust-m/Libraries/XMCLib/inc\xmc_usic.h ****   XMC_USIC_CH_OPERATING_MODE_UART = 0x2UL << USIC_CH_CCR_MODE_Pos, /**< UART mode */
 206:C:/Workspace/DAVE-4.4.2-64Bit/xmc1400-getstarted-optiga-trust-m/Libraries/XMCLib/inc\xmc_usic.h ****   XMC_USIC_CH_OPERATING_MODE_I2S  = 0x3UL << USIC_CH_CCR_MODE_Pos, /**< I2S mode */
 207:C:/Workspace/DAVE-4.4.2-64Bit/xmc1400-getstarted-optiga-trust-m/Libraries/XMCLib/inc\xmc_usic.h ****   XMC_USIC_CH_OPERATING_MODE_I2C  = 0x4UL << USIC_CH_CCR_MODE_Pos  /**< I2C mode */
 208:C:/Workspace/DAVE-4.4.2-64Bit/xmc1400-getstarted-optiga-trust-m/Libraries/XMCLib/inc\xmc_usic.h **** } XMC_USIC_CH_OPERATING_MODE_t;
 209:C:/Workspace/DAVE-4.4.2-64Bit/xmc1400-getstarted-optiga-trust-m/Libraries/XMCLib/inc\xmc_usic.h **** 
 210:C:/Workspace/DAVE-4.4.2-64Bit/xmc1400-getstarted-optiga-trust-m/Libraries/XMCLib/inc\xmc_usic.h **** /**
 211:C:/Workspace/DAVE-4.4.2-64Bit/xmc1400-getstarted-optiga-trust-m/Libraries/XMCLib/inc\xmc_usic.h ****  * USIC channel inputs
 212:C:/Workspace/DAVE-4.4.2-64Bit/xmc1400-getstarted-optiga-trust-m/Libraries/XMCLib/inc\xmc_usic.h ****  */
 213:C:/Workspace/DAVE-4.4.2-64Bit/xmc1400-getstarted-optiga-trust-m/Libraries/XMCLib/inc\xmc_usic.h **** typedef enum XMC_USIC_CH_INPUT
 214:C:/Workspace/DAVE-4.4.2-64Bit/xmc1400-getstarted-optiga-trust-m/Libraries/XMCLib/inc\xmc_usic.h **** {
 215:C:/Workspace/DAVE-4.4.2-64Bit/xmc1400-getstarted-optiga-trust-m/Libraries/XMCLib/inc\xmc_usic.h ****   XMC_USIC_CH_INPUT_DX0, /**< DX0 input */
 216:C:/Workspace/DAVE-4.4.2-64Bit/xmc1400-getstarted-optiga-trust-m/Libraries/XMCLib/inc\xmc_usic.h ****   XMC_USIC_CH_INPUT_DX1, /**< DX1 input */
 217:C:/Workspace/DAVE-4.4.2-64Bit/xmc1400-getstarted-optiga-trust-m/Libraries/XMCLib/inc\xmc_usic.h ****   XMC_USIC_CH_INPUT_DX2, /**< DX2 input */
 218:C:/Workspace/DAVE-4.4.2-64Bit/xmc1400-getstarted-optiga-trust-m/Libraries/XMCLib/inc\xmc_usic.h ****   XMC_USIC_CH_INPUT_DX3, /**< DX3 input */
 219:C:/Workspace/DAVE-4.4.2-64Bit/xmc1400-getstarted-optiga-trust-m/Libraries/XMCLib/inc\xmc_usic.h ****   XMC_USIC_CH_INPUT_DX4, /**< DX4 input */
 220:C:/Workspace/DAVE-4.4.2-64Bit/xmc1400-getstarted-optiga-trust-m/Libraries/XMCLib/inc\xmc_usic.h ****   XMC_USIC_CH_INPUT_DX5  /**< DX5 input */
 221:C:/Workspace/DAVE-4.4.2-64Bit/xmc1400-getstarted-optiga-trust-m/Libraries/XMCLib/inc\xmc_usic.h **** } XMC_USIC_CH_INPUT_t;
 222:C:/Workspace/DAVE-4.4.2-64Bit/xmc1400-getstarted-optiga-trust-m/Libraries/XMCLib/inc\xmc_usic.h **** 
 223:C:/Workspace/DAVE-4.4.2-64Bit/xmc1400-getstarted-optiga-trust-m/Libraries/XMCLib/inc\xmc_usic.h **** /**
 224:C:/Workspace/DAVE-4.4.2-64Bit/xmc1400-getstarted-optiga-trust-m/Libraries/XMCLib/inc\xmc_usic.h ****  * USIC channel input source sampling frequency
 225:C:/Workspace/DAVE-4.4.2-64Bit/xmc1400-getstarted-optiga-trust-m/Libraries/XMCLib/inc\xmc_usic.h ****  */
 226:C:/Workspace/DAVE-4.4.2-64Bit/xmc1400-getstarted-optiga-trust-m/Libraries/XMCLib/inc\xmc_usic.h **** typedef enum XMC_USIC_CH_INPUT_SAMPLING_FREQ
 227:C:/Workspace/DAVE-4.4.2-64Bit/xmc1400-getstarted-optiga-trust-m/Libraries/XMCLib/inc\xmc_usic.h **** {
 228:C:/Workspace/DAVE-4.4.2-64Bit/xmc1400-getstarted-optiga-trust-m/Libraries/XMCLib/inc\xmc_usic.h ****   XMC_USIC_CH_INPUT_SAMPLING_FREQ_FPERIPH            = 0x0UL, /**< Use fperiph frequency for input 
 229:C:/Workspace/DAVE-4.4.2-64Bit/xmc1400-getstarted-optiga-trust-m/Libraries/XMCLib/inc\xmc_usic.h ****   XMC_USIC_CH_INPUT_SAMPLING_FREQ_FRACTIONAL_DIVIDER = 0x1UL << USIC_CH_DXCR_SFSEL_Pos  /**< Use fF
 230:C:/Workspace/DAVE-4.4.2-64Bit/xmc1400-getstarted-optiga-trust-m/Libraries/XMCLib/inc\xmc_usic.h **** } XMC_USIC_CH_INPUT_SAMPLING_FREQ_t;
 231:C:/Workspace/DAVE-4.4.2-64Bit/xmc1400-getstarted-optiga-trust-m/Libraries/XMCLib/inc\xmc_usic.h **** 
 232:C:/Workspace/DAVE-4.4.2-64Bit/xmc1400-getstarted-optiga-trust-m/Libraries/XMCLib/inc\xmc_usic.h **** /**
 233:C:/Workspace/DAVE-4.4.2-64Bit/xmc1400-getstarted-optiga-trust-m/Libraries/XMCLib/inc\xmc_usic.h ****  * USIC channel input combination mode
 234:C:/Workspace/DAVE-4.4.2-64Bit/xmc1400-getstarted-optiga-trust-m/Libraries/XMCLib/inc\xmc_usic.h ****  */
 235:C:/Workspace/DAVE-4.4.2-64Bit/xmc1400-getstarted-optiga-trust-m/Libraries/XMCLib/inc\xmc_usic.h **** typedef enum XMC_USIC_CH_INPUT_COMBINATION_MODE
 236:C:/Workspace/DAVE-4.4.2-64Bit/xmc1400-getstarted-optiga-trust-m/Libraries/XMCLib/inc\xmc_usic.h **** {
 237:C:/Workspace/DAVE-4.4.2-64Bit/xmc1400-getstarted-optiga-trust-m/Libraries/XMCLib/inc\xmc_usic.h ****   XMC_USIC_CH_INPUT_COMBINATION_MODE_TRIGGER_DISABLED = 0x0UL, /**< The trigger activation is disab
 238:C:/Workspace/DAVE-4.4.2-64Bit/xmc1400-getstarted-optiga-trust-m/Libraries/XMCLib/inc\xmc_usic.h ****   XMC_USIC_CH_INPUT_COMBINATION_MODE_RISING_EDGE      = 0x1UL, /**< A rising edge activates DXnT*/
 239:C:/Workspace/DAVE-4.4.2-64Bit/xmc1400-getstarted-optiga-trust-m/Libraries/XMCLib/inc\xmc_usic.h ****   XMC_USIC_CH_INPUT_COMBINATION_MODE_FALLING_EDGE     = 0x2UL, /**< A falling edge activates DXnT*/
 240:C:/Workspace/DAVE-4.4.2-64Bit/xmc1400-getstarted-optiga-trust-m/Libraries/XMCLib/inc\xmc_usic.h ****   XMC_USIC_CH_INPUT_COMBINATION_MODE_BOTH_EDGES       = 0x3UL, /**< Both edges activate DXnT*/
 241:C:/Workspace/DAVE-4.4.2-64Bit/xmc1400-getstarted-optiga-trust-m/Libraries/XMCLib/inc\xmc_usic.h **** } XMC_USIC_CH_INPUT_COMBINATION_MODE_t;
 242:C:/Workspace/DAVE-4.4.2-64Bit/xmc1400-getstarted-optiga-trust-m/Libraries/XMCLib/inc\xmc_usic.h **** 
 243:C:/Workspace/DAVE-4.4.2-64Bit/xmc1400-getstarted-optiga-trust-m/Libraries/XMCLib/inc\xmc_usic.h **** /**
 244:C:/Workspace/DAVE-4.4.2-64Bit/xmc1400-getstarted-optiga-trust-m/Libraries/XMCLib/inc\xmc_usic.h ****  * USIC channel data transmission start modes.
 245:C:/Workspace/DAVE-4.4.2-64Bit/xmc1400-getstarted-optiga-trust-m/Libraries/XMCLib/inc\xmc_usic.h ****  * Data shifted out of the transmit pin depends on the value configured for the
 246:C:/Workspace/DAVE-4.4.2-64Bit/xmc1400-getstarted-optiga-trust-m/Libraries/XMCLib/inc\xmc_usic.h ****  * TDEN bitfield of the TCSR register. Following enum values are used for configuring
 247:C:/Workspace/DAVE-4.4.2-64Bit/xmc1400-getstarted-optiga-trust-m/Libraries/XMCLib/inc\xmc_usic.h ****  * the TCSR->TDEN bitfield.
 248:C:/Workspace/DAVE-4.4.2-64Bit/xmc1400-getstarted-optiga-trust-m/Libraries/XMCLib/inc\xmc_usic.h ****  */
 249:C:/Workspace/DAVE-4.4.2-64Bit/xmc1400-getstarted-optiga-trust-m/Libraries/XMCLib/inc\xmc_usic.h **** typedef enum XMC_USIC_CH_START_TRANSMISION_MODE
 250:C:/Workspace/DAVE-4.4.2-64Bit/xmc1400-getstarted-optiga-trust-m/Libraries/XMCLib/inc\xmc_usic.h **** {
 251:C:/Workspace/DAVE-4.4.2-64Bit/xmc1400-getstarted-optiga-trust-m/Libraries/XMCLib/inc\xmc_usic.h ****   XMC_USIC_CH_START_TRANSMISION_DISABLED      = 0x0U, /**< Passive data level is sent out on transm
 252:C:/Workspace/DAVE-4.4.2-64Bit/xmc1400-getstarted-optiga-trust-m/Libraries/XMCLib/inc\xmc_usic.h ****   XMC_USIC_CH_START_TRANSMISION_ON_TDV        = 0x1UL << USIC_CH_TCSR_TDEN_Pos, /**< Transmission o
 253:C:/Workspace/DAVE-4.4.2-64Bit/xmc1400-getstarted-optiga-trust-m/Libraries/XMCLib/inc\xmc_usic.h ****   XMC_USIC_CH_START_TRANSMISION_ON_TDV_DX2S_0 = 0x2UL << USIC_CH_TCSR_TDEN_Pos, /**< Transmission o
 254:C:/Workspace/DAVE-4.4.2-64Bit/xmc1400-getstarted-optiga-trust-m/Libraries/XMCLib/inc\xmc_usic.h ****   XMC_USIC_CH_START_TRANSMISION_ON_TDV_DX2S_1 = 0x3UL << USIC_CH_TCSR_TDEN_Pos  /**< Transmission o
 255:C:/Workspace/DAVE-4.4.2-64Bit/xmc1400-getstarted-optiga-trust-m/Libraries/XMCLib/inc\xmc_usic.h **** } XMC_USIC_CH_START_TRANSMISION_MODE_t;
 256:C:/Workspace/DAVE-4.4.2-64Bit/xmc1400-getstarted-optiga-trust-m/Libraries/XMCLib/inc\xmc_usic.h **** 
 257:C:/Workspace/DAVE-4.4.2-64Bit/xmc1400-getstarted-optiga-trust-m/Libraries/XMCLib/inc\xmc_usic.h **** /**
 258:C:/Workspace/DAVE-4.4.2-64Bit/xmc1400-getstarted-optiga-trust-m/Libraries/XMCLib/inc\xmc_usic.h ****  * USIC channel interrupt node pointers
 259:C:/Workspace/DAVE-4.4.2-64Bit/xmc1400-getstarted-optiga-trust-m/Libraries/XMCLib/inc\xmc_usic.h ****  */
 260:C:/Workspace/DAVE-4.4.2-64Bit/xmc1400-getstarted-optiga-trust-m/Libraries/XMCLib/inc\xmc_usic.h **** typedef enum XMC_USIC_CH_INTERRUPT_NODE_POINTER
 261:C:/Workspace/DAVE-4.4.2-64Bit/xmc1400-getstarted-optiga-trust-m/Libraries/XMCLib/inc\xmc_usic.h **** {
 262:C:/Workspace/DAVE-4.4.2-64Bit/xmc1400-getstarted-optiga-trust-m/Libraries/XMCLib/inc\xmc_usic.h ****   XMC_USIC_CH_INTERRUPT_NODE_POINTER_TRANSMIT_SHIFT      = USIC_CH_INPR_TSINP_Pos, /**< Node pointe
 263:C:/Workspace/DAVE-4.4.2-64Bit/xmc1400-getstarted-optiga-trust-m/Libraries/XMCLib/inc\xmc_usic.h ****   XMC_USIC_CH_INTERRUPT_NODE_POINTER_TRANSMIT_BUFFER     = USIC_CH_INPR_TBINP_Pos, /**< Node pointe
 264:C:/Workspace/DAVE-4.4.2-64Bit/xmc1400-getstarted-optiga-trust-m/Libraries/XMCLib/inc\xmc_usic.h ****   XMC_USIC_CH_INTERRUPT_NODE_POINTER_RECEIVE             = USIC_CH_INPR_RINP_Pos,  /**< Node pointe
 265:C:/Workspace/DAVE-4.4.2-64Bit/xmc1400-getstarted-optiga-trust-m/Libraries/XMCLib/inc\xmc_usic.h ****   XMC_USIC_CH_INTERRUPT_NODE_POINTER_ALTERNATE_RECEIVE   = USIC_CH_INPR_AINP_Pos,  /**< Node pointe
 266:C:/Workspace/DAVE-4.4.2-64Bit/xmc1400-getstarted-optiga-trust-m/Libraries/XMCLib/inc\xmc_usic.h ****   XMC_USIC_CH_INTERRUPT_NODE_POINTER_PROTOCOL            = USIC_CH_INPR_PINP_Pos   /**< Node pointe
 267:C:/Workspace/DAVE-4.4.2-64Bit/xmc1400-getstarted-optiga-trust-m/Libraries/XMCLib/inc\xmc_usic.h **** } XMC_USIC_CH_INTERRUPT_NODE_POINTER_t;
 268:C:/Workspace/DAVE-4.4.2-64Bit/xmc1400-getstarted-optiga-trust-m/Libraries/XMCLib/inc\xmc_usic.h **** 
 269:C:/Workspace/DAVE-4.4.2-64Bit/xmc1400-getstarted-optiga-trust-m/Libraries/XMCLib/inc\xmc_usic.h **** /**
 270:C:/Workspace/DAVE-4.4.2-64Bit/xmc1400-getstarted-optiga-trust-m/Libraries/XMCLib/inc\xmc_usic.h ****  * USIC channel events
 271:C:/Workspace/DAVE-4.4.2-64Bit/xmc1400-getstarted-optiga-trust-m/Libraries/XMCLib/inc\xmc_usic.h ****  */
 272:C:/Workspace/DAVE-4.4.2-64Bit/xmc1400-getstarted-optiga-trust-m/Libraries/XMCLib/inc\xmc_usic.h **** typedef enum XMC_USIC_CH_EVENT
 273:C:/Workspace/DAVE-4.4.2-64Bit/xmc1400-getstarted-optiga-trust-m/Libraries/XMCLib/inc\xmc_usic.h **** {
 274:C:/Workspace/DAVE-4.4.2-64Bit/xmc1400-getstarted-optiga-trust-m/Libraries/XMCLib/inc\xmc_usic.h ****   XMC_USIC_CH_EVENT_RECEIVE_START       = USIC_CH_CCR_RSIEN_Msk, /**< Receive start event */
 275:C:/Workspace/DAVE-4.4.2-64Bit/xmc1400-getstarted-optiga-trust-m/Libraries/XMCLib/inc\xmc_usic.h ****   XMC_USIC_CH_EVENT_DATA_LOST           = USIC_CH_CCR_DLIEN_Msk, /**< Data lost event */
 276:C:/Workspace/DAVE-4.4.2-64Bit/xmc1400-getstarted-optiga-trust-m/Libraries/XMCLib/inc\xmc_usic.h ****   XMC_USIC_CH_EVENT_TRANSMIT_SHIFT      = USIC_CH_CCR_TSIEN_Msk, /**< Transmit shift event */
 277:C:/Workspace/DAVE-4.4.2-64Bit/xmc1400-getstarted-optiga-trust-m/Libraries/XMCLib/inc\xmc_usic.h ****   XMC_USIC_CH_EVENT_TRANSMIT_BUFFER     = USIC_CH_CCR_TBIEN_Msk, /**< Transmit buffer event */
 278:C:/Workspace/DAVE-4.4.2-64Bit/xmc1400-getstarted-optiga-trust-m/Libraries/XMCLib/inc\xmc_usic.h ****   XMC_USIC_CH_EVENT_STANDARD_RECEIVE    = USIC_CH_CCR_RIEN_Msk,  /**< Receive event */
 279:C:/Workspace/DAVE-4.4.2-64Bit/xmc1400-getstarted-optiga-trust-m/Libraries/XMCLib/inc\xmc_usic.h ****   XMC_USIC_CH_EVENT_ALTERNATIVE_RECEIVE = USIC_CH_CCR_AIEN_Msk,  /**< Alternate receive event */
 280:C:/Workspace/DAVE-4.4.2-64Bit/xmc1400-getstarted-optiga-trust-m/Libraries/XMCLib/inc\xmc_usic.h ****   XMC_USIC_CH_EVENT_BAUD_RATE_GENERATOR = USIC_CH_CCR_BRGIEN_Msk /**< Baudrate generator event */
 281:C:/Workspace/DAVE-4.4.2-64Bit/xmc1400-getstarted-optiga-trust-m/Libraries/XMCLib/inc\xmc_usic.h **** } XMC_USIC_CH_EVENT_t;
 282:C:/Workspace/DAVE-4.4.2-64Bit/xmc1400-getstarted-optiga-trust-m/Libraries/XMCLib/inc\xmc_usic.h **** 
 283:C:/Workspace/DAVE-4.4.2-64Bit/xmc1400-getstarted-optiga-trust-m/Libraries/XMCLib/inc\xmc_usic.h **** /**
 284:C:/Workspace/DAVE-4.4.2-64Bit/xmc1400-getstarted-optiga-trust-m/Libraries/XMCLib/inc\xmc_usic.h **** * USIC channel parity mode
 285:C:/Workspace/DAVE-4.4.2-64Bit/xmc1400-getstarted-optiga-trust-m/Libraries/XMCLib/inc\xmc_usic.h **** */
 286:C:/Workspace/DAVE-4.4.2-64Bit/xmc1400-getstarted-optiga-trust-m/Libraries/XMCLib/inc\xmc_usic.h **** typedef enum XMC_USIC_CH_PARITY_MODE
 287:C:/Workspace/DAVE-4.4.2-64Bit/xmc1400-getstarted-optiga-trust-m/Libraries/XMCLib/inc\xmc_usic.h **** {
 288:C:/Workspace/DAVE-4.4.2-64Bit/xmc1400-getstarted-optiga-trust-m/Libraries/XMCLib/inc\xmc_usic.h ****   XMC_USIC_CH_PARITY_MODE_NONE     = 0x0UL,  /**< Disable parity mode */
 289:C:/Workspace/DAVE-4.4.2-64Bit/xmc1400-getstarted-optiga-trust-m/Libraries/XMCLib/inc\xmc_usic.h ****   XMC_USIC_CH_PARITY_MODE_EVEN     = 0x2UL << USIC_CH_CCR_PM_Pos,  /**< Enable even parity mode */
 290:C:/Workspace/DAVE-4.4.2-64Bit/xmc1400-getstarted-optiga-trust-m/Libraries/XMCLib/inc\xmc_usic.h ****   XMC_USIC_CH_PARITY_MODE_ODD      = 0x3UL << USIC_CH_CCR_PM_Pos   /**< Enable odd parity mode */
 291:C:/Workspace/DAVE-4.4.2-64Bit/xmc1400-getstarted-optiga-trust-m/Libraries/XMCLib/inc\xmc_usic.h **** } XMC_USIC_CH_PARITY_MODE_t;
 292:C:/Workspace/DAVE-4.4.2-64Bit/xmc1400-getstarted-optiga-trust-m/Libraries/XMCLib/inc\xmc_usic.h **** 
 293:C:/Workspace/DAVE-4.4.2-64Bit/xmc1400-getstarted-optiga-trust-m/Libraries/XMCLib/inc\xmc_usic.h **** /**
 294:C:/Workspace/DAVE-4.4.2-64Bit/xmc1400-getstarted-optiga-trust-m/Libraries/XMCLib/inc\xmc_usic.h **** * USIC channel data output mode
 295:C:/Workspace/DAVE-4.4.2-64Bit/xmc1400-getstarted-optiga-trust-m/Libraries/XMCLib/inc\xmc_usic.h **** */
 296:C:/Workspace/DAVE-4.4.2-64Bit/xmc1400-getstarted-optiga-trust-m/Libraries/XMCLib/inc\xmc_usic.h **** typedef enum XMC_USIC_CH_DATA_OUTPUT_MODE
 297:C:/Workspace/DAVE-4.4.2-64Bit/xmc1400-getstarted-optiga-trust-m/Libraries/XMCLib/inc\xmc_usic.h **** {
 298:C:/Workspace/DAVE-4.4.2-64Bit/xmc1400-getstarted-optiga-trust-m/Libraries/XMCLib/inc\xmc_usic.h ****   XMC_USIC_CH_DATA_OUTPUT_MODE_NORMAL   = 0x0UL,  /**< Data output normal mode */
 299:C:/Workspace/DAVE-4.4.2-64Bit/xmc1400-getstarted-optiga-trust-m/Libraries/XMCLib/inc\xmc_usic.h ****   XMC_USIC_CH_DATA_OUTPUT_MODE_INVERTED = 0x1UL << USIC_CH_SCTR_DOCFG_Pos   /**< Data output invert
 300:C:/Workspace/DAVE-4.4.2-64Bit/xmc1400-getstarted-optiga-trust-m/Libraries/XMCLib/inc\xmc_usic.h **** } XMC_USIC_CH_DATA_OUTPUT_MODE_t;
 301:C:/Workspace/DAVE-4.4.2-64Bit/xmc1400-getstarted-optiga-trust-m/Libraries/XMCLib/inc\xmc_usic.h **** 
 302:C:/Workspace/DAVE-4.4.2-64Bit/xmc1400-getstarted-optiga-trust-m/Libraries/XMCLib/inc\xmc_usic.h **** /**
 303:C:/Workspace/DAVE-4.4.2-64Bit/xmc1400-getstarted-optiga-trust-m/Libraries/XMCLib/inc\xmc_usic.h **** * USIC channel data transmit buffer status
 304:C:/Workspace/DAVE-4.4.2-64Bit/xmc1400-getstarted-optiga-trust-m/Libraries/XMCLib/inc\xmc_usic.h **** */
 305:C:/Workspace/DAVE-4.4.2-64Bit/xmc1400-getstarted-optiga-trust-m/Libraries/XMCLib/inc\xmc_usic.h **** typedef enum XMC_USIC_CH_TBUF_STATUS
 306:C:/Workspace/DAVE-4.4.2-64Bit/xmc1400-getstarted-optiga-trust-m/Libraries/XMCLib/inc\xmc_usic.h **** {
 307:C:/Workspace/DAVE-4.4.2-64Bit/xmc1400-getstarted-optiga-trust-m/Libraries/XMCLib/inc\xmc_usic.h ****   XMC_USIC_CH_TBUF_STATUS_IDLE = 0x0UL,                 /**< Transfer buffer is currently idle*/
 308:C:/Workspace/DAVE-4.4.2-64Bit/xmc1400-getstarted-optiga-trust-m/Libraries/XMCLib/inc\xmc_usic.h ****   XMC_USIC_CH_TBUF_STATUS_BUSY = USIC_CH_TCSR_TDV_Msk   /**< Transfer buffer is currently busy*/
 309:C:/Workspace/DAVE-4.4.2-64Bit/xmc1400-getstarted-optiga-trust-m/Libraries/XMCLib/inc\xmc_usic.h **** } XMC_USIC_CH_TBUF_STATUS_t;
 310:C:/Workspace/DAVE-4.4.2-64Bit/xmc1400-getstarted-optiga-trust-m/Libraries/XMCLib/inc\xmc_usic.h **** 
 311:C:/Workspace/DAVE-4.4.2-64Bit/xmc1400-getstarted-optiga-trust-m/Libraries/XMCLib/inc\xmc_usic.h **** 
 312:C:/Workspace/DAVE-4.4.2-64Bit/xmc1400-getstarted-optiga-trust-m/Libraries/XMCLib/inc\xmc_usic.h **** 
 313:C:/Workspace/DAVE-4.4.2-64Bit/xmc1400-getstarted-optiga-trust-m/Libraries/XMCLib/inc\xmc_usic.h **** /**
 314:C:/Workspace/DAVE-4.4.2-64Bit/xmc1400-getstarted-optiga-trust-m/Libraries/XMCLib/inc\xmc_usic.h **** * USIC channel data transmit buffer status modification
 315:C:/Workspace/DAVE-4.4.2-64Bit/xmc1400-getstarted-optiga-trust-m/Libraries/XMCLib/inc\xmc_usic.h **** */
 316:C:/Workspace/DAVE-4.4.2-64Bit/xmc1400-getstarted-optiga-trust-m/Libraries/XMCLib/inc\xmc_usic.h **** typedef enum XMC_USIC_CH_TBUF_STATUS_SET
 317:C:/Workspace/DAVE-4.4.2-64Bit/xmc1400-getstarted-optiga-trust-m/Libraries/XMCLib/inc\xmc_usic.h **** {
 318:C:/Workspace/DAVE-4.4.2-64Bit/xmc1400-getstarted-optiga-trust-m/Libraries/XMCLib/inc\xmc_usic.h ****   XMC_USIC_CH_TBUF_STATUS_SET_BUSY   = 0x1UL, /**< Set Transfer buffer status to busy*/
 319:C:/Workspace/DAVE-4.4.2-64Bit/xmc1400-getstarted-optiga-trust-m/Libraries/XMCLib/inc\xmc_usic.h ****   XMC_USIC_CH_TBUF_STATUS_SET_IDLE   = 0x2UL  /**< Set Transfer buffer status to idle*/
 320:C:/Workspace/DAVE-4.4.2-64Bit/xmc1400-getstarted-optiga-trust-m/Libraries/XMCLib/inc\xmc_usic.h **** } XMC_USIC_CH_TBUF_STATUS_SET_t;
 321:C:/Workspace/DAVE-4.4.2-64Bit/xmc1400-getstarted-optiga-trust-m/Libraries/XMCLib/inc\xmc_usic.h **** 
 322:C:/Workspace/DAVE-4.4.2-64Bit/xmc1400-getstarted-optiga-trust-m/Libraries/XMCLib/inc\xmc_usic.h **** /**
 323:C:/Workspace/DAVE-4.4.2-64Bit/xmc1400-getstarted-optiga-trust-m/Libraries/XMCLib/inc\xmc_usic.h **** * USIC channel receive buffer status
 324:C:/Workspace/DAVE-4.4.2-64Bit/xmc1400-getstarted-optiga-trust-m/Libraries/XMCLib/inc\xmc_usic.h **** */
 325:C:/Workspace/DAVE-4.4.2-64Bit/xmc1400-getstarted-optiga-trust-m/Libraries/XMCLib/inc\xmc_usic.h **** typedef enum XMC_USIC_CH_RBUF_STATUS
 326:C:/Workspace/DAVE-4.4.2-64Bit/xmc1400-getstarted-optiga-trust-m/Libraries/XMCLib/inc\xmc_usic.h **** {
 327:C:/Workspace/DAVE-4.4.2-64Bit/xmc1400-getstarted-optiga-trust-m/Libraries/XMCLib/inc\xmc_usic.h ****   XMC_USIC_CH_RBUF_STATUS_DATA_VALID0 = USIC_CH_RBUFSR_RDV0_Msk, /**< RBUF0 data has not yet been r
 328:C:/Workspace/DAVE-4.4.2-64Bit/xmc1400-getstarted-optiga-trust-m/Libraries/XMCLib/inc\xmc_usic.h ****   XMC_USIC_CH_RBUF_STATUS_DATA_VALID1 = USIC_CH_RBUFSR_RDV1_Msk  /**< RBUF1 data has not yet been r
 329:C:/Workspace/DAVE-4.4.2-64Bit/xmc1400-getstarted-optiga-trust-m/Libraries/XMCLib/inc\xmc_usic.h **** } XMC_USIC_CH_RBUF_STATUS_t;
 330:C:/Workspace/DAVE-4.4.2-64Bit/xmc1400-getstarted-optiga-trust-m/Libraries/XMCLib/inc\xmc_usic.h **** 
 331:C:/Workspace/DAVE-4.4.2-64Bit/xmc1400-getstarted-optiga-trust-m/Libraries/XMCLib/inc\xmc_usic.h **** /**
 332:C:/Workspace/DAVE-4.4.2-64Bit/xmc1400-getstarted-optiga-trust-m/Libraries/XMCLib/inc\xmc_usic.h ****  * USIC channel output signal passive data level
 333:C:/Workspace/DAVE-4.4.2-64Bit/xmc1400-getstarted-optiga-trust-m/Libraries/XMCLib/inc\xmc_usic.h **** */
 334:C:/Workspace/DAVE-4.4.2-64Bit/xmc1400-getstarted-optiga-trust-m/Libraries/XMCLib/inc\xmc_usic.h **** typedef enum XMC_USCI_CH_PASSIVE_DATA_LEVEL
 335:C:/Workspace/DAVE-4.4.2-64Bit/xmc1400-getstarted-optiga-trust-m/Libraries/XMCLib/inc\xmc_usic.h **** {
 336:C:/Workspace/DAVE-4.4.2-64Bit/xmc1400-getstarted-optiga-trust-m/Libraries/XMCLib/inc\xmc_usic.h ****   XMC_USIC_CH_PASSIVE_DATA_LEVEL0 = 0x0UL, /**< Passive level(idle mode signal level) 0 */
 337:C:/Workspace/DAVE-4.4.2-64Bit/xmc1400-getstarted-optiga-trust-m/Libraries/XMCLib/inc\xmc_usic.h ****   XMC_USIC_CH_PASSIVE_DATA_LEVEL1 = 0x1UL << USIC_CH_SCTR_PDL_Pos  /**< Passive level(idle mode sig
 338:C:/Workspace/DAVE-4.4.2-64Bit/xmc1400-getstarted-optiga-trust-m/Libraries/XMCLib/inc\xmc_usic.h **** } XMC_USIC_CH_PASSIVE_DATA_LEVEL_t;
 339:C:/Workspace/DAVE-4.4.2-64Bit/xmc1400-getstarted-optiga-trust-m/Libraries/XMCLib/inc\xmc_usic.h **** 
 340:C:/Workspace/DAVE-4.4.2-64Bit/xmc1400-getstarted-optiga-trust-m/Libraries/XMCLib/inc\xmc_usic.h **** /**
 341:C:/Workspace/DAVE-4.4.2-64Bit/xmc1400-getstarted-optiga-trust-m/Libraries/XMCLib/inc\xmc_usic.h **** * USIC channel receive FIFO size
 342:C:/Workspace/DAVE-4.4.2-64Bit/xmc1400-getstarted-optiga-trust-m/Libraries/XMCLib/inc\xmc_usic.h **** */
 343:C:/Workspace/DAVE-4.4.2-64Bit/xmc1400-getstarted-optiga-trust-m/Libraries/XMCLib/inc\xmc_usic.h **** typedef enum XMC_USIC_CH_FIFO_SIZE
 344:C:/Workspace/DAVE-4.4.2-64Bit/xmc1400-getstarted-optiga-trust-m/Libraries/XMCLib/inc\xmc_usic.h **** {
 345:C:/Workspace/DAVE-4.4.2-64Bit/xmc1400-getstarted-optiga-trust-m/Libraries/XMCLib/inc\xmc_usic.h ****   XMC_USIC_CH_FIFO_DISABLED     = 0x0U,  /**< FIFO Disabled */
 346:C:/Workspace/DAVE-4.4.2-64Bit/xmc1400-getstarted-optiga-trust-m/Libraries/XMCLib/inc\xmc_usic.h ****   XMC_USIC_CH_FIFO_SIZE_2WORDS  = 0x1U,  /**< FIFO size: 2 words */
 347:C:/Workspace/DAVE-4.4.2-64Bit/xmc1400-getstarted-optiga-trust-m/Libraries/XMCLib/inc\xmc_usic.h ****   XMC_USIC_CH_FIFO_SIZE_4WORDS  = 0x2U,  /**< FIFO size: 4 words */
 348:C:/Workspace/DAVE-4.4.2-64Bit/xmc1400-getstarted-optiga-trust-m/Libraries/XMCLib/inc\xmc_usic.h ****   XMC_USIC_CH_FIFO_SIZE_8WORDS  = 0x3U,  /**< FIFO size: 8 words */
 349:C:/Workspace/DAVE-4.4.2-64Bit/xmc1400-getstarted-optiga-trust-m/Libraries/XMCLib/inc\xmc_usic.h ****   XMC_USIC_CH_FIFO_SIZE_16WORDS = 0x4U,  /**< FIFO size: 16 words */
 350:C:/Workspace/DAVE-4.4.2-64Bit/xmc1400-getstarted-optiga-trust-m/Libraries/XMCLib/inc\xmc_usic.h ****   XMC_USIC_CH_FIFO_SIZE_32WORDS = 0x5U,  /**< FIFO size: 32 words */
 351:C:/Workspace/DAVE-4.4.2-64Bit/xmc1400-getstarted-optiga-trust-m/Libraries/XMCLib/inc\xmc_usic.h ****   XMC_USIC_CH_FIFO_SIZE_64WORDS = 0x6U   /**< FIFO size: 64 words */
 352:C:/Workspace/DAVE-4.4.2-64Bit/xmc1400-getstarted-optiga-trust-m/Libraries/XMCLib/inc\xmc_usic.h **** } XMC_USIC_CH_FIFO_SIZE_t;
 353:C:/Workspace/DAVE-4.4.2-64Bit/xmc1400-getstarted-optiga-trust-m/Libraries/XMCLib/inc\xmc_usic.h **** 
 354:C:/Workspace/DAVE-4.4.2-64Bit/xmc1400-getstarted-optiga-trust-m/Libraries/XMCLib/inc\xmc_usic.h **** /**
 355:C:/Workspace/DAVE-4.4.2-64Bit/xmc1400-getstarted-optiga-trust-m/Libraries/XMCLib/inc\xmc_usic.h **** * USIC channel transmit FIFO interrupt node pointers
 356:C:/Workspace/DAVE-4.4.2-64Bit/xmc1400-getstarted-optiga-trust-m/Libraries/XMCLib/inc\xmc_usic.h **** */
 357:C:/Workspace/DAVE-4.4.2-64Bit/xmc1400-getstarted-optiga-trust-m/Libraries/XMCLib/inc\xmc_usic.h **** typedef enum XMC_USIC_CH_TXFIFO_INTERRUPT_NODE_POINTER
 358:C:/Workspace/DAVE-4.4.2-64Bit/xmc1400-getstarted-optiga-trust-m/Libraries/XMCLib/inc\xmc_usic.h **** {
 359:C:/Workspace/DAVE-4.4.2-64Bit/xmc1400-getstarted-optiga-trust-m/Libraries/XMCLib/inc\xmc_usic.h ****   XMC_USIC_CH_TXFIFO_INTERRUPT_NODE_POINTER_STANDARD  = USIC_CH_TBCTR_STBINP_Pos,  /**< Node pointe
 360:C:/Workspace/DAVE-4.4.2-64Bit/xmc1400-getstarted-optiga-trust-m/Libraries/XMCLib/inc\xmc_usic.h ****   XMC_USIC_CH_TXFIFO_INTERRUPT_NODE_POINTER_ALTERNATE = USIC_CH_TBCTR_ATBINP_Pos   /**< Node pointe
 361:C:/Workspace/DAVE-4.4.2-64Bit/xmc1400-getstarted-optiga-trust-m/Libraries/XMCLib/inc\xmc_usic.h **** } XMC_USIC_CH_TXFIFO_INTERRUPT_NODE_POINTER_t;
 362:C:/Workspace/DAVE-4.4.2-64Bit/xmc1400-getstarted-optiga-trust-m/Libraries/XMCLib/inc\xmc_usic.h **** 
 363:C:/Workspace/DAVE-4.4.2-64Bit/xmc1400-getstarted-optiga-trust-m/Libraries/XMCLib/inc\xmc_usic.h **** /**
 364:C:/Workspace/DAVE-4.4.2-64Bit/xmc1400-getstarted-optiga-trust-m/Libraries/XMCLib/inc\xmc_usic.h **** * USIC channel transmit FIFO event configuration
 365:C:/Workspace/DAVE-4.4.2-64Bit/xmc1400-getstarted-optiga-trust-m/Libraries/XMCLib/inc\xmc_usic.h **** */
 366:C:/Workspace/DAVE-4.4.2-64Bit/xmc1400-getstarted-optiga-trust-m/Libraries/XMCLib/inc\xmc_usic.h **** typedef enum XMC_USIC_CH_TXFIFO_EVENT_CONF
 367:C:/Workspace/DAVE-4.4.2-64Bit/xmc1400-getstarted-optiga-trust-m/Libraries/XMCLib/inc\xmc_usic.h **** {
 368:C:/Workspace/DAVE-4.4.2-64Bit/xmc1400-getstarted-optiga-trust-m/Libraries/XMCLib/inc\xmc_usic.h ****   XMC_USIC_CH_TXFIFO_EVENT_CONF_STANDARD  = USIC_CH_TBCTR_STBIEN_Msk,   /**< Enable FIFO standard t
 369:C:/Workspace/DAVE-4.4.2-64Bit/xmc1400-getstarted-optiga-trust-m/Libraries/XMCLib/inc\xmc_usic.h ****   XMC_USIC_CH_TXFIFO_EVENT_CONF_ERROR     = (int32_t)USIC_CH_TBCTR_TBERIEN_Msk  /**< Enable transmi
 370:C:/Workspace/DAVE-4.4.2-64Bit/xmc1400-getstarted-optiga-trust-m/Libraries/XMCLib/inc\xmc_usic.h **** } XMC_USIC_CH_TXFIFO_EVENT_CONF_t;
 371:C:/Workspace/DAVE-4.4.2-64Bit/xmc1400-getstarted-optiga-trust-m/Libraries/XMCLib/inc\xmc_usic.h **** 
 372:C:/Workspace/DAVE-4.4.2-64Bit/xmc1400-getstarted-optiga-trust-m/Libraries/XMCLib/inc\xmc_usic.h **** /**
 373:C:/Workspace/DAVE-4.4.2-64Bit/xmc1400-getstarted-optiga-trust-m/Libraries/XMCLib/inc\xmc_usic.h **** * USIC channel transmit FIFO status
 374:C:/Workspace/DAVE-4.4.2-64Bit/xmc1400-getstarted-optiga-trust-m/Libraries/XMCLib/inc\xmc_usic.h **** */
 375:C:/Workspace/DAVE-4.4.2-64Bit/xmc1400-getstarted-optiga-trust-m/Libraries/XMCLib/inc\xmc_usic.h **** typedef enum XMC_USIC_CH_TXFIFO_EVENT
 376:C:/Workspace/DAVE-4.4.2-64Bit/xmc1400-getstarted-optiga-trust-m/Libraries/XMCLib/inc\xmc_usic.h **** {
 377:C:/Workspace/DAVE-4.4.2-64Bit/xmc1400-getstarted-optiga-trust-m/Libraries/XMCLib/inc\xmc_usic.h ****   XMC_USIC_CH_TXFIFO_EVENT_STANDARD = USIC_CH_TRBSR_STBI_Msk,    /**< Transmit FIFO status: Standar
 378:C:/Workspace/DAVE-4.4.2-64Bit/xmc1400-getstarted-optiga-trust-m/Libraries/XMCLib/inc\xmc_usic.h ****   XMC_USIC_CH_TXFIFO_EVENT_ERROR    = USIC_CH_TRBSR_TBERI_Msk    /**< Transmit FIFO status: Error e
 379:C:/Workspace/DAVE-4.4.2-64Bit/xmc1400-getstarted-optiga-trust-m/Libraries/XMCLib/inc\xmc_usic.h **** } XMC_USIC_CH_TXFIFO_EVENT_t;
 380:C:/Workspace/DAVE-4.4.2-64Bit/xmc1400-getstarted-optiga-trust-m/Libraries/XMCLib/inc\xmc_usic.h **** 
 381:C:/Workspace/DAVE-4.4.2-64Bit/xmc1400-getstarted-optiga-trust-m/Libraries/XMCLib/inc\xmc_usic.h **** /**
 382:C:/Workspace/DAVE-4.4.2-64Bit/xmc1400-getstarted-optiga-trust-m/Libraries/XMCLib/inc\xmc_usic.h **** * USIC channel receive FIFO interrupt node pointers
 383:C:/Workspace/DAVE-4.4.2-64Bit/xmc1400-getstarted-optiga-trust-m/Libraries/XMCLib/inc\xmc_usic.h **** */
 384:C:/Workspace/DAVE-4.4.2-64Bit/xmc1400-getstarted-optiga-trust-m/Libraries/XMCLib/inc\xmc_usic.h **** typedef enum XMC_USIC_CH_RXFIFO_INTERRUPT_NODE_POINTER
 385:C:/Workspace/DAVE-4.4.2-64Bit/xmc1400-getstarted-optiga-trust-m/Libraries/XMCLib/inc\xmc_usic.h **** {
 386:C:/Workspace/DAVE-4.4.2-64Bit/xmc1400-getstarted-optiga-trust-m/Libraries/XMCLib/inc\xmc_usic.h ****   XMC_USIC_CH_RXFIFO_INTERRUPT_NODE_POINTER_STANDARD  = USIC_CH_RBCTR_SRBINP_Pos, /**< Node pointer
 387:C:/Workspace/DAVE-4.4.2-64Bit/xmc1400-getstarted-optiga-trust-m/Libraries/XMCLib/inc\xmc_usic.h ****   XMC_USIC_CH_RXFIFO_INTERRUPT_NODE_POINTER_ALTERNATE = USIC_CH_RBCTR_ARBINP_Pos  /**< Node pointer
 388:C:/Workspace/DAVE-4.4.2-64Bit/xmc1400-getstarted-optiga-trust-m/Libraries/XMCLib/inc\xmc_usic.h **** } XMC_USIC_CH_RXFIFO_INTERRUPT_NODE_POINTER_t;
 389:C:/Workspace/DAVE-4.4.2-64Bit/xmc1400-getstarted-optiga-trust-m/Libraries/XMCLib/inc\xmc_usic.h **** 
 390:C:/Workspace/DAVE-4.4.2-64Bit/xmc1400-getstarted-optiga-trust-m/Libraries/XMCLib/inc\xmc_usic.h **** /**
 391:C:/Workspace/DAVE-4.4.2-64Bit/xmc1400-getstarted-optiga-trust-m/Libraries/XMCLib/inc\xmc_usic.h **** * USIC channel receive FIFO event configuration
 392:C:/Workspace/DAVE-4.4.2-64Bit/xmc1400-getstarted-optiga-trust-m/Libraries/XMCLib/inc\xmc_usic.h **** */
 393:C:/Workspace/DAVE-4.4.2-64Bit/xmc1400-getstarted-optiga-trust-m/Libraries/XMCLib/inc\xmc_usic.h **** typedef enum XMC_USIC_CH_RXFIFO_EVENT_CONF
 394:C:/Workspace/DAVE-4.4.2-64Bit/xmc1400-getstarted-optiga-trust-m/Libraries/XMCLib/inc\xmc_usic.h **** {
 395:C:/Workspace/DAVE-4.4.2-64Bit/xmc1400-getstarted-optiga-trust-m/Libraries/XMCLib/inc\xmc_usic.h ****   XMC_USIC_CH_RXFIFO_EVENT_CONF_STANDARD  = USIC_CH_RBCTR_SRBIEN_Msk,   /**< Enable FIFO standard r
 396:C:/Workspace/DAVE-4.4.2-64Bit/xmc1400-getstarted-optiga-trust-m/Libraries/XMCLib/inc\xmc_usic.h ****   XMC_USIC_CH_RXFIFO_EVENT_CONF_ERROR     = (int32_t)USIC_CH_RBCTR_RBERIEN_Msk,  /**< Enable receiv
 397:C:/Workspace/DAVE-4.4.2-64Bit/xmc1400-getstarted-optiga-trust-m/Libraries/XMCLib/inc\xmc_usic.h ****   XMC_USIC_CH_RXFIFO_EVENT_CONF_ALTERNATE = USIC_CH_RBCTR_ARBIEN_Msk   /**< Enable FIFO alternative
 398:C:/Workspace/DAVE-4.4.2-64Bit/xmc1400-getstarted-optiga-trust-m/Libraries/XMCLib/inc\xmc_usic.h **** } XMC_USIC_CH_RXFIFO_EVENT_CONF_t;
 399:C:/Workspace/DAVE-4.4.2-64Bit/xmc1400-getstarted-optiga-trust-m/Libraries/XMCLib/inc\xmc_usic.h **** 
 400:C:/Workspace/DAVE-4.4.2-64Bit/xmc1400-getstarted-optiga-trust-m/Libraries/XMCLib/inc\xmc_usic.h **** /**
 401:C:/Workspace/DAVE-4.4.2-64Bit/xmc1400-getstarted-optiga-trust-m/Libraries/XMCLib/inc\xmc_usic.h **** * USIC channel receive FIFO status
 402:C:/Workspace/DAVE-4.4.2-64Bit/xmc1400-getstarted-optiga-trust-m/Libraries/XMCLib/inc\xmc_usic.h **** */
 403:C:/Workspace/DAVE-4.4.2-64Bit/xmc1400-getstarted-optiga-trust-m/Libraries/XMCLib/inc\xmc_usic.h **** typedef enum XMC_USIC_CH_RXFIFO_EVENT
 404:C:/Workspace/DAVE-4.4.2-64Bit/xmc1400-getstarted-optiga-trust-m/Libraries/XMCLib/inc\xmc_usic.h **** {
 405:C:/Workspace/DAVE-4.4.2-64Bit/xmc1400-getstarted-optiga-trust-m/Libraries/XMCLib/inc\xmc_usic.h ****   XMC_USIC_CH_RXFIFO_EVENT_STANDARD  = USIC_CH_TRBSR_SRBI_Msk,   /**< Receive FIFO status: Standard
 406:C:/Workspace/DAVE-4.4.2-64Bit/xmc1400-getstarted-optiga-trust-m/Libraries/XMCLib/inc\xmc_usic.h ****   XMC_USIC_CH_RXFIFO_EVENT_ERROR     = USIC_CH_TRBSR_RBERI_Msk,  /**< Receive FIFO status: Error ev
 407:C:/Workspace/DAVE-4.4.2-64Bit/xmc1400-getstarted-optiga-trust-m/Libraries/XMCLib/inc\xmc_usic.h ****   XMC_USIC_CH_RXFIFO_EVENT_ALTERNATE = USIC_CH_TRBSR_ARBI_Msk    /**< Receive FIFO status: Alternat
 408:C:/Workspace/DAVE-4.4.2-64Bit/xmc1400-getstarted-optiga-trust-m/Libraries/XMCLib/inc\xmc_usic.h **** } XMC_USIC_CH_RXFIFO_EVENT_t;
 409:C:/Workspace/DAVE-4.4.2-64Bit/xmc1400-getstarted-optiga-trust-m/Libraries/XMCLib/inc\xmc_usic.h **** 
 410:C:/Workspace/DAVE-4.4.2-64Bit/xmc1400-getstarted-optiga-trust-m/Libraries/XMCLib/inc\xmc_usic.h **** /**
 411:C:/Workspace/DAVE-4.4.2-64Bit/xmc1400-getstarted-optiga-trust-m/Libraries/XMCLib/inc\xmc_usic.h **** * USIC channel baudrate generator clock source
 412:C:/Workspace/DAVE-4.4.2-64Bit/xmc1400-getstarted-optiga-trust-m/Libraries/XMCLib/inc\xmc_usic.h **** */
 413:C:/Workspace/DAVE-4.4.2-64Bit/xmc1400-getstarted-optiga-trust-m/Libraries/XMCLib/inc\xmc_usic.h **** typedef enum XMC_USIC_CH_BRG_CLOCK_SOURCE
 414:C:/Workspace/DAVE-4.4.2-64Bit/xmc1400-getstarted-optiga-trust-m/Libraries/XMCLib/inc\xmc_usic.h **** {
 415:C:/Workspace/DAVE-4.4.2-64Bit/xmc1400-getstarted-optiga-trust-m/Libraries/XMCLib/inc\xmc_usic.h ****   XMC_USIC_CH_BRG_CLOCK_SOURCE_DIVIDER = 0x0UL, /**< Baudrate generator clock source : Source divid
 416:C:/Workspace/DAVE-4.4.2-64Bit/xmc1400-getstarted-optiga-trust-m/Libraries/XMCLib/inc\xmc_usic.h ****   XMC_USIC_CH_BRG_CLOCK_SOURCE_DX1T    = 0x2UL << USIC_CH_BRG_CLKSEL_Pos  /**< Baudrate generator c
 417:C:/Workspace/DAVE-4.4.2-64Bit/xmc1400-getstarted-optiga-trust-m/Libraries/XMCLib/inc\xmc_usic.h **** } XMC_USIC_CH_BRG_CLOCK_SOURCE_t;
 418:C:/Workspace/DAVE-4.4.2-64Bit/xmc1400-getstarted-optiga-trust-m/Libraries/XMCLib/inc\xmc_usic.h **** 
 419:C:/Workspace/DAVE-4.4.2-64Bit/xmc1400-getstarted-optiga-trust-m/Libraries/XMCLib/inc\xmc_usic.h **** /**
 420:C:/Workspace/DAVE-4.4.2-64Bit/xmc1400-getstarted-optiga-trust-m/Libraries/XMCLib/inc\xmc_usic.h **** * USIC channel baudrate generator divider mode
 421:C:/Workspace/DAVE-4.4.2-64Bit/xmc1400-getstarted-optiga-trust-m/Libraries/XMCLib/inc\xmc_usic.h **** */
 422:C:/Workspace/DAVE-4.4.2-64Bit/xmc1400-getstarted-optiga-trust-m/Libraries/XMCLib/inc\xmc_usic.h **** typedef enum XMC_USIC_CH_BRG_CLOCK_DIVIDER_MODE
 423:C:/Workspace/DAVE-4.4.2-64Bit/xmc1400-getstarted-optiga-trust-m/Libraries/XMCLib/inc\xmc_usic.h **** {
 424:C:/Workspace/DAVE-4.4.2-64Bit/xmc1400-getstarted-optiga-trust-m/Libraries/XMCLib/inc\xmc_usic.h ****   XMC_USIC_CH_BRG_CLOCK_DIVIDER_MODE_DISABLED   = 0x0UL, /**< Baudrate generator clock divider: Dis
 425:C:/Workspace/DAVE-4.4.2-64Bit/xmc1400-getstarted-optiga-trust-m/Libraries/XMCLib/inc\xmc_usic.h ****   XMC_USIC_CH_BRG_CLOCK_DIVIDER_MODE_NORMAL     = 0x1UL << USIC_CH_FDR_DM_Pos, /**< Baudrate genera
 426:C:/Workspace/DAVE-4.4.2-64Bit/xmc1400-getstarted-optiga-trust-m/Libraries/XMCLib/inc\xmc_usic.h ****   XMC_USIC_CH_BRG_CLOCK_DIVIDER_MODE_FRACTIONAL = 0x2UL << USIC_CH_FDR_DM_Pos  /**< Baudrate genera
 427:C:/Workspace/DAVE-4.4.2-64Bit/xmc1400-getstarted-optiga-trust-m/Libraries/XMCLib/inc\xmc_usic.h **** } XMC_USIC_CH_BRG_CLOCK_DIVIDER_MODE_t;
 428:C:/Workspace/DAVE-4.4.2-64Bit/xmc1400-getstarted-optiga-trust-m/Libraries/XMCLib/inc\xmc_usic.h **** 
 429:C:/Workspace/DAVE-4.4.2-64Bit/xmc1400-getstarted-optiga-trust-m/Libraries/XMCLib/inc\xmc_usic.h **** /**
 430:C:/Workspace/DAVE-4.4.2-64Bit/xmc1400-getstarted-optiga-trust-m/Libraries/XMCLib/inc\xmc_usic.h **** * USIC channel baudrate generator master clock passive level
 431:C:/Workspace/DAVE-4.4.2-64Bit/xmc1400-getstarted-optiga-trust-m/Libraries/XMCLib/inc\xmc_usic.h **** */
 432:C:/Workspace/DAVE-4.4.2-64Bit/xmc1400-getstarted-optiga-trust-m/Libraries/XMCLib/inc\xmc_usic.h **** typedef enum XMC_USIC_CH_BRG_MASTER_CLOCK_PASSIVE_LEVEL
 433:C:/Workspace/DAVE-4.4.2-64Bit/xmc1400-getstarted-optiga-trust-m/Libraries/XMCLib/inc\xmc_usic.h **** {
 434:C:/Workspace/DAVE-4.4.2-64Bit/xmc1400-getstarted-optiga-trust-m/Libraries/XMCLib/inc\xmc_usic.h ****   XMC_USIC_CH_BRG_MASTER_CLOCK_PASSIVE_LEVEL_0 = 0x0UL, /**< Baudrate generator master clock passiv
 435:C:/Workspace/DAVE-4.4.2-64Bit/xmc1400-getstarted-optiga-trust-m/Libraries/XMCLib/inc\xmc_usic.h ****   XMC_USIC_CH_BRG_MASTER_CLOCK_PASSIVE_LEVEL_1 = 0x1UL << USIC_CH_BRG_MCLKCFG_Pos  /**< Baudrate ge
 436:C:/Workspace/DAVE-4.4.2-64Bit/xmc1400-getstarted-optiga-trust-m/Libraries/XMCLib/inc\xmc_usic.h **** } XMC_USIC_CH_BRG_MASTER_CLOCK_PASSIVE_LEVEL_t;
 437:C:/Workspace/DAVE-4.4.2-64Bit/xmc1400-getstarted-optiga-trust-m/Libraries/XMCLib/inc\xmc_usic.h **** 
 438:C:/Workspace/DAVE-4.4.2-64Bit/xmc1400-getstarted-optiga-trust-m/Libraries/XMCLib/inc\xmc_usic.h **** /**
 439:C:/Workspace/DAVE-4.4.2-64Bit/xmc1400-getstarted-optiga-trust-m/Libraries/XMCLib/inc\xmc_usic.h **** * USIC channel baudrate generator shift clock passive level
 440:C:/Workspace/DAVE-4.4.2-64Bit/xmc1400-getstarted-optiga-trust-m/Libraries/XMCLib/inc\xmc_usic.h **** */
 441:C:/Workspace/DAVE-4.4.2-64Bit/xmc1400-getstarted-optiga-trust-m/Libraries/XMCLib/inc\xmc_usic.h **** typedef enum XMC_USIC_CH_BRG_SHIFT_CLOCK_PASSIVE_LEVEL
 442:C:/Workspace/DAVE-4.4.2-64Bit/xmc1400-getstarted-optiga-trust-m/Libraries/XMCLib/inc\xmc_usic.h **** {
 443:C:/Workspace/DAVE-4.4.2-64Bit/xmc1400-getstarted-optiga-trust-m/Libraries/XMCLib/inc\xmc_usic.h ****   XMC_USIC_CH_BRG_SHIFT_CLOCK_PASSIVE_LEVEL_0_DELAY_DISABLED = 0x0UL, /**< Shift clock passive leve
 444:C:/Workspace/DAVE-4.4.2-64Bit/xmc1400-getstarted-optiga-trust-m/Libraries/XMCLib/inc\xmc_usic.h ****   XMC_USIC_CH_BRG_SHIFT_CLOCK_PASSIVE_LEVEL_1_DELAY_DISABLED = 0x1UL << USIC_CH_BRG_SCLKCFG_Pos, /*
 445:C:/Workspace/DAVE-4.4.2-64Bit/xmc1400-getstarted-optiga-trust-m/Libraries/XMCLib/inc\xmc_usic.h ****   XMC_USIC_CH_BRG_SHIFT_CLOCK_PASSIVE_LEVEL_0_DELAY_ENABLED  = (int32_t)(0x2UL << USIC_CH_BRG_SCLKC
 446:C:/Workspace/DAVE-4.4.2-64Bit/xmc1400-getstarted-optiga-trust-m/Libraries/XMCLib/inc\xmc_usic.h ****   XMC_USIC_CH_BRG_SHIFT_CLOCK_PASSIVE_LEVEL_1_DELAY_ENABLED  = (int32_t)(0x3UL << USIC_CH_BRG_SCLKC
 447:C:/Workspace/DAVE-4.4.2-64Bit/xmc1400-getstarted-optiga-trust-m/Libraries/XMCLib/inc\xmc_usic.h **** } XMC_USIC_CH_BRG_SHIFT_CLOCK_PASSIVE_LEVEL_t;
 448:C:/Workspace/DAVE-4.4.2-64Bit/xmc1400-getstarted-optiga-trust-m/Libraries/XMCLib/inc\xmc_usic.h **** 
 449:C:/Workspace/DAVE-4.4.2-64Bit/xmc1400-getstarted-optiga-trust-m/Libraries/XMCLib/inc\xmc_usic.h **** /**
 450:C:/Workspace/DAVE-4.4.2-64Bit/xmc1400-getstarted-optiga-trust-m/Libraries/XMCLib/inc\xmc_usic.h **** * USIC channel baudrate generator shift clock output
 451:C:/Workspace/DAVE-4.4.2-64Bit/xmc1400-getstarted-optiga-trust-m/Libraries/XMCLib/inc\xmc_usic.h **** */
 452:C:/Workspace/DAVE-4.4.2-64Bit/xmc1400-getstarted-optiga-trust-m/Libraries/XMCLib/inc\xmc_usic.h **** typedef enum XMC_USIC_CH_BRG_SHIFT_CLOCK_OUTPUT
 453:C:/Workspace/DAVE-4.4.2-64Bit/xmc1400-getstarted-optiga-trust-m/Libraries/XMCLib/inc\xmc_usic.h **** {
 454:C:/Workspace/DAVE-4.4.2-64Bit/xmc1400-getstarted-optiga-trust-m/Libraries/XMCLib/inc\xmc_usic.h ****   XMC_USIC_CH_BRG_SHIFT_CLOCK_OUTPUT_SCLK = 0x0UL, /**< Baudrate generator shift clock output: SCL.
 455:C:/Workspace/DAVE-4.4.2-64Bit/xmc1400-getstarted-optiga-trust-m/Libraries/XMCLib/inc\xmc_usic.h ****   XMC_USIC_CH_BRG_SHIFT_CLOCK_OUTPUT_DX1 = 0x1UL << USIC_CH_BRG_SCLKOSEL_Pos   /**< Baudrate genera
 456:C:/Workspace/DAVE-4.4.2-64Bit/xmc1400-getstarted-optiga-trust-m/Libraries/XMCLib/inc\xmc_usic.h **** } XMC_USIC_CH_BRG_SHIFT_CLOCK_OUTPUT_t;
 457:C:/Workspace/DAVE-4.4.2-64Bit/xmc1400-getstarted-optiga-trust-m/Libraries/XMCLib/inc\xmc_usic.h **** 
 458:C:/Workspace/DAVE-4.4.2-64Bit/xmc1400-getstarted-optiga-trust-m/Libraries/XMCLib/inc\xmc_usic.h **** /**
 459:C:/Workspace/DAVE-4.4.2-64Bit/xmc1400-getstarted-optiga-trust-m/Libraries/XMCLib/inc\xmc_usic.h **** * USIC channel shift direction.
 460:C:/Workspace/DAVE-4.4.2-64Bit/xmc1400-getstarted-optiga-trust-m/Libraries/XMCLib/inc\xmc_usic.h **** * Defines the shift direction of the data words for transmission and reception
 461:C:/Workspace/DAVE-4.4.2-64Bit/xmc1400-getstarted-optiga-trust-m/Libraries/XMCLib/inc\xmc_usic.h **** */
 462:C:/Workspace/DAVE-4.4.2-64Bit/xmc1400-getstarted-optiga-trust-m/Libraries/XMCLib/inc\xmc_usic.h **** typedef enum XMC_USIC_CH_SHIFT_DIRECTION
 463:C:/Workspace/DAVE-4.4.2-64Bit/xmc1400-getstarted-optiga-trust-m/Libraries/XMCLib/inc\xmc_usic.h **** {
 464:C:/Workspace/DAVE-4.4.2-64Bit/xmc1400-getstarted-optiga-trust-m/Libraries/XMCLib/inc\xmc_usic.h ****   XMC_USIC_CH_SHIFT_DIRECTION_LSB_FIRST = 0x0UL, /**< Shift LSB first. The first data bit of a data
 465:C:/Workspace/DAVE-4.4.2-64Bit/xmc1400-getstarted-optiga-trust-m/Libraries/XMCLib/inc\xmc_usic.h ****   XMC_USIC_CH_SHIFT_DIRECTION_MSB_FIRST = 0x1UL << USIC_CH_SCTR_SDIR_Pos /**< Shift MSB first. The 
 466:C:/Workspace/DAVE-4.4.2-64Bit/xmc1400-getstarted-optiga-trust-m/Libraries/XMCLib/inc\xmc_usic.h **** } XMC_USIC_CH_SHIFT_DIRECTION_t;
 467:C:/Workspace/DAVE-4.4.2-64Bit/xmc1400-getstarted-optiga-trust-m/Libraries/XMCLib/inc\xmc_usic.h **** 
 468:C:/Workspace/DAVE-4.4.2-64Bit/xmc1400-getstarted-optiga-trust-m/Libraries/XMCLib/inc\xmc_usic.h **** 
 469:C:/Workspace/DAVE-4.4.2-64Bit/xmc1400-getstarted-optiga-trust-m/Libraries/XMCLib/inc\xmc_usic.h **** /*******************************************************************************
 470:C:/Workspace/DAVE-4.4.2-64Bit/xmc1400-getstarted-optiga-trust-m/Libraries/XMCLib/inc\xmc_usic.h ****  * DATA STRUCTURES
 471:C:/Workspace/DAVE-4.4.2-64Bit/xmc1400-getstarted-optiga-trust-m/Libraries/XMCLib/inc\xmc_usic.h ****  *******************************************************************************/
 472:C:/Workspace/DAVE-4.4.2-64Bit/xmc1400-getstarted-optiga-trust-m/Libraries/XMCLib/inc\xmc_usic.h **** 
 473:C:/Workspace/DAVE-4.4.2-64Bit/xmc1400-getstarted-optiga-trust-m/Libraries/XMCLib/inc\xmc_usic.h **** /*Anonymous structure/union guard start*/
 474:C:/Workspace/DAVE-4.4.2-64Bit/xmc1400-getstarted-optiga-trust-m/Libraries/XMCLib/inc\xmc_usic.h **** #if defined(__CC_ARM)
 475:C:/Workspace/DAVE-4.4.2-64Bit/xmc1400-getstarted-optiga-trust-m/Libraries/XMCLib/inc\xmc_usic.h ****   #pragma push
 476:C:/Workspace/DAVE-4.4.2-64Bit/xmc1400-getstarted-optiga-trust-m/Libraries/XMCLib/inc\xmc_usic.h ****   #pragma anon_unions
 477:C:/Workspace/DAVE-4.4.2-64Bit/xmc1400-getstarted-optiga-trust-m/Libraries/XMCLib/inc\xmc_usic.h **** #elif defined(__TASKING__)
 478:C:/Workspace/DAVE-4.4.2-64Bit/xmc1400-getstarted-optiga-trust-m/Libraries/XMCLib/inc\xmc_usic.h ****   #pragma warning 586
 479:C:/Workspace/DAVE-4.4.2-64Bit/xmc1400-getstarted-optiga-trust-m/Libraries/XMCLib/inc\xmc_usic.h **** #endif
 480:C:/Workspace/DAVE-4.4.2-64Bit/xmc1400-getstarted-optiga-trust-m/Libraries/XMCLib/inc\xmc_usic.h **** 
 481:C:/Workspace/DAVE-4.4.2-64Bit/xmc1400-getstarted-optiga-trust-m/Libraries/XMCLib/inc\xmc_usic.h **** /**
 482:C:/Workspace/DAVE-4.4.2-64Bit/xmc1400-getstarted-optiga-trust-m/Libraries/XMCLib/inc\xmc_usic.h ****  * USIC module structure
 483:C:/Workspace/DAVE-4.4.2-64Bit/xmc1400-getstarted-optiga-trust-m/Libraries/XMCLib/inc\xmc_usic.h ****  */
 484:C:/Workspace/DAVE-4.4.2-64Bit/xmc1400-getstarted-optiga-trust-m/Libraries/XMCLib/inc\xmc_usic.h **** typedef USIC_GLOBAL_TypeDef XMC_USIC_t;
 485:C:/Workspace/DAVE-4.4.2-64Bit/xmc1400-getstarted-optiga-trust-m/Libraries/XMCLib/inc\xmc_usic.h **** 
 486:C:/Workspace/DAVE-4.4.2-64Bit/xmc1400-getstarted-optiga-trust-m/Libraries/XMCLib/inc\xmc_usic.h **** /**
 487:C:/Workspace/DAVE-4.4.2-64Bit/xmc1400-getstarted-optiga-trust-m/Libraries/XMCLib/inc\xmc_usic.h ****  * USIC channel structure.<br> The members of the structure are same as in the device header file, 
 488:C:/Workspace/DAVE-4.4.2-64Bit/xmc1400-getstarted-optiga-trust-m/Libraries/XMCLib/inc\xmc_usic.h ****  * except for some registers.
 489:C:/Workspace/DAVE-4.4.2-64Bit/xmc1400-getstarted-optiga-trust-m/Libraries/XMCLib/inc\xmc_usic.h ****  * DX0CR, DX1CR, DX2CR, DX3CR, DX4CR and DX5CR are replaced with the array DXCR[6].
 490:C:/Workspace/DAVE-4.4.2-64Bit/xmc1400-getstarted-optiga-trust-m/Libraries/XMCLib/inc\xmc_usic.h ****  * TBUF0 to TBUF31 are replaced with TBUF[32].
 491:C:/Workspace/DAVE-4.4.2-64Bit/xmc1400-getstarted-optiga-trust-m/Libraries/XMCLib/inc\xmc_usic.h ****  * IN0 to IN31 are replaced with IN[32].
 492:C:/Workspace/DAVE-4.4.2-64Bit/xmc1400-getstarted-optiga-trust-m/Libraries/XMCLib/inc\xmc_usic.h ****  */
 493:C:/Workspace/DAVE-4.4.2-64Bit/xmc1400-getstarted-optiga-trust-m/Libraries/XMCLib/inc\xmc_usic.h **** typedef struct XMC_USIC_CH
 494:C:/Workspace/DAVE-4.4.2-64Bit/xmc1400-getstarted-optiga-trust-m/Libraries/XMCLib/inc\xmc_usic.h **** {
 495:C:/Workspace/DAVE-4.4.2-64Bit/xmc1400-getstarted-optiga-trust-m/Libraries/XMCLib/inc\xmc_usic.h ****   __I  uint32_t  RESERVED0;
 496:C:/Workspace/DAVE-4.4.2-64Bit/xmc1400-getstarted-optiga-trust-m/Libraries/XMCLib/inc\xmc_usic.h ****   __I  uint32_t  CCFG;			/**< Channel configuration register*/
 497:C:/Workspace/DAVE-4.4.2-64Bit/xmc1400-getstarted-optiga-trust-m/Libraries/XMCLib/inc\xmc_usic.h ****   __I  uint32_t  RESERVED1;
 498:C:/Workspace/DAVE-4.4.2-64Bit/xmc1400-getstarted-optiga-trust-m/Libraries/XMCLib/inc\xmc_usic.h ****   __IO uint32_t  KSCFG;			/**< Kernel state configuration register*/
 499:C:/Workspace/DAVE-4.4.2-64Bit/xmc1400-getstarted-optiga-trust-m/Libraries/XMCLib/inc\xmc_usic.h ****   __IO uint32_t  FDR;			/**< Fractional divider configuration register*/
 500:C:/Workspace/DAVE-4.4.2-64Bit/xmc1400-getstarted-optiga-trust-m/Libraries/XMCLib/inc\xmc_usic.h ****   __IO uint32_t  BRG;			/**< Baud rate generator register*/
 501:C:/Workspace/DAVE-4.4.2-64Bit/xmc1400-getstarted-optiga-trust-m/Libraries/XMCLib/inc\xmc_usic.h ****   __IO uint32_t  INPR;			/**< Interrupt node pointer register*/
 502:C:/Workspace/DAVE-4.4.2-64Bit/xmc1400-getstarted-optiga-trust-m/Libraries/XMCLib/inc\xmc_usic.h ****   __IO uint32_t  DXCR[6];		/**< Input control registers DX0 to DX5.*/
 503:C:/Workspace/DAVE-4.4.2-64Bit/xmc1400-getstarted-optiga-trust-m/Libraries/XMCLib/inc\xmc_usic.h ****   __IO uint32_t  SCTR;			/**< Shift control register*/
 504:C:/Workspace/DAVE-4.4.2-64Bit/xmc1400-getstarted-optiga-trust-m/Libraries/XMCLib/inc\xmc_usic.h ****   __IO uint32_t  TCSR;
 505:C:/Workspace/DAVE-4.4.2-64Bit/xmc1400-getstarted-optiga-trust-m/Libraries/XMCLib/inc\xmc_usic.h **** 
 506:C:/Workspace/DAVE-4.4.2-64Bit/xmc1400-getstarted-optiga-trust-m/Libraries/XMCLib/inc\xmc_usic.h ****   union {
 507:C:/Workspace/DAVE-4.4.2-64Bit/xmc1400-getstarted-optiga-trust-m/Libraries/XMCLib/inc\xmc_usic.h ****     __IO uint32_t  PCR_IICMode;	/**< I2C protocol configuration register*/
 508:C:/Workspace/DAVE-4.4.2-64Bit/xmc1400-getstarted-optiga-trust-m/Libraries/XMCLib/inc\xmc_usic.h ****     __IO uint32_t  PCR_IISMode; /**< I2S protocol configuration register*/
 509:C:/Workspace/DAVE-4.4.2-64Bit/xmc1400-getstarted-optiga-trust-m/Libraries/XMCLib/inc\xmc_usic.h ****     __IO uint32_t  PCR_SSCMode;	/**< SPI protocol configuration register*/
 510:C:/Workspace/DAVE-4.4.2-64Bit/xmc1400-getstarted-optiga-trust-m/Libraries/XMCLib/inc\xmc_usic.h ****     __IO uint32_t  PCR;			/**< Protocol configuration register*/
 511:C:/Workspace/DAVE-4.4.2-64Bit/xmc1400-getstarted-optiga-trust-m/Libraries/XMCLib/inc\xmc_usic.h ****     __IO uint32_t  PCR_ASCMode;	/**< UART protocol configuration register*/
 512:C:/Workspace/DAVE-4.4.2-64Bit/xmc1400-getstarted-optiga-trust-m/Libraries/XMCLib/inc\xmc_usic.h ****   };
 513:C:/Workspace/DAVE-4.4.2-64Bit/xmc1400-getstarted-optiga-trust-m/Libraries/XMCLib/inc\xmc_usic.h ****   __IO uint32_t  CCR;			/**< Channel control register*/
 514:C:/Workspace/DAVE-4.4.2-64Bit/xmc1400-getstarted-optiga-trust-m/Libraries/XMCLib/inc\xmc_usic.h ****   __IO uint32_t  CMTR;			/**< Capture mode timer register*/
 515:C:/Workspace/DAVE-4.4.2-64Bit/xmc1400-getstarted-optiga-trust-m/Libraries/XMCLib/inc\xmc_usic.h **** 
 516:C:/Workspace/DAVE-4.4.2-64Bit/xmc1400-getstarted-optiga-trust-m/Libraries/XMCLib/inc\xmc_usic.h ****   union {
 517:C:/Workspace/DAVE-4.4.2-64Bit/xmc1400-getstarted-optiga-trust-m/Libraries/XMCLib/inc\xmc_usic.h ****     __IO uint32_t  PSR_IICMode;	/**< I2C protocol status register*/
 518:C:/Workspace/DAVE-4.4.2-64Bit/xmc1400-getstarted-optiga-trust-m/Libraries/XMCLib/inc\xmc_usic.h ****     __IO uint32_t  PSR_IISMode;	/**< I2S protocol status register*/
 519:C:/Workspace/DAVE-4.4.2-64Bit/xmc1400-getstarted-optiga-trust-m/Libraries/XMCLib/inc\xmc_usic.h ****     __IO uint32_t  PSR_SSCMode;	/**< SPI protocol status register*/
 520:C:/Workspace/DAVE-4.4.2-64Bit/xmc1400-getstarted-optiga-trust-m/Libraries/XMCLib/inc\xmc_usic.h ****     __IO uint32_t  PSR;			/**< Protocol status register*/
 521:C:/Workspace/DAVE-4.4.2-64Bit/xmc1400-getstarted-optiga-trust-m/Libraries/XMCLib/inc\xmc_usic.h ****     __IO uint32_t  PSR_ASCMode;	/**< UART protocol status register*/
 522:C:/Workspace/DAVE-4.4.2-64Bit/xmc1400-getstarted-optiga-trust-m/Libraries/XMCLib/inc\xmc_usic.h ****   };
 523:C:/Workspace/DAVE-4.4.2-64Bit/xmc1400-getstarted-optiga-trust-m/Libraries/XMCLib/inc\xmc_usic.h ****   __O  uint32_t  PSCR;			/**< Protocol status clear register*/
 524:C:/Workspace/DAVE-4.4.2-64Bit/xmc1400-getstarted-optiga-trust-m/Libraries/XMCLib/inc\xmc_usic.h ****   __I  uint32_t  RBUFSR;		/**< Receive buffer status register*/
 525:C:/Workspace/DAVE-4.4.2-64Bit/xmc1400-getstarted-optiga-trust-m/Libraries/XMCLib/inc\xmc_usic.h ****   __I  uint32_t  RBUF;			/**< Receive buffer register*/
 526:C:/Workspace/DAVE-4.4.2-64Bit/xmc1400-getstarted-optiga-trust-m/Libraries/XMCLib/inc\xmc_usic.h ****   __I  uint32_t  RBUFD;			/**< Debug mode receive buffer register*/
 527:C:/Workspace/DAVE-4.4.2-64Bit/xmc1400-getstarted-optiga-trust-m/Libraries/XMCLib/inc\xmc_usic.h ****   __I  uint32_t  RBUF0;			/**< Receive buffer 0*/
 528:C:/Workspace/DAVE-4.4.2-64Bit/xmc1400-getstarted-optiga-trust-m/Libraries/XMCLib/inc\xmc_usic.h ****   __I  uint32_t  RBUF1;			/**< Receive buffer 1*/
 529:C:/Workspace/DAVE-4.4.2-64Bit/xmc1400-getstarted-optiga-trust-m/Libraries/XMCLib/inc\xmc_usic.h ****   __I  uint32_t  RBUF01SR;		/**< Receive buffer status register*/
 530:C:/Workspace/DAVE-4.4.2-64Bit/xmc1400-getstarted-optiga-trust-m/Libraries/XMCLib/inc\xmc_usic.h ****   __O  uint32_t  FMR;			/**< Flag modification register*/
 531:C:/Workspace/DAVE-4.4.2-64Bit/xmc1400-getstarted-optiga-trust-m/Libraries/XMCLib/inc\xmc_usic.h ****   __I  uint32_t  RESERVED2[5];
 532:C:/Workspace/DAVE-4.4.2-64Bit/xmc1400-getstarted-optiga-trust-m/Libraries/XMCLib/inc\xmc_usic.h ****   __IO uint32_t  TBUF[32];		/**< Tranmsit buffer registers*/
 533:C:/Workspace/DAVE-4.4.2-64Bit/xmc1400-getstarted-optiga-trust-m/Libraries/XMCLib/inc\xmc_usic.h ****   __IO uint32_t  BYP;			/**< FIFO bypass register*/
 534:C:/Workspace/DAVE-4.4.2-64Bit/xmc1400-getstarted-optiga-trust-m/Libraries/XMCLib/inc\xmc_usic.h ****   __IO uint32_t  BYPCR;			/**< FIFO bypass control register*/
 535:C:/Workspace/DAVE-4.4.2-64Bit/xmc1400-getstarted-optiga-trust-m/Libraries/XMCLib/inc\xmc_usic.h ****   __IO uint32_t  TBCTR;			/**< Transmit FIFO control register*/
 536:C:/Workspace/DAVE-4.4.2-64Bit/xmc1400-getstarted-optiga-trust-m/Libraries/XMCLib/inc\xmc_usic.h ****   __IO uint32_t  RBCTR;			/**< Receive FIFO control register*/
 537:C:/Workspace/DAVE-4.4.2-64Bit/xmc1400-getstarted-optiga-trust-m/Libraries/XMCLib/inc\xmc_usic.h ****   __I  uint32_t  TRBPTR;		/**< Transmit/recive buffer pointer register*/
 538:C:/Workspace/DAVE-4.4.2-64Bit/xmc1400-getstarted-optiga-trust-m/Libraries/XMCLib/inc\xmc_usic.h ****   __IO uint32_t  TRBSR;			/**< Transmit/receive buffer status register*/
 539:C:/Workspace/DAVE-4.4.2-64Bit/xmc1400-getstarted-optiga-trust-m/Libraries/XMCLib/inc\xmc_usic.h ****   __O  uint32_t  TRBSCR;		/**< Transmit/receive buffer status clear register*/
 540:C:/Workspace/DAVE-4.4.2-64Bit/xmc1400-getstarted-optiga-trust-m/Libraries/XMCLib/inc\xmc_usic.h ****   __I  uint32_t  OUTR;			/**< Receive FIFO output register*/
 541:C:/Workspace/DAVE-4.4.2-64Bit/xmc1400-getstarted-optiga-trust-m/Libraries/XMCLib/inc\xmc_usic.h ****   __I  uint32_t  OUTDR;			/**< Receive FIFO debug output register*/
 542:C:/Workspace/DAVE-4.4.2-64Bit/xmc1400-getstarted-optiga-trust-m/Libraries/XMCLib/inc\xmc_usic.h ****   __I  uint32_t  RESERVED3[23];
 543:C:/Workspace/DAVE-4.4.2-64Bit/xmc1400-getstarted-optiga-trust-m/Libraries/XMCLib/inc\xmc_usic.h ****   __O  uint32_t  IN[32];		/**< Transmit FIFO input register*/
 544:C:/Workspace/DAVE-4.4.2-64Bit/xmc1400-getstarted-optiga-trust-m/Libraries/XMCLib/inc\xmc_usic.h **** } XMC_USIC_CH_t;
 545:C:/Workspace/DAVE-4.4.2-64Bit/xmc1400-getstarted-optiga-trust-m/Libraries/XMCLib/inc\xmc_usic.h **** 
 546:C:/Workspace/DAVE-4.4.2-64Bit/xmc1400-getstarted-optiga-trust-m/Libraries/XMCLib/inc\xmc_usic.h **** 
 547:C:/Workspace/DAVE-4.4.2-64Bit/xmc1400-getstarted-optiga-trust-m/Libraries/XMCLib/inc\xmc_usic.h **** /*Anonymous structure/union guard end*/
 548:C:/Workspace/DAVE-4.4.2-64Bit/xmc1400-getstarted-optiga-trust-m/Libraries/XMCLib/inc\xmc_usic.h **** #if defined(__CC_ARM)
 549:C:/Workspace/DAVE-4.4.2-64Bit/xmc1400-getstarted-optiga-trust-m/Libraries/XMCLib/inc\xmc_usic.h ****   #pragma pop
 550:C:/Workspace/DAVE-4.4.2-64Bit/xmc1400-getstarted-optiga-trust-m/Libraries/XMCLib/inc\xmc_usic.h **** #elif defined(__TASKING__)
 551:C:/Workspace/DAVE-4.4.2-64Bit/xmc1400-getstarted-optiga-trust-m/Libraries/XMCLib/inc\xmc_usic.h ****   #pragma warning restore
 552:C:/Workspace/DAVE-4.4.2-64Bit/xmc1400-getstarted-optiga-trust-m/Libraries/XMCLib/inc\xmc_usic.h **** #endif
 553:C:/Workspace/DAVE-4.4.2-64Bit/xmc1400-getstarted-optiga-trust-m/Libraries/XMCLib/inc\xmc_usic.h **** 
 554:C:/Workspace/DAVE-4.4.2-64Bit/xmc1400-getstarted-optiga-trust-m/Libraries/XMCLib/inc\xmc_usic.h **** /*******************************************************************************
 555:C:/Workspace/DAVE-4.4.2-64Bit/xmc1400-getstarted-optiga-trust-m/Libraries/XMCLib/inc\xmc_usic.h ****  * API PROTOTYPES
 556:C:/Workspace/DAVE-4.4.2-64Bit/xmc1400-getstarted-optiga-trust-m/Libraries/XMCLib/inc\xmc_usic.h ****  ******************************************************************************/
 557:C:/Workspace/DAVE-4.4.2-64Bit/xmc1400-getstarted-optiga-trust-m/Libraries/XMCLib/inc\xmc_usic.h **** 
 558:C:/Workspace/DAVE-4.4.2-64Bit/xmc1400-getstarted-optiga-trust-m/Libraries/XMCLib/inc\xmc_usic.h **** #ifdef __cplusplus
 559:C:/Workspace/DAVE-4.4.2-64Bit/xmc1400-getstarted-optiga-trust-m/Libraries/XMCLib/inc\xmc_usic.h **** extern "C" {
 560:C:/Workspace/DAVE-4.4.2-64Bit/xmc1400-getstarted-optiga-trust-m/Libraries/XMCLib/inc\xmc_usic.h **** #endif
 561:C:/Workspace/DAVE-4.4.2-64Bit/xmc1400-getstarted-optiga-trust-m/Libraries/XMCLib/inc\xmc_usic.h **** 
 562:C:/Workspace/DAVE-4.4.2-64Bit/xmc1400-getstarted-optiga-trust-m/Libraries/XMCLib/inc\xmc_usic.h **** __STATIC_INLINE bool XMC_USIC_IsModuleValid(const XMC_USIC_t *const module)
 563:C:/Workspace/DAVE-4.4.2-64Bit/xmc1400-getstarted-optiga-trust-m/Libraries/XMCLib/inc\xmc_usic.h **** {
 564:C:/Workspace/DAVE-4.4.2-64Bit/xmc1400-getstarted-optiga-trust-m/Libraries/XMCLib/inc\xmc_usic.h ****   bool tmp;
 565:C:/Workspace/DAVE-4.4.2-64Bit/xmc1400-getstarted-optiga-trust-m/Libraries/XMCLib/inc\xmc_usic.h **** 
 566:C:/Workspace/DAVE-4.4.2-64Bit/xmc1400-getstarted-optiga-trust-m/Libraries/XMCLib/inc\xmc_usic.h ****   tmp = (module == XMC_USIC0);
 567:C:/Workspace/DAVE-4.4.2-64Bit/xmc1400-getstarted-optiga-trust-m/Libraries/XMCLib/inc\xmc_usic.h **** #if defined(XMC_USIC1)  
 568:C:/Workspace/DAVE-4.4.2-64Bit/xmc1400-getstarted-optiga-trust-m/Libraries/XMCLib/inc\xmc_usic.h ****   tmp = tmp || (module == XMC_USIC1);
 569:C:/Workspace/DAVE-4.4.2-64Bit/xmc1400-getstarted-optiga-trust-m/Libraries/XMCLib/inc\xmc_usic.h **** #endif
 570:C:/Workspace/DAVE-4.4.2-64Bit/xmc1400-getstarted-optiga-trust-m/Libraries/XMCLib/inc\xmc_usic.h **** #if defined(XMC_USIC2)  
 571:C:/Workspace/DAVE-4.4.2-64Bit/xmc1400-getstarted-optiga-trust-m/Libraries/XMCLib/inc\xmc_usic.h ****   tmp = tmp || (module == XMC_USIC2);
 572:C:/Workspace/DAVE-4.4.2-64Bit/xmc1400-getstarted-optiga-trust-m/Libraries/XMCLib/inc\xmc_usic.h **** #endif
 573:C:/Workspace/DAVE-4.4.2-64Bit/xmc1400-getstarted-optiga-trust-m/Libraries/XMCLib/inc\xmc_usic.h **** 
 574:C:/Workspace/DAVE-4.4.2-64Bit/xmc1400-getstarted-optiga-trust-m/Libraries/XMCLib/inc\xmc_usic.h ****   return tmp;
 575:C:/Workspace/DAVE-4.4.2-64Bit/xmc1400-getstarted-optiga-trust-m/Libraries/XMCLib/inc\xmc_usic.h **** }
 576:C:/Workspace/DAVE-4.4.2-64Bit/xmc1400-getstarted-optiga-trust-m/Libraries/XMCLib/inc\xmc_usic.h **** 
 577:C:/Workspace/DAVE-4.4.2-64Bit/xmc1400-getstarted-optiga-trust-m/Libraries/XMCLib/inc\xmc_usic.h **** __STATIC_INLINE bool XMC_USIC_IsChannelValid(const XMC_USIC_CH_t *const channel)
 578:C:/Workspace/DAVE-4.4.2-64Bit/xmc1400-getstarted-optiga-trust-m/Libraries/XMCLib/inc\xmc_usic.h **** {
 579:C:/Workspace/DAVE-4.4.2-64Bit/xmc1400-getstarted-optiga-trust-m/Libraries/XMCLib/inc\xmc_usic.h ****   bool tmp;
 580:C:/Workspace/DAVE-4.4.2-64Bit/xmc1400-getstarted-optiga-trust-m/Libraries/XMCLib/inc\xmc_usic.h **** 
 581:C:/Workspace/DAVE-4.4.2-64Bit/xmc1400-getstarted-optiga-trust-m/Libraries/XMCLib/inc\xmc_usic.h ****   tmp = ((channel == XMC_USIC0_CH0) || (channel == XMC_USIC0_CH1));
 582:C:/Workspace/DAVE-4.4.2-64Bit/xmc1400-getstarted-optiga-trust-m/Libraries/XMCLib/inc\xmc_usic.h **** #if defined(XMC_USIC1)  
 583:C:/Workspace/DAVE-4.4.2-64Bit/xmc1400-getstarted-optiga-trust-m/Libraries/XMCLib/inc\xmc_usic.h ****   tmp = tmp || ((channel == XMC_USIC1_CH0) || (channel == XMC_USIC1_CH1));
 584:C:/Workspace/DAVE-4.4.2-64Bit/xmc1400-getstarted-optiga-trust-m/Libraries/XMCLib/inc\xmc_usic.h **** #endif
 585:C:/Workspace/DAVE-4.4.2-64Bit/xmc1400-getstarted-optiga-trust-m/Libraries/XMCLib/inc\xmc_usic.h **** #if defined(XMC_USIC2)  
 586:C:/Workspace/DAVE-4.4.2-64Bit/xmc1400-getstarted-optiga-trust-m/Libraries/XMCLib/inc\xmc_usic.h ****   tmp = tmp || ((channel == XMC_USIC2_CH0) || (channel == XMC_USIC2_CH1));
 587:C:/Workspace/DAVE-4.4.2-64Bit/xmc1400-getstarted-optiga-trust-m/Libraries/XMCLib/inc\xmc_usic.h **** #endif
 588:C:/Workspace/DAVE-4.4.2-64Bit/xmc1400-getstarted-optiga-trust-m/Libraries/XMCLib/inc\xmc_usic.h **** 
 589:C:/Workspace/DAVE-4.4.2-64Bit/xmc1400-getstarted-optiga-trust-m/Libraries/XMCLib/inc\xmc_usic.h ****   return tmp;
 590:C:/Workspace/DAVE-4.4.2-64Bit/xmc1400-getstarted-optiga-trust-m/Libraries/XMCLib/inc\xmc_usic.h **** }
 591:C:/Workspace/DAVE-4.4.2-64Bit/xmc1400-getstarted-optiga-trust-m/Libraries/XMCLib/inc\xmc_usic.h **** 
 592:C:/Workspace/DAVE-4.4.2-64Bit/xmc1400-getstarted-optiga-trust-m/Libraries/XMCLib/inc\xmc_usic.h **** /* Common APIs */
 593:C:/Workspace/DAVE-4.4.2-64Bit/xmc1400-getstarted-optiga-trust-m/Libraries/XMCLib/inc\xmc_usic.h **** 
 594:C:/Workspace/DAVE-4.4.2-64Bit/xmc1400-getstarted-optiga-trust-m/Libraries/XMCLib/inc\xmc_usic.h **** /**
 595:C:/Workspace/DAVE-4.4.2-64Bit/xmc1400-getstarted-optiga-trust-m/Libraries/XMCLib/inc\xmc_usic.h ****  * @param  usic Pointer to USIC module handler of type @ref XMC_USIC_t.\n
 596:C:/Workspace/DAVE-4.4.2-64Bit/xmc1400-getstarted-optiga-trust-m/Libraries/XMCLib/inc\xmc_usic.h ****  * 				\b Range: @ref XMC_USIC0 to @ref XMC_USIC2 based on device support.
 597:C:/Workspace/DAVE-4.4.2-64Bit/xmc1400-getstarted-optiga-trust-m/Libraries/XMCLib/inc\xmc_usic.h ****  * @return None
 598:C:/Workspace/DAVE-4.4.2-64Bit/xmc1400-getstarted-optiga-trust-m/Libraries/XMCLib/inc\xmc_usic.h ****  * 
 599:C:/Workspace/DAVE-4.4.2-64Bit/xmc1400-getstarted-optiga-trust-m/Libraries/XMCLib/inc\xmc_usic.h ****  * \par<b>Description</b><br>
 600:C:/Workspace/DAVE-4.4.2-64Bit/xmc1400-getstarted-optiga-trust-m/Libraries/XMCLib/inc\xmc_usic.h ****  * Enables the USIC module.\n\n
 601:C:/Workspace/DAVE-4.4.2-64Bit/xmc1400-getstarted-optiga-trust-m/Libraries/XMCLib/inc\xmc_usic.h ****  * Enables the clock for the USIC module by following the
 602:C:/Workspace/DAVE-4.4.2-64Bit/xmc1400-getstarted-optiga-trust-m/Libraries/XMCLib/inc\xmc_usic.h ****  * clock enabling sequence for the selected device.
 603:C:/Workspace/DAVE-4.4.2-64Bit/xmc1400-getstarted-optiga-trust-m/Libraries/XMCLib/inc\xmc_usic.h ****  *
 604:C:/Workspace/DAVE-4.4.2-64Bit/xmc1400-getstarted-optiga-trust-m/Libraries/XMCLib/inc\xmc_usic.h ****  * \par<b>Related APIs:</b><BR>
 605:C:/Workspace/DAVE-4.4.2-64Bit/xmc1400-getstarted-optiga-trust-m/Libraries/XMCLib/inc\xmc_usic.h ****  * XMC_USIC_CH_Enable(), XMC_USIC_Disable() \n\n\n
 606:C:/Workspace/DAVE-4.4.2-64Bit/xmc1400-getstarted-optiga-trust-m/Libraries/XMCLib/inc\xmc_usic.h ****  */
 607:C:/Workspace/DAVE-4.4.2-64Bit/xmc1400-getstarted-optiga-trust-m/Libraries/XMCLib/inc\xmc_usic.h **** void XMC_USIC_Enable(XMC_USIC_t *const usic);
 608:C:/Workspace/DAVE-4.4.2-64Bit/xmc1400-getstarted-optiga-trust-m/Libraries/XMCLib/inc\xmc_usic.h **** /**
 609:C:/Workspace/DAVE-4.4.2-64Bit/xmc1400-getstarted-optiga-trust-m/Libraries/XMCLib/inc\xmc_usic.h ****  * @param  usic Pointer to USIC module handler of type @ref XMC_USIC_t.\n
 610:C:/Workspace/DAVE-4.4.2-64Bit/xmc1400-getstarted-optiga-trust-m/Libraries/XMCLib/inc\xmc_usic.h ****  * 				\b Range: @ref XMC_USIC0 to @ref XMC_USIC2 based on device support.
 611:C:/Workspace/DAVE-4.4.2-64Bit/xmc1400-getstarted-optiga-trust-m/Libraries/XMCLib/inc\xmc_usic.h ****  * @return None
 612:C:/Workspace/DAVE-4.4.2-64Bit/xmc1400-getstarted-optiga-trust-m/Libraries/XMCLib/inc\xmc_usic.h ****  *
 613:C:/Workspace/DAVE-4.4.2-64Bit/xmc1400-getstarted-optiga-trust-m/Libraries/XMCLib/inc\xmc_usic.h ****  * \par<b>Description</b><br>
 614:C:/Workspace/DAVE-4.4.2-64Bit/xmc1400-getstarted-optiga-trust-m/Libraries/XMCLib/inc\xmc_usic.h ****  * Disables the USIC module.\n\n
 615:C:/Workspace/DAVE-4.4.2-64Bit/xmc1400-getstarted-optiga-trust-m/Libraries/XMCLib/inc\xmc_usic.h ****  * Disables the clock for the USIC module by following the clock
 616:C:/Workspace/DAVE-4.4.2-64Bit/xmc1400-getstarted-optiga-trust-m/Libraries/XMCLib/inc\xmc_usic.h ****  * disabling sequence for the selected device.
 617:C:/Workspace/DAVE-4.4.2-64Bit/xmc1400-getstarted-optiga-trust-m/Libraries/XMCLib/inc\xmc_usic.h ****  *
 618:C:/Workspace/DAVE-4.4.2-64Bit/xmc1400-getstarted-optiga-trust-m/Libraries/XMCLib/inc\xmc_usic.h ****  * \par<b>Related APIs:</b><BR>
 619:C:/Workspace/DAVE-4.4.2-64Bit/xmc1400-getstarted-optiga-trust-m/Libraries/XMCLib/inc\xmc_usic.h ****  * XMC_USIC_CH_Disable(), XMC_USIC_Enable() \n\n\n
 620:C:/Workspace/DAVE-4.4.2-64Bit/xmc1400-getstarted-optiga-trust-m/Libraries/XMCLib/inc\xmc_usic.h ****  */
 621:C:/Workspace/DAVE-4.4.2-64Bit/xmc1400-getstarted-optiga-trust-m/Libraries/XMCLib/inc\xmc_usic.h **** void XMC_USIC_Disable(XMC_USIC_t *const usic);
 622:C:/Workspace/DAVE-4.4.2-64Bit/xmc1400-getstarted-optiga-trust-m/Libraries/XMCLib/inc\xmc_usic.h **** /**
 623:C:/Workspace/DAVE-4.4.2-64Bit/xmc1400-getstarted-optiga-trust-m/Libraries/XMCLib/inc\xmc_usic.h ****  * @param  channel Pointer to USIC channel handler of type @ref XMC_USIC_CH_t \n
 624:C:/Workspace/DAVE-4.4.2-64Bit/xmc1400-getstarted-optiga-trust-m/Libraries/XMCLib/inc\xmc_usic.h ****  * 				   \b Range: @ref XMC_USIC0_CH0, @ref XMC_USIC0_CH1 to @ref XMC_USIC2_CH1 based on device su
 625:C:/Workspace/DAVE-4.4.2-64Bit/xmc1400-getstarted-optiga-trust-m/Libraries/XMCLib/inc\xmc_usic.h ****  * @return None
 626:C:/Workspace/DAVE-4.4.2-64Bit/xmc1400-getstarted-optiga-trust-m/Libraries/XMCLib/inc\xmc_usic.h ****  *
 627:C:/Workspace/DAVE-4.4.2-64Bit/xmc1400-getstarted-optiga-trust-m/Libraries/XMCLib/inc\xmc_usic.h ****  * \par<b>Description</b><br>
 628:C:/Workspace/DAVE-4.4.2-64Bit/xmc1400-getstarted-optiga-trust-m/Libraries/XMCLib/inc\xmc_usic.h ****  * Enables the USIC channel. \n\n
 629:C:/Workspace/DAVE-4.4.2-64Bit/xmc1400-getstarted-optiga-trust-m/Libraries/XMCLib/inc\xmc_usic.h ****  * USIC channel is enabled by setting the module enable bit in KSCFG register bitfield MODEN.
 630:C:/Workspace/DAVE-4.4.2-64Bit/xmc1400-getstarted-optiga-trust-m/Libraries/XMCLib/inc\xmc_usic.h ****  * On enabling, the channel is set to idle mode.
 631:C:/Workspace/DAVE-4.4.2-64Bit/xmc1400-getstarted-optiga-trust-m/Libraries/XMCLib/inc\xmc_usic.h ****  *
 632:C:/Workspace/DAVE-4.4.2-64Bit/xmc1400-getstarted-optiga-trust-m/Libraries/XMCLib/inc\xmc_usic.h ****  * \par<b>Related APIs:</b><BR>
 633:C:/Workspace/DAVE-4.4.2-64Bit/xmc1400-getstarted-optiga-trust-m/Libraries/XMCLib/inc\xmc_usic.h ****  * XMC_USIC_CH_Disable(), XMC_USIC_Enable() \n\n\n
 634:C:/Workspace/DAVE-4.4.2-64Bit/xmc1400-getstarted-optiga-trust-m/Libraries/XMCLib/inc\xmc_usic.h ****  */
 635:C:/Workspace/DAVE-4.4.2-64Bit/xmc1400-getstarted-optiga-trust-m/Libraries/XMCLib/inc\xmc_usic.h **** void XMC_USIC_CH_Enable(XMC_USIC_CH_t *const channel);
 636:C:/Workspace/DAVE-4.4.2-64Bit/xmc1400-getstarted-optiga-trust-m/Libraries/XMCLib/inc\xmc_usic.h **** /**
 637:C:/Workspace/DAVE-4.4.2-64Bit/xmc1400-getstarted-optiga-trust-m/Libraries/XMCLib/inc\xmc_usic.h ****  * @param  channel Pointer to USIC channel handler of type @ref XMC_USIC_CH_t \n
 638:C:/Workspace/DAVE-4.4.2-64Bit/xmc1400-getstarted-optiga-trust-m/Libraries/XMCLib/inc\xmc_usic.h ****  * 				   \b Range: @ref XMC_USIC0_CH0, @ref XMC_USIC0_CH1 to @ref XMC_USIC2_CH1 based on device su
 639:C:/Workspace/DAVE-4.4.2-64Bit/xmc1400-getstarted-optiga-trust-m/Libraries/XMCLib/inc\xmc_usic.h ****  * @return None
 640:C:/Workspace/DAVE-4.4.2-64Bit/xmc1400-getstarted-optiga-trust-m/Libraries/XMCLib/inc\xmc_usic.h ****  *
 641:C:/Workspace/DAVE-4.4.2-64Bit/xmc1400-getstarted-optiga-trust-m/Libraries/XMCLib/inc\xmc_usic.h ****  * \par<b>Description</b><br>
 642:C:/Workspace/DAVE-4.4.2-64Bit/xmc1400-getstarted-optiga-trust-m/Libraries/XMCLib/inc\xmc_usic.h ****  * Disables the USIC channel.\n\n
 643:C:/Workspace/DAVE-4.4.2-64Bit/xmc1400-getstarted-optiga-trust-m/Libraries/XMCLib/inc\xmc_usic.h ****  * USIC channel is disabled by setting the module enable bit(MDEN) to 0 in the register KSCFG.
 644:C:/Workspace/DAVE-4.4.2-64Bit/xmc1400-getstarted-optiga-trust-m/Libraries/XMCLib/inc\xmc_usic.h ****  *
 645:C:/Workspace/DAVE-4.4.2-64Bit/xmc1400-getstarted-optiga-trust-m/Libraries/XMCLib/inc\xmc_usic.h ****  * \par<b>Related APIs:</b><BR>
 646:C:/Workspace/DAVE-4.4.2-64Bit/xmc1400-getstarted-optiga-trust-m/Libraries/XMCLib/inc\xmc_usic.h ****  * XMC_USIC_CH_Enable(), XMC_USIC_Disable() \n\n\n
 647:C:/Workspace/DAVE-4.4.2-64Bit/xmc1400-getstarted-optiga-trust-m/Libraries/XMCLib/inc\xmc_usic.h ****  */
 648:C:/Workspace/DAVE-4.4.2-64Bit/xmc1400-getstarted-optiga-trust-m/Libraries/XMCLib/inc\xmc_usic.h **** void XMC_USIC_CH_Disable(XMC_USIC_CH_t *const channel);
 649:C:/Workspace/DAVE-4.4.2-64Bit/xmc1400-getstarted-optiga-trust-m/Libraries/XMCLib/inc\xmc_usic.h **** 
 650:C:/Workspace/DAVE-4.4.2-64Bit/xmc1400-getstarted-optiga-trust-m/Libraries/XMCLib/inc\xmc_usic.h **** /**
 651:C:/Workspace/DAVE-4.4.2-64Bit/xmc1400-getstarted-optiga-trust-m/Libraries/XMCLib/inc\xmc_usic.h ****  * @param  channel Pointer to USIC channel handler of type @ref XMC_USIC_CH_t \n
 652:C:/Workspace/DAVE-4.4.2-64Bit/xmc1400-getstarted-optiga-trust-m/Libraries/XMCLib/inc\xmc_usic.h ****  * 				   \b Range: @ref XMC_USIC0_CH0, @ref XMC_USIC0_CH1 to @ref XMC_USIC2_CH1 based on device su
 653:C:/Workspace/DAVE-4.4.2-64Bit/xmc1400-getstarted-optiga-trust-m/Libraries/XMCLib/inc\xmc_usic.h ****  * @param  rate Desired baudrate. \b Range: minimum value = 100, maximum value depends on the perip
 654:C:/Workspace/DAVE-4.4.2-64Bit/xmc1400-getstarted-optiga-trust-m/Libraries/XMCLib/inc\xmc_usic.h ****  * 				and \a oversampling. Maximum baudrate can be derived using the formula: (fperiph * 1023)/(10
 655:C:/Workspace/DAVE-4.4.2-64Bit/xmc1400-getstarted-optiga-trust-m/Libraries/XMCLib/inc\xmc_usic.h ****  * @param  oversampling Required oversampling. The value indicates the number of time quanta for on
 656:C:/Workspace/DAVE-4.4.2-64Bit/xmc1400-getstarted-optiga-trust-m/Libraries/XMCLib/inc\xmc_usic.h ****  * 						This can be related to the number of samples for each logic state of the data signal. \n
 657:C:/Workspace/DAVE-4.4.2-64Bit/xmc1400-getstarted-optiga-trust-m/Libraries/XMCLib/inc\xmc_usic.h ****  * 						\b Range: 1 to 32. Value should be chosen based on the protocol used.
 658:C:/Workspace/DAVE-4.4.2-64Bit/xmc1400-getstarted-optiga-trust-m/Libraries/XMCLib/inc\xmc_usic.h ****  * @return Status indicating the baudrate configuration.\n
 659:C:/Workspace/DAVE-4.4.2-64Bit/xmc1400-getstarted-optiga-trust-m/Libraries/XMCLib/inc\xmc_usic.h ****  * 			\b Range: @ref XMC_USIC_CH_STATUS_OK if baudrate is successfully configured,
 660:C:/Workspace/DAVE-4.4.2-64Bit/xmc1400-getstarted-optiga-trust-m/Libraries/XMCLib/inc\xmc_usic.h ****  * 					  @ref XMC_USIC_CH_STATUS_ERROR if desired baudrate or oversampling is invalid.
 661:C:/Workspace/DAVE-4.4.2-64Bit/xmc1400-getstarted-optiga-trust-m/Libraries/XMCLib/inc\xmc_usic.h ****  *
 662:C:/Workspace/DAVE-4.4.2-64Bit/xmc1400-getstarted-optiga-trust-m/Libraries/XMCLib/inc\xmc_usic.h ****  * \par<b>Description</b><br>
 663:C:/Workspace/DAVE-4.4.2-64Bit/xmc1400-getstarted-optiga-trust-m/Libraries/XMCLib/inc\xmc_usic.h ****  * Configures the baudrate of the USIC channel. \n\n
 664:C:/Workspace/DAVE-4.4.2-64Bit/xmc1400-getstarted-optiga-trust-m/Libraries/XMCLib/inc\xmc_usic.h ****  * Baudrate is configured by considering the peripheral frequency and the desired baudrate.
 665:C:/Workspace/DAVE-4.4.2-64Bit/xmc1400-getstarted-optiga-trust-m/Libraries/XMCLib/inc\xmc_usic.h ****  * Optimum values of FDR->STEP and BRG->PDIV are calulated and used for generating the desired
 666:C:/Workspace/DAVE-4.4.2-64Bit/xmc1400-getstarted-optiga-trust-m/Libraries/XMCLib/inc\xmc_usic.h ****  * baudrate.
 667:C:/Workspace/DAVE-4.4.2-64Bit/xmc1400-getstarted-optiga-trust-m/Libraries/XMCLib/inc\xmc_usic.h ****  *
 668:C:/Workspace/DAVE-4.4.2-64Bit/xmc1400-getstarted-optiga-trust-m/Libraries/XMCLib/inc\xmc_usic.h ****  * \par<b>Related APIs:</b><BR>
 669:C:/Workspace/DAVE-4.4.2-64Bit/xmc1400-getstarted-optiga-trust-m/Libraries/XMCLib/inc\xmc_usic.h ****  * XMC_USIC_CH_SetStartTransmisionMode(), XMC_USIC_CH_SetInputSource() \n\n\n
 670:C:/Workspace/DAVE-4.4.2-64Bit/xmc1400-getstarted-optiga-trust-m/Libraries/XMCLib/inc\xmc_usic.h ****  */
 671:C:/Workspace/DAVE-4.4.2-64Bit/xmc1400-getstarted-optiga-trust-m/Libraries/XMCLib/inc\xmc_usic.h **** XMC_USIC_CH_STATUS_t XMC_USIC_CH_SetBaudrate(XMC_USIC_CH_t *const channel, uint32_t rate, uint32_t 
 672:C:/Workspace/DAVE-4.4.2-64Bit/xmc1400-getstarted-optiga-trust-m/Libraries/XMCLib/inc\xmc_usic.h **** 
 673:C:/Workspace/DAVE-4.4.2-64Bit/xmc1400-getstarted-optiga-trust-m/Libraries/XMCLib/inc\xmc_usic.h **** /**
 674:C:/Workspace/DAVE-4.4.2-64Bit/xmc1400-getstarted-optiga-trust-m/Libraries/XMCLib/inc\xmc_usic.h ****  * @param  channel Pointer to USIC channel handler of type @ref XMC_USIC_CH_t \n
 675:C:/Workspace/DAVE-4.4.2-64Bit/xmc1400-getstarted-optiga-trust-m/Libraries/XMCLib/inc\xmc_usic.h ****  *           \b Range: @ref XMC_USIC0_CH0, @ref XMC_USIC0_CH1 to @ref XMC_USIC2_CH1 based on device
 676:C:/Workspace/DAVE-4.4.2-64Bit/xmc1400-getstarted-optiga-trust-m/Libraries/XMCLib/inc\xmc_usic.h ****  * @param  rate Desired baudrate. Only integer dividers of peripheral clock are achievable
 677:C:/Workspace/DAVE-4.4.2-64Bit/xmc1400-getstarted-optiga-trust-m/Libraries/XMCLib/inc\xmc_usic.h ****  * @param  oversampling Required oversampling. The value indicates the number of time quanta for on
 678:C:/Workspace/DAVE-4.4.2-64Bit/xmc1400-getstarted-optiga-trust-m/Libraries/XMCLib/inc\xmc_usic.h ****  *            This can be related to the number of samples for each logic state of the data signal.
 679:C:/Workspace/DAVE-4.4.2-64Bit/xmc1400-getstarted-optiga-trust-m/Libraries/XMCLib/inc\xmc_usic.h ****  *            \b Range: 1 to 32. Value should be chosen based on the protocol used.
 680:C:/Workspace/DAVE-4.4.2-64Bit/xmc1400-getstarted-optiga-trust-m/Libraries/XMCLib/inc\xmc_usic.h ****  * @return Status indicating the baudrate configuration.\n
 681:C:/Workspace/DAVE-4.4.2-64Bit/xmc1400-getstarted-optiga-trust-m/Libraries/XMCLib/inc\xmc_usic.h ****  *      \b Range: @ref XMC_USIC_CH_STATUS_OK if baudrate is successfully configured,
 682:C:/Workspace/DAVE-4.4.2-64Bit/xmc1400-getstarted-optiga-trust-m/Libraries/XMCLib/inc\xmc_usic.h ****  *            @ref XMC_USIC_CH_STATUS_ERROR if desired baudrate or oversampling is invalid.
 683:C:/Workspace/DAVE-4.4.2-64Bit/xmc1400-getstarted-optiga-trust-m/Libraries/XMCLib/inc\xmc_usic.h ****  *
 684:C:/Workspace/DAVE-4.4.2-64Bit/xmc1400-getstarted-optiga-trust-m/Libraries/XMCLib/inc\xmc_usic.h ****  * \par<b>Description</b><br>
 685:C:/Workspace/DAVE-4.4.2-64Bit/xmc1400-getstarted-optiga-trust-m/Libraries/XMCLib/inc\xmc_usic.h ****  * Configures the baudrate of the USIC channel using the integer divider which restrics the achieva
 686:C:/Workspace/DAVE-4.4.2-64Bit/xmc1400-getstarted-optiga-trust-m/Libraries/XMCLib/inc\xmc_usic.h ****  * Baudrate is configured by considering the peripheral frequency and the desired baudrate.
 687:C:/Workspace/DAVE-4.4.2-64Bit/xmc1400-getstarted-optiga-trust-m/Libraries/XMCLib/inc\xmc_usic.h ****  * Optimum values of FDR->STEP and BRG->PDIV are calulated and used for generating the desired
 688:C:/Workspace/DAVE-4.4.2-64Bit/xmc1400-getstarted-optiga-trust-m/Libraries/XMCLib/inc\xmc_usic.h ****  * baudrate.
 689:C:/Workspace/DAVE-4.4.2-64Bit/xmc1400-getstarted-optiga-trust-m/Libraries/XMCLib/inc\xmc_usic.h ****  *
 690:C:/Workspace/DAVE-4.4.2-64Bit/xmc1400-getstarted-optiga-trust-m/Libraries/XMCLib/inc\xmc_usic.h ****  * \par<b>Related APIs:</b><BR>
 691:C:/Workspace/DAVE-4.4.2-64Bit/xmc1400-getstarted-optiga-trust-m/Libraries/XMCLib/inc\xmc_usic.h ****  * XMC_USIC_CH_SetStartTransmisionMode(), XMC_USIC_CH_SetInputSource() \n\n\n
 692:C:/Workspace/DAVE-4.4.2-64Bit/xmc1400-getstarted-optiga-trust-m/Libraries/XMCLib/inc\xmc_usic.h ****  */
 693:C:/Workspace/DAVE-4.4.2-64Bit/xmc1400-getstarted-optiga-trust-m/Libraries/XMCLib/inc\xmc_usic.h **** XMC_USIC_CH_STATUS_t XMC_USIC_CH_SetBaudrateEx(XMC_USIC_CH_t *const channel, int32_t rate, int32_t 
 694:C:/Workspace/DAVE-4.4.2-64Bit/xmc1400-getstarted-optiga-trust-m/Libraries/XMCLib/inc\xmc_usic.h **** 
 695:C:/Workspace/DAVE-4.4.2-64Bit/xmc1400-getstarted-optiga-trust-m/Libraries/XMCLib/inc\xmc_usic.h **** 
 696:C:/Workspace/DAVE-4.4.2-64Bit/xmc1400-getstarted-optiga-trust-m/Libraries/XMCLib/inc\xmc_usic.h **** /**
 697:C:/Workspace/DAVE-4.4.2-64Bit/xmc1400-getstarted-optiga-trust-m/Libraries/XMCLib/inc\xmc_usic.h ****  * @param  channel Pointer to USIC channel handler of type @ref XMC_USIC_CH_t \n
 698:C:/Workspace/DAVE-4.4.2-64Bit/xmc1400-getstarted-optiga-trust-m/Libraries/XMCLib/inc\xmc_usic.h ****  *           \b Range: @ref XMC_USIC0_CH0, @ref XMC_USIC0_CH1 to @ref XMC_USIC2_CH1 based on device
 699:C:/Workspace/DAVE-4.4.2-64Bit/xmc1400-getstarted-optiga-trust-m/Libraries/XMCLib/inc\xmc_usic.h ****  * @return baudrate currently used by USIC channel for .\n
 700:C:/Workspace/DAVE-4.4.2-64Bit/xmc1400-getstarted-optiga-trust-m/Libraries/XMCLib/inc\xmc_usic.h ****  *
 701:C:/Workspace/DAVE-4.4.2-64Bit/xmc1400-getstarted-optiga-trust-m/Libraries/XMCLib/inc\xmc_usic.h ****  * \par<b>Description</b><br>
 702:C:/Workspace/DAVE-4.4.2-64Bit/xmc1400-getstarted-optiga-trust-m/Libraries/XMCLib/inc\xmc_usic.h ****  * Calculates the current used baudrate (fCTQIN) of a USIC channel. \n\n
 703:C:/Workspace/DAVE-4.4.2-64Bit/xmc1400-getstarted-optiga-trust-m/Libraries/XMCLib/inc\xmc_usic.h ****  * @image html ../images/usic_brg.png	 
 704:C:/Workspace/DAVE-4.4.2-64Bit/xmc1400-getstarted-optiga-trust-m/Libraries/XMCLib/inc\xmc_usic.h ****  * @image latex ../images/usic_brg.png	 
 705:C:/Workspace/DAVE-4.4.2-64Bit/xmc1400-getstarted-optiga-trust-m/Libraries/XMCLib/inc\xmc_usic.h ****  *
 706:C:/Workspace/DAVE-4.4.2-64Bit/xmc1400-getstarted-optiga-trust-m/Libraries/XMCLib/inc\xmc_usic.h ****  * \par<b>Related APIs:</b><BR>
 707:C:/Workspace/DAVE-4.4.2-64Bit/xmc1400-getstarted-optiga-trust-m/Libraries/XMCLib/inc\xmc_usic.h ****  * XMC_USIC_CH_SetBaudrateMode(), XMC_USIC_CH_SetBaudrate(), XMC_USIC_CH_SetBaudrateEx() \n\n\n
 708:C:/Workspace/DAVE-4.4.2-64Bit/xmc1400-getstarted-optiga-trust-m/Libraries/XMCLib/inc\xmc_usic.h ****  */
 709:C:/Workspace/DAVE-4.4.2-64Bit/xmc1400-getstarted-optiga-trust-m/Libraries/XMCLib/inc\xmc_usic.h **** uint32_t XMC_USIC_CH_GetBaudrate(XMC_USIC_CH_t *const channel);
 710:C:/Workspace/DAVE-4.4.2-64Bit/xmc1400-getstarted-optiga-trust-m/Libraries/XMCLib/inc\xmc_usic.h **** 
 711:C:/Workspace/DAVE-4.4.2-64Bit/xmc1400-getstarted-optiga-trust-m/Libraries/XMCLib/inc\xmc_usic.h **** /**
 712:C:/Workspace/DAVE-4.4.2-64Bit/xmc1400-getstarted-optiga-trust-m/Libraries/XMCLib/inc\xmc_usic.h ****  * @param  channel Pointer to USIC channel handler of type @ref XMC_USIC_CH_t \n
 713:C:/Workspace/DAVE-4.4.2-64Bit/xmc1400-getstarted-optiga-trust-m/Libraries/XMCLib/inc\xmc_usic.h ****  *           \b Range: @ref XMC_USIC0_CH0, @ref XMC_USIC0_CH1 to @ref XMC_USIC2_CH1 based on device
 714:C:/Workspace/DAVE-4.4.2-64Bit/xmc1400-getstarted-optiga-trust-m/Libraries/XMCLib/inc\xmc_usic.h ****  * @return baudrate currently used by USIC channel.\n
 715:C:/Workspace/DAVE-4.4.2-64Bit/xmc1400-getstarted-optiga-trust-m/Libraries/XMCLib/inc\xmc_usic.h ****  *
 716:C:/Workspace/DAVE-4.4.2-64Bit/xmc1400-getstarted-optiga-trust-m/Libraries/XMCLib/inc\xmc_usic.h ****  * \par<b>Description</b><br>
 717:C:/Workspace/DAVE-4.4.2-64Bit/xmc1400-getstarted-optiga-trust-m/Libraries/XMCLib/inc\xmc_usic.h ****  * Calculates the current used SCLK frequency of a USIC channel. \n\n
 718:C:/Workspace/DAVE-4.4.2-64Bit/xmc1400-getstarted-optiga-trust-m/Libraries/XMCLib/inc\xmc_usic.h ****  * @image html ../images/usic_brg.png	 
 719:C:/Workspace/DAVE-4.4.2-64Bit/xmc1400-getstarted-optiga-trust-m/Libraries/XMCLib/inc\xmc_usic.h ****  * @image latex ../images/usic_brg.png	 
 720:C:/Workspace/DAVE-4.4.2-64Bit/xmc1400-getstarted-optiga-trust-m/Libraries/XMCLib/inc\xmc_usic.h ****  *
 721:C:/Workspace/DAVE-4.4.2-64Bit/xmc1400-getstarted-optiga-trust-m/Libraries/XMCLib/inc\xmc_usic.h ****  * \par<b>Related APIs:</b><BR>
 722:C:/Workspace/DAVE-4.4.2-64Bit/xmc1400-getstarted-optiga-trust-m/Libraries/XMCLib/inc\xmc_usic.h ****  * XMC_USIC_CH_SetBaudrateMode(), XMC_USIC_CH_SetBaudrate(), XMC_USIC_CH_SetBaudrateEx() \n\n\n
 723:C:/Workspace/DAVE-4.4.2-64Bit/xmc1400-getstarted-optiga-trust-m/Libraries/XMCLib/inc\xmc_usic.h ****  */
 724:C:/Workspace/DAVE-4.4.2-64Bit/xmc1400-getstarted-optiga-trust-m/Libraries/XMCLib/inc\xmc_usic.h **** uint32_t XMC_USIC_CH_GetSCLKFrequency(XMC_USIC_CH_t *const channel);
 725:C:/Workspace/DAVE-4.4.2-64Bit/xmc1400-getstarted-optiga-trust-m/Libraries/XMCLib/inc\xmc_usic.h **** 
 726:C:/Workspace/DAVE-4.4.2-64Bit/xmc1400-getstarted-optiga-trust-m/Libraries/XMCLib/inc\xmc_usic.h **** /**
 727:C:/Workspace/DAVE-4.4.2-64Bit/xmc1400-getstarted-optiga-trust-m/Libraries/XMCLib/inc\xmc_usic.h ****  * @param  channel Pointer to USIC channel handler of type @ref XMC_USIC_CH_t \n
 728:C:/Workspace/DAVE-4.4.2-64Bit/xmc1400-getstarted-optiga-trust-m/Libraries/XMCLib/inc\xmc_usic.h ****  *           \b Range: @ref XMC_USIC0_CH0, @ref XMC_USIC0_CH1 to @ref XMC_USIC2_CH1 based on device
 729:C:/Workspace/DAVE-4.4.2-64Bit/xmc1400-getstarted-optiga-trust-m/Libraries/XMCLib/inc\xmc_usic.h ****  * @return baudrate currently used by USIC channel.\n
 730:C:/Workspace/DAVE-4.4.2-64Bit/xmc1400-getstarted-optiga-trust-m/Libraries/XMCLib/inc\xmc_usic.h ****  *
 731:C:/Workspace/DAVE-4.4.2-64Bit/xmc1400-getstarted-optiga-trust-m/Libraries/XMCLib/inc\xmc_usic.h ****  * \par<b>Description</b><br>
 732:C:/Workspace/DAVE-4.4.2-64Bit/xmc1400-getstarted-optiga-trust-m/Libraries/XMCLib/inc\xmc_usic.h ****  * Calculates the current used MCLK frequency of a USIC channel. \n\n
 733:C:/Workspace/DAVE-4.4.2-64Bit/xmc1400-getstarted-optiga-trust-m/Libraries/XMCLib/inc\xmc_usic.h ****  * @image html ../images/usic_brg.png	 
 734:C:/Workspace/DAVE-4.4.2-64Bit/xmc1400-getstarted-optiga-trust-m/Libraries/XMCLib/inc\xmc_usic.h ****  * @image latex ../images/usic_brg.png	 
 735:C:/Workspace/DAVE-4.4.2-64Bit/xmc1400-getstarted-optiga-trust-m/Libraries/XMCLib/inc\xmc_usic.h ****  *
 736:C:/Workspace/DAVE-4.4.2-64Bit/xmc1400-getstarted-optiga-trust-m/Libraries/XMCLib/inc\xmc_usic.h ****  * \par<b>Related APIs:</b><BR>
 737:C:/Workspace/DAVE-4.4.2-64Bit/xmc1400-getstarted-optiga-trust-m/Libraries/XMCLib/inc\xmc_usic.h ****  * XMC_USIC_CH_SetBaudrateMode(), XMC_USIC_CH_SetBaudrate(), XMC_USIC_CH_SetBaudrateEx() \n\n\n
 738:C:/Workspace/DAVE-4.4.2-64Bit/xmc1400-getstarted-optiga-trust-m/Libraries/XMCLib/inc\xmc_usic.h ****  */
 739:C:/Workspace/DAVE-4.4.2-64Bit/xmc1400-getstarted-optiga-trust-m/Libraries/XMCLib/inc\xmc_usic.h **** uint32_t XMC_USIC_CH_GetMCLKFrequency(XMC_USIC_CH_t *const channel);
 740:C:/Workspace/DAVE-4.4.2-64Bit/xmc1400-getstarted-optiga-trust-m/Libraries/XMCLib/inc\xmc_usic.h **** 
 741:C:/Workspace/DAVE-4.4.2-64Bit/xmc1400-getstarted-optiga-trust-m/Libraries/XMCLib/inc\xmc_usic.h **** /**
 742:C:/Workspace/DAVE-4.4.2-64Bit/xmc1400-getstarted-optiga-trust-m/Libraries/XMCLib/inc\xmc_usic.h ****  * @param  channel Pointer to USIC channel handler of type @ref XMC_USIC_CH_t \n
 743:C:/Workspace/DAVE-4.4.2-64Bit/xmc1400-getstarted-optiga-trust-m/Libraries/XMCLib/inc\xmc_usic.h ****  * 				   \b Range: @ref XMC_USIC0_CH0, @ref XMC_USIC0_CH1 to @ref XMC_USIC2_CH1 based on device su
 744:C:/Workspace/DAVE-4.4.2-64Bit/xmc1400-getstarted-optiga-trust-m/Libraries/XMCLib/inc\xmc_usic.h ****  * @param  pdiv Desired divider for the external frequency input. \b Range: minimum value = 1, maxi
 745:C:/Workspace/DAVE-4.4.2-64Bit/xmc1400-getstarted-optiga-trust-m/Libraries/XMCLib/inc\xmc_usic.h ****  * @param  oversampling Required oversampling. The value indicates the number of time quanta for on
 746:C:/Workspace/DAVE-4.4.2-64Bit/xmc1400-getstarted-optiga-trust-m/Libraries/XMCLib/inc\xmc_usic.h ****  * 						This can be related to the number of samples for each logic state of the data signal. \n
 747:C:/Workspace/DAVE-4.4.2-64Bit/xmc1400-getstarted-optiga-trust-m/Libraries/XMCLib/inc\xmc_usic.h ****  * 						\b Range: 1 to 32. Value should be chosen based on the protocol used.
 748:C:/Workspace/DAVE-4.4.2-64Bit/xmc1400-getstarted-optiga-trust-m/Libraries/XMCLib/inc\xmc_usic.h ****  * @param  combination_mode Selects which edge of the synchronized(and optionally filtered) signal 
 749:C:/Workspace/DAVE-4.4.2-64Bit/xmc1400-getstarted-optiga-trust-m/Libraries/XMCLib/inc\xmc_usic.h ****  *                          output DXnT of the input stage.
 750:C:/Workspace/DAVE-4.4.2-64Bit/xmc1400-getstarted-optiga-trust-m/Libraries/XMCLib/inc\xmc_usic.h ****  *
 751:C:/Workspace/DAVE-4.4.2-64Bit/xmc1400-getstarted-optiga-trust-m/Libraries/XMCLib/inc\xmc_usic.h ****  * @return None
 752:C:/Workspace/DAVE-4.4.2-64Bit/xmc1400-getstarted-optiga-trust-m/Libraries/XMCLib/inc\xmc_usic.h ****  *
 753:C:/Workspace/DAVE-4.4.2-64Bit/xmc1400-getstarted-optiga-trust-m/Libraries/XMCLib/inc\xmc_usic.h ****  * \par<b>Description</b><br>
 754:C:/Workspace/DAVE-4.4.2-64Bit/xmc1400-getstarted-optiga-trust-m/Libraries/XMCLib/inc\xmc_usic.h ****  * Enables the external frequency input for the Baudrate Generator and configures the divider, over
 755:C:/Workspace/DAVE-4.4.2-64Bit/xmc1400-getstarted-optiga-trust-m/Libraries/XMCLib/inc\xmc_usic.h ****  * the combination mode of the USIC channel. \n\n
 756:C:/Workspace/DAVE-4.4.2-64Bit/xmc1400-getstarted-optiga-trust-m/Libraries/XMCLib/inc\xmc_usic.h ****  *
 757:C:/Workspace/DAVE-4.4.2-64Bit/xmc1400-getstarted-optiga-trust-m/Libraries/XMCLib/inc\xmc_usic.h ****  * \par<b>Related APIs:</b><BR>
 758:C:/Workspace/DAVE-4.4.2-64Bit/xmc1400-getstarted-optiga-trust-m/Libraries/XMCLib/inc\xmc_usic.h ****  * XMC_USIC_CH_SetBRGInputClockSource(), XMC_USIC_CH_SetInputTriggerCombinationMode() \n\n\n
 759:C:/Workspace/DAVE-4.4.2-64Bit/xmc1400-getstarted-optiga-trust-m/Libraries/XMCLib/inc\xmc_usic.h ****  */
 760:C:/Workspace/DAVE-4.4.2-64Bit/xmc1400-getstarted-optiga-trust-m/Libraries/XMCLib/inc\xmc_usic.h **** void XMC_USIC_CH_ConfigExternalInputSignalToBRG(XMC_USIC_CH_t *const channel,
 761:C:/Workspace/DAVE-4.4.2-64Bit/xmc1400-getstarted-optiga-trust-m/Libraries/XMCLib/inc\xmc_usic.h **** 		                                         const uint16_t pdiv,
 762:C:/Workspace/DAVE-4.4.2-64Bit/xmc1400-getstarted-optiga-trust-m/Libraries/XMCLib/inc\xmc_usic.h **** 												 const uint32_t oversampling,
 763:C:/Workspace/DAVE-4.4.2-64Bit/xmc1400-getstarted-optiga-trust-m/Libraries/XMCLib/inc\xmc_usic.h **** 												 const XMC_USIC_CH_INPUT_COMBINATION_MODE_t combination_mode);
 764:C:/Workspace/DAVE-4.4.2-64Bit/xmc1400-getstarted-optiga-trust-m/Libraries/XMCLib/inc\xmc_usic.h **** 
 765:C:/Workspace/DAVE-4.4.2-64Bit/xmc1400-getstarted-optiga-trust-m/Libraries/XMCLib/inc\xmc_usic.h **** /**
 766:C:/Workspace/DAVE-4.4.2-64Bit/xmc1400-getstarted-optiga-trust-m/Libraries/XMCLib/inc\xmc_usic.h ****  * @param  channel Pointer to USIC channel handler of type @ref XMC_USIC_CH_t \n
 767:C:/Workspace/DAVE-4.4.2-64Bit/xmc1400-getstarted-optiga-trust-m/Libraries/XMCLib/inc\xmc_usic.h ****  * 				   \b Range: @ref XMC_USIC0_CH0, @ref XMC_USIC0_CH1 to @ref XMC_USIC2_CH1 based on device su
 768:C:/Workspace/DAVE-4.4.2-64Bit/xmc1400-getstarted-optiga-trust-m/Libraries/XMCLib/inc\xmc_usic.h ****  * @param  input USIC channel input stage of type @ref XMC_USIC_CH_INPUT_t. \n
 769:C:/Workspace/DAVE-4.4.2-64Bit/xmc1400-getstarted-optiga-trust-m/Libraries/XMCLib/inc\xmc_usic.h ****  * 				 \b Range: @ref XMC_USIC_CH_INPUT_DX0 to @ref XMC_USIC_CH_INPUT_DX5
 770:C:/Workspace/DAVE-4.4.2-64Bit/xmc1400-getstarted-optiga-trust-m/Libraries/XMCLib/inc\xmc_usic.h ****  * @param  source Input source select for the input stage. The table below maps the enum value with
 771:C:/Workspace/DAVE-4.4.2-64Bit/xmc1400-getstarted-optiga-trust-m/Libraries/XMCLib/inc\xmc_usic.h ****  * <table><tr><td>0</td><td>DXnA</td></tr><tr><td>1</td><td>DXnB</td></tr><tr><td>2</td><td>DXnC</t
 772:C:/Workspace/DAVE-4.4.2-64Bit/xmc1400-getstarted-optiga-trust-m/Libraries/XMCLib/inc\xmc_usic.h ****  * <tr><td>4</td><td>DXnE</td></tr><tr><td>5</td><td>DXnF</td></tr><tr><td>6</td><td>DXnG</td></tr>
 773:C:/Workspace/DAVE-4.4.2-64Bit/xmc1400-getstarted-optiga-trust-m/Libraries/XMCLib/inc\xmc_usic.h ****  * </tr></table>
 774:C:/Workspace/DAVE-4.4.2-64Bit/xmc1400-getstarted-optiga-trust-m/Libraries/XMCLib/inc\xmc_usic.h ****  * @return None
 775:C:/Workspace/DAVE-4.4.2-64Bit/xmc1400-getstarted-optiga-trust-m/Libraries/XMCLib/inc\xmc_usic.h ****  *
 776:C:/Workspace/DAVE-4.4.2-64Bit/xmc1400-getstarted-optiga-trust-m/Libraries/XMCLib/inc\xmc_usic.h ****  * \par<b>Description</b><br>
 777:C:/Workspace/DAVE-4.4.2-64Bit/xmc1400-getstarted-optiga-trust-m/Libraries/XMCLib/inc\xmc_usic.h ****  * Selects the data source for USIC input stage.\n\n
 778:C:/Workspace/DAVE-4.4.2-64Bit/xmc1400-getstarted-optiga-trust-m/Libraries/XMCLib/inc\xmc_usic.h ****  * Selects the input data signal source among DXnA, DXnB.. DXnG for the input stage. The API can be
 779:C:/Workspace/DAVE-4.4.2-64Bit/xmc1400-getstarted-optiga-trust-m/Libraries/XMCLib/inc\xmc_usic.h ****  * like DX0CR, DX1CR etc. 
 780:C:/Workspace/DAVE-4.4.2-64Bit/xmc1400-getstarted-optiga-trust-m/Libraries/XMCLib/inc\xmc_usic.h ****  *  
 781:C:/Workspace/DAVE-4.4.2-64Bit/xmc1400-getstarted-optiga-trust-m/Libraries/XMCLib/inc\xmc_usic.h ****  * \par<b>Related APIs:</b><BR>
 782:C:/Workspace/DAVE-4.4.2-64Bit/xmc1400-getstarted-optiga-trust-m/Libraries/XMCLib/inc\xmc_usic.h ****  * XMC_USIC_CH_EnableInputInversion(), XMC_USIC_CH_EnableInputDigitalFilter(), XMC_USIC_CH_EnableIn
 783:C:/Workspace/DAVE-4.4.2-64Bit/xmc1400-getstarted-optiga-trust-m/Libraries/XMCLib/inc\xmc_usic.h ****  * XMC_USIC_CH_SetInputSamplingFreq()\n\n\n
 784:C:/Workspace/DAVE-4.4.2-64Bit/xmc1400-getstarted-optiga-trust-m/Libraries/XMCLib/inc\xmc_usic.h ****  */
 785:C:/Workspace/DAVE-4.4.2-64Bit/xmc1400-getstarted-optiga-trust-m/Libraries/XMCLib/inc\xmc_usic.h **** __STATIC_INLINE void XMC_USIC_CH_SetInputSource(XMC_USIC_CH_t *const channel, const XMC_USIC_CH_INP
 786:C:/Workspace/DAVE-4.4.2-64Bit/xmc1400-getstarted-optiga-trust-m/Libraries/XMCLib/inc\xmc_usic.h **** {
 787:C:/Workspace/DAVE-4.4.2-64Bit/xmc1400-getstarted-optiga-trust-m/Libraries/XMCLib/inc\xmc_usic.h ****   channel->DXCR[input] = (uint32_t)((channel->DXCR[input] & (uint32_t)(~USIC_CH_DXCR_DSEL_Msk)) |
 788:C:/Workspace/DAVE-4.4.2-64Bit/xmc1400-getstarted-optiga-trust-m/Libraries/XMCLib/inc\xmc_usic.h ****                          ((uint32_t)source << USIC_CH_DXCR_DSEL_Pos));
 789:C:/Workspace/DAVE-4.4.2-64Bit/xmc1400-getstarted-optiga-trust-m/Libraries/XMCLib/inc\xmc_usic.h **** }
 790:C:/Workspace/DAVE-4.4.2-64Bit/xmc1400-getstarted-optiga-trust-m/Libraries/XMCLib/inc\xmc_usic.h **** /**
 791:C:/Workspace/DAVE-4.4.2-64Bit/xmc1400-getstarted-optiga-trust-m/Libraries/XMCLib/inc\xmc_usic.h ****  * @param  channel Pointer to USIC channel handler of type @ref XMC_USIC_CH_t \n
 792:C:/Workspace/DAVE-4.4.2-64Bit/xmc1400-getstarted-optiga-trust-m/Libraries/XMCLib/inc\xmc_usic.h ****  * 				   \b Range: @ref XMC_USIC0_CH0, @ref XMC_USIC0_CH1 to @ref XMC_USIC2_CH1 based on device su
 793:C:/Workspace/DAVE-4.4.2-64Bit/xmc1400-getstarted-optiga-trust-m/Libraries/XMCLib/inc\xmc_usic.h ****  * @param  input USIC channel input stage of type @ref XMC_USIC_CH_INPUT_t. \n
 794:C:/Workspace/DAVE-4.4.2-64Bit/xmc1400-getstarted-optiga-trust-m/Libraries/XMCLib/inc\xmc_usic.h ****  * 				 \b Range: @ref XMC_USIC_CH_INPUT_DX0 to @ref XMC_USIC_CH_INPUT_DX5
 795:C:/Workspace/DAVE-4.4.2-64Bit/xmc1400-getstarted-optiga-trust-m/Libraries/XMCLib/inc\xmc_usic.h ****  * @return None
 796:C:/Workspace/DAVE-4.4.2-64Bit/xmc1400-getstarted-optiga-trust-m/Libraries/XMCLib/inc\xmc_usic.h ****  *
 797:C:/Workspace/DAVE-4.4.2-64Bit/xmc1400-getstarted-optiga-trust-m/Libraries/XMCLib/inc\xmc_usic.h ****  * \par<b>Description</b><br>
 798:C:/Workspace/DAVE-4.4.2-64Bit/xmc1400-getstarted-optiga-trust-m/Libraries/XMCLib/inc\xmc_usic.h ****  * The input of the data shift unit is controlled by the
 799:C:/Workspace/DAVE-4.4.2-64Bit/xmc1400-getstarted-optiga-trust-m/Libraries/XMCLib/inc\xmc_usic.h ****  * protocol pre-processor. \n\n
 800:C:/Workspace/DAVE-4.4.2-64Bit/xmc1400-getstarted-optiga-trust-m/Libraries/XMCLib/inc\xmc_usic.h ****  *
 801:C:/Workspace/DAVE-4.4.2-64Bit/xmc1400-getstarted-optiga-trust-m/Libraries/XMCLib/inc\xmc_usic.h ****  * \par<b>Related APIs:</b><BR>
 802:C:/Workspace/DAVE-4.4.2-64Bit/xmc1400-getstarted-optiga-trust-m/Libraries/XMCLib/inc\xmc_usic.h ****  * XMC_USIC_CH_ConnectInputDataShiftToDataInput()\n\n\n
 803:C:/Workspace/DAVE-4.4.2-64Bit/xmc1400-getstarted-optiga-trust-m/Libraries/XMCLib/inc\xmc_usic.h ****  */
 804:C:/Workspace/DAVE-4.4.2-64Bit/xmc1400-getstarted-optiga-trust-m/Libraries/XMCLib/inc\xmc_usic.h **** __STATIC_INLINE void XMC_USIC_CH_ConnectInputDataShiftToPPP(XMC_USIC_CH_t *const channel, const XMC
 805:C:/Workspace/DAVE-4.4.2-64Bit/xmc1400-getstarted-optiga-trust-m/Libraries/XMCLib/inc\xmc_usic.h **** {
 806:C:/Workspace/DAVE-4.4.2-64Bit/xmc1400-getstarted-optiga-trust-m/Libraries/XMCLib/inc\xmc_usic.h ****   channel->DXCR[input] &=(uint32_t)~USIC_CH_DXCR_INSW_Msk;
 807:C:/Workspace/DAVE-4.4.2-64Bit/xmc1400-getstarted-optiga-trust-m/Libraries/XMCLib/inc\xmc_usic.h **** }
 808:C:/Workspace/DAVE-4.4.2-64Bit/xmc1400-getstarted-optiga-trust-m/Libraries/XMCLib/inc\xmc_usic.h **** 
 809:C:/Workspace/DAVE-4.4.2-64Bit/xmc1400-getstarted-optiga-trust-m/Libraries/XMCLib/inc\xmc_usic.h **** /**
 810:C:/Workspace/DAVE-4.4.2-64Bit/xmc1400-getstarted-optiga-trust-m/Libraries/XMCLib/inc\xmc_usic.h ****  * @param  channel Pointer to USIC channel handler of type @ref XMC_USIC_CH_t \n
 811:C:/Workspace/DAVE-4.4.2-64Bit/xmc1400-getstarted-optiga-trust-m/Libraries/XMCLib/inc\xmc_usic.h ****  * 				   \b Range: @ref XMC_USIC0_CH0, @ref XMC_USIC0_CH1 to @ref XMC_USIC2_CH1 based on device su
 812:C:/Workspace/DAVE-4.4.2-64Bit/xmc1400-getstarted-optiga-trust-m/Libraries/XMCLib/inc\xmc_usic.h ****  * @param  input USIC channel input stage of type @ref XMC_USIC_CH_INPUT_t. \n
 813:C:/Workspace/DAVE-4.4.2-64Bit/xmc1400-getstarted-optiga-trust-m/Libraries/XMCLib/inc\xmc_usic.h ****  * 				 \b Range: @ref XMC_USIC_CH_INPUT_DX0 to @ref XMC_USIC_CH_INPUT_DX5
 814:C:/Workspace/DAVE-4.4.2-64Bit/xmc1400-getstarted-optiga-trust-m/Libraries/XMCLib/inc\xmc_usic.h ****  * @return None
 815:C:/Workspace/DAVE-4.4.2-64Bit/xmc1400-getstarted-optiga-trust-m/Libraries/XMCLib/inc\xmc_usic.h ****  *
 816:C:/Workspace/DAVE-4.4.2-64Bit/xmc1400-getstarted-optiga-trust-m/Libraries/XMCLib/inc\xmc_usic.h ****  * \par<b>Description</b><br>
 817:C:/Workspace/DAVE-4.4.2-64Bit/xmc1400-getstarted-optiga-trust-m/Libraries/XMCLib/inc\xmc_usic.h ****  * The input of the data shift unit is connected to
 818:C:/Workspace/DAVE-4.4.2-64Bit/xmc1400-getstarted-optiga-trust-m/Libraries/XMCLib/inc\xmc_usic.h ****  * the selected data input line. \n\n
 819:C:/Workspace/DAVE-4.4.2-64Bit/xmc1400-getstarted-optiga-trust-m/Libraries/XMCLib/inc\xmc_usic.h ****  *
 820:C:/Workspace/DAVE-4.4.2-64Bit/xmc1400-getstarted-optiga-trust-m/Libraries/XMCLib/inc\xmc_usic.h ****  * This setting is used
 821:C:/Workspace/DAVE-4.4.2-64Bit/xmc1400-getstarted-optiga-trust-m/Libraries/XMCLib/inc\xmc_usic.h ****  * if the signals are directly derived from an input
 822:C:/Workspace/DAVE-4.4.2-64Bit/xmc1400-getstarted-optiga-trust-m/Libraries/XMCLib/inc\xmc_usic.h ****  * pin without treatment by the protocol preprocessor.
 823:C:/Workspace/DAVE-4.4.2-64Bit/xmc1400-getstarted-optiga-trust-m/Libraries/XMCLib/inc\xmc_usic.h ****  * \par<b>Related APIs:</b><BR>
 824:C:/Workspace/DAVE-4.4.2-64Bit/xmc1400-getstarted-optiga-trust-m/Libraries/XMCLib/inc\xmc_usic.h ****  * XMC_USIC_CH_ConnectInputDataShiftToPPP()\n\n\n
 825:C:/Workspace/DAVE-4.4.2-64Bit/xmc1400-getstarted-optiga-trust-m/Libraries/XMCLib/inc\xmc_usic.h ****  */
 826:C:/Workspace/DAVE-4.4.2-64Bit/xmc1400-getstarted-optiga-trust-m/Libraries/XMCLib/inc\xmc_usic.h **** __STATIC_INLINE void XMC_USIC_CH_ConnectInputDataShiftToDataInput(XMC_USIC_CH_t *const channel, con
 827:C:/Workspace/DAVE-4.4.2-64Bit/xmc1400-getstarted-optiga-trust-m/Libraries/XMCLib/inc\xmc_usic.h **** {
 828:C:/Workspace/DAVE-4.4.2-64Bit/xmc1400-getstarted-optiga-trust-m/Libraries/XMCLib/inc\xmc_usic.h ****   channel->DXCR[input] |= USIC_CH_DXCR_INSW_Msk;
 829:C:/Workspace/DAVE-4.4.2-64Bit/xmc1400-getstarted-optiga-trust-m/Libraries/XMCLib/inc\xmc_usic.h **** }
 830:C:/Workspace/DAVE-4.4.2-64Bit/xmc1400-getstarted-optiga-trust-m/Libraries/XMCLib/inc\xmc_usic.h **** 
 831:C:/Workspace/DAVE-4.4.2-64Bit/xmc1400-getstarted-optiga-trust-m/Libraries/XMCLib/inc\xmc_usic.h **** /**
 832:C:/Workspace/DAVE-4.4.2-64Bit/xmc1400-getstarted-optiga-trust-m/Libraries/XMCLib/inc\xmc_usic.h ****  * @param  channel Pointer to USIC channel handler of type @ref XMC_USIC_CH_t \n
 833:C:/Workspace/DAVE-4.4.2-64Bit/xmc1400-getstarted-optiga-trust-m/Libraries/XMCLib/inc\xmc_usic.h ****  * 				   \b Range: @ref XMC_USIC0_CH0, @ref XMC_USIC0_CH1 to @ref XMC_USIC2_CH1 based on device su
 834:C:/Workspace/DAVE-4.4.2-64Bit/xmc1400-getstarted-optiga-trust-m/Libraries/XMCLib/inc\xmc_usic.h ****  * @param  input USIC channel input stage of type @ref XMC_USIC_CH_INPUT_t. \n
 835:C:/Workspace/DAVE-4.4.2-64Bit/xmc1400-getstarted-optiga-trust-m/Libraries/XMCLib/inc\xmc_usic.h ****  * 				 \b Range: @ref XMC_USIC_CH_INPUT_DX0 to @ref XMC_USIC_CH_INPUT_DX5
 836:C:/Workspace/DAVE-4.4.2-64Bit/xmc1400-getstarted-optiga-trust-m/Libraries/XMCLib/inc\xmc_usic.h ****  * @return None
 837:C:/Workspace/DAVE-4.4.2-64Bit/xmc1400-getstarted-optiga-trust-m/Libraries/XMCLib/inc\xmc_usic.h ****  *
 838:C:/Workspace/DAVE-4.4.2-64Bit/xmc1400-getstarted-optiga-trust-m/Libraries/XMCLib/inc\xmc_usic.h ****  * \par<b>Description</b><br>
 839:C:/Workspace/DAVE-4.4.2-64Bit/xmc1400-getstarted-optiga-trust-m/Libraries/XMCLib/inc\xmc_usic.h ****  * Enables input inversion for USIC channel input data signal. \n\n
 840:C:/Workspace/DAVE-4.4.2-64Bit/xmc1400-getstarted-optiga-trust-m/Libraries/XMCLib/inc\xmc_usic.h ****  *
 841:C:/Workspace/DAVE-4.4.2-64Bit/xmc1400-getstarted-optiga-trust-m/Libraries/XMCLib/inc\xmc_usic.h ****  * Polarity of the input source can be changed to provide inverted data input.
 842:C:/Workspace/DAVE-4.4.2-64Bit/xmc1400-getstarted-optiga-trust-m/Libraries/XMCLib/inc\xmc_usic.h ****  * \par<b>Related APIs:</b><BR>
 843:C:/Workspace/DAVE-4.4.2-64Bit/xmc1400-getstarted-optiga-trust-m/Libraries/XMCLib/inc\xmc_usic.h ****  * XMC_USIC_CH_DisableInputInversion()\n\n\n
 844:C:/Workspace/DAVE-4.4.2-64Bit/xmc1400-getstarted-optiga-trust-m/Libraries/XMCLib/inc\xmc_usic.h ****  */
 845:C:/Workspace/DAVE-4.4.2-64Bit/xmc1400-getstarted-optiga-trust-m/Libraries/XMCLib/inc\xmc_usic.h **** __STATIC_INLINE void XMC_USIC_CH_EnableInputInversion(XMC_USIC_CH_t *const channel, const XMC_USIC_
 846:C:/Workspace/DAVE-4.4.2-64Bit/xmc1400-getstarted-optiga-trust-m/Libraries/XMCLib/inc\xmc_usic.h **** {
 847:C:/Workspace/DAVE-4.4.2-64Bit/xmc1400-getstarted-optiga-trust-m/Libraries/XMCLib/inc\xmc_usic.h ****   channel->DXCR[input] |= USIC_CH_DXCR_DPOL_Msk;
 848:C:/Workspace/DAVE-4.4.2-64Bit/xmc1400-getstarted-optiga-trust-m/Libraries/XMCLib/inc\xmc_usic.h **** }
 849:C:/Workspace/DAVE-4.4.2-64Bit/xmc1400-getstarted-optiga-trust-m/Libraries/XMCLib/inc\xmc_usic.h **** 
 850:C:/Workspace/DAVE-4.4.2-64Bit/xmc1400-getstarted-optiga-trust-m/Libraries/XMCLib/inc\xmc_usic.h **** /**
 851:C:/Workspace/DAVE-4.4.2-64Bit/xmc1400-getstarted-optiga-trust-m/Libraries/XMCLib/inc\xmc_usic.h ****  * @param  channel Pointer to USIC channel handler of type @ref XMC_USIC_CH_t \n
 852:C:/Workspace/DAVE-4.4.2-64Bit/xmc1400-getstarted-optiga-trust-m/Libraries/XMCLib/inc\xmc_usic.h ****  * 				   \b Range: @ref XMC_USIC0_CH0, @ref XMC_USIC0_CH1 to @ref XMC_USIC2_CH1 based on device su
 853:C:/Workspace/DAVE-4.4.2-64Bit/xmc1400-getstarted-optiga-trust-m/Libraries/XMCLib/inc\xmc_usic.h ****  * @param  input USIC channel input stage of type @ref XMC_USIC_CH_INPUT_t. \n
 854:C:/Workspace/DAVE-4.4.2-64Bit/xmc1400-getstarted-optiga-trust-m/Libraries/XMCLib/inc\xmc_usic.h ****  * 				 \b Range: @ref XMC_USIC_CH_INPUT_DX0 to @ref XMC_USIC_CH_INPUT_DX5
 855:C:/Workspace/DAVE-4.4.2-64Bit/xmc1400-getstarted-optiga-trust-m/Libraries/XMCLib/inc\xmc_usic.h ****  * @return None
 856:C:/Workspace/DAVE-4.4.2-64Bit/xmc1400-getstarted-optiga-trust-m/Libraries/XMCLib/inc\xmc_usic.h ****  *
 857:C:/Workspace/DAVE-4.4.2-64Bit/xmc1400-getstarted-optiga-trust-m/Libraries/XMCLib/inc\xmc_usic.h ****  * \par<b>Description</b><br>
 858:C:/Workspace/DAVE-4.4.2-64Bit/xmc1400-getstarted-optiga-trust-m/Libraries/XMCLib/inc\xmc_usic.h ****  * Disables input inversion for USIC channel. \n\n
 859:C:/Workspace/DAVE-4.4.2-64Bit/xmc1400-getstarted-optiga-trust-m/Libraries/XMCLib/inc\xmc_usic.h ****  *
 860:C:/Workspace/DAVE-4.4.2-64Bit/xmc1400-getstarted-optiga-trust-m/Libraries/XMCLib/inc\xmc_usic.h ****  * Resets the input data polarity for the USIC channel input data signal.
 861:C:/Workspace/DAVE-4.4.2-64Bit/xmc1400-getstarted-optiga-trust-m/Libraries/XMCLib/inc\xmc_usic.h ****  * \par<b>Related APIs:</b><BR>
 862:C:/Workspace/DAVE-4.4.2-64Bit/xmc1400-getstarted-optiga-trust-m/Libraries/XMCLib/inc\xmc_usic.h ****  * XMC_USIC_CH_EnableInputInversion()\n\n\n
 863:C:/Workspace/DAVE-4.4.2-64Bit/xmc1400-getstarted-optiga-trust-m/Libraries/XMCLib/inc\xmc_usic.h ****  */
 864:C:/Workspace/DAVE-4.4.2-64Bit/xmc1400-getstarted-optiga-trust-m/Libraries/XMCLib/inc\xmc_usic.h **** __STATIC_INLINE void XMC_USIC_CH_DisableInputInversion(XMC_USIC_CH_t *const channel, const XMC_USIC
 865:C:/Workspace/DAVE-4.4.2-64Bit/xmc1400-getstarted-optiga-trust-m/Libraries/XMCLib/inc\xmc_usic.h **** {
 866:C:/Workspace/DAVE-4.4.2-64Bit/xmc1400-getstarted-optiga-trust-m/Libraries/XMCLib/inc\xmc_usic.h ****   channel->DXCR[input] &=(uint32_t)~USIC_CH_DXCR_DPOL_Msk;
 867:C:/Workspace/DAVE-4.4.2-64Bit/xmc1400-getstarted-optiga-trust-m/Libraries/XMCLib/inc\xmc_usic.h **** }
 868:C:/Workspace/DAVE-4.4.2-64Bit/xmc1400-getstarted-optiga-trust-m/Libraries/XMCLib/inc\xmc_usic.h **** 
 869:C:/Workspace/DAVE-4.4.2-64Bit/xmc1400-getstarted-optiga-trust-m/Libraries/XMCLib/inc\xmc_usic.h **** /**
 870:C:/Workspace/DAVE-4.4.2-64Bit/xmc1400-getstarted-optiga-trust-m/Libraries/XMCLib/inc\xmc_usic.h ****  * @param  channel Pointer to USIC channel handler of type @ref XMC_USIC_CH_t \n
 871:C:/Workspace/DAVE-4.4.2-64Bit/xmc1400-getstarted-optiga-trust-m/Libraries/XMCLib/inc\xmc_usic.h ****  * 				   \b Range: @ref XMC_USIC0_CH0, @ref XMC_USIC0_CH1 to @ref XMC_USIC2_CH1 based on device su
 872:C:/Workspace/DAVE-4.4.2-64Bit/xmc1400-getstarted-optiga-trust-m/Libraries/XMCLib/inc\xmc_usic.h ****  * @return None
 873:C:/Workspace/DAVE-4.4.2-64Bit/xmc1400-getstarted-optiga-trust-m/Libraries/XMCLib/inc\xmc_usic.h ****  *
 874:C:/Workspace/DAVE-4.4.2-64Bit/xmc1400-getstarted-optiga-trust-m/Libraries/XMCLib/inc\xmc_usic.h ****  * \par<b>Description</b><br>
 875:C:/Workspace/DAVE-4.4.2-64Bit/xmc1400-getstarted-optiga-trust-m/Libraries/XMCLib/inc\xmc_usic.h ****  * Enables delay compensation. \n\n
 876:C:/Workspace/DAVE-4.4.2-64Bit/xmc1400-getstarted-optiga-trust-m/Libraries/XMCLib/inc\xmc_usic.h ****  *
 877:C:/Workspace/DAVE-4.4.2-64Bit/xmc1400-getstarted-optiga-trust-m/Libraries/XMCLib/inc\xmc_usic.h ****  * Delay compensation can be applied to the receive path.
 878:C:/Workspace/DAVE-4.4.2-64Bit/xmc1400-getstarted-optiga-trust-m/Libraries/XMCLib/inc\xmc_usic.h ****  * \par<b>Related APIs:</b><BR>
 879:C:/Workspace/DAVE-4.4.2-64Bit/xmc1400-getstarted-optiga-trust-m/Libraries/XMCLib/inc\xmc_usic.h ****  * XMC_USIC_CH_DisableDelayCompensation()\n\n\n
 880:C:/Workspace/DAVE-4.4.2-64Bit/xmc1400-getstarted-optiga-trust-m/Libraries/XMCLib/inc\xmc_usic.h ****  */
 881:C:/Workspace/DAVE-4.4.2-64Bit/xmc1400-getstarted-optiga-trust-m/Libraries/XMCLib/inc\xmc_usic.h **** __STATIC_INLINE void XMC_USIC_CH_EnableDelayCompensation(XMC_USIC_CH_t *const channel)
 882:C:/Workspace/DAVE-4.4.2-64Bit/xmc1400-getstarted-optiga-trust-m/Libraries/XMCLib/inc\xmc_usic.h **** {
 883:C:/Workspace/DAVE-4.4.2-64Bit/xmc1400-getstarted-optiga-trust-m/Libraries/XMCLib/inc\xmc_usic.h ****   channel->DXCR[1U] |= USIC_CH_DX1CR_DCEN_Msk;
 884:C:/Workspace/DAVE-4.4.2-64Bit/xmc1400-getstarted-optiga-trust-m/Libraries/XMCLib/inc\xmc_usic.h **** }
 885:C:/Workspace/DAVE-4.4.2-64Bit/xmc1400-getstarted-optiga-trust-m/Libraries/XMCLib/inc\xmc_usic.h **** 
 886:C:/Workspace/DAVE-4.4.2-64Bit/xmc1400-getstarted-optiga-trust-m/Libraries/XMCLib/inc\xmc_usic.h **** /**
 887:C:/Workspace/DAVE-4.4.2-64Bit/xmc1400-getstarted-optiga-trust-m/Libraries/XMCLib/inc\xmc_usic.h ****  * @param  channel Pointer to USIC channel handler of type @ref XMC_USIC_CH_t \n
 888:C:/Workspace/DAVE-4.4.2-64Bit/xmc1400-getstarted-optiga-trust-m/Libraries/XMCLib/inc\xmc_usic.h ****  * 				   \b Range: @ref XMC_USIC0_CH0, @ref XMC_USIC0_CH1 to @ref XMC_USIC2_CH1 based on device su
 889:C:/Workspace/DAVE-4.4.2-64Bit/xmc1400-getstarted-optiga-trust-m/Libraries/XMCLib/inc\xmc_usic.h ****  * @return None
 890:C:/Workspace/DAVE-4.4.2-64Bit/xmc1400-getstarted-optiga-trust-m/Libraries/XMCLib/inc\xmc_usic.h ****  *
 891:C:/Workspace/DAVE-4.4.2-64Bit/xmc1400-getstarted-optiga-trust-m/Libraries/XMCLib/inc\xmc_usic.h ****  * \par<b>Description</b><br>
 892:C:/Workspace/DAVE-4.4.2-64Bit/xmc1400-getstarted-optiga-trust-m/Libraries/XMCLib/inc\xmc_usic.h ****  * Disables delay compensation.. \n\n
 893:C:/Workspace/DAVE-4.4.2-64Bit/xmc1400-getstarted-optiga-trust-m/Libraries/XMCLib/inc\xmc_usic.h ****  *
 894:C:/Workspace/DAVE-4.4.2-64Bit/xmc1400-getstarted-optiga-trust-m/Libraries/XMCLib/inc\xmc_usic.h ****  * \par<b>Related APIs:</b><BR>
 895:C:/Workspace/DAVE-4.4.2-64Bit/xmc1400-getstarted-optiga-trust-m/Libraries/XMCLib/inc\xmc_usic.h ****  * XMC_USIC_CH_EnableDelayCompensation()\n\n\n
 896:C:/Workspace/DAVE-4.4.2-64Bit/xmc1400-getstarted-optiga-trust-m/Libraries/XMCLib/inc\xmc_usic.h ****  */
 897:C:/Workspace/DAVE-4.4.2-64Bit/xmc1400-getstarted-optiga-trust-m/Libraries/XMCLib/inc\xmc_usic.h **** __STATIC_INLINE void XMC_USIC_CH_DisableDelayCompensation(XMC_USIC_CH_t *const channel)
 898:C:/Workspace/DAVE-4.4.2-64Bit/xmc1400-getstarted-optiga-trust-m/Libraries/XMCLib/inc\xmc_usic.h **** {
 899:C:/Workspace/DAVE-4.4.2-64Bit/xmc1400-getstarted-optiga-trust-m/Libraries/XMCLib/inc\xmc_usic.h ****   channel->DXCR[1U] &=(uint32_t)~USIC_CH_DX1CR_DCEN_Msk;
 900:C:/Workspace/DAVE-4.4.2-64Bit/xmc1400-getstarted-optiga-trust-m/Libraries/XMCLib/inc\xmc_usic.h **** }
 901:C:/Workspace/DAVE-4.4.2-64Bit/xmc1400-getstarted-optiga-trust-m/Libraries/XMCLib/inc\xmc_usic.h **** 
 902:C:/Workspace/DAVE-4.4.2-64Bit/xmc1400-getstarted-optiga-trust-m/Libraries/XMCLib/inc\xmc_usic.h **** /**
 903:C:/Workspace/DAVE-4.4.2-64Bit/xmc1400-getstarted-optiga-trust-m/Libraries/XMCLib/inc\xmc_usic.h ****  * @param  channel Pointer to USIC channel handler of type @ref XMC_USIC_CH_t \n
 904:C:/Workspace/DAVE-4.4.2-64Bit/xmc1400-getstarted-optiga-trust-m/Libraries/XMCLib/inc\xmc_usic.h ****  * 				   \b Range: @ref XMC_USIC0_CH0, @ref XMC_USIC0_CH1 to @ref XMC_USIC2_CH1 based on device su
 905:C:/Workspace/DAVE-4.4.2-64Bit/xmc1400-getstarted-optiga-trust-m/Libraries/XMCLib/inc\xmc_usic.h ****  * @param  input USIC channel input stage of type @ref XMC_USIC_CH_INPUT_t. \n
 906:C:/Workspace/DAVE-4.4.2-64Bit/xmc1400-getstarted-optiga-trust-m/Libraries/XMCLib/inc\xmc_usic.h ****  * 				 \b Range: @ref XMC_USIC_CH_INPUT_DX0 to @ref XMC_USIC_CH_INPUT_DX5
 907:C:/Workspace/DAVE-4.4.2-64Bit/xmc1400-getstarted-optiga-trust-m/Libraries/XMCLib/inc\xmc_usic.h ****  * @return None
 908:C:/Workspace/DAVE-4.4.2-64Bit/xmc1400-getstarted-optiga-trust-m/Libraries/XMCLib/inc\xmc_usic.h ****  *
 909:C:/Workspace/DAVE-4.4.2-64Bit/xmc1400-getstarted-optiga-trust-m/Libraries/XMCLib/inc\xmc_usic.h ****  * \par<b>Description</b><br>
 910:C:/Workspace/DAVE-4.4.2-64Bit/xmc1400-getstarted-optiga-trust-m/Libraries/XMCLib/inc\xmc_usic.h ****  * Enables the input digital filter for USIC channel input data signal. \n\n
 911:C:/Workspace/DAVE-4.4.2-64Bit/xmc1400-getstarted-optiga-trust-m/Libraries/XMCLib/inc\xmc_usic.h ****  * Input data signal from the selected multiplexer will be digitally filtered.
 912:C:/Workspace/DAVE-4.4.2-64Bit/xmc1400-getstarted-optiga-trust-m/Libraries/XMCLib/inc\xmc_usic.h ****  *
 913:C:/Workspace/DAVE-4.4.2-64Bit/xmc1400-getstarted-optiga-trust-m/Libraries/XMCLib/inc\xmc_usic.h ****  * \par<b>Related APIs:</b><BR>
 914:C:/Workspace/DAVE-4.4.2-64Bit/xmc1400-getstarted-optiga-trust-m/Libraries/XMCLib/inc\xmc_usic.h ****  * XMC_USIC_CH_DisableInputDigitalFilter()\n\n\n
 915:C:/Workspace/DAVE-4.4.2-64Bit/xmc1400-getstarted-optiga-trust-m/Libraries/XMCLib/inc\xmc_usic.h ****  */
 916:C:/Workspace/DAVE-4.4.2-64Bit/xmc1400-getstarted-optiga-trust-m/Libraries/XMCLib/inc\xmc_usic.h **** __STATIC_INLINE void XMC_USIC_CH_EnableInputDigitalFilter(XMC_USIC_CH_t *const channel, const XMC_U
 917:C:/Workspace/DAVE-4.4.2-64Bit/xmc1400-getstarted-optiga-trust-m/Libraries/XMCLib/inc\xmc_usic.h **** {
 918:C:/Workspace/DAVE-4.4.2-64Bit/xmc1400-getstarted-optiga-trust-m/Libraries/XMCLib/inc\xmc_usic.h ****   channel->DXCR[input] |= (uint32_t)USIC_CH_DXCR_DFEN_Msk;
 919:C:/Workspace/DAVE-4.4.2-64Bit/xmc1400-getstarted-optiga-trust-m/Libraries/XMCLib/inc\xmc_usic.h **** }
 920:C:/Workspace/DAVE-4.4.2-64Bit/xmc1400-getstarted-optiga-trust-m/Libraries/XMCLib/inc\xmc_usic.h **** /**
 921:C:/Workspace/DAVE-4.4.2-64Bit/xmc1400-getstarted-optiga-trust-m/Libraries/XMCLib/inc\xmc_usic.h ****  * @param  channel Pointer to USIC channel handler of type @ref XMC_USIC_CH_t \n
 922:C:/Workspace/DAVE-4.4.2-64Bit/xmc1400-getstarted-optiga-trust-m/Libraries/XMCLib/inc\xmc_usic.h ****  * 				   \b Range: @ref XMC_USIC0_CH0, @ref XMC_USIC0_CH1 to @ref XMC_USIC2_CH1 based on device su
 923:C:/Workspace/DAVE-4.4.2-64Bit/xmc1400-getstarted-optiga-trust-m/Libraries/XMCLib/inc\xmc_usic.h ****  * @param  input USIC channel input stage of type @ref XMC_USIC_CH_INPUT_t. \n
 924:C:/Workspace/DAVE-4.4.2-64Bit/xmc1400-getstarted-optiga-trust-m/Libraries/XMCLib/inc\xmc_usic.h ****  * 				 \b Range: @ref XMC_USIC_CH_INPUT_DX0 to @ref XMC_USIC_CH_INPUT_DX5
 925:C:/Workspace/DAVE-4.4.2-64Bit/xmc1400-getstarted-optiga-trust-m/Libraries/XMCLib/inc\xmc_usic.h ****  * @return None
 926:C:/Workspace/DAVE-4.4.2-64Bit/xmc1400-getstarted-optiga-trust-m/Libraries/XMCLib/inc\xmc_usic.h ****  *
 927:C:/Workspace/DAVE-4.4.2-64Bit/xmc1400-getstarted-optiga-trust-m/Libraries/XMCLib/inc\xmc_usic.h ****  * \par<b>Description</b><br>
 928:C:/Workspace/DAVE-4.4.2-64Bit/xmc1400-getstarted-optiga-trust-m/Libraries/XMCLib/inc\xmc_usic.h ****  * Disables the input digital filter for USIC channel input data signal. \n\n
 929:C:/Workspace/DAVE-4.4.2-64Bit/xmc1400-getstarted-optiga-trust-m/Libraries/XMCLib/inc\xmc_usic.h ****  * Input data signal from the selected multiplexer will not be digitally filtered.
 930:C:/Workspace/DAVE-4.4.2-64Bit/xmc1400-getstarted-optiga-trust-m/Libraries/XMCLib/inc\xmc_usic.h ****  *
 931:C:/Workspace/DAVE-4.4.2-64Bit/xmc1400-getstarted-optiga-trust-m/Libraries/XMCLib/inc\xmc_usic.h ****  * \par<b>Related APIs:</b><BR>
 932:C:/Workspace/DAVE-4.4.2-64Bit/xmc1400-getstarted-optiga-trust-m/Libraries/XMCLib/inc\xmc_usic.h ****  * XMC_USIC_CH_EnableInputDigitalFilter()\n\n\n
 933:C:/Workspace/DAVE-4.4.2-64Bit/xmc1400-getstarted-optiga-trust-m/Libraries/XMCLib/inc\xmc_usic.h ****  */
 934:C:/Workspace/DAVE-4.4.2-64Bit/xmc1400-getstarted-optiga-trust-m/Libraries/XMCLib/inc\xmc_usic.h **** __STATIC_INLINE void XMC_USIC_CH_DisableInputDigitalFilter(XMC_USIC_CH_t *const channel, const XMC_
 935:C:/Workspace/DAVE-4.4.2-64Bit/xmc1400-getstarted-optiga-trust-m/Libraries/XMCLib/inc\xmc_usic.h **** {
 936:C:/Workspace/DAVE-4.4.2-64Bit/xmc1400-getstarted-optiga-trust-m/Libraries/XMCLib/inc\xmc_usic.h ****   channel->DXCR[input] &=(uint32_t)~USIC_CH_DXCR_DFEN_Msk;
 937:C:/Workspace/DAVE-4.4.2-64Bit/xmc1400-getstarted-optiga-trust-m/Libraries/XMCLib/inc\xmc_usic.h **** }
 938:C:/Workspace/DAVE-4.4.2-64Bit/xmc1400-getstarted-optiga-trust-m/Libraries/XMCLib/inc\xmc_usic.h **** /**
 939:C:/Workspace/DAVE-4.4.2-64Bit/xmc1400-getstarted-optiga-trust-m/Libraries/XMCLib/inc\xmc_usic.h ****  * @param  channel Pointer to USIC channel handler of type @ref XMC_USIC_CH_t \n
 940:C:/Workspace/DAVE-4.4.2-64Bit/xmc1400-getstarted-optiga-trust-m/Libraries/XMCLib/inc\xmc_usic.h ****  * 				   \b Range: @ref XMC_USIC0_CH0, @ref XMC_USIC0_CH1 to @ref XMC_USIC2_CH1 based on device su
 941:C:/Workspace/DAVE-4.4.2-64Bit/xmc1400-getstarted-optiga-trust-m/Libraries/XMCLib/inc\xmc_usic.h ****  * @param  input USIC channel input stage of type @ref XMC_USIC_CH_INPUT_t. \n
 942:C:/Workspace/DAVE-4.4.2-64Bit/xmc1400-getstarted-optiga-trust-m/Libraries/XMCLib/inc\xmc_usic.h ****  * 				 \b Range: @ref XMC_USIC_CH_INPUT_DX0 to @ref XMC_USIC_CH_INPUT_DX5
 943:C:/Workspace/DAVE-4.4.2-64Bit/xmc1400-getstarted-optiga-trust-m/Libraries/XMCLib/inc\xmc_usic.h ****  * @return None
 944:C:/Workspace/DAVE-4.4.2-64Bit/xmc1400-getstarted-optiga-trust-m/Libraries/XMCLib/inc\xmc_usic.h ****  *
 945:C:/Workspace/DAVE-4.4.2-64Bit/xmc1400-getstarted-optiga-trust-m/Libraries/XMCLib/inc\xmc_usic.h ****  * \par<b>Description</b><br>
 946:C:/Workspace/DAVE-4.4.2-64Bit/xmc1400-getstarted-optiga-trust-m/Libraries/XMCLib/inc\xmc_usic.h ****  * Enables input synchronization for the USIC channel input data signal. \n\n
 947:C:/Workspace/DAVE-4.4.2-64Bit/xmc1400-getstarted-optiga-trust-m/Libraries/XMCLib/inc\xmc_usic.h ****  * Input data signal from the selected multiplexer will be synchronized with fPERIPH.
 948:C:/Workspace/DAVE-4.4.2-64Bit/xmc1400-getstarted-optiga-trust-m/Libraries/XMCLib/inc\xmc_usic.h ****  * A noisy signal can be synchronized and filtered by enabling the digital filter.
 949:C:/Workspace/DAVE-4.4.2-64Bit/xmc1400-getstarted-optiga-trust-m/Libraries/XMCLib/inc\xmc_usic.h ****  *
 950:C:/Workspace/DAVE-4.4.2-64Bit/xmc1400-getstarted-optiga-trust-m/Libraries/XMCLib/inc\xmc_usic.h ****  * \par<b>Related APIs:</b><BR>
 951:C:/Workspace/DAVE-4.4.2-64Bit/xmc1400-getstarted-optiga-trust-m/Libraries/XMCLib/inc\xmc_usic.h ****  * XMC_USIC_CH_DisableInputSync(), XMC_USIC_CH_EnableInputDigitalFilter()\n\n\n
 952:C:/Workspace/DAVE-4.4.2-64Bit/xmc1400-getstarted-optiga-trust-m/Libraries/XMCLib/inc\xmc_usic.h ****  */
 953:C:/Workspace/DAVE-4.4.2-64Bit/xmc1400-getstarted-optiga-trust-m/Libraries/XMCLib/inc\xmc_usic.h **** __STATIC_INLINE void XMC_USIC_CH_EnableInputSync(XMC_USIC_CH_t *const channel, const XMC_USIC_CH_IN
 954:C:/Workspace/DAVE-4.4.2-64Bit/xmc1400-getstarted-optiga-trust-m/Libraries/XMCLib/inc\xmc_usic.h **** {
 955:C:/Workspace/DAVE-4.4.2-64Bit/xmc1400-getstarted-optiga-trust-m/Libraries/XMCLib/inc\xmc_usic.h ****   channel->DXCR[input] |=(uint32_t)USIC_CH_DXCR_DSEN_Msk;
 956:C:/Workspace/DAVE-4.4.2-64Bit/xmc1400-getstarted-optiga-trust-m/Libraries/XMCLib/inc\xmc_usic.h **** }
 957:C:/Workspace/DAVE-4.4.2-64Bit/xmc1400-getstarted-optiga-trust-m/Libraries/XMCLib/inc\xmc_usic.h **** /**
 958:C:/Workspace/DAVE-4.4.2-64Bit/xmc1400-getstarted-optiga-trust-m/Libraries/XMCLib/inc\xmc_usic.h ****  * @param  channel Pointer to USIC channel handler of type @ref XMC_USIC_CH_t \n
 959:C:/Workspace/DAVE-4.4.2-64Bit/xmc1400-getstarted-optiga-trust-m/Libraries/XMCLib/inc\xmc_usic.h ****  * 				   \b Range: @ref XMC_USIC0_CH0, @ref XMC_USIC0_CH1 to @ref XMC_USIC2_CH1 based on device su
 960:C:/Workspace/DAVE-4.4.2-64Bit/xmc1400-getstarted-optiga-trust-m/Libraries/XMCLib/inc\xmc_usic.h ****  * @param  input USIC channel input stage of type @ref XMC_USIC_CH_INPUT_t. \n
 961:C:/Workspace/DAVE-4.4.2-64Bit/xmc1400-getstarted-optiga-trust-m/Libraries/XMCLib/inc\xmc_usic.h ****  * 				 \b Range: @ref XMC_USIC_CH_INPUT_DX0 to @ref XMC_USIC_CH_INPUT_DX5
 962:C:/Workspace/DAVE-4.4.2-64Bit/xmc1400-getstarted-optiga-trust-m/Libraries/XMCLib/inc\xmc_usic.h ****  * @return None
 963:C:/Workspace/DAVE-4.4.2-64Bit/xmc1400-getstarted-optiga-trust-m/Libraries/XMCLib/inc\xmc_usic.h ****  *
 964:C:/Workspace/DAVE-4.4.2-64Bit/xmc1400-getstarted-optiga-trust-m/Libraries/XMCLib/inc\xmc_usic.h ****  * \par<b>Description</b><br>
 965:C:/Workspace/DAVE-4.4.2-64Bit/xmc1400-getstarted-optiga-trust-m/Libraries/XMCLib/inc\xmc_usic.h ****  * Disables input synchronization for the USIC channel input data signal. \n\n
 966:C:/Workspace/DAVE-4.4.2-64Bit/xmc1400-getstarted-optiga-trust-m/Libraries/XMCLib/inc\xmc_usic.h ****  * Input data signal from the selected multiplexer will not be synchronized.
 967:C:/Workspace/DAVE-4.4.2-64Bit/xmc1400-getstarted-optiga-trust-m/Libraries/XMCLib/inc\xmc_usic.h ****  *
 968:C:/Workspace/DAVE-4.4.2-64Bit/xmc1400-getstarted-optiga-trust-m/Libraries/XMCLib/inc\xmc_usic.h ****  * \par<b>Related APIs:</b><BR>
 969:C:/Workspace/DAVE-4.4.2-64Bit/xmc1400-getstarted-optiga-trust-m/Libraries/XMCLib/inc\xmc_usic.h ****  * XMC_USIC_CH_EnableInputSync(), XMC_USIC_CH_DisableInputDigitalFilter() \n\n\n
 970:C:/Workspace/DAVE-4.4.2-64Bit/xmc1400-getstarted-optiga-trust-m/Libraries/XMCLib/inc\xmc_usic.h ****  */
 971:C:/Workspace/DAVE-4.4.2-64Bit/xmc1400-getstarted-optiga-trust-m/Libraries/XMCLib/inc\xmc_usic.h **** __STATIC_INLINE void XMC_USIC_CH_DisableInputSync(XMC_USIC_CH_t *const channel, const XMC_USIC_CH_I
 972:C:/Workspace/DAVE-4.4.2-64Bit/xmc1400-getstarted-optiga-trust-m/Libraries/XMCLib/inc\xmc_usic.h **** {
 973:C:/Workspace/DAVE-4.4.2-64Bit/xmc1400-getstarted-optiga-trust-m/Libraries/XMCLib/inc\xmc_usic.h ****   channel->DXCR[input] &=(uint32_t)~USIC_CH_DXCR_DSEN_Msk;
 974:C:/Workspace/DAVE-4.4.2-64Bit/xmc1400-getstarted-optiga-trust-m/Libraries/XMCLib/inc\xmc_usic.h **** }
 975:C:/Workspace/DAVE-4.4.2-64Bit/xmc1400-getstarted-optiga-trust-m/Libraries/XMCLib/inc\xmc_usic.h **** /**
 976:C:/Workspace/DAVE-4.4.2-64Bit/xmc1400-getstarted-optiga-trust-m/Libraries/XMCLib/inc\xmc_usic.h ****  * @param  channel Pointer to USIC channel handler of type @ref XMC_USIC_CH_t \n
 977:C:/Workspace/DAVE-4.4.2-64Bit/xmc1400-getstarted-optiga-trust-m/Libraries/XMCLib/inc\xmc_usic.h ****  * 				   \b Range: @ref XMC_USIC0_CH0, @ref XMC_USIC0_CH1 to @ref XMC_USIC2_CH1 based on device su
 978:C:/Workspace/DAVE-4.4.2-64Bit/xmc1400-getstarted-optiga-trust-m/Libraries/XMCLib/inc\xmc_usic.h ****  * @param  input USIC channel input stage of type @ref XMC_USIC_CH_INPUT_t. \n
 979:C:/Workspace/DAVE-4.4.2-64Bit/xmc1400-getstarted-optiga-trust-m/Libraries/XMCLib/inc\xmc_usic.h ****  * 				 \b Range: @ref XMC_USIC_CH_INPUT_DX0 to @ref XMC_USIC_CH_INPUT_DX5
 980:C:/Workspace/DAVE-4.4.2-64Bit/xmc1400-getstarted-optiga-trust-m/Libraries/XMCLib/inc\xmc_usic.h ****  * @param  sampling_freq Sampling frequency value of type \a XMC_USIC_CH_INPUT_SAMPLING_FREQ_t.
 981:C:/Workspace/DAVE-4.4.2-64Bit/xmc1400-getstarted-optiga-trust-m/Libraries/XMCLib/inc\xmc_usic.h ****  * @return None
 982:C:/Workspace/DAVE-4.4.2-64Bit/xmc1400-getstarted-optiga-trust-m/Libraries/XMCLib/inc\xmc_usic.h ****  *
 983:C:/Workspace/DAVE-4.4.2-64Bit/xmc1400-getstarted-optiga-trust-m/Libraries/XMCLib/inc\xmc_usic.h ****  * \par<b>Description</b><br>
 984:C:/Workspace/DAVE-4.4.2-64Bit/xmc1400-getstarted-optiga-trust-m/Libraries/XMCLib/inc\xmc_usic.h ****  * Sets sampling frequency for USIC channel input data signal. \n\n
 985:C:/Workspace/DAVE-4.4.2-64Bit/xmc1400-getstarted-optiga-trust-m/Libraries/XMCLib/inc\xmc_usic.h ****  *
 986:C:/Workspace/DAVE-4.4.2-64Bit/xmc1400-getstarted-optiga-trust-m/Libraries/XMCLib/inc\xmc_usic.h ****  * \par<b>Related APIs:</b><BR>
 987:C:/Workspace/DAVE-4.4.2-64Bit/xmc1400-getstarted-optiga-trust-m/Libraries/XMCLib/inc\xmc_usic.h ****  * XMC_USIC_CH_SetInputSource(), XMC_USIC_CH_EnableInputSync(), XMC_USIC_CH_EnableInputDigitalFilte
 988:C:/Workspace/DAVE-4.4.2-64Bit/xmc1400-getstarted-optiga-trust-m/Libraries/XMCLib/inc\xmc_usic.h ****  */
 989:C:/Workspace/DAVE-4.4.2-64Bit/xmc1400-getstarted-optiga-trust-m/Libraries/XMCLib/inc\xmc_usic.h **** __STATIC_INLINE void XMC_USIC_CH_SetInputSamplingFreq(XMC_USIC_CH_t *const channel,
 990:C:/Workspace/DAVE-4.4.2-64Bit/xmc1400-getstarted-optiga-trust-m/Libraries/XMCLib/inc\xmc_usic.h **** 		                                              const XMC_USIC_CH_INPUT_t input,
 991:C:/Workspace/DAVE-4.4.2-64Bit/xmc1400-getstarted-optiga-trust-m/Libraries/XMCLib/inc\xmc_usic.h **** 		                                              const XMC_USIC_CH_INPUT_SAMPLING_FREQ_t sampling_fr
 992:C:/Workspace/DAVE-4.4.2-64Bit/xmc1400-getstarted-optiga-trust-m/Libraries/XMCLib/inc\xmc_usic.h **** {
 993:C:/Workspace/DAVE-4.4.2-64Bit/xmc1400-getstarted-optiga-trust-m/Libraries/XMCLib/inc\xmc_usic.h ****   channel->DXCR[input] = (uint32_t)(channel->DXCR[input] & (~USIC_CH_DXCR_SFSEL_Msk)) |
 994:C:/Workspace/DAVE-4.4.2-64Bit/xmc1400-getstarted-optiga-trust-m/Libraries/XMCLib/inc\xmc_usic.h ****                          ((uint32_t)sampling_freq);
 995:C:/Workspace/DAVE-4.4.2-64Bit/xmc1400-getstarted-optiga-trust-m/Libraries/XMCLib/inc\xmc_usic.h **** }
 996:C:/Workspace/DAVE-4.4.2-64Bit/xmc1400-getstarted-optiga-trust-m/Libraries/XMCLib/inc\xmc_usic.h **** 
 997:C:/Workspace/DAVE-4.4.2-64Bit/xmc1400-getstarted-optiga-trust-m/Libraries/XMCLib/inc\xmc_usic.h **** /**
 998:C:/Workspace/DAVE-4.4.2-64Bit/xmc1400-getstarted-optiga-trust-m/Libraries/XMCLib/inc\xmc_usic.h ****  * @param  channel Pointer to USIC channel handler of type @ref XMC_USIC_CH_t \n
 999:C:/Workspace/DAVE-4.4.2-64Bit/xmc1400-getstarted-optiga-trust-m/Libraries/XMCLib/inc\xmc_usic.h ****  * 				   \b Range: @ref XMC_USIC0_CH0, @ref XMC_USIC0_CH1 to @ref XMC_USIC2_CH1 based on device su
1000:C:/Workspace/DAVE-4.4.2-64Bit/xmc1400-getstarted-optiga-trust-m/Libraries/XMCLib/inc\xmc_usic.h ****  * @param  input USIC channel input stage of type @ref XMC_USIC_CH_INPUT_t. \n
1001:C:/Workspace/DAVE-4.4.2-64Bit/xmc1400-getstarted-optiga-trust-m/Libraries/XMCLib/inc\xmc_usic.h ****  * 				 \b Range: @ref XMC_USIC_CH_INPUT_DX0 to @ref XMC_USIC_CH_INPUT_DX5
1002:C:/Workspace/DAVE-4.4.2-64Bit/xmc1400-getstarted-optiga-trust-m/Libraries/XMCLib/inc\xmc_usic.h ****  * @param  combination_mode Combination mode value of type \a XMC_USIC_CH_INPUT_COMBINATION_MODE_t.
1003:C:/Workspace/DAVE-4.4.2-64Bit/xmc1400-getstarted-optiga-trust-m/Libraries/XMCLib/inc\xmc_usic.h ****  * @return None
1004:C:/Workspace/DAVE-4.4.2-64Bit/xmc1400-getstarted-optiga-trust-m/Libraries/XMCLib/inc\xmc_usic.h ****  *
1005:C:/Workspace/DAVE-4.4.2-64Bit/xmc1400-getstarted-optiga-trust-m/Libraries/XMCLib/inc\xmc_usic.h ****  * \par<b>Description</b><br>
1006:C:/Workspace/DAVE-4.4.2-64Bit/xmc1400-getstarted-optiga-trust-m/Libraries/XMCLib/inc\xmc_usic.h ****  * Selects which edge of the synchronized signal DXnS activates the trigger output DXnT of the inpu
1007:C:/Workspace/DAVE-4.4.2-64Bit/xmc1400-getstarted-optiga-trust-m/Libraries/XMCLib/inc\xmc_usic.h ****  *
1008:C:/Workspace/DAVE-4.4.2-64Bit/xmc1400-getstarted-optiga-trust-m/Libraries/XMCLib/inc\xmc_usic.h ****  * \par<b>Related APIs:</b><BR>
1009:C:/Workspace/DAVE-4.4.2-64Bit/xmc1400-getstarted-optiga-trust-m/Libraries/XMCLib/inc\xmc_usic.h ****  * XMC_USIC_CH_SetInputSource(), XMC_USIC_CH_EnableInputSync(), XMC_USIC_CH_EnableInputDigitalFilte
1010:C:/Workspace/DAVE-4.4.2-64Bit/xmc1400-getstarted-optiga-trust-m/Libraries/XMCLib/inc\xmc_usic.h ****  */
1011:C:/Workspace/DAVE-4.4.2-64Bit/xmc1400-getstarted-optiga-trust-m/Libraries/XMCLib/inc\xmc_usic.h **** __STATIC_INLINE void XMC_USIC_CH_SetInputTriggerCombinationMode(XMC_USIC_CH_t *const channel,
1012:C:/Workspace/DAVE-4.4.2-64Bit/xmc1400-getstarted-optiga-trust-m/Libraries/XMCLib/inc\xmc_usic.h **** 		                                                        const XMC_USIC_CH_INPUT_t input,
1013:C:/Workspace/DAVE-4.4.2-64Bit/xmc1400-getstarted-optiga-trust-m/Libraries/XMCLib/inc\xmc_usic.h **** 		                                                        const XMC_USIC_CH_INPUT_COMBINATION_MODE_
1014:C:/Workspace/DAVE-4.4.2-64Bit/xmc1400-getstarted-optiga-trust-m/Libraries/XMCLib/inc\xmc_usic.h **** {
1015:C:/Workspace/DAVE-4.4.2-64Bit/xmc1400-getstarted-optiga-trust-m/Libraries/XMCLib/inc\xmc_usic.h ****   channel->DXCR[input] = (uint32_t)(channel->DXCR[input] & (~USIC_CH_DXCR_CM_Msk)) |
1016:C:/Workspace/DAVE-4.4.2-64Bit/xmc1400-getstarted-optiga-trust-m/Libraries/XMCLib/inc\xmc_usic.h ****                          ((uint32_t)combination_mode << USIC_CH_DXCR_CM_Pos);
1017:C:/Workspace/DAVE-4.4.2-64Bit/xmc1400-getstarted-optiga-trust-m/Libraries/XMCLib/inc\xmc_usic.h **** }
1018:C:/Workspace/DAVE-4.4.2-64Bit/xmc1400-getstarted-optiga-trust-m/Libraries/XMCLib/inc\xmc_usic.h **** 
1019:C:/Workspace/DAVE-4.4.2-64Bit/xmc1400-getstarted-optiga-trust-m/Libraries/XMCLib/inc\xmc_usic.h **** /**
1020:C:/Workspace/DAVE-4.4.2-64Bit/xmc1400-getstarted-optiga-trust-m/Libraries/XMCLib/inc\xmc_usic.h ****  * @param  channel Pointer to USIC channel handler of type @ref XMC_USIC_CH_t \n
1021:C:/Workspace/DAVE-4.4.2-64Bit/xmc1400-getstarted-optiga-trust-m/Libraries/XMCLib/inc\xmc_usic.h ****  * 				   \b Range: @ref XMC_USIC0_CH0, @ref XMC_USIC0_CH1 to @ref XMC_USIC2_CH1 based on device su
1022:C:/Workspace/DAVE-4.4.2-64Bit/xmc1400-getstarted-optiga-trust-m/Libraries/XMCLib/inc\xmc_usic.h ****  * @param  clock_source clock source for the BRG.
1023:C:/Workspace/DAVE-4.4.2-64Bit/xmc1400-getstarted-optiga-trust-m/Libraries/XMCLib/inc\xmc_usic.h ****  * @return None
1024:C:/Workspace/DAVE-4.4.2-64Bit/xmc1400-getstarted-optiga-trust-m/Libraries/XMCLib/inc\xmc_usic.h ****  *
1025:C:/Workspace/DAVE-4.4.2-64Bit/xmc1400-getstarted-optiga-trust-m/Libraries/XMCLib/inc\xmc_usic.h ****  * \par<b>Description</b><br>
1026:C:/Workspace/DAVE-4.4.2-64Bit/xmc1400-getstarted-optiga-trust-m/Libraries/XMCLib/inc\xmc_usic.h ****  * Sets the clock source for the BRG. \n\n
1027:C:/Workspace/DAVE-4.4.2-64Bit/xmc1400-getstarted-optiga-trust-m/Libraries/XMCLib/inc\xmc_usic.h ****  *
1028:C:/Workspace/DAVE-4.4.2-64Bit/xmc1400-getstarted-optiga-trust-m/Libraries/XMCLib/inc\xmc_usic.h ****  * \par<b>Related APIs:</b><BR>
1029:C:/Workspace/DAVE-4.4.2-64Bit/xmc1400-getstarted-optiga-trust-m/Libraries/XMCLib/inc\xmc_usic.h ****  * XMC_USIC_CH_SetInputTriggerCombinationMode(), XMC_USIC_CH_SetExternalClockBRGDivider()\n\n\n
1030:C:/Workspace/DAVE-4.4.2-64Bit/xmc1400-getstarted-optiga-trust-m/Libraries/XMCLib/inc\xmc_usic.h ****  */
1031:C:/Workspace/DAVE-4.4.2-64Bit/xmc1400-getstarted-optiga-trust-m/Libraries/XMCLib/inc\xmc_usic.h **** __STATIC_INLINE void XMC_USIC_CH_SetBRGInputClockSource(XMC_USIC_CH_t *const channel, const XMC_USI
1032:C:/Workspace/DAVE-4.4.2-64Bit/xmc1400-getstarted-optiga-trust-m/Libraries/XMCLib/inc\xmc_usic.h **** {
1033:C:/Workspace/DAVE-4.4.2-64Bit/xmc1400-getstarted-optiga-trust-m/Libraries/XMCLib/inc\xmc_usic.h ****   channel->BRG = (uint32_t)(channel->BRG & (~USIC_CH_BRG_CLKSEL_Msk)) | (uint32_t)(clock_source);
 774              	 .loc 2 1033 0
 775 0002 0325     	 mov r5,#3
 776 0004 4469     	 ldr r4,[r0,#20]
 777              	.LBE7:
 778              	.LBE6:
 779              	.LBB9:
 780              	.LBB10:
1016:C:/Workspace/DAVE-4.4.2-64Bit/xmc1400-getstarted-optiga-trust-m/Libraries/XMCLib/inc\xmc_usic.h **** }
 781              	 .loc 2 1016 0
 782 0006 9B02     	 lsl r3,r3,#10
 783              	.LVL106:
 784              	.LBE10:
 785              	.LBE9:
 786              	.LBB13:
 787              	.LBB8:
 788              	 .loc 2 1033 0
 789 0008 AC43     	 bic r4,r5
 790 000a 013D     	 sub r5,r5,#1
 791 000c 2C43     	 orr r4,r5
 792 000e 4461     	 str r4,[r0,#20]
 793              	.LVL107:
 794              	.LBE8:
 795              	.LBE13:
 796              	.LBB14:
 797              	.LBB11:
1015:C:/Workspace/DAVE-4.4.2-64Bit/xmc1400-getstarted-optiga-trust-m/Libraries/XMCLib/inc\xmc_usic.h ****                          ((uint32_t)combination_mode << USIC_CH_DXCR_CM_Pos);
 798              	 .loc 2 1015 0
 799 0010 056A     	 ldr r5,[r0,#32]
 800 0012 084C     	 ldr r4,.L45
 801              	.LBE11:
 802              	.LBE14:
 357:../Libraries/XMCLib/src/xmc_usic.c **** }
 803              	 .loc 1 357 0
 804 0014 0139     	 sub r1,r1,#1
 805              	.LVL108:
 806              	.LBB15:
 807              	.LBB12:
1015:C:/Workspace/DAVE-4.4.2-64Bit/xmc1400-getstarted-optiga-trust-m/Libraries/XMCLib/inc\xmc_usic.h ****                          ((uint32_t)combination_mode << USIC_CH_DXCR_CM_Pos);
 808              	 .loc 2 1015 0
 809 0016 2C40     	 and r4,r5
 810 0018 2343     	 orr r3,r4
 811 001a 0362     	 str r3,[r0,#32]
 812              	.LBE12:
 813              	.LBE15:
 352:../Libraries/XMCLib/src/xmc_usic.c ****                                    USIC_CH_BRG_PDIV_Msk |
 814              	 .loc 1 352 0
 815 001c 4469     	 ldr r4,[r0,#20]
 356:../Libraries/XMCLib/src/xmc_usic.c ****                   (((pdiv) - 1U) << USIC_CH_BRG_PDIV_Pos);
 816              	 .loc 1 356 0
 817 001e 531E     	 sub r3,r2,#1
 352:../Libraries/XMCLib/src/xmc_usic.c ****                                    USIC_CH_BRG_PDIV_Msk |
 818              	 .loc 1 352 0
 819 0020 221C     	 mov r2,r4
 820              	.LVL109:
 356:../Libraries/XMCLib/src/xmc_usic.c ****                   (((pdiv) - 1U) << USIC_CH_BRG_PDIV_Pos);
 821              	 .loc 1 356 0
 822 0022 9B02     	 lsl r3,r3,#10
 823              	.LVL110:
 357:../Libraries/XMCLib/src/xmc_usic.c **** }
 824              	 .loc 1 357 0
 825 0024 0904     	 lsl r1,r1,#16
 826 0026 1943     	 orr r1,r3
 352:../Libraries/XMCLib/src/xmc_usic.c ****                                    USIC_CH_BRG_PDIV_Msk |
 827              	 .loc 1 352 0
 828 0028 034B     	 ldr r3,.L45+4
 358:../Libraries/XMCLib/src/xmc_usic.c **** 
 829              	 .loc 1 358 0
 830              	 
 352:../Libraries/XMCLib/src/xmc_usic.c ****                                    USIC_CH_BRG_PDIV_Msk |
 831              	 .loc 1 352 0
 832 002a 1A40     	 and r2,r3
 356:../Libraries/XMCLib/src/xmc_usic.c ****                   (((pdiv) - 1U) << USIC_CH_BRG_PDIV_Pos);
 833              	 .loc 1 356 0
 834 002c 1143     	 orr r1,r2
 352:../Libraries/XMCLib/src/xmc_usic.c ****                                    USIC_CH_BRG_PDIV_Msk |
 835              	 .loc 1 352 0
 836 002e 4161     	 str r1,[r0,#20]
 358:../Libraries/XMCLib/src/xmc_usic.c **** 
 837              	 .loc 1 358 0
 838 0030 30BD     	 pop {r4,r5,pc}
 839              	.L46:
 840 0032 C046     	 .align 2
 841              	.L45:
 842 0034 FFF3FFFF 	 .word -3073
 843 0038 EF8000FC 	 .word -67075857
 844              	 .cfi_endproc
 845              	.LFE135:
 847              	 .section .text.XMC_USIC_CH_TXFIFO_Configure,"ax",%progbits
 848              	 .align 1
 849              	 .global XMC_USIC_CH_TXFIFO_Configure
 850              	 .code 16
 851              	 .thumb_func
 853              	XMC_USIC_CH_TXFIFO_Configure:
 854              	.LFB136:
 364:../Libraries/XMCLib/src/xmc_usic.c ****   /* Disable FIFO */
 855              	 .loc 1 364 0
 856              	 .cfi_startproc
 857              	.LVL111:
 366:../Libraries/XMCLib/src/xmc_usic.c **** 
 858              	 .loc 1 366 0
 859 0000 FC30     	 add r0,r0,#252
 860              	.LVL112:
 364:../Libraries/XMCLib/src/xmc_usic.c ****   /* Disable FIFO */
 861              	 .loc 1 364 0
 862 0002 30B5     	 push {r4,r5,lr}
 863              	.LCFI9:
 864              	 .cfi_def_cfa_offset 12
 865              	 .cfi_offset 4,-12
 866              	 .cfi_offset 5,-8
 867              	 .cfi_offset 14,-4
 366:../Libraries/XMCLib/src/xmc_usic.c **** 
 868              	 .loc 1 366 0
 869 0004 C568     	 ldr r5,[r0,#12]
 870 0006 064C     	 ldr r4,.L48
 378:../Libraries/XMCLib/src/xmc_usic.c **** }
 871              	 .loc 1 378 0
 872 0008 1206     	 lsl r2,r2,#24
 873              	.LVL113:
 366:../Libraries/XMCLib/src/xmc_usic.c **** 
 874              	 .loc 1 366 0
 875 000a 2C40     	 and r4,r5
 876 000c C460     	 str r4,[r0,#12]
 373:../Libraries/XMCLib/src/xmc_usic.c ****                                                            USIC_CH_TBCTR_DPTR_Msk |
 877              	 .loc 1 373 0
 878 000e C568     	 ldr r5,[r0,#12]
 879 0010 044C     	 ldr r4,.L48+4
 376:../Libraries/XMCLib/src/xmc_usic.c ****                    (data_pointer << USIC_CH_TBCTR_DPTR_Pos) |
 880              	 .loc 1 376 0
 881 0012 1B02     	 lsl r3,r3,#8
 882              	.LVL114:
 373:../Libraries/XMCLib/src/xmc_usic.c ****                                                            USIC_CH_TBCTR_DPTR_Msk |
 883              	 .loc 1 373 0
 884 0014 2C40     	 and r4,r5
 885 0016 2143     	 orr r1,r4
 886              	.LVL115:
 887 0018 0A43     	 orr r2,r1
 375:../Libraries/XMCLib/src/xmc_usic.c ****                    (uint32_t)((limit << USIC_CH_TBCTR_LIMIT_Pos) |
 888              	 .loc 1 375 0
 889 001a 1343     	 orr r3,r2
 373:../Libraries/XMCLib/src/xmc_usic.c ****                                                            USIC_CH_TBCTR_DPTR_Msk |
 890              	 .loc 1 373 0
 891 001c C360     	 str r3,[r0,#12]
 379:../Libraries/XMCLib/src/xmc_usic.c **** 
 892              	 .loc 1 379 0
 893              	 
 894 001e 30BD     	 pop {r4,r5,pc}
 895              	.L49:
 896              	 .align 2
 897              	.L48:
 898 0020 FFFFFFF8 	 .word -117440513
 899 0024 C0C0FFF8 	 .word -117456704
 900              	 .cfi_endproc
 901              	.LFE136:
 903              	 .section .text.XMC_USIC_CH_RXFIFO_Configure,"ax",%progbits
 904              	 .align 1
 905              	 .global XMC_USIC_CH_RXFIFO_Configure
 906              	 .code 16
 907              	 .thumb_func
 909              	XMC_USIC_CH_RXFIFO_Configure:
 910              	.LFB137:
 386:../Libraries/XMCLib/src/xmc_usic.c ****   /* Disable FIFO */
 911              	 .loc 1 386 0
 912              	 .cfi_startproc
 913              	.LVL116:
 388:../Libraries/XMCLib/src/xmc_usic.c **** 
 914              	 .loc 1 388 0
 915 0000 FC30     	 add r0,r0,#252
 916              	.LVL117:
 386:../Libraries/XMCLib/src/xmc_usic.c ****   /* Disable FIFO */
 917              	 .loc 1 386 0
 918 0002 30B5     	 push {r4,r5,lr}
 919              	.LCFI10:
 920              	 .cfi_def_cfa_offset 12
 921              	 .cfi_offset 4,-12
 922              	 .cfi_offset 5,-8
 923              	 .cfi_offset 14,-4
 388:../Libraries/XMCLib/src/xmc_usic.c **** 
 924              	 .loc 1 388 0
 925 0004 0569     	 ldr r5,[r0,#16]
 926 0006 084C     	 ldr r4,.L51
 398:../Libraries/XMCLib/src/xmc_usic.c ****                    (uint32_t)USIC_CH_RBCTR_LOF_Msk));
 927              	 .loc 1 398 0
 928 0008 1206     	 lsl r2,r2,#24
 929              	.LVL118:
 388:../Libraries/XMCLib/src/xmc_usic.c **** 
 930              	 .loc 1 388 0
 931 000a 2C40     	 and r4,r5
 932 000c 0461     	 str r4,[r0,#16]
 393:../Libraries/XMCLib/src/xmc_usic.c ****                                                             USIC_CH_RBCTR_DPTR_Msk |
 933              	 .loc 1 393 0
 934 000e 0469     	 ldr r4,[r0,#16]
 935 0010 064D     	 ldr r5,.L51+4
 396:../Libraries/XMCLib/src/xmc_usic.c ****                    (data_pointer << USIC_CH_RBCTR_DPTR_Pos) |
 936              	 .loc 1 396 0
 937 0012 1B02     	 lsl r3,r3,#8
 938              	.LVL119:
 393:../Libraries/XMCLib/src/xmc_usic.c ****                                                             USIC_CH_RBCTR_DPTR_Msk |
 939              	 .loc 1 393 0
 940 0014 2540     	 and r5,r4
 941 0016 8024     	 mov r4,#128
 942 0018 6405     	 lsl r4,r4,#21
 943 001a 2C43     	 orr r4,r5
 944 001c 2143     	 orr r1,r4
 945              	.LVL120:
 946 001e 0A43     	 orr r2,r1
 947 0020 1343     	 orr r3,r2
 948 0022 0361     	 str r3,[r0,#16]
 400:../Libraries/XMCLib/src/xmc_usic.c **** 
 949              	 .loc 1 400 0
 950              	 
 951 0024 30BD     	 pop {r4,r5,pc}
 952              	.L52:
 953 0026 C046     	 .align 2
 954              	.L51:
 955 0028 FFFFFFF8 	 .word -117440513
 956 002c C0C0FFEF 	 .word -268451648
 957              	 .cfi_endproc
 958              	.LFE137:
 960              	 .section .text.XMC_USIC_CH_TXFIFO_SetSizeTriggerLimit,"ax",%progbits
 961              	 .align 1
 962              	 .global XMC_USIC_CH_TXFIFO_SetSizeTriggerLimit
 963              	 .code 16
 964              	 .thumb_func
 966              	XMC_USIC_CH_TXFIFO_SetSizeTriggerLimit:
 967              	.LFB138:
 405:../Libraries/XMCLib/src/xmc_usic.c ****   /* Disable FIFO */
 968              	 .loc 1 405 0
 969              	 .cfi_startproc
 970              	.LVL121:
 413:../Libraries/XMCLib/src/xmc_usic.c ****                    ((uint32_t)size << USIC_CH_TBCTR_SIZE_Pos));
 971              	 .loc 1 413 0
 972 0000 1202     	 lsl r2,r2,#8
 973              	.LVL122:
 414:../Libraries/XMCLib/src/xmc_usic.c **** }
 974              	 .loc 1 414 0
 975 0002 0906     	 lsl r1,r1,#24
 976              	.LVL123:
 977 0004 1143     	 orr r1,r2
 412:../Libraries/XMCLib/src/xmc_usic.c ****                    (limit << USIC_CH_TBCTR_LIMIT_Pos) |
 978              	 .loc 1 412 0
 979 0006 0A1C     	 mov r2,r1
 407:../Libraries/XMCLib/src/xmc_usic.c **** 
 980              	 .loc 1 407 0
 981 0008 FC30     	 add r0,r0,#252
 982              	.LVL124:
 405:../Libraries/XMCLib/src/xmc_usic.c ****   /* Disable FIFO */
 983              	 .loc 1 405 0
 984 000a 10B5     	 push {r4,lr}
 985              	.LCFI11:
 986              	 .cfi_def_cfa_offset 8
 987              	 .cfi_offset 4,-8
 988              	 .cfi_offset 14,-4
 407:../Libraries/XMCLib/src/xmc_usic.c **** 
 989              	 .loc 1 407 0
 990 000c 044B     	 ldr r3,.L54
 991 000e C468     	 ldr r4,[r0,#12]
 415:../Libraries/XMCLib/src/xmc_usic.c **** 
 992              	 .loc 1 415 0
 993              	 
 407:../Libraries/XMCLib/src/xmc_usic.c **** 
 994              	 .loc 1 407 0
 995 0010 2340     	 and r3,r4
 996 0012 C360     	 str r3,[r0,#12]
 412:../Libraries/XMCLib/src/xmc_usic.c ****                    (limit << USIC_CH_TBCTR_LIMIT_Pos) |
 997              	 .loc 1 412 0
 998 0014 C468     	 ldr r4,[r0,#12]
 999 0016 034B     	 ldr r3,.L54+4
 1000 0018 2340     	 and r3,r4
 1001 001a 1A43     	 orr r2,r3
 1002 001c C260     	 str r2,[r0,#12]
 415:../Libraries/XMCLib/src/xmc_usic.c **** 
 1003              	 .loc 1 415 0
 1004 001e 10BD     	 pop {r4,pc}
 1005              	.L55:
 1006              	 .align 2
 1007              	.L54:
 1008 0020 FFFFFFF8 	 .word -117440513
 1009 0024 FFC0FFFF 	 .word -16129
 1010              	 .cfi_endproc
 1011              	.LFE138:
 1013              	 .section .text.XMC_USIC_CH_RXFIFO_SetSizeTriggerLimit,"ax",%progbits
 1014              	 .align 1
 1015              	 .global XMC_USIC_CH_RXFIFO_SetSizeTriggerLimit
 1016              	 .code 16
 1017              	 .thumb_func
 1019              	XMC_USIC_CH_RXFIFO_SetSizeTriggerLimit:
 1020              	.LFB139:
 420:../Libraries/XMCLib/src/xmc_usic.c ****   /* Disable FIFO */
 1021              	 .loc 1 420 0
 1022              	 .cfi_startproc
 1023              	.LVL125:
 425:../Libraries/XMCLib/src/xmc_usic.c ****                    ((uint32_t)size << USIC_CH_RBCTR_SIZE_Pos));
 1024              	 .loc 1 425 0
 1025 0000 1202     	 lsl r2,r2,#8
 1026              	.LVL126:
 426:../Libraries/XMCLib/src/xmc_usic.c **** }
 1027              	 .loc 1 426 0
 1028 0002 0906     	 lsl r1,r1,#24
 1029              	.LVL127:
 1030 0004 1143     	 orr r1,r2
 424:../Libraries/XMCLib/src/xmc_usic.c ****                    (limit << USIC_CH_RBCTR_LIMIT_Pos) |
 1031              	 .loc 1 424 0
 1032 0006 0A1C     	 mov r2,r1
 422:../Libraries/XMCLib/src/xmc_usic.c **** 
 1033              	 .loc 1 422 0
 1034 0008 FC30     	 add r0,r0,#252
 1035              	.LVL128:
 420:../Libraries/XMCLib/src/xmc_usic.c ****   /* Disable FIFO */
 1036              	 .loc 1 420 0
 1037 000a 10B5     	 push {r4,lr}
 1038              	.LCFI12:
 1039              	 .cfi_def_cfa_offset 8
 1040              	 .cfi_offset 4,-8
 1041              	 .cfi_offset 14,-4
 422:../Libraries/XMCLib/src/xmc_usic.c **** 
 1042              	 .loc 1 422 0
 1043 000c 044B     	 ldr r3,.L57
 1044 000e 0469     	 ldr r4,[r0,#16]
 427:../Libraries/XMCLib/src/xmc_usic.c **** 
 1045              	 .loc 1 427 0
 1046              	 
 422:../Libraries/XMCLib/src/xmc_usic.c **** 
 1047              	 .loc 1 422 0
 1048 0010 2340     	 and r3,r4
 1049 0012 0361     	 str r3,[r0,#16]
 424:../Libraries/XMCLib/src/xmc_usic.c ****                    (limit << USIC_CH_RBCTR_LIMIT_Pos) |
 1050              	 .loc 1 424 0
 1051 0014 0469     	 ldr r4,[r0,#16]
 1052 0016 034B     	 ldr r3,.L57+4
 1053 0018 2340     	 and r3,r4
 1054 001a 1A43     	 orr r2,r3
 1055 001c 0261     	 str r2,[r0,#16]
 427:../Libraries/XMCLib/src/xmc_usic.c **** 
 1056              	 .loc 1 427 0
 1057 001e 10BD     	 pop {r4,pc}
 1058              	.L58:
 1059              	 .align 2
 1060              	.L57:
 1061 0020 FFFFFFF8 	 .word -117440513
 1062 0024 FFC0FFFF 	 .word -16129
 1063              	 .cfi_endproc
 1064              	.LFE139:
 1066              	 .section .text.XMC_USIC_CH_SetInterruptNodePointer,"ax",%progbits
 1067              	 .align 1
 1068              	 .global XMC_USIC_CH_SetInterruptNodePointer
 1069              	 .code 16
 1070              	 .thumb_func
 1072              	XMC_USIC_CH_SetInterruptNodePointer:
 1073              	.LFB140:
 432:../Libraries/XMCLib/src/xmc_usic.c ****   channel->INPR = (uint32_t)((channel->INPR & (~(uint32_t)(USIC_CH_INPR_Msk << (uint32_t)interrupt_
 1074              	 .loc 1 432 0
 1075              	 .cfi_startproc
 1076              	.LVL129:
 1077 0000 10B5     	 push {r4,lr}
 1078              	.LCFI13:
 1079              	 .cfi_def_cfa_offset 8
 1080              	 .cfi_offset 4,-8
 1081              	 .cfi_offset 14,-4
 433:../Libraries/XMCLib/src/xmc_usic.c ****                   (service_request << (uint32_t)interrupt_node));
 1082              	 .loc 1 433 0
 1083 0002 0724     	 mov r4,#7
 1084 0004 8C40     	 lsl r4,r4,r1
 434:../Libraries/XMCLib/src/xmc_usic.c **** }
 1085              	 .loc 1 434 0
 1086 0006 8A40     	 lsl r2,r2,r1
 1087              	.LVL130:
 433:../Libraries/XMCLib/src/xmc_usic.c ****                   (service_request << (uint32_t)interrupt_node));
 1088              	 .loc 1 433 0
 1089 0008 8369     	 ldr r3,[r0,#24]
 435:../Libraries/XMCLib/src/xmc_usic.c **** 
 1090              	 .loc 1 435 0
 1091              	 
 433:../Libraries/XMCLib/src/xmc_usic.c ****                   (service_request << (uint32_t)interrupt_node));
 1092              	 .loc 1 433 0
 1093 000a A343     	 bic r3,r4
 1094 000c 1343     	 orr r3,r2
 1095 000e 8361     	 str r3,[r0,#24]
 435:../Libraries/XMCLib/src/xmc_usic.c **** 
 1096              	 .loc 1 435 0
 1097 0010 10BD     	 pop {r4,pc}
 1098              	 .cfi_endproc
 1099              	.LFE140:
 1101              	 .section .text.XMC_USIC_CH_TXFIFO_SetInterruptNodePointer,"ax",%progbits
 1102              	 .align 1
 1103              	 .global XMC_USIC_CH_TXFIFO_SetInterruptNodePointer
 1104              	 .code 16
 1105              	 .thumb_func
 1107              	XMC_USIC_CH_TXFIFO_SetInterruptNodePointer:
 1108              	.LFB141:
 440:../Libraries/XMCLib/src/xmc_usic.c ****   channel->TBCTR = (uint32_t)((channel->TBCTR & (~(uint32_t)(USIC_CH_INPR_Msk << (uint32_t)interrup
 1109              	 .loc 1 440 0
 1110              	 .cfi_startproc
 1111              	.LVL131:
 1112 0000 10B5     	 push {r4,lr}
 1113              	.LCFI14:
 1114              	 .cfi_def_cfa_offset 8
 1115              	 .cfi_offset 4,-8
 1116              	 .cfi_offset 14,-4
 441:../Libraries/XMCLib/src/xmc_usic.c ****                    (service_request << (uint32_t)interrupt_node));
 1117              	 .loc 1 441 0
 1118 0002 0724     	 mov r4,#7
 1119 0004 8C40     	 lsl r4,r4,r1
 442:../Libraries/XMCLib/src/xmc_usic.c **** }
 1120              	 .loc 1 442 0
 1121 0006 8A40     	 lsl r2,r2,r1
 1122              	.LVL132:
 441:../Libraries/XMCLib/src/xmc_usic.c ****                    (service_request << (uint32_t)interrupt_node));
 1123              	 .loc 1 441 0
 1124 0008 FC30     	 add r0,r0,#252
 1125              	.LVL133:
 1126 000a C368     	 ldr r3,[r0,#12]
 443:../Libraries/XMCLib/src/xmc_usic.c **** 
 1127              	 .loc 1 443 0
 1128              	 
 441:../Libraries/XMCLib/src/xmc_usic.c ****                    (service_request << (uint32_t)interrupt_node));
 1129              	 .loc 1 441 0
 1130 000c A343     	 bic r3,r4
 1131 000e 1343     	 orr r3,r2
 1132 0010 C360     	 str r3,[r0,#12]
