   1              	 .cpu cortex-m0
   2              	 .fpu softvfp
   3              	 .eabi_attribute 20,1
   4              	 .eabi_attribute 21,1
   5              	 .eabi_attribute 23,3
   6              	 .eabi_attribute 24,1
   7              	 .eabi_attribute 25,1
   8              	 .eabi_attribute 26,1
   9              	 .eabi_attribute 30,4
  10              	 .eabi_attribute 34,0
  11              	 .eabi_attribute 18,4
  12              	 .code 16
  13              	 .file "xmc_prng.c"
  14              	 .text
  15              	.Ltext0:
  16              	 .cfi_sections .debug_frame
  17              	 .section .text.XMC_PRNG_Init,"ax",%progbits
  18              	 .align 1
  19              	 .global XMC_PRNG_Init
  20              	 .code 16
  21              	 .thumb_func
  23              	XMC_PRNG_Init:
  24              	.LFB53:
  25              	 .file 1 "../Libraries/XMCLib/src/xmc_prng.c"
   1:../Libraries/XMCLib/src/xmc_prng.c **** 
   2:../Libraries/XMCLib/src/xmc_prng.c **** /**
   3:../Libraries/XMCLib/src/xmc_prng.c ****  * @file xmc_prng.c
   4:../Libraries/XMCLib/src/xmc_prng.c ****  * @date 2015-06-20
   5:../Libraries/XMCLib/src/xmc_prng.c ****  *
   6:../Libraries/XMCLib/src/xmc_prng.c ****  * @cond
   7:../Libraries/XMCLib/src/xmc_prng.c ****  **************************************************************************************************
   8:../Libraries/XMCLib/src/xmc_prng.c ****  * XMClib v2.1.24 - XMC Peripheral Driver Library 
   9:../Libraries/XMCLib/src/xmc_prng.c ****  *
  10:../Libraries/XMCLib/src/xmc_prng.c ****  * Copyright (c) 2015-2019, Infineon Technologies AG
  11:../Libraries/XMCLib/src/xmc_prng.c ****  * All rights reserved.                        
  12:../Libraries/XMCLib/src/xmc_prng.c ****  *                                             
  13:../Libraries/XMCLib/src/xmc_prng.c ****  * Redistribution and use in source and binary forms, with or without modification,are permitted pr
  14:../Libraries/XMCLib/src/xmc_prng.c ****  * following conditions are met:   
  15:../Libraries/XMCLib/src/xmc_prng.c ****  *                                                                              
  16:../Libraries/XMCLib/src/xmc_prng.c ****  * Redistributions of source code must retain the above copyright notice, this list of conditions a
  17:../Libraries/XMCLib/src/xmc_prng.c ****  * disclaimer.                        
  18:../Libraries/XMCLib/src/xmc_prng.c ****  * 
  19:../Libraries/XMCLib/src/xmc_prng.c ****  * Redistributions in binary form must reproduce the above copyright notice, this list of condition
  20:../Libraries/XMCLib/src/xmc_prng.c ****  * disclaimer in the documentation and/or other materials provided with the distribution.          
  21:../Libraries/XMCLib/src/xmc_prng.c ****  * 
  22:../Libraries/XMCLib/src/xmc_prng.c ****  * Neither the name of the copyright holders nor the names of its contributors may be used to endor
  23:../Libraries/XMCLib/src/xmc_prng.c ****  * products derived from this software without specific prior written permission.                  
  24:../Libraries/XMCLib/src/xmc_prng.c ****  *                                                                              
  25:../Libraries/XMCLib/src/xmc_prng.c ****  * THIS SOFTWARE IS PROVIDED BY THE COPYRIGHT HOLDERS AND CONTRIBUTORS "AS IS" AND ANY EXPRESS OR I
  26:../Libraries/XMCLib/src/xmc_prng.c ****  * INCLUDING, BUT NOT LIMITED TO, THE IMPLIED WARRANTIES OF MERCHANTABILITY AND FITNESS FOR A PARTI
  27:../Libraries/XMCLib/src/xmc_prng.c ****  * DISCLAIMED. IN NO EVENT SHALL THE COPYRIGHT HOLDER OR CONTRIBUTORS BE LIABLE  FOR ANY DIRECT, IN
  28:../Libraries/XMCLib/src/xmc_prng.c ****  * SPECIAL, EXEMPLARY, OR CONSEQUENTIAL DAMAGES (INCLUDING, BUT NOT LIMITED TO, PROCUREMENT OF SUBS
  29:../Libraries/XMCLib/src/xmc_prng.c ****  * SERVICES; LOSS OF USE, DATA, OR PROFITS; OR BUSINESS INTERRUPTION) HOWEVER CAUSED AND ON ANY THE
  30:../Libraries/XMCLib/src/xmc_prng.c ****  * WHETHER IN CONTRACT, STRICT LIABILITY,OR TORT (INCLUDING NEGLIGENCE OR OTHERWISE) ARISING IN ANY
  31:../Libraries/XMCLib/src/xmc_prng.c ****  * OF THIS SOFTWARE, EVEN IF ADVISED OF THE POSSIBILITY OF SUCH DAMAGE.                            
  32:../Libraries/XMCLib/src/xmc_prng.c ****  *                                                                              
  33:../Libraries/XMCLib/src/xmc_prng.c ****  * To improve the quality of the software, users are encouraged to share modifications, enhancement
  34:../Libraries/XMCLib/src/xmc_prng.c ****  * Infineon Technologies AG dave@infineon.com).                                                    
  35:../Libraries/XMCLib/src/xmc_prng.c ****  **************************************************************************************************
  36:../Libraries/XMCLib/src/xmc_prng.c ****  *
  37:../Libraries/XMCLib/src/xmc_prng.c ****  * Change History
  38:../Libraries/XMCLib/src/xmc_prng.c ****  * --------------
  39:../Libraries/XMCLib/src/xmc_prng.c ****  *
  40:../Libraries/XMCLib/src/xmc_prng.c ****  * 2015-02-20:
  41:../Libraries/XMCLib/src/xmc_prng.c ****  *     - Initial <br>
  42:../Libraries/XMCLib/src/xmc_prng.c ****  *     - Removed GetDriverVersion API <br>
  43:../Libraries/XMCLib/src/xmc_prng.c ****  *
  44:../Libraries/XMCLib/src/xmc_prng.c ****  * 2015-06-20
  45:../Libraries/XMCLib/src/xmc_prng.c ****  *     - Removed definition of GetDriverVersion API <br>
  46:../Libraries/XMCLib/src/xmc_prng.c ****  *
  47:../Libraries/XMCLib/src/xmc_prng.c ****  * @endcond
  48:../Libraries/XMCLib/src/xmc_prng.c ****  */
  49:../Libraries/XMCLib/src/xmc_prng.c ****  
  50:../Libraries/XMCLib/src/xmc_prng.c **** #include "xmc_prng.h"
  51:../Libraries/XMCLib/src/xmc_prng.c **** 
  52:../Libraries/XMCLib/src/xmc_prng.c **** #if defined (PRNG)
  53:../Libraries/XMCLib/src/xmc_prng.c **** 
  54:../Libraries/XMCLib/src/xmc_prng.c **** /**************************************************************************************************
  55:../Libraries/XMCLib/src/xmc_prng.c ****  * API IMPLEMENTATION
  56:../Libraries/XMCLib/src/xmc_prng.c ****  **************************************************************************************************
  57:../Libraries/XMCLib/src/xmc_prng.c ****  
  58:../Libraries/XMCLib/src/xmc_prng.c **** /*
  59:../Libraries/XMCLib/src/xmc_prng.c ****  * Initializes the PRNG peripheral with the settings in the
  60:../Libraries/XMCLib/src/xmc_prng.c ****  * initialization structure XMC_PRNG_INIT_t
  61:../Libraries/XMCLib/src/xmc_prng.c ****  */
  62:../Libraries/XMCLib/src/xmc_prng.c **** XMC_PRNG_INIT_STATUS_t XMC_PRNG_Init(const XMC_PRNG_INIT_t *prng)
  63:../Libraries/XMCLib/src/xmc_prng.c **** {
  26              	 .loc 1 63 0
  27              	 .cfi_startproc
  28              	.LVL0:
  29 0000 37B5     	 push {r0,r1,r2,r4,r5,lr}
  30              	.LCFI0:
  31              	 .cfi_def_cfa_offset 24
  32              	 .cfi_offset 0,-24
  33              	 .cfi_offset 1,-20
  34              	 .cfi_offset 2,-16
  35              	 .cfi_offset 4,-12
  36              	 .cfi_offset 5,-8
  37              	 .cfi_offset 14,-4
  38              	.LBB18:
  39              	.LBB19:
  40              	 .file 2 "C:/Workspace/DAVE-4.4.2-64Bit/xmc1400-getstarted-optiga-trust-m/Libraries/XMCLib/inc/xmc_prng.h"
   1:C:/Workspace/DAVE-4.4.2-64Bit/xmc1400-getstarted-optiga-trust-m/Libraries/XMCLib/inc\xmc_prng.h **** 
   2:C:/Workspace/DAVE-4.4.2-64Bit/xmc1400-getstarted-optiga-trust-m/Libraries/XMCLib/inc\xmc_prng.h **** /**
   3:C:/Workspace/DAVE-4.4.2-64Bit/xmc1400-getstarted-optiga-trust-m/Libraries/XMCLib/inc\xmc_prng.h ****  * @file xmc_prng.h
   4:C:/Workspace/DAVE-4.4.2-64Bit/xmc1400-getstarted-optiga-trust-m/Libraries/XMCLib/inc\xmc_prng.h ****  * @date 2015-06-20
   5:C:/Workspace/DAVE-4.4.2-64Bit/xmc1400-getstarted-optiga-trust-m/Libraries/XMCLib/inc\xmc_prng.h ****  *
   6:C:/Workspace/DAVE-4.4.2-64Bit/xmc1400-getstarted-optiga-trust-m/Libraries/XMCLib/inc\xmc_prng.h ****  * @cond
   7:C:/Workspace/DAVE-4.4.2-64Bit/xmc1400-getstarted-optiga-trust-m/Libraries/XMCLib/inc\xmc_prng.h ****  **************************************************************************************************
   8:C:/Workspace/DAVE-4.4.2-64Bit/xmc1400-getstarted-optiga-trust-m/Libraries/XMCLib/inc\xmc_prng.h ****  * XMClib v2.1.24 - XMC Peripheral Driver Library 
   9:C:/Workspace/DAVE-4.4.2-64Bit/xmc1400-getstarted-optiga-trust-m/Libraries/XMCLib/inc\xmc_prng.h ****  *
  10:C:/Workspace/DAVE-4.4.2-64Bit/xmc1400-getstarted-optiga-trust-m/Libraries/XMCLib/inc\xmc_prng.h ****  * Copyright (c) 2015-2019, Infineon Technologies AG
  11:C:/Workspace/DAVE-4.4.2-64Bit/xmc1400-getstarted-optiga-trust-m/Libraries/XMCLib/inc\xmc_prng.h ****  * All rights reserved.                        
  12:C:/Workspace/DAVE-4.4.2-64Bit/xmc1400-getstarted-optiga-trust-m/Libraries/XMCLib/inc\xmc_prng.h ****  *                                             
  13:C:/Workspace/DAVE-4.4.2-64Bit/xmc1400-getstarted-optiga-trust-m/Libraries/XMCLib/inc\xmc_prng.h ****  * Redistribution and use in source and binary forms, with or without modification,are permitted pr
  14:C:/Workspace/DAVE-4.4.2-64Bit/xmc1400-getstarted-optiga-trust-m/Libraries/XMCLib/inc\xmc_prng.h ****  * following conditions are met:   
  15:C:/Workspace/DAVE-4.4.2-64Bit/xmc1400-getstarted-optiga-trust-m/Libraries/XMCLib/inc\xmc_prng.h ****  *                                                                              
  16:C:/Workspace/DAVE-4.4.2-64Bit/xmc1400-getstarted-optiga-trust-m/Libraries/XMCLib/inc\xmc_prng.h ****  * Redistributions of source code must retain the above copyright notice, this list of conditions a
  17:C:/Workspace/DAVE-4.4.2-64Bit/xmc1400-getstarted-optiga-trust-m/Libraries/XMCLib/inc\xmc_prng.h ****  * disclaimer.                        
  18:C:/Workspace/DAVE-4.4.2-64Bit/xmc1400-getstarted-optiga-trust-m/Libraries/XMCLib/inc\xmc_prng.h ****  * 
  19:C:/Workspace/DAVE-4.4.2-64Bit/xmc1400-getstarted-optiga-trust-m/Libraries/XMCLib/inc\xmc_prng.h ****  * Redistributions in binary form must reproduce the above copyright notice, this list of condition
  20:C:/Workspace/DAVE-4.4.2-64Bit/xmc1400-getstarted-optiga-trust-m/Libraries/XMCLib/inc\xmc_prng.h ****  * disclaimer in the documentation and/or other materials provided with the distribution.          
  21:C:/Workspace/DAVE-4.4.2-64Bit/xmc1400-getstarted-optiga-trust-m/Libraries/XMCLib/inc\xmc_prng.h ****  * 
  22:C:/Workspace/DAVE-4.4.2-64Bit/xmc1400-getstarted-optiga-trust-m/Libraries/XMCLib/inc\xmc_prng.h ****  * Neither the name of the copyright holders nor the names of its contributors may be used to endor
  23:C:/Workspace/DAVE-4.4.2-64Bit/xmc1400-getstarted-optiga-trust-m/Libraries/XMCLib/inc\xmc_prng.h ****  * products derived from this software without specific prior written permission.                  
  24:C:/Workspace/DAVE-4.4.2-64Bit/xmc1400-getstarted-optiga-trust-m/Libraries/XMCLib/inc\xmc_prng.h ****  *                                                                              
  25:C:/Workspace/DAVE-4.4.2-64Bit/xmc1400-getstarted-optiga-trust-m/Libraries/XMCLib/inc\xmc_prng.h ****  * THIS SOFTWARE IS PROVIDED BY THE COPYRIGHT HOLDERS AND CONTRIBUTORS "AS IS" AND ANY EXPRESS OR I
  26:C:/Workspace/DAVE-4.4.2-64Bit/xmc1400-getstarted-optiga-trust-m/Libraries/XMCLib/inc\xmc_prng.h ****  * INCLUDING, BUT NOT LIMITED TO, THE IMPLIED WARRANTIES OF MERCHANTABILITY AND FITNESS FOR A PARTI
  27:C:/Workspace/DAVE-4.4.2-64Bit/xmc1400-getstarted-optiga-trust-m/Libraries/XMCLib/inc\xmc_prng.h ****  * DISCLAIMED. IN NO EVENT SHALL THE COPYRIGHT HOLDER OR CONTRIBUTORS BE LIABLE  FOR ANY DIRECT, IN
  28:C:/Workspace/DAVE-4.4.2-64Bit/xmc1400-getstarted-optiga-trust-m/Libraries/XMCLib/inc\xmc_prng.h ****  * SPECIAL, EXEMPLARY, OR CONSEQUENTIAL DAMAGES (INCLUDING, BUT NOT LIMITED TO, PROCUREMENT OF SUBS
  29:C:/Workspace/DAVE-4.4.2-64Bit/xmc1400-getstarted-optiga-trust-m/Libraries/XMCLib/inc\xmc_prng.h ****  * SERVICES; LOSS OF USE, DATA, OR PROFITS; OR BUSINESS INTERRUPTION) HOWEVER CAUSED AND ON ANY THE
  30:C:/Workspace/DAVE-4.4.2-64Bit/xmc1400-getstarted-optiga-trust-m/Libraries/XMCLib/inc\xmc_prng.h ****  * WHETHER IN CONTRACT, STRICT LIABILITY,OR TORT (INCLUDING NEGLIGENCE OR OTHERWISE) ARISING IN ANY
  31:C:/Workspace/DAVE-4.4.2-64Bit/xmc1400-getstarted-optiga-trust-m/Libraries/XMCLib/inc\xmc_prng.h ****  * OF THIS SOFTWARE, EVEN IF ADVISED OF THE POSSIBILITY OF SUCH DAMAGE.                            
  32:C:/Workspace/DAVE-4.4.2-64Bit/xmc1400-getstarted-optiga-trust-m/Libraries/XMCLib/inc\xmc_prng.h ****  *                                                                              
  33:C:/Workspace/DAVE-4.4.2-64Bit/xmc1400-getstarted-optiga-trust-m/Libraries/XMCLib/inc\xmc_prng.h ****  * To improve the quality of the software, users are encouraged to share modifications, enhancement
  34:C:/Workspace/DAVE-4.4.2-64Bit/xmc1400-getstarted-optiga-trust-m/Libraries/XMCLib/inc\xmc_prng.h ****  * Infineon Technologies AG dave@infineon.com).                                                    
  35:C:/Workspace/DAVE-4.4.2-64Bit/xmc1400-getstarted-optiga-trust-m/Libraries/XMCLib/inc\xmc_prng.h ****  **************************************************************************************************
  36:C:/Workspace/DAVE-4.4.2-64Bit/xmc1400-getstarted-optiga-trust-m/Libraries/XMCLib/inc\xmc_prng.h ****  *
  37:C:/Workspace/DAVE-4.4.2-64Bit/xmc1400-getstarted-optiga-trust-m/Libraries/XMCLib/inc\xmc_prng.h ****  * Change History
  38:C:/Workspace/DAVE-4.4.2-64Bit/xmc1400-getstarted-optiga-trust-m/Libraries/XMCLib/inc\xmc_prng.h ****  * --------------
  39:C:/Workspace/DAVE-4.4.2-64Bit/xmc1400-getstarted-optiga-trust-m/Libraries/XMCLib/inc\xmc_prng.h ****  *
  40:C:/Workspace/DAVE-4.4.2-64Bit/xmc1400-getstarted-optiga-trust-m/Libraries/XMCLib/inc\xmc_prng.h ****  * 2015-02-20:
  41:C:/Workspace/DAVE-4.4.2-64Bit/xmc1400-getstarted-optiga-trust-m/Libraries/XMCLib/inc\xmc_prng.h ****  *     - Initial <br>
  42:C:/Workspace/DAVE-4.4.2-64Bit/xmc1400-getstarted-optiga-trust-m/Libraries/XMCLib/inc\xmc_prng.h ****  *     - Documentation updates <br>
  43:C:/Workspace/DAVE-4.4.2-64Bit/xmc1400-getstarted-optiga-trust-m/Libraries/XMCLib/inc\xmc_prng.h ****  *
  44:C:/Workspace/DAVE-4.4.2-64Bit/xmc1400-getstarted-optiga-trust-m/Libraries/XMCLib/inc\xmc_prng.h ****  * 2015-06-20:
  45:C:/Workspace/DAVE-4.4.2-64Bit/xmc1400-getstarted-optiga-trust-m/Libraries/XMCLib/inc\xmc_prng.h ****  *     - Removed version macros and declaration of GetDriverVersion API <br>
  46:C:/Workspace/DAVE-4.4.2-64Bit/xmc1400-getstarted-optiga-trust-m/Libraries/XMCLib/inc\xmc_prng.h ****  *
  47:C:/Workspace/DAVE-4.4.2-64Bit/xmc1400-getstarted-optiga-trust-m/Libraries/XMCLib/inc\xmc_prng.h ****  * @endcond
  48:C:/Workspace/DAVE-4.4.2-64Bit/xmc1400-getstarted-optiga-trust-m/Libraries/XMCLib/inc\xmc_prng.h ****  */
  49:C:/Workspace/DAVE-4.4.2-64Bit/xmc1400-getstarted-optiga-trust-m/Libraries/XMCLib/inc\xmc_prng.h ****  
  50:C:/Workspace/DAVE-4.4.2-64Bit/xmc1400-getstarted-optiga-trust-m/Libraries/XMCLib/inc\xmc_prng.h **** #ifndef XMC_PRNG_H
  51:C:/Workspace/DAVE-4.4.2-64Bit/xmc1400-getstarted-optiga-trust-m/Libraries/XMCLib/inc\xmc_prng.h **** #define XMC_PRNG_H
  52:C:/Workspace/DAVE-4.4.2-64Bit/xmc1400-getstarted-optiga-trust-m/Libraries/XMCLib/inc\xmc_prng.h **** 
  53:C:/Workspace/DAVE-4.4.2-64Bit/xmc1400-getstarted-optiga-trust-m/Libraries/XMCLib/inc\xmc_prng.h **** /**************************************************************************************************
  54:C:/Workspace/DAVE-4.4.2-64Bit/xmc1400-getstarted-optiga-trust-m/Libraries/XMCLib/inc\xmc_prng.h ****  * HEADER FILES
  55:C:/Workspace/DAVE-4.4.2-64Bit/xmc1400-getstarted-optiga-trust-m/Libraries/XMCLib/inc\xmc_prng.h ****  **************************************************************************************************
  56:C:/Workspace/DAVE-4.4.2-64Bit/xmc1400-getstarted-optiga-trust-m/Libraries/XMCLib/inc\xmc_prng.h **** 
  57:C:/Workspace/DAVE-4.4.2-64Bit/xmc1400-getstarted-optiga-trust-m/Libraries/XMCLib/inc\xmc_prng.h **** #include "xmc_common.h"
  58:C:/Workspace/DAVE-4.4.2-64Bit/xmc1400-getstarted-optiga-trust-m/Libraries/XMCLib/inc\xmc_prng.h **** 
  59:C:/Workspace/DAVE-4.4.2-64Bit/xmc1400-getstarted-optiga-trust-m/Libraries/XMCLib/inc\xmc_prng.h **** #if defined (PRNG) 
  60:C:/Workspace/DAVE-4.4.2-64Bit/xmc1400-getstarted-optiga-trust-m/Libraries/XMCLib/inc\xmc_prng.h **** 
  61:C:/Workspace/DAVE-4.4.2-64Bit/xmc1400-getstarted-optiga-trust-m/Libraries/XMCLib/inc\xmc_prng.h **** /**
  62:C:/Workspace/DAVE-4.4.2-64Bit/xmc1400-getstarted-optiga-trust-m/Libraries/XMCLib/inc\xmc_prng.h ****  * @addtogroup XMClib XMC Peripheral Library
  63:C:/Workspace/DAVE-4.4.2-64Bit/xmc1400-getstarted-optiga-trust-m/Libraries/XMCLib/inc\xmc_prng.h ****  * @{
  64:C:/Workspace/DAVE-4.4.2-64Bit/xmc1400-getstarted-optiga-trust-m/Libraries/XMCLib/inc\xmc_prng.h ****  */
  65:C:/Workspace/DAVE-4.4.2-64Bit/xmc1400-getstarted-optiga-trust-m/Libraries/XMCLib/inc\xmc_prng.h **** 
  66:C:/Workspace/DAVE-4.4.2-64Bit/xmc1400-getstarted-optiga-trust-m/Libraries/XMCLib/inc\xmc_prng.h **** /**
  67:C:/Workspace/DAVE-4.4.2-64Bit/xmc1400-getstarted-optiga-trust-m/Libraries/XMCLib/inc\xmc_prng.h ****  * @addtogroup PRNG
  68:C:/Workspace/DAVE-4.4.2-64Bit/xmc1400-getstarted-optiga-trust-m/Libraries/XMCLib/inc\xmc_prng.h ****  * @brief Pseudo Random Number Generator (PRNG) driver for XMC1000 microcontroller family
  69:C:/Workspace/DAVE-4.4.2-64Bit/xmc1400-getstarted-optiga-trust-m/Libraries/XMCLib/inc\xmc_prng.h ****  *
  70:C:/Workspace/DAVE-4.4.2-64Bit/xmc1400-getstarted-optiga-trust-m/Libraries/XMCLib/inc\xmc_prng.h ****  * The pseudo random bit generator (PRNG) provides random data with fast generation times.
  71:C:/Workspace/DAVE-4.4.2-64Bit/xmc1400-getstarted-optiga-trust-m/Libraries/XMCLib/inc\xmc_prng.h ****  * PRNG has to be initialized by the user software before use. The initialization consists
  72:C:/Workspace/DAVE-4.4.2-64Bit/xmc1400-getstarted-optiga-trust-m/Libraries/XMCLib/inc\xmc_prng.h ****  * of two basic phases: key-loading and warm-up.
  73:C:/Workspace/DAVE-4.4.2-64Bit/xmc1400-getstarted-optiga-trust-m/Libraries/XMCLib/inc\xmc_prng.h ****  *  
  74:C:/Workspace/DAVE-4.4.2-64Bit/xmc1400-getstarted-optiga-trust-m/Libraries/XMCLib/inc\xmc_prng.h ****  * The PRNG low level driver provides functions to configure and initialize the PRNG hardware
  75:C:/Workspace/DAVE-4.4.2-64Bit/xmc1400-getstarted-optiga-trust-m/Libraries/XMCLib/inc\xmc_prng.h ****  * peripheral.
  76:C:/Workspace/DAVE-4.4.2-64Bit/xmc1400-getstarted-optiga-trust-m/Libraries/XMCLib/inc\xmc_prng.h ****  * @{
  77:C:/Workspace/DAVE-4.4.2-64Bit/xmc1400-getstarted-optiga-trust-m/Libraries/XMCLib/inc\xmc_prng.h ****  */  
  78:C:/Workspace/DAVE-4.4.2-64Bit/xmc1400-getstarted-optiga-trust-m/Libraries/XMCLib/inc\xmc_prng.h **** 
  79:C:/Workspace/DAVE-4.4.2-64Bit/xmc1400-getstarted-optiga-trust-m/Libraries/XMCLib/inc\xmc_prng.h **** /**************************************************************************************************
  80:C:/Workspace/DAVE-4.4.2-64Bit/xmc1400-getstarted-optiga-trust-m/Libraries/XMCLib/inc\xmc_prng.h ****  * MACROS
  81:C:/Workspace/DAVE-4.4.2-64Bit/xmc1400-getstarted-optiga-trust-m/Libraries/XMCLib/inc\xmc_prng.h ****  **************************************************************************************************
  82:C:/Workspace/DAVE-4.4.2-64Bit/xmc1400-getstarted-optiga-trust-m/Libraries/XMCLib/inc\xmc_prng.h ****  
  83:C:/Workspace/DAVE-4.4.2-64Bit/xmc1400-getstarted-optiga-trust-m/Libraries/XMCLib/inc\xmc_prng.h **** /**
  84:C:/Workspace/DAVE-4.4.2-64Bit/xmc1400-getstarted-optiga-trust-m/Libraries/XMCLib/inc\xmc_prng.h ****  * Byte mask value for random data block size
  85:C:/Workspace/DAVE-4.4.2-64Bit/xmc1400-getstarted-optiga-trust-m/Libraries/XMCLib/inc\xmc_prng.h ****  */ 
  86:C:/Workspace/DAVE-4.4.2-64Bit/xmc1400-getstarted-optiga-trust-m/Libraries/XMCLib/inc\xmc_prng.h **** #define XMC_PRNG_RDBS_BYTE_READ_MASK (0x00FFU)
  87:C:/Workspace/DAVE-4.4.2-64Bit/xmc1400-getstarted-optiga-trust-m/Libraries/XMCLib/inc\xmc_prng.h **** 
  88:C:/Workspace/DAVE-4.4.2-64Bit/xmc1400-getstarted-optiga-trust-m/Libraries/XMCLib/inc\xmc_prng.h **** /**************************************************************************************************
  89:C:/Workspace/DAVE-4.4.2-64Bit/xmc1400-getstarted-optiga-trust-m/Libraries/XMCLib/inc\xmc_prng.h ****  * ENUMS
  90:C:/Workspace/DAVE-4.4.2-64Bit/xmc1400-getstarted-optiga-trust-m/Libraries/XMCLib/inc\xmc_prng.h ****  **************************************************************************************************
  91:C:/Workspace/DAVE-4.4.2-64Bit/xmc1400-getstarted-optiga-trust-m/Libraries/XMCLib/inc\xmc_prng.h **** 
  92:C:/Workspace/DAVE-4.4.2-64Bit/xmc1400-getstarted-optiga-trust-m/Libraries/XMCLib/inc\xmc_prng.h **** /**
  93:C:/Workspace/DAVE-4.4.2-64Bit/xmc1400-getstarted-optiga-trust-m/Libraries/XMCLib/inc\xmc_prng.h ****  * PRNG key load operation modes
  94:C:/Workspace/DAVE-4.4.2-64Bit/xmc1400-getstarted-optiga-trust-m/Libraries/XMCLib/inc\xmc_prng.h ****  */
  95:C:/Workspace/DAVE-4.4.2-64Bit/xmc1400-getstarted-optiga-trust-m/Libraries/XMCLib/inc\xmc_prng.h **** typedef enum XMC_PRNG_KEY_LOAD_OP_MODE {
  96:C:/Workspace/DAVE-4.4.2-64Bit/xmc1400-getstarted-optiga-trust-m/Libraries/XMCLib/inc\xmc_prng.h ****   XMC_PRNG_STRM_MODE = 0U, /**< Streaming mode (default) */
  97:C:/Workspace/DAVE-4.4.2-64Bit/xmc1400-getstarted-optiga-trust-m/Libraries/XMCLib/inc\xmc_prng.h ****   XMC_PRNG_KLD_MODE  = 1U  /**< Loading mode */
  98:C:/Workspace/DAVE-4.4.2-64Bit/xmc1400-getstarted-optiga-trust-m/Libraries/XMCLib/inc\xmc_prng.h **** } XMC_PRNG_KEY_LOAD_OP_MODE_t;
  99:C:/Workspace/DAVE-4.4.2-64Bit/xmc1400-getstarted-optiga-trust-m/Libraries/XMCLib/inc\xmc_prng.h **** 
 100:C:/Workspace/DAVE-4.4.2-64Bit/xmc1400-getstarted-optiga-trust-m/Libraries/XMCLib/inc\xmc_prng.h **** /**
 101:C:/Workspace/DAVE-4.4.2-64Bit/xmc1400-getstarted-optiga-trust-m/Libraries/XMCLib/inc\xmc_prng.h ****  * PRNG data block size
 102:C:/Workspace/DAVE-4.4.2-64Bit/xmc1400-getstarted-optiga-trust-m/Libraries/XMCLib/inc\xmc_prng.h ****  */
 103:C:/Workspace/DAVE-4.4.2-64Bit/xmc1400-getstarted-optiga-trust-m/Libraries/XMCLib/inc\xmc_prng.h **** typedef enum XMC_PRNG_DATA_BLOCK_SIZE {
 104:C:/Workspace/DAVE-4.4.2-64Bit/xmc1400-getstarted-optiga-trust-m/Libraries/XMCLib/inc\xmc_prng.h ****   XMC_PRNG_RDBS_RESET = 0U, /**< Reset state (no random data block size defined) */
 105:C:/Workspace/DAVE-4.4.2-64Bit/xmc1400-getstarted-optiga-trust-m/Libraries/XMCLib/inc\xmc_prng.h ****   XMC_PRNG_RDBS_BYTE  = 1U, /**< BYTE (8-bit) */
 106:C:/Workspace/DAVE-4.4.2-64Bit/xmc1400-getstarted-optiga-trust-m/Libraries/XMCLib/inc\xmc_prng.h ****   XMC_PRNG_RDBS_WORD  = 2U  /**< WORD (16-bit) */
 107:C:/Workspace/DAVE-4.4.2-64Bit/xmc1400-getstarted-optiga-trust-m/Libraries/XMCLib/inc\xmc_prng.h **** } XMC_PRNG_DATA_BLOCK_SIZE_t;
 108:C:/Workspace/DAVE-4.4.2-64Bit/xmc1400-getstarted-optiga-trust-m/Libraries/XMCLib/inc\xmc_prng.h **** 
 109:C:/Workspace/DAVE-4.4.2-64Bit/xmc1400-getstarted-optiga-trust-m/Libraries/XMCLib/inc\xmc_prng.h **** /**
 110:C:/Workspace/DAVE-4.4.2-64Bit/xmc1400-getstarted-optiga-trust-m/Libraries/XMCLib/inc\xmc_prng.h ****  * PRNG driver initialization status
 111:C:/Workspace/DAVE-4.4.2-64Bit/xmc1400-getstarted-optiga-trust-m/Libraries/XMCLib/inc\xmc_prng.h ****  */
 112:C:/Workspace/DAVE-4.4.2-64Bit/xmc1400-getstarted-optiga-trust-m/Libraries/XMCLib/inc\xmc_prng.h **** typedef enum XMC_PRNG_INIT_STATUS {
 113:C:/Workspace/DAVE-4.4.2-64Bit/xmc1400-getstarted-optiga-trust-m/Libraries/XMCLib/inc\xmc_prng.h ****   XMC_PRNG_NOT_INITIALIZED = 0U, /**< Reset state or Non-initialized state (Same as XMC_PRNG_RDBS_R
 114:C:/Workspace/DAVE-4.4.2-64Bit/xmc1400-getstarted-optiga-trust-m/Libraries/XMCLib/inc\xmc_prng.h ****   XMC_PRNG_INITIALIZED     = 1U  /**< Initialized state */
 115:C:/Workspace/DAVE-4.4.2-64Bit/xmc1400-getstarted-optiga-trust-m/Libraries/XMCLib/inc\xmc_prng.h **** } XMC_PRNG_INIT_STATUS_t;
 116:C:/Workspace/DAVE-4.4.2-64Bit/xmc1400-getstarted-optiga-trust-m/Libraries/XMCLib/inc\xmc_prng.h **** 
 117:C:/Workspace/DAVE-4.4.2-64Bit/xmc1400-getstarted-optiga-trust-m/Libraries/XMCLib/inc\xmc_prng.h **** /**************************************************************************************************
 118:C:/Workspace/DAVE-4.4.2-64Bit/xmc1400-getstarted-optiga-trust-m/Libraries/XMCLib/inc\xmc_prng.h ****  * DATA STRUCTURES
 119:C:/Workspace/DAVE-4.4.2-64Bit/xmc1400-getstarted-optiga-trust-m/Libraries/XMCLib/inc\xmc_prng.h ****  **************************************************************************************************
 120:C:/Workspace/DAVE-4.4.2-64Bit/xmc1400-getstarted-optiga-trust-m/Libraries/XMCLib/inc\xmc_prng.h **** 
 121:C:/Workspace/DAVE-4.4.2-64Bit/xmc1400-getstarted-optiga-trust-m/Libraries/XMCLib/inc\xmc_prng.h **** /**
 122:C:/Workspace/DAVE-4.4.2-64Bit/xmc1400-getstarted-optiga-trust-m/Libraries/XMCLib/inc\xmc_prng.h ****  * Key words and data block size configuration values of PRNG <br>
 123:C:/Workspace/DAVE-4.4.2-64Bit/xmc1400-getstarted-optiga-trust-m/Libraries/XMCLib/inc\xmc_prng.h ****  *
 124:C:/Workspace/DAVE-4.4.2-64Bit/xmc1400-getstarted-optiga-trust-m/Libraries/XMCLib/inc\xmc_prng.h ****  * The structure presents a convenient way to set/obtain the key word and data block configuration
 125:C:/Workspace/DAVE-4.4.2-64Bit/xmc1400-getstarted-optiga-trust-m/Libraries/XMCLib/inc\xmc_prng.h ****  * values of PRNG.
 126:C:/Workspace/DAVE-4.4.2-64Bit/xmc1400-getstarted-optiga-trust-m/Libraries/XMCLib/inc\xmc_prng.h ****  * The XMC_PRNG_Init() can be used to populate the structure with the key word and data block
 127:C:/Workspace/DAVE-4.4.2-64Bit/xmc1400-getstarted-optiga-trust-m/Libraries/XMCLib/inc\xmc_prng.h ****  * configuration values of the PRNG module.
 128:C:/Workspace/DAVE-4.4.2-64Bit/xmc1400-getstarted-optiga-trust-m/Libraries/XMCLib/inc\xmc_prng.h ****  */ 
 129:C:/Workspace/DAVE-4.4.2-64Bit/xmc1400-getstarted-optiga-trust-m/Libraries/XMCLib/inc\xmc_prng.h **** typedef struct XMC_PRNG_INIT
 130:C:/Workspace/DAVE-4.4.2-64Bit/xmc1400-getstarted-optiga-trust-m/Libraries/XMCLib/inc\xmc_prng.h **** {
 131:C:/Workspace/DAVE-4.4.2-64Bit/xmc1400-getstarted-optiga-trust-m/Libraries/XMCLib/inc\xmc_prng.h ****   uint16_t key_words[5];                 /**< Keywords */
 132:C:/Workspace/DAVE-4.4.2-64Bit/xmc1400-getstarted-optiga-trust-m/Libraries/XMCLib/inc\xmc_prng.h ****   XMC_PRNG_DATA_BLOCK_SIZE_t block_size; /**< Block size */
 133:C:/Workspace/DAVE-4.4.2-64Bit/xmc1400-getstarted-optiga-trust-m/Libraries/XMCLib/inc\xmc_prng.h **** } XMC_PRNG_INIT_t;
 134:C:/Workspace/DAVE-4.4.2-64Bit/xmc1400-getstarted-optiga-trust-m/Libraries/XMCLib/inc\xmc_prng.h **** 
 135:C:/Workspace/DAVE-4.4.2-64Bit/xmc1400-getstarted-optiga-trust-m/Libraries/XMCLib/inc\xmc_prng.h **** /**************************************************************************************************
 136:C:/Workspace/DAVE-4.4.2-64Bit/xmc1400-getstarted-optiga-trust-m/Libraries/XMCLib/inc\xmc_prng.h ****  * API PROTOTYPES
 137:C:/Workspace/DAVE-4.4.2-64Bit/xmc1400-getstarted-optiga-trust-m/Libraries/XMCLib/inc\xmc_prng.h ****  **************************************************************************************************
 138:C:/Workspace/DAVE-4.4.2-64Bit/xmc1400-getstarted-optiga-trust-m/Libraries/XMCLib/inc\xmc_prng.h **** 
 139:C:/Workspace/DAVE-4.4.2-64Bit/xmc1400-getstarted-optiga-trust-m/Libraries/XMCLib/inc\xmc_prng.h **** #ifdef __cplusplus
 140:C:/Workspace/DAVE-4.4.2-64Bit/xmc1400-getstarted-optiga-trust-m/Libraries/XMCLib/inc\xmc_prng.h **** extern "C" {
 141:C:/Workspace/DAVE-4.4.2-64Bit/xmc1400-getstarted-optiga-trust-m/Libraries/XMCLib/inc\xmc_prng.h **** #endif
 142:C:/Workspace/DAVE-4.4.2-64Bit/xmc1400-getstarted-optiga-trust-m/Libraries/XMCLib/inc\xmc_prng.h **** 
 143:C:/Workspace/DAVE-4.4.2-64Bit/xmc1400-getstarted-optiga-trust-m/Libraries/XMCLib/inc\xmc_prng.h **** /**
 144:C:/Workspace/DAVE-4.4.2-64Bit/xmc1400-getstarted-optiga-trust-m/Libraries/XMCLib/inc\xmc_prng.h ****  * @param prng Pointer to a constant instance of ::XMC_PRNG_INIT_t, pointing to
 145:C:/Workspace/DAVE-4.4.2-64Bit/xmc1400-getstarted-optiga-trust-m/Libraries/XMCLib/inc\xmc_prng.h ****  *             the initialization configuration.
 146:C:/Workspace/DAVE-4.4.2-64Bit/xmc1400-getstarted-optiga-trust-m/Libraries/XMCLib/inc\xmc_prng.h ****  * @return XMC_PRNG_INIT_STATUS_t XMC_PRNG_INITIALIZED if initialized,
 147:C:/Workspace/DAVE-4.4.2-64Bit/xmc1400-getstarted-optiga-trust-m/Libraries/XMCLib/inc\xmc_prng.h ****  *                                XMC_PRNG_NOT_INITIALIZED otherwise.
 148:C:/Workspace/DAVE-4.4.2-64Bit/xmc1400-getstarted-optiga-trust-m/Libraries/XMCLib/inc\xmc_prng.h ****  *
 149:C:/Workspace/DAVE-4.4.2-64Bit/xmc1400-getstarted-optiga-trust-m/Libraries/XMCLib/inc\xmc_prng.h ****  * \par<b>Description: </b><br>
 150:C:/Workspace/DAVE-4.4.2-64Bit/xmc1400-getstarted-optiga-trust-m/Libraries/XMCLib/inc\xmc_prng.h ****  * Initialize the PRNG peripheral with the configured key words and block size <br>
 151:C:/Workspace/DAVE-4.4.2-64Bit/xmc1400-getstarted-optiga-trust-m/Libraries/XMCLib/inc\xmc_prng.h ****  *
 152:C:/Workspace/DAVE-4.4.2-64Bit/xmc1400-getstarted-optiga-trust-m/Libraries/XMCLib/inc\xmc_prng.h ****  * \par
 153:C:/Workspace/DAVE-4.4.2-64Bit/xmc1400-getstarted-optiga-trust-m/Libraries/XMCLib/inc\xmc_prng.h ****  * The function configures block size for key loading mode, enables key loading mode,
 154:C:/Workspace/DAVE-4.4.2-64Bit/xmc1400-getstarted-optiga-trust-m/Libraries/XMCLib/inc\xmc_prng.h ****  * loads key words (80 bits) and wait till RDV is set, enables the streaming mode and
 155:C:/Workspace/DAVE-4.4.2-64Bit/xmc1400-getstarted-optiga-trust-m/Libraries/XMCLib/inc\xmc_prng.h ****  * waits for warmup phase. This function programmes the CTRL and WORD registers. 
 156:C:/Workspace/DAVE-4.4.2-64Bit/xmc1400-getstarted-optiga-trust-m/Libraries/XMCLib/inc\xmc_prng.h ****  */
 157:C:/Workspace/DAVE-4.4.2-64Bit/xmc1400-getstarted-optiga-trust-m/Libraries/XMCLib/inc\xmc_prng.h **** XMC_PRNG_INIT_STATUS_t XMC_PRNG_Init(const XMC_PRNG_INIT_t *prng);
 158:C:/Workspace/DAVE-4.4.2-64Bit/xmc1400-getstarted-optiga-trust-m/Libraries/XMCLib/inc\xmc_prng.h **** 
 159:C:/Workspace/DAVE-4.4.2-64Bit/xmc1400-getstarted-optiga-trust-m/Libraries/XMCLib/inc\xmc_prng.h **** 
 160:C:/Workspace/DAVE-4.4.2-64Bit/xmc1400-getstarted-optiga-trust-m/Libraries/XMCLib/inc\xmc_prng.h **** 
 161:C:/Workspace/DAVE-4.4.2-64Bit/xmc1400-getstarted-optiga-trust-m/Libraries/XMCLib/inc\xmc_prng.h **** /**
 162:C:/Workspace/DAVE-4.4.2-64Bit/xmc1400-getstarted-optiga-trust-m/Libraries/XMCLib/inc\xmc_prng.h ****  * @param block_size Block size of type ::XMC_PRNG_DATA_BLOCK_SIZE_t for read access
 163:C:/Workspace/DAVE-4.4.2-64Bit/xmc1400-getstarted-optiga-trust-m/Libraries/XMCLib/inc\xmc_prng.h ****  * @return None
 164:C:/Workspace/DAVE-4.4.2-64Bit/xmc1400-getstarted-optiga-trust-m/Libraries/XMCLib/inc\xmc_prng.h ****  *
 165:C:/Workspace/DAVE-4.4.2-64Bit/xmc1400-getstarted-optiga-trust-m/Libraries/XMCLib/inc\xmc_prng.h ****  * \par<b>Description: </b><br>
 166:C:/Workspace/DAVE-4.4.2-64Bit/xmc1400-getstarted-optiga-trust-m/Libraries/XMCLib/inc\xmc_prng.h ****  * Programming Random Block Size <br>
 167:C:/Workspace/DAVE-4.4.2-64Bit/xmc1400-getstarted-optiga-trust-m/Libraries/XMCLib/inc\xmc_prng.h ****  *
 168:C:/Workspace/DAVE-4.4.2-64Bit/xmc1400-getstarted-optiga-trust-m/Libraries/XMCLib/inc\xmc_prng.h ****  * \par
 169:C:/Workspace/DAVE-4.4.2-64Bit/xmc1400-getstarted-optiga-trust-m/Libraries/XMCLib/inc\xmc_prng.h ****  * The function sets the random data block size as byte or word by programming CTRL.RDBS bitfield.
 170:C:/Workspace/DAVE-4.4.2-64Bit/xmc1400-getstarted-optiga-trust-m/Libraries/XMCLib/inc\xmc_prng.h ****  * block_size = 0 for Reset state, block_size = 1 for 'byte' and block_size = 2 for 'word'.
 171:C:/Workspace/DAVE-4.4.2-64Bit/xmc1400-getstarted-optiga-trust-m/Libraries/XMCLib/inc\xmc_prng.h ****  */
 172:C:/Workspace/DAVE-4.4.2-64Bit/xmc1400-getstarted-optiga-trust-m/Libraries/XMCLib/inc\xmc_prng.h **** __STATIC_INLINE void XMC_PRNG_SetRandomDataBlockSize(XMC_PRNG_DATA_BLOCK_SIZE_t block_size)
 173:C:/Workspace/DAVE-4.4.2-64Bit/xmc1400-getstarted-optiga-trust-m/Libraries/XMCLib/inc\xmc_prng.h **** {
 174:C:/Workspace/DAVE-4.4.2-64Bit/xmc1400-getstarted-optiga-trust-m/Libraries/XMCLib/inc\xmc_prng.h ****   PRNG->CTRL = (uint16_t)((PRNG->CTRL & (uint32_t)~PRNG_CTRL_RDBS_Msk) |
  41              	 .loc 2 174 0
  42 0002 0621     	 mov r1,#6
  43 0004 1A4B     	 ldr r3,.L5
  44 0006 041C     	 mov r4,r0
  45 0008 9A89     	 ldrh r2,[r3,#12]
  46 000a 0A34     	 add r4,r4,#10
  47 000c 8A43     	 bic r2,r1
  48 000e 0239     	 sub r1,r1,#2
  49 0010 0A43     	 orr r2,r1
  50 0012 9A81     	 strh r2,[r3,#12]
  51              	.LBE19:
  52              	.LBE18:
  53              	.LBB20:
  54              	.LBB21:
 175:C:/Workspace/DAVE-4.4.2-64Bit/xmc1400-getstarted-optiga-trust-m/Libraries/XMCLib/inc\xmc_prng.h ****                           ((uint32_t)block_size << (uint32_t)PRNG_CTRL_RDBS_Pos));
 176:C:/Workspace/DAVE-4.4.2-64Bit/xmc1400-getstarted-optiga-trust-m/Libraries/XMCLib/inc\xmc_prng.h **** }
 177:C:/Workspace/DAVE-4.4.2-64Bit/xmc1400-getstarted-optiga-trust-m/Libraries/XMCLib/inc\xmc_prng.h **** 
 178:C:/Workspace/DAVE-4.4.2-64Bit/xmc1400-getstarted-optiga-trust-m/Libraries/XMCLib/inc\xmc_prng.h **** /**
 179:C:/Workspace/DAVE-4.4.2-64Bit/xmc1400-getstarted-optiga-trust-m/Libraries/XMCLib/inc\xmc_prng.h ****  * @return None
 180:C:/Workspace/DAVE-4.4.2-64Bit/xmc1400-getstarted-optiga-trust-m/Libraries/XMCLib/inc\xmc_prng.h ****  *
 181:C:/Workspace/DAVE-4.4.2-64Bit/xmc1400-getstarted-optiga-trust-m/Libraries/XMCLib/inc\xmc_prng.h ****  * \par<b>Description: </b><br>
 182:C:/Workspace/DAVE-4.4.2-64Bit/xmc1400-getstarted-optiga-trust-m/Libraries/XMCLib/inc\xmc_prng.h ****  * Checks the validity (CHK.RDV bit) of the generated random data <br>
 183:C:/Workspace/DAVE-4.4.2-64Bit/xmc1400-getstarted-optiga-trust-m/Libraries/XMCLib/inc\xmc_prng.h ****  *
 184:C:/Workspace/DAVE-4.4.2-64Bit/xmc1400-getstarted-optiga-trust-m/Libraries/XMCLib/inc\xmc_prng.h ****  * \par
 185:C:/Workspace/DAVE-4.4.2-64Bit/xmc1400-getstarted-optiga-trust-m/Libraries/XMCLib/inc\xmc_prng.h ****  * The function checks the validity (CHK.RDV bit) of the generated random data.
 186:C:/Workspace/DAVE-4.4.2-64Bit/xmc1400-getstarted-optiga-trust-m/Libraries/XMCLib/inc\xmc_prng.h ****  * In key loading mode, this value indicates if the next partial key word can be written
 187:C:/Workspace/DAVE-4.4.2-64Bit/xmc1400-getstarted-optiga-trust-m/Libraries/XMCLib/inc\xmc_prng.h ****  * to PRNG_WORD or not.
 188:C:/Workspace/DAVE-4.4.2-64Bit/xmc1400-getstarted-optiga-trust-m/Libraries/XMCLib/inc\xmc_prng.h ****  */
 189:C:/Workspace/DAVE-4.4.2-64Bit/xmc1400-getstarted-optiga-trust-m/Libraries/XMCLib/inc\xmc_prng.h **** __STATIC_INLINE uint16_t XMC_PRNG_CheckValidStatus(void)
 190:C:/Workspace/DAVE-4.4.2-64Bit/xmc1400-getstarted-optiga-trust-m/Libraries/XMCLib/inc\xmc_prng.h **** {
 191:C:/Workspace/DAVE-4.4.2-64Bit/xmc1400-getstarted-optiga-trust-m/Libraries/XMCLib/inc\xmc_prng.h ****   return (PRNG->CHK & PRNG_CHK_RDV_Msk);
 192:C:/Workspace/DAVE-4.4.2-64Bit/xmc1400-getstarted-optiga-trust-m/Libraries/XMCLib/inc\xmc_prng.h **** }
 193:C:/Workspace/DAVE-4.4.2-64Bit/xmc1400-getstarted-optiga-trust-m/Libraries/XMCLib/inc\xmc_prng.h **** 
 194:C:/Workspace/DAVE-4.4.2-64Bit/xmc1400-getstarted-optiga-trust-m/Libraries/XMCLib/inc\xmc_prng.h **** /**
 195:C:/Workspace/DAVE-4.4.2-64Bit/xmc1400-getstarted-optiga-trust-m/Libraries/XMCLib/inc\xmc_prng.h ****  * @return None
 196:C:/Workspace/DAVE-4.4.2-64Bit/xmc1400-getstarted-optiga-trust-m/Libraries/XMCLib/inc\xmc_prng.h ****  *
 197:C:/Workspace/DAVE-4.4.2-64Bit/xmc1400-getstarted-optiga-trust-m/Libraries/XMCLib/inc\xmc_prng.h ****  * \par<b>Description: </b><br>
 198:C:/Workspace/DAVE-4.4.2-64Bit/xmc1400-getstarted-optiga-trust-m/Libraries/XMCLib/inc\xmc_prng.h ****  * Enables the PRNG key loading mode <br>
 199:C:/Workspace/DAVE-4.4.2-64Bit/xmc1400-getstarted-optiga-trust-m/Libraries/XMCLib/inc\xmc_prng.h ****  *
 200:C:/Workspace/DAVE-4.4.2-64Bit/xmc1400-getstarted-optiga-trust-m/Libraries/XMCLib/inc\xmc_prng.h ****  * \par
 201:C:/Workspace/DAVE-4.4.2-64Bit/xmc1400-getstarted-optiga-trust-m/Libraries/XMCLib/inc\xmc_prng.h ****  * The function initializes the key loading by setting the bit CTRL.KLD. In this mode, Register WOR
 202:C:/Workspace/DAVE-4.4.2-64Bit/xmc1400-getstarted-optiga-trust-m/Libraries/XMCLib/inc\xmc_prng.h ****  * acts as always as a 16 bit destination register. After the complete key has been loaded, the CTR
 203:C:/Workspace/DAVE-4.4.2-64Bit/xmc1400-getstarted-optiga-trust-m/Libraries/XMCLib/inc\xmc_prng.h ****  * must be set to '0' to prepare the following warmup phase.
 204:C:/Workspace/DAVE-4.4.2-64Bit/xmc1400-getstarted-optiga-trust-m/Libraries/XMCLib/inc\xmc_prng.h ****  *
 205:C:/Workspace/DAVE-4.4.2-64Bit/xmc1400-getstarted-optiga-trust-m/Libraries/XMCLib/inc\xmc_prng.h ****  * \par<b>Related APIs:</b><br>
 206:C:/Workspace/DAVE-4.4.2-64Bit/xmc1400-getstarted-optiga-trust-m/Libraries/XMCLib/inc\xmc_prng.h ****  * XMC_PRNG_EnableStreamingMode()
 207:C:/Workspace/DAVE-4.4.2-64Bit/xmc1400-getstarted-optiga-trust-m/Libraries/XMCLib/inc\xmc_prng.h ****  */
 208:C:/Workspace/DAVE-4.4.2-64Bit/xmc1400-getstarted-optiga-trust-m/Libraries/XMCLib/inc\xmc_prng.h **** __STATIC_INLINE void XMC_PRNG_EnableKeyLoadingMode(void)
 209:C:/Workspace/DAVE-4.4.2-64Bit/xmc1400-getstarted-optiga-trust-m/Libraries/XMCLib/inc\xmc_prng.h **** {
 210:C:/Workspace/DAVE-4.4.2-64Bit/xmc1400-getstarted-optiga-trust-m/Libraries/XMCLib/inc\xmc_prng.h ****   PRNG->CTRL |= (uint16_t)PRNG_CTRL_KLD_Msk;
  55              	 .loc 2 210 0
  56 0014 9A89     	 ldrh r2,[r3,#12]
  57 0016 0431     	 add r1,r1,#4
  58 0018 0A43     	 orr r2,r1
  59 001a 9A81     	 strh r2,[r3,#12]
  60              	.LVL1:
  61 001c 011C     	 mov r1,r0
  62 001e 1A1C     	 mov r2,r3
  63              	.LVL2:
  64              	.L3:
  65              	.LBE21:
  66              	.LBE20:
  64:../Libraries/XMCLib/src/xmc_prng.c ****   volatile uint16_t read_warm_up;
  65:../Libraries/XMCLib/src/xmc_prng.c ****   uint16_t reg_val, iter;
  66:../Libraries/XMCLib/src/xmc_prng.c ****   XMC_PRNG_INIT_STATUS_t status = XMC_PRNG_INITIALIZED;
  67:../Libraries/XMCLib/src/xmc_prng.c ****   
  68:../Libraries/XMCLib/src/xmc_prng.c ****   XMC_ASSERT("XMC_PRNG_Init:Null Pointer", (prng != (XMC_PRNG_INIT_t *)NULL));
  69:../Libraries/XMCLib/src/xmc_prng.c **** 
  70:../Libraries/XMCLib/src/xmc_prng.c ****   /* Configure block size for key loading mode */
  71:../Libraries/XMCLib/src/xmc_prng.c ****   XMC_PRNG_SetRandomDataBlockSize(XMC_PRNG_RDBS_WORD);
  72:../Libraries/XMCLib/src/xmc_prng.c **** 
  73:../Libraries/XMCLib/src/xmc_prng.c ****   /* Enable key loading mode */
  74:../Libraries/XMCLib/src/xmc_prng.c ****   XMC_PRNG_EnableKeyLoadingMode();
  75:../Libraries/XMCLib/src/xmc_prng.c **** 
  76:../Libraries/XMCLib/src/xmc_prng.c ****   /* Load key words (80 bits) and wait till RDV is set */
  77:../Libraries/XMCLib/src/xmc_prng.c ****   for (iter = (uint16_t)0UL; iter < (uint16_t)5UL; iter++)
  78:../Libraries/XMCLib/src/xmc_prng.c ****   {
  79:../Libraries/XMCLib/src/xmc_prng.c ****     XMC_PRNG_LoadKeyWords(prng->key_words[iter]);
  67              	 .loc 1 79 0
  68 0020 0B88     	 ldrh r3,[r1]
  69              	.LVL3:
  70              	.LBB22:
  71              	.LBB23:
 211:C:/Workspace/DAVE-4.4.2-64Bit/xmc1400-getstarted-optiga-trust-m/Libraries/XMCLib/inc\xmc_prng.h **** }
 212:C:/Workspace/DAVE-4.4.2-64Bit/xmc1400-getstarted-optiga-trust-m/Libraries/XMCLib/inc\xmc_prng.h **** 
 213:C:/Workspace/DAVE-4.4.2-64Bit/xmc1400-getstarted-optiga-trust-m/Libraries/XMCLib/inc\xmc_prng.h **** /**
 214:C:/Workspace/DAVE-4.4.2-64Bit/xmc1400-getstarted-optiga-trust-m/Libraries/XMCLib/inc\xmc_prng.h ****  * @return None
 215:C:/Workspace/DAVE-4.4.2-64Bit/xmc1400-getstarted-optiga-trust-m/Libraries/XMCLib/inc\xmc_prng.h ****  *
 216:C:/Workspace/DAVE-4.4.2-64Bit/xmc1400-getstarted-optiga-trust-m/Libraries/XMCLib/inc\xmc_prng.h ****  * \par<b>Description: </b><br>
 217:C:/Workspace/DAVE-4.4.2-64Bit/xmc1400-getstarted-optiga-trust-m/Libraries/XMCLib/inc\xmc_prng.h ****  * Enables the Streaming mode <br>
 218:C:/Workspace/DAVE-4.4.2-64Bit/xmc1400-getstarted-optiga-trust-m/Libraries/XMCLib/inc\xmc_prng.h ****  *
 219:C:/Workspace/DAVE-4.4.2-64Bit/xmc1400-getstarted-optiga-trust-m/Libraries/XMCLib/inc\xmc_prng.h ****  * \par
 220:C:/Workspace/DAVE-4.4.2-64Bit/xmc1400-getstarted-optiga-trust-m/Libraries/XMCLib/inc\xmc_prng.h ****  * The function enables the streaming mode and disables the PRNG key loading mode by resetting the
 221:C:/Workspace/DAVE-4.4.2-64Bit/xmc1400-getstarted-optiga-trust-m/Libraries/XMCLib/inc\xmc_prng.h ****  * CTRL.KLD bit. 
 222:C:/Workspace/DAVE-4.4.2-64Bit/xmc1400-getstarted-optiga-trust-m/Libraries/XMCLib/inc\xmc_prng.h ****  *
 223:C:/Workspace/DAVE-4.4.2-64Bit/xmc1400-getstarted-optiga-trust-m/Libraries/XMCLib/inc\xmc_prng.h ****  * \par<b>Related APIs:</b><br>
 224:C:/Workspace/DAVE-4.4.2-64Bit/xmc1400-getstarted-optiga-trust-m/Libraries/XMCLib/inc\xmc_prng.h ****  * XMC_PRNG_EnableKeyLoadingMode()
 225:C:/Workspace/DAVE-4.4.2-64Bit/xmc1400-getstarted-optiga-trust-m/Libraries/XMCLib/inc\xmc_prng.h ****  */
 226:C:/Workspace/DAVE-4.4.2-64Bit/xmc1400-getstarted-optiga-trust-m/Libraries/XMCLib/inc\xmc_prng.h **** __STATIC_INLINE void XMC_PRNG_EnableStreamingMode(void)
 227:C:/Workspace/DAVE-4.4.2-64Bit/xmc1400-getstarted-optiga-trust-m/Libraries/XMCLib/inc\xmc_prng.h **** {
 228:C:/Workspace/DAVE-4.4.2-64Bit/xmc1400-getstarted-optiga-trust-m/Libraries/XMCLib/inc\xmc_prng.h ****   PRNG->CTRL &= (uint16_t)~PRNG_CTRL_KLD_Msk;
 229:C:/Workspace/DAVE-4.4.2-64Bit/xmc1400-getstarted-optiga-trust-m/Libraries/XMCLib/inc\xmc_prng.h **** }
 230:C:/Workspace/DAVE-4.4.2-64Bit/xmc1400-getstarted-optiga-trust-m/Libraries/XMCLib/inc\xmc_prng.h **** 
 231:C:/Workspace/DAVE-4.4.2-64Bit/xmc1400-getstarted-optiga-trust-m/Libraries/XMCLib/inc\xmc_prng.h **** /**
 232:C:/Workspace/DAVE-4.4.2-64Bit/xmc1400-getstarted-optiga-trust-m/Libraries/XMCLib/inc\xmc_prng.h ****  * @param key Key word to load into PRNG WORD register
 233:C:/Workspace/DAVE-4.4.2-64Bit/xmc1400-getstarted-optiga-trust-m/Libraries/XMCLib/inc\xmc_prng.h ****  * @return None
 234:C:/Workspace/DAVE-4.4.2-64Bit/xmc1400-getstarted-optiga-trust-m/Libraries/XMCLib/inc\xmc_prng.h ****  *
 235:C:/Workspace/DAVE-4.4.2-64Bit/xmc1400-getstarted-optiga-trust-m/Libraries/XMCLib/inc\xmc_prng.h ****  * \par<b>Description: </b><br>
 236:C:/Workspace/DAVE-4.4.2-64Bit/xmc1400-getstarted-optiga-trust-m/Libraries/XMCLib/inc\xmc_prng.h ****  * Loads a partial key word to the PRNG WORD register <br>
 237:C:/Workspace/DAVE-4.4.2-64Bit/xmc1400-getstarted-optiga-trust-m/Libraries/XMCLib/inc\xmc_prng.h ****  *
 238:C:/Workspace/DAVE-4.4.2-64Bit/xmc1400-getstarted-optiga-trust-m/Libraries/XMCLib/inc\xmc_prng.h ****  * \par
 239:C:/Workspace/DAVE-4.4.2-64Bit/xmc1400-getstarted-optiga-trust-m/Libraries/XMCLib/inc\xmc_prng.h ****  * The function loads partial key word to WORD registr. These partial
 240:C:/Workspace/DAVE-4.4.2-64Bit/xmc1400-getstarted-optiga-trust-m/Libraries/XMCLib/inc\xmc_prng.h ****  * words are sequentially written and loading a key word will take 16 clock
 241:C:/Workspace/DAVE-4.4.2-64Bit/xmc1400-getstarted-optiga-trust-m/Libraries/XMCLib/inc\xmc_prng.h ****  * cycles. The CHK.RDV bit is set to '0' while loading is in progress. '1' indicates
 242:C:/Workspace/DAVE-4.4.2-64Bit/xmc1400-getstarted-optiga-trust-m/Libraries/XMCLib/inc\xmc_prng.h ****  * that the next partial key word can be written to WORD register. 
 243:C:/Workspace/DAVE-4.4.2-64Bit/xmc1400-getstarted-optiga-trust-m/Libraries/XMCLib/inc\xmc_prng.h ****  */
 244:C:/Workspace/DAVE-4.4.2-64Bit/xmc1400-getstarted-optiga-trust-m/Libraries/XMCLib/inc\xmc_prng.h **** __STATIC_INLINE void XMC_PRNG_LoadKeyWords(uint16_t key)
 245:C:/Workspace/DAVE-4.4.2-64Bit/xmc1400-getstarted-optiga-trust-m/Libraries/XMCLib/inc\xmc_prng.h **** {
 246:C:/Workspace/DAVE-4.4.2-64Bit/xmc1400-getstarted-optiga-trust-m/Libraries/XMCLib/inc\xmc_prng.h ****   PRNG->WORD = key;
  72              	 .loc 2 246 0
  73 0022 1380     	 strh r3,[r2]
  74              	.LVL4:
  75              	.L2:
  76              	.LBE23:
  77              	.LBE22:
  78              	.LBB24:
  79              	.LBB25:
 191:C:/Workspace/DAVE-4.4.2-64Bit/xmc1400-getstarted-optiga-trust-m/Libraries/XMCLib/inc\xmc_prng.h **** }
  80              	 .loc 2 191 0 discriminator 1
  81 0024 9588     	 ldrh r5,[r2,#4]
  82 0026 124B     	 ldr r3,.L5
  83              	.LBE25:
  84              	.LBE24:
  80:../Libraries/XMCLib/src/xmc_prng.c ****     while (PRNG_CHK_RDV_Msk != XMC_PRNG_CheckValidStatus());
  85              	 .loc 1 80 0 discriminator 1
  86 0028 ED07     	 lsl r5,r5,#31
  87 002a FBD5     	 bpl .L2
  88 002c 0231     	 add r1,r1,#2
  77:../Libraries/XMCLib/src/xmc_prng.c ****   {
  89              	 .loc 1 77 0 discriminator 2
  90 002e A142     	 cmp r1,r4
  91 0030 F6D1     	 bne .L3
  92              	.LBB26:
  93              	.LBB27:
 228:C:/Workspace/DAVE-4.4.2-64Bit/xmc1400-getstarted-optiga-trust-m/Libraries/XMCLib/inc\xmc_prng.h **** }
  94              	 .loc 2 228 0
  95 0032 0821     	 mov r1,#8
  96 0034 9A89     	 ldrh r2,[r3,#12]
  97              	.LVL5:
  98              	.LBE27:
  99              	.LBE26:
  81:../Libraries/XMCLib/src/xmc_prng.c ****   }
  82:../Libraries/XMCLib/src/xmc_prng.c ****   
  83:../Libraries/XMCLib/src/xmc_prng.c ****   XMC_PRNG_EnableStreamingMode();
  84:../Libraries/XMCLib/src/xmc_prng.c **** 
  85:../Libraries/XMCLib/src/xmc_prng.c ****   /* Warm up phase: Read and discard 64 bits */
  86:../Libraries/XMCLib/src/xmc_prng.c ****   read_warm_up = PRNG->WORD;
  87:../Libraries/XMCLib/src/xmc_prng.c ****   read_warm_up = PRNG->WORD;
  88:../Libraries/XMCLib/src/xmc_prng.c ****   read_warm_up = PRNG->WORD;
  89:../Libraries/XMCLib/src/xmc_prng.c ****   reg_val      = PRNG->WORD;
  90:../Libraries/XMCLib/src/xmc_prng.c ****   read_warm_up &= reg_val;
  91:../Libraries/XMCLib/src/xmc_prng.c **** 
  92:../Libraries/XMCLib/src/xmc_prng.c ****   /* Configure block size either byte (8 bit) or word (16 bit) */
  93:../Libraries/XMCLib/src/xmc_prng.c ****   XMC_PRNG_SetRandomDataBlockSize(prng->block_size);
  94:../Libraries/XMCLib/src/xmc_prng.c **** 
  95:../Libraries/XMCLib/src/xmc_prng.c ****   /*
  96:../Libraries/XMCLib/src/xmc_prng.c ****    * Checks for reset value for "random data block size". If reset,
  97:../Libraries/XMCLib/src/xmc_prng.c ****    * PRNG is not initialized
  98:../Libraries/XMCLib/src/xmc_prng.c ****    */
  99:../Libraries/XMCLib/src/xmc_prng.c ****   if ((uint16_t)XMC_PRNG_RDBS_RESET == (PRNG->CTRL & (uint16_t)PRNG_CTRL_RDBS_Msk))
 100:../Libraries/XMCLib/src/xmc_prng.c ****   {
 101:../Libraries/XMCLib/src/xmc_prng.c ****     status = XMC_PRNG_NOT_INITIALIZED;
 102:../Libraries/XMCLib/src/xmc_prng.c ****   }
 103:../Libraries/XMCLib/src/xmc_prng.c **** 
 104:../Libraries/XMCLib/src/xmc_prng.c ****   return status;
 105:../Libraries/XMCLib/src/xmc_prng.c **** }
 100              	 .loc 1 105 0
 101              	 
 102              	.LBB29:
 103              	.LBB28:
 228:C:/Workspace/DAVE-4.4.2-64Bit/xmc1400-getstarted-optiga-trust-m/Libraries/XMCLib/inc\xmc_prng.h **** }
 104              	 .loc 2 228 0
 105 0036 8A43     	 bic r2,r1
 106 0038 9A81     	 strh r2,[r3,#12]
 107              	.LVL6:
 108              	.LBE28:
 109              	.LBE29:
  86:../Libraries/XMCLib/src/xmc_prng.c ****   read_warm_up = PRNG->WORD;
 110              	 .loc 1 86 0
 111 003a 6A46     	 mov r2,sp
 112 003c 1988     	 ldrh r1,[r3]
 113 003e 89B2     	 uxth r1,r1
 114 0040 D180     	 strh r1,[r2,#6]
  87:../Libraries/XMCLib/src/xmc_prng.c ****   read_warm_up = PRNG->WORD;
 115              	 .loc 1 87 0
 116 0042 1988     	 ldrh r1,[r3]
 117 0044 89B2     	 uxth r1,r1
 118 0046 D180     	 strh r1,[r2,#6]
  88:../Libraries/XMCLib/src/xmc_prng.c ****   reg_val      = PRNG->WORD;
 119              	 .loc 1 88 0
 120 0048 1988     	 ldrh r1,[r3]
 121 004a 89B2     	 uxth r1,r1
 122 004c D180     	 strh r1,[r2,#6]
  89:../Libraries/XMCLib/src/xmc_prng.c ****   read_warm_up &= reg_val;
 123              	 .loc 1 89 0
 124 004e 1C88     	 ldrh r4,[r3]
 125              	.LVL7:
  90:../Libraries/XMCLib/src/xmc_prng.c **** 
 126              	 .loc 1 90 0
 127 0050 D188     	 ldrh r1,[r2,#6]
 128 0052 2140     	 and r1,r4
 129 0054 D180     	 strh r1,[r2,#6]
 130              	.LVL8:
 131              	.LBB30:
 132              	.LBB31:
 174:C:/Workspace/DAVE-4.4.2-64Bit/xmc1400-getstarted-optiga-trust-m/Libraries/XMCLib/inc\xmc_prng.h ****                           ((uint32_t)block_size << (uint32_t)PRNG_CTRL_RDBS_Pos));
 133              	 .loc 2 174 0
 134 0056 0622     	 mov r2,#6
 135 0058 9989     	 ldrh r1,[r3,#12]
 136 005a 807A     	 ldrb r0,[r0,#10]
 137              	.LVL9:
 138 005c 9143     	 bic r1,r2
 139 005e 4000     	 lsl r0,r0,#1
 140              	.LVL10:
 141 0060 0143     	 orr r1,r0
 142 0062 9981     	 strh r1,[r3,#12]
 143              	.LVL11:
 144              	.LBE31:
 145              	.LBE30:
  99:../Libraries/XMCLib/src/xmc_prng.c ****   {
 146              	 .loc 1 99 0
 147 0064 9889     	 ldrh r0,[r3,#12]
 148              	.LVL12:
 149 0066 0240     	 and r2,r0
 150 0068 501E     	 sub r0,r2,#1
 151 006a 8241     	 sbc r2,r2,r0
 152              	.LVL13:
 104:../Libraries/XMCLib/src/xmc_prng.c **** }
 153              	 .loc 1 104 0
 154 006c D0B2     	 uxtb r0,r2
 155              	.LVL14:
 156              	 .loc 1 105 0
 157 006e 3EBD     	 pop {r1,r2,r3,r4,r5,pc}
 158              	.L6:
 159              	 .align 2
 160              	.L5:
 161 0070 00000248 	 .word 1208090624
 162              	 .cfi_endproc
 163              	.LFE53:
 165              	 .text
 166              	.Letext0:
 167              	 .file 3 "c:\\dave_4-4-2_64bit\\dave-ide-4.4.2-64bit\\eclipse\\arm-gcc-49\\arm-none-eabi\\include\\machine\\_default_types.h"
 168              	 .file 4 "c:\\dave_4-4-2_64bit\\dave-ide-4.4.2-64bit\\eclipse\\arm-gcc-49\\arm-none-eabi\\include\\stdint.h"
 169              	 .file 5 "C:/Workspace/DAVE-4.4.2-64Bit/xmc1400-getstarted-optiga-trust-m/Libraries/CMSIS/Infineon/XMC1400_series/Include/XMC1400.h"
 170              	 .file 6 "C:/Workspace/DAVE-4.4.2-64Bit/xmc1400-getstarted-optiga-trust-m/Libraries/CMSIS/Include/cmsis_gcc.h"