   1              	 .cpu cortex-m0
   2              	 .fpu softvfp
   3              	 .eabi_attribute 20,1
   4              	 .eabi_attribute 21,1
   5              	 .eabi_attribute 23,3
   6              	 .eabi_attribute 24,1
   7              	 .eabi_attribute 25,1
   8              	 .eabi_attribute 26,1
   9              	 .eabi_attribute 30,4
  10              	 .eabi_attribute 34,0
  11              	 .eabi_attribute 18,4
  12              	 .code 16
  13              	 .file "xmc_ccu4.c"
  14              	 .text
  15              	.Ltext0:
  16              	 .cfi_sections .debug_frame
  17              	 .section .text.XMC_CCU4_lUngateClock,"ax",%progbits
  18              	 .align 1
  19              	 .code 16
  20              	 .thumb_func
  22              	XMC_CCU4_lUngateClock:
  23              	.LFB119:
  24              	 .file 1 "../Libraries/XMCLib/src/xmc_ccu4.c"
   1:../Libraries/XMCLib/src/xmc_ccu4.c **** /**
   2:../Libraries/XMCLib/src/xmc_ccu4.c ****  * @file xmc_ccu4.c
   3:../Libraries/XMCLib/src/xmc_ccu4.c ****  * @date 2017-04-27
   4:../Libraries/XMCLib/src/xmc_ccu4.c ****  *
   5:../Libraries/XMCLib/src/xmc_ccu4.c ****  * @cond
   6:../Libraries/XMCLib/src/xmc_ccu4.c ****  **************************************************************************************************
   7:../Libraries/XMCLib/src/xmc_ccu4.c ****  * XMClib v2.1.24 - XMC Peripheral Driver Library 
   8:../Libraries/XMCLib/src/xmc_ccu4.c ****  *
   9:../Libraries/XMCLib/src/xmc_ccu4.c ****  * Copyright (c) 2015-2019, Infineon Technologies AG
  10:../Libraries/XMCLib/src/xmc_ccu4.c ****  * All rights reserved.                        
  11:../Libraries/XMCLib/src/xmc_ccu4.c ****  *                                             
  12:../Libraries/XMCLib/src/xmc_ccu4.c ****  * Redistribution and use in source and binary forms, with or without modification,are permitted pr
  13:../Libraries/XMCLib/src/xmc_ccu4.c ****  * following conditions are met:   
  14:../Libraries/XMCLib/src/xmc_ccu4.c ****  *                                                                              
  15:../Libraries/XMCLib/src/xmc_ccu4.c ****  * Redistributions of source code must retain the above copyright notice, this list of conditions a
  16:../Libraries/XMCLib/src/xmc_ccu4.c ****  * disclaimer.                        
  17:../Libraries/XMCLib/src/xmc_ccu4.c ****  * 
  18:../Libraries/XMCLib/src/xmc_ccu4.c ****  * Redistributions in binary form must reproduce the above copyright notice, this list of condition
  19:../Libraries/XMCLib/src/xmc_ccu4.c ****  * disclaimer in the documentation and/or other materials provided with the distribution.          
  20:../Libraries/XMCLib/src/xmc_ccu4.c ****  * 
  21:../Libraries/XMCLib/src/xmc_ccu4.c ****  * Neither the name of the copyright holders nor the names of its contributors may be used to endor
  22:../Libraries/XMCLib/src/xmc_ccu4.c ****  * products derived from this software without specific prior written permission.                  
  23:../Libraries/XMCLib/src/xmc_ccu4.c ****  *                                                                              
  24:../Libraries/XMCLib/src/xmc_ccu4.c ****  * THIS SOFTWARE IS PROVIDED BY THE COPYRIGHT HOLDERS AND CONTRIBUTORS "AS IS" AND ANY EXPRESS OR I
  25:../Libraries/XMCLib/src/xmc_ccu4.c ****  * INCLUDING, BUT NOT LIMITED TO, THE IMPLIED WARRANTIES OF MERCHANTABILITY AND FITNESS FOR A PARTI
  26:../Libraries/XMCLib/src/xmc_ccu4.c ****  * DISCLAIMED. IN NO EVENT SHALL THE COPYRIGHT HOLDER OR CONTRIBUTORS BE LIABLE  FOR ANY DIRECT, IN
  27:../Libraries/XMCLib/src/xmc_ccu4.c ****  * SPECIAL, EXEMPLARY, OR CONSEQUENTIAL DAMAGES (INCLUDING, BUT NOT LIMITED TO, PROCUREMENT OF SUBS
  28:../Libraries/XMCLib/src/xmc_ccu4.c ****  * SERVICES; LOSS OF USE, DATA, OR PROFITS; OR BUSINESS INTERRUPTION) HOWEVER CAUSED AND ON ANY THE
  29:../Libraries/XMCLib/src/xmc_ccu4.c ****  * WHETHER IN CONTRACT, STRICT LIABILITY,OR TORT (INCLUDING NEGLIGENCE OR OTHERWISE) ARISING IN ANY
  30:../Libraries/XMCLib/src/xmc_ccu4.c ****  * OF THIS SOFTWARE, EVEN IF ADVISED OF THE POSSIBILITY OF SUCH DAMAGE.                            
  31:../Libraries/XMCLib/src/xmc_ccu4.c ****  *                                                                              
  32:../Libraries/XMCLib/src/xmc_ccu4.c ****  * To improve the quality of the software, users are encouraged to share modifications, enhancement
  33:../Libraries/XMCLib/src/xmc_ccu4.c ****  * Infineon Technologies AG dave@infineon.com).                                                    
  34:../Libraries/XMCLib/src/xmc_ccu4.c ****  **************************************************************************************************
  35:../Libraries/XMCLib/src/xmc_ccu4.c ****  *
  36:../Libraries/XMCLib/src/xmc_ccu4.c ****  * Change History
  37:../Libraries/XMCLib/src/xmc_ccu4.c ****  * --------------
  38:../Libraries/XMCLib/src/xmc_ccu4.c ****  *
  39:../Libraries/XMCLib/src/xmc_ccu4.c ****  * 2015-02-20:
  40:../Libraries/XMCLib/src/xmc_ccu4.c ****  *     - Initial <br>
  41:../Libraries/XMCLib/src/xmc_ccu4.c ****  *
  42:../Libraries/XMCLib/src/xmc_ccu4.c ****  * 2015-06-20:
  43:../Libraries/XMCLib/src/xmc_ccu4.c ****  *     - Removed definition of GetDriverVersion API <br>
  44:../Libraries/XMCLib/src/xmc_ccu4.c ****  *
  45:../Libraries/XMCLib/src/xmc_ccu4.c ****  * 2015-07-01:
  46:../Libraries/XMCLib/src/xmc_ccu4.c ****  *     - In XMC_CCU4_SLICE_StartConfig(), Options in XMC_ASSERT check for start mode is corrected. 
  47:../Libraries/XMCLib/src/xmc_ccu4.c ****  *
  48:../Libraries/XMCLib/src/xmc_ccu4.c ****  * 2015-07-24:
  49:../Libraries/XMCLib/src/xmc_ccu4.c ****  *     - XMC_CCU4_SLICE_ConfigureStatusBitOverrideEvent() is updated to support XMC14 device. <br>
  50:../Libraries/XMCLib/src/xmc_ccu4.c ****  *
  51:../Libraries/XMCLib/src/xmc_ccu4.c ****  * 2015-08-17:
  52:../Libraries/XMCLib/src/xmc_ccu4.c ****  *     - Start of prescaler XMC_CCU4_StartPrescaler() is invoked in XMC_CCU4_Init() API. <br>
  53:../Libraries/XMCLib/src/xmc_ccu4.c ****  *     - Bug fix XMC_CCU4_SLICE_ConfigureEvent() during the level setting for XMC14 devices. <br>
  54:../Libraries/XMCLib/src/xmc_ccu4.c ****  *     - XMC_CCU4_EnableShadowTransfer() definition is removed, since the API is made as inline. <b
  55:../Libraries/XMCLib/src/xmc_ccu4.c ****  *
  56:../Libraries/XMCLib/src/xmc_ccu4.c ****  * 2015-10-07:
  57:../Libraries/XMCLib/src/xmc_ccu4.c ****  *     - XMC_CCU4_SLICE_GetEvent() is made as inline.
  58:../Libraries/XMCLib/src/xmc_ccu4.c ****  *     - DOC updates for the newly added APIs.
  59:../Libraries/XMCLib/src/xmc_ccu4.c ****  *
  60:../Libraries/XMCLib/src/xmc_ccu4.c ****  * 2017-02-25:
  61:../Libraries/XMCLib/src/xmc_ccu4.c ****  *     - XMC_CCU4_lAssertReset(), XMC_CCU4_lDeassertReset(), XMC_CCU4_lGateClock() and XMC_CCU4_lUn
  62:../Libraries/XMCLib/src/xmc_ccu4.c ****  *
  63:../Libraries/XMCLib/src/xmc_ccu4.c ****  * 2017-04-27:
  64:../Libraries/XMCLib/src/xmc_ccu4.c ****  *     - XMC_CCU4_SLICE_SetPrescaler() changed div_val parameter to type XMC_CCU4_SLICE_PRESCALER_t
  65:../Libraries/XMCLib/src/xmc_ccu4.c ****  *
  66:../Libraries/XMCLib/src/xmc_ccu4.c ****  * @endcond
  67:../Libraries/XMCLib/src/xmc_ccu4.c ****  */
  68:../Libraries/XMCLib/src/xmc_ccu4.c ****  
  69:../Libraries/XMCLib/src/xmc_ccu4.c **** /**************************************************************************************************
  70:../Libraries/XMCLib/src/xmc_ccu4.c ****  * HEADER FILES
  71:../Libraries/XMCLib/src/xmc_ccu4.c ****  **************************************************************************************************
  72:../Libraries/XMCLib/src/xmc_ccu4.c **** #include "xmc_ccu4.h"
  73:../Libraries/XMCLib/src/xmc_ccu4.c **** 
  74:../Libraries/XMCLib/src/xmc_ccu4.c **** #if defined(CCU40)
  75:../Libraries/XMCLib/src/xmc_ccu4.c **** #include "xmc_scu.h"
  76:../Libraries/XMCLib/src/xmc_ccu4.c **** /**************************************************************************************************
  77:../Libraries/XMCLib/src/xmc_ccu4.c ****  * MACROS
  78:../Libraries/XMCLib/src/xmc_ccu4.c ****  **************************************************************************************************
  79:../Libraries/XMCLib/src/xmc_ccu4.c **** #define XMC_CCU4_NUM_SLICES_PER_MODULE          (4U)
  80:../Libraries/XMCLib/src/xmc_ccu4.c **** #define XMC_CCU4_SLICE_DITHER_PERIOD_MASK       (1U)
  81:../Libraries/XMCLib/src/xmc_ccu4.c **** #define XMC_CCU4_SLICE_DITHER_DUTYCYCLE_MASK    (2U)
  82:../Libraries/XMCLib/src/xmc_ccu4.c **** #define XMC_CCU4_SLICE_EVENT_EDGE_CONFIG_MASK   (3U)
  83:../Libraries/XMCLib/src/xmc_ccu4.c **** #define XMC_CCU4_SLICE_EVENT_LEVEL_CONFIG_MASK  (1U)
  84:../Libraries/XMCLib/src/xmc_ccu4.c **** #define XMC_CCU4_SLICE_EVENT_FILTER_CONFIG_MASK (3U)
  85:../Libraries/XMCLib/src/xmc_ccu4.c **** #if defined(CCU4V3) /* Defined for XMC1400 devices only */
  86:../Libraries/XMCLib/src/xmc_ccu4.c **** #define XMC_CCU4_SLICE_EVENT_INPUT_CONFIG_MASK  CCU4_CC4_INS1_EV0IS_Msk
  87:../Libraries/XMCLib/src/xmc_ccu4.c **** #else
  88:../Libraries/XMCLib/src/xmc_ccu4.c **** #define XMC_CCU4_SLICE_EVENT_INPUT_CONFIG_MASK  CCU4_CC4_INS_EV0IS_Msk
  89:../Libraries/XMCLib/src/xmc_ccu4.c **** #endif
  90:../Libraries/XMCLib/src/xmc_ccu4.c **** #define XMC_CCU4_GIDLC_CLOCK_MASK               (15U)
  91:../Libraries/XMCLib/src/xmc_ccu4.c **** #define XMC_CCU4_GCSS_SLICE0_MASK               (1U)
  92:../Libraries/XMCLib/src/xmc_ccu4.c **** #define XMC_CCU4_GCSS_SLICE1_MASK               (16U)
  93:../Libraries/XMCLib/src/xmc_ccu4.c **** #define XMC_CCU4_GCSS_SLICE2_MASK               (256U)
  94:../Libraries/XMCLib/src/xmc_ccu4.c **** #define XMC_CCU4_GCSS_SLICE3_MASK               (4096U)
  95:../Libraries/XMCLib/src/xmc_ccu4.c **** 
  96:../Libraries/XMCLib/src/xmc_ccu4.c **** /** Macro to check if the clock selected enum passed is valid */
  97:../Libraries/XMCLib/src/xmc_ccu4.c **** #define XMC_CCU4_SLICE_CHECK_CLOCK(clock) \
  98:../Libraries/XMCLib/src/xmc_ccu4.c ****     ((clock == XMC_CCU4_CLOCK_SCU)        || \
  99:../Libraries/XMCLib/src/xmc_ccu4.c ****      (clock == XMC_CCU4_CLOCK_EXTERNAL_A) || \
 100:../Libraries/XMCLib/src/xmc_ccu4.c ****      (clock == XMC_CCU4_CLOCK_EXTERNAL_B) || \
 101:../Libraries/XMCLib/src/xmc_ccu4.c ****      (clock == XMC_CCU4_CLOCK_EXTERNAL_C))
 102:../Libraries/XMCLib/src/xmc_ccu4.c **** 
 103:../Libraries/XMCLib/src/xmc_ccu4.c **** /** Macro used to check if the event ID is valid*/
 104:../Libraries/XMCLib/src/xmc_ccu4.c **** #define XMC_CCU4_SLICE_CHECK_EVENT_ID(event_id) \
 105:../Libraries/XMCLib/src/xmc_ccu4.c ****     ((event_id == XMC_CCU4_SLICE_EVENT_NONE)|| \
 106:../Libraries/XMCLib/src/xmc_ccu4.c ****      (event_id == XMC_CCU4_SLICE_EVENT_0)   || \
 107:../Libraries/XMCLib/src/xmc_ccu4.c ****      (event_id == XMC_CCU4_SLICE_EVENT_1)   || \
 108:../Libraries/XMCLib/src/xmc_ccu4.c ****      (event_id == XMC_CCU4_SLICE_EVENT_2))
 109:../Libraries/XMCLib/src/xmc_ccu4.c **** 
 110:../Libraries/XMCLib/src/xmc_ccu4.c **** /** Macro used to check if the edge sensitivity is valid*/
 111:../Libraries/XMCLib/src/xmc_ccu4.c **** #define XMC_CCU4_SLICE_CHECK_EDGE_SENSITIVITY(edge) \
 112:../Libraries/XMCLib/src/xmc_ccu4.c ****     ((edge == XMC_CCU4_SLICE_EVENT_EDGE_SENSITIVITY_NONE)        || \
 113:../Libraries/XMCLib/src/xmc_ccu4.c ****      (edge == XMC_CCU4_SLICE_EVENT_EDGE_SENSITIVITY_RISING_EDGE) || \
 114:../Libraries/XMCLib/src/xmc_ccu4.c ****      (edge == XMC_CCU4_SLICE_EVENT_EDGE_SENSITIVITY_FALLING_EDGE)|| \
 115:../Libraries/XMCLib/src/xmc_ccu4.c ****      (edge == XMC_CCU4_SLICE_EVENT_EDGE_SENSITIVITY_DUAL_EDGE))
 116:../Libraries/XMCLib/src/xmc_ccu4.c **** 
 117:../Libraries/XMCLib/src/xmc_ccu4.c **** /** Macro used to check if the filter clock cycles are valid */
 118:../Libraries/XMCLib/src/xmc_ccu4.c **** #define XMC_CCU4_SLICE_CHECK_EVENT_FILTER(cycles) \
 119:../Libraries/XMCLib/src/xmc_ccu4.c ****     ((cycles == XMC_CCU4_SLICE_EVENT_FILTER_DISABLED) || \
 120:../Libraries/XMCLib/src/xmc_ccu4.c ****      (cycles == XMC_CCU4_SLICE_EVENT_FILTER_3_CYCLES) || \
 121:../Libraries/XMCLib/src/xmc_ccu4.c ****      (cycles == XMC_CCU4_SLICE_EVENT_FILTER_5_CYCLES) || \
 122:../Libraries/XMCLib/src/xmc_ccu4.c ****      (cycles == XMC_CCU4_SLICE_EVENT_FILTER_7_CYCLES))
 123:../Libraries/XMCLib/src/xmc_ccu4.c **** 
 124:../Libraries/XMCLib/src/xmc_ccu4.c **** /** Macro used to check if the Multi-channel input related action is valid*/
 125:../Libraries/XMCLib/src/xmc_ccu4.c **** #define XMC_CCU4_SLICE_CHECK_MCS_ACTION(mcs_action) \
 126:../Libraries/XMCLib/src/xmc_ccu4.c ****     ((mcs_action == XMC_CCU4_SLICE_MCMS_ACTION_TRANSFER_PR_CR)      || \
 127:../Libraries/XMCLib/src/xmc_ccu4.c ****      (mcs_action == XMC_CCU4_SLICE_MCMS_ACTION_TRANSFER_PR_CR_PCMP) || \
 128:../Libraries/XMCLib/src/xmc_ccu4.c ****      (mcs_action == XMC_CCU4_SLICE_MCMS_ACTION_TRANSFER_PR_CR_PCMP_DIT))
 129:../Libraries/XMCLib/src/xmc_ccu4.c **** 
 130:../Libraries/XMCLib/src/xmc_ccu4.c **** /** Macro used to check if the SR line is valid*/
 131:../Libraries/XMCLib/src/xmc_ccu4.c **** #define XMC_CCU4_SLICE_CHECK_SR_ID(id) \
 132:../Libraries/XMCLib/src/xmc_ccu4.c ****     ((id == XMC_CCU4_SLICE_SR_ID_0) || \
 133:../Libraries/XMCLib/src/xmc_ccu4.c ****      (id == XMC_CCU4_SLICE_SR_ID_1) || \
 134:../Libraries/XMCLib/src/xmc_ccu4.c ****      (id == XMC_CCU4_SLICE_SR_ID_2) || \
 135:../Libraries/XMCLib/src/xmc_ccu4.c ****      (id == XMC_CCU4_SLICE_SR_ID_3))
 136:../Libraries/XMCLib/src/xmc_ccu4.c **** 
 137:../Libraries/XMCLib/src/xmc_ccu4.c **** /** Macro to check if the end mode enum passed is valid */
 138:../Libraries/XMCLib/src/xmc_ccu4.c **** #define XMC_CCU4_CHECK_END_MODE(end_mode) \
 139:../Libraries/XMCLib/src/xmc_ccu4.c ****     ((end_mode == XMC_CCU4_SLICE_END_MODE_TIMER_STOP) || \
 140:../Libraries/XMCLib/src/xmc_ccu4.c ****      (end_mode == XMC_CCU4_SLICE_END_MODE_TIMER_CLEAR) || \
 141:../Libraries/XMCLib/src/xmc_ccu4.c ****      (end_mode == XMC_CCU4_SLICE_END_MODE_TIMER_STOP_CLEAR))
 142:../Libraries/XMCLib/src/xmc_ccu4.c **** 
 143:../Libraries/XMCLib/src/xmc_ccu4.c **** /**************************************************************************************************
 144:../Libraries/XMCLib/src/xmc_ccu4.c ****  * LOCAL ROUTINES
 145:../Libraries/XMCLib/src/xmc_ccu4.c ****  **************************************************************************************************
 146:../Libraries/XMCLib/src/xmc_ccu4.c **** #if defined(PERIPHERAL_RESET_SUPPORTED)
 147:../Libraries/XMCLib/src/xmc_ccu4.c **** __STATIC_INLINE void XMC_CCU4_lAssertReset(const XMC_CCU4_MODULE_t *const module)
 148:../Libraries/XMCLib/src/xmc_ccu4.c **** {
 149:../Libraries/XMCLib/src/xmc_ccu4.c ****   if (module == CCU40)
 150:../Libraries/XMCLib/src/xmc_ccu4.c ****   {
 151:../Libraries/XMCLib/src/xmc_ccu4.c ****     XMC_SCU_RESET_AssertPeripheralReset(XMC_SCU_PERIPHERAL_RESET_CCU40);
 152:../Libraries/XMCLib/src/xmc_ccu4.c ****   }
 153:../Libraries/XMCLib/src/xmc_ccu4.c **** #if defined(CCU41)
 154:../Libraries/XMCLib/src/xmc_ccu4.c ****   else if (module == CCU41)
 155:../Libraries/XMCLib/src/xmc_ccu4.c ****   {
 156:../Libraries/XMCLib/src/xmc_ccu4.c ****     XMC_SCU_RESET_AssertPeripheralReset(XMC_SCU_PERIPHERAL_RESET_CCU41);
 157:../Libraries/XMCLib/src/xmc_ccu4.c ****   }
 158:../Libraries/XMCLib/src/xmc_ccu4.c **** #endif
 159:../Libraries/XMCLib/src/xmc_ccu4.c **** #if defined(CCU42)
 160:../Libraries/XMCLib/src/xmc_ccu4.c ****   else if (module == CCU42)
 161:../Libraries/XMCLib/src/xmc_ccu4.c ****   {
 162:../Libraries/XMCLib/src/xmc_ccu4.c ****     XMC_SCU_RESET_AssertPeripheralReset(XMC_SCU_PERIPHERAL_RESET_CCU42);
 163:../Libraries/XMCLib/src/xmc_ccu4.c ****   }
 164:../Libraries/XMCLib/src/xmc_ccu4.c **** #endif
 165:../Libraries/XMCLib/src/xmc_ccu4.c **** #if defined(CCU43)
 166:../Libraries/XMCLib/src/xmc_ccu4.c ****   else if (module == CCU43)
 167:../Libraries/XMCLib/src/xmc_ccu4.c ****   {
 168:../Libraries/XMCLib/src/xmc_ccu4.c ****     XMC_SCU_RESET_AssertPeripheralReset(XMC_SCU_PERIPHERAL_RESET_CCU43);
 169:../Libraries/XMCLib/src/xmc_ccu4.c ****   }
 170:../Libraries/XMCLib/src/xmc_ccu4.c **** #endif
 171:../Libraries/XMCLib/src/xmc_ccu4.c ****   else
 172:../Libraries/XMCLib/src/xmc_ccu4.c ****   {
 173:../Libraries/XMCLib/src/xmc_ccu4.c ****     XMC_ASSERT("XMC_CCU4_lAssertReset:Invalid Module Pointer", 0);
 174:../Libraries/XMCLib/src/xmc_ccu4.c ****   }
 175:../Libraries/XMCLib/src/xmc_ccu4.c **** }
 176:../Libraries/XMCLib/src/xmc_ccu4.c **** 
 177:../Libraries/XMCLib/src/xmc_ccu4.c **** __STATIC_INLINE void XMC_CCU4_lDeassertReset(const XMC_CCU4_MODULE_t *const module)
 178:../Libraries/XMCLib/src/xmc_ccu4.c **** {
 179:../Libraries/XMCLib/src/xmc_ccu4.c ****   if (module == CCU40)
 180:../Libraries/XMCLib/src/xmc_ccu4.c ****   {
 181:../Libraries/XMCLib/src/xmc_ccu4.c ****     XMC_SCU_RESET_DeassertPeripheralReset(XMC_SCU_PERIPHERAL_RESET_CCU40);
 182:../Libraries/XMCLib/src/xmc_ccu4.c ****   }
 183:../Libraries/XMCLib/src/xmc_ccu4.c **** #if defined(CCU41)
 184:../Libraries/XMCLib/src/xmc_ccu4.c ****   else if (module == CCU41)
 185:../Libraries/XMCLib/src/xmc_ccu4.c ****   {
 186:../Libraries/XMCLib/src/xmc_ccu4.c ****     XMC_SCU_RESET_DeassertPeripheralReset(XMC_SCU_PERIPHERAL_RESET_CCU41);
 187:../Libraries/XMCLib/src/xmc_ccu4.c ****   }
 188:../Libraries/XMCLib/src/xmc_ccu4.c **** #endif
 189:../Libraries/XMCLib/src/xmc_ccu4.c **** #if defined(CCU42)
 190:../Libraries/XMCLib/src/xmc_ccu4.c ****   else if (module == CCU42)
 191:../Libraries/XMCLib/src/xmc_ccu4.c ****   {
 192:../Libraries/XMCLib/src/xmc_ccu4.c ****     XMC_SCU_RESET_DeassertPeripheralReset(XMC_SCU_PERIPHERAL_RESET_CCU42);
 193:../Libraries/XMCLib/src/xmc_ccu4.c ****   }
 194:../Libraries/XMCLib/src/xmc_ccu4.c **** #endif
 195:../Libraries/XMCLib/src/xmc_ccu4.c **** #if defined(CCU43)
 196:../Libraries/XMCLib/src/xmc_ccu4.c ****   else if (module == CCU43)
 197:../Libraries/XMCLib/src/xmc_ccu4.c ****   {
 198:../Libraries/XMCLib/src/xmc_ccu4.c ****     XMC_SCU_RESET_DeassertPeripheralReset(XMC_SCU_PERIPHERAL_RESET_CCU43);
 199:../Libraries/XMCLib/src/xmc_ccu4.c ****   }
 200:../Libraries/XMCLib/src/xmc_ccu4.c **** #endif
 201:../Libraries/XMCLib/src/xmc_ccu4.c ****   else
 202:../Libraries/XMCLib/src/xmc_ccu4.c ****   {
 203:../Libraries/XMCLib/src/xmc_ccu4.c ****     XMC_ASSERT("XMC_CCU4_lDeassertReset:Invalid Module Pointer", 0);
 204:../Libraries/XMCLib/src/xmc_ccu4.c ****   }
 205:../Libraries/XMCLib/src/xmc_ccu4.c **** }
 206:../Libraries/XMCLib/src/xmc_ccu4.c **** #endif
 207:../Libraries/XMCLib/src/xmc_ccu4.c **** 
 208:../Libraries/XMCLib/src/xmc_ccu4.c **** #if defined(CLOCK_GATING_SUPPORTED)
 209:../Libraries/XMCLib/src/xmc_ccu4.c **** __STATIC_INLINE void XMC_CCU4_lGateClock(const XMC_CCU4_MODULE_t *const module)
 210:../Libraries/XMCLib/src/xmc_ccu4.c **** {
 211:../Libraries/XMCLib/src/xmc_ccu4.c **** 
 212:../Libraries/XMCLib/src/xmc_ccu4.c ****   if (module == CCU40)
 213:../Libraries/XMCLib/src/xmc_ccu4.c ****   {
 214:../Libraries/XMCLib/src/xmc_ccu4.c ****     XMC_SCU_CLOCK_GatePeripheralClock(XMC_SCU_PERIPHERAL_CLOCK_CCU40);
 215:../Libraries/XMCLib/src/xmc_ccu4.c ****   }
 216:../Libraries/XMCLib/src/xmc_ccu4.c **** #if defined(CCU41)
 217:../Libraries/XMCLib/src/xmc_ccu4.c ****   else if (module == CCU41)
 218:../Libraries/XMCLib/src/xmc_ccu4.c ****   {
 219:../Libraries/XMCLib/src/xmc_ccu4.c ****     XMC_SCU_CLOCK_GatePeripheralClock(XMC_SCU_PERIPHERAL_CLOCK_CCU41);
 220:../Libraries/XMCLib/src/xmc_ccu4.c ****   }
 221:../Libraries/XMCLib/src/xmc_ccu4.c **** #endif
 222:../Libraries/XMCLib/src/xmc_ccu4.c **** #if defined(CCU42)
 223:../Libraries/XMCLib/src/xmc_ccu4.c ****   else if (module == CCU42)
 224:../Libraries/XMCLib/src/xmc_ccu4.c ****   {
 225:../Libraries/XMCLib/src/xmc_ccu4.c ****     XMC_SCU_CLOCK_GatePeripheralClock(XMC_SCU_PERIPHERAL_CLOCK_CCU42);
 226:../Libraries/XMCLib/src/xmc_ccu4.c ****   }
 227:../Libraries/XMCLib/src/xmc_ccu4.c **** #endif
 228:../Libraries/XMCLib/src/xmc_ccu4.c **** #if defined(CCU43)
 229:../Libraries/XMCLib/src/xmc_ccu4.c ****   else if (module == CCU43)
 230:../Libraries/XMCLib/src/xmc_ccu4.c ****   {
 231:../Libraries/XMCLib/src/xmc_ccu4.c ****     XMC_SCU_CLOCK_GatePeripheralClock(XMC_SCU_PERIPHERAL_CLOCK_CCU43);
 232:../Libraries/XMCLib/src/xmc_ccu4.c ****   }
 233:../Libraries/XMCLib/src/xmc_ccu4.c **** #endif
 234:../Libraries/XMCLib/src/xmc_ccu4.c ****   else
 235:../Libraries/XMCLib/src/xmc_ccu4.c ****   {
 236:../Libraries/XMCLib/src/xmc_ccu4.c ****     XMC_ASSERT("XMC_CCU4_lGateClock:Invalid Module Pointer", 0);
 237:../Libraries/XMCLib/src/xmc_ccu4.c ****   }
 238:../Libraries/XMCLib/src/xmc_ccu4.c **** }
 239:../Libraries/XMCLib/src/xmc_ccu4.c **** 
 240:../Libraries/XMCLib/src/xmc_ccu4.c **** __STATIC_INLINE void XMC_CCU4_lUngateClock(const XMC_CCU4_MODULE_t *const module)
 241:../Libraries/XMCLib/src/xmc_ccu4.c **** {
  25              	 .loc 1 241 0
  26              	 .cfi_startproc
  27              	.LVL0:
  28 0000 08B5     	 push {r3,lr}
  29              	.LCFI0:
  30              	 .cfi_def_cfa_offset 8
  31              	 .cfi_offset 3,-8
  32              	 .cfi_offset 14,-4
 242:../Libraries/XMCLib/src/xmc_ccu4.c ****   if (module == CCU40)
  33              	 .loc 1 242 0
  34 0002 064B     	 ldr r3,.L6
  35 0004 9842     	 cmp r0,r3
  36 0006 01D1     	 bne .L2
 243:../Libraries/XMCLib/src/xmc_ccu4.c ****   {
 244:../Libraries/XMCLib/src/xmc_ccu4.c ****     XMC_SCU_CLOCK_UngatePeripheralClock(XMC_SCU_PERIPHERAL_CLOCK_CCU40);
  37              	 .loc 1 244 0
  38 0008 0420     	 mov r0,#4
  39              	.LVL1:
  40 000a 04E0     	 b .L4
  41              	.LVL2:
  42              	.L2:
 245:../Libraries/XMCLib/src/xmc_ccu4.c ****   }
 246:../Libraries/XMCLib/src/xmc_ccu4.c **** #if defined(CCU41)
 247:../Libraries/XMCLib/src/xmc_ccu4.c ****   else if (module == CCU41)
  43              	 .loc 1 247 0
  44 000c 044B     	 ldr r3,.L6+4
  45 000e 9842     	 cmp r0,r3
  46 0010 03D1     	 bne .L1
 248:../Libraries/XMCLib/src/xmc_ccu4.c ****   {
 249:../Libraries/XMCLib/src/xmc_ccu4.c ****     XMC_SCU_CLOCK_UngatePeripheralClock(XMC_SCU_PERIPHERAL_CLOCK_CCU41);
  47              	 .loc 1 249 0
  48 0012 8020     	 mov r0,#128
  49              	.LVL3:
  50 0014 8002     	 lsl r0,r0,#10
  51              	.L4:
  52 0016 FFF7FEFF 	 bl XMC_SCU_CLOCK_UngatePeripheralClock
  53              	.LVL4:
  54              	.L1:
 250:../Libraries/XMCLib/src/xmc_ccu4.c ****   }
 251:../Libraries/XMCLib/src/xmc_ccu4.c **** #endif
 252:../Libraries/XMCLib/src/xmc_ccu4.c **** #if defined(CCU42)
 253:../Libraries/XMCLib/src/xmc_ccu4.c ****   else if (module == CCU42)
 254:../Libraries/XMCLib/src/xmc_ccu4.c ****   {
 255:../Libraries/XMCLib/src/xmc_ccu4.c ****     XMC_SCU_CLOCK_UngatePeripheralClock(XMC_SCU_PERIPHERAL_CLOCK_CCU42);
 256:../Libraries/XMCLib/src/xmc_ccu4.c ****   }
 257:../Libraries/XMCLib/src/xmc_ccu4.c **** #endif
 258:../Libraries/XMCLib/src/xmc_ccu4.c **** #if defined(CCU43)
 259:../Libraries/XMCLib/src/xmc_ccu4.c ****   else if (module == CCU43)
 260:../Libraries/XMCLib/src/xmc_ccu4.c ****   {
 261:../Libraries/XMCLib/src/xmc_ccu4.c ****     XMC_SCU_CLOCK_UngatePeripheralClock(XMC_SCU_PERIPHERAL_CLOCK_CCU43);
 262:../Libraries/XMCLib/src/xmc_ccu4.c ****   }
 263:../Libraries/XMCLib/src/xmc_ccu4.c **** #endif
 264:../Libraries/XMCLib/src/xmc_ccu4.c ****   else
 265:../Libraries/XMCLib/src/xmc_ccu4.c ****   {
 266:../Libraries/XMCLib/src/xmc_ccu4.c ****     XMC_ASSERT("XMC_CCU4_lUngateClock:Invalid Module Pointer", 0);
 267:../Libraries/XMCLib/src/xmc_ccu4.c ****   }
 268:../Libraries/XMCLib/src/xmc_ccu4.c **** }
  55              	 .loc 1 268 0
  56              	 
  57 001a 08BD     	 pop {r3,pc}
  58              	.L7:
  59              	 .align 2
  60              	.L6:
  61 001c 00000448 	 .word 1208221696
  62 0020 00400448 	 .word 1208238080
  63              	 .cfi_endproc
  64              	.LFE119:
  66              	 .section .text.XMC_CCU4_EnableModule,"ax",%progbits
  67              	 .align 1
  68              	 .global XMC_CCU4_EnableModule
  69              	 .code 16
  70              	 .thumb_func
  72              	XMC_CCU4_EnableModule:
  73              	.LFB120:
 269:../Libraries/XMCLib/src/xmc_ccu4.c **** #endif
 270:../Libraries/XMCLib/src/xmc_ccu4.c **** 
 271:../Libraries/XMCLib/src/xmc_ccu4.c **** #if defined (XMC_ASSERT_ENABLE)
 272:../Libraries/XMCLib/src/xmc_ccu4.c **** __STATIC_INLINE bool XMC_CCU4_SLICE_IsInputvalid(XMC_CCU4_SLICE_INPUT_t input)
 273:../Libraries/XMCLib/src/xmc_ccu4.c **** {
 274:../Libraries/XMCLib/src/xmc_ccu4.c **** #if (UC_SERIES == XMC14)
 275:../Libraries/XMCLib/src/xmc_ccu4.c ****   return (input < 48U);
 276:../Libraries/XMCLib/src/xmc_ccu4.c **** #else
 277:../Libraries/XMCLib/src/xmc_ccu4.c ****   return (input < 16U);
 278:../Libraries/XMCLib/src/xmc_ccu4.c **** #endif
 279:../Libraries/XMCLib/src/xmc_ccu4.c **** }
 280:../Libraries/XMCLib/src/xmc_ccu4.c **** #endif
 281:../Libraries/XMCLib/src/xmc_ccu4.c **** /**************************************************************************************************
 282:../Libraries/XMCLib/src/xmc_ccu4.c ****  * API IMPLEMENTATION
 283:../Libraries/XMCLib/src/xmc_ccu4.c ****  **************************************************************************************************
 284:../Libraries/XMCLib/src/xmc_ccu4.c **** 
 285:../Libraries/XMCLib/src/xmc_ccu4.c **** void XMC_CCU4_EnableModule(XMC_CCU4_MODULE_t *const module)
 286:../Libraries/XMCLib/src/xmc_ccu4.c **** {
  74              	 .loc 1 286 0
  75              	 .cfi_startproc
  76              	.LVL5:
  77 0000 08B5     	 push {r3,lr}
  78              	.LCFI1:
  79              	 .cfi_def_cfa_offset 8
  80              	 .cfi_offset 3,-8
  81              	 .cfi_offset 14,-4
 287:../Libraries/XMCLib/src/xmc_ccu4.c ****   XMC_ASSERT("XMC_CCU4_EnableModule:Invalid Module Pointer", XMC_CCU4_IsValidModule(module));
 288:../Libraries/XMCLib/src/xmc_ccu4.c **** 
 289:../Libraries/XMCLib/src/xmc_ccu4.c **** #if UC_FAMILY == XMC4
 290:../Libraries/XMCLib/src/xmc_ccu4.c ****   /* Enable CCU4 module clock */
 291:../Libraries/XMCLib/src/xmc_ccu4.c ****   XMC_SCU_CLOCK_EnableClock(XMC_SCU_CLOCK_CCU);
 292:../Libraries/XMCLib/src/xmc_ccu4.c **** #endif
 293:../Libraries/XMCLib/src/xmc_ccu4.c ****   
 294:../Libraries/XMCLib/src/xmc_ccu4.c **** #if defined(CLOCK_GATING_SUPPORTED)
 295:../Libraries/XMCLib/src/xmc_ccu4.c ****   XMC_CCU4_lUngateClock(module);
  82              	 .loc 1 295 0
  83 0002 FFF7FEFF 	 bl XMC_CCU4_lUngateClock
  84              	.LVL6:
 296:../Libraries/XMCLib/src/xmc_ccu4.c **** #endif
 297:../Libraries/XMCLib/src/xmc_ccu4.c **** 
 298:../Libraries/XMCLib/src/xmc_ccu4.c **** #if defined(PERIPHERAL_RESET_SUPPORTED)
 299:../Libraries/XMCLib/src/xmc_ccu4.c ****   XMC_CCU4_lDeassertReset(module);
 300:../Libraries/XMCLib/src/xmc_ccu4.c **** #endif
 301:../Libraries/XMCLib/src/xmc_ccu4.c **** }
  85              	 .loc 1 301 0
  86              	 
  87 0006 08BD     	 pop {r3,pc}
  88              	 .cfi_endproc
  89              	.LFE120:
  91              	 .section .text.XMC_CCU4_DisableModule,"ax",%progbits
  92              	 .align 1
  93              	 .global XMC_CCU4_DisableModule
  94              	 .code 16
  95              	 .thumb_func
  97              	XMC_CCU4_DisableModule:
  98              	.LFB121:
 302:../Libraries/XMCLib/src/xmc_ccu4.c **** 
 303:../Libraries/XMCLib/src/xmc_ccu4.c **** void XMC_CCU4_DisableModule(XMC_CCU4_MODULE_t *const module)
 304:../Libraries/XMCLib/src/xmc_ccu4.c **** {
  99              	 .loc 1 304 0
 100              	 .cfi_startproc
 101              	.LVL7:
 102 0000 08B5     	 push {r3,lr}
 103              	.LCFI2:
 104              	 .cfi_def_cfa_offset 8
 105              	 .cfi_offset 3,-8
 106              	 .cfi_offset 14,-4
 107              	.LBB10:
 108              	.LBB11:
 212:../Libraries/XMCLib/src/xmc_ccu4.c ****   {
 109              	 .loc 1 212 0
 110 0002 064B     	 ldr r3,.L13
 111 0004 9842     	 cmp r0,r3
 112 0006 01D1     	 bne .L10
 214:../Libraries/XMCLib/src/xmc_ccu4.c ****   }
 113              	 .loc 1 214 0
 114 0008 0420     	 mov r0,#4
 115              	.LVL8:
 116 000a 04E0     	 b .L12
 117              	.LVL9:
 118              	.L10:
 217:../Libraries/XMCLib/src/xmc_ccu4.c ****   {
 119              	 .loc 1 217 0
 120 000c 044B     	 ldr r3,.L13+4
 121 000e 9842     	 cmp r0,r3
 122 0010 03D1     	 bne .L9
 219:../Libraries/XMCLib/src/xmc_ccu4.c ****   }
 123              	 .loc 1 219 0
 124 0012 8020     	 mov r0,#128
 125              	.LVL10:
 126 0014 8002     	 lsl r0,r0,#10
 127              	.L12:
 128 0016 FFF7FEFF 	 bl XMC_SCU_CLOCK_GatePeripheralClock
 129              	.LVL11:
 130              	.L9:
 131              	.LBE11:
 132              	.LBE10:
 305:../Libraries/XMCLib/src/xmc_ccu4.c ****   XMC_ASSERT("XMC_CCU4_DisableModule:Invalid Module Pointer", XMC_CCU4_IsValidModule(module));
 306:../Libraries/XMCLib/src/xmc_ccu4.c **** 
 307:../Libraries/XMCLib/src/xmc_ccu4.c **** #if defined(PERIPHERAL_RESET_SUPPORTED)
 308:../Libraries/XMCLib/src/xmc_ccu4.c ****   XMC_CCU4_lAssertReset(module);
 309:../Libraries/XMCLib/src/xmc_ccu4.c **** #endif
 310:../Libraries/XMCLib/src/xmc_ccu4.c ****   
 311:../Libraries/XMCLib/src/xmc_ccu4.c **** #if defined(CLOCK_GATING_SUPPORTED)
 312:../Libraries/XMCLib/src/xmc_ccu4.c ****   XMC_CCU4_lGateClock(module);
 313:../Libraries/XMCLib/src/xmc_ccu4.c **** #endif
 314:../Libraries/XMCLib/src/xmc_ccu4.c **** }
 133              	 .loc 1 314 0
 134              	 
 135 001a 08BD     	 pop {r3,pc}
 136              	.L14:
 137              	 .align 2
 138              	.L13:
 139 001c 00000448 	 .word 1208221696
 140 0020 00400448 	 .word 1208238080
 141              	 .cfi_endproc
 142              	.LFE121:
 144              	 .section .text.XMC_CCU4_Init,"ax",%progbits
 145              	 .align 1
 146              	 .global XMC_CCU4_Init
 147              	 .code 16
 148              	 .thumb_func
 150              	XMC_CCU4_Init:
 151              	.LFB122:
 315:../Libraries/XMCLib/src/xmc_ccu4.c **** 
 316:../Libraries/XMCLib/src/xmc_ccu4.c **** /* API to initialize CCU4 global resources  */
 317:../Libraries/XMCLib/src/xmc_ccu4.c **** void XMC_CCU4_Init(XMC_CCU4_MODULE_t *const module, const XMC_CCU4_SLICE_MCMS_ACTION_t mcs_action)
 318:../Libraries/XMCLib/src/xmc_ccu4.c **** {
 152              	 .loc 1 318 0
 153              	 .cfi_startproc
 154              	.LVL12:
 155 0000 38B5     	 push {r3,r4,r5,lr}
 156              	.LCFI3:
 157              	 .cfi_def_cfa_offset 16
 158              	 .cfi_offset 3,-16
 159              	 .cfi_offset 4,-12
 160              	 .cfi_offset 5,-8
 161              	 .cfi_offset 14,-4
 162              	 .loc 1 318 0
 163 0002 041C     	 mov r4,r0
 164 0004 0D1C     	 mov r5,r1
 165              	.LBB12:
 166              	.LBB13:
 295:../Libraries/XMCLib/src/xmc_ccu4.c **** #endif
 167              	 .loc 1 295 0
 168 0006 FFF7FEFF 	 bl XMC_CCU4_lUngateClock
 169              	.LVL13:
 170              	.LBE13:
 171              	.LBE12:
 172              	.LBB14:
 173              	.LBB15:
 174              	 .file 2 "C:/Workspace/DAVE-4.4.2-64Bit/xmc1400-getstarted-optiga-trust-m/Libraries/XMCLib/inc/xmc_ccu4.h"
   1:C:/Workspace/DAVE-4.4.2-64Bit/xmc1400-getstarted-optiga-trust-m/Libraries/XMCLib/inc\xmc_ccu4.h **** /**
   2:C:/Workspace/DAVE-4.4.2-64Bit/xmc1400-getstarted-optiga-trust-m/Libraries/XMCLib/inc\xmc_ccu4.h ****  * @file xmc_ccu4.h
   3:C:/Workspace/DAVE-4.4.2-64Bit/xmc1400-getstarted-optiga-trust-m/Libraries/XMCLib/inc\xmc_ccu4.h ****  * @date 2019-03-30
   4:C:/Workspace/DAVE-4.4.2-64Bit/xmc1400-getstarted-optiga-trust-m/Libraries/XMCLib/inc\xmc_ccu4.h ****  *
   5:C:/Workspace/DAVE-4.4.2-64Bit/xmc1400-getstarted-optiga-trust-m/Libraries/XMCLib/inc\xmc_ccu4.h ****  * @cond
   6:C:/Workspace/DAVE-4.4.2-64Bit/xmc1400-getstarted-optiga-trust-m/Libraries/XMCLib/inc\xmc_ccu4.h ****  **************************************************************************************************
   7:C:/Workspace/DAVE-4.4.2-64Bit/xmc1400-getstarted-optiga-trust-m/Libraries/XMCLib/inc\xmc_ccu4.h ****  * XMClib v2.1.24 - XMC Peripheral Driver Library 
   8:C:/Workspace/DAVE-4.4.2-64Bit/xmc1400-getstarted-optiga-trust-m/Libraries/XMCLib/inc\xmc_ccu4.h ****  *
   9:C:/Workspace/DAVE-4.4.2-64Bit/xmc1400-getstarted-optiga-trust-m/Libraries/XMCLib/inc\xmc_ccu4.h ****  * Copyright (c) 2015-2019, Infineon Technologies AG
  10:C:/Workspace/DAVE-4.4.2-64Bit/xmc1400-getstarted-optiga-trust-m/Libraries/XMCLib/inc\xmc_ccu4.h ****  * All rights reserved.                        
  11:C:/Workspace/DAVE-4.4.2-64Bit/xmc1400-getstarted-optiga-trust-m/Libraries/XMCLib/inc\xmc_ccu4.h ****  *                                             
  12:C:/Workspace/DAVE-4.4.2-64Bit/xmc1400-getstarted-optiga-trust-m/Libraries/XMCLib/inc\xmc_ccu4.h ****  * Redistribution and use in source and binary forms, with or without modification,are permitted pr
  13:C:/Workspace/DAVE-4.4.2-64Bit/xmc1400-getstarted-optiga-trust-m/Libraries/XMCLib/inc\xmc_ccu4.h ****  * following conditions are met:   
  14:C:/Workspace/DAVE-4.4.2-64Bit/xmc1400-getstarted-optiga-trust-m/Libraries/XMCLib/inc\xmc_ccu4.h ****  *                                                                              
  15:C:/Workspace/DAVE-4.4.2-64Bit/xmc1400-getstarted-optiga-trust-m/Libraries/XMCLib/inc\xmc_ccu4.h ****  * Redistributions of source code must retain the above copyright notice, this list of conditions a
  16:C:/Workspace/DAVE-4.4.2-64Bit/xmc1400-getstarted-optiga-trust-m/Libraries/XMCLib/inc\xmc_ccu4.h ****  * disclaimer.                        
  17:C:/Workspace/DAVE-4.4.2-64Bit/xmc1400-getstarted-optiga-trust-m/Libraries/XMCLib/inc\xmc_ccu4.h ****  * 
  18:C:/Workspace/DAVE-4.4.2-64Bit/xmc1400-getstarted-optiga-trust-m/Libraries/XMCLib/inc\xmc_ccu4.h ****  * Redistributions in binary form must reproduce the above copyright notice, this list of condition
  19:C:/Workspace/DAVE-4.4.2-64Bit/xmc1400-getstarted-optiga-trust-m/Libraries/XMCLib/inc\xmc_ccu4.h ****  * disclaimer in the documentation and/or other materials provided with the distribution.          
  20:C:/Workspace/DAVE-4.4.2-64Bit/xmc1400-getstarted-optiga-trust-m/Libraries/XMCLib/inc\xmc_ccu4.h ****  * 
  21:C:/Workspace/DAVE-4.4.2-64Bit/xmc1400-getstarted-optiga-trust-m/Libraries/XMCLib/inc\xmc_ccu4.h ****  * Neither the name of the copyright holders nor the names of its contributors may be used to endor
  22:C:/Workspace/DAVE-4.4.2-64Bit/xmc1400-getstarted-optiga-trust-m/Libraries/XMCLib/inc\xmc_ccu4.h ****  * products derived from this software without specific prior written permission.                  
  23:C:/Workspace/DAVE-4.4.2-64Bit/xmc1400-getstarted-optiga-trust-m/Libraries/XMCLib/inc\xmc_ccu4.h ****  *                                                                              
  24:C:/Workspace/DAVE-4.4.2-64Bit/xmc1400-getstarted-optiga-trust-m/Libraries/XMCLib/inc\xmc_ccu4.h ****  * THIS SOFTWARE IS PROVIDED BY THE COPYRIGHT HOLDERS AND CONTRIBUTORS "AS IS" AND ANY EXPRESS OR I
  25:C:/Workspace/DAVE-4.4.2-64Bit/xmc1400-getstarted-optiga-trust-m/Libraries/XMCLib/inc\xmc_ccu4.h ****  * INCLUDING, BUT NOT LIMITED TO, THE IMPLIED WARRANTIES OF MERCHANTABILITY AND FITNESS FOR A PARTI
  26:C:/Workspace/DAVE-4.4.2-64Bit/xmc1400-getstarted-optiga-trust-m/Libraries/XMCLib/inc\xmc_ccu4.h ****  * DISCLAIMED. IN NO EVENT SHALL THE COPYRIGHT HOLDER OR CONTRIBUTORS BE LIABLE  FOR ANY DIRECT, IN
  27:C:/Workspace/DAVE-4.4.2-64Bit/xmc1400-getstarted-optiga-trust-m/Libraries/XMCLib/inc\xmc_ccu4.h ****  * SPECIAL, EXEMPLARY, OR CONSEQUENTIAL DAMAGES (INCLUDING, BUT NOT LIMITED TO, PROCUREMENT OF SUBS
  28:C:/Workspace/DAVE-4.4.2-64Bit/xmc1400-getstarted-optiga-trust-m/Libraries/XMCLib/inc\xmc_ccu4.h ****  * SERVICES; LOSS OF USE, DATA, OR PROFITS; OR BUSINESS INTERRUPTION) HOWEVER CAUSED AND ON ANY THE
  29:C:/Workspace/DAVE-4.4.2-64Bit/xmc1400-getstarted-optiga-trust-m/Libraries/XMCLib/inc\xmc_ccu4.h ****  * WHETHER IN CONTRACT, STRICT LIABILITY,OR TORT (INCLUDING NEGLIGENCE OR OTHERWISE) ARISING IN ANY
  30:C:/Workspace/DAVE-4.4.2-64Bit/xmc1400-getstarted-optiga-trust-m/Libraries/XMCLib/inc\xmc_ccu4.h ****  * OF THIS SOFTWARE, EVEN IF ADVISED OF THE POSSIBILITY OF SUCH DAMAGE.                            
  31:C:/Workspace/DAVE-4.4.2-64Bit/xmc1400-getstarted-optiga-trust-m/Libraries/XMCLib/inc\xmc_ccu4.h ****  *                                                                              
  32:C:/Workspace/DAVE-4.4.2-64Bit/xmc1400-getstarted-optiga-trust-m/Libraries/XMCLib/inc\xmc_ccu4.h ****  * To improve the quality of the software, users are encouraged to share modifications, enhancement
  33:C:/Workspace/DAVE-4.4.2-64Bit/xmc1400-getstarted-optiga-trust-m/Libraries/XMCLib/inc\xmc_ccu4.h ****  * Infineon Technologies AG dave@infineon.com).                                                    
  34:C:/Workspace/DAVE-4.4.2-64Bit/xmc1400-getstarted-optiga-trust-m/Libraries/XMCLib/inc\xmc_ccu4.h ****  **************************************************************************************************
  35:C:/Workspace/DAVE-4.4.2-64Bit/xmc1400-getstarted-optiga-trust-m/Libraries/XMCLib/inc\xmc_ccu4.h ****  *
  36:C:/Workspace/DAVE-4.4.2-64Bit/xmc1400-getstarted-optiga-trust-m/Libraries/XMCLib/inc\xmc_ccu4.h ****  * Change History
  37:C:/Workspace/DAVE-4.4.2-64Bit/xmc1400-getstarted-optiga-trust-m/Libraries/XMCLib/inc\xmc_ccu4.h ****  * --------------
  38:C:/Workspace/DAVE-4.4.2-64Bit/xmc1400-getstarted-optiga-trust-m/Libraries/XMCLib/inc\xmc_ccu4.h ****  *
  39:C:/Workspace/DAVE-4.4.2-64Bit/xmc1400-getstarted-optiga-trust-m/Libraries/XMCLib/inc\xmc_ccu4.h ****  * 2015-02-20:
  40:C:/Workspace/DAVE-4.4.2-64Bit/xmc1400-getstarted-optiga-trust-m/Libraries/XMCLib/inc\xmc_ccu4.h ****  *     - Initial <br>
  41:C:/Workspace/DAVE-4.4.2-64Bit/xmc1400-getstarted-optiga-trust-m/Libraries/XMCLib/inc\xmc_ccu4.h ****  *     - Documentation updates <br>
  42:C:/Workspace/DAVE-4.4.2-64Bit/xmc1400-getstarted-optiga-trust-m/Libraries/XMCLib/inc\xmc_ccu4.h ****  *
  43:C:/Workspace/DAVE-4.4.2-64Bit/xmc1400-getstarted-optiga-trust-m/Libraries/XMCLib/inc\xmc_ccu4.h ****  * 2015-06-20:
  44:C:/Workspace/DAVE-4.4.2-64Bit/xmc1400-getstarted-optiga-trust-m/Libraries/XMCLib/inc\xmc_ccu4.h ****  *     - Removed version macros and declaration of GetDriverVersion API <br>
  45:C:/Workspace/DAVE-4.4.2-64Bit/xmc1400-getstarted-optiga-trust-m/Libraries/XMCLib/inc\xmc_ccu4.h ****  *
  46:C:/Workspace/DAVE-4.4.2-64Bit/xmc1400-getstarted-optiga-trust-m/Libraries/XMCLib/inc\xmc_ccu4.h ****  * 2015-07-22:
  47:C:/Workspace/DAVE-4.4.2-64Bit/xmc1400-getstarted-optiga-trust-m/Libraries/XMCLib/inc\xmc_ccu4.h ****  *     - XMC_CCU4_SLICE_ConfigureStatusBitOverrideEvent() is updated to support XMC14 device. <br>
  48:C:/Workspace/DAVE-4.4.2-64Bit/xmc1400-getstarted-optiga-trust-m/Libraries/XMCLib/inc\xmc_ccu4.h ****  *
  49:C:/Workspace/DAVE-4.4.2-64Bit/xmc1400-getstarted-optiga-trust-m/Libraries/XMCLib/inc\xmc_ccu4.h ****  * 2015-08-17:
  50:C:/Workspace/DAVE-4.4.2-64Bit/xmc1400-getstarted-optiga-trust-m/Libraries/XMCLib/inc\xmc_ccu4.h ****  *     - XMC_CCU4_SLICE_PRESCALER_t enum is added to set the prescaler divider. <br>
  51:C:/Workspace/DAVE-4.4.2-64Bit/xmc1400-getstarted-optiga-trust-m/Libraries/XMCLib/inc\xmc_ccu4.h ****  *     - XMC_CCU4_SLICE_SHADOW_TRANSFER_MODE_t enum item names are updated according to the guideli
  52:C:/Workspace/DAVE-4.4.2-64Bit/xmc1400-getstarted-optiga-trust-m/Libraries/XMCLib/inc\xmc_ccu4.h ****  *     - XMC_CCU4_EnableShadowTransfer() API is made as inline, to improve the speed. <br>
  53:C:/Workspace/DAVE-4.4.2-64Bit/xmc1400-getstarted-optiga-trust-m/Libraries/XMCLib/inc\xmc_ccu4.h ****  *
  54:C:/Workspace/DAVE-4.4.2-64Bit/xmc1400-getstarted-optiga-trust-m/Libraries/XMCLib/inc\xmc_ccu4.h ****  * 2015-09-29:
  55:C:/Workspace/DAVE-4.4.2-64Bit/xmc1400-getstarted-optiga-trust-m/Libraries/XMCLib/inc\xmc_ccu4.h ****  *     - In XMC_CCU4_SLICE_EVENT_LEVEL_SENSITIVITY_t, two more enum items are added to support exte
  56:C:/Workspace/DAVE-4.4.2-64Bit/xmc1400-getstarted-optiga-trust-m/Libraries/XMCLib/inc\xmc_ccu4.h ****  *       settings.
  57:C:/Workspace/DAVE-4.4.2-64Bit/xmc1400-getstarted-optiga-trust-m/Libraries/XMCLib/inc\xmc_ccu4.h ****  *
  58:C:/Workspace/DAVE-4.4.2-64Bit/xmc1400-getstarted-optiga-trust-m/Libraries/XMCLib/inc\xmc_ccu4.h ****  * 2015-10-07:
  59:C:/Workspace/DAVE-4.4.2-64Bit/xmc1400-getstarted-optiga-trust-m/Libraries/XMCLib/inc\xmc_ccu4.h ****  *     - XMC_CCU4_SLICE_GetEvent() is made as inline.
  60:C:/Workspace/DAVE-4.4.2-64Bit/xmc1400-getstarted-optiga-trust-m/Libraries/XMCLib/inc\xmc_ccu4.h ****  *     - XMC_CCU4_SLICE_MULTI_IRQ_ID_t is added to support the XMC_CCU4_SLICE_EnableMultipleEvents(
  61:C:/Workspace/DAVE-4.4.2-64Bit/xmc1400-getstarted-optiga-trust-m/Libraries/XMCLib/inc\xmc_ccu4.h ****  *       XMC_CCU4_SLICE_DisableMultipleEvents() APIs.
  62:C:/Workspace/DAVE-4.4.2-64Bit/xmc1400-getstarted-optiga-trust-m/Libraries/XMCLib/inc\xmc_ccu4.h ****  *     - DOC updates for the newly added APIs.
  63:C:/Workspace/DAVE-4.4.2-64Bit/xmc1400-getstarted-optiga-trust-m/Libraries/XMCLib/inc\xmc_ccu4.h ****  *
  64:C:/Workspace/DAVE-4.4.2-64Bit/xmc1400-getstarted-optiga-trust-m/Libraries/XMCLib/inc\xmc_ccu4.h ****  * 2016-03-09:
  65:C:/Workspace/DAVE-4.4.2-64Bit/xmc1400-getstarted-optiga-trust-m/Libraries/XMCLib/inc\xmc_ccu4.h ****  *     - Optimization of write only registers 
  66:C:/Workspace/DAVE-4.4.2-64Bit/xmc1400-getstarted-optiga-trust-m/Libraries/XMCLib/inc\xmc_ccu4.h ****  *
  67:C:/Workspace/DAVE-4.4.2-64Bit/xmc1400-getstarted-optiga-trust-m/Libraries/XMCLib/inc\xmc_ccu4.h ****  * 2016-05-20:
  68:C:/Workspace/DAVE-4.4.2-64Bit/xmc1400-getstarted-optiga-trust-m/Libraries/XMCLib/inc\xmc_ccu4.h ****  *     - Added XMC_CCU4_SLICE_StopClearTimer()
  69:C:/Workspace/DAVE-4.4.2-64Bit/xmc1400-getstarted-optiga-trust-m/Libraries/XMCLib/inc\xmc_ccu4.h ****  *     - Changed implementation of XMC_CCU4_SLICE_StopTimer() and XMC_CCU4_SLICE_ClearTimer() to av
  70:C:/Workspace/DAVE-4.4.2-64Bit/xmc1400-getstarted-optiga-trust-m/Libraries/XMCLib/inc\xmc_ccu4.h ****  *
  71:C:/Workspace/DAVE-4.4.2-64Bit/xmc1400-getstarted-optiga-trust-m/Libraries/XMCLib/inc\xmc_ccu4.h ****  * 2017-04-27:
  72:C:/Workspace/DAVE-4.4.2-64Bit/xmc1400-getstarted-optiga-trust-m/Libraries/XMCLib/inc\xmc_ccu4.h ****  *     - XMC_CCU4_SLICE_SetPrescaler() changed div_val parameter to type XMC_CCU4_SLICE_PRESCALER_t
  73:C:/Workspace/DAVE-4.4.2-64Bit/xmc1400-getstarted-optiga-trust-m/Libraries/XMCLib/inc\xmc_ccu4.h ****  * 
  74:C:/Workspace/DAVE-4.4.2-64Bit/xmc1400-getstarted-optiga-trust-m/Libraries/XMCLib/inc\xmc_ccu4.h ****  * 2017-09-15:
  75:C:/Workspace/DAVE-4.4.2-64Bit/xmc1400-getstarted-optiga-trust-m/Libraries/XMCLib/inc\xmc_ccu4.h ****  *     - Fix XMC_CCU4_SLICE_SetShadowTransferMode()
  76:C:/Workspace/DAVE-4.4.2-64Bit/xmc1400-getstarted-optiga-trust-m/Libraries/XMCLib/inc\xmc_ccu4.h ****  *
  77:C:/Workspace/DAVE-4.4.2-64Bit/xmc1400-getstarted-optiga-trust-m/Libraries/XMCLib/inc\xmc_ccu4.h ****  * 2019-03-30:
  78:C:/Workspace/DAVE-4.4.2-64Bit/xmc1400-getstarted-optiga-trust-m/Libraries/XMCLib/inc\xmc_ccu4.h ****  *     - Changed XMC_CCU4_StartPrescaler(), XMC_CCU4_StopPrescaler(), XMC_CCU4_EnableMultipleClocks
  79:C:/Workspace/DAVE-4.4.2-64Bit/xmc1400-getstarted-optiga-trust-m/Libraries/XMCLib/inc\xmc_ccu4.h ****  *     - Changed XMC_CCU4_SLICE_SetEvent(), XMC_CCU4_SLICE_ClearEvent() to avoid RMW access
  80:C:/Workspace/DAVE-4.4.2-64Bit/xmc1400-getstarted-optiga-trust-m/Libraries/XMCLib/inc\xmc_ccu4.h ****  *     - Added XMC_CCU4_SetSuspendMode(), XMC_CCU4_SLICE_GetPrescaler()
  81:C:/Workspace/DAVE-4.4.2-64Bit/xmc1400-getstarted-optiga-trust-m/Libraries/XMCLib/inc\xmc_ccu4.h ****  * 
  82:C:/Workspace/DAVE-4.4.2-64Bit/xmc1400-getstarted-optiga-trust-m/Libraries/XMCLib/inc\xmc_ccu4.h ****  * 2019-07-29:
  83:C:/Workspace/DAVE-4.4.2-64Bit/xmc1400-getstarted-optiga-trust-m/Libraries/XMCLib/inc\xmc_ccu4.h ****  *     - Added XMC_CCU4_SLICE_GetStatus()
  84:C:/Workspace/DAVE-4.4.2-64Bit/xmc1400-getstarted-optiga-trust-m/Libraries/XMCLib/inc\xmc_ccu4.h ****  * 
  85:C:/Workspace/DAVE-4.4.2-64Bit/xmc1400-getstarted-optiga-trust-m/Libraries/XMCLib/inc\xmc_ccu4.h ****  * @endcond
  86:C:/Workspace/DAVE-4.4.2-64Bit/xmc1400-getstarted-optiga-trust-m/Libraries/XMCLib/inc\xmc_ccu4.h ****  */
  87:C:/Workspace/DAVE-4.4.2-64Bit/xmc1400-getstarted-optiga-trust-m/Libraries/XMCLib/inc\xmc_ccu4.h **** 
  88:C:/Workspace/DAVE-4.4.2-64Bit/xmc1400-getstarted-optiga-trust-m/Libraries/XMCLib/inc\xmc_ccu4.h **** #ifndef XMC_CCU4_H
  89:C:/Workspace/DAVE-4.4.2-64Bit/xmc1400-getstarted-optiga-trust-m/Libraries/XMCLib/inc\xmc_ccu4.h **** #define XMC_CCU4_H
  90:C:/Workspace/DAVE-4.4.2-64Bit/xmc1400-getstarted-optiga-trust-m/Libraries/XMCLib/inc\xmc_ccu4.h ****  
  91:C:/Workspace/DAVE-4.4.2-64Bit/xmc1400-getstarted-optiga-trust-m/Libraries/XMCLib/inc\xmc_ccu4.h **** /**************************************************************************************************
  92:C:/Workspace/DAVE-4.4.2-64Bit/xmc1400-getstarted-optiga-trust-m/Libraries/XMCLib/inc\xmc_ccu4.h ****  * HEADER FILES
  93:C:/Workspace/DAVE-4.4.2-64Bit/xmc1400-getstarted-optiga-trust-m/Libraries/XMCLib/inc\xmc_ccu4.h ****  **************************************************************************************************
  94:C:/Workspace/DAVE-4.4.2-64Bit/xmc1400-getstarted-optiga-trust-m/Libraries/XMCLib/inc\xmc_ccu4.h **** #include "xmc_common.h"
  95:C:/Workspace/DAVE-4.4.2-64Bit/xmc1400-getstarted-optiga-trust-m/Libraries/XMCLib/inc\xmc_ccu4.h **** #if defined(CCU40)
  96:C:/Workspace/DAVE-4.4.2-64Bit/xmc1400-getstarted-optiga-trust-m/Libraries/XMCLib/inc\xmc_ccu4.h **** 
  97:C:/Workspace/DAVE-4.4.2-64Bit/xmc1400-getstarted-optiga-trust-m/Libraries/XMCLib/inc\xmc_ccu4.h **** #if UC_FAMILY == XMC1
  98:C:/Workspace/DAVE-4.4.2-64Bit/xmc1400-getstarted-optiga-trust-m/Libraries/XMCLib/inc\xmc_ccu4.h ****  #include "xmc1_ccu4_map.h"
  99:C:/Workspace/DAVE-4.4.2-64Bit/xmc1400-getstarted-optiga-trust-m/Libraries/XMCLib/inc\xmc_ccu4.h **** #endif
 100:C:/Workspace/DAVE-4.4.2-64Bit/xmc1400-getstarted-optiga-trust-m/Libraries/XMCLib/inc\xmc_ccu4.h **** 
 101:C:/Workspace/DAVE-4.4.2-64Bit/xmc1400-getstarted-optiga-trust-m/Libraries/XMCLib/inc\xmc_ccu4.h **** #if UC_FAMILY == XMC4
 102:C:/Workspace/DAVE-4.4.2-64Bit/xmc1400-getstarted-optiga-trust-m/Libraries/XMCLib/inc\xmc_ccu4.h ****  #include "xmc4_ccu4_map.h"
 103:C:/Workspace/DAVE-4.4.2-64Bit/xmc1400-getstarted-optiga-trust-m/Libraries/XMCLib/inc\xmc_ccu4.h **** #endif
 104:C:/Workspace/DAVE-4.4.2-64Bit/xmc1400-getstarted-optiga-trust-m/Libraries/XMCLib/inc\xmc_ccu4.h **** 
 105:C:/Workspace/DAVE-4.4.2-64Bit/xmc1400-getstarted-optiga-trust-m/Libraries/XMCLib/inc\xmc_ccu4.h **** /**
 106:C:/Workspace/DAVE-4.4.2-64Bit/xmc1400-getstarted-optiga-trust-m/Libraries/XMCLib/inc\xmc_ccu4.h ****  * @addtogroup XMClib XMC Peripheral Library
 107:C:/Workspace/DAVE-4.4.2-64Bit/xmc1400-getstarted-optiga-trust-m/Libraries/XMCLib/inc\xmc_ccu4.h ****  * @{
 108:C:/Workspace/DAVE-4.4.2-64Bit/xmc1400-getstarted-optiga-trust-m/Libraries/XMCLib/inc\xmc_ccu4.h ****  */
 109:C:/Workspace/DAVE-4.4.2-64Bit/xmc1400-getstarted-optiga-trust-m/Libraries/XMCLib/inc\xmc_ccu4.h ****  
 110:C:/Workspace/DAVE-4.4.2-64Bit/xmc1400-getstarted-optiga-trust-m/Libraries/XMCLib/inc\xmc_ccu4.h **** /**
 111:C:/Workspace/DAVE-4.4.2-64Bit/xmc1400-getstarted-optiga-trust-m/Libraries/XMCLib/inc\xmc_ccu4.h ****  * @addtogroup CCU4
 112:C:/Workspace/DAVE-4.4.2-64Bit/xmc1400-getstarted-optiga-trust-m/Libraries/XMCLib/inc\xmc_ccu4.h ****  * @brief Capture Compare Unit 4 (CCU4) low level driver for XMC family of microcontrollers<br>
 113:C:/Workspace/DAVE-4.4.2-64Bit/xmc1400-getstarted-optiga-trust-m/Libraries/XMCLib/inc\xmc_ccu4.h ****  *
 114:C:/Workspace/DAVE-4.4.2-64Bit/xmc1400-getstarted-optiga-trust-m/Libraries/XMCLib/inc\xmc_ccu4.h ****  * The CCU4 peripheral is a major component for systems that need general purpose timers for signal
 115:C:/Workspace/DAVE-4.4.2-64Bit/xmc1400-getstarted-optiga-trust-m/Libraries/XMCLib/inc\xmc_ccu4.h ****  * monitoring/conditioning and Pulse Width Modulation (PWM) signal generation. Power electronic con
 116:C:/Workspace/DAVE-4.4.2-64Bit/xmc1400-getstarted-optiga-trust-m/Libraries/XMCLib/inc\xmc_ccu4.h ****  * switched mode power supplies or interruptible power supplies, can easily be implemented with the
 117:C:/Workspace/DAVE-4.4.2-64Bit/xmc1400-getstarted-optiga-trust-m/Libraries/XMCLib/inc\xmc_ccu4.h ****  * CCU4 peripheral.\n
 118:C:/Workspace/DAVE-4.4.2-64Bit/xmc1400-getstarted-optiga-trust-m/Libraries/XMCLib/inc\xmc_ccu4.h ****  * Each CCU4 module is comprised of four identical 16 bit Capture/Compare Timer slices, CC4y (where
 119:C:/Workspace/DAVE-4.4.2-64Bit/xmc1400-getstarted-optiga-trust-m/Libraries/XMCLib/inc\xmc_ccu4.h ****  * timer slice can work in compare mode or in capture mode.
 120:C:/Workspace/DAVE-4.4.2-64Bit/xmc1400-getstarted-optiga-trust-m/Libraries/XMCLib/inc\xmc_ccu4.h ****  *
 121:C:/Workspace/DAVE-4.4.2-64Bit/xmc1400-getstarted-optiga-trust-m/Libraries/XMCLib/inc\xmc_ccu4.h ****  * APIs provided in this file cover the following functional blocks of CCU4:\n
 122:C:/Workspace/DAVE-4.4.2-64Bit/xmc1400-getstarted-optiga-trust-m/Libraries/XMCLib/inc\xmc_ccu4.h ****  * -- Timer configuration, Capture configuration, Function/Event configuration, Interrupt configura
 123:C:/Workspace/DAVE-4.4.2-64Bit/xmc1400-getstarted-optiga-trust-m/Libraries/XMCLib/inc\xmc_ccu4.h ****  * \par Note:
 124:C:/Workspace/DAVE-4.4.2-64Bit/xmc1400-getstarted-optiga-trust-m/Libraries/XMCLib/inc\xmc_ccu4.h ****  * 1. SLICE (APIs prefixed with e.g. XMC_CCU4_SLICE_)
 125:C:/Workspace/DAVE-4.4.2-64Bit/xmc1400-getstarted-optiga-trust-m/Libraries/XMCLib/inc\xmc_ccu4.h ****  * 2. Module (APIs are not having any prefix e.g. XMC_CCU4_)
 126:C:/Workspace/DAVE-4.4.2-64Bit/xmc1400-getstarted-optiga-trust-m/Libraries/XMCLib/inc\xmc_ccu4.h ****  *
 127:C:/Workspace/DAVE-4.4.2-64Bit/xmc1400-getstarted-optiga-trust-m/Libraries/XMCLib/inc\xmc_ccu4.h ****  * \par Timer(Compare mode) configuration:
 128:C:/Workspace/DAVE-4.4.2-64Bit/xmc1400-getstarted-optiga-trust-m/Libraries/XMCLib/inc\xmc_ccu4.h ****  * This section of the LLD provides the configuration structure XMC_CCU4_SLICE_COMPARE_CONFIG_t and
 129:C:/Workspace/DAVE-4.4.2-64Bit/xmc1400-getstarted-optiga-trust-m/Libraries/XMCLib/inc\xmc_ccu4.h ****  * function XMC_CCU4_SLICE_CompareInit().
 130:C:/Workspace/DAVE-4.4.2-64Bit/xmc1400-getstarted-optiga-trust-m/Libraries/XMCLib/inc\xmc_ccu4.h ****  *
 131:C:/Workspace/DAVE-4.4.2-64Bit/xmc1400-getstarted-optiga-trust-m/Libraries/XMCLib/inc\xmc_ccu4.h ****  * It can be used to:
 132:C:/Workspace/DAVE-4.4.2-64Bit/xmc1400-getstarted-optiga-trust-m/Libraries/XMCLib/inc\xmc_ccu4.h ****  * -# Start and Stop the timer. (XMC_CCU4_SLICE_StartTimer(), XMC_CCU4_SLICE_StopTimer())
 133:C:/Workspace/DAVE-4.4.2-64Bit/xmc1400-getstarted-optiga-trust-m/Libraries/XMCLib/inc\xmc_ccu4.h ****  * -# Update the period, compare, Dither, Prescaler  and Passive values. (XMC_CCU4_SLICE_SetTimerPe
 134:C:/Workspace/DAVE-4.4.2-64Bit/xmc1400-getstarted-optiga-trust-m/Libraries/XMCLib/inc\xmc_ccu4.h ****  *    XMC_CCU4_SLICE_SetTimerCompareMatch(), XMC_CCU4_SLICE_SetPrescaler(), XMC_CCU4_SLICE_SetDithe
 135:C:/Workspace/DAVE-4.4.2-64Bit/xmc1400-getstarted-optiga-trust-m/Libraries/XMCLib/inc\xmc_ccu4.h ****  *    XMC_CCU4_SLICE_SetPassiveLevel())
 136:C:/Workspace/DAVE-4.4.2-64Bit/xmc1400-getstarted-optiga-trust-m/Libraries/XMCLib/inc\xmc_ccu4.h ****  * -# Enable the slices to support multichannel mode. (XMC_CCU4_SLICE_EnableMultiChannelMode())
 137:C:/Workspace/DAVE-4.4.2-64Bit/xmc1400-getstarted-optiga-trust-m/Libraries/XMCLib/inc\xmc_ccu4.h ****  * 
 138:C:/Workspace/DAVE-4.4.2-64Bit/xmc1400-getstarted-optiga-trust-m/Libraries/XMCLib/inc\xmc_ccu4.h ****  * \par Capture configuration:
 139:C:/Workspace/DAVE-4.4.2-64Bit/xmc1400-getstarted-optiga-trust-m/Libraries/XMCLib/inc\xmc_ccu4.h ****  * This section of the LLD provides the configuration structure XMC_CCU4_SLICE_CAPTURE_CONFIG_t and
 140:C:/Workspace/DAVE-4.4.2-64Bit/xmc1400-getstarted-optiga-trust-m/Libraries/XMCLib/inc\xmc_ccu4.h ****  * function XMC_CCU4_SLICE_CaptureInit().
 141:C:/Workspace/DAVE-4.4.2-64Bit/xmc1400-getstarted-optiga-trust-m/Libraries/XMCLib/inc\xmc_ccu4.h ****  *
 142:C:/Workspace/DAVE-4.4.2-64Bit/xmc1400-getstarted-optiga-trust-m/Libraries/XMCLib/inc\xmc_ccu4.h ****  * It can be used to:
 143:C:/Workspace/DAVE-4.4.2-64Bit/xmc1400-getstarted-optiga-trust-m/Libraries/XMCLib/inc\xmc_ccu4.h ****  * -# Configure the capture functionality. (XMC_CCU4_SLICE_Capture0Config(), XMC_CCU4_SLICE_Capture
 144:C:/Workspace/DAVE-4.4.2-64Bit/xmc1400-getstarted-optiga-trust-m/Libraries/XMCLib/inc\xmc_ccu4.h ****  * -# Read the captured values along with the status, which indicate the value is latest or not.
 145:C:/Workspace/DAVE-4.4.2-64Bit/xmc1400-getstarted-optiga-trust-m/Libraries/XMCLib/inc\xmc_ccu4.h ****  *    (XMC_CCU4_SLICE_GetCaptureRegisterValue())
 146:C:/Workspace/DAVE-4.4.2-64Bit/xmc1400-getstarted-optiga-trust-m/Libraries/XMCLib/inc\xmc_ccu4.h ****  * 
 147:C:/Workspace/DAVE-4.4.2-64Bit/xmc1400-getstarted-optiga-trust-m/Libraries/XMCLib/inc\xmc_ccu4.h ****  * \par Function/Event configuration:
 148:C:/Workspace/DAVE-4.4.2-64Bit/xmc1400-getstarted-optiga-trust-m/Libraries/XMCLib/inc\xmc_ccu4.h ****  * This section of the LLD provides the configuration structure XMC_CCU4_SLICE_EVENT_CONFIG_t.\n
 149:C:/Workspace/DAVE-4.4.2-64Bit/xmc1400-getstarted-optiga-trust-m/Libraries/XMCLib/inc\xmc_ccu4.h ****  * 
 150:C:/Workspace/DAVE-4.4.2-64Bit/xmc1400-getstarted-optiga-trust-m/Libraries/XMCLib/inc\xmc_ccu4.h ****  * It can be used to:
 151:C:/Workspace/DAVE-4.4.2-64Bit/xmc1400-getstarted-optiga-trust-m/Libraries/XMCLib/inc\xmc_ccu4.h ****  * -# Enable and Disable the events. (XMC_CCU4_SLICE_EnableEvent(), XMC_CCU4_SLICE_DisableEvent())
 152:C:/Workspace/DAVE-4.4.2-64Bit/xmc1400-getstarted-optiga-trust-m/Libraries/XMCLib/inc\xmc_ccu4.h ****  * -# Configure to start and stop the timer on external events.(XMC_CCU4_SLICE_StartConfig(), XMC_C
 153:C:/Workspace/DAVE-4.4.2-64Bit/xmc1400-getstarted-optiga-trust-m/Libraries/XMCLib/inc\xmc_ccu4.h ****  * -# Modulation, external load and Gating of the timer output.(XMC_CCU4_SLICE_ModulationConfig(), 
 154:C:/Workspace/DAVE-4.4.2-64Bit/xmc1400-getstarted-optiga-trust-m/Libraries/XMCLib/inc\xmc_ccu4.h ****  *    XMC_CCU4_SLICE_LoadConfig(), XMC_CCU4_SLICE_GateConfig())
 155:C:/Workspace/DAVE-4.4.2-64Bit/xmc1400-getstarted-optiga-trust-m/Libraries/XMCLib/inc\xmc_ccu4.h ****  * -# Control the count direction of the timer based on the external event. (XMC_CCU4_SLICE_Directi
 156:C:/Workspace/DAVE-4.4.2-64Bit/xmc1400-getstarted-optiga-trust-m/Libraries/XMCLib/inc\xmc_ccu4.h ****  * -# Count the external events.(XMC_CCU4_SLICE_CountConfig())
 157:C:/Workspace/DAVE-4.4.2-64Bit/xmc1400-getstarted-optiga-trust-m/Libraries/XMCLib/inc\xmc_ccu4.h ****  * -# External Trap. Which can be used as protective feature.(XMC_CCU4_SLICE_EnableTrap(), XMC_CCU4
 158:C:/Workspace/DAVE-4.4.2-64Bit/xmc1400-getstarted-optiga-trust-m/Libraries/XMCLib/inc\xmc_ccu4.h ****  *    XMC_CCU4_SLICE_TrapConfig())
 159:C:/Workspace/DAVE-4.4.2-64Bit/xmc1400-getstarted-optiga-trust-m/Libraries/XMCLib/inc\xmc_ccu4.h ****  *
 160:C:/Workspace/DAVE-4.4.2-64Bit/xmc1400-getstarted-optiga-trust-m/Libraries/XMCLib/inc\xmc_ccu4.h ****  * \par Interrupt configuration:
 161:C:/Workspace/DAVE-4.4.2-64Bit/xmc1400-getstarted-optiga-trust-m/Libraries/XMCLib/inc\xmc_ccu4.h ****  * This section of the LLD provides the function to configure the interrupt node to each event (XMC
 162:C:/Workspace/DAVE-4.4.2-64Bit/xmc1400-getstarted-optiga-trust-m/Libraries/XMCLib/inc\xmc_ccu4.h ****  * @{
 163:C:/Workspace/DAVE-4.4.2-64Bit/xmc1400-getstarted-optiga-trust-m/Libraries/XMCLib/inc\xmc_ccu4.h ****  */
 164:C:/Workspace/DAVE-4.4.2-64Bit/xmc1400-getstarted-optiga-trust-m/Libraries/XMCLib/inc\xmc_ccu4.h ****  
 165:C:/Workspace/DAVE-4.4.2-64Bit/xmc1400-getstarted-optiga-trust-m/Libraries/XMCLib/inc\xmc_ccu4.h **** /**************************************************************************************************
 166:C:/Workspace/DAVE-4.4.2-64Bit/xmc1400-getstarted-optiga-trust-m/Libraries/XMCLib/inc\xmc_ccu4.h ****  * MACROS
 167:C:/Workspace/DAVE-4.4.2-64Bit/xmc1400-getstarted-optiga-trust-m/Libraries/XMCLib/inc\xmc_ccu4.h ****  **************************************************************************************************
 168:C:/Workspace/DAVE-4.4.2-64Bit/xmc1400-getstarted-optiga-trust-m/Libraries/XMCLib/inc\xmc_ccu4.h **** /* Macro to check if the interrupt enum passed is valid */
 169:C:/Workspace/DAVE-4.4.2-64Bit/xmc1400-getstarted-optiga-trust-m/Libraries/XMCLib/inc\xmc_ccu4.h **** #define XMC_CCU4_SLICE_CHECK_INTERRUPT(interrupt) \
 170:C:/Workspace/DAVE-4.4.2-64Bit/xmc1400-getstarted-optiga-trust-m/Libraries/XMCLib/inc\xmc_ccu4.h ****     ((interrupt == XMC_CCU4_SLICE_IRQ_ID_PERIOD_MATCH)           || \
 171:C:/Workspace/DAVE-4.4.2-64Bit/xmc1400-getstarted-optiga-trust-m/Libraries/XMCLib/inc\xmc_ccu4.h ****      (interrupt == XMC_CCU4_SLICE_IRQ_ID_ONE_MATCH)              || \
 172:C:/Workspace/DAVE-4.4.2-64Bit/xmc1400-getstarted-optiga-trust-m/Libraries/XMCLib/inc\xmc_ccu4.h ****      (interrupt == XMC_CCU4_SLICE_IRQ_ID_COMPARE_MATCH_UP)  || \
 173:C:/Workspace/DAVE-4.4.2-64Bit/xmc1400-getstarted-optiga-trust-m/Libraries/XMCLib/inc\xmc_ccu4.h ****      (interrupt == XMC_CCU4_SLICE_IRQ_ID_COMPARE_MATCH_DOWN)|| \
 174:C:/Workspace/DAVE-4.4.2-64Bit/xmc1400-getstarted-optiga-trust-m/Libraries/XMCLib/inc\xmc_ccu4.h ****      (interrupt == XMC_CCU4_SLICE_IRQ_ID_EVENT0)                 || \
 175:C:/Workspace/DAVE-4.4.2-64Bit/xmc1400-getstarted-optiga-trust-m/Libraries/XMCLib/inc\xmc_ccu4.h ****      (interrupt == XMC_CCU4_SLICE_IRQ_ID_EVENT1)                 || \
 176:C:/Workspace/DAVE-4.4.2-64Bit/xmc1400-getstarted-optiga-trust-m/Libraries/XMCLib/inc\xmc_ccu4.h ****      (interrupt == XMC_CCU4_SLICE_IRQ_ID_EVENT2)                 || \
 177:C:/Workspace/DAVE-4.4.2-64Bit/xmc1400-getstarted-optiga-trust-m/Libraries/XMCLib/inc\xmc_ccu4.h ****      (interrupt == XMC_CCU4_SLICE_IRQ_ID_TRAP))
 178:C:/Workspace/DAVE-4.4.2-64Bit/xmc1400-getstarted-optiga-trust-m/Libraries/XMCLib/inc\xmc_ccu4.h **** 
 179:C:/Workspace/DAVE-4.4.2-64Bit/xmc1400-getstarted-optiga-trust-m/Libraries/XMCLib/inc\xmc_ccu4.h **** /**************************************************************************************************
 180:C:/Workspace/DAVE-4.4.2-64Bit/xmc1400-getstarted-optiga-trust-m/Libraries/XMCLib/inc\xmc_ccu4.h ****  * ENUMS
 181:C:/Workspace/DAVE-4.4.2-64Bit/xmc1400-getstarted-optiga-trust-m/Libraries/XMCLib/inc\xmc_ccu4.h ****  **************************************************************************************************
 182:C:/Workspace/DAVE-4.4.2-64Bit/xmc1400-getstarted-optiga-trust-m/Libraries/XMCLib/inc\xmc_ccu4.h **** 
 183:C:/Workspace/DAVE-4.4.2-64Bit/xmc1400-getstarted-optiga-trust-m/Libraries/XMCLib/inc\xmc_ccu4.h **** /**
 184:C:/Workspace/DAVE-4.4.2-64Bit/xmc1400-getstarted-optiga-trust-m/Libraries/XMCLib/inc\xmc_ccu4.h ****  * Typedef for CCU4 Global data structure
 185:C:/Workspace/DAVE-4.4.2-64Bit/xmc1400-getstarted-optiga-trust-m/Libraries/XMCLib/inc\xmc_ccu4.h ****  */
 186:C:/Workspace/DAVE-4.4.2-64Bit/xmc1400-getstarted-optiga-trust-m/Libraries/XMCLib/inc\xmc_ccu4.h **** typedef CCU4_GLOBAL_TypeDef XMC_CCU4_MODULE_t;
 187:C:/Workspace/DAVE-4.4.2-64Bit/xmc1400-getstarted-optiga-trust-m/Libraries/XMCLib/inc\xmc_ccu4.h **** 
 188:C:/Workspace/DAVE-4.4.2-64Bit/xmc1400-getstarted-optiga-trust-m/Libraries/XMCLib/inc\xmc_ccu4.h **** /**
 189:C:/Workspace/DAVE-4.4.2-64Bit/xmc1400-getstarted-optiga-trust-m/Libraries/XMCLib/inc\xmc_ccu4.h ****  * Typedef for CCU4 Slice data structure
 190:C:/Workspace/DAVE-4.4.2-64Bit/xmc1400-getstarted-optiga-trust-m/Libraries/XMCLib/inc\xmc_ccu4.h ****  */
 191:C:/Workspace/DAVE-4.4.2-64Bit/xmc1400-getstarted-optiga-trust-m/Libraries/XMCLib/inc\xmc_ccu4.h **** typedef CCU4_CC4_TypeDef XMC_CCU4_SLICE_t;
 192:C:/Workspace/DAVE-4.4.2-64Bit/xmc1400-getstarted-optiga-trust-m/Libraries/XMCLib/inc\xmc_ccu4.h **** 
 193:C:/Workspace/DAVE-4.4.2-64Bit/xmc1400-getstarted-optiga-trust-m/Libraries/XMCLib/inc\xmc_ccu4.h **** /**
 194:C:/Workspace/DAVE-4.4.2-64Bit/xmc1400-getstarted-optiga-trust-m/Libraries/XMCLib/inc\xmc_ccu4.h ****  *  Return Value of an API
 195:C:/Workspace/DAVE-4.4.2-64Bit/xmc1400-getstarted-optiga-trust-m/Libraries/XMCLib/inc\xmc_ccu4.h ****  */ 
 196:C:/Workspace/DAVE-4.4.2-64Bit/xmc1400-getstarted-optiga-trust-m/Libraries/XMCLib/inc\xmc_ccu4.h **** typedef enum XMC_CCU4_STATUS
 197:C:/Workspace/DAVE-4.4.2-64Bit/xmc1400-getstarted-optiga-trust-m/Libraries/XMCLib/inc\xmc_ccu4.h **** {
 198:C:/Workspace/DAVE-4.4.2-64Bit/xmc1400-getstarted-optiga-trust-m/Libraries/XMCLib/inc\xmc_ccu4.h ****   XMC_CCU4_STATUS_OK      = 0U, /**< API fulfils request */
 199:C:/Workspace/DAVE-4.4.2-64Bit/xmc1400-getstarted-optiga-trust-m/Libraries/XMCLib/inc\xmc_ccu4.h ****   XMC_CCU4_STATUS_ERROR       , /**< API cannot fulfil the request */
 200:C:/Workspace/DAVE-4.4.2-64Bit/xmc1400-getstarted-optiga-trust-m/Libraries/XMCLib/inc\xmc_ccu4.h ****   XMC_CCU4_STATUS_RUNNING     , /**< The timer slice is currently running */
 201:C:/Workspace/DAVE-4.4.2-64Bit/xmc1400-getstarted-optiga-trust-m/Libraries/XMCLib/inc\xmc_ccu4.h ****   XMC_CCU4_STATUS_IDLE          /**< The timer slice is currently idle */
 202:C:/Workspace/DAVE-4.4.2-64Bit/xmc1400-getstarted-optiga-trust-m/Libraries/XMCLib/inc\xmc_ccu4.h **** } XMC_CCU4_STATUS_t;
 203:C:/Workspace/DAVE-4.4.2-64Bit/xmc1400-getstarted-optiga-trust-m/Libraries/XMCLib/inc\xmc_ccu4.h **** 
 204:C:/Workspace/DAVE-4.4.2-64Bit/xmc1400-getstarted-optiga-trust-m/Libraries/XMCLib/inc\xmc_ccu4.h **** /**
 205:C:/Workspace/DAVE-4.4.2-64Bit/xmc1400-getstarted-optiga-trust-m/Libraries/XMCLib/inc\xmc_ccu4.h ****  *  CCU4 module clock
 206:C:/Workspace/DAVE-4.4.2-64Bit/xmc1400-getstarted-optiga-trust-m/Libraries/XMCLib/inc\xmc_ccu4.h ****  */ 
 207:C:/Workspace/DAVE-4.4.2-64Bit/xmc1400-getstarted-optiga-trust-m/Libraries/XMCLib/inc\xmc_ccu4.h **** typedef enum XMC_CCU4_CLOCK
 208:C:/Workspace/DAVE-4.4.2-64Bit/xmc1400-getstarted-optiga-trust-m/Libraries/XMCLib/inc\xmc_ccu4.h **** {
 209:C:/Workspace/DAVE-4.4.2-64Bit/xmc1400-getstarted-optiga-trust-m/Libraries/XMCLib/inc\xmc_ccu4.h ****   XMC_CCU4_CLOCK_SCU        = 0U, /**< Select the fCCU as the clock */
 210:C:/Workspace/DAVE-4.4.2-64Bit/xmc1400-getstarted-optiga-trust-m/Libraries/XMCLib/inc\xmc_ccu4.h ****   XMC_CCU4_CLOCK_EXTERNAL_A     , /**< External clock-A */
 211:C:/Workspace/DAVE-4.4.2-64Bit/xmc1400-getstarted-optiga-trust-m/Libraries/XMCLib/inc\xmc_ccu4.h ****   XMC_CCU4_CLOCK_EXTERNAL_B     , /**< External clock-B */
 212:C:/Workspace/DAVE-4.4.2-64Bit/xmc1400-getstarted-optiga-trust-m/Libraries/XMCLib/inc\xmc_ccu4.h ****   XMC_CCU4_CLOCK_EXTERNAL_C       /**< External clock-C */
 213:C:/Workspace/DAVE-4.4.2-64Bit/xmc1400-getstarted-optiga-trust-m/Libraries/XMCLib/inc\xmc_ccu4.h **** } XMC_CCU4_CLOCK_t;
 214:C:/Workspace/DAVE-4.4.2-64Bit/xmc1400-getstarted-optiga-trust-m/Libraries/XMCLib/inc\xmc_ccu4.h **** 
 215:C:/Workspace/DAVE-4.4.2-64Bit/xmc1400-getstarted-optiga-trust-m/Libraries/XMCLib/inc\xmc_ccu4.h **** /**
 216:C:/Workspace/DAVE-4.4.2-64Bit/xmc1400-getstarted-optiga-trust-m/Libraries/XMCLib/inc\xmc_ccu4.h ****  * CCU4 set the shadow transfer type for multichannel mode
 217:C:/Workspace/DAVE-4.4.2-64Bit/xmc1400-getstarted-optiga-trust-m/Libraries/XMCLib/inc\xmc_ccu4.h ****  */
 218:C:/Workspace/DAVE-4.4.2-64Bit/xmc1400-getstarted-optiga-trust-m/Libraries/XMCLib/inc\xmc_ccu4.h **** typedef enum XMC_CCU4_MULTI_CHANNEL_SHADOW_TRANSFER
 219:C:/Workspace/DAVE-4.4.2-64Bit/xmc1400-getstarted-optiga-trust-m/Libraries/XMCLib/inc\xmc_ccu4.h **** {
 220:C:/Workspace/DAVE-4.4.2-64Bit/xmc1400-getstarted-optiga-trust-m/Libraries/XMCLib/inc\xmc_ccu4.h ****   XMC_CCU4_MULTI_CHANNEL_SHADOW_TRANSFER_SW_SLICE0       = (uint32_t)0x4000000, /**< Shadow transfe
 221:C:/Workspace/DAVE-4.4.2-64Bit/xmc1400-getstarted-optiga-trust-m/Libraries/XMCLib/inc\xmc_ccu4.h ****                                                                                      only for slice
 222:C:/Workspace/DAVE-4.4.2-64Bit/xmc1400-getstarted-optiga-trust-m/Libraries/XMCLib/inc\xmc_ccu4.h ****   XMC_CCU4_MULTI_CHANNEL_SHADOW_TRANSFER_SW_MCSS_SLICE0  = (uint32_t)0x4000400, /**< Shadow transfe
 223:C:/Workspace/DAVE-4.4.2-64Bit/xmc1400-getstarted-optiga-trust-m/Libraries/XMCLib/inc\xmc_ccu4.h ****                                                                                      and hardware f
 224:C:/Workspace/DAVE-4.4.2-64Bit/xmc1400-getstarted-optiga-trust-m/Libraries/XMCLib/inc\xmc_ccu4.h ****   XMC_CCU4_MULTI_CHANNEL_SHADOW_TRANSFER_SW_SLICE1       = (uint32_t)0x8000000, /**< Shadow transfe
 225:C:/Workspace/DAVE-4.4.2-64Bit/xmc1400-getstarted-optiga-trust-m/Libraries/XMCLib/inc\xmc_ccu4.h ****                                                                                      only for slice
 226:C:/Workspace/DAVE-4.4.2-64Bit/xmc1400-getstarted-optiga-trust-m/Libraries/XMCLib/inc\xmc_ccu4.h ****   XMC_CCU4_MULTI_CHANNEL_SHADOW_TRANSFER_SW_MCSS_SLICE1  = (uint32_t)0x8000800, /**< Shadow transfe
 227:C:/Workspace/DAVE-4.4.2-64Bit/xmc1400-getstarted-optiga-trust-m/Libraries/XMCLib/inc\xmc_ccu4.h ****                                                                                      and hardware f
 228:C:/Workspace/DAVE-4.4.2-64Bit/xmc1400-getstarted-optiga-trust-m/Libraries/XMCLib/inc\xmc_ccu4.h ****   XMC_CCU4_MULTI_CHANNEL_SHADOW_TRANSFER_SW_SLICE2       = (uint32_t)0x10000000, /**< Shadow transf
 229:C:/Workspace/DAVE-4.4.2-64Bit/xmc1400-getstarted-optiga-trust-m/Libraries/XMCLib/inc\xmc_ccu4.h ****                                                                                       only for slic
 230:C:/Workspace/DAVE-4.4.2-64Bit/xmc1400-getstarted-optiga-trust-m/Libraries/XMCLib/inc\xmc_ccu4.h ****   XMC_CCU4_MULTI_CHANNEL_SHADOW_TRANSFER_SW_MCSS_SLICE2  = (uint32_t)0x10001000, /**< Shadow transf
 231:C:/Workspace/DAVE-4.4.2-64Bit/xmc1400-getstarted-optiga-trust-m/Libraries/XMCLib/inc\xmc_ccu4.h ****                                                                                       and hardware 
 232:C:/Workspace/DAVE-4.4.2-64Bit/xmc1400-getstarted-optiga-trust-m/Libraries/XMCLib/inc\xmc_ccu4.h ****   XMC_CCU4_MULTI_CHANNEL_SHADOW_TRANSFER_SW_SLICE3       = (uint32_t)0x20000000, /**< Shadow transf
 233:C:/Workspace/DAVE-4.4.2-64Bit/xmc1400-getstarted-optiga-trust-m/Libraries/XMCLib/inc\xmc_ccu4.h ****                                                                                       only for slic
 234:C:/Workspace/DAVE-4.4.2-64Bit/xmc1400-getstarted-optiga-trust-m/Libraries/XMCLib/inc\xmc_ccu4.h ****   XMC_CCU4_MULTI_CHANNEL_SHADOW_TRANSFER_SW_MCSS_SLICE3  = (uint32_t)0x20002000  /**< Shadow transf
 235:C:/Workspace/DAVE-4.4.2-64Bit/xmc1400-getstarted-optiga-trust-m/Libraries/XMCLib/inc\xmc_ccu4.h ****                                                                                       and hardware 
 236:C:/Workspace/DAVE-4.4.2-64Bit/xmc1400-getstarted-optiga-trust-m/Libraries/XMCLib/inc\xmc_ccu4.h **** } XMC_CCU4_MULTI_CHANNEL_SHADOW_TRANSFER_t;
 237:C:/Workspace/DAVE-4.4.2-64Bit/xmc1400-getstarted-optiga-trust-m/Libraries/XMCLib/inc\xmc_ccu4.h **** 
 238:C:/Workspace/DAVE-4.4.2-64Bit/xmc1400-getstarted-optiga-trust-m/Libraries/XMCLib/inc\xmc_ccu4.h **** /**
 239:C:/Workspace/DAVE-4.4.2-64Bit/xmc1400-getstarted-optiga-trust-m/Libraries/XMCLib/inc\xmc_ccu4.h ****  *  Operational modes of CCU4 slice
 240:C:/Workspace/DAVE-4.4.2-64Bit/xmc1400-getstarted-optiga-trust-m/Libraries/XMCLib/inc\xmc_ccu4.h ****  */ 
 241:C:/Workspace/DAVE-4.4.2-64Bit/xmc1400-getstarted-optiga-trust-m/Libraries/XMCLib/inc\xmc_ccu4.h **** typedef enum XMC_CCU4_SLICE_MODE
 242:C:/Workspace/DAVE-4.4.2-64Bit/xmc1400-getstarted-optiga-trust-m/Libraries/XMCLib/inc\xmc_ccu4.h **** {
 243:C:/Workspace/DAVE-4.4.2-64Bit/xmc1400-getstarted-optiga-trust-m/Libraries/XMCLib/inc\xmc_ccu4.h ****   XMC_CCU4_SLICE_MODE_COMPARE  = 0U, /**< slice(CC4y) operates in Compare Mode */
 244:C:/Workspace/DAVE-4.4.2-64Bit/xmc1400-getstarted-optiga-trust-m/Libraries/XMCLib/inc\xmc_ccu4.h ****   XMC_CCU4_SLICE_MODE_CAPTURE        /**< slice(CC4y) operates in Capture Mode */
 245:C:/Workspace/DAVE-4.4.2-64Bit/xmc1400-getstarted-optiga-trust-m/Libraries/XMCLib/inc\xmc_ccu4.h **** } XMC_CCU4_SLICE_MODE_t;
 246:C:/Workspace/DAVE-4.4.2-64Bit/xmc1400-getstarted-optiga-trust-m/Libraries/XMCLib/inc\xmc_ccu4.h **** 
 247:C:/Workspace/DAVE-4.4.2-64Bit/xmc1400-getstarted-optiga-trust-m/Libraries/XMCLib/inc\xmc_ccu4.h **** /**
 248:C:/Workspace/DAVE-4.4.2-64Bit/xmc1400-getstarted-optiga-trust-m/Libraries/XMCLib/inc\xmc_ccu4.h ****  *  Timer counting modes for the slice
 249:C:/Workspace/DAVE-4.4.2-64Bit/xmc1400-getstarted-optiga-trust-m/Libraries/XMCLib/inc\xmc_ccu4.h ****  */ 
 250:C:/Workspace/DAVE-4.4.2-64Bit/xmc1400-getstarted-optiga-trust-m/Libraries/XMCLib/inc\xmc_ccu4.h **** typedef enum XMC_CCU4_SLICE_TIMER_COUNT_MODE
 251:C:/Workspace/DAVE-4.4.2-64Bit/xmc1400-getstarted-optiga-trust-m/Libraries/XMCLib/inc\xmc_ccu4.h **** {
 252:C:/Workspace/DAVE-4.4.2-64Bit/xmc1400-getstarted-optiga-trust-m/Libraries/XMCLib/inc\xmc_ccu4.h ****   XMC_CCU4_SLICE_TIMER_COUNT_MODE_EA  = 0U, /**< Edge Aligned Mode */
 253:C:/Workspace/DAVE-4.4.2-64Bit/xmc1400-getstarted-optiga-trust-m/Libraries/XMCLib/inc\xmc_ccu4.h ****   XMC_CCU4_SLICE_TIMER_COUNT_MODE_CA        /**< Center Aligned Mode */
 254:C:/Workspace/DAVE-4.4.2-64Bit/xmc1400-getstarted-optiga-trust-m/Libraries/XMCLib/inc\xmc_ccu4.h **** } XMC_CCU4_SLICE_TIMER_COUNT_MODE_t;
 255:C:/Workspace/DAVE-4.4.2-64Bit/xmc1400-getstarted-optiga-trust-m/Libraries/XMCLib/inc\xmc_ccu4.h **** 
 256:C:/Workspace/DAVE-4.4.2-64Bit/xmc1400-getstarted-optiga-trust-m/Libraries/XMCLib/inc\xmc_ccu4.h **** /**
 257:C:/Workspace/DAVE-4.4.2-64Bit/xmc1400-getstarted-optiga-trust-m/Libraries/XMCLib/inc\xmc_ccu4.h ****  *  Timer repetition mode for the slice
 258:C:/Workspace/DAVE-4.4.2-64Bit/xmc1400-getstarted-optiga-trust-m/Libraries/XMCLib/inc\xmc_ccu4.h ****  */ 
 259:C:/Workspace/DAVE-4.4.2-64Bit/xmc1400-getstarted-optiga-trust-m/Libraries/XMCLib/inc\xmc_ccu4.h **** typedef enum XMC_CCU4_SLICE_TIMER_REPEAT_MODE
 260:C:/Workspace/DAVE-4.4.2-64Bit/xmc1400-getstarted-optiga-trust-m/Libraries/XMCLib/inc\xmc_ccu4.h **** {
 261:C:/Workspace/DAVE-4.4.2-64Bit/xmc1400-getstarted-optiga-trust-m/Libraries/XMCLib/inc\xmc_ccu4.h ****   XMC_CCU4_SLICE_TIMER_REPEAT_MODE_REPEAT = 0U,  /**< Repetitive mode: continuous mode of operation
 262:C:/Workspace/DAVE-4.4.2-64Bit/xmc1400-getstarted-optiga-trust-m/Libraries/XMCLib/inc\xmc_ccu4.h ****   XMC_CCU4_SLICE_TIMER_REPEAT_MODE_SINGLE        /**< Single shot mode: Once a Period match/One mat
 263:C:/Workspace/DAVE-4.4.2-64Bit/xmc1400-getstarted-optiga-trust-m/Libraries/XMCLib/inc\xmc_ccu4.h ****                                                       occurs timer goes to idle state */
 264:C:/Workspace/DAVE-4.4.2-64Bit/xmc1400-getstarted-optiga-trust-m/Libraries/XMCLib/inc\xmc_ccu4.h **** } XMC_CCU4_SLICE_TIMER_REPEAT_MODE_t;
 265:C:/Workspace/DAVE-4.4.2-64Bit/xmc1400-getstarted-optiga-trust-m/Libraries/XMCLib/inc\xmc_ccu4.h **** 
 266:C:/Workspace/DAVE-4.4.2-64Bit/xmc1400-getstarted-optiga-trust-m/Libraries/XMCLib/inc\xmc_ccu4.h **** /**
 267:C:/Workspace/DAVE-4.4.2-64Bit/xmc1400-getstarted-optiga-trust-m/Libraries/XMCLib/inc\xmc_ccu4.h ****  * Timer counting direction for the CCU4 slice
 268:C:/Workspace/DAVE-4.4.2-64Bit/xmc1400-getstarted-optiga-trust-m/Libraries/XMCLib/inc\xmc_ccu4.h ****  */ 
 269:C:/Workspace/DAVE-4.4.2-64Bit/xmc1400-getstarted-optiga-trust-m/Libraries/XMCLib/inc\xmc_ccu4.h **** typedef enum XMC_CCU4_SLICE_TIMER_COUNT_DIR
 270:C:/Workspace/DAVE-4.4.2-64Bit/xmc1400-getstarted-optiga-trust-m/Libraries/XMCLib/inc\xmc_ccu4.h **** {
 271:C:/Workspace/DAVE-4.4.2-64Bit/xmc1400-getstarted-optiga-trust-m/Libraries/XMCLib/inc\xmc_ccu4.h ****   XMC_CCU4_SLICE_TIMER_COUNT_DIR_UP   = 0U, /**< Counting up */
 272:C:/Workspace/DAVE-4.4.2-64Bit/xmc1400-getstarted-optiga-trust-m/Libraries/XMCLib/inc\xmc_ccu4.h ****   XMC_CCU4_SLICE_TIMER_COUNT_DIR_DOWN       /**< Counting down */
 273:C:/Workspace/DAVE-4.4.2-64Bit/xmc1400-getstarted-optiga-trust-m/Libraries/XMCLib/inc\xmc_ccu4.h **** } XMC_CCU4_SLICE_TIMER_COUNT_DIR_t;
 274:C:/Workspace/DAVE-4.4.2-64Bit/xmc1400-getstarted-optiga-trust-m/Libraries/XMCLib/inc\xmc_ccu4.h **** 
 275:C:/Workspace/DAVE-4.4.2-64Bit/xmc1400-getstarted-optiga-trust-m/Libraries/XMCLib/inc\xmc_ccu4.h **** /**
 276:C:/Workspace/DAVE-4.4.2-64Bit/xmc1400-getstarted-optiga-trust-m/Libraries/XMCLib/inc\xmc_ccu4.h ****  *  Capture mode register sets
 277:C:/Workspace/DAVE-4.4.2-64Bit/xmc1400-getstarted-optiga-trust-m/Libraries/XMCLib/inc\xmc_ccu4.h ****  */ 
 278:C:/Workspace/DAVE-4.4.2-64Bit/xmc1400-getstarted-optiga-trust-m/Libraries/XMCLib/inc\xmc_ccu4.h **** typedef enum XMC_CCU4_SLICE_CAP_REG_SET
 279:C:/Workspace/DAVE-4.4.2-64Bit/xmc1400-getstarted-optiga-trust-m/Libraries/XMCLib/inc\xmc_ccu4.h **** {
 280:C:/Workspace/DAVE-4.4.2-64Bit/xmc1400-getstarted-optiga-trust-m/Libraries/XMCLib/inc\xmc_ccu4.h ****   XMC_CCU4_SLICE_CAP_REG_SET_LOW  = 0U, /**< Capture register-0, Capture register-1 used */
 281:C:/Workspace/DAVE-4.4.2-64Bit/xmc1400-getstarted-optiga-trust-m/Libraries/XMCLib/inc\xmc_ccu4.h ****   XMC_CCU4_SLICE_CAP_REG_SET_HIGH       /**< Capture register-2, Capture register-3 used */
 282:C:/Workspace/DAVE-4.4.2-64Bit/xmc1400-getstarted-optiga-trust-m/Libraries/XMCLib/inc\xmc_ccu4.h **** } XMC_CCU4_SLICE_CAP_REG_SET_t;
 283:C:/Workspace/DAVE-4.4.2-64Bit/xmc1400-getstarted-optiga-trust-m/Libraries/XMCLib/inc\xmc_ccu4.h **** 
 284:C:/Workspace/DAVE-4.4.2-64Bit/xmc1400-getstarted-optiga-trust-m/Libraries/XMCLib/inc\xmc_ccu4.h **** /**
 285:C:/Workspace/DAVE-4.4.2-64Bit/xmc1400-getstarted-optiga-trust-m/Libraries/XMCLib/inc\xmc_ccu4.h ****  *  Prescaler mode
 286:C:/Workspace/DAVE-4.4.2-64Bit/xmc1400-getstarted-optiga-trust-m/Libraries/XMCLib/inc\xmc_ccu4.h ****  */ 
 287:C:/Workspace/DAVE-4.4.2-64Bit/xmc1400-getstarted-optiga-trust-m/Libraries/XMCLib/inc\xmc_ccu4.h **** typedef enum XMC_CCU4_SLICE_PRESCALER_MODE
 288:C:/Workspace/DAVE-4.4.2-64Bit/xmc1400-getstarted-optiga-trust-m/Libraries/XMCLib/inc\xmc_ccu4.h **** {
 289:C:/Workspace/DAVE-4.4.2-64Bit/xmc1400-getstarted-optiga-trust-m/Libraries/XMCLib/inc\xmc_ccu4.h ****   XMC_CCU4_SLICE_PRESCALER_MODE_NORMAL = 0U, /**< Fixed division of module clock */
 290:C:/Workspace/DAVE-4.4.2-64Bit/xmc1400-getstarted-optiga-trust-m/Libraries/XMCLib/inc\xmc_ccu4.h ****   XMC_CCU4_SLICE_PRESCALER_MODE_FLOAT        /**< Floating divider. */
 291:C:/Workspace/DAVE-4.4.2-64Bit/xmc1400-getstarted-optiga-trust-m/Libraries/XMCLib/inc\xmc_ccu4.h **** } XMC_CCU4_SLICE_PRESCALER_MODE_t;
 292:C:/Workspace/DAVE-4.4.2-64Bit/xmc1400-getstarted-optiga-trust-m/Libraries/XMCLib/inc\xmc_ccu4.h **** 
 293:C:/Workspace/DAVE-4.4.2-64Bit/xmc1400-getstarted-optiga-trust-m/Libraries/XMCLib/inc\xmc_ccu4.h **** /**
 294:C:/Workspace/DAVE-4.4.2-64Bit/xmc1400-getstarted-optiga-trust-m/Libraries/XMCLib/inc\xmc_ccu4.h ****  *  Timer output passive level
 295:C:/Workspace/DAVE-4.4.2-64Bit/xmc1400-getstarted-optiga-trust-m/Libraries/XMCLib/inc\xmc_ccu4.h ****  */ 
 296:C:/Workspace/DAVE-4.4.2-64Bit/xmc1400-getstarted-optiga-trust-m/Libraries/XMCLib/inc\xmc_ccu4.h **** typedef enum XMC_CCU4_SLICE_OUTPUT_PASSIVE_LEVEL
 297:C:/Workspace/DAVE-4.4.2-64Bit/xmc1400-getstarted-optiga-trust-m/Libraries/XMCLib/inc\xmc_ccu4.h **** {
 298:C:/Workspace/DAVE-4.4.2-64Bit/xmc1400-getstarted-optiga-trust-m/Libraries/XMCLib/inc\xmc_ccu4.h ****   XMC_CCU4_SLICE_OUTPUT_PASSIVE_LEVEL_LOW  = 0U, /**< Passive level = Low */
 299:C:/Workspace/DAVE-4.4.2-64Bit/xmc1400-getstarted-optiga-trust-m/Libraries/XMCLib/inc\xmc_ccu4.h ****   XMC_CCU4_SLICE_OUTPUT_PASSIVE_LEVEL_HIGH       /**< Passive level = High */
 300:C:/Workspace/DAVE-4.4.2-64Bit/xmc1400-getstarted-optiga-trust-m/Libraries/XMCLib/inc\xmc_ccu4.h **** } XMC_CCU4_SLICE_OUTPUT_PASSIVE_LEVEL_t;
 301:C:/Workspace/DAVE-4.4.2-64Bit/xmc1400-getstarted-optiga-trust-m/Libraries/XMCLib/inc\xmc_ccu4.h **** 
 302:C:/Workspace/DAVE-4.4.2-64Bit/xmc1400-getstarted-optiga-trust-m/Libraries/XMCLib/inc\xmc_ccu4.h **** /**
 303:C:/Workspace/DAVE-4.4.2-64Bit/xmc1400-getstarted-optiga-trust-m/Libraries/XMCLib/inc\xmc_ccu4.h ****  * Timer clock Divider
 304:C:/Workspace/DAVE-4.4.2-64Bit/xmc1400-getstarted-optiga-trust-m/Libraries/XMCLib/inc\xmc_ccu4.h ****  */
 305:C:/Workspace/DAVE-4.4.2-64Bit/xmc1400-getstarted-optiga-trust-m/Libraries/XMCLib/inc\xmc_ccu4.h **** typedef enum XMC_CCU4_SLICE_PRESCALER
 306:C:/Workspace/DAVE-4.4.2-64Bit/xmc1400-getstarted-optiga-trust-m/Libraries/XMCLib/inc\xmc_ccu4.h **** {
 307:C:/Workspace/DAVE-4.4.2-64Bit/xmc1400-getstarted-optiga-trust-m/Libraries/XMCLib/inc\xmc_ccu4.h ****   XMC_CCU4_SLICE_PRESCALER_1  = 0U, /**< Slice Clock = fccu4 */
 308:C:/Workspace/DAVE-4.4.2-64Bit/xmc1400-getstarted-optiga-trust-m/Libraries/XMCLib/inc\xmc_ccu4.h ****   XMC_CCU4_SLICE_PRESCALER_2      , /**< Slice Clock = fccu4/2 */
 309:C:/Workspace/DAVE-4.4.2-64Bit/xmc1400-getstarted-optiga-trust-m/Libraries/XMCLib/inc\xmc_ccu4.h ****   XMC_CCU4_SLICE_PRESCALER_4      , /**< Slice Clock = fccu4/4 */
 310:C:/Workspace/DAVE-4.4.2-64Bit/xmc1400-getstarted-optiga-trust-m/Libraries/XMCLib/inc\xmc_ccu4.h ****   XMC_CCU4_SLICE_PRESCALER_8      , /**< Slice Clock = fccu4/8 */
 311:C:/Workspace/DAVE-4.4.2-64Bit/xmc1400-getstarted-optiga-trust-m/Libraries/XMCLib/inc\xmc_ccu4.h ****   XMC_CCU4_SLICE_PRESCALER_16     , /**< Slice Clock = fccu4/16 */
 312:C:/Workspace/DAVE-4.4.2-64Bit/xmc1400-getstarted-optiga-trust-m/Libraries/XMCLib/inc\xmc_ccu4.h ****   XMC_CCU4_SLICE_PRESCALER_32     , /**< Slice Clock = fccu4/32 */
 313:C:/Workspace/DAVE-4.4.2-64Bit/xmc1400-getstarted-optiga-trust-m/Libraries/XMCLib/inc\xmc_ccu4.h ****   XMC_CCU4_SLICE_PRESCALER_64     , /**< Slice Clock = fccu4/64 */
 314:C:/Workspace/DAVE-4.4.2-64Bit/xmc1400-getstarted-optiga-trust-m/Libraries/XMCLib/inc\xmc_ccu4.h ****   XMC_CCU4_SLICE_PRESCALER_128    , /**< Slice Clock = fccu4/128 */
 315:C:/Workspace/DAVE-4.4.2-64Bit/xmc1400-getstarted-optiga-trust-m/Libraries/XMCLib/inc\xmc_ccu4.h ****   XMC_CCU4_SLICE_PRESCALER_256    , /**< Slice Clock = fccu4/256 */
 316:C:/Workspace/DAVE-4.4.2-64Bit/xmc1400-getstarted-optiga-trust-m/Libraries/XMCLib/inc\xmc_ccu4.h ****   XMC_CCU4_SLICE_PRESCALER_512    , /**< Slice Clock = fccu4/512 */
 317:C:/Workspace/DAVE-4.4.2-64Bit/xmc1400-getstarted-optiga-trust-m/Libraries/XMCLib/inc\xmc_ccu4.h ****   XMC_CCU4_SLICE_PRESCALER_1024   , /**< Slice Clock = fccu4/1024 */
 318:C:/Workspace/DAVE-4.4.2-64Bit/xmc1400-getstarted-optiga-trust-m/Libraries/XMCLib/inc\xmc_ccu4.h ****   XMC_CCU4_SLICE_PRESCALER_2048   , /**< Slice Clock = fccu4/2048 */
 319:C:/Workspace/DAVE-4.4.2-64Bit/xmc1400-getstarted-optiga-trust-m/Libraries/XMCLib/inc\xmc_ccu4.h ****   XMC_CCU4_SLICE_PRESCALER_4096   , /**< Slice Clock = fccu4/4096 */
 320:C:/Workspace/DAVE-4.4.2-64Bit/xmc1400-getstarted-optiga-trust-m/Libraries/XMCLib/inc\xmc_ccu4.h ****   XMC_CCU4_SLICE_PRESCALER_8192   , /**< Slice Clock = fccu4/8192 */
 321:C:/Workspace/DAVE-4.4.2-64Bit/xmc1400-getstarted-optiga-trust-m/Libraries/XMCLib/inc\xmc_ccu4.h ****   XMC_CCU4_SLICE_PRESCALER_16384  , /**< Slice Clock = fccu4/16384 */
 322:C:/Workspace/DAVE-4.4.2-64Bit/xmc1400-getstarted-optiga-trust-m/Libraries/XMCLib/inc\xmc_ccu4.h ****   XMC_CCU4_SLICE_PRESCALER_32768    /**< Slice Clock = fccu4/32768 */
 323:C:/Workspace/DAVE-4.4.2-64Bit/xmc1400-getstarted-optiga-trust-m/Libraries/XMCLib/inc\xmc_ccu4.h **** } XMC_CCU4_SLICE_PRESCALER_t;
 324:C:/Workspace/DAVE-4.4.2-64Bit/xmc1400-getstarted-optiga-trust-m/Libraries/XMCLib/inc\xmc_ccu4.h **** 
 325:C:/Workspace/DAVE-4.4.2-64Bit/xmc1400-getstarted-optiga-trust-m/Libraries/XMCLib/inc\xmc_ccu4.h **** /**
 326:C:/Workspace/DAVE-4.4.2-64Bit/xmc1400-getstarted-optiga-trust-m/Libraries/XMCLib/inc\xmc_ccu4.h ****  *  External Function list
 327:C:/Workspace/DAVE-4.4.2-64Bit/xmc1400-getstarted-optiga-trust-m/Libraries/XMCLib/inc\xmc_ccu4.h ****  */ 
 328:C:/Workspace/DAVE-4.4.2-64Bit/xmc1400-getstarted-optiga-trust-m/Libraries/XMCLib/inc\xmc_ccu4.h **** typedef enum XMC_CCU4_SLICE_FUNCTION
 329:C:/Workspace/DAVE-4.4.2-64Bit/xmc1400-getstarted-optiga-trust-m/Libraries/XMCLib/inc\xmc_ccu4.h **** {
 330:C:/Workspace/DAVE-4.4.2-64Bit/xmc1400-getstarted-optiga-trust-m/Libraries/XMCLib/inc\xmc_ccu4.h ****   XMC_CCU4_SLICE_FUNCTION_START           = 0U, /**< Start function */
 331:C:/Workspace/DAVE-4.4.2-64Bit/xmc1400-getstarted-optiga-trust-m/Libraries/XMCLib/inc\xmc_ccu4.h ****   XMC_CCU4_SLICE_FUNCTION_STOP                , /**< Stop function */
 332:C:/Workspace/DAVE-4.4.2-64Bit/xmc1400-getstarted-optiga-trust-m/Libraries/XMCLib/inc\xmc_ccu4.h ****   XMC_CCU4_SLICE_FUNCTION_CAPTURE_EVENT0      , /**< Capture Event-0 function, CCycapt0 signal is u
 333:C:/Workspace/DAVE-4.4.2-64Bit/xmc1400-getstarted-optiga-trust-m/Libraries/XMCLib/inc\xmc_ccu4.h ****                                                      generation */
 334:C:/Workspace/DAVE-4.4.2-64Bit/xmc1400-getstarted-optiga-trust-m/Libraries/XMCLib/inc\xmc_ccu4.h ****   XMC_CCU4_SLICE_FUNCTION_CAPTURE_EVENT1      , /**< Capture Event-1 function, CCycapt1 signal is u
 335:C:/Workspace/DAVE-4.4.2-64Bit/xmc1400-getstarted-optiga-trust-m/Libraries/XMCLib/inc\xmc_ccu4.h ****                                                      generation */
 336:C:/Workspace/DAVE-4.4.2-64Bit/xmc1400-getstarted-optiga-trust-m/Libraries/XMCLib/inc\xmc_ccu4.h ****   XMC_CCU4_SLICE_FUNCTION_GATING              , /**< Gating function */
 337:C:/Workspace/DAVE-4.4.2-64Bit/xmc1400-getstarted-optiga-trust-m/Libraries/XMCLib/inc\xmc_ccu4.h ****   XMC_CCU4_SLICE_FUNCTION_DIRECTION           , /**< Direction function */
 338:C:/Workspace/DAVE-4.4.2-64Bit/xmc1400-getstarted-optiga-trust-m/Libraries/XMCLib/inc\xmc_ccu4.h ****   XMC_CCU4_SLICE_FUNCTION_LOAD                , /**< Load function */
 339:C:/Workspace/DAVE-4.4.2-64Bit/xmc1400-getstarted-optiga-trust-m/Libraries/XMCLib/inc\xmc_ccu4.h ****   XMC_CCU4_SLICE_FUNCTION_COUNT               , /**< Counting function */
 340:C:/Workspace/DAVE-4.4.2-64Bit/xmc1400-getstarted-optiga-trust-m/Libraries/XMCLib/inc\xmc_ccu4.h ****   XMC_CCU4_SLICE_FUNCTION_OVERRIDE            , /**< Override function */
 341:C:/Workspace/DAVE-4.4.2-64Bit/xmc1400-getstarted-optiga-trust-m/Libraries/XMCLib/inc\xmc_ccu4.h ****   XMC_CCU4_SLICE_FUNCTION_MODULATION          , /**< Modulation function */
 342:C:/Workspace/DAVE-4.4.2-64Bit/xmc1400-getstarted-optiga-trust-m/Libraries/XMCLib/inc\xmc_ccu4.h ****   XMC_CCU4_SLICE_FUNCTION_TRAP                  /**< Trap function */
 343:C:/Workspace/DAVE-4.4.2-64Bit/xmc1400-getstarted-optiga-trust-m/Libraries/XMCLib/inc\xmc_ccu4.h **** } XMC_CCU4_SLICE_FUNCTION_t;
 344:C:/Workspace/DAVE-4.4.2-64Bit/xmc1400-getstarted-optiga-trust-m/Libraries/XMCLib/inc\xmc_ccu4.h **** 
 345:C:/Workspace/DAVE-4.4.2-64Bit/xmc1400-getstarted-optiga-trust-m/Libraries/XMCLib/inc\xmc_ccu4.h **** /**
 346:C:/Workspace/DAVE-4.4.2-64Bit/xmc1400-getstarted-optiga-trust-m/Libraries/XMCLib/inc\xmc_ccu4.h ****  *  External Event list
 347:C:/Workspace/DAVE-4.4.2-64Bit/xmc1400-getstarted-optiga-trust-m/Libraries/XMCLib/inc\xmc_ccu4.h ****  */ 
 348:C:/Workspace/DAVE-4.4.2-64Bit/xmc1400-getstarted-optiga-trust-m/Libraries/XMCLib/inc\xmc_ccu4.h **** typedef enum XMC_CCU4_SLICE_EVENT
 349:C:/Workspace/DAVE-4.4.2-64Bit/xmc1400-getstarted-optiga-trust-m/Libraries/XMCLib/inc\xmc_ccu4.h **** {
 350:C:/Workspace/DAVE-4.4.2-64Bit/xmc1400-getstarted-optiga-trust-m/Libraries/XMCLib/inc\xmc_ccu4.h ****   XMC_CCU4_SLICE_EVENT_NONE  = 0U, /**< None */
 351:C:/Workspace/DAVE-4.4.2-64Bit/xmc1400-getstarted-optiga-trust-m/Libraries/XMCLib/inc\xmc_ccu4.h ****   XMC_CCU4_SLICE_EVENT_0         , /**< Event-0 */
 352:C:/Workspace/DAVE-4.4.2-64Bit/xmc1400-getstarted-optiga-trust-m/Libraries/XMCLib/inc\xmc_ccu4.h ****   XMC_CCU4_SLICE_EVENT_1         , /**< Event-1 */
 353:C:/Workspace/DAVE-4.4.2-64Bit/xmc1400-getstarted-optiga-trust-m/Libraries/XMCLib/inc\xmc_ccu4.h ****   XMC_CCU4_SLICE_EVENT_2           /**< Event-2 */
 354:C:/Workspace/DAVE-4.4.2-64Bit/xmc1400-getstarted-optiga-trust-m/Libraries/XMCLib/inc\xmc_ccu4.h **** } XMC_CCU4_SLICE_EVENT_t;
 355:C:/Workspace/DAVE-4.4.2-64Bit/xmc1400-getstarted-optiga-trust-m/Libraries/XMCLib/inc\xmc_ccu4.h **** 
 356:C:/Workspace/DAVE-4.4.2-64Bit/xmc1400-getstarted-optiga-trust-m/Libraries/XMCLib/inc\xmc_ccu4.h **** /**
 357:C:/Workspace/DAVE-4.4.2-64Bit/xmc1400-getstarted-optiga-trust-m/Libraries/XMCLib/inc\xmc_ccu4.h ****  *  External Event trigger criteria  - Edge sensitivity
 358:C:/Workspace/DAVE-4.4.2-64Bit/xmc1400-getstarted-optiga-trust-m/Libraries/XMCLib/inc\xmc_ccu4.h ****  */ 
 359:C:/Workspace/DAVE-4.4.2-64Bit/xmc1400-getstarted-optiga-trust-m/Libraries/XMCLib/inc\xmc_ccu4.h **** typedef enum XMC_CCU4_SLICE_EVENT_EDGE_SENSITIVITY
 360:C:/Workspace/DAVE-4.4.2-64Bit/xmc1400-getstarted-optiga-trust-m/Libraries/XMCLib/inc\xmc_ccu4.h **** {
 361:C:/Workspace/DAVE-4.4.2-64Bit/xmc1400-getstarted-optiga-trust-m/Libraries/XMCLib/inc\xmc_ccu4.h ****   XMC_CCU4_SLICE_EVENT_EDGE_SENSITIVITY_NONE         = 0U, /**< None */
 362:C:/Workspace/DAVE-4.4.2-64Bit/xmc1400-getstarted-optiga-trust-m/Libraries/XMCLib/inc\xmc_ccu4.h ****   XMC_CCU4_SLICE_EVENT_EDGE_SENSITIVITY_RISING_EDGE      , /**< Rising Edge of the input signal gen
 363:C:/Workspace/DAVE-4.4.2-64Bit/xmc1400-getstarted-optiga-trust-m/Libraries/XMCLib/inc\xmc_ccu4.h ****   XMC_CCU4_SLICE_EVENT_EDGE_SENSITIVITY_FALLING_EDGE     , /**< Falling Edge of the input signal ge
 364:C:/Workspace/DAVE-4.4.2-64Bit/xmc1400-getstarted-optiga-trust-m/Libraries/XMCLib/inc\xmc_ccu4.h ****                                                                 trigger */
 365:C:/Workspace/DAVE-4.4.2-64Bit/xmc1400-getstarted-optiga-trust-m/Libraries/XMCLib/inc\xmc_ccu4.h ****   XMC_CCU4_SLICE_EVENT_EDGE_SENSITIVITY_DUAL_EDGE          /**< Both Rising and Falling edges cause
 366:C:/Workspace/DAVE-4.4.2-64Bit/xmc1400-getstarted-optiga-trust-m/Libraries/XMCLib/inc\xmc_ccu4.h **** } XMC_CCU4_SLICE_EVENT_EDGE_SENSITIVITY_t;
 367:C:/Workspace/DAVE-4.4.2-64Bit/xmc1400-getstarted-optiga-trust-m/Libraries/XMCLib/inc\xmc_ccu4.h **** 
 368:C:/Workspace/DAVE-4.4.2-64Bit/xmc1400-getstarted-optiga-trust-m/Libraries/XMCLib/inc\xmc_ccu4.h **** /**
 369:C:/Workspace/DAVE-4.4.2-64Bit/xmc1400-getstarted-optiga-trust-m/Libraries/XMCLib/inc\xmc_ccu4.h ****  *  External Event trigger criteria  - Level sensitivity
 370:C:/Workspace/DAVE-4.4.2-64Bit/xmc1400-getstarted-optiga-trust-m/Libraries/XMCLib/inc\xmc_ccu4.h ****  */ 
 371:C:/Workspace/DAVE-4.4.2-64Bit/xmc1400-getstarted-optiga-trust-m/Libraries/XMCLib/inc\xmc_ccu4.h **** typedef enum XMC_CCU4_SLICE_EVENT_LEVEL_SENSITIVITY
 372:C:/Workspace/DAVE-4.4.2-64Bit/xmc1400-getstarted-optiga-trust-m/Libraries/XMCLib/inc\xmc_ccu4.h **** {
 373:C:/Workspace/DAVE-4.4.2-64Bit/xmc1400-getstarted-optiga-trust-m/Libraries/XMCLib/inc\xmc_ccu4.h ****   XMC_CCU4_SLICE_EVENT_LEVEL_SENSITIVITY_ACTIVE_HIGH = 0U, /**< Level sensitive functions react to 
 374:C:/Workspace/DAVE-4.4.2-64Bit/xmc1400-getstarted-optiga-trust-m/Libraries/XMCLib/inc\xmc_ccu4.h ****   XMC_CCU4_SLICE_EVENT_LEVEL_SENSITIVITY_ACTIVE_LOW  = 1U, /**< Level sensitive functions react to 
 375:C:/Workspace/DAVE-4.4.2-64Bit/xmc1400-getstarted-optiga-trust-m/Libraries/XMCLib/inc\xmc_ccu4.h ****   /* Below enum items can be utilised specific to the functionality */
 376:C:/Workspace/DAVE-4.4.2-64Bit/xmc1400-getstarted-optiga-trust-m/Libraries/XMCLib/inc\xmc_ccu4.h ****   XMC_CCU4_SLICE_EVENT_LEVEL_SENSITIVITY_COUNT_UP_ON_LOW = 0U, /**< Timer counts up, during Low sta
 377:C:/Workspace/DAVE-4.4.2-64Bit/xmc1400-getstarted-optiga-trust-m/Libraries/XMCLib/inc\xmc_ccu4.h ****   XMC_CCU4_SLICE_EVENT_LEVEL_SENSITIVITY_COUNT_UP_ON_HIGH = 1U /**< Timer counts up, during High st
 378:C:/Workspace/DAVE-4.4.2-64Bit/xmc1400-getstarted-optiga-trust-m/Libraries/XMCLib/inc\xmc_ccu4.h **** } XMC_CCU4_SLICE_EVENT_LEVEL_SENSITIVITY_t;
 379:C:/Workspace/DAVE-4.4.2-64Bit/xmc1400-getstarted-optiga-trust-m/Libraries/XMCLib/inc\xmc_ccu4.h **** 
 380:C:/Workspace/DAVE-4.4.2-64Bit/xmc1400-getstarted-optiga-trust-m/Libraries/XMCLib/inc\xmc_ccu4.h **** /**
 381:C:/Workspace/DAVE-4.4.2-64Bit/xmc1400-getstarted-optiga-trust-m/Libraries/XMCLib/inc\xmc_ccu4.h ****  *  Low pass filter Configuration. The External Event input should be stable for a selected number 
 382:C:/Workspace/DAVE-4.4.2-64Bit/xmc1400-getstarted-optiga-trust-m/Libraries/XMCLib/inc\xmc_ccu4.h ****  */ 
 383:C:/Workspace/DAVE-4.4.2-64Bit/xmc1400-getstarted-optiga-trust-m/Libraries/XMCLib/inc\xmc_ccu4.h **** typedef enum XMC_CCU4_SLICE_EVENT_FILTER
 384:C:/Workspace/DAVE-4.4.2-64Bit/xmc1400-getstarted-optiga-trust-m/Libraries/XMCLib/inc\xmc_ccu4.h **** {
 385:C:/Workspace/DAVE-4.4.2-64Bit/xmc1400-getstarted-optiga-trust-m/Libraries/XMCLib/inc\xmc_ccu4.h ****   XMC_CCU4_SLICE_EVENT_FILTER_DISABLED  = 0U, /**< No Low Pass Filter */
 386:C:/Workspace/DAVE-4.4.2-64Bit/xmc1400-getstarted-optiga-trust-m/Libraries/XMCLib/inc\xmc_ccu4.h ****   XMC_CCU4_SLICE_EVENT_FILTER_3_CYCLES      , /**< 3 clock cycles */
 387:C:/Workspace/DAVE-4.4.2-64Bit/xmc1400-getstarted-optiga-trust-m/Libraries/XMCLib/inc\xmc_ccu4.h ****   XMC_CCU4_SLICE_EVENT_FILTER_5_CYCLES      , /**< 5 clock cycles */
 388:C:/Workspace/DAVE-4.4.2-64Bit/xmc1400-getstarted-optiga-trust-m/Libraries/XMCLib/inc\xmc_ccu4.h ****   XMC_CCU4_SLICE_EVENT_FILTER_7_CYCLES        /**< 7 clock cycles */
 389:C:/Workspace/DAVE-4.4.2-64Bit/xmc1400-getstarted-optiga-trust-m/Libraries/XMCLib/inc\xmc_ccu4.h **** } XMC_CCU4_SLICE_EVENT_FILTER_t;
 390:C:/Workspace/DAVE-4.4.2-64Bit/xmc1400-getstarted-optiga-trust-m/Libraries/XMCLib/inc\xmc_ccu4.h **** 
 391:C:/Workspace/DAVE-4.4.2-64Bit/xmc1400-getstarted-optiga-trust-m/Libraries/XMCLib/inc\xmc_ccu4.h **** /**
 392:C:/Workspace/DAVE-4.4.2-64Bit/xmc1400-getstarted-optiga-trust-m/Libraries/XMCLib/inc\xmc_ccu4.h ****  *  External Event Input list. This list depicts the possible input connections to the CCU4 slice.
 393:C:/Workspace/DAVE-4.4.2-64Bit/xmc1400-getstarted-optiga-trust-m/Libraries/XMCLib/inc\xmc_ccu4.h ****  *  Interconnects are specific to each device.
 394:C:/Workspace/DAVE-4.4.2-64Bit/xmc1400-getstarted-optiga-trust-m/Libraries/XMCLib/inc\xmc_ccu4.h ****  */ 
 395:C:/Workspace/DAVE-4.4.2-64Bit/xmc1400-getstarted-optiga-trust-m/Libraries/XMCLib/inc\xmc_ccu4.h **** typedef uint8_t XMC_CCU4_SLICE_INPUT_t;
 396:C:/Workspace/DAVE-4.4.2-64Bit/xmc1400-getstarted-optiga-trust-m/Libraries/XMCLib/inc\xmc_ccu4.h **** 
 397:C:/Workspace/DAVE-4.4.2-64Bit/xmc1400-getstarted-optiga-trust-m/Libraries/XMCLib/inc\xmc_ccu4.h **** /**
 398:C:/Workspace/DAVE-4.4.2-64Bit/xmc1400-getstarted-optiga-trust-m/Libraries/XMCLib/inc\xmc_ccu4.h ****  * Actions that can be performed upon detection of an external Timer STOP event
 399:C:/Workspace/DAVE-4.4.2-64Bit/xmc1400-getstarted-optiga-trust-m/Libraries/XMCLib/inc\xmc_ccu4.h ****  */ 
 400:C:/Workspace/DAVE-4.4.2-64Bit/xmc1400-getstarted-optiga-trust-m/Libraries/XMCLib/inc\xmc_ccu4.h **** typedef enum XMC_CCU4_SLICE_END_MODE
 401:C:/Workspace/DAVE-4.4.2-64Bit/xmc1400-getstarted-optiga-trust-m/Libraries/XMCLib/inc\xmc_ccu4.h **** {
 402:C:/Workspace/DAVE-4.4.2-64Bit/xmc1400-getstarted-optiga-trust-m/Libraries/XMCLib/inc\xmc_ccu4.h ****   XMC_CCU4_SLICE_END_MODE_TIMER_STOP       = 0U, /**< Stops the timer, without clearing TIMER regis
 403:C:/Workspace/DAVE-4.4.2-64Bit/xmc1400-getstarted-optiga-trust-m/Libraries/XMCLib/inc\xmc_ccu4.h ****   XMC_CCU4_SLICE_END_MODE_TIMER_CLEAR          , /**< Without stopping timer, clears the TIMER regi
 404:C:/Workspace/DAVE-4.4.2-64Bit/xmc1400-getstarted-optiga-trust-m/Libraries/XMCLib/inc\xmc_ccu4.h ****   XMC_CCU4_SLICE_END_MODE_TIMER_STOP_CLEAR       /**< Stops the timer and clears the TIMER register
 405:C:/Workspace/DAVE-4.4.2-64Bit/xmc1400-getstarted-optiga-trust-m/Libraries/XMCLib/inc\xmc_ccu4.h **** } XMC_CCU4_SLICE_END_MODE_t;
 406:C:/Workspace/DAVE-4.4.2-64Bit/xmc1400-getstarted-optiga-trust-m/Libraries/XMCLib/inc\xmc_ccu4.h **** 
 407:C:/Workspace/DAVE-4.4.2-64Bit/xmc1400-getstarted-optiga-trust-m/Libraries/XMCLib/inc\xmc_ccu4.h **** /**
 408:C:/Workspace/DAVE-4.4.2-64Bit/xmc1400-getstarted-optiga-trust-m/Libraries/XMCLib/inc\xmc_ccu4.h ****  *  Actions that can be performed upon detection of an external Timer START event
 409:C:/Workspace/DAVE-4.4.2-64Bit/xmc1400-getstarted-optiga-trust-m/Libraries/XMCLib/inc\xmc_ccu4.h ****  */ 
 410:C:/Workspace/DAVE-4.4.2-64Bit/xmc1400-getstarted-optiga-trust-m/Libraries/XMCLib/inc\xmc_ccu4.h **** typedef enum XMC_CCU4_SLICE_START_MODE
 411:C:/Workspace/DAVE-4.4.2-64Bit/xmc1400-getstarted-optiga-trust-m/Libraries/XMCLib/inc\xmc_ccu4.h **** {
 412:C:/Workspace/DAVE-4.4.2-64Bit/xmc1400-getstarted-optiga-trust-m/Libraries/XMCLib/inc\xmc_ccu4.h ****   XMC_CCU4_SLICE_START_MODE_TIMER_START       = 0U, /**< Start the timer from the current count of 
 413:C:/Workspace/DAVE-4.4.2-64Bit/xmc1400-getstarted-optiga-trust-m/Libraries/XMCLib/inc\xmc_ccu4.h ****   XMC_CCU4_SLICE_START_MODE_TIMER_START_CLEAR       /**< Clears the TIMER register and start the ti
 414:C:/Workspace/DAVE-4.4.2-64Bit/xmc1400-getstarted-optiga-trust-m/Libraries/XMCLib/inc\xmc_ccu4.h **** } XMC_CCU4_SLICE_START_MODE_t;
 415:C:/Workspace/DAVE-4.4.2-64Bit/xmc1400-getstarted-optiga-trust-m/Libraries/XMCLib/inc\xmc_ccu4.h **** 
 416:C:/Workspace/DAVE-4.4.2-64Bit/xmc1400-getstarted-optiga-trust-m/Libraries/XMCLib/inc\xmc_ccu4.h **** /**
 417:C:/Workspace/DAVE-4.4.2-64Bit/xmc1400-getstarted-optiga-trust-m/Libraries/XMCLib/inc\xmc_ccu4.h ****  *  Modulation of timer output signals
 418:C:/Workspace/DAVE-4.4.2-64Bit/xmc1400-getstarted-optiga-trust-m/Libraries/XMCLib/inc\xmc_ccu4.h ****  */ 
 419:C:/Workspace/DAVE-4.4.2-64Bit/xmc1400-getstarted-optiga-trust-m/Libraries/XMCLib/inc\xmc_ccu4.h **** typedef enum XMC_CCU4_SLICE_MODULATION_MODE
 420:C:/Workspace/DAVE-4.4.2-64Bit/xmc1400-getstarted-optiga-trust-m/Libraries/XMCLib/inc\xmc_ccu4.h **** {
 421:C:/Workspace/DAVE-4.4.2-64Bit/xmc1400-getstarted-optiga-trust-m/Libraries/XMCLib/inc\xmc_ccu4.h ****   XMC_CCU4_SLICE_MODULATION_MODE_CLEAR_ST_OUT  = 0U, /**< Clear ST and OUT signals */
 422:C:/Workspace/DAVE-4.4.2-64Bit/xmc1400-getstarted-optiga-trust-m/Libraries/XMCLib/inc\xmc_ccu4.h ****   XMC_CCU4_SLICE_MODULATION_MODE_CLEAR_OUT           /**< Clear only the OUT signal */
 423:C:/Workspace/DAVE-4.4.2-64Bit/xmc1400-getstarted-optiga-trust-m/Libraries/XMCLib/inc\xmc_ccu4.h **** } XMC_CCU4_SLICE_MODULATION_MODE_t;
 424:C:/Workspace/DAVE-4.4.2-64Bit/xmc1400-getstarted-optiga-trust-m/Libraries/XMCLib/inc\xmc_ccu4.h **** 
 425:C:/Workspace/DAVE-4.4.2-64Bit/xmc1400-getstarted-optiga-trust-m/Libraries/XMCLib/inc\xmc_ccu4.h **** /**
 426:C:/Workspace/DAVE-4.4.2-64Bit/xmc1400-getstarted-optiga-trust-m/Libraries/XMCLib/inc\xmc_ccu4.h ****  *  Trap exit mode
 427:C:/Workspace/DAVE-4.4.2-64Bit/xmc1400-getstarted-optiga-trust-m/Libraries/XMCLib/inc\xmc_ccu4.h ****  */ 
 428:C:/Workspace/DAVE-4.4.2-64Bit/xmc1400-getstarted-optiga-trust-m/Libraries/XMCLib/inc\xmc_ccu4.h **** typedef enum XMC_CCU4_SLICE_TRAP_EXIT_MODE
 429:C:/Workspace/DAVE-4.4.2-64Bit/xmc1400-getstarted-optiga-trust-m/Libraries/XMCLib/inc\xmc_ccu4.h **** {
 430:C:/Workspace/DAVE-4.4.2-64Bit/xmc1400-getstarted-optiga-trust-m/Libraries/XMCLib/inc\xmc_ccu4.h ****   XMC_CCU4_SLICE_TRAP_EXIT_MODE_AUTOMATIC = 0U, /**< Clear trap state as soon as the trap signal is
 431:C:/Workspace/DAVE-4.4.2-64Bit/xmc1400-getstarted-optiga-trust-m/Libraries/XMCLib/inc\xmc_ccu4.h ****   XMC_CCU4_SLICE_TRAP_EXIT_MODE_SW              /**< Clear only when acknowledged by software */
 432:C:/Workspace/DAVE-4.4.2-64Bit/xmc1400-getstarted-optiga-trust-m/Libraries/XMCLib/inc\xmc_ccu4.h **** } XMC_CCU4_SLICE_TRAP_EXIT_MODE_t;
 433:C:/Workspace/DAVE-4.4.2-64Bit/xmc1400-getstarted-optiga-trust-m/Libraries/XMCLib/inc\xmc_ccu4.h **** 
 434:C:/Workspace/DAVE-4.4.2-64Bit/xmc1400-getstarted-optiga-trust-m/Libraries/XMCLib/inc\xmc_ccu4.h **** /**
 435:C:/Workspace/DAVE-4.4.2-64Bit/xmc1400-getstarted-optiga-trust-m/Libraries/XMCLib/inc\xmc_ccu4.h ****  *  Timer clear on capture
 436:C:/Workspace/DAVE-4.4.2-64Bit/xmc1400-getstarted-optiga-trust-m/Libraries/XMCLib/inc\xmc_ccu4.h ****  */ 
 437:C:/Workspace/DAVE-4.4.2-64Bit/xmc1400-getstarted-optiga-trust-m/Libraries/XMCLib/inc\xmc_ccu4.h **** typedef enum XMC_CCU4_SLICE_TIMER_CLEAR_MODE
 438:C:/Workspace/DAVE-4.4.2-64Bit/xmc1400-getstarted-optiga-trust-m/Libraries/XMCLib/inc\xmc_ccu4.h **** {
 439:C:/Workspace/DAVE-4.4.2-64Bit/xmc1400-getstarted-optiga-trust-m/Libraries/XMCLib/inc\xmc_ccu4.h ****   XMC_CCU4_SLICE_TIMER_CLEAR_MODE_NEVER    = 0U, /**< Never clear the timer on any capture event */
 440:C:/Workspace/DAVE-4.4.2-64Bit/xmc1400-getstarted-optiga-trust-m/Libraries/XMCLib/inc\xmc_ccu4.h ****   XMC_CCU4_SLICE_TIMER_CLEAR_MODE_CAP_HIGH     , /**< Clear only when timer value has been captured
 441:C:/Workspace/DAVE-4.4.2-64Bit/xmc1400-getstarted-optiga-trust-m/Libraries/XMCLib/inc\xmc_ccu4.h ****   XMC_CCU4_SLICE_TIMER_CLEAR_MODE_CAP_LOW      , /**< Clear only when timer value has been captured
 442:C:/Workspace/DAVE-4.4.2-64Bit/xmc1400-getstarted-optiga-trust-m/Libraries/XMCLib/inc\xmc_ccu4.h ****   XMC_CCU4_SLICE_TIMER_CLEAR_MODE_ALWAYS         /**< Always clear the timer upon detection of any 
 443:C:/Workspace/DAVE-4.4.2-64Bit/xmc1400-getstarted-optiga-trust-m/Libraries/XMCLib/inc\xmc_ccu4.h **** } XMC_CCU4_SLICE_TIMER_CLEAR_MODE_t;
 444:C:/Workspace/DAVE-4.4.2-64Bit/xmc1400-getstarted-optiga-trust-m/Libraries/XMCLib/inc\xmc_ccu4.h **** 
 445:C:/Workspace/DAVE-4.4.2-64Bit/xmc1400-getstarted-optiga-trust-m/Libraries/XMCLib/inc\xmc_ccu4.h **** /**
 446:C:/Workspace/DAVE-4.4.2-64Bit/xmc1400-getstarted-optiga-trust-m/Libraries/XMCLib/inc\xmc_ccu4.h ****  *  Multi Channel Shadow transfer request configuration options
 447:C:/Workspace/DAVE-4.4.2-64Bit/xmc1400-getstarted-optiga-trust-m/Libraries/XMCLib/inc\xmc_ccu4.h ****  */ 
 448:C:/Workspace/DAVE-4.4.2-64Bit/xmc1400-getstarted-optiga-trust-m/Libraries/XMCLib/inc\xmc_ccu4.h **** typedef enum XMC_CCU4_SLICE_MCMS_ACTION
 449:C:/Workspace/DAVE-4.4.2-64Bit/xmc1400-getstarted-optiga-trust-m/Libraries/XMCLib/inc\xmc_ccu4.h **** {
 450:C:/Workspace/DAVE-4.4.2-64Bit/xmc1400-getstarted-optiga-trust-m/Libraries/XMCLib/inc\xmc_ccu4.h ****   XMC_CCU4_SLICE_MCMS_ACTION_TRANSFER_PR_CR          = 0U, /**< Transfer Compare and Period Shadow 
 451:C:/Workspace/DAVE-4.4.2-64Bit/xmc1400-getstarted-optiga-trust-m/Libraries/XMCLib/inc\xmc_ccu4.h ****                                                                 the actual registers upon MCS xfer 
 452:C:/Workspace/DAVE-4.4.2-64Bit/xmc1400-getstarted-optiga-trust-m/Libraries/XMCLib/inc\xmc_ccu4.h ****   XMC_CCU4_SLICE_MCMS_ACTION_TRANSFER_PR_CR_PCMP     = 1U, /**< Transfer Compare, Period and Presca
 453:C:/Workspace/DAVE-4.4.2-64Bit/xmc1400-getstarted-optiga-trust-m/Libraries/XMCLib/inc\xmc_ccu4.h ****                                                                 register values to the actual regis
 454:C:/Workspace/DAVE-4.4.2-64Bit/xmc1400-getstarted-optiga-trust-m/Libraries/XMCLib/inc\xmc_ccu4.h ****                                                                 request */
 455:C:/Workspace/DAVE-4.4.2-64Bit/xmc1400-getstarted-optiga-trust-m/Libraries/XMCLib/inc\xmc_ccu4.h ****   XMC_CCU4_SLICE_MCMS_ACTION_TRANSFER_PR_CR_PCMP_DIT = 3U  /**< Transfer Compare, Period ,Prescaler
 456:C:/Workspace/DAVE-4.4.2-64Bit/xmc1400-getstarted-optiga-trust-m/Libraries/XMCLib/inc\xmc_ccu4.h ****                                                                 Compare register values to the actu
 457:C:/Workspace/DAVE-4.4.2-64Bit/xmc1400-getstarted-optiga-trust-m/Libraries/XMCLib/inc\xmc_ccu4.h ****                                                                 MCS xfer request */
 458:C:/Workspace/DAVE-4.4.2-64Bit/xmc1400-getstarted-optiga-trust-m/Libraries/XMCLib/inc\xmc_ccu4.h **** } XMC_CCU4_SLICE_MCMS_ACTION_t;
 459:C:/Workspace/DAVE-4.4.2-64Bit/xmc1400-getstarted-optiga-trust-m/Libraries/XMCLib/inc\xmc_ccu4.h **** 
 460:C:/Workspace/DAVE-4.4.2-64Bit/xmc1400-getstarted-optiga-trust-m/Libraries/XMCLib/inc\xmc_ccu4.h **** /**
 461:C:/Workspace/DAVE-4.4.2-64Bit/xmc1400-getstarted-optiga-trust-m/Libraries/XMCLib/inc\xmc_ccu4.h ****  * Available Interrupt Event Ids
 462:C:/Workspace/DAVE-4.4.2-64Bit/xmc1400-getstarted-optiga-trust-m/Libraries/XMCLib/inc\xmc_ccu4.h ****  */ 
 463:C:/Workspace/DAVE-4.4.2-64Bit/xmc1400-getstarted-optiga-trust-m/Libraries/XMCLib/inc\xmc_ccu4.h **** typedef enum XMC_CCU4_SLICE_IRQ_ID
 464:C:/Workspace/DAVE-4.4.2-64Bit/xmc1400-getstarted-optiga-trust-m/Libraries/XMCLib/inc\xmc_ccu4.h **** {
 465:C:/Workspace/DAVE-4.4.2-64Bit/xmc1400-getstarted-optiga-trust-m/Libraries/XMCLib/inc\xmc_ccu4.h ****   XMC_CCU4_SLICE_IRQ_ID_PERIOD_MATCH       = 0U , /**< Period match counting up */
 466:C:/Workspace/DAVE-4.4.2-64Bit/xmc1400-getstarted-optiga-trust-m/Libraries/XMCLib/inc\xmc_ccu4.h ****   XMC_CCU4_SLICE_IRQ_ID_ONE_MATCH          = 1U , /**< Period match -> One match counting down */
 467:C:/Workspace/DAVE-4.4.2-64Bit/xmc1400-getstarted-optiga-trust-m/Libraries/XMCLib/inc\xmc_ccu4.h ****   XMC_CCU4_SLICE_IRQ_ID_COMPARE_MATCH_UP   = 2U , /**< Compare match counting up */
 468:C:/Workspace/DAVE-4.4.2-64Bit/xmc1400-getstarted-optiga-trust-m/Libraries/XMCLib/inc\xmc_ccu4.h ****   XMC_CCU4_SLICE_IRQ_ID_COMPARE_MATCH_DOWN = 3U , /**< Compare match counting down */
 469:C:/Workspace/DAVE-4.4.2-64Bit/xmc1400-getstarted-optiga-trust-m/Libraries/XMCLib/inc\xmc_ccu4.h ****   XMC_CCU4_SLICE_IRQ_ID_EVENT0             = 8U , /**< Event-0 occurrence */
 470:C:/Workspace/DAVE-4.4.2-64Bit/xmc1400-getstarted-optiga-trust-m/Libraries/XMCLib/inc\xmc_ccu4.h ****   XMC_CCU4_SLICE_IRQ_ID_EVENT1             = 9U , /**< Event-1 occurrence */
 471:C:/Workspace/DAVE-4.4.2-64Bit/xmc1400-getstarted-optiga-trust-m/Libraries/XMCLib/inc\xmc_ccu4.h ****   XMC_CCU4_SLICE_IRQ_ID_EVENT2             = 10U, /**< Event-2 occurrence */
 472:C:/Workspace/DAVE-4.4.2-64Bit/xmc1400-getstarted-optiga-trust-m/Libraries/XMCLib/inc\xmc_ccu4.h ****   XMC_CCU4_SLICE_IRQ_ID_TRAP               = 11U  /**< Trap occurrence */
 473:C:/Workspace/DAVE-4.4.2-64Bit/xmc1400-getstarted-optiga-trust-m/Libraries/XMCLib/inc\xmc_ccu4.h **** } XMC_CCU4_SLICE_IRQ_ID_t;
 474:C:/Workspace/DAVE-4.4.2-64Bit/xmc1400-getstarted-optiga-trust-m/Libraries/XMCLib/inc\xmc_ccu4.h **** 
 475:C:/Workspace/DAVE-4.4.2-64Bit/xmc1400-getstarted-optiga-trust-m/Libraries/XMCLib/inc\xmc_ccu4.h **** /**
 476:C:/Workspace/DAVE-4.4.2-64Bit/xmc1400-getstarted-optiga-trust-m/Libraries/XMCLib/inc\xmc_ccu4.h ****  * Available Interrupt Event Ids, which is added to support multi event APIs
 477:C:/Workspace/DAVE-4.4.2-64Bit/xmc1400-getstarted-optiga-trust-m/Libraries/XMCLib/inc\xmc_ccu4.h ****  */
 478:C:/Workspace/DAVE-4.4.2-64Bit/xmc1400-getstarted-optiga-trust-m/Libraries/XMCLib/inc\xmc_ccu4.h **** typedef enum XMC_CCU4_SLICE_MULTI_IRQ_ID
 479:C:/Workspace/DAVE-4.4.2-64Bit/xmc1400-getstarted-optiga-trust-m/Libraries/XMCLib/inc\xmc_ccu4.h **** {
 480:C:/Workspace/DAVE-4.4.2-64Bit/xmc1400-getstarted-optiga-trust-m/Libraries/XMCLib/inc\xmc_ccu4.h ****   XMC_CCU4_SLICE_MULTI_IRQ_ID_PERIOD_MATCH       = 0x1U,   /**< Period match counting up */
 481:C:/Workspace/DAVE-4.4.2-64Bit/xmc1400-getstarted-optiga-trust-m/Libraries/XMCLib/inc\xmc_ccu4.h ****   XMC_CCU4_SLICE_MULTI_IRQ_ID_ONE_MATCH          = 0x2U,   /**< Period match -> One match counting 
 482:C:/Workspace/DAVE-4.4.2-64Bit/xmc1400-getstarted-optiga-trust-m/Libraries/XMCLib/inc\xmc_ccu4.h ****   XMC_CCU4_SLICE_MULTI_IRQ_ID_COMPARE_MATCH_UP   = 0x4U,   /**< Compare match counting up */
 483:C:/Workspace/DAVE-4.4.2-64Bit/xmc1400-getstarted-optiga-trust-m/Libraries/XMCLib/inc\xmc_ccu4.h ****   XMC_CCU4_SLICE_MULTI_IRQ_ID_COMPARE_MATCH_DOWN = 0x8U,   /**< Compare match counting down */
 484:C:/Workspace/DAVE-4.4.2-64Bit/xmc1400-getstarted-optiga-trust-m/Libraries/XMCLib/inc\xmc_ccu4.h ****   XMC_CCU4_SLICE_MULTI_IRQ_ID_EVENT0             = 0x100U, /**< Event-0 occurrence */
 485:C:/Workspace/DAVE-4.4.2-64Bit/xmc1400-getstarted-optiga-trust-m/Libraries/XMCLib/inc\xmc_ccu4.h ****   XMC_CCU4_SLICE_MULTI_IRQ_ID_EVENT1             = 0x200U, /**< Event-1 occurrence */
 486:C:/Workspace/DAVE-4.4.2-64Bit/xmc1400-getstarted-optiga-trust-m/Libraries/XMCLib/inc\xmc_ccu4.h ****   XMC_CCU4_SLICE_MULTI_IRQ_ID_EVENT2             = 0x400U, /**< Event-2 occurrence */
 487:C:/Workspace/DAVE-4.4.2-64Bit/xmc1400-getstarted-optiga-trust-m/Libraries/XMCLib/inc\xmc_ccu4.h **** } XMC_CCU4_SLICE_MULTI_IRQ_ID_t;
 488:C:/Workspace/DAVE-4.4.2-64Bit/xmc1400-getstarted-optiga-trust-m/Libraries/XMCLib/inc\xmc_ccu4.h **** 
 489:C:/Workspace/DAVE-4.4.2-64Bit/xmc1400-getstarted-optiga-trust-m/Libraries/XMCLib/inc\xmc_ccu4.h **** /**
 490:C:/Workspace/DAVE-4.4.2-64Bit/xmc1400-getstarted-optiga-trust-m/Libraries/XMCLib/inc\xmc_ccu4.h ****  * Service Request Lines for CCU4. Event are mapped to these SR lines and these are used to generat
 491:C:/Workspace/DAVE-4.4.2-64Bit/xmc1400-getstarted-optiga-trust-m/Libraries/XMCLib/inc\xmc_ccu4.h ****  */ 
 492:C:/Workspace/DAVE-4.4.2-64Bit/xmc1400-getstarted-optiga-trust-m/Libraries/XMCLib/inc\xmc_ccu4.h **** typedef enum XMC_CCU4_SLICE_SR_ID
 493:C:/Workspace/DAVE-4.4.2-64Bit/xmc1400-getstarted-optiga-trust-m/Libraries/XMCLib/inc\xmc_ccu4.h **** {
 494:C:/Workspace/DAVE-4.4.2-64Bit/xmc1400-getstarted-optiga-trust-m/Libraries/XMCLib/inc\xmc_ccu4.h ****   XMC_CCU4_SLICE_SR_ID_0    = 0U, /**< Service Request Line-0 selected  */
 495:C:/Workspace/DAVE-4.4.2-64Bit/xmc1400-getstarted-optiga-trust-m/Libraries/XMCLib/inc\xmc_ccu4.h ****   XMC_CCU4_SLICE_SR_ID_1        , /**< Service Request Line-1 selected  */
 496:C:/Workspace/DAVE-4.4.2-64Bit/xmc1400-getstarted-optiga-trust-m/Libraries/XMCLib/inc\xmc_ccu4.h ****   XMC_CCU4_SLICE_SR_ID_2        , /**< Service Request Line-2 selected  */
 497:C:/Workspace/DAVE-4.4.2-64Bit/xmc1400-getstarted-optiga-trust-m/Libraries/XMCLib/inc\xmc_ccu4.h ****   XMC_CCU4_SLICE_SR_ID_3          /**< Service Request Line-3 selected  */
 498:C:/Workspace/DAVE-4.4.2-64Bit/xmc1400-getstarted-optiga-trust-m/Libraries/XMCLib/inc\xmc_ccu4.h **** } XMC_CCU4_SLICE_SR_ID_t;
 499:C:/Workspace/DAVE-4.4.2-64Bit/xmc1400-getstarted-optiga-trust-m/Libraries/XMCLib/inc\xmc_ccu4.h **** 
 500:C:/Workspace/DAVE-4.4.2-64Bit/xmc1400-getstarted-optiga-trust-m/Libraries/XMCLib/inc\xmc_ccu4.h **** /**
 501:C:/Workspace/DAVE-4.4.2-64Bit/xmc1400-getstarted-optiga-trust-m/Libraries/XMCLib/inc\xmc_ccu4.h ****  *  Slice shadow transfer options.
 502:C:/Workspace/DAVE-4.4.2-64Bit/xmc1400-getstarted-optiga-trust-m/Libraries/XMCLib/inc\xmc_ccu4.h ****  */
 503:C:/Workspace/DAVE-4.4.2-64Bit/xmc1400-getstarted-optiga-trust-m/Libraries/XMCLib/inc\xmc_ccu4.h **** typedef enum XMC_CCU4_SHADOW_TRANSFER
 504:C:/Workspace/DAVE-4.4.2-64Bit/xmc1400-getstarted-optiga-trust-m/Libraries/XMCLib/inc\xmc_ccu4.h **** {
 505:C:/Workspace/DAVE-4.4.2-64Bit/xmc1400-getstarted-optiga-trust-m/Libraries/XMCLib/inc\xmc_ccu4.h ****   XMC_CCU4_SHADOW_TRANSFER_SLICE_0            = CCU4_GCSS_S0SE_Msk, /**< Transfer Period, Compare a
 506:C:/Workspace/DAVE-4.4.2-64Bit/xmc1400-getstarted-optiga-trust-m/Libraries/XMCLib/inc\xmc_ccu4.h ****                                                                           shadow register values to
 507:C:/Workspace/DAVE-4.4.2-64Bit/xmc1400-getstarted-optiga-trust-m/Libraries/XMCLib/inc\xmc_ccu4.h ****                                                                           SLICE-0 */
 508:C:/Workspace/DAVE-4.4.2-64Bit/xmc1400-getstarted-optiga-trust-m/Libraries/XMCLib/inc\xmc_ccu4.h ****   XMC_CCU4_SHADOW_TRANSFER_DITHER_SLICE_0     = CCU4_GCSS_S0DSE_Msk, /**< Transfer Dither compare s
 509:C:/Workspace/DAVE-4.4.2-64Bit/xmc1400-getstarted-optiga-trust-m/Libraries/XMCLib/inc\xmc_ccu4.h ****                                                                           to actual register for SL
 510:C:/Workspace/DAVE-4.4.2-64Bit/xmc1400-getstarted-optiga-trust-m/Libraries/XMCLib/inc\xmc_ccu4.h ****   XMC_CCU4_SHADOW_TRANSFER_PRESCALER_SLICE_0  = CCU4_GCSS_S0PSE_Msk, /**< Transfer Prescaler shadow
 511:C:/Workspace/DAVE-4.4.2-64Bit/xmc1400-getstarted-optiga-trust-m/Libraries/XMCLib/inc\xmc_ccu4.h ****                                                                           actual register for SLICE
 512:C:/Workspace/DAVE-4.4.2-64Bit/xmc1400-getstarted-optiga-trust-m/Libraries/XMCLib/inc\xmc_ccu4.h ****   XMC_CCU4_SHADOW_TRANSFER_SLICE_1            = CCU4_GCSS_S1SE_Msk, /**< Transfer Period, Compare a
 513:C:/Workspace/DAVE-4.4.2-64Bit/xmc1400-getstarted-optiga-trust-m/Libraries/XMCLib/inc\xmc_ccu4.h ****                                                                           shadow register values to
 514:C:/Workspace/DAVE-4.4.2-64Bit/xmc1400-getstarted-optiga-trust-m/Libraries/XMCLib/inc\xmc_ccu4.h ****                                                                           SLICE-1 */
 515:C:/Workspace/DAVE-4.4.2-64Bit/xmc1400-getstarted-optiga-trust-m/Libraries/XMCLib/inc\xmc_ccu4.h ****   XMC_CCU4_SHADOW_TRANSFER_DITHER_SLICE_1     = CCU4_GCSS_S1DSE_Msk, /**< Transfer Dither compare s
 516:C:/Workspace/DAVE-4.4.2-64Bit/xmc1400-getstarted-optiga-trust-m/Libraries/XMCLib/inc\xmc_ccu4.h ****                                                                           to actual registers for S
 517:C:/Workspace/DAVE-4.4.2-64Bit/xmc1400-getstarted-optiga-trust-m/Libraries/XMCLib/inc\xmc_ccu4.h ****   XMC_CCU4_SHADOW_TRANSFER_PRESCALER_SLICE_1  = CCU4_GCSS_S1PSE_Msk, /**< Transfer Prescaler shadow
 518:C:/Workspace/DAVE-4.4.2-64Bit/xmc1400-getstarted-optiga-trust-m/Libraries/XMCLib/inc\xmc_ccu4.h ****                                                                           actual register for SLICE
 519:C:/Workspace/DAVE-4.4.2-64Bit/xmc1400-getstarted-optiga-trust-m/Libraries/XMCLib/inc\xmc_ccu4.h ****   XMC_CCU4_SHADOW_TRANSFER_SLICE_2            = CCU4_GCSS_S2SE_Msk, /**< Transfer Period, Compare a
 520:C:/Workspace/DAVE-4.4.2-64Bit/xmc1400-getstarted-optiga-trust-m/Libraries/XMCLib/inc\xmc_ccu4.h ****                                                                           shadow register values to
 521:C:/Workspace/DAVE-4.4.2-64Bit/xmc1400-getstarted-optiga-trust-m/Libraries/XMCLib/inc\xmc_ccu4.h ****                                                                           SLICE-2 */
 522:C:/Workspace/DAVE-4.4.2-64Bit/xmc1400-getstarted-optiga-trust-m/Libraries/XMCLib/inc\xmc_ccu4.h ****   XMC_CCU4_SHADOW_TRANSFER_DITHER_SLICE_2     = CCU4_GCSS_S2DSE_Msk, /**< Transfer Dither compare s
 523:C:/Workspace/DAVE-4.4.2-64Bit/xmc1400-getstarted-optiga-trust-m/Libraries/XMCLib/inc\xmc_ccu4.h ****                                                                           to actual register for SL
 524:C:/Workspace/DAVE-4.4.2-64Bit/xmc1400-getstarted-optiga-trust-m/Libraries/XMCLib/inc\xmc_ccu4.h ****   XMC_CCU4_SHADOW_TRANSFER_PRESCALER_SLICE_2  = CCU4_GCSS_S2PSE_Msk, /**< Transfer Prescaler shadow
 525:C:/Workspace/DAVE-4.4.2-64Bit/xmc1400-getstarted-optiga-trust-m/Libraries/XMCLib/inc\xmc_ccu4.h ****                                                                           actual register for SLICE
 526:C:/Workspace/DAVE-4.4.2-64Bit/xmc1400-getstarted-optiga-trust-m/Libraries/XMCLib/inc\xmc_ccu4.h ****   XMC_CCU4_SHADOW_TRANSFER_SLICE_3            = CCU4_GCSS_S3SE_Msk, /**< Transfer Period, Compare a
 527:C:/Workspace/DAVE-4.4.2-64Bit/xmc1400-getstarted-optiga-trust-m/Libraries/XMCLib/inc\xmc_ccu4.h ****                                                                           shadow register values to
 528:C:/Workspace/DAVE-4.4.2-64Bit/xmc1400-getstarted-optiga-trust-m/Libraries/XMCLib/inc\xmc_ccu4.h ****                                                                           SLICE-3 */
 529:C:/Workspace/DAVE-4.4.2-64Bit/xmc1400-getstarted-optiga-trust-m/Libraries/XMCLib/inc\xmc_ccu4.h ****   XMC_CCU4_SHADOW_TRANSFER_DITHER_SLICE_3     = CCU4_GCSS_S3DSE_Msk, /**< Transfer Dither compare s
 530:C:/Workspace/DAVE-4.4.2-64Bit/xmc1400-getstarted-optiga-trust-m/Libraries/XMCLib/inc\xmc_ccu4.h ****                                                                           to actual register for SL
 531:C:/Workspace/DAVE-4.4.2-64Bit/xmc1400-getstarted-optiga-trust-m/Libraries/XMCLib/inc\xmc_ccu4.h ****   XMC_CCU4_SHADOW_TRANSFER_PRESCALER_SLICE_3  = CCU4_GCSS_S3PSE_Msk  /**< Transfer Prescaler shadow
 532:C:/Workspace/DAVE-4.4.2-64Bit/xmc1400-getstarted-optiga-trust-m/Libraries/XMCLib/inc\xmc_ccu4.h ****                                                                           actual register for SLICE
 533:C:/Workspace/DAVE-4.4.2-64Bit/xmc1400-getstarted-optiga-trust-m/Libraries/XMCLib/inc\xmc_ccu4.h **** } XMC_CCU4_SHADOW_TRANSFER_t;
 534:C:/Workspace/DAVE-4.4.2-64Bit/xmc1400-getstarted-optiga-trust-m/Libraries/XMCLib/inc\xmc_ccu4.h **** 
 535:C:/Workspace/DAVE-4.4.2-64Bit/xmc1400-getstarted-optiga-trust-m/Libraries/XMCLib/inc\xmc_ccu4.h **** #if defined(CCU4V3) || defined(DOXYGEN)/* Defined for XMC1400 devices only */
 536:C:/Workspace/DAVE-4.4.2-64Bit/xmc1400-getstarted-optiga-trust-m/Libraries/XMCLib/inc\xmc_ccu4.h **** /**
 537:C:/Workspace/DAVE-4.4.2-64Bit/xmc1400-getstarted-optiga-trust-m/Libraries/XMCLib/inc\xmc_ccu4.h ****  *  Slice shadow transfer mode options.
 538:C:/Workspace/DAVE-4.4.2-64Bit/xmc1400-getstarted-optiga-trust-m/Libraries/XMCLib/inc\xmc_ccu4.h ****  * @note Only available for XMC1400 series
 539:C:/Workspace/DAVE-4.4.2-64Bit/xmc1400-getstarted-optiga-trust-m/Libraries/XMCLib/inc\xmc_ccu4.h ****  */
 540:C:/Workspace/DAVE-4.4.2-64Bit/xmc1400-getstarted-optiga-trust-m/Libraries/XMCLib/inc\xmc_ccu4.h **** typedef enum XMC_CCU4_SLICE_SHADOW_TRANSFER_MODE
 541:C:/Workspace/DAVE-4.4.2-64Bit/xmc1400-getstarted-optiga-trust-m/Libraries/XMCLib/inc\xmc_ccu4.h **** {
 542:C:/Workspace/DAVE-4.4.2-64Bit/xmc1400-getstarted-optiga-trust-m/Libraries/XMCLib/inc\xmc_ccu4.h ****   XMC_CCU4_SLICE_SHADOW_TRANSFER_MODE_IN_PERIOD_MATCH_AND_ONE_MATCH = 0U,  /**< Shadow transfer is 
 543:C:/Workspace/DAVE-4.4.2-64Bit/xmc1400-getstarted-optiga-trust-m/Libraries/XMCLib/inc\xmc_ccu4.h ****                                                                                 One match. */
 544:C:/Workspace/DAVE-4.4.2-64Bit/xmc1400-getstarted-optiga-trust-m/Libraries/XMCLib/inc\xmc_ccu4.h ****   XMC_CCU4_SLICE_SHADOW_TRANSFER_MODE_ONLY_IN_PERIOD_MATCH = 1U,  /**< Shadow transfer is done only
 545:C:/Workspace/DAVE-4.4.2-64Bit/xmc1400-getstarted-optiga-trust-m/Libraries/XMCLib/inc\xmc_ccu4.h ****   XMC_CCU4_SLICE_SHADOW_TRANSFER_MODE_ONLY_IN_ONE_MATCH = 2U  /**< Shadow transfer is done only in 
 546:C:/Workspace/DAVE-4.4.2-64Bit/xmc1400-getstarted-optiga-trust-m/Libraries/XMCLib/inc\xmc_ccu4.h **** } XMC_CCU4_SLICE_SHADOW_TRANSFER_MODE_t; 
 547:C:/Workspace/DAVE-4.4.2-64Bit/xmc1400-getstarted-optiga-trust-m/Libraries/XMCLib/inc\xmc_ccu4.h ****   
 548:C:/Workspace/DAVE-4.4.2-64Bit/xmc1400-getstarted-optiga-trust-m/Libraries/XMCLib/inc\xmc_ccu4.h ****   
 549:C:/Workspace/DAVE-4.4.2-64Bit/xmc1400-getstarted-optiga-trust-m/Libraries/XMCLib/inc\xmc_ccu4.h **** /**
 550:C:/Workspace/DAVE-4.4.2-64Bit/xmc1400-getstarted-optiga-trust-m/Libraries/XMCLib/inc\xmc_ccu4.h ****  *  Immediate write into configuration register
 551:C:/Workspace/DAVE-4.4.2-64Bit/xmc1400-getstarted-optiga-trust-m/Libraries/XMCLib/inc\xmc_ccu4.h ****  *  @note Only available for XMC1400 series
 552:C:/Workspace/DAVE-4.4.2-64Bit/xmc1400-getstarted-optiga-trust-m/Libraries/XMCLib/inc\xmc_ccu4.h ****  */
 553:C:/Workspace/DAVE-4.4.2-64Bit/xmc1400-getstarted-optiga-trust-m/Libraries/XMCLib/inc\xmc_ccu4.h **** typedef enum XMC_CCU4_SLICE_WRITE_INTO
 554:C:/Workspace/DAVE-4.4.2-64Bit/xmc1400-getstarted-optiga-trust-m/Libraries/XMCLib/inc\xmc_ccu4.h **** {
 555:C:/Workspace/DAVE-4.4.2-64Bit/xmc1400-getstarted-optiga-trust-m/Libraries/XMCLib/inc\xmc_ccu4.h ****   XMC_CCU4_SLICE_WRITE_INTO_PERIOD_CONFIGURATION = CCU4_CC4_STC_IRPC_Msk,                  /**< Imm
 556:C:/Workspace/DAVE-4.4.2-64Bit/xmc1400-getstarted-optiga-trust-m/Libraries/XMCLib/inc\xmc_ccu4.h ****                                                                                                 Wri
 557:C:/Workspace/DAVE-4.4.2-64Bit/xmc1400-getstarted-optiga-trust-m/Libraries/XMCLib/inc\xmc_ccu4.h ****                                                                                                 Con
 558:C:/Workspace/DAVE-4.4.2-64Bit/xmc1400-getstarted-optiga-trust-m/Libraries/XMCLib/inc\xmc_ccu4.h ****   XMC_CCU4_SLICE_WRITE_INTO_COMPARE_CONFIGURATION = CCU4_CC4_STC_IRCC_Msk,                 /**< Imm
 559:C:/Workspace/DAVE-4.4.2-64Bit/xmc1400-getstarted-optiga-trust-m/Libraries/XMCLib/inc\xmc_ccu4.h ****                                                                                                 Wri
 560:C:/Workspace/DAVE-4.4.2-64Bit/xmc1400-getstarted-optiga-trust-m/Libraries/XMCLib/inc\xmc_ccu4.h ****                                                                                                 Con
 561:C:/Workspace/DAVE-4.4.2-64Bit/xmc1400-getstarted-optiga-trust-m/Libraries/XMCLib/inc\xmc_ccu4.h ****   XMC_CCU4_SLICE_WRITE_INTO_PASSIVE_LEVEL_CONFIGURATION = CCU4_CC4_STC_IRLC_Msk,           /**< Imm
 562:C:/Workspace/DAVE-4.4.2-64Bit/xmc1400-getstarted-optiga-trust-m/Libraries/XMCLib/inc\xmc_ccu4.h ****                                                                                                 Wri
 563:C:/Workspace/DAVE-4.4.2-64Bit/xmc1400-getstarted-optiga-trust-m/Libraries/XMCLib/inc\xmc_ccu4.h **** 	                                                                                            Config
 564:C:/Workspace/DAVE-4.4.2-64Bit/xmc1400-getstarted-optiga-trust-m/Libraries/XMCLib/inc\xmc_ccu4.h ****   XMC_CCU4_SLICE_WRITE_INTO_DITHER_VALUE_CONFIGURATION = CCU4_CC4_STC_IRDC_Msk,            /**< Imm
 565:C:/Workspace/DAVE-4.4.2-64Bit/xmc1400-getstarted-optiga-trust-m/Libraries/XMCLib/inc\xmc_ccu4.h ****                                                                                                 Wri
 566:C:/Workspace/DAVE-4.4.2-64Bit/xmc1400-getstarted-optiga-trust-m/Libraries/XMCLib/inc\xmc_ccu4.h **** 	                                                                                            Config
 567:C:/Workspace/DAVE-4.4.2-64Bit/xmc1400-getstarted-optiga-trust-m/Libraries/XMCLib/inc\xmc_ccu4.h ****   XMC_CCU4_SLICE_WRITE_INTO_FLOATING_PRESCALER_VALUE_CONFIGURATION = CCU4_CC4_STC_IRFC_Msk /**< Imm
 568:C:/Workspace/DAVE-4.4.2-64Bit/xmc1400-getstarted-optiga-trust-m/Libraries/XMCLib/inc\xmc_ccu4.h ****                                                                                                 Wri
 569:C:/Workspace/DAVE-4.4.2-64Bit/xmc1400-getstarted-optiga-trust-m/Libraries/XMCLib/inc\xmc_ccu4.h ****                                                                                                 Val
 570:C:/Workspace/DAVE-4.4.2-64Bit/xmc1400-getstarted-optiga-trust-m/Libraries/XMCLib/inc\xmc_ccu4.h **** } XMC_CCU4_SLICE_WRITE_INTO_t;
 571:C:/Workspace/DAVE-4.4.2-64Bit/xmc1400-getstarted-optiga-trust-m/Libraries/XMCLib/inc\xmc_ccu4.h **** 
 572:C:/Workspace/DAVE-4.4.2-64Bit/xmc1400-getstarted-optiga-trust-m/Libraries/XMCLib/inc\xmc_ccu4.h **** 
 573:C:/Workspace/DAVE-4.4.2-64Bit/xmc1400-getstarted-optiga-trust-m/Libraries/XMCLib/inc\xmc_ccu4.h **** /**
 574:C:/Workspace/DAVE-4.4.2-64Bit/xmc1400-getstarted-optiga-trust-m/Libraries/XMCLib/inc\xmc_ccu4.h ****  *  Automatic Shadow Transfer request when writing into shadow register
 575:C:/Workspace/DAVE-4.4.2-64Bit/xmc1400-getstarted-optiga-trust-m/Libraries/XMCLib/inc\xmc_ccu4.h ****  *  @note Only available for XMC1400 series
 576:C:/Workspace/DAVE-4.4.2-64Bit/xmc1400-getstarted-optiga-trust-m/Libraries/XMCLib/inc\xmc_ccu4.h ****  */
 577:C:/Workspace/DAVE-4.4.2-64Bit/xmc1400-getstarted-optiga-trust-m/Libraries/XMCLib/inc\xmc_ccu4.h **** typedef enum XMC_CCU4_SLICE_AUTOMAIC_SHADOW_TRANSFER_WRITE_INTO
 578:C:/Workspace/DAVE-4.4.2-64Bit/xmc1400-getstarted-optiga-trust-m/Libraries/XMCLib/inc\xmc_ccu4.h **** {
 579:C:/Workspace/DAVE-4.4.2-64Bit/xmc1400-getstarted-optiga-trust-m/Libraries/XMCLib/inc\xmc_ccu4.h ****   XMC_CCU4_SLICE_AUTOMAIC_SHADOW_TRANSFER_WRITE_INTO_PERIOD_SHADOW = CCU4_CC4_STC_ASPC_Msk,        
 580:C:/Workspace/DAVE-4.4.2-64Bit/xmc1400-getstarted-optiga-trust-m/Libraries/XMCLib/inc\xmc_ccu4.h **** 	                                                                                                  
 581:C:/Workspace/DAVE-4.4.2-64Bit/xmc1400-getstarted-optiga-trust-m/Libraries/XMCLib/inc\xmc_ccu4.h ****                                                                                                    
 582:C:/Workspace/DAVE-4.4.2-64Bit/xmc1400-getstarted-optiga-trust-m/Libraries/XMCLib/inc\xmc_ccu4.h ****                                                                                                    
 583:C:/Workspace/DAVE-4.4.2-64Bit/xmc1400-getstarted-optiga-trust-m/Libraries/XMCLib/inc\xmc_ccu4.h ****   XMC_CCU4_SLICE_AUTOMAIC_SHADOW_TRANSFER_WRITE_INTO_COMPARE_SHADOW = CCU4_CC4_STC_ASCC_Msk,       
 584:C:/Workspace/DAVE-4.4.2-64Bit/xmc1400-getstarted-optiga-trust-m/Libraries/XMCLib/inc\xmc_ccu4.h **** 	                                                                                                  
 585:C:/Workspace/DAVE-4.4.2-64Bit/xmc1400-getstarted-optiga-trust-m/Libraries/XMCLib/inc\xmc_ccu4.h **** 	                                                                                                  
 586:C:/Workspace/DAVE-4.4.2-64Bit/xmc1400-getstarted-optiga-trust-m/Libraries/XMCLib/inc\xmc_ccu4.h **** 	                                                                                                  
 587:C:/Workspace/DAVE-4.4.2-64Bit/xmc1400-getstarted-optiga-trust-m/Libraries/XMCLib/inc\xmc_ccu4.h ****   XMC_CCU4_SLICE_AUTOMAIC_SHADOW_TRANSFER_WRITE_INTO_PASSIVE_LEVEL = CCU4_CC4_STC_ASLC_Msk,        
 588:C:/Workspace/DAVE-4.4.2-64Bit/xmc1400-getstarted-optiga-trust-m/Libraries/XMCLib/inc\xmc_ccu4.h **** 	                                                                                                  
 589:C:/Workspace/DAVE-4.4.2-64Bit/xmc1400-getstarted-optiga-trust-m/Libraries/XMCLib/inc\xmc_ccu4.h ****                                                                                                    
 590:C:/Workspace/DAVE-4.4.2-64Bit/xmc1400-getstarted-optiga-trust-m/Libraries/XMCLib/inc\xmc_ccu4.h ****   XMC_CCU4_SLICE_AUTOMAIC_SHADOW_TRANSFER_WRITE_INTO_DITHER_SHADOW = CCU4_CC4_STC_ASDC_Msk,        
 591:C:/Workspace/DAVE-4.4.2-64Bit/xmc1400-getstarted-optiga-trust-m/Libraries/XMCLib/inc\xmc_ccu4.h ****                                                                                                    
 592:C:/Workspace/DAVE-4.4.2-64Bit/xmc1400-getstarted-optiga-trust-m/Libraries/XMCLib/inc\xmc_ccu4.h ****                                                                                                    
 593:C:/Workspace/DAVE-4.4.2-64Bit/xmc1400-getstarted-optiga-trust-m/Libraries/XMCLib/inc\xmc_ccu4.h ****   XMC_CCU4_SLICE_AUTOMAIC_SHADOW_TRANSFER_WRITE_INTO_FLOATING_PRESCALER_SHADOW = CCU4_CC4_STC_ASFC_
 594:C:/Workspace/DAVE-4.4.2-64Bit/xmc1400-getstarted-optiga-trust-m/Libraries/XMCLib/inc\xmc_ccu4.h **** 	                                                                                                  
 595:C:/Workspace/DAVE-4.4.2-64Bit/xmc1400-getstarted-optiga-trust-m/Libraries/XMCLib/inc\xmc_ccu4.h ****                                                                                                    
 596:C:/Workspace/DAVE-4.4.2-64Bit/xmc1400-getstarted-optiga-trust-m/Libraries/XMCLib/inc\xmc_ccu4.h ****                                                                                                    
 597:C:/Workspace/DAVE-4.4.2-64Bit/xmc1400-getstarted-optiga-trust-m/Libraries/XMCLib/inc\xmc_ccu4.h **** 
 598:C:/Workspace/DAVE-4.4.2-64Bit/xmc1400-getstarted-optiga-trust-m/Libraries/XMCLib/inc\xmc_ccu4.h **** } XMC_CCU4_SLICE_AUTOMAIC_SHADOW_TRANSFER_WRITE_INTO_t;
 599:C:/Workspace/DAVE-4.4.2-64Bit/xmc1400-getstarted-optiga-trust-m/Libraries/XMCLib/inc\xmc_ccu4.h **** #endif
 600:C:/Workspace/DAVE-4.4.2-64Bit/xmc1400-getstarted-optiga-trust-m/Libraries/XMCLib/inc\xmc_ccu4.h **** /**
 601:C:/Workspace/DAVE-4.4.2-64Bit/xmc1400-getstarted-optiga-trust-m/Libraries/XMCLib/inc\xmc_ccu4.h ****  *  Used to create Mask needed for Multi-channel Shadow transfer enable/disable
 602:C:/Workspace/DAVE-4.4.2-64Bit/xmc1400-getstarted-optiga-trust-m/Libraries/XMCLib/inc\xmc_ccu4.h ****  */
 603:C:/Workspace/DAVE-4.4.2-64Bit/xmc1400-getstarted-optiga-trust-m/Libraries/XMCLib/inc\xmc_ccu4.h **** typedef enum XMC_CCU4_SLICE_MASK
 604:C:/Workspace/DAVE-4.4.2-64Bit/xmc1400-getstarted-optiga-trust-m/Libraries/XMCLib/inc\xmc_ccu4.h **** {
 605:C:/Workspace/DAVE-4.4.2-64Bit/xmc1400-getstarted-optiga-trust-m/Libraries/XMCLib/inc\xmc_ccu4.h ****   XMC_CCU4_SLICE_MASK_SLICE_0  = 1U , /**< SLICE-0 */
 606:C:/Workspace/DAVE-4.4.2-64Bit/xmc1400-getstarted-optiga-trust-m/Libraries/XMCLib/inc\xmc_ccu4.h ****   XMC_CCU4_SLICE_MASK_SLICE_1  = 2U , /**< SLICE-1 */
 607:C:/Workspace/DAVE-4.4.2-64Bit/xmc1400-getstarted-optiga-trust-m/Libraries/XMCLib/inc\xmc_ccu4.h ****   XMC_CCU4_SLICE_MASK_SLICE_2  = 4U , /**< SLICE-2 */
 608:C:/Workspace/DAVE-4.4.2-64Bit/xmc1400-getstarted-optiga-trust-m/Libraries/XMCLib/inc\xmc_ccu4.h ****   XMC_CCU4_SLICE_MASK_SLICE_3  = 8U   /**< SLICE-3 */
 609:C:/Workspace/DAVE-4.4.2-64Bit/xmc1400-getstarted-optiga-trust-m/Libraries/XMCLib/inc\xmc_ccu4.h **** } XMC_CCU4_SLICE_MASK_t;
 610:C:/Workspace/DAVE-4.4.2-64Bit/xmc1400-getstarted-optiga-trust-m/Libraries/XMCLib/inc\xmc_ccu4.h **** 
 611:C:/Workspace/DAVE-4.4.2-64Bit/xmc1400-getstarted-optiga-trust-m/Libraries/XMCLib/inc\xmc_ccu4.h **** /**
 612:C:/Workspace/DAVE-4.4.2-64Bit/xmc1400-getstarted-optiga-trust-m/Libraries/XMCLib/inc\xmc_ccu4.h ****  *  Selects suspend mode
 613:C:/Workspace/DAVE-4.4.2-64Bit/xmc1400-getstarted-optiga-trust-m/Libraries/XMCLib/inc\xmc_ccu4.h ****  */
 614:C:/Workspace/DAVE-4.4.2-64Bit/xmc1400-getstarted-optiga-trust-m/Libraries/XMCLib/inc\xmc_ccu4.h **** typedef enum XMC_CCU4_SUSPEND_MODE
 615:C:/Workspace/DAVE-4.4.2-64Bit/xmc1400-getstarted-optiga-trust-m/Libraries/XMCLib/inc\xmc_ccu4.h **** {
 616:C:/Workspace/DAVE-4.4.2-64Bit/xmc1400-getstarted-optiga-trust-m/Libraries/XMCLib/inc\xmc_ccu4.h ****   XMC_CCU4_SUSPEND_MODE_IGNORE = 0 << CCU4_GCTRL_SUSCFG_Pos, /**< Suspend request ignored. The modu
 617:C:/Workspace/DAVE-4.4.2-64Bit/xmc1400-getstarted-optiga-trust-m/Libraries/XMCLib/inc\xmc_ccu4.h ****   XMC_CCU4_SUSPEND_MODE_STOPS_INMEDIATELLY = 1 << CCU4_GCTRL_SUSCFG_Pos, /**< Stops all the running
 618:C:/Workspace/DAVE-4.4.2-64Bit/xmc1400-getstarted-optiga-trust-m/Libraries/XMCLib/inc\xmc_ccu4.h ****   XMC_CCU4_SUSPEND_MODE_SAFE_STOP = 2 << CCU4_GCTRL_SUSCFG_Pos, /**< Stops the block immediately an
 619:C:/Workspace/DAVE-4.4.2-64Bit/xmc1400-getstarted-optiga-trust-m/Libraries/XMCLib/inc\xmc_ccu4.h ****   XMC_CCU4_SUSPEND_MODE_WAIT_ROLL_OVER = 3 << CCU4_GCTRL_SUSCFG_Pos /**< Waits for the roll over of
 620:C:/Workspace/DAVE-4.4.2-64Bit/xmc1400-getstarted-optiga-trust-m/Libraries/XMCLib/inc\xmc_ccu4.h **** } XMC_CCU4_SUSPEND_MODE_t;
 621:C:/Workspace/DAVE-4.4.2-64Bit/xmc1400-getstarted-optiga-trust-m/Libraries/XMCLib/inc\xmc_ccu4.h **** 
 622:C:/Workspace/DAVE-4.4.2-64Bit/xmc1400-getstarted-optiga-trust-m/Libraries/XMCLib/inc\xmc_ccu4.h **** 
 623:C:/Workspace/DAVE-4.4.2-64Bit/xmc1400-getstarted-optiga-trust-m/Libraries/XMCLib/inc\xmc_ccu4.h **** /**
 624:C:/Workspace/DAVE-4.4.2-64Bit/xmc1400-getstarted-optiga-trust-m/Libraries/XMCLib/inc\xmc_ccu4.h ****  *  CCU4 slice status bit
 625:C:/Workspace/DAVE-4.4.2-64Bit/xmc1400-getstarted-optiga-trust-m/Libraries/XMCLib/inc\xmc_ccu4.h ****  */ 
 626:C:/Workspace/DAVE-4.4.2-64Bit/xmc1400-getstarted-optiga-trust-m/Libraries/XMCLib/inc\xmc_ccu4.h **** typedef enum XMC_CCU4_SLICE_STATUS_BIT
 627:C:/Workspace/DAVE-4.4.2-64Bit/xmc1400-getstarted-optiga-trust-m/Libraries/XMCLib/inc\xmc_ccu4.h **** {
 628:C:/Workspace/DAVE-4.4.2-64Bit/xmc1400-getstarted-optiga-trust-m/Libraries/XMCLib/inc\xmc_ccu4.h ****   XMC_CCU4_SLICE_STATUS_BIT_PASSIVE = false, /**< Passive */
 629:C:/Workspace/DAVE-4.4.2-64Bit/xmc1400-getstarted-optiga-trust-m/Libraries/XMCLib/inc\xmc_ccu4.h ****   XMC_CCU4_SLICE_STATUS_BIT_ACTIVE  = true   /**< Active  */
 630:C:/Workspace/DAVE-4.4.2-64Bit/xmc1400-getstarted-optiga-trust-m/Libraries/XMCLib/inc\xmc_ccu4.h **** } XMC_CCU4_SLICE_STATUS_BIT_t;
 631:C:/Workspace/DAVE-4.4.2-64Bit/xmc1400-getstarted-optiga-trust-m/Libraries/XMCLib/inc\xmc_ccu4.h **** 
 632:C:/Workspace/DAVE-4.4.2-64Bit/xmc1400-getstarted-optiga-trust-m/Libraries/XMCLib/inc\xmc_ccu4.h **** 
 633:C:/Workspace/DAVE-4.4.2-64Bit/xmc1400-getstarted-optiga-trust-m/Libraries/XMCLib/inc\xmc_ccu4.h **** /**************************************************************************************************
 634:C:/Workspace/DAVE-4.4.2-64Bit/xmc1400-getstarted-optiga-trust-m/Libraries/XMCLib/inc\xmc_ccu4.h ****  * DATA STRUCTURES
 635:C:/Workspace/DAVE-4.4.2-64Bit/xmc1400-getstarted-optiga-trust-m/Libraries/XMCLib/inc\xmc_ccu4.h ****  **************************************************************************************************
 636:C:/Workspace/DAVE-4.4.2-64Bit/xmc1400-getstarted-optiga-trust-m/Libraries/XMCLib/inc\xmc_ccu4.h **** 
 637:C:/Workspace/DAVE-4.4.2-64Bit/xmc1400-getstarted-optiga-trust-m/Libraries/XMCLib/inc\xmc_ccu4.h **** /**
 638:C:/Workspace/DAVE-4.4.2-64Bit/xmc1400-getstarted-optiga-trust-m/Libraries/XMCLib/inc\xmc_ccu4.h ****  *  Configuration data structure of an External Event(Event-0/1/2).
 639:C:/Workspace/DAVE-4.4.2-64Bit/xmc1400-getstarted-optiga-trust-m/Libraries/XMCLib/inc\xmc_ccu4.h ****  *  Needed to configure the various aspects of an External Event.
 640:C:/Workspace/DAVE-4.4.2-64Bit/xmc1400-getstarted-optiga-trust-m/Libraries/XMCLib/inc\xmc_ccu4.h ****  *  This structure will not connect the external event with an external function.
 641:C:/Workspace/DAVE-4.4.2-64Bit/xmc1400-getstarted-optiga-trust-m/Libraries/XMCLib/inc\xmc_ccu4.h ****  */ 
 642:C:/Workspace/DAVE-4.4.2-64Bit/xmc1400-getstarted-optiga-trust-m/Libraries/XMCLib/inc\xmc_ccu4.h **** typedef struct XMC_CCU4_SLICE_EVENT_CONFIG
 643:C:/Workspace/DAVE-4.4.2-64Bit/xmc1400-getstarted-optiga-trust-m/Libraries/XMCLib/inc\xmc_ccu4.h **** {
 644:C:/Workspace/DAVE-4.4.2-64Bit/xmc1400-getstarted-optiga-trust-m/Libraries/XMCLib/inc\xmc_ccu4.h ****   XMC_CCU4_SLICE_INPUT_t                   mapped_input; /**< Required input signal for the Event *
 645:C:/Workspace/DAVE-4.4.2-64Bit/xmc1400-getstarted-optiga-trust-m/Libraries/XMCLib/inc\xmc_ccu4.h ****   XMC_CCU4_SLICE_EVENT_EDGE_SENSITIVITY_t  edge;         /**< Select the event edge of the input si
 646:C:/Workspace/DAVE-4.4.2-64Bit/xmc1400-getstarted-optiga-trust-m/Libraries/XMCLib/inc\xmc_ccu4.h ****                                                               This is needed for an edge sensitive 
 647:C:/Workspace/DAVE-4.4.2-64Bit/xmc1400-getstarted-optiga-trust-m/Libraries/XMCLib/inc\xmc_ccu4.h ****   XMC_CCU4_SLICE_EVENT_LEVEL_SENSITIVITY_t level;        /**< Select the event level of the input s
 648:C:/Workspace/DAVE-4.4.2-64Bit/xmc1400-getstarted-optiga-trust-m/Libraries/XMCLib/inc\xmc_ccu4.h ****                                                               This is needed for an level sensitive
 649:C:/Workspace/DAVE-4.4.2-64Bit/xmc1400-getstarted-optiga-trust-m/Libraries/XMCLib/inc\xmc_ccu4.h ****   XMC_CCU4_SLICE_EVENT_FILTER_t            duration;     /**< Low Pass filter duration in terms of 
 650:C:/Workspace/DAVE-4.4.2-64Bit/xmc1400-getstarted-optiga-trust-m/Libraries/XMCLib/inc\xmc_ccu4.h **** } XMC_CCU4_SLICE_EVENT_CONFIG_t;
 651:C:/Workspace/DAVE-4.4.2-64Bit/xmc1400-getstarted-optiga-trust-m/Libraries/XMCLib/inc\xmc_ccu4.h **** 
 652:C:/Workspace/DAVE-4.4.2-64Bit/xmc1400-getstarted-optiga-trust-m/Libraries/XMCLib/inc\xmc_ccu4.h **** /*Anonymous structure/union guard start*/
 653:C:/Workspace/DAVE-4.4.2-64Bit/xmc1400-getstarted-optiga-trust-m/Libraries/XMCLib/inc\xmc_ccu4.h **** #if defined(__CC_ARM)
 654:C:/Workspace/DAVE-4.4.2-64Bit/xmc1400-getstarted-optiga-trust-m/Libraries/XMCLib/inc\xmc_ccu4.h ****   #pragma push
 655:C:/Workspace/DAVE-4.4.2-64Bit/xmc1400-getstarted-optiga-trust-m/Libraries/XMCLib/inc\xmc_ccu4.h ****   #pragma anon_unions
 656:C:/Workspace/DAVE-4.4.2-64Bit/xmc1400-getstarted-optiga-trust-m/Libraries/XMCLib/inc\xmc_ccu4.h **** #elif defined(__TASKING__)
 657:C:/Workspace/DAVE-4.4.2-64Bit/xmc1400-getstarted-optiga-trust-m/Libraries/XMCLib/inc\xmc_ccu4.h ****   #pragma warning 586
 658:C:/Workspace/DAVE-4.4.2-64Bit/xmc1400-getstarted-optiga-trust-m/Libraries/XMCLib/inc\xmc_ccu4.h **** #endif
 659:C:/Workspace/DAVE-4.4.2-64Bit/xmc1400-getstarted-optiga-trust-m/Libraries/XMCLib/inc\xmc_ccu4.h **** 
 660:C:/Workspace/DAVE-4.4.2-64Bit/xmc1400-getstarted-optiga-trust-m/Libraries/XMCLib/inc\xmc_ccu4.h **** /**
 661:C:/Workspace/DAVE-4.4.2-64Bit/xmc1400-getstarted-optiga-trust-m/Libraries/XMCLib/inc\xmc_ccu4.h ****  *  Configuration data structure for CCU4 slice. Specifically configures the CCU4 slice to compare 
 662:C:/Workspace/DAVE-4.4.2-64Bit/xmc1400-getstarted-optiga-trust-m/Libraries/XMCLib/inc\xmc_ccu4.h ****  *  This excludes event and function configuration.
 663:C:/Workspace/DAVE-4.4.2-64Bit/xmc1400-getstarted-optiga-trust-m/Libraries/XMCLib/inc\xmc_ccu4.h ****  */ 
 664:C:/Workspace/DAVE-4.4.2-64Bit/xmc1400-getstarted-optiga-trust-m/Libraries/XMCLib/inc\xmc_ccu4.h **** typedef struct XMC_CCU4_SLICE_COMPARE_CONFIG
 665:C:/Workspace/DAVE-4.4.2-64Bit/xmc1400-getstarted-optiga-trust-m/Libraries/XMCLib/inc\xmc_ccu4.h **** {
 666:C:/Workspace/DAVE-4.4.2-64Bit/xmc1400-getstarted-optiga-trust-m/Libraries/XMCLib/inc\xmc_ccu4.h ****   union
 667:C:/Workspace/DAVE-4.4.2-64Bit/xmc1400-getstarted-optiga-trust-m/Libraries/XMCLib/inc\xmc_ccu4.h ****   {
 668:C:/Workspace/DAVE-4.4.2-64Bit/xmc1400-getstarted-optiga-trust-m/Libraries/XMCLib/inc\xmc_ccu4.h ****     struct
 669:C:/Workspace/DAVE-4.4.2-64Bit/xmc1400-getstarted-optiga-trust-m/Libraries/XMCLib/inc\xmc_ccu4.h ****     {
 670:C:/Workspace/DAVE-4.4.2-64Bit/xmc1400-getstarted-optiga-trust-m/Libraries/XMCLib/inc\xmc_ccu4.h ****       uint32_t timer_mode : 1;         /**< Edge aligned or Centre Aligned.
 671:C:/Workspace/DAVE-4.4.2-64Bit/xmc1400-getstarted-optiga-trust-m/Libraries/XMCLib/inc\xmc_ccu4.h ****                                              Accepts enum ::XMC_CCU4_SLICE_TIMER_COUNT_MODE_t */
 672:C:/Workspace/DAVE-4.4.2-64Bit/xmc1400-getstarted-optiga-trust-m/Libraries/XMCLib/inc\xmc_ccu4.h ****       uint32_t monoshot : 1;           /**< Single shot or Continuous mode .
 673:C:/Workspace/DAVE-4.4.2-64Bit/xmc1400-getstarted-optiga-trust-m/Libraries/XMCLib/inc\xmc_ccu4.h ****                                              Accepts enum :: XMC_CCU4_SLICE_TIMER_REPEAT_MODE_t*/
 674:C:/Workspace/DAVE-4.4.2-64Bit/xmc1400-getstarted-optiga-trust-m/Libraries/XMCLib/inc\xmc_ccu4.h ****       uint32_t shadow_xfer_clear : 1;  /**< Should PR and CR shadow xfer happen when timer is clear
 675:C:/Workspace/DAVE-4.4.2-64Bit/xmc1400-getstarted-optiga-trust-m/Libraries/XMCLib/inc\xmc_ccu4.h ****       uint32_t : 10;
 676:C:/Workspace/DAVE-4.4.2-64Bit/xmc1400-getstarted-optiga-trust-m/Libraries/XMCLib/inc\xmc_ccu4.h ****       uint32_t dither_timer_period: 1; /**< Can the period of the timer dither? */
 677:C:/Workspace/DAVE-4.4.2-64Bit/xmc1400-getstarted-optiga-trust-m/Libraries/XMCLib/inc\xmc_ccu4.h ****       uint32_t dither_duty_cycle : 1;  /**< Can the compare match of the timer dither? */
 678:C:/Workspace/DAVE-4.4.2-64Bit/xmc1400-getstarted-optiga-trust-m/Libraries/XMCLib/inc\xmc_ccu4.h ****       uint32_t : 1;
 679:C:/Workspace/DAVE-4.4.2-64Bit/xmc1400-getstarted-optiga-trust-m/Libraries/XMCLib/inc\xmc_ccu4.h ****       uint32_t prescaler_mode: 1;      /**< Normal or floating prescaler mode.
 680:C:/Workspace/DAVE-4.4.2-64Bit/xmc1400-getstarted-optiga-trust-m/Libraries/XMCLib/inc\xmc_ccu4.h ****                                              Accepts enum :: XMC_CCU4_SLICE_PRESCALER_MODE_t*/
 681:C:/Workspace/DAVE-4.4.2-64Bit/xmc1400-getstarted-optiga-trust-m/Libraries/XMCLib/inc\xmc_ccu4.h ****       uint32_t : 8;
 682:C:/Workspace/DAVE-4.4.2-64Bit/xmc1400-getstarted-optiga-trust-m/Libraries/XMCLib/inc\xmc_ccu4.h ****       uint32_t mcm_enable : 1;         /**< Multi-Channel mode enable? */
 683:C:/Workspace/DAVE-4.4.2-64Bit/xmc1400-getstarted-optiga-trust-m/Libraries/XMCLib/inc\xmc_ccu4.h ****       uint32_t : 6;
 684:C:/Workspace/DAVE-4.4.2-64Bit/xmc1400-getstarted-optiga-trust-m/Libraries/XMCLib/inc\xmc_ccu4.h ****     };
 685:C:/Workspace/DAVE-4.4.2-64Bit/xmc1400-getstarted-optiga-trust-m/Libraries/XMCLib/inc\xmc_ccu4.h ****     uint32_t tc;
 686:C:/Workspace/DAVE-4.4.2-64Bit/xmc1400-getstarted-optiga-trust-m/Libraries/XMCLib/inc\xmc_ccu4.h ****   };
 687:C:/Workspace/DAVE-4.4.2-64Bit/xmc1400-getstarted-optiga-trust-m/Libraries/XMCLib/inc\xmc_ccu4.h ****   uint32_t prescaler_initval : 4;      /**< Initial prescaler divider value 
 688:C:/Workspace/DAVE-4.4.2-64Bit/xmc1400-getstarted-optiga-trust-m/Libraries/XMCLib/inc\xmc_ccu4.h ****                                             Accepts enum :: XMC_CCU4_SLICE_PRESCALER_t */
 689:C:/Workspace/DAVE-4.4.2-64Bit/xmc1400-getstarted-optiga-trust-m/Libraries/XMCLib/inc\xmc_ccu4.h ****   uint32_t float_limit : 4;            /**< The max value which the prescaler divider can increment
 690:C:/Workspace/DAVE-4.4.2-64Bit/xmc1400-getstarted-optiga-trust-m/Libraries/XMCLib/inc\xmc_ccu4.h ****   uint32_t dither_limit : 4;           /**< The value that determines the spreading of dithering */
 691:C:/Workspace/DAVE-4.4.2-64Bit/xmc1400-getstarted-optiga-trust-m/Libraries/XMCLib/inc\xmc_ccu4.h ****   uint32_t passive_level : 1;          /**< Configuration of ST and OUT passive levels.
 692:C:/Workspace/DAVE-4.4.2-64Bit/xmc1400-getstarted-optiga-trust-m/Libraries/XMCLib/inc\xmc_ccu4.h ****                                              Accepts enum :: XMC_CCU4_SLICE_OUTPUT_PASSIVE_LEVEL_t*
 693:C:/Workspace/DAVE-4.4.2-64Bit/xmc1400-getstarted-optiga-trust-m/Libraries/XMCLib/inc\xmc_ccu4.h ****   uint32_t timer_concatenation : 1;    /**< Enables the concatenation of the timer if true.*/
 694:C:/Workspace/DAVE-4.4.2-64Bit/xmc1400-getstarted-optiga-trust-m/Libraries/XMCLib/inc\xmc_ccu4.h **** } XMC_CCU4_SLICE_COMPARE_CONFIG_t;
 695:C:/Workspace/DAVE-4.4.2-64Bit/xmc1400-getstarted-optiga-trust-m/Libraries/XMCLib/inc\xmc_ccu4.h **** 
 696:C:/Workspace/DAVE-4.4.2-64Bit/xmc1400-getstarted-optiga-trust-m/Libraries/XMCLib/inc\xmc_ccu4.h **** /**
 697:C:/Workspace/DAVE-4.4.2-64Bit/xmc1400-getstarted-optiga-trust-m/Libraries/XMCLib/inc\xmc_ccu4.h ****  *  Configuration data structure for CCU4 slice. Specifically configures the CCU4 slice to capture 
 698:C:/Workspace/DAVE-4.4.2-64Bit/xmc1400-getstarted-optiga-trust-m/Libraries/XMCLib/inc\xmc_ccu4.h ****  *  This excludes event and function configuration.
 699:C:/Workspace/DAVE-4.4.2-64Bit/xmc1400-getstarted-optiga-trust-m/Libraries/XMCLib/inc\xmc_ccu4.h ****  */ 
 700:C:/Workspace/DAVE-4.4.2-64Bit/xmc1400-getstarted-optiga-trust-m/Libraries/XMCLib/inc\xmc_ccu4.h **** typedef struct XMC_CCU4_SLICE_CAPTURE_CONFIG
 701:C:/Workspace/DAVE-4.4.2-64Bit/xmc1400-getstarted-optiga-trust-m/Libraries/XMCLib/inc\xmc_ccu4.h **** {
 702:C:/Workspace/DAVE-4.4.2-64Bit/xmc1400-getstarted-optiga-trust-m/Libraries/XMCLib/inc\xmc_ccu4.h ****   union
 703:C:/Workspace/DAVE-4.4.2-64Bit/xmc1400-getstarted-optiga-trust-m/Libraries/XMCLib/inc\xmc_ccu4.h ****   {
 704:C:/Workspace/DAVE-4.4.2-64Bit/xmc1400-getstarted-optiga-trust-m/Libraries/XMCLib/inc\xmc_ccu4.h ****     struct
 705:C:/Workspace/DAVE-4.4.2-64Bit/xmc1400-getstarted-optiga-trust-m/Libraries/XMCLib/inc\xmc_ccu4.h ****     {
 706:C:/Workspace/DAVE-4.4.2-64Bit/xmc1400-getstarted-optiga-trust-m/Libraries/XMCLib/inc\xmc_ccu4.h ****       uint32_t : 4;
 707:C:/Workspace/DAVE-4.4.2-64Bit/xmc1400-getstarted-optiga-trust-m/Libraries/XMCLib/inc\xmc_ccu4.h ****       uint32_t fifo_enable : 1;      /**< Should the capture registers be setup as a FIFO?(Extended
 708:C:/Workspace/DAVE-4.4.2-64Bit/xmc1400-getstarted-optiga-trust-m/Libraries/XMCLib/inc\xmc_ccu4.h ****       uint32_t timer_clear_mode : 2; /**< How should the timer register be cleared upon detection o
 709:C:/Workspace/DAVE-4.4.2-64Bit/xmc1400-getstarted-optiga-trust-m/Libraries/XMCLib/inc\xmc_ccu4.h ****                                           Accepts enum ::XMC_CCU4_SLICE_TIMER_CLEAR_MODE_t*/
 710:C:/Workspace/DAVE-4.4.2-64Bit/xmc1400-getstarted-optiga-trust-m/Libraries/XMCLib/inc\xmc_ccu4.h ****       uint32_t : 4;
 711:C:/Workspace/DAVE-4.4.2-64Bit/xmc1400-getstarted-optiga-trust-m/Libraries/XMCLib/inc\xmc_ccu4.h ****       uint32_t same_event : 1;       /**< Should the capture event for C1V/C0V and C3V/C2V be same 
 712:C:/Workspace/DAVE-4.4.2-64Bit/xmc1400-getstarted-optiga-trust-m/Libraries/XMCLib/inc\xmc_ccu4.h ****       uint32_t ignore_full_flag : 1; /**< Should updates to capture registers follow full flag rule
 713:C:/Workspace/DAVE-4.4.2-64Bit/xmc1400-getstarted-optiga-trust-m/Libraries/XMCLib/inc\xmc_ccu4.h ****       uint32_t : 3;
 714:C:/Workspace/DAVE-4.4.2-64Bit/xmc1400-getstarted-optiga-trust-m/Libraries/XMCLib/inc\xmc_ccu4.h ****       uint32_t prescaler_mode: 1;    /**< Normal or floating prescaler Accepts enum :: XMC_CCU4_SLI
 715:C:/Workspace/DAVE-4.4.2-64Bit/xmc1400-getstarted-optiga-trust-m/Libraries/XMCLib/inc\xmc_ccu4.h ****       uint32_t : 15;
 716:C:/Workspace/DAVE-4.4.2-64Bit/xmc1400-getstarted-optiga-trust-m/Libraries/XMCLib/inc\xmc_ccu4.h ****     };
 717:C:/Workspace/DAVE-4.4.2-64Bit/xmc1400-getstarted-optiga-trust-m/Libraries/XMCLib/inc\xmc_ccu4.h ****     uint32_t tc;
 718:C:/Workspace/DAVE-4.4.2-64Bit/xmc1400-getstarted-optiga-trust-m/Libraries/XMCLib/inc\xmc_ccu4.h ****   };
 719:C:/Workspace/DAVE-4.4.2-64Bit/xmc1400-getstarted-optiga-trust-m/Libraries/XMCLib/inc\xmc_ccu4.h ****   uint32_t prescaler_initval : 4;    /**< Prescaler divider value */
 720:C:/Workspace/DAVE-4.4.2-64Bit/xmc1400-getstarted-optiga-trust-m/Libraries/XMCLib/inc\xmc_ccu4.h ****   uint32_t float_limit : 4;          /**< The max value which the prescaler divider can increment t
 721:C:/Workspace/DAVE-4.4.2-64Bit/xmc1400-getstarted-optiga-trust-m/Libraries/XMCLib/inc\xmc_ccu4.h ****   uint32_t timer_concatenation : 1;  /**< Enables the concatenation of the timer */
 722:C:/Workspace/DAVE-4.4.2-64Bit/xmc1400-getstarted-optiga-trust-m/Libraries/XMCLib/inc\xmc_ccu4.h **** } XMC_CCU4_SLICE_CAPTURE_CONFIG_t;
 723:C:/Workspace/DAVE-4.4.2-64Bit/xmc1400-getstarted-optiga-trust-m/Libraries/XMCLib/inc\xmc_ccu4.h **** /*Anonymous structure/union guard end*/
 724:C:/Workspace/DAVE-4.4.2-64Bit/xmc1400-getstarted-optiga-trust-m/Libraries/XMCLib/inc\xmc_ccu4.h **** #if defined(__CC_ARM)
 725:C:/Workspace/DAVE-4.4.2-64Bit/xmc1400-getstarted-optiga-trust-m/Libraries/XMCLib/inc\xmc_ccu4.h ****   #pragma pop
 726:C:/Workspace/DAVE-4.4.2-64Bit/xmc1400-getstarted-optiga-trust-m/Libraries/XMCLib/inc\xmc_ccu4.h **** #elif defined(__TASKING__)
 727:C:/Workspace/DAVE-4.4.2-64Bit/xmc1400-getstarted-optiga-trust-m/Libraries/XMCLib/inc\xmc_ccu4.h ****   #pragma warning restore
 728:C:/Workspace/DAVE-4.4.2-64Bit/xmc1400-getstarted-optiga-trust-m/Libraries/XMCLib/inc\xmc_ccu4.h **** #endif
 729:C:/Workspace/DAVE-4.4.2-64Bit/xmc1400-getstarted-optiga-trust-m/Libraries/XMCLib/inc\xmc_ccu4.h **** /**************************************************************************************************
 730:C:/Workspace/DAVE-4.4.2-64Bit/xmc1400-getstarted-optiga-trust-m/Libraries/XMCLib/inc\xmc_ccu4.h ****  * API Prototypes
 731:C:/Workspace/DAVE-4.4.2-64Bit/xmc1400-getstarted-optiga-trust-m/Libraries/XMCLib/inc\xmc_ccu4.h ****  **************************************************************************************************
 732:C:/Workspace/DAVE-4.4.2-64Bit/xmc1400-getstarted-optiga-trust-m/Libraries/XMCLib/inc\xmc_ccu4.h **** 
 733:C:/Workspace/DAVE-4.4.2-64Bit/xmc1400-getstarted-optiga-trust-m/Libraries/XMCLib/inc\xmc_ccu4.h **** #ifdef __cplusplus
 734:C:/Workspace/DAVE-4.4.2-64Bit/xmc1400-getstarted-optiga-trust-m/Libraries/XMCLib/inc\xmc_ccu4.h **** extern "C" {
 735:C:/Workspace/DAVE-4.4.2-64Bit/xmc1400-getstarted-optiga-trust-m/Libraries/XMCLib/inc\xmc_ccu4.h **** #endif
 736:C:/Workspace/DAVE-4.4.2-64Bit/xmc1400-getstarted-optiga-trust-m/Libraries/XMCLib/inc\xmc_ccu4.h **** 
 737:C:/Workspace/DAVE-4.4.2-64Bit/xmc1400-getstarted-optiga-trust-m/Libraries/XMCLib/inc\xmc_ccu4.h **** __STATIC_INLINE bool XMC_CCU4_IsValidModule(const XMC_CCU4_MODULE_t *const module)
 738:C:/Workspace/DAVE-4.4.2-64Bit/xmc1400-getstarted-optiga-trust-m/Libraries/XMCLib/inc\xmc_ccu4.h **** {
 739:C:/Workspace/DAVE-4.4.2-64Bit/xmc1400-getstarted-optiga-trust-m/Libraries/XMCLib/inc\xmc_ccu4.h ****   bool tmp = false;
 740:C:/Workspace/DAVE-4.4.2-64Bit/xmc1400-getstarted-optiga-trust-m/Libraries/XMCLib/inc\xmc_ccu4.h ****   
 741:C:/Workspace/DAVE-4.4.2-64Bit/xmc1400-getstarted-optiga-trust-m/Libraries/XMCLib/inc\xmc_ccu4.h ****   tmp = (module == CCU40);
 742:C:/Workspace/DAVE-4.4.2-64Bit/xmc1400-getstarted-optiga-trust-m/Libraries/XMCLib/inc\xmc_ccu4.h ****   
 743:C:/Workspace/DAVE-4.4.2-64Bit/xmc1400-getstarted-optiga-trust-m/Libraries/XMCLib/inc\xmc_ccu4.h **** #if defined(CCU41) 
 744:C:/Workspace/DAVE-4.4.2-64Bit/xmc1400-getstarted-optiga-trust-m/Libraries/XMCLib/inc\xmc_ccu4.h ****   tmp = tmp || (module == CCU41);
 745:C:/Workspace/DAVE-4.4.2-64Bit/xmc1400-getstarted-optiga-trust-m/Libraries/XMCLib/inc\xmc_ccu4.h **** #endif
 746:C:/Workspace/DAVE-4.4.2-64Bit/xmc1400-getstarted-optiga-trust-m/Libraries/XMCLib/inc\xmc_ccu4.h **** 
 747:C:/Workspace/DAVE-4.4.2-64Bit/xmc1400-getstarted-optiga-trust-m/Libraries/XMCLib/inc\xmc_ccu4.h **** #if defined(CCU42)
 748:C:/Workspace/DAVE-4.4.2-64Bit/xmc1400-getstarted-optiga-trust-m/Libraries/XMCLib/inc\xmc_ccu4.h ****   tmp = tmp || (module == CCU42);
 749:C:/Workspace/DAVE-4.4.2-64Bit/xmc1400-getstarted-optiga-trust-m/Libraries/XMCLib/inc\xmc_ccu4.h **** #endif
 750:C:/Workspace/DAVE-4.4.2-64Bit/xmc1400-getstarted-optiga-trust-m/Libraries/XMCLib/inc\xmc_ccu4.h **** 
 751:C:/Workspace/DAVE-4.4.2-64Bit/xmc1400-getstarted-optiga-trust-m/Libraries/XMCLib/inc\xmc_ccu4.h **** #if defined(CCU43)
 752:C:/Workspace/DAVE-4.4.2-64Bit/xmc1400-getstarted-optiga-trust-m/Libraries/XMCLib/inc\xmc_ccu4.h ****   tmp = tmp || (module == CCU43);
 753:C:/Workspace/DAVE-4.4.2-64Bit/xmc1400-getstarted-optiga-trust-m/Libraries/XMCLib/inc\xmc_ccu4.h **** #endif
 754:C:/Workspace/DAVE-4.4.2-64Bit/xmc1400-getstarted-optiga-trust-m/Libraries/XMCLib/inc\xmc_ccu4.h ****   
 755:C:/Workspace/DAVE-4.4.2-64Bit/xmc1400-getstarted-optiga-trust-m/Libraries/XMCLib/inc\xmc_ccu4.h ****   return tmp;  
 756:C:/Workspace/DAVE-4.4.2-64Bit/xmc1400-getstarted-optiga-trust-m/Libraries/XMCLib/inc\xmc_ccu4.h **** } 
 757:C:/Workspace/DAVE-4.4.2-64Bit/xmc1400-getstarted-optiga-trust-m/Libraries/XMCLib/inc\xmc_ccu4.h **** 
 758:C:/Workspace/DAVE-4.4.2-64Bit/xmc1400-getstarted-optiga-trust-m/Libraries/XMCLib/inc\xmc_ccu4.h **** __STATIC_INLINE bool XMC_CCU4_IsValidSlice(const XMC_CCU4_SLICE_t *const slice)
 759:C:/Workspace/DAVE-4.4.2-64Bit/xmc1400-getstarted-optiga-trust-m/Libraries/XMCLib/inc\xmc_ccu4.h **** {
 760:C:/Workspace/DAVE-4.4.2-64Bit/xmc1400-getstarted-optiga-trust-m/Libraries/XMCLib/inc\xmc_ccu4.h ****   bool tmp = false;
 761:C:/Workspace/DAVE-4.4.2-64Bit/xmc1400-getstarted-optiga-trust-m/Libraries/XMCLib/inc\xmc_ccu4.h ****   
 762:C:/Workspace/DAVE-4.4.2-64Bit/xmc1400-getstarted-optiga-trust-m/Libraries/XMCLib/inc\xmc_ccu4.h ****   tmp = (slice == CCU40_CC40);
 763:C:/Workspace/DAVE-4.4.2-64Bit/xmc1400-getstarted-optiga-trust-m/Libraries/XMCLib/inc\xmc_ccu4.h **** #if defined(CCU40_CC41)  
 764:C:/Workspace/DAVE-4.4.2-64Bit/xmc1400-getstarted-optiga-trust-m/Libraries/XMCLib/inc\xmc_ccu4.h ****   tmp = tmp || (slice == CCU40_CC41);
 765:C:/Workspace/DAVE-4.4.2-64Bit/xmc1400-getstarted-optiga-trust-m/Libraries/XMCLib/inc\xmc_ccu4.h **** #endif
 766:C:/Workspace/DAVE-4.4.2-64Bit/xmc1400-getstarted-optiga-trust-m/Libraries/XMCLib/inc\xmc_ccu4.h **** #if defined(CCU40_CC42)  
 767:C:/Workspace/DAVE-4.4.2-64Bit/xmc1400-getstarted-optiga-trust-m/Libraries/XMCLib/inc\xmc_ccu4.h ****   tmp = tmp || (slice == CCU40_CC42);
 768:C:/Workspace/DAVE-4.4.2-64Bit/xmc1400-getstarted-optiga-trust-m/Libraries/XMCLib/inc\xmc_ccu4.h **** #endif
 769:C:/Workspace/DAVE-4.4.2-64Bit/xmc1400-getstarted-optiga-trust-m/Libraries/XMCLib/inc\xmc_ccu4.h **** #if defined(CCU40_CC43)  
 770:C:/Workspace/DAVE-4.4.2-64Bit/xmc1400-getstarted-optiga-trust-m/Libraries/XMCLib/inc\xmc_ccu4.h ****   tmp = tmp || (slice == CCU40_CC43);
 771:C:/Workspace/DAVE-4.4.2-64Bit/xmc1400-getstarted-optiga-trust-m/Libraries/XMCLib/inc\xmc_ccu4.h **** #endif
 772:C:/Workspace/DAVE-4.4.2-64Bit/xmc1400-getstarted-optiga-trust-m/Libraries/XMCLib/inc\xmc_ccu4.h **** #if defined(CCU41)  
 773:C:/Workspace/DAVE-4.4.2-64Bit/xmc1400-getstarted-optiga-trust-m/Libraries/XMCLib/inc\xmc_ccu4.h ****   tmp = tmp || (slice == CCU41_CC40);
 774:C:/Workspace/DAVE-4.4.2-64Bit/xmc1400-getstarted-optiga-trust-m/Libraries/XMCLib/inc\xmc_ccu4.h **** #if defined(CCU41_CC41)  
 775:C:/Workspace/DAVE-4.4.2-64Bit/xmc1400-getstarted-optiga-trust-m/Libraries/XMCLib/inc\xmc_ccu4.h ****   tmp = tmp || (slice == CCU41_CC41);
 776:C:/Workspace/DAVE-4.4.2-64Bit/xmc1400-getstarted-optiga-trust-m/Libraries/XMCLib/inc\xmc_ccu4.h **** #endif
 777:C:/Workspace/DAVE-4.4.2-64Bit/xmc1400-getstarted-optiga-trust-m/Libraries/XMCLib/inc\xmc_ccu4.h **** #if defined(CCU41_CC42)  
 778:C:/Workspace/DAVE-4.4.2-64Bit/xmc1400-getstarted-optiga-trust-m/Libraries/XMCLib/inc\xmc_ccu4.h ****   tmp = tmp || (slice == CCU41_CC42);
 779:C:/Workspace/DAVE-4.4.2-64Bit/xmc1400-getstarted-optiga-trust-m/Libraries/XMCLib/inc\xmc_ccu4.h **** #endif
 780:C:/Workspace/DAVE-4.4.2-64Bit/xmc1400-getstarted-optiga-trust-m/Libraries/XMCLib/inc\xmc_ccu4.h **** #if defined(CCU41_CC43)  
 781:C:/Workspace/DAVE-4.4.2-64Bit/xmc1400-getstarted-optiga-trust-m/Libraries/XMCLib/inc\xmc_ccu4.h ****   tmp = tmp || (slice == CCU41_CC43);
 782:C:/Workspace/DAVE-4.4.2-64Bit/xmc1400-getstarted-optiga-trust-m/Libraries/XMCLib/inc\xmc_ccu4.h **** #endif
 783:C:/Workspace/DAVE-4.4.2-64Bit/xmc1400-getstarted-optiga-trust-m/Libraries/XMCLib/inc\xmc_ccu4.h **** #endif 
 784:C:/Workspace/DAVE-4.4.2-64Bit/xmc1400-getstarted-optiga-trust-m/Libraries/XMCLib/inc\xmc_ccu4.h **** #if defined(CCU42)  
 785:C:/Workspace/DAVE-4.4.2-64Bit/xmc1400-getstarted-optiga-trust-m/Libraries/XMCLib/inc\xmc_ccu4.h ****   tmp = tmp || (slice == CCU42_CC40);
 786:C:/Workspace/DAVE-4.4.2-64Bit/xmc1400-getstarted-optiga-trust-m/Libraries/XMCLib/inc\xmc_ccu4.h **** #if defined(CCU42_CC41)  
 787:C:/Workspace/DAVE-4.4.2-64Bit/xmc1400-getstarted-optiga-trust-m/Libraries/XMCLib/inc\xmc_ccu4.h ****   tmp = tmp || (slice == CCU42_CC41);
 788:C:/Workspace/DAVE-4.4.2-64Bit/xmc1400-getstarted-optiga-trust-m/Libraries/XMCLib/inc\xmc_ccu4.h **** #endif
 789:C:/Workspace/DAVE-4.4.2-64Bit/xmc1400-getstarted-optiga-trust-m/Libraries/XMCLib/inc\xmc_ccu4.h **** #if defined(CCU42_CC42)  
 790:C:/Workspace/DAVE-4.4.2-64Bit/xmc1400-getstarted-optiga-trust-m/Libraries/XMCLib/inc\xmc_ccu4.h ****   tmp = tmp || (slice == CCU42_CC42);
 791:C:/Workspace/DAVE-4.4.2-64Bit/xmc1400-getstarted-optiga-trust-m/Libraries/XMCLib/inc\xmc_ccu4.h **** #endif
 792:C:/Workspace/DAVE-4.4.2-64Bit/xmc1400-getstarted-optiga-trust-m/Libraries/XMCLib/inc\xmc_ccu4.h **** #if defined(CCU42_CC43)  
 793:C:/Workspace/DAVE-4.4.2-64Bit/xmc1400-getstarted-optiga-trust-m/Libraries/XMCLib/inc\xmc_ccu4.h ****   tmp = tmp || (slice == CCU42_CC43);
 794:C:/Workspace/DAVE-4.4.2-64Bit/xmc1400-getstarted-optiga-trust-m/Libraries/XMCLib/inc\xmc_ccu4.h **** #endif
 795:C:/Workspace/DAVE-4.4.2-64Bit/xmc1400-getstarted-optiga-trust-m/Libraries/XMCLib/inc\xmc_ccu4.h **** #endif
 796:C:/Workspace/DAVE-4.4.2-64Bit/xmc1400-getstarted-optiga-trust-m/Libraries/XMCLib/inc\xmc_ccu4.h **** #if defined(CCU43)  
 797:C:/Workspace/DAVE-4.4.2-64Bit/xmc1400-getstarted-optiga-trust-m/Libraries/XMCLib/inc\xmc_ccu4.h ****   tmp = tmp || (slice == CCU43_CC40);
 798:C:/Workspace/DAVE-4.4.2-64Bit/xmc1400-getstarted-optiga-trust-m/Libraries/XMCLib/inc\xmc_ccu4.h **** #if defined(CCU43_CC41)  
 799:C:/Workspace/DAVE-4.4.2-64Bit/xmc1400-getstarted-optiga-trust-m/Libraries/XMCLib/inc\xmc_ccu4.h ****   tmp = tmp || (slice == CCU43_CC41);
 800:C:/Workspace/DAVE-4.4.2-64Bit/xmc1400-getstarted-optiga-trust-m/Libraries/XMCLib/inc\xmc_ccu4.h **** #endif
 801:C:/Workspace/DAVE-4.4.2-64Bit/xmc1400-getstarted-optiga-trust-m/Libraries/XMCLib/inc\xmc_ccu4.h **** #if defined(CCU43_CC42)  
 802:C:/Workspace/DAVE-4.4.2-64Bit/xmc1400-getstarted-optiga-trust-m/Libraries/XMCLib/inc\xmc_ccu4.h ****   tmp = tmp || (slice == CCU43_CC42);
 803:C:/Workspace/DAVE-4.4.2-64Bit/xmc1400-getstarted-optiga-trust-m/Libraries/XMCLib/inc\xmc_ccu4.h **** #endif
 804:C:/Workspace/DAVE-4.4.2-64Bit/xmc1400-getstarted-optiga-trust-m/Libraries/XMCLib/inc\xmc_ccu4.h **** #if defined(CCU43_CC43)  
 805:C:/Workspace/DAVE-4.4.2-64Bit/xmc1400-getstarted-optiga-trust-m/Libraries/XMCLib/inc\xmc_ccu4.h ****   tmp = tmp || (slice == CCU43_CC43);
 806:C:/Workspace/DAVE-4.4.2-64Bit/xmc1400-getstarted-optiga-trust-m/Libraries/XMCLib/inc\xmc_ccu4.h **** #endif
 807:C:/Workspace/DAVE-4.4.2-64Bit/xmc1400-getstarted-optiga-trust-m/Libraries/XMCLib/inc\xmc_ccu4.h **** #endif 
 808:C:/Workspace/DAVE-4.4.2-64Bit/xmc1400-getstarted-optiga-trust-m/Libraries/XMCLib/inc\xmc_ccu4.h ****   
 809:C:/Workspace/DAVE-4.4.2-64Bit/xmc1400-getstarted-optiga-trust-m/Libraries/XMCLib/inc\xmc_ccu4.h ****   return tmp;  
 810:C:/Workspace/DAVE-4.4.2-64Bit/xmc1400-getstarted-optiga-trust-m/Libraries/XMCLib/inc\xmc_ccu4.h **** } 
 811:C:/Workspace/DAVE-4.4.2-64Bit/xmc1400-getstarted-optiga-trust-m/Libraries/XMCLib/inc\xmc_ccu4.h **** 
 812:C:/Workspace/DAVE-4.4.2-64Bit/xmc1400-getstarted-optiga-trust-m/Libraries/XMCLib/inc\xmc_ccu4.h **** /**
 813:C:/Workspace/DAVE-4.4.2-64Bit/xmc1400-getstarted-optiga-trust-m/Libraries/XMCLib/inc\xmc_ccu4.h ****  * @param module Constant pointer to CCU4 module
 814:C:/Workspace/DAVE-4.4.2-64Bit/xmc1400-getstarted-optiga-trust-m/Libraries/XMCLib/inc\xmc_ccu4.h ****  * @param mcs_action multi-channel shadow transfer request configuration
 815:C:/Workspace/DAVE-4.4.2-64Bit/xmc1400-getstarted-optiga-trust-m/Libraries/XMCLib/inc\xmc_ccu4.h ****  * @return <BR>
 816:C:/Workspace/DAVE-4.4.2-64Bit/xmc1400-getstarted-optiga-trust-m/Libraries/XMCLib/inc\xmc_ccu4.h ****  *    None<BR>
 817:C:/Workspace/DAVE-4.4.2-64Bit/xmc1400-getstarted-optiga-trust-m/Libraries/XMCLib/inc\xmc_ccu4.h ****  *
 818:C:/Workspace/DAVE-4.4.2-64Bit/xmc1400-getstarted-optiga-trust-m/Libraries/XMCLib/inc\xmc_ccu4.h ****  * \par<b>Description:</b><br>
 819:C:/Workspace/DAVE-4.4.2-64Bit/xmc1400-getstarted-optiga-trust-m/Libraries/XMCLib/inc\xmc_ccu4.h ****  *  Initialization of global register GCTRL.<br>\n
 820:C:/Workspace/DAVE-4.4.2-64Bit/xmc1400-getstarted-optiga-trust-m/Libraries/XMCLib/inc\xmc_ccu4.h ****  *  As part of module initialization, behaviour of the module upon detection
 821:C:/Workspace/DAVE-4.4.2-64Bit/xmc1400-getstarted-optiga-trust-m/Libraries/XMCLib/inc\xmc_ccu4.h ****  *  Multi-Channel Mode trigger is configured. Will also invoke the XMC_CCU4_EnableModule().
 822:C:/Workspace/DAVE-4.4.2-64Bit/xmc1400-getstarted-optiga-trust-m/Libraries/XMCLib/inc\xmc_ccu4.h ****  *  The API call would bring up the required CCU4 module and also initialize the module for
 823:C:/Workspace/DAVE-4.4.2-64Bit/xmc1400-getstarted-optiga-trust-m/Libraries/XMCLib/inc\xmc_ccu4.h ****  *  the required multi-channel shadow transfer.
 824:C:/Workspace/DAVE-4.4.2-64Bit/xmc1400-getstarted-optiga-trust-m/Libraries/XMCLib/inc\xmc_ccu4.h ****  *
 825:C:/Workspace/DAVE-4.4.2-64Bit/xmc1400-getstarted-optiga-trust-m/Libraries/XMCLib/inc\xmc_ccu4.h ****  * \par<b>Related APIs:</b><br>
 826:C:/Workspace/DAVE-4.4.2-64Bit/xmc1400-getstarted-optiga-trust-m/Libraries/XMCLib/inc\xmc_ccu4.h ****  * XMC_CCU4_SLICE_CompareInit()<BR> XMC_CCU4_SLICE_CaptureInit().
 827:C:/Workspace/DAVE-4.4.2-64Bit/xmc1400-getstarted-optiga-trust-m/Libraries/XMCLib/inc\xmc_ccu4.h ****  */
 828:C:/Workspace/DAVE-4.4.2-64Bit/xmc1400-getstarted-optiga-trust-m/Libraries/XMCLib/inc\xmc_ccu4.h **** void XMC_CCU4_Init(XMC_CCU4_MODULE_t *const module, const XMC_CCU4_SLICE_MCMS_ACTION_t mcs_action);
 829:C:/Workspace/DAVE-4.4.2-64Bit/xmc1400-getstarted-optiga-trust-m/Libraries/XMCLib/inc\xmc_ccu4.h **** 
 830:C:/Workspace/DAVE-4.4.2-64Bit/xmc1400-getstarted-optiga-trust-m/Libraries/XMCLib/inc\xmc_ccu4.h **** /**
 831:C:/Workspace/DAVE-4.4.2-64Bit/xmc1400-getstarted-optiga-trust-m/Libraries/XMCLib/inc\xmc_ccu4.h ****  * @param module Constant pointer to CCU4 module
 832:C:/Workspace/DAVE-4.4.2-64Bit/xmc1400-getstarted-optiga-trust-m/Libraries/XMCLib/inc\xmc_ccu4.h ****  * @param clock Choice of input clock to the module
 833:C:/Workspace/DAVE-4.4.2-64Bit/xmc1400-getstarted-optiga-trust-m/Libraries/XMCLib/inc\xmc_ccu4.h ****  * @return <BR>
 834:C:/Workspace/DAVE-4.4.2-64Bit/xmc1400-getstarted-optiga-trust-m/Libraries/XMCLib/inc\xmc_ccu4.h ****  *    None<BR>
 835:C:/Workspace/DAVE-4.4.2-64Bit/xmc1400-getstarted-optiga-trust-m/Libraries/XMCLib/inc\xmc_ccu4.h ****  *
 836:C:/Workspace/DAVE-4.4.2-64Bit/xmc1400-getstarted-optiga-trust-m/Libraries/XMCLib/inc\xmc_ccu4.h ****  * \par<b>Description:</b><br>
 837:C:/Workspace/DAVE-4.4.2-64Bit/xmc1400-getstarted-optiga-trust-m/Libraries/XMCLib/inc\xmc_ccu4.h ****  *  Selects the Module Clock by configuring GCTRL.PCIS bits.<BR>\n
 838:C:/Workspace/DAVE-4.4.2-64Bit/xmc1400-getstarted-optiga-trust-m/Libraries/XMCLib/inc\xmc_ccu4.h ****  *  There are 3 potential clock sources. This API helps to select the required clock source.
 839:C:/Workspace/DAVE-4.4.2-64Bit/xmc1400-getstarted-optiga-trust-m/Libraries/XMCLib/inc\xmc_ccu4.h ****  *  Call to this API is valid after the XMC_CCU4_Init().
 840:C:/Workspace/DAVE-4.4.2-64Bit/xmc1400-getstarted-optiga-trust-m/Libraries/XMCLib/inc\xmc_ccu4.h ****  *
 841:C:/Workspace/DAVE-4.4.2-64Bit/xmc1400-getstarted-optiga-trust-m/Libraries/XMCLib/inc\xmc_ccu4.h ****  * \par<b>Related APIs:</b><br>
 842:C:/Workspace/DAVE-4.4.2-64Bit/xmc1400-getstarted-optiga-trust-m/Libraries/XMCLib/inc\xmc_ccu4.h ****  * None.<BR>
 843:C:/Workspace/DAVE-4.4.2-64Bit/xmc1400-getstarted-optiga-trust-m/Libraries/XMCLib/inc\xmc_ccu4.h ****  */
 844:C:/Workspace/DAVE-4.4.2-64Bit/xmc1400-getstarted-optiga-trust-m/Libraries/XMCLib/inc\xmc_ccu4.h **** void XMC_CCU4_SetModuleClock(XMC_CCU4_MODULE_t *const module, const XMC_CCU4_CLOCK_t clock);
 845:C:/Workspace/DAVE-4.4.2-64Bit/xmc1400-getstarted-optiga-trust-m/Libraries/XMCLib/inc\xmc_ccu4.h **** 
 846:C:/Workspace/DAVE-4.4.2-64Bit/xmc1400-getstarted-optiga-trust-m/Libraries/XMCLib/inc\xmc_ccu4.h **** /**
 847:C:/Workspace/DAVE-4.4.2-64Bit/xmc1400-getstarted-optiga-trust-m/Libraries/XMCLib/inc\xmc_ccu4.h ****  * @param module Constant pointer to CCU4 module
 848:C:/Workspace/DAVE-4.4.2-64Bit/xmc1400-getstarted-optiga-trust-m/Libraries/XMCLib/inc\xmc_ccu4.h ****  * @return <BR>
 849:C:/Workspace/DAVE-4.4.2-64Bit/xmc1400-getstarted-optiga-trust-m/Libraries/XMCLib/inc\xmc_ccu4.h ****  *    None<BR>
 850:C:/Workspace/DAVE-4.4.2-64Bit/xmc1400-getstarted-optiga-trust-m/Libraries/XMCLib/inc\xmc_ccu4.h ****  *
 851:C:/Workspace/DAVE-4.4.2-64Bit/xmc1400-getstarted-optiga-trust-m/Libraries/XMCLib/inc\xmc_ccu4.h ****  * \par<b>Description:</b><br>
 852:C:/Workspace/DAVE-4.4.2-64Bit/xmc1400-getstarted-optiga-trust-m/Libraries/XMCLib/inc\xmc_ccu4.h ****  * Enables the CCU4 module and brings it to active state.<BR>\n
 853:C:/Workspace/DAVE-4.4.2-64Bit/xmc1400-getstarted-optiga-trust-m/Libraries/XMCLib/inc\xmc_ccu4.h ****  * Also disables the gating of the clock signal (if applicable depending on the device being select
 854:C:/Workspace/DAVE-4.4.2-64Bit/xmc1400-getstarted-optiga-trust-m/Libraries/XMCLib/inc\xmc_ccu4.h ****  * Invoke this API before any operations are done on the CCU4 module. Invoked from  XMC_CCU4_Init()
 855:C:/Workspace/DAVE-4.4.2-64Bit/xmc1400-getstarted-optiga-trust-m/Libraries/XMCLib/inc\xmc_ccu4.h ****  *
 856:C:/Workspace/DAVE-4.4.2-64Bit/xmc1400-getstarted-optiga-trust-m/Libraries/XMCLib/inc\xmc_ccu4.h ****  * \par<b>Related APIs:</b><br>
 857:C:/Workspace/DAVE-4.4.2-64Bit/xmc1400-getstarted-optiga-trust-m/Libraries/XMCLib/inc\xmc_ccu4.h ****  * XMC_CCU4_SetModuleClock()<BR> XMC_CCU4_DisableModule()<BR> XMC_CCU4_StartPrescaler().
 858:C:/Workspace/DAVE-4.4.2-64Bit/xmc1400-getstarted-optiga-trust-m/Libraries/XMCLib/inc\xmc_ccu4.h ****  */
 859:C:/Workspace/DAVE-4.4.2-64Bit/xmc1400-getstarted-optiga-trust-m/Libraries/XMCLib/inc\xmc_ccu4.h **** void XMC_CCU4_EnableModule(XMC_CCU4_MODULE_t *const module);
 860:C:/Workspace/DAVE-4.4.2-64Bit/xmc1400-getstarted-optiga-trust-m/Libraries/XMCLib/inc\xmc_ccu4.h **** 
 861:C:/Workspace/DAVE-4.4.2-64Bit/xmc1400-getstarted-optiga-trust-m/Libraries/XMCLib/inc\xmc_ccu4.h **** /**
 862:C:/Workspace/DAVE-4.4.2-64Bit/xmc1400-getstarted-optiga-trust-m/Libraries/XMCLib/inc\xmc_ccu4.h ****  * @param module Constant pointer to CCU4 module
 863:C:/Workspace/DAVE-4.4.2-64Bit/xmc1400-getstarted-optiga-trust-m/Libraries/XMCLib/inc\xmc_ccu4.h ****  * @return <BR>
 864:C:/Workspace/DAVE-4.4.2-64Bit/xmc1400-getstarted-optiga-trust-m/Libraries/XMCLib/inc\xmc_ccu4.h ****  *    None<BR>
 865:C:/Workspace/DAVE-4.4.2-64Bit/xmc1400-getstarted-optiga-trust-m/Libraries/XMCLib/inc\xmc_ccu4.h ****  *
 866:C:/Workspace/DAVE-4.4.2-64Bit/xmc1400-getstarted-optiga-trust-m/Libraries/XMCLib/inc\xmc_ccu4.h ****  * \par<b>Description:</b><br>
 867:C:/Workspace/DAVE-4.4.2-64Bit/xmc1400-getstarted-optiga-trust-m/Libraries/XMCLib/inc\xmc_ccu4.h ****  * Brings the CCU4 module to reset state and enables gating of the clock signal(if applicable depen
 868:C:/Workspace/DAVE-4.4.2-64Bit/xmc1400-getstarted-optiga-trust-m/Libraries/XMCLib/inc\xmc_ccu4.h ****  * on the device being selected).<BR>\n
 869:C:/Workspace/DAVE-4.4.2-64Bit/xmc1400-getstarted-optiga-trust-m/Libraries/XMCLib/inc\xmc_ccu4.h ****  * Invoke this API when a CCU4 module needs to be disabled completely.
 870:C:/Workspace/DAVE-4.4.2-64Bit/xmc1400-getstarted-optiga-trust-m/Libraries/XMCLib/inc\xmc_ccu4.h ****  * Any operation on the CCU4 module will have no effect after this API is called.
 871:C:/Workspace/DAVE-4.4.2-64Bit/xmc1400-getstarted-optiga-trust-m/Libraries/XMCLib/inc\xmc_ccu4.h ****  *
 872:C:/Workspace/DAVE-4.4.2-64Bit/xmc1400-getstarted-optiga-trust-m/Libraries/XMCLib/inc\xmc_ccu4.h ****  * \par<b>Related APIs:</b><br>
 873:C:/Workspace/DAVE-4.4.2-64Bit/xmc1400-getstarted-optiga-trust-m/Libraries/XMCLib/inc\xmc_ccu4.h ****  * XMC_CCU4_EnableModule()<BR> XMC_CCU4_DisableModule().
 874:C:/Workspace/DAVE-4.4.2-64Bit/xmc1400-getstarted-optiga-trust-m/Libraries/XMCLib/inc\xmc_ccu4.h ****  */
 875:C:/Workspace/DAVE-4.4.2-64Bit/xmc1400-getstarted-optiga-trust-m/Libraries/XMCLib/inc\xmc_ccu4.h **** void XMC_CCU4_DisableModule(XMC_CCU4_MODULE_t *const module);
 876:C:/Workspace/DAVE-4.4.2-64Bit/xmc1400-getstarted-optiga-trust-m/Libraries/XMCLib/inc\xmc_ccu4.h **** 
 877:C:/Workspace/DAVE-4.4.2-64Bit/xmc1400-getstarted-optiga-trust-m/Libraries/XMCLib/inc\xmc_ccu4.h **** /**
 878:C:/Workspace/DAVE-4.4.2-64Bit/xmc1400-getstarted-optiga-trust-m/Libraries/XMCLib/inc\xmc_ccu4.h ****  * @param module Constant pointer to CCU4 module
 879:C:/Workspace/DAVE-4.4.2-64Bit/xmc1400-getstarted-optiga-trust-m/Libraries/XMCLib/inc\xmc_ccu4.h ****  * @return <BR>
 880:C:/Workspace/DAVE-4.4.2-64Bit/xmc1400-getstarted-optiga-trust-m/Libraries/XMCLib/inc\xmc_ccu4.h ****  *    None<BR>
 881:C:/Workspace/DAVE-4.4.2-64Bit/xmc1400-getstarted-optiga-trust-m/Libraries/XMCLib/inc\xmc_ccu4.h ****  *
 882:C:/Workspace/DAVE-4.4.2-64Bit/xmc1400-getstarted-optiga-trust-m/Libraries/XMCLib/inc\xmc_ccu4.h ****  * \par<b>Description:</b><br>
 883:C:/Workspace/DAVE-4.4.2-64Bit/xmc1400-getstarted-optiga-trust-m/Libraries/XMCLib/inc\xmc_ccu4.h ****  *  Starts the prescaler and restores clocks to the timer slices, by setting GIDLC.SPRB bit.<BR>\n
 884:C:/Workspace/DAVE-4.4.2-64Bit/xmc1400-getstarted-optiga-trust-m/Libraries/XMCLib/inc\xmc_ccu4.h ****  *  Once the input to the prescaler has been chosen and the prescaler divider of all slices program
 885:C:/Workspace/DAVE-4.4.2-64Bit/xmc1400-getstarted-optiga-trust-m/Libraries/XMCLib/inc\xmc_ccu4.h ****  *  the prescaler itself may be started. Invoke this  API after XMC_CCU4_Init()
 886:C:/Workspace/DAVE-4.4.2-64Bit/xmc1400-getstarted-optiga-trust-m/Libraries/XMCLib/inc\xmc_ccu4.h ****  *  (Mandatory to fully initialize the module).Directly accessed register is GIDLC.
 887:C:/Workspace/DAVE-4.4.2-64Bit/xmc1400-getstarted-optiga-trust-m/Libraries/XMCLib/inc\xmc_ccu4.h ****  *
 888:C:/Workspace/DAVE-4.4.2-64Bit/xmc1400-getstarted-optiga-trust-m/Libraries/XMCLib/inc\xmc_ccu4.h ****  * \par<b>Related APIs:</b><br>
 889:C:/Workspace/DAVE-4.4.2-64Bit/xmc1400-getstarted-optiga-trust-m/Libraries/XMCLib/inc\xmc_ccu4.h ****  * XMC_CCU4_Init()<BR> XMC_CCU4_EnableClock()<BR> XMC_CCU4_DisableClock()<BR> XMC_CCU4_StartPrescal
 890:C:/Workspace/DAVE-4.4.2-64Bit/xmc1400-getstarted-optiga-trust-m/Libraries/XMCLib/inc\xmc_ccu4.h ****  * XMC_CCU4_StopPrescaler().
 891:C:/Workspace/DAVE-4.4.2-64Bit/xmc1400-getstarted-optiga-trust-m/Libraries/XMCLib/inc\xmc_ccu4.h ****  */
 892:C:/Workspace/DAVE-4.4.2-64Bit/xmc1400-getstarted-optiga-trust-m/Libraries/XMCLib/inc\xmc_ccu4.h **** __STATIC_INLINE void XMC_CCU4_StartPrescaler(XMC_CCU4_MODULE_t *const module)
 893:C:/Workspace/DAVE-4.4.2-64Bit/xmc1400-getstarted-optiga-trust-m/Libraries/XMCLib/inc\xmc_ccu4.h **** {
 894:C:/Workspace/DAVE-4.4.2-64Bit/xmc1400-getstarted-optiga-trust-m/Libraries/XMCLib/inc\xmc_ccu4.h ****   XMC_ASSERT("XMC_CCU4_StartPrescaler:Invalid Module Pointer", XMC_CCU4_IsValidModule(module));
 895:C:/Workspace/DAVE-4.4.2-64Bit/xmc1400-getstarted-optiga-trust-m/Libraries/XMCLib/inc\xmc_ccu4.h ****   module->GIDLC = (uint32_t) CCU4_GIDLC_SPRB_Msk;
 175              	 .loc 2 895 0
 176 000a 8023     	 mov r3,#128
 177 000c 5B00     	 lsl r3,r3,#1
 178 000e E360     	 str r3,[r4,#12]
 179              	.LBE15:
 180              	.LBE14:
 319:../Libraries/XMCLib/src/xmc_ccu4.c ****   uint32_t gctrl;
 320:../Libraries/XMCLib/src/xmc_ccu4.c ****   
 321:../Libraries/XMCLib/src/xmc_ccu4.c ****   XMC_ASSERT("XMC_CCU4_Init:Invalid module pointer", XMC_CCU4_IsValidModule(module));
 322:../Libraries/XMCLib/src/xmc_ccu4.c ****   XMC_ASSERT("XMC_CCU4_Init:Invalid mcs action", XMC_CCU4_SLICE_CHECK_MCS_ACTION(mcs_action));
 323:../Libraries/XMCLib/src/xmc_ccu4.c **** 
 324:../Libraries/XMCLib/src/xmc_ccu4.c ****   /* Enable CCU4 module */
 325:../Libraries/XMCLib/src/xmc_ccu4.c ****   XMC_CCU4_EnableModule(module);
 326:../Libraries/XMCLib/src/xmc_ccu4.c ****   /* Start the prescaler */
 327:../Libraries/XMCLib/src/xmc_ccu4.c ****   XMC_CCU4_StartPrescaler(module);
 328:../Libraries/XMCLib/src/xmc_ccu4.c ****   
 329:../Libraries/XMCLib/src/xmc_ccu4.c ****   gctrl = module->GCTRL;
 181              	 .loc 1 329 0
 182 0010 2168     	 ldr r1,[r4]
 183              	.LVL14:
 330:../Libraries/XMCLib/src/xmc_ccu4.c ****   gctrl &= ~((uint32_t) CCU4_GCTRL_MSDE_Msk);
 184              	 .loc 1 330 0
 185 0012 034B     	 ldr r3,.L16
 331:../Libraries/XMCLib/src/xmc_ccu4.c ****   gctrl |= ((uint32_t) mcs_action) << CCU4_GCTRL_MSDE_Pos;
 332:../Libraries/XMCLib/src/xmc_ccu4.c ****   
 333:../Libraries/XMCLib/src/xmc_ccu4.c ****   module->GCTRL = gctrl;
 334:../Libraries/XMCLib/src/xmc_ccu4.c **** }
 186              	 .loc 1 334 0
 187              	 
 330:../Libraries/XMCLib/src/xmc_ccu4.c ****   gctrl &= ~((uint32_t) CCU4_GCTRL_MSDE_Msk);
 188              	 .loc 1 330 0
 189 0014 0B40     	 and r3,r1
 190              	.LVL15:
 331:../Libraries/XMCLib/src/xmc_ccu4.c ****   gctrl |= ((uint32_t) mcs_action) << CCU4_GCTRL_MSDE_Pos;
 191              	 .loc 1 331 0
 192 0016 A903     	 lsl r1,r5,#14
 193 0018 1943     	 orr r1,r3
 194              	.LVL16:
 333:../Libraries/XMCLib/src/xmc_ccu4.c **** }
 195              	 .loc 1 333 0
 196 001a 2160     	 str r1,[r4]
 197              	.LVL17:
 198              	 .loc 1 334 0
 199 001c 38BD     	 pop {r3,r4,r5,pc}
 200              	.L17:
 201 001e C046     	 .align 2
 202              	.L16:
 203 0020 FF3FFFFF 	 .word -49153
 204              	 .cfi_endproc
 205              	.LFE122:
 207              	 .section .text.XMC_CCU4_SetModuleClock,"ax",%progbits
 208              	 .align 1
 209              	 .global XMC_CCU4_SetModuleClock
 210              	 .code 16
 211              	 .thumb_func
 213              	XMC_CCU4_SetModuleClock:
 214              	.LFB123:
 335:../Libraries/XMCLib/src/xmc_ccu4.c **** 
 336:../Libraries/XMCLib/src/xmc_ccu4.c **** /* API to select CCU4 module clock */
 337:../Libraries/XMCLib/src/xmc_ccu4.c **** void XMC_CCU4_SetModuleClock(XMC_CCU4_MODULE_t *const module, const XMC_CCU4_CLOCK_t clock)
 338:../Libraries/XMCLib/src/xmc_ccu4.c **** {
 215              	 .loc 1 338 0
 216              	 .cfi_startproc
 217              	.LVL18:
 339:../Libraries/XMCLib/src/xmc_ccu4.c ****   uint32_t gctrl;
 340:../Libraries/XMCLib/src/xmc_ccu4.c **** 
 341:../Libraries/XMCLib/src/xmc_ccu4.c ****   XMC_ASSERT("XMC_CCU4_SetModuleClock:Invalid Module Pointer", XMC_CCU4_IsValidModule(module));
 342:../Libraries/XMCLib/src/xmc_ccu4.c ****   XMC_ASSERT("XMC_CCU4_SetModuleClock:Invalid Module Clock", XMC_CCU4_SLICE_CHECK_CLOCK(clock));
 343:../Libraries/XMCLib/src/xmc_ccu4.c **** 
 344:../Libraries/XMCLib/src/xmc_ccu4.c ****   gctrl = module->GCTRL;
 345:../Libraries/XMCLib/src/xmc_ccu4.c ****   gctrl &= ~((uint32_t) CCU4_GCTRL_PCIS_Msk);
 218              	 .loc 1 345 0
 219 0000 3022     	 mov r2,#48
 344:../Libraries/XMCLib/src/xmc_ccu4.c ****   gctrl &= ~((uint32_t) CCU4_GCTRL_PCIS_Msk);
 220              	 .loc 1 344 0
 221 0002 0368     	 ldr r3,[r0]
 222              	.LVL19:
 346:../Libraries/XMCLib/src/xmc_ccu4.c ****   gctrl |= ((uint32_t) clock) << CCU4_GCTRL_PCIS_Pos;
 223              	 .loc 1 346 0
 224 0004 0901     	 lsl r1,r1,#4
 225              	.LVL20:
 345:../Libraries/XMCLib/src/xmc_ccu4.c ****   gctrl |= ((uint32_t) clock) << CCU4_GCTRL_PCIS_Pos;
 226              	 .loc 1 345 0
 227 0006 9343     	 bic r3,r2
 228              	.LVL21:
 229              	 .loc 1 346 0
 230 0008 1943     	 orr r1,r3
 231              	.LVL22:
 347:../Libraries/XMCLib/src/xmc_ccu4.c ****   
 348:../Libraries/XMCLib/src/xmc_ccu4.c ****   module->GCTRL = gctrl;
 232              	 .loc 1 348 0
 233 000a 0160     	 str r1,[r0]
 349:../Libraries/XMCLib/src/xmc_ccu4.c **** }
 234              	 .loc 1 349 0
 235              	 
 236 000c 7047     	 bx lr
 237              	 .cfi_endproc
 238              	.LFE123:
 240              	 .section .text.XMC_CCU4_SetMultiChannelShadowTransferMode,"ax",%progbits
 241              	 .align 1
 242              	 .global XMC_CCU4_SetMultiChannelShadowTransferMode
 243              	 .code 16
 244              	 .thumb_func
 246              	XMC_CCU4_SetMultiChannelShadowTransferMode:
 247              	.LFB124:
 350:../Libraries/XMCLib/src/xmc_ccu4.c **** 
 351:../Libraries/XMCLib/src/xmc_ccu4.c **** /* API to configure the multichannel shadow transfer request via SW and via the CCU4x.MCSS input. *
 352:../Libraries/XMCLib/src/xmc_ccu4.c **** void XMC_CCU4_SetMultiChannelShadowTransferMode(XMC_CCU4_MODULE_t *const module, const uint32_t sli
 353:../Libraries/XMCLib/src/xmc_ccu4.c **** {
 248              	 .loc 1 353 0
 249              	 .cfi_startproc
 250              	.LVL23:
 354:../Libraries/XMCLib/src/xmc_ccu4.c ****   uint32_t gctrl;
 355:../Libraries/XMCLib/src/xmc_ccu4.c **** 
 356:../Libraries/XMCLib/src/xmc_ccu4.c ****   XMC_ASSERT("XMC_CCU4_SetMultiChannelShadowTransferMode:Invalid module Pointer", XMC_CCU4_IsValidM
 357:../Libraries/XMCLib/src/xmc_ccu4.c ****   
 358:../Libraries/XMCLib/src/xmc_ccu4.c ****   gctrl = module->GCTRL;
 251              	 .loc 1 358 0
 252 0000 0368     	 ldr r3,[r0]
 253              	.LVL24:
 359:../Libraries/XMCLib/src/xmc_ccu4.c ****   gctrl &= ~((uint32_t)slice_mode_msk >> 16U);
 254              	 .loc 1 359 0
 255 0002 0A0C     	 lsr r2,r1,#16
 256 0004 9343     	 bic r3,r2
 257              	.LVL25:
 360:../Libraries/XMCLib/src/xmc_ccu4.c ****   gctrl |= ((uint32_t)slice_mode_msk & 0xFFFFU);
 258              	 .loc 1 360 0
 259 0006 89B2     	 uxth r1,r1
 260              	.LVL26:
 261 0008 1943     	 orr r1,r3
 262              	.LVL27:
 361:../Libraries/XMCLib/src/xmc_ccu4.c ****   module->GCTRL = gctrl;
 263              	 .loc 1 361 0
 264 000a 0160     	 str r1,[r0]
 362:../Libraries/XMCLib/src/xmc_ccu4.c **** }
 265              	 .loc 1 362 0
 266              	 
 267 000c 7047     	 bx lr
 268              	 .cfi_endproc
 269              	.LFE124:
 271              	 .section .text.XMC_CCU4_SLICE_CompareInit,"ax",%progbits
 272              	 .align 1
 273              	 .global XMC_CCU4_SLICE_CompareInit
 274              	 .code 16
 275              	 .thumb_func
 277              	XMC_CCU4_SLICE_CompareInit:
 278              	.LFB125:
 363:../Libraries/XMCLib/src/xmc_ccu4.c **** 
 364:../Libraries/XMCLib/src/xmc_ccu4.c **** /* API to configure CC4 Slice as Timer */
 365:../Libraries/XMCLib/src/xmc_ccu4.c **** void XMC_CCU4_SLICE_CompareInit(XMC_CCU4_SLICE_t *const slice,
 366:../Libraries/XMCLib/src/xmc_ccu4.c ****                                 const XMC_CCU4_SLICE_COMPARE_CONFIG_t *const compare_init)
 367:../Libraries/XMCLib/src/xmc_ccu4.c **** {
 279              	 .loc 1 367 0
 280              	 .cfi_startproc
 281              	.LVL28:
 368:../Libraries/XMCLib/src/xmc_ccu4.c ****   XMC_ASSERT("XMC_CCU4_SLICE_CompareInit:Invalid Slice Pointer", XMC_CCU4_IsValidSlice(slice));
 369:../Libraries/XMCLib/src/xmc_ccu4.c ****   XMC_ASSERT("XMC_CCU4_SLICE_CompareInit:Compare Init Pointer is NULL",
 370:../Libraries/XMCLib/src/xmc_ccu4.c ****              (XMC_CCU4_SLICE_COMPARE_CONFIG_t *) NULL != compare_init);
 371:../Libraries/XMCLib/src/xmc_ccu4.c **** 
 372:../Libraries/XMCLib/src/xmc_ccu4.c ****   /* Program the timer mode */
 373:../Libraries/XMCLib/src/xmc_ccu4.c ****   slice->TC = compare_init->tc;
 282              	 .loc 1 373 0
 283 0000 0B68     	 ldr r3,[r1]
 374:../Libraries/XMCLib/src/xmc_ccu4.c ****   /* Enable the timer concatenation */
 375:../Libraries/XMCLib/src/xmc_ccu4.c ****   slice->CMC = ((uint32_t) compare_init->timer_concatenation << CCU4_CC4_CMC_TCE_Pos);
 376:../Libraries/XMCLib/src/xmc_ccu4.c ****   /* Program initial prescaler divider value */
 377:../Libraries/XMCLib/src/xmc_ccu4.c ****   slice->PSC = (uint32_t) compare_init->prescaler_initval;
 378:../Libraries/XMCLib/src/xmc_ccu4.c ****   /* Program the dither compare value */
 379:../Libraries/XMCLib/src/xmc_ccu4.c ****   slice->DITS = (uint32_t) compare_init->dither_limit;
 380:../Libraries/XMCLib/src/xmc_ccu4.c ****   /* Program timer output passive level */
 381:../Libraries/XMCLib/src/xmc_ccu4.c ****   slice->PSL = (uint32_t) compare_init->passive_level;
 382:../Libraries/XMCLib/src/xmc_ccu4.c ****   /* Program floating prescaler compare value */
 383:../Libraries/XMCLib/src/xmc_ccu4.c ****   slice->FPCS = (uint32_t) compare_init->float_limit;
 384:../Libraries/XMCLib/src/xmc_ccu4.c **** }
 284              	 .loc 1 384 0
 285              	 
 373:../Libraries/XMCLib/src/xmc_ccu4.c ****   /* Enable the timer concatenation */
 286              	 .loc 1 373 0
 287 0002 4361     	 str r3,[r0,#20]
 375:../Libraries/XMCLib/src/xmc_ccu4.c ****   /* Program initial prescaler divider value */
 288              	 .loc 1 375 0
 289 0004 4B79     	 ldrb r3,[r1,#5]
 290 0006 9B06     	 lsl r3,r3,#26
 291 0008 DB0F     	 lsr r3,r3,#31
 292 000a 1B05     	 lsl r3,r3,#20
 293 000c 4360     	 str r3,[r0,#4]
 377:../Libraries/XMCLib/src/xmc_ccu4.c ****   /* Program the dither compare value */
 294              	 .loc 1 377 0
 295 000e 0B79     	 ldrb r3,[r1,#4]
 296 0010 1B07     	 lsl r3,r3,#28
 297 0012 1B0F     	 lsr r3,r3,#28
 298 0014 4362     	 str r3,[r0,#36]
 379:../Libraries/XMCLib/src/xmc_ccu4.c ****   /* Program timer output passive level */
 299              	 .loc 1 379 0
 300 0016 4B79     	 ldrb r3,[r1,#5]
 301 0018 1B07     	 lsl r3,r3,#28
 302 001a 1B0F     	 lsr r3,r3,#28
 303 001c 0362     	 str r3,[r0,#32]
 381:../Libraries/XMCLib/src/xmc_ccu4.c ****   /* Program floating prescaler compare value */
 304              	 .loc 1 381 0
 305 001e 4B79     	 ldrb r3,[r1,#5]
 306 0020 DB06     	 lsl r3,r3,#27
 307 0022 DB0F     	 lsr r3,r3,#31
 308 0024 8361     	 str r3,[r0,#24]
 383:../Libraries/XMCLib/src/xmc_ccu4.c **** }
 309              	 .loc 1 383 0
 310 0026 0B79     	 ldrb r3,[r1,#4]
 311 0028 1B09     	 lsr r3,r3,#4
 312 002a C362     	 str r3,[r0,#44]
 313              	 .loc 1 384 0
 314 002c 7047     	 bx lr
 315              	 .cfi_endproc
 316              	.LFE125:
 318              	 .section .text.XMC_CCU4_SLICE_CaptureInit,"ax",%progbits
 319              	 .align 1
 320              	 .global XMC_CCU4_SLICE_CaptureInit
 321              	 .code 16
 322              	 .thumb_func
 324              	XMC_CCU4_SLICE_CaptureInit:
 325              	.LFB126:
 385:../Libraries/XMCLib/src/xmc_ccu4.c **** 
 386:../Libraries/XMCLib/src/xmc_ccu4.c **** /* API to configure CC4 Slice for Capture */
 387:../Libraries/XMCLib/src/xmc_ccu4.c **** void XMC_CCU4_SLICE_CaptureInit(XMC_CCU4_SLICE_t *const slice,
 388:../Libraries/XMCLib/src/xmc_ccu4.c ****                             const XMC_CCU4_SLICE_CAPTURE_CONFIG_t *const capture_init)
 389:../Libraries/XMCLib/src/xmc_ccu4.c **** {
 326              	 .loc 1 389 0
 327              	 .cfi_startproc
 328              	.LVL29:
 390:../Libraries/XMCLib/src/xmc_ccu4.c ****   XMC_ASSERT("XMC_CCU4_SLICE_CaptureInit:Invalid Slice Pointer", XMC_CCU4_IsValidSlice(slice));
 391:../Libraries/XMCLib/src/xmc_ccu4.c ****   XMC_ASSERT("XMC_CCU4_SLICE_CaptureInit:Capture Init Pointer is NULL",
 392:../Libraries/XMCLib/src/xmc_ccu4.c ****              (XMC_CCU4_SLICE_CAPTURE_CONFIG_t *) NULL != capture_init);
 393:../Libraries/XMCLib/src/xmc_ccu4.c **** 
 394:../Libraries/XMCLib/src/xmc_ccu4.c ****   /* Program the capture mode */
 395:../Libraries/XMCLib/src/xmc_ccu4.c ****   slice->TC = capture_init->tc;
 329              	 .loc 1 395 0
 330 0000 0B68     	 ldr r3,[r1]
 396:../Libraries/XMCLib/src/xmc_ccu4.c ****   /* Enable the timer concatenation */
 397:../Libraries/XMCLib/src/xmc_ccu4.c ****   slice->CMC = ((uint32_t)capture_init->timer_concatenation << CCU4_CC4_CMC_TCE_Pos);
 398:../Libraries/XMCLib/src/xmc_ccu4.c ****   /* Program initial prescaler divider value */
 399:../Libraries/XMCLib/src/xmc_ccu4.c ****   slice->PSC = (uint32_t) capture_init->prescaler_initval;
 400:../Libraries/XMCLib/src/xmc_ccu4.c ****   /* Program initial floating prescaler compare value */
 401:../Libraries/XMCLib/src/xmc_ccu4.c ****   slice->FPCS = (uint32_t) capture_init->float_limit;
 402:../Libraries/XMCLib/src/xmc_ccu4.c **** }
 331              	 .loc 1 402 0
 332              	 
 395:../Libraries/XMCLib/src/xmc_ccu4.c ****   /* Enable the timer concatenation */
 333              	 .loc 1 395 0
 334 0002 4361     	 str r3,[r0,#20]
 397:../Libraries/XMCLib/src/xmc_ccu4.c ****   /* Program initial prescaler divider value */
 335              	 .loc 1 397 0
 336 0004 4B79     	 ldrb r3,[r1,#5]
 337 0006 DB07     	 lsl r3,r3,#31
 338 0008 DB0F     	 lsr r3,r3,#31
 339 000a DBB2     	 uxtb r3,r3
 340 000c 1B05     	 lsl r3,r3,#20
 341 000e 4360     	 str r3,[r0,#4]
 399:../Libraries/XMCLib/src/xmc_ccu4.c ****   /* Program initial floating prescaler compare value */
 342              	 .loc 1 399 0
 343 0010 0B79     	 ldrb r3,[r1,#4]
 344 0012 1B07     	 lsl r3,r3,#28
 345 0014 1B0F     	 lsr r3,r3,#28
 346 0016 4362     	 str r3,[r0,#36]
 401:../Libraries/XMCLib/src/xmc_ccu4.c **** }
 347              	 .loc 1 401 0
 348 0018 0B79     	 ldrb r3,[r1,#4]
 349 001a 1B09     	 lsr r3,r3,#4
 350 001c C362     	 str r3,[r0,#44]
 351              	 .loc 1 402 0
 352 001e 7047     	 bx lr
 353              	 .cfi_endproc
 354              	.LFE126:
 356              	 .section .text.XMC_CCU4_SLICE_StartConfig,"ax",%progbits
 357              	 .align 1
 358              	 .global XMC_CCU4_SLICE_StartConfig
 359              	 .code 16
 360              	 .thumb_func
 362              	XMC_CCU4_SLICE_StartConfig:
 363              	.LFB127:
 403:../Libraries/XMCLib/src/xmc_ccu4.c **** 
 404:../Libraries/XMCLib/src/xmc_ccu4.c **** 
 405:../Libraries/XMCLib/src/xmc_ccu4.c **** /* API to configure the Start trigger function of a slice */
 406:../Libraries/XMCLib/src/xmc_ccu4.c **** void XMC_CCU4_SLICE_StartConfig(XMC_CCU4_SLICE_t *const slice,
 407:../Libraries/XMCLib/src/xmc_ccu4.c ****                             const XMC_CCU4_SLICE_EVENT_t event,
 408:../Libraries/XMCLib/src/xmc_ccu4.c ****                                 const XMC_CCU4_SLICE_START_MODE_t start_mode)
 409:../Libraries/XMCLib/src/xmc_ccu4.c **** {
 364              	 .loc 1 409 0
 365              	 .cfi_startproc
 366              	.LVL30:
 367 0000 10B5     	 push {r4,lr}
 368              	.LCFI4:
 369              	 .cfi_def_cfa_offset 8
 370              	 .cfi_offset 4,-8
 371              	 .cfi_offset 14,-4
 410:../Libraries/XMCLib/src/xmc_ccu4.c ****   uint32_t cmc;
 411:../Libraries/XMCLib/src/xmc_ccu4.c ****   uint32_t tc;
 412:../Libraries/XMCLib/src/xmc_ccu4.c ****   
 413:../Libraries/XMCLib/src/xmc_ccu4.c ****   XMC_ASSERT("XMC_CCU4_SLICE_StartConfig:Invalid Slice Pointer", XMC_CCU4_IsValidSlice(slice));
 414:../Libraries/XMCLib/src/xmc_ccu4.c ****   XMC_ASSERT("XMC_CCU4_SLICE_StartConfig:Invalid Event ID", XMC_CCU4_SLICE_CHECK_EVENT_ID(event));
 415:../Libraries/XMCLib/src/xmc_ccu4.c ****   XMC_ASSERT("XMC_CCU4_SLICE_StartConfig:Invalid Start Mode", 
 416:../Libraries/XMCLib/src/xmc_ccu4.c ****              ((start_mode == XMC_CCU4_SLICE_START_MODE_TIMER_START_CLEAR) ||\
 417:../Libraries/XMCLib/src/xmc_ccu4.c ****               (start_mode == XMC_CCU4_SLICE_START_MODE_TIMER_START)));
 418:../Libraries/XMCLib/src/xmc_ccu4.c ****   /* First, Bind the event with the stop function */
 419:../Libraries/XMCLib/src/xmc_ccu4.c ****   cmc = slice->CMC;
 420:../Libraries/XMCLib/src/xmc_ccu4.c ****   cmc &= ~((uint32_t) CCU4_CC4_CMC_STRTS_Msk);
 372              	 .loc 1 420 0
 373 0002 0324     	 mov r4,#3
 419:../Libraries/XMCLib/src/xmc_ccu4.c ****   cmc &= ~((uint32_t) CCU4_CC4_CMC_STRTS_Msk);
 374              	 .loc 1 419 0
 375 0004 4368     	 ldr r3,[r0,#4]
 376              	.LVL31:
 377              	 .loc 1 420 0
 378 0006 A343     	 bic r3,r4
 379              	.LVL32:
 421:../Libraries/XMCLib/src/xmc_ccu4.c ****   cmc |= ((uint32_t) event) << CCU4_CC4_CMC_STRTS_Pos;
 380              	 .loc 1 421 0
 381 0008 1943     	 orr r1,r3
 382              	.LVL33:
 422:../Libraries/XMCLib/src/xmc_ccu4.c **** 
 423:../Libraries/XMCLib/src/xmc_ccu4.c ****   slice->CMC = cmc;
 383              	 .loc 1 423 0
 384 000a 4160     	 str r1,[r0,#4]
 424:../Libraries/XMCLib/src/xmc_ccu4.c ****   
 425:../Libraries/XMCLib/src/xmc_ccu4.c ****   tc  = slice->TC;
 385              	 .loc 1 425 0
 386 000c 4369     	 ldr r3,[r0,#20]
 387              	.LVL34:
 426:../Libraries/XMCLib/src/xmc_ccu4.c ****   /* Next, Configure the start mode */
 427:../Libraries/XMCLib/src/xmc_ccu4.c ****   if (start_mode == XMC_CCU4_SLICE_START_MODE_TIMER_START_CLEAR)
 388              	 .loc 1 427 0
 389 000e 012A     	 cmp r2,#1
 390 0010 03D1     	 bne .L23
 428:../Libraries/XMCLib/src/xmc_ccu4.c ****   {
 429:../Libraries/XMCLib/src/xmc_ccu4.c ****     tc |= (uint32_t)CCU4_CC4_TC_STRM_Msk;
 391              	 .loc 1 429 0
 392 0012 8022     	 mov r2,#128
 393              	.LVL35:
 394 0014 D200     	 lsl r2,r2,#3
 395 0016 1343     	 orr r3,r2
 396              	.LVL36:
 397 0018 01E0     	 b .L24
 398              	.LVL37:
 399              	.L23:
 430:../Libraries/XMCLib/src/xmc_ccu4.c ****   }
 431:../Libraries/XMCLib/src/xmc_ccu4.c ****   else
 432:../Libraries/XMCLib/src/xmc_ccu4.c ****   {
 433:../Libraries/XMCLib/src/xmc_ccu4.c ****     tc &= ~((uint32_t)CCU4_CC4_TC_STRM_Msk);
 400              	 .loc 1 433 0
 401 001a 024A     	 ldr r2,.L25
 402              	.LVL38:
 403 001c 1340     	 and r3,r2
 404              	.LVL39:
 405              	.L24:
 434:../Libraries/XMCLib/src/xmc_ccu4.c ****   }
 435:../Libraries/XMCLib/src/xmc_ccu4.c ****   
 436:../Libraries/XMCLib/src/xmc_ccu4.c ****   slice->TC = tc;
 406              	 .loc 1 436 0
 407 001e 4361     	 str r3,[r0,#20]
 437:../Libraries/XMCLib/src/xmc_ccu4.c **** }
 408              	 .loc 1 437 0
 409              	 
 410 0020 10BD     	 pop {r4,pc}
 411              	.L26:
 412 0022 C046     	 .align 2
 413              	.L25:
 414 0024 FFFBFFFF 	 .word -1025
 415              	 .cfi_endproc
 416              	.LFE127:
 418              	 .section .text.XMC_CCU4_SLICE_StopConfig,"ax",%progbits
 419              	 .align 1
 420              	 .global XMC_CCU4_SLICE_StopConfig
 421              	 .code 16
 422              	 .thumb_func
 424              	XMC_CCU4_SLICE_StopConfig:
 425              	.LFB128:
 438:../Libraries/XMCLib/src/xmc_ccu4.c **** 
 439:../Libraries/XMCLib/src/xmc_ccu4.c **** /* API to configure the Stop trigger function of a slice */
 440:../Libraries/XMCLib/src/xmc_ccu4.c **** void XMC_CCU4_SLICE_StopConfig(XMC_CCU4_SLICE_t *const slice,
 441:../Libraries/XMCLib/src/xmc_ccu4.c ****                            const XMC_CCU4_SLICE_EVENT_t event,
 442:../Libraries/XMCLib/src/xmc_ccu4.c ****                                const XMC_CCU4_SLICE_END_MODE_t end_mode)
 443:../Libraries/XMCLib/src/xmc_ccu4.c **** {
 426              	 .loc 1 443 0
 427              	 .cfi_startproc
 428              	.LVL40:
 429 0000 10B5     	 push {r4,lr}
 430              	.LCFI5:
 431              	 .cfi_def_cfa_offset 8
 432              	 .cfi_offset 4,-8
 433              	 .cfi_offset 14,-4
 444:../Libraries/XMCLib/src/xmc_ccu4.c ****   uint32_t cmc;
 445:../Libraries/XMCLib/src/xmc_ccu4.c ****   uint32_t tc;
 446:../Libraries/XMCLib/src/xmc_ccu4.c ****   
 447:../Libraries/XMCLib/src/xmc_ccu4.c ****   XMC_ASSERT("XMC_CCU4_SLICE_StopConfig:Invalid Slice Pointer", XMC_CCU4_IsValidSlice(slice));
 448:../Libraries/XMCLib/src/xmc_ccu4.c ****   XMC_ASSERT("XMC_CCU4_SLICE_StopConfig:Invalid Event ID", XMC_CCU4_SLICE_CHECK_EVENT_ID(event));
 449:../Libraries/XMCLib/src/xmc_ccu4.c ****   XMC_ASSERT("XMC_CCU4_SLICE_StopConfig:Invalid Start Mode", XMC_CCU4_CHECK_END_MODE(end_mode));
 450:../Libraries/XMCLib/src/xmc_ccu4.c ****   
 451:../Libraries/XMCLib/src/xmc_ccu4.c ****   /* First, Bind the event with the stop function */
 452:../Libraries/XMCLib/src/xmc_ccu4.c ****   cmc = slice->CMC;
 453:../Libraries/XMCLib/src/xmc_ccu4.c ****   cmc &= ~((uint32_t) CCU4_CC4_CMC_ENDS_Msk);
 434              	 .loc 1 453 0
 435 0002 0C24     	 mov r4,#12
 452:../Libraries/XMCLib/src/xmc_ccu4.c ****   cmc &= ~((uint32_t) CCU4_CC4_CMC_ENDS_Msk);
 436              	 .loc 1 452 0
 437 0004 4368     	 ldr r3,[r0,#4]
 438              	.LVL41:
 454:../Libraries/XMCLib/src/xmc_ccu4.c ****   cmc |= ((uint32_t) event) << CCU4_CC4_CMC_ENDS_Pos;
 439              	 .loc 1 454 0
 440 0006 8900     	 lsl r1,r1,#2
 441              	.LVL42:
 453:../Libraries/XMCLib/src/xmc_ccu4.c ****   cmc |= ((uint32_t) event) << CCU4_CC4_CMC_ENDS_Pos;
 442              	 .loc 1 453 0
 443 0008 A343     	 bic r3,r4
 444              	.LVL43:
 445              	 .loc 1 454 0
 446 000a 1943     	 orr r1,r3
 447              	.LVL44:
 455:../Libraries/XMCLib/src/xmc_ccu4.c **** 
 456:../Libraries/XMCLib/src/xmc_ccu4.c ****   slice->CMC = cmc;
 448              	 .loc 1 456 0
 449 000c 4160     	 str r1,[r0,#4]
 457:../Libraries/XMCLib/src/xmc_ccu4.c ****   
 458:../Libraries/XMCLib/src/xmc_ccu4.c ****   /* Next, Configure the stop mode */
 459:../Libraries/XMCLib/src/xmc_ccu4.c ****   tc = slice->TC;
 450              	 .loc 1 459 0
 451 000e 4169     	 ldr r1,[r0,#20]
 452              	.LVL45:
 460:../Libraries/XMCLib/src/xmc_ccu4.c ****   tc &= ~((uint32_t) CCU4_CC4_TC_ENDM_Msk);
 453              	 .loc 1 460 0
 454 0010 024B     	 ldr r3,.L28
 461:../Libraries/XMCLib/src/xmc_ccu4.c ****   tc |= ((uint32_t) end_mode) << CCU4_CC4_TC_ENDM_Pos;
 455              	 .loc 1 461 0
 456 0012 1202     	 lsl r2,r2,#8
 457              	.LVL46:
 460:../Libraries/XMCLib/src/xmc_ccu4.c ****   tc &= ~((uint32_t) CCU4_CC4_TC_ENDM_Msk);
 458              	 .loc 1 460 0
 459 0014 0B40     	 and r3,r1
 460              	.LVL47:
 461              	 .loc 1 461 0
 462 0016 1A43     	 orr r2,r3
 463              	.LVL48:
 462:../Libraries/XMCLib/src/xmc_ccu4.c **** 
 463:../Libraries/XMCLib/src/xmc_ccu4.c ****   slice->TC = tc;
 464              	 .loc 1 463 0
 465 0018 4261     	 str r2,[r0,#20]
 466              	.LVL49:
 464:../Libraries/XMCLib/src/xmc_ccu4.c **** }
 467              	 .loc 1 464 0
 468              	 
 469 001a 10BD     	 pop {r4,pc}
 470              	.L29:
 471              	 .align 2
 472              	.L28:
 473 001c FFFCFFFF 	 .word -769
 474              	 .cfi_endproc
 475              	.LFE128:
 477              	 .section .text.XMC_CCU4_SLICE_LoadConfig,"ax",%progbits
 478              	 .align 1
 479              	 .global XMC_CCU4_SLICE_LoadConfig
 480              	 .code 16
 481              	 .thumb_func
 483              	XMC_CCU4_SLICE_LoadConfig:
 484              	.LFB129:
 465:../Libraries/XMCLib/src/xmc_ccu4.c **** 
 466:../Libraries/XMCLib/src/xmc_ccu4.c **** /* API to configure the Load trigger function of a slice */
 467:../Libraries/XMCLib/src/xmc_ccu4.c **** void XMC_CCU4_SLICE_LoadConfig(XMC_CCU4_SLICE_t *const slice, const XMC_CCU4_SLICE_EVENT_t event)
 468:../Libraries/XMCLib/src/xmc_ccu4.c **** {
 485              	 .loc 1 468 0
 486              	 .cfi_startproc
 487              	.LVL50:
 469:../Libraries/XMCLib/src/xmc_ccu4.c ****   uint32_t cmc;
 470:../Libraries/XMCLib/src/xmc_ccu4.c ****   
 471:../Libraries/XMCLib/src/xmc_ccu4.c ****   XMC_ASSERT("XMC_CCU4_SLICE_LoadConfig:Invalid Slice Pointer", XMC_CCU4_IsValidSlice(slice));
 472:../Libraries/XMCLib/src/xmc_ccu4.c ****   XMC_ASSERT("XMC_CCU4_SLICE_LoadConfig:Invalid Event ID", XMC_CCU4_SLICE_CHECK_EVENT_ID(event));
 473:../Libraries/XMCLib/src/xmc_ccu4.c ****   
 474:../Libraries/XMCLib/src/xmc_ccu4.c ****   /* Bind the event with the load function */
 475:../Libraries/XMCLib/src/xmc_ccu4.c ****   cmc = slice->CMC;
 488              	 .loc 1 475 0
 489 0000 4268     	 ldr r2,[r0,#4]
 490              	.LVL51:
 476:../Libraries/XMCLib/src/xmc_ccu4.c ****   cmc &= ~((uint32_t) CCU4_CC4_CMC_LDS_Msk);
 491              	 .loc 1 476 0
 492 0002 034B     	 ldr r3,.L31
 477:../Libraries/XMCLib/src/xmc_ccu4.c ****   cmc |= ((uint32_t) event) << CCU4_CC4_CMC_LDS_Pos;
 493              	 .loc 1 477 0
 494 0004 0903     	 lsl r1,r1,#12
 495              	.LVL52:
 476:../Libraries/XMCLib/src/xmc_ccu4.c ****   cmc &= ~((uint32_t) CCU4_CC4_CMC_LDS_Msk);
 496              	 .loc 1 476 0
 497 0006 1340     	 and r3,r2
 498              	.LVL53:
 499              	 .loc 1 477 0
 500 0008 1943     	 orr r1,r3
 501              	.LVL54:
 478:../Libraries/XMCLib/src/xmc_ccu4.c **** 
 479:../Libraries/XMCLib/src/xmc_ccu4.c ****   slice->CMC = cmc;
 502              	 .loc 1 479 0
 503 000a 4160     	 str r1,[r0,#4]
 480:../Libraries/XMCLib/src/xmc_ccu4.c **** }
 504              	 .loc 1 480 0
 505              	 
 506 000c 7047     	 bx lr
 507              	.L32:
 508 000e C046     	 .align 2
 509              	.L31:
 510 0010 FFCFFFFF 	 .word -12289
 511              	 .cfi_endproc
 512              	.LFE129:
 514              	 .section .text.XMC_CCU4_SLICE_ModulationConfig,"ax",%progbits
 515              	 .align 1
 516              	 .global XMC_CCU4_SLICE_ModulationConfig
 517              	 .code 16
 518              	 .thumb_func
 520              	XMC_CCU4_SLICE_ModulationConfig:
 521              	.LFB130:
 481:../Libraries/XMCLib/src/xmc_ccu4.c **** 
 482:../Libraries/XMCLib/src/xmc_ccu4.c **** /* API to configure the slice modulation function */
 483:../Libraries/XMCLib/src/xmc_ccu4.c **** void XMC_CCU4_SLICE_ModulationConfig(XMC_CCU4_SLICE_t *const slice,
 484:../Libraries/XMCLib/src/xmc_ccu4.c ****                                      const XMC_CCU4_SLICE_EVENT_t event,
 485:../Libraries/XMCLib/src/xmc_ccu4.c ****                                      const XMC_CCU4_SLICE_MODULATION_MODE_t mod_mode,
 486:../Libraries/XMCLib/src/xmc_ccu4.c ****                                      const bool synch_with_pwm)
 487:../Libraries/XMCLib/src/xmc_ccu4.c **** {
 522              	 .loc 1 487 0
 523              	 .cfi_startproc
 524              	.LVL55:
 525 0000 70B5     	 push {r4,r5,r6,lr}
 526              	.LCFI6:
 527              	 .cfi_def_cfa_offset 16
 528              	 .cfi_offset 4,-16
 529              	 .cfi_offset 5,-12
 530              	 .cfi_offset 6,-8
 531              	 .cfi_offset 14,-4
 488:../Libraries/XMCLib/src/xmc_ccu4.c ****   uint32_t cmc;
 489:../Libraries/XMCLib/src/xmc_ccu4.c ****   uint32_t tc;
 490:../Libraries/XMCLib/src/xmc_ccu4.c ****   
 491:../Libraries/XMCLib/src/xmc_ccu4.c ****   XMC_ASSERT("XMC_CCU4_SLICE_ModulationConfig:Invalid Slice Pointer", XMC_CCU4_IsValidSlice(slice))
 492:../Libraries/XMCLib/src/xmc_ccu4.c ****   XMC_ASSERT("XMC_CCU4_SLICE_ModulationConfig:Invalid Event ID", XMC_CCU4_SLICE_CHECK_EVENT_ID(even
 493:../Libraries/XMCLib/src/xmc_ccu4.c ****   XMC_ASSERT("XMC_CCU4_SLICE_ModulationConfig:Invalid Modulation Mode",
 494:../Libraries/XMCLib/src/xmc_ccu4.c ****              ((mod_mode == XMC_CCU4_SLICE_MODULATION_MODE_CLEAR_OUT) ||\
 495:../Libraries/XMCLib/src/xmc_ccu4.c ****               (mod_mode == XMC_CCU4_SLICE_MODULATION_MODE_CLEAR_ST_OUT)));
 496:../Libraries/XMCLib/src/xmc_ccu4.c ****   
 497:../Libraries/XMCLib/src/xmc_ccu4.c ****   tc  = slice->TC;
 532              	 .loc 1 497 0
 533 0002 4469     	 ldr r4,[r0,#20]
 534              	.LVL56:
 498:../Libraries/XMCLib/src/xmc_ccu4.c ****   cmc = slice->CMC;
 499:../Libraries/XMCLib/src/xmc_ccu4.c ****   
 500:../Libraries/XMCLib/src/xmc_ccu4.c ****   /* First, Bind the event with the modulation function */
 501:../Libraries/XMCLib/src/xmc_ccu4.c ****   cmc &= ~((uint32_t) CCU4_CC4_CMC_MOS_Msk);
 535              	 .loc 1 501 0
 536 0004 0B4D     	 ldr r5,.L38
 498:../Libraries/XMCLib/src/xmc_ccu4.c ****   cmc = slice->CMC;
 537              	 .loc 1 498 0
 538 0006 4668     	 ldr r6,[r0,#4]
 539              	.LVL57:
 502:../Libraries/XMCLib/src/xmc_ccu4.c ****   cmc |= ((uint32_t) event) << CCU4_CC4_CMC_MOS_Pos;
 540              	 .loc 1 502 0
 541 0008 8904     	 lsl r1,r1,#18
 542              	.LVL58:
 501:../Libraries/XMCLib/src/xmc_ccu4.c ****   cmc |= ((uint32_t) event) << CCU4_CC4_CMC_MOS_Pos;
 543              	 .loc 1 501 0
 544 000a 3540     	 and r5,r6
 545              	.LVL59:
 546              	 .loc 1 502 0
 547 000c 2943     	 orr r1,r5
 548              	.LVL60:
 503:../Libraries/XMCLib/src/xmc_ccu4.c ****   slice->CMC = cmc;
 549              	 .loc 1 503 0
 550 000e 4160     	 str r1,[r0,#4]
 504:../Libraries/XMCLib/src/xmc_ccu4.c ****   
 505:../Libraries/XMCLib/src/xmc_ccu4.c ****   /* Next, Modulation mode */
 506:../Libraries/XMCLib/src/xmc_ccu4.c ****   if (mod_mode == XMC_CCU4_SLICE_MODULATION_MODE_CLEAR_OUT)
 551              	 .loc 1 506 0
 552 0010 012A     	 cmp r2,#1
 553 0012 03D1     	 bne .L34
 507:../Libraries/XMCLib/src/xmc_ccu4.c ****   {
 508:../Libraries/XMCLib/src/xmc_ccu4.c ****     tc |= (uint32_t) CCU4_CC4_TC_EMT_Msk;
 554              	 .loc 1 508 0
 555 0014 8022     	 mov r2,#128
 556              	.LVL61:
 557 0016 5204     	 lsl r2,r2,#17
 558 0018 2243     	 orr r2,r4
 559              	.LVL62:
 560 001a 01E0     	 b .L35
 561              	.LVL63:
 562              	.L34:
 509:../Libraries/XMCLib/src/xmc_ccu4.c ****   }
 510:../Libraries/XMCLib/src/xmc_ccu4.c ****   else
 511:../Libraries/XMCLib/src/xmc_ccu4.c ****   {
 512:../Libraries/XMCLib/src/xmc_ccu4.c ****     tc &= ~((uint32_t) CCU4_CC4_TC_EMT_Msk);
 563              	 .loc 1 512 0
 564 001c 064A     	 ldr r2,.L38+4
 565              	.LVL64:
 566 001e 2240     	 and r2,r4
 567              	.LVL65:
 568              	.L35:
 513:../Libraries/XMCLib/src/xmc_ccu4.c ****   }
 514:../Libraries/XMCLib/src/xmc_ccu4.c **** 
 515:../Libraries/XMCLib/src/xmc_ccu4.c ****   /* Synchronization of modulation effect with PWM cycle */
 516:../Libraries/XMCLib/src/xmc_ccu4.c ****   if (synch_with_pwm == (bool) true)
 569              	 .loc 1 516 0
 570 0020 002B     	 cmp r3,#0
 571 0022 03D0     	 beq .L36
 517:../Libraries/XMCLib/src/xmc_ccu4.c ****   {
 518:../Libraries/XMCLib/src/xmc_ccu4.c ****     tc |= (uint32_t) CCU4_CC4_TC_EMS_Msk;
 572              	 .loc 1 518 0
 573 0024 8023     	 mov r3,#128
 574              	.LVL66:
 575 0026 1B04     	 lsl r3,r3,#16
 576 0028 1A43     	 orr r2,r3
 577              	.LVL67:
 578 002a 01E0     	 b .L37
 579              	.LVL68:
 580              	.L36:
 519:../Libraries/XMCLib/src/xmc_ccu4.c ****   }
 520:../Libraries/XMCLib/src/xmc_ccu4.c ****   else
 521:../Libraries/XMCLib/src/xmc_ccu4.c ****   {
 522:../Libraries/XMCLib/src/xmc_ccu4.c ****     tc &= ~((uint32_t) CCU4_CC4_TC_EMS_Msk);
 581              	 .loc 1 522 0
 582 002c 034B     	 ldr r3,.L38+8
 583              	.LVL69:
 584 002e 1A40     	 and r2,r3
 585              	.LVL70:
 586              	.L37:
 523:../Libraries/XMCLib/src/xmc_ccu4.c ****   }
 524:../Libraries/XMCLib/src/xmc_ccu4.c ****   
 525:../Libraries/XMCLib/src/xmc_ccu4.c ****   slice->TC = tc;
 587              	 .loc 1 525 0
 588 0030 4261     	 str r2,[r0,#20]
 526:../Libraries/XMCLib/src/xmc_ccu4.c **** }
 589              	 .loc 1 526 0
 590              	 
 591 0032 70BD     	 pop {r4,r5,r6,pc}
 592              	.L39:
 593              	 .align 2
 594              	.L38:
 595 0034 FFFFF3FF 	 .word -786433
 596 0038 FFFFFFFE 	 .word -16777217
 597 003c FFFF7FFF 	 .word -8388609
 598              	 .cfi_endproc
 599              	.LFE130:
 601              	 .section .text.XMC_CCU4_SLICE_CountConfig,"ax",%progbits
 602              	 .align 1
 603              	 .global XMC_CCU4_SLICE_CountConfig
 604              	 .code 16
 605              	 .thumb_func
 607              	XMC_CCU4_SLICE_CountConfig:
 608              	.LFB131:
 527:../Libraries/XMCLib/src/xmc_ccu4.c **** 
 528:../Libraries/XMCLib/src/xmc_ccu4.c **** /* API to configure the slice count function */
 529:../Libraries/XMCLib/src/xmc_ccu4.c **** void XMC_CCU4_SLICE_CountConfig(XMC_CCU4_SLICE_t *const slice, const XMC_CCU4_SLICE_EVENT_t event)
 530:../Libraries/XMCLib/src/xmc_ccu4.c **** {
 609              	 .loc 1 530 0
 610              	 .cfi_startproc
 611              	.LVL71:
 531:../Libraries/XMCLib/src/xmc_ccu4.c ****   uint32_t cmc;
 532:../Libraries/XMCLib/src/xmc_ccu4.c ****   
 533:../Libraries/XMCLib/src/xmc_ccu4.c ****   XMC_ASSERT("XMC_CCU4_SLICE_CountConfig:Invalid Slice Pointer", XMC_CCU4_IsValidSlice(slice));
 534:../Libraries/XMCLib/src/xmc_ccu4.c ****   XMC_ASSERT("XMC_CCU4_SLICE_CountConfig:Invalid Event ID", XMC_CCU4_SLICE_CHECK_EVENT_ID(event));
 535:../Libraries/XMCLib/src/xmc_ccu4.c **** 
 536:../Libraries/XMCLib/src/xmc_ccu4.c ****   /* Bind the event with the count function */
 537:../Libraries/XMCLib/src/xmc_ccu4.c ****   cmc = slice->CMC;
 612              	 .loc 1 537 0
 613 0000 4268     	 ldr r2,[r0,#4]
 614              	.LVL72:
 538:../Libraries/XMCLib/src/xmc_ccu4.c ****   cmc &= ~((uint32_t) CCU4_CC4_CMC_CNTS_Msk);
 615              	 .loc 1 538 0
 616 0002 034B     	 ldr r3,.L41
 539:../Libraries/XMCLib/src/xmc_ccu4.c ****   cmc |= ((uint32_t) event) << CCU4_CC4_CMC_CNTS_Pos;
 617              	 .loc 1 539 0
 618 0004 8903     	 lsl r1,r1,#14
 619              	.LVL73:
 538:../Libraries/XMCLib/src/xmc_ccu4.c ****   cmc &= ~((uint32_t) CCU4_CC4_CMC_CNTS_Msk);
 620              	 .loc 1 538 0
 621 0006 1340     	 and r3,r2
 622              	.LVL74:
 623              	 .loc 1 539 0
 624 0008 1943     	 orr r1,r3
 625              	.LVL75:
 540:../Libraries/XMCLib/src/xmc_ccu4.c **** 
 541:../Libraries/XMCLib/src/xmc_ccu4.c ****   slice->CMC = cmc;
 626              	 .loc 1 541 0
 627 000a 4160     	 str r1,[r0,#4]
 542:../Libraries/XMCLib/src/xmc_ccu4.c **** }
 628              	 .loc 1 542 0
 629              	 
 630 000c 7047     	 bx lr
 631              	.L42:
 632 000e C046     	 .align 2
 633              	.L41:
 634 0010 FF3FFFFF 	 .word -49153
 635              	 .cfi_endproc
 636              	.LFE131:
 638              	 .section .text.XMC_CCU4_SLICE_GateConfig,"ax",%progbits
 639              	 .align 1
 640              	 .global XMC_CCU4_SLICE_GateConfig
 641              	 .code 16
 642              	 .thumb_func
 644              	XMC_CCU4_SLICE_GateConfig:
 645              	.LFB132:
 543:../Libraries/XMCLib/src/xmc_ccu4.c **** 
 544:../Libraries/XMCLib/src/xmc_ccu4.c **** /* API to configure slice gate function */
 545:../Libraries/XMCLib/src/xmc_ccu4.c **** void XMC_CCU4_SLICE_GateConfig(XMC_CCU4_SLICE_t *const slice, const XMC_CCU4_SLICE_EVENT_t event)
 546:../Libraries/XMCLib/src/xmc_ccu4.c **** {
 646              	 .loc 1 546 0
 647              	 .cfi_startproc
 648              	.LVL76:
 547:../Libraries/XMCLib/src/xmc_ccu4.c ****   uint32_t cmc;
 548:../Libraries/XMCLib/src/xmc_ccu4.c ****   
 549:../Libraries/XMCLib/src/xmc_ccu4.c ****   XMC_ASSERT("XMC_CCU4_SLICE_GateConfig:Invalid Slice Pointer", XMC_CCU4_IsValidSlice(slice));
 550:../Libraries/XMCLib/src/xmc_ccu4.c ****   XMC_ASSERT("XMC_CCU4_SLICE_GateConfig:Invalid Event ID", XMC_CCU4_SLICE_CHECK_EVENT_ID(event));
 551:../Libraries/XMCLib/src/xmc_ccu4.c ****   
 552:../Libraries/XMCLib/src/xmc_ccu4.c ****   /* Bind the event with the gate function */
 553:../Libraries/XMCLib/src/xmc_ccu4.c ****   cmc = slice->CMC;
 649              	 .loc 1 553 0
 650 0000 4268     	 ldr r2,[r0,#4]
 651              	.LVL77:
 554:../Libraries/XMCLib/src/xmc_ccu4.c ****   cmc &= ~((uint32_t) CCU4_CC4_CMC_GATES_Msk);
 652              	 .loc 1 554 0
 653 0002 034B     	 ldr r3,.L44
 555:../Libraries/XMCLib/src/xmc_ccu4.c ****   cmc |= ((uint32_t) event) << CCU4_CC4_CMC_GATES_Pos;
 654              	 .loc 1 555 0
 655 0004 0902     	 lsl r1,r1,#8
 656              	.LVL78:
 554:../Libraries/XMCLib/src/xmc_ccu4.c ****   cmc &= ~((uint32_t) CCU4_CC4_CMC_GATES_Msk);
 657              	 .loc 1 554 0
 658 0006 1340     	 and r3,r2
 659              	.LVL79:
 660              	 .loc 1 555 0
 661 0008 1943     	 orr r1,r3
 662              	.LVL80:
 556:../Libraries/XMCLib/src/xmc_ccu4.c **** 
 557:../Libraries/XMCLib/src/xmc_ccu4.c ****   slice->CMC = cmc;
 663              	 .loc 1 557 0
 664 000a 4160     	 str r1,[r0,#4]
 558:../Libraries/XMCLib/src/xmc_ccu4.c **** }
 665              	 .loc 1 558 0
 666              	 
 667 000c 7047     	 bx lr
 668              	.L45:
 669 000e C046     	 .align 2
 670              	.L44:
 671 0010 FFFCFFFF 	 .word -769
 672              	 .cfi_endproc
 673              	.LFE132:
 675              	 .section .text.XMC_CCU4_SLICE_Capture0Config,"ax",%progbits
 676              	 .align 1
 677              	 .global XMC_CCU4_SLICE_Capture0Config
 678              	 .code 16
 679              	 .thumb_func
 681              	XMC_CCU4_SLICE_Capture0Config:
 682              	.LFB133:
 559:../Libraries/XMCLib/src/xmc_ccu4.c **** 
 560:../Libraries/XMCLib/src/xmc_ccu4.c **** /* API to configure Capture-0 function */
 561:../Libraries/XMCLib/src/xmc_ccu4.c **** void XMC_CCU4_SLICE_Capture0Config(XMC_CCU4_SLICE_t *const slice, const XMC_CCU4_SLICE_EVENT_t even
 562:../Libraries/XMCLib/src/xmc_ccu4.c **** {
 683              	 .loc 1 562 0
 684              	 .cfi_startproc
 685              	.LVL81:
 563:../Libraries/XMCLib/src/xmc_ccu4.c ****   uint32_t cmc;
 564:../Libraries/XMCLib/src/xmc_ccu4.c ****   
 565:../Libraries/XMCLib/src/xmc_ccu4.c ****   XMC_ASSERT("XMC_CCU4_SLICE_Capture0Config:Invalid Slice Pointer", XMC_CCU4_IsValidSlice(slice));
 566:../Libraries/XMCLib/src/xmc_ccu4.c ****   XMC_ASSERT("XMC_CCU4_SLICE_Capture0Config:Invalid Event ID", XMC_CCU4_SLICE_CHECK_EVENT_ID(event)
 567:../Libraries/XMCLib/src/xmc_ccu4.c ****   
 568:../Libraries/XMCLib/src/xmc_ccu4.c ****   /* Bind the event with the gate function */
 569:../Libraries/XMCLib/src/xmc_ccu4.c ****   cmc = slice->CMC;
 570:../Libraries/XMCLib/src/xmc_ccu4.c ****   cmc &= ~((uint32_t) CCU4_CC4_CMC_CAP0S_Msk);
 686              	 .loc 1 570 0
 687 0000 3022     	 mov r2,#48
 569:../Libraries/XMCLib/src/xmc_ccu4.c ****   cmc &= ~((uint32_t) CCU4_CC4_CMC_CAP0S_Msk);
 688              	 .loc 1 569 0
 689 0002 4368     	 ldr r3,[r0,#4]
 690              	.LVL82:
 571:../Libraries/XMCLib/src/xmc_ccu4.c ****   cmc |= ((uint32_t) event) << CCU4_CC4_CMC_CAP0S_Pos;
 691              	 .loc 1 571 0
 692 0004 0901     	 lsl r1,r1,#4
 693              	.LVL83:
 570:../Libraries/XMCLib/src/xmc_ccu4.c ****   cmc |= ((uint32_t) event) << CCU4_CC4_CMC_CAP0S_Pos;
 694              	 .loc 1 570 0
 695 0006 9343     	 bic r3,r2
 696              	.LVL84:
 697              	 .loc 1 571 0
 698 0008 1943     	 orr r1,r3
 699              	.LVL85:
 572:../Libraries/XMCLib/src/xmc_ccu4.c **** 
 573:../Libraries/XMCLib/src/xmc_ccu4.c ****   slice->CMC = cmc;
 700              	 .loc 1 573 0
 701 000a 4160     	 str r1,[r0,#4]
 574:../Libraries/XMCLib/src/xmc_ccu4.c **** }
 702              	 .loc 1 574 0
 703              	 
 704 000c 7047     	 bx lr
 705              	 .cfi_endproc
 706              	.LFE133:
 708              	 .section .text.XMC_CCU4_SLICE_Capture1Config,"ax",%progbits
 709              	 .align 1
 710              	 .global XMC_CCU4_SLICE_Capture1Config
 711              	 .code 16
 712              	 .thumb_func
 714              	XMC_CCU4_SLICE_Capture1Config:
 715              	.LFB134:
 575:../Libraries/XMCLib/src/xmc_ccu4.c **** 
 576:../Libraries/XMCLib/src/xmc_ccu4.c **** /* API to configure Capture-1 function */
 577:../Libraries/XMCLib/src/xmc_ccu4.c **** void XMC_CCU4_SLICE_Capture1Config(XMC_CCU4_SLICE_t *const slice, const XMC_CCU4_SLICE_EVENT_t even
 578:../Libraries/XMCLib/src/xmc_ccu4.c **** {
 716              	 .loc 1 578 0
 717              	 .cfi_startproc
 718              	.LVL86:
 579:../Libraries/XMCLib/src/xmc_ccu4.c ****   uint32_t cmc;
 580:../Libraries/XMCLib/src/xmc_ccu4.c ****   
 581:../Libraries/XMCLib/src/xmc_ccu4.c ****   XMC_ASSERT("XMC_CCU4_SLICE_Capture1Config:Invalid Slice Pointer", XMC_CCU4_IsValidSlice(slice));
 582:../Libraries/XMCLib/src/xmc_ccu4.c ****   XMC_ASSERT("XMC_CCU4_SLICE_Capture1Config:Invalid Event ID", XMC_CCU4_SLICE_CHECK_EVENT_ID(event)
 583:../Libraries/XMCLib/src/xmc_ccu4.c ****   
 584:../Libraries/XMCLib/src/xmc_ccu4.c ****   /* Bind the event with the gate function */
 585:../Libraries/XMCLib/src/xmc_ccu4.c ****   cmc = slice->CMC;
 586:../Libraries/XMCLib/src/xmc_ccu4.c ****   cmc &= ~((uint32_t) CCU4_CC4_CMC_CAP1S_Msk);
 719              	 .loc 1 586 0
 720 0000 C022     	 mov r2,#192
 585:../Libraries/XMCLib/src/xmc_ccu4.c ****   cmc &= ~((uint32_t) CCU4_CC4_CMC_CAP1S_Msk);
 721              	 .loc 1 585 0
 722 0002 4368     	 ldr r3,[r0,#4]
 723              	.LVL87:
 587:../Libraries/XMCLib/src/xmc_ccu4.c ****   cmc |= ((uint32_t) event) << CCU4_CC4_CMC_CAP1S_Pos;
 724              	 .loc 1 587 0
 725 0004 8901     	 lsl r1,r1,#6
 726              	.LVL88:
 586:../Libraries/XMCLib/src/xmc_ccu4.c ****   cmc |= ((uint32_t) event) << CCU4_CC4_CMC_CAP1S_Pos;
 727              	 .loc 1 586 0
 728 0006 9343     	 bic r3,r2
 729              	.LVL89:
 730              	 .loc 1 587 0
 731 0008 1943     	 orr r1,r3
 732              	.LVL90:
 588:../Libraries/XMCLib/src/xmc_ccu4.c **** 
 589:../Libraries/XMCLib/src/xmc_ccu4.c ****   slice->CMC = cmc;
 733              	 .loc 1 589 0
 734 000a 4160     	 str r1,[r0,#4]
 590:../Libraries/XMCLib/src/xmc_ccu4.c **** }
 735              	 .loc 1 590 0
 736              	 
 737 000c 7047     	 bx lr
 738              	 .cfi_endproc
 739              	.LFE134:
 741              	 .section .text.XMC_CCU4_SLICE_DirectionConfig,"ax",%progbits
 742              	 .align 1
 743              	 .global XMC_CCU4_SLICE_DirectionConfig
 744              	 .code 16
 745              	 .thumb_func
 747              	XMC_CCU4_SLICE_DirectionConfig:
 748              	.LFB135:
 591:../Libraries/XMCLib/src/xmc_ccu4.c **** 
 592:../Libraries/XMCLib/src/xmc_ccu4.c **** /* API to configure direction function */
 593:../Libraries/XMCLib/src/xmc_ccu4.c **** void XMC_CCU4_SLICE_DirectionConfig(XMC_CCU4_SLICE_t *const slice, const XMC_CCU4_SLICE_EVENT_t eve
 594:../Libraries/XMCLib/src/xmc_ccu4.c **** {
 749              	 .loc 1 594 0
 750              	 .cfi_startproc
 751              	.LVL91:
 595:../Libraries/XMCLib/src/xmc_ccu4.c ****   uint32_t cmc;
 596:../Libraries/XMCLib/src/xmc_ccu4.c ****   
 597:../Libraries/XMCLib/src/xmc_ccu4.c ****   XMC_ASSERT("XMC_CCU4_SLICE_DirectionConfig:Invalid Slice Pointer", XMC_CCU4_IsValidSlice(slice));
 598:../Libraries/XMCLib/src/xmc_ccu4.c ****   XMC_ASSERT("XMC_CCU4_SLICE_DirectionConfig:Invalid Event ID", XMC_CCU4_SLICE_CHECK_EVENT_ID(event
 599:../Libraries/XMCLib/src/xmc_ccu4.c ****   
 600:../Libraries/XMCLib/src/xmc_ccu4.c ****   /* Bind the event with the direction function */
 601:../Libraries/XMCLib/src/xmc_ccu4.c ****   cmc = slice->CMC;
 752              	 .loc 1 601 0
 753 0000 4268     	 ldr r2,[r0,#4]
 754              	.LVL92:
 602:../Libraries/XMCLib/src/xmc_ccu4.c ****   cmc &= ~((uint32_t) CCU4_CC4_CMC_UDS_Msk);
 755              	 .loc 1 602 0
 756 0002 034B     	 ldr r3,.L49
 603:../Libraries/XMCLib/src/xmc_ccu4.c ****   cmc |= ((uint32_t) event) << CCU4_CC4_CMC_UDS_Pos;
 757              	 .loc 1 603 0
 758 0004 8902     	 lsl r1,r1,#10
 759              	.LVL93:
 602:../Libraries/XMCLib/src/xmc_ccu4.c ****   cmc &= ~((uint32_t) CCU4_CC4_CMC_UDS_Msk);
 760              	 .loc 1 602 0
 761 0006 1340     	 and r3,r2
 762              	.LVL94:
 763              	 .loc 1 603 0
 764 0008 1943     	 orr r1,r3
 765              	.LVL95:
 604:../Libraries/XMCLib/src/xmc_ccu4.c ****   
 605:../Libraries/XMCLib/src/xmc_ccu4.c ****   slice->CMC = cmc;
 766              	 .loc 1 605 0
 767 000a 4160     	 str r1,[r0,#4]
 606:../Libraries/XMCLib/src/xmc_ccu4.c **** }
 768              	 .loc 1 606 0
 769              	 
 770 000c 7047     	 bx lr
 771              	.L50:
 772 000e C046     	 .align 2
 773              	.L49:
 774 0010 FFF3FFFF 	 .word -3073
 775              	 .cfi_endproc
 776              	.LFE135:
 778              	 .section .text.XMC_CCU4_SLICE_StatusBitOverrideConfig,"ax",%progbits
 779              	 .align 1
 780              	 .global XMC_CCU4_SLICE_StatusBitOverrideConfig
 781              	 .code 16
 782              	 .thumb_func
 784              	XMC_CCU4_SLICE_StatusBitOverrideConfig:
 785              	.LFB136:
 607:../Libraries/XMCLib/src/xmc_ccu4.c **** 
 608:../Libraries/XMCLib/src/xmc_ccu4.c **** /* API to configure slice status bit override function */
 609:../Libraries/XMCLib/src/xmc_ccu4.c **** void XMC_CCU4_SLICE_StatusBitOverrideConfig(XMC_CCU4_SLICE_t *const slice)
 610:../Libraries/XMCLib/src/xmc_ccu4.c **** {
 786              	 .loc 1 610 0
 787              	 .cfi_startproc
 788              	.LVL96:
 611:../Libraries/XMCLib/src/xmc_ccu4.c ****   uint32_t cmc;
 612:../Libraries/XMCLib/src/xmc_ccu4.c ****   
 613:../Libraries/XMCLib/src/xmc_ccu4.c ****   XMC_ASSERT("XMC_CCU4_SLICE_StatusBitOverrideConfig:Invalid Slice Pointer", XMC_CCU4_IsValidSlice(
 614:../Libraries/XMCLib/src/xmc_ccu4.c ****   
 615:../Libraries/XMCLib/src/xmc_ccu4.c ****   /* Bind the event with the override function */
 616:../Libraries/XMCLib/src/xmc_ccu4.c ****   cmc = slice->CMC;
 617:../Libraries/XMCLib/src/xmc_ccu4.c ****   /* Map status bit trigger override to Event 1 & 
 618:../Libraries/XMCLib/src/xmc_ccu4.c ****          status bit value override to Event 2 */
 619:../Libraries/XMCLib/src/xmc_ccu4.c ****   cmc &= ~((uint32_t) CCU4_CC4_CMC_OFS_Msk);
 620:../Libraries/XMCLib/src/xmc_ccu4.c ****   cmc |= ((uint32_t) 1) << CCU4_CC4_CMC_OFS_Pos;
 789              	 .loc 1 620 0
 790 0000 8023     	 mov r3,#128
 616:../Libraries/XMCLib/src/xmc_ccu4.c ****   /* Map status bit trigger override to Event 1 & 
 791              	 .loc 1 616 0
 792 0002 4268     	 ldr r2,[r0,#4]
 793              	.LVL97:
 794              	 .loc 1 620 0
 795 0004 5B02     	 lsl r3,r3,#9
 796 0006 1343     	 orr r3,r2
 797              	.LVL98:
 621:../Libraries/XMCLib/src/xmc_ccu4.c **** 
 622:../Libraries/XMCLib/src/xmc_ccu4.c ****   slice->CMC = cmc;
 798              	 .loc 1 622 0
 799 0008 4360     	 str r3,[r0,#4]
 623:../Libraries/XMCLib/src/xmc_ccu4.c **** }
 800              	 .loc 1 623 0
 801              	 
 802 000a 7047     	 bx lr
 803              	 .cfi_endproc
 804              	.LFE136:
 806              	 .section .text.XMC_CCU4_SLICE_TrapConfig,"ax",%progbits
 807              	 .align 1
 808              	 .global XMC_CCU4_SLICE_TrapConfig
 809              	 .code 16
 810              	 .thumb_func
 812              	XMC_CCU4_SLICE_TrapConfig:
 813              	.LFB137:
 624:../Libraries/XMCLib/src/xmc_ccu4.c **** 
 625:../Libraries/XMCLib/src/xmc_ccu4.c **** /* API to configure trap function */
 626:../Libraries/XMCLib/src/xmc_ccu4.c **** void XMC_CCU4_SLICE_TrapConfig(XMC_CCU4_SLICE_t *const slice,
 627:../Libraries/XMCLib/src/xmc_ccu4.c ****                                const XMC_CCU4_SLICE_TRAP_EXIT_MODE_t exit_mode,
 628:../Libraries/XMCLib/src/xmc_ccu4.c ****                                const bool synch_with_pwm)
 629:../Libraries/XMCLib/src/xmc_ccu4.c **** {
 814              	 .loc 1 629 0
 815              	 .cfi_startproc
 816              	.LVL99:
 630:../Libraries/XMCLib/src/xmc_ccu4.c ****   uint32_t cmc;
 631:../Libraries/XMCLib/src/xmc_ccu4.c ****   uint32_t tc;
 632:../Libraries/XMCLib/src/xmc_ccu4.c ****   
 633:../Libraries/XMCLib/src/xmc_ccu4.c ****   XMC_ASSERT("XMC_CCU4_SLICE_TrapConfig:Invalid Slice Pointer", XMC_CCU4_IsValidSlice(slice));
 634:../Libraries/XMCLib/src/xmc_ccu4.c ****   XMC_ASSERT("XMC_CCU4_SLICE_TrapConfig:Invalid Exit Mode", ((exit_mode == XMC_CCU4_SLICE_TRAP_EXIT
 635:../Libraries/XMCLib/src/xmc_ccu4.c ****                                                              (exit_mode == XMC_CCU4_SLICE_TRAP_EXIT
 636:../Libraries/XMCLib/src/xmc_ccu4.c ****     
 637:../Libraries/XMCLib/src/xmc_ccu4.c ****   /* First, Map trap function to Event 2 */
 638:../Libraries/XMCLib/src/xmc_ccu4.c ****   cmc = slice->CMC;
 639:../Libraries/XMCLib/src/xmc_ccu4.c ****   cmc &= ~((uint32_t) CCU4_CC4_CMC_TS_Msk);
 640:../Libraries/XMCLib/src/xmc_ccu4.c ****   cmc |= ((uint32_t) 1) << CCU4_CC4_CMC_TS_Pos;
 817              	 .loc 1 640 0
 818 0000 8023     	 mov r3,#128
 629:../Libraries/XMCLib/src/xmc_ccu4.c ****   uint32_t cmc;
 819              	 .loc 1 629 0
 820 0002 10B5     	 push {r4,lr}
 821              	.LCFI7:
 822              	 .cfi_def_cfa_offset 8
 823              	 .cfi_offset 4,-8
 824              	 .cfi_offset 14,-4
 638:../Libraries/XMCLib/src/xmc_ccu4.c ****   cmc &= ~((uint32_t) CCU4_CC4_CMC_TS_Msk);
 825              	 .loc 1 638 0
 826 0004 4468     	 ldr r4,[r0,#4]
 827              	.LVL100:
 828              	 .loc 1 640 0
 829 0006 9B02     	 lsl r3,r3,#10
 830 0008 2343     	 orr r3,r4
 831              	.LVL101:
 641:../Libraries/XMCLib/src/xmc_ccu4.c ****   slice->CMC = cmc;
 832              	 .loc 1 641 0
 833 000a 4360     	 str r3,[r0,#4]
 642:../Libraries/XMCLib/src/xmc_ccu4.c ****   
 643:../Libraries/XMCLib/src/xmc_ccu4.c ****   /* Next, Configure synchronization option */
 644:../Libraries/XMCLib/src/xmc_ccu4.c ****   tc = slice->TC;
 834              	 .loc 1 644 0
 835 000c 4369     	 ldr r3,[r0,#20]
 836              	.LVL102:
 645:../Libraries/XMCLib/src/xmc_ccu4.c **** 
 646:../Libraries/XMCLib/src/xmc_ccu4.c ****   if (synch_with_pwm == (bool) true)
 837              	 .loc 1 646 0
 838 000e 002A     	 cmp r2,#0
 839 0010 03D0     	 beq .L53
 647:../Libraries/XMCLib/src/xmc_ccu4.c ****   {
 648:../Libraries/XMCLib/src/xmc_ccu4.c ****     tc |= (uint32_t) CCU4_CC4_TC_TRPSE_Msk;
 840              	 .loc 1 648 0
 841 0012 8022     	 mov r2,#128
 842              	.LVL103:
 843 0014 9203     	 lsl r2,r2,#14
 844 0016 1343     	 orr r3,r2
 845              	.LVL104:
 846 0018 01E0     	 b .L54
 847              	.LVL105:
 848              	.L53:
 649:../Libraries/XMCLib/src/xmc_ccu4.c ****   }
 650:../Libraries/XMCLib/src/xmc_ccu4.c ****   else
 651:../Libraries/XMCLib/src/xmc_ccu4.c ****   {
 652:../Libraries/XMCLib/src/xmc_ccu4.c ****     tc &= ~((uint32_t) CCU4_CC4_TC_TRPSE_Msk);
 849              	 .loc 1 652 0
 850 001a 064A     	 ldr r2,.L57
 851              	.LVL106:
 852 001c 1340     	 and r3,r2
 853              	.LVL107:
 854              	.L54:
 653:../Libraries/XMCLib/src/xmc_ccu4.c ****   }
 654:../Libraries/XMCLib/src/xmc_ccu4.c ****   
 655:../Libraries/XMCLib/src/xmc_ccu4.c ****   /* Configure exit mode */
 656:../Libraries/XMCLib/src/xmc_ccu4.c ****   if (exit_mode == XMC_CCU4_SLICE_TRAP_EXIT_MODE_SW)
 855              	 .loc 1 656 0
 856 001e 0129     	 cmp r1,#1
 857 0020 03D1     	 bne .L55
 657:../Libraries/XMCLib/src/xmc_ccu4.c ****   {
 658:../Libraries/XMCLib/src/xmc_ccu4.c ****     tc |= (uint32_t) CCU4_CC4_TC_TRPSW_Msk;
 858              	 .loc 1 658 0
 859 0022 8022     	 mov r2,#128
 860 0024 D203     	 lsl r2,r2,#15
 861 0026 1343     	 orr r3,r2
 862              	.LVL108:
 863 0028 01E0     	 b .L56
 864              	.L55:
 659:../Libraries/XMCLib/src/xmc_ccu4.c ****   }
 660:../Libraries/XMCLib/src/xmc_ccu4.c ****   else
 661:../Libraries/XMCLib/src/xmc_ccu4.c ****   {
 662:../Libraries/XMCLib/src/xmc_ccu4.c ****     tc &= ~((uint32_t) CCU4_CC4_TC_TRPSW_Msk);
 865              	 .loc 1 662 0
 866 002a 034A     	 ldr r2,.L57+4
 867 002c 1340     	 and r3,r2
 868              	.LVL109:
 869              	.L56:
 663:../Libraries/XMCLib/src/xmc_ccu4.c ****   }
 664:../Libraries/XMCLib/src/xmc_ccu4.c ****   
 665:../Libraries/XMCLib/src/xmc_ccu4.c ****   slice->TC = tc;
 870              	 .loc 1 665 0
 871 002e 4361     	 str r3,[r0,#20]
 872              	.LVL110:
 666:../Libraries/XMCLib/src/xmc_ccu4.c **** }
 873              	 .loc 1 666 0
 874              	 
 875              	.LVL111:
 876 0030 10BD     	 pop {r4,pc}
 877              	.L58:
 878 0032 C046     	 .align 2
 879              	.L57:
 880 0034 FFFFDFFF 	 .word -2097153
 881 0038 FFFFBFFF 	 .word -4194305
 882              	 .cfi_endproc
 883              	.LFE137:
 885              	 .section .text.XMC_CCU4_SLICE_ConfigureStatusBitOverrideEvent,"ax",%progbits
 886              	 .align 1
 887              	 .global XMC_CCU4_SLICE_ConfigureStatusBitOverrideEvent
 888              	 .code 16
 889              	 .thumb_func
 891              	XMC_CCU4_SLICE_ConfigureStatusBitOverrideEvent:
 892              	.LFB138:
 667:../Libraries/XMCLib/src/xmc_ccu4.c **** 
 668:../Libraries/XMCLib/src/xmc_ccu4.c **** /* API to configure a slice Status Bit Override event */
 669:../Libraries/XMCLib/src/xmc_ccu4.c **** void XMC_CCU4_SLICE_ConfigureStatusBitOverrideEvent(XMC_CCU4_SLICE_t *const slice,
 670:../Libraries/XMCLib/src/xmc_ccu4.c ****                                                     const XMC_CCU4_SLICE_EVENT_CONFIG_t *const ev1_
 671:../Libraries/XMCLib/src/xmc_ccu4.c ****                                                     const XMC_CCU4_SLICE_EVENT_CONFIG_t *const ev2_
 672:../Libraries/XMCLib/src/xmc_ccu4.c **** {
 893              	 .loc 1 672 0
 894              	 .cfi_startproc
 895              	.LVL112:
 896 0000 10B5     	 push {r4,lr}
 897              	.LCFI8:
 898              	 .cfi_def_cfa_offset 8
 899              	 .cfi_offset 4,-8
 900              	 .cfi_offset 14,-4
 673:../Libraries/XMCLib/src/xmc_ccu4.c ****   uint32_t ins;
 674:../Libraries/XMCLib/src/xmc_ccu4.c **** 
 675:../Libraries/XMCLib/src/xmc_ccu4.c ****   XMC_ASSERT("XMC_CCU4_SLICE_ConfigureStatusBitOverrideEvent:Invalid Slice Pointer", XMC_CCU4_IsVal
 676:../Libraries/XMCLib/src/xmc_ccu4.c ****   XMC_ASSERT("XMC_CCU4_SLICE_ConfigureStatusBitOverrideEvent:Invalid Input",
 677:../Libraries/XMCLib/src/xmc_ccu4.c ****          XMC_CCU4_SLICE_IsInputvalid(ev1_config->mapped_input));
 678:../Libraries/XMCLib/src/xmc_ccu4.c ****   XMC_ASSERT("XMC_CCU4_SLICE_ConfigureStatusBitOverrideEvent:Invalid Edge Sensitivity",
 679:../Libraries/XMCLib/src/xmc_ccu4.c ****              XMC_CCU4_SLICE_CHECK_EDGE_SENSITIVITY(ev1_config->edge));
 680:../Libraries/XMCLib/src/xmc_ccu4.c ****   XMC_ASSERT("XMC_CCU4_SLICE_ConfigureStatusBitOverrideEvent:Invalid Level Sensitivity",
 681:../Libraries/XMCLib/src/xmc_ccu4.c ****              ((ev1_config->level == XMC_CCU4_SLICE_EVENT_LEVEL_SENSITIVITY_ACTIVE_HIGH) ||\
 682:../Libraries/XMCLib/src/xmc_ccu4.c ****               (ev1_config->level == XMC_CCU4_SLICE_EVENT_LEVEL_SENSITIVITY_ACTIVE_LOW)));
 683:../Libraries/XMCLib/src/xmc_ccu4.c ****   XMC_ASSERT("XMC_CCU4_SLICE_ConfigureStatusBitOverrideEvent:Invalid Debounce Period",
 684:../Libraries/XMCLib/src/xmc_ccu4.c ****              XMC_CCU4_SLICE_CHECK_EVENT_FILTER(ev1_config->duration));
 685:../Libraries/XMCLib/src/xmc_ccu4.c ****   XMC_ASSERT("XMC_CCU4_SLICE_ConfigureStatusBitOverrideEvent:Invalid Input",
 686:../Libraries/XMCLib/src/xmc_ccu4.c ****          XMC_CCU4_SLICE_IsInputvalid(ev2_config->mapped_input));
 687:../Libraries/XMCLib/src/xmc_ccu4.c ****   XMC_ASSERT("XMC_CCU4_SLICE_ConfigureStatusBitOverrideEvent:Invalid Edge Sensitivity",
 688:../Libraries/XMCLib/src/xmc_ccu4.c ****              XMC_CCU4_SLICE_CHECK_EDGE_SENSITIVITY(ev2_config->edge));
 689:../Libraries/XMCLib/src/xmc_ccu4.c ****   XMC_ASSERT("XMC_CCU4_SLICE_ConfigureStatusBitOverrideEvent:Invalid Level Sensitivity",
 690:../Libraries/XMCLib/src/xmc_ccu4.c ****              ((ev2_config->level == XMC_CCU4_SLICE_EVENT_LEVEL_SENSITIVITY_ACTIVE_HIGH) ||\
 691:../Libraries/XMCLib/src/xmc_ccu4.c ****               (ev2_config->level == XMC_CCU4_SLICE_EVENT_LEVEL_SENSITIVITY_ACTIVE_LOW)));
 692:../Libraries/XMCLib/src/xmc_ccu4.c ****   XMC_ASSERT("XMC_CCU4_SLICE_ConfigureStatusBitOverrideEvent:Invalid Debounce Period", 
 693:../Libraries/XMCLib/src/xmc_ccu4.c ****              XMC_CCU4_SLICE_CHECK_EVENT_FILTER(ev2_config->duration));
 694:../Libraries/XMCLib/src/xmc_ccu4.c **** #if defined(CCU4V3) /* Defined for XMC1400 devices only */
 695:../Libraries/XMCLib/src/xmc_ccu4.c ****   ins = slice->INS2;
 696:../Libraries/XMCLib/src/xmc_ccu4.c **** 
 697:../Libraries/XMCLib/src/xmc_ccu4.c ****   /* Configure the edge sensitivity for event 1 */
 698:../Libraries/XMCLib/src/xmc_ccu4.c ****   ins &= ~(((uint32_t) XMC_CCU4_SLICE_EVENT_EDGE_CONFIG_MASK) << CCU4_CC4_INS2_EV1EM_Pos);
 901              	 .loc 1 698 0
 902 0002 3024     	 mov r4,#48
 695:../Libraries/XMCLib/src/xmc_ccu4.c **** 
 903              	 .loc 1 695 0
 904 0004 0368     	 ldr r3,[r0]
 905              	.LVL113:
 699:../Libraries/XMCLib/src/xmc_ccu4.c ****   ins |= ((uint32_t) ev1_config->edge) << CCU4_CC4_INS2_EV1EM_Pos;
 700:../Libraries/XMCLib/src/xmc_ccu4.c ****   
 701:../Libraries/XMCLib/src/xmc_ccu4.c ****   /* Configure the edge sensitivity for event 2 */
 702:../Libraries/XMCLib/src/xmc_ccu4.c ****   ins &= ~(((uint32_t) XMC_CCU4_SLICE_EVENT_EDGE_CONFIG_MASK) << CCU4_CC4_INS2_EV2EM_Pos);
 703:../Libraries/XMCLib/src/xmc_ccu4.c ****   ins |= ((uint32_t) ev2_config->edge) << CCU4_CC4_INS2_EV2EM_Pos;
 704:../Libraries/XMCLib/src/xmc_ccu4.c ****   
 705:../Libraries/XMCLib/src/xmc_ccu4.c ****   /* Configure the level sensitivity for event 1 */
 706:../Libraries/XMCLib/src/xmc_ccu4.c ****   ins &= ~(((uint32_t) XMC_CCU4_SLICE_EVENT_LEVEL_CONFIG_MASK) << CCU4_CC4_INS2_EV1LM_Pos);
 707:../Libraries/XMCLib/src/xmc_ccu4.c ****   ins |= ((uint32_t) ev1_config->level) << CCU4_CC4_INS2_EV1LM_Pos;
 708:../Libraries/XMCLib/src/xmc_ccu4.c ****   
 709:../Libraries/XMCLib/src/xmc_ccu4.c ****   /* Configure the level sensitivity for event 2 */
 710:../Libraries/XMCLib/src/xmc_ccu4.c ****   ins &= ~(((uint32_t) XMC_CCU4_SLICE_EVENT_LEVEL_CONFIG_MASK) << CCU4_CC4_INS2_EV2LM_Pos);
 711:../Libraries/XMCLib/src/xmc_ccu4.c ****   ins |= ((uint32_t) ev2_config->level) << CCU4_CC4_INS2_EV2LM_Pos;
 712:../Libraries/XMCLib/src/xmc_ccu4.c ****   
 713:../Libraries/XMCLib/src/xmc_ccu4.c ****   /* Configure the debounce filter for event 1 */
 714:../Libraries/XMCLib/src/xmc_ccu4.c ****   ins &= ~(((uint32_t) XMC_CCU4_SLICE_EVENT_FILTER_CONFIG_MASK) << CCU4_CC4_INS2_LPF1M_Pos);
 715:../Libraries/XMCLib/src/xmc_ccu4.c ****   ins |= ((uint32_t) ev1_config->duration) << CCU4_CC4_INS2_LPF1M_Pos;
 716:../Libraries/XMCLib/src/xmc_ccu4.c **** 
 717:../Libraries/XMCLib/src/xmc_ccu4.c ****   /* Configure the debounce filter for event 2 */
 718:../Libraries/XMCLib/src/xmc_ccu4.c ****   ins &= ~(((uint32_t) XMC_CCU4_SLICE_EVENT_FILTER_CONFIG_MASK) << CCU4_CC4_INS2_LPF2M_Pos);
 719:../Libraries/XMCLib/src/xmc_ccu4.c ****   ins |= ((uint32_t) ev2_config->duration) << CCU4_CC4_INS2_LPF2M_Pos;
 720:../Libraries/XMCLib/src/xmc_ccu4.c ****   
 721:../Libraries/XMCLib/src/xmc_ccu4.c ****   slice->INS2 = ins;
 722:../Libraries/XMCLib/src/xmc_ccu4.c ****   
 723:../Libraries/XMCLib/src/xmc_ccu4.c ****   ins = slice->INS1;
 724:../Libraries/XMCLib/src/xmc_ccu4.c ****   
 725:../Libraries/XMCLib/src/xmc_ccu4.c ****   /* Next, the input for Event1 */
 726:../Libraries/XMCLib/src/xmc_ccu4.c ****   ins &= ~(((uint32_t) XMC_CCU4_SLICE_EVENT_INPUT_CONFIG_MASK) << CCU4_CC4_INS1_EV1IS_Pos);
 727:../Libraries/XMCLib/src/xmc_ccu4.c ****   ins |= ((uint32_t) ev1_config->mapped_input) << CCU4_CC4_INS1_EV1IS_Pos;
 728:../Libraries/XMCLib/src/xmc_ccu4.c **** 
 729:../Libraries/XMCLib/src/xmc_ccu4.c ****   /* Finally, the input for Event2 */
 730:../Libraries/XMCLib/src/xmc_ccu4.c ****   ins &= ~(((uint32_t) XMC_CCU4_SLICE_EVENT_INPUT_CONFIG_MASK) << CCU4_CC4_INS1_EV2IS_Pos);
 731:../Libraries/XMCLib/src/xmc_ccu4.c ****   ins |= ((uint32_t) ev2_config->mapped_input) << CCU4_CC4_INS1_EV2IS_Pos;
 732:../Libraries/XMCLib/src/xmc_ccu4.c ****   
 733:../Libraries/XMCLib/src/xmc_ccu4.c ****   slice->INS1 = ins;
 734:../Libraries/XMCLib/src/xmc_ccu4.c **** #else
 735:../Libraries/XMCLib/src/xmc_ccu4.c ****   ins = slice->INS;
 736:../Libraries/XMCLib/src/xmc_ccu4.c **** 
 737:../Libraries/XMCLib/src/xmc_ccu4.c ****   /* Configure the edge sensitivity for event 1 */
 738:../Libraries/XMCLib/src/xmc_ccu4.c ****   ins &= ~(((uint32_t) XMC_CCU4_SLICE_EVENT_EDGE_CONFIG_MASK) << CCU4_CC4_INS_EV1EM_Pos);
 739:../Libraries/XMCLib/src/xmc_ccu4.c ****   ins |= ((uint32_t) ev1_config->edge) << CCU4_CC4_INS_EV1EM_Pos;
 740:../Libraries/XMCLib/src/xmc_ccu4.c ****   
 741:../Libraries/XMCLib/src/xmc_ccu4.c ****   /* Configure the edge sensitivity for event 2 */
 742:../Libraries/XMCLib/src/xmc_ccu4.c ****   ins &= ~(((uint32_t) XMC_CCU4_SLICE_EVENT_EDGE_CONFIG_MASK) << CCU4_CC4_INS_EV2EM_Pos);
 743:../Libraries/XMCLib/src/xmc_ccu4.c ****   ins |= ((uint32_t) ev2_config->edge) << CCU4_CC4_INS_EV2EM_Pos;
 744:../Libraries/XMCLib/src/xmc_ccu4.c ****   
 745:../Libraries/XMCLib/src/xmc_ccu4.c ****   /* Configure the level sensitivity for event 1 */
 746:../Libraries/XMCLib/src/xmc_ccu4.c ****   ins &= ~(((uint32_t) XMC_CCU4_SLICE_EVENT_LEVEL_CONFIG_MASK) << CCU4_CC4_INS_EV1LM_Pos);
 747:../Libraries/XMCLib/src/xmc_ccu4.c ****   ins |= ((uint32_t) ev1_config->level) << CCU4_CC4_INS_EV1LM_Pos;
 748:../Libraries/XMCLib/src/xmc_ccu4.c ****   
 749:../Libraries/XMCLib/src/xmc_ccu4.c ****   /* Configure the level sensitivity for event 2 */
 750:../Libraries/XMCLib/src/xmc_ccu4.c ****   ins &= ~(((uint32_t) XMC_CCU4_SLICE_EVENT_LEVEL_CONFIG_MASK) << CCU4_CC4_INS_EV2LM_Pos);
 751:../Libraries/XMCLib/src/xmc_ccu4.c ****   ins |= ((uint32_t) ev2_config->level) << CCU4_CC4_INS_EV2LM_Pos;
 752:../Libraries/XMCLib/src/xmc_ccu4.c ****   
 753:../Libraries/XMCLib/src/xmc_ccu4.c ****   /* Configure the debounce filter for event 1 */
 754:../Libraries/XMCLib/src/xmc_ccu4.c ****   ins &= ~(((uint32_t) XMC_CCU4_SLICE_EVENT_FILTER_CONFIG_MASK) << CCU4_CC4_INS_LPF1M_Pos);
 755:../Libraries/XMCLib/src/xmc_ccu4.c ****   ins |= ((uint32_t) ev1_config->duration) << CCU4_CC4_INS_LPF1M_Pos;
 756:../Libraries/XMCLib/src/xmc_ccu4.c **** 
 757:../Libraries/XMCLib/src/xmc_ccu4.c ****   /* Configure the debounce filter for event 2 */
 758:../Libraries/XMCLib/src/xmc_ccu4.c ****   ins &= ~(((uint32_t) XMC_CCU4_SLICE_EVENT_FILTER_CONFIG_MASK) << CCU4_CC4_INS_LPF2M_Pos);
 759:../Libraries/XMCLib/src/xmc_ccu4.c ****   ins |= ((uint32_t) ev2_config->duration) << CCU4_CC4_INS_LPF2M_Pos;
 760:../Libraries/XMCLib/src/xmc_ccu4.c ****   
 761:../Libraries/XMCLib/src/xmc_ccu4.c ****   /* Next, the input for Event1 */
 762:../Libraries/XMCLib/src/xmc_ccu4.c ****   ins &= ~(((uint32_t) XMC_CCU4_SLICE_EVENT_INPUT_CONFIG_MASK) << CCU4_CC4_INS_EV1IS_Pos);
 763:../Libraries/XMCLib/src/xmc_ccu4.c ****   ins |= ((uint32_t) ev1_config->mapped_input) << CCU4_CC4_INS_EV1IS_Pos;
 764:../Libraries/XMCLib/src/xmc_ccu4.c **** 
 765:../Libraries/XMCLib/src/xmc_ccu4.c ****   /* Finally, the input for Event2 */
 766:../Libraries/XMCLib/src/xmc_ccu4.c ****   ins &= ~(((uint32_t) XMC_CCU4_SLICE_EVENT_INPUT_CONFIG_MASK) << CCU4_CC4_INS_EV2IS_Pos);
 767:../Libraries/XMCLib/src/xmc_ccu4.c ****   ins |= ((uint32_t) ev2_config->mapped_input) << CCU4_CC4_INS_EV2IS_Pos;
 768:../Libraries/XMCLib/src/xmc_ccu4.c ****   
 769:../Libraries/XMCLib/src/xmc_ccu4.c ****   slice->INS = ins;
 770:../Libraries/XMCLib/src/xmc_ccu4.c **** #endif
 771:../Libraries/XMCLib/src/xmc_ccu4.c **** }
 906              	 .loc 1 771 0
 907              	 
 698:../Libraries/XMCLib/src/xmc_ccu4.c ****   ins |= ((uint32_t) ev1_config->edge) << CCU4_CC4_INS2_EV1EM_Pos;
 908              	 .loc 1 698 0
 909 0006 A343     	 bic r3,r4
 910              	.LVL114:
 911 0008 1C1C     	 mov r4,r3
 912              	.LVL115:
 699:../Libraries/XMCLib/src/xmc_ccu4.c ****   ins |= ((uint32_t) ev1_config->edge) << CCU4_CC4_INS2_EV1EM_Pos;
 913              	 .loc 1 699 0
 914 000a 4B78     	 ldrb r3,[r1,#1]
 915              	.LVL116:
 916 000c 1B01     	 lsl r3,r3,#4
 917 000e 2343     	 orr r3,r4
 918              	.LVL117:
 702:../Libraries/XMCLib/src/xmc_ccu4.c ****   ins |= ((uint32_t) ev2_config->edge) << CCU4_CC4_INS2_EV2EM_Pos;
 919              	 .loc 1 702 0
 920 0010 134C     	 ldr r4,.L60
 921 0012 2340     	 and r3,r4
 922              	.LVL118:
 703:../Libraries/XMCLib/src/xmc_ccu4.c ****   
 923              	 .loc 1 703 0
 924 0014 5478     	 ldrb r4,[r2,#1]
 925 0016 2402     	 lsl r4,r4,#8
 926 0018 2343     	 orr r3,r4
 927              	.LVL119:
 706:../Libraries/XMCLib/src/xmc_ccu4.c ****   ins |= ((uint32_t) ev1_config->level) << CCU4_CC4_INS2_EV1LM_Pos;
 928              	 .loc 1 706 0
 929 001a 4024     	 mov r4,#64
 930 001c A343     	 bic r3,r4
 931              	.LVL120:
 707:../Libraries/XMCLib/src/xmc_ccu4.c ****   
 932              	 .loc 1 707 0
 933 001e 8C78     	 ldrb r4,[r1,#2]
 934 0020 A401     	 lsl r4,r4,#6
 935 0022 2343     	 orr r3,r4
 936              	.LVL121:
 710:../Libraries/XMCLib/src/xmc_ccu4.c ****   ins |= ((uint32_t) ev2_config->level) << CCU4_CC4_INS2_EV2LM_Pos;
 937              	 .loc 1 710 0
 938 0024 0F4C     	 ldr r4,.L60+4
 939 0026 2340     	 and r3,r4
 940              	.LVL122:
 711:../Libraries/XMCLib/src/xmc_ccu4.c ****   
 941              	 .loc 1 711 0
 942 0028 9478     	 ldrb r4,[r2,#2]
 943 002a A402     	 lsl r4,r4,#10
 944 002c 2343     	 orr r3,r4
 945              	.LVL123:
 714:../Libraries/XMCLib/src/xmc_ccu4.c ****   ins |= ((uint32_t) ev1_config->duration) << CCU4_CC4_INS2_LPF1M_Pos;
 946              	 .loc 1 714 0
 947 002e 0E4C     	 ldr r4,.L60+8
 948 0030 2340     	 and r3,r4
 949              	.LVL124:
 715:../Libraries/XMCLib/src/xmc_ccu4.c **** 
 950              	 .loc 1 715 0
 951 0032 CC78     	 ldrb r4,[r1,#3]
 952 0034 2405     	 lsl r4,r4,#20
 953 0036 2343     	 orr r3,r4
 954              	.LVL125:
 718:../Libraries/XMCLib/src/xmc_ccu4.c ****   ins |= ((uint32_t) ev2_config->duration) << CCU4_CC4_INS2_LPF2M_Pos;
 955              	 .loc 1 718 0
 956 0038 0C4C     	 ldr r4,.L60+12
 957 003a 2340     	 and r3,r4
 958              	.LVL126:
 719:../Libraries/XMCLib/src/xmc_ccu4.c ****   
 959              	 .loc 1 719 0
 960 003c D478     	 ldrb r4,[r2,#3]
 961 003e 2406     	 lsl r4,r4,#24
 962 0040 2343     	 orr r3,r4
 963              	.LVL127:
 721:../Libraries/XMCLib/src/xmc_ccu4.c ****   
 964              	 .loc 1 721 0
 965 0042 0360     	 str r3,[r0]
 723:../Libraries/XMCLib/src/xmc_ccu4.c ****   
 966              	 .loc 1 723 0
 967 0044 D830     	 add r0,r0,#216
 968              	.LVL128:
 969 0046 0468     	 ldr r4,[r0]
 970              	.LVL129:
 726:../Libraries/XMCLib/src/xmc_ccu4.c ****   ins |= ((uint32_t) ev1_config->mapped_input) << CCU4_CC4_INS1_EV1IS_Pos;
 971              	 .loc 1 726 0
 972 0048 094B     	 ldr r3,.L60+16
 731:../Libraries/XMCLib/src/xmc_ccu4.c ****   
 973              	 .loc 1 731 0
 974 004a 1278     	 ldrb r2,[r2]
 975              	.LVL130:
 726:../Libraries/XMCLib/src/xmc_ccu4.c ****   ins |= ((uint32_t) ev1_config->mapped_input) << CCU4_CC4_INS1_EV1IS_Pos;
 976              	 .loc 1 726 0
 977 004c 1C40     	 and r4,r3
 978              	.LVL131:
 727:../Libraries/XMCLib/src/xmc_ccu4.c **** 
 979              	 .loc 1 727 0
 980 004e 0B78     	 ldrb r3,[r1]
 730:../Libraries/XMCLib/src/xmc_ccu4.c ****   ins |= ((uint32_t) ev2_config->mapped_input) << CCU4_CC4_INS1_EV2IS_Pos;
 981              	 .loc 1 730 0
 982 0050 0849     	 ldr r1,.L60+20
 983              	.LVL132:
 727:../Libraries/XMCLib/src/xmc_ccu4.c **** 
 984              	 .loc 1 727 0
 985 0052 1B02     	 lsl r3,r3,#8
 986 0054 2343     	 orr r3,r4
 987              	.LVL133:
 730:../Libraries/XMCLib/src/xmc_ccu4.c ****   ins |= ((uint32_t) ev2_config->mapped_input) << CCU4_CC4_INS1_EV2IS_Pos;
 988              	 .loc 1 730 0
 989 0056 0B40     	 and r3,r1
 990              	.LVL134:
 731:../Libraries/XMCLib/src/xmc_ccu4.c ****   
 991              	 .loc 1 731 0
 992 0058 1204     	 lsl r2,r2,#16
 993 005a 1343     	 orr r3,r2
 994              	.LVL135:
 733:../Libraries/XMCLib/src/xmc_ccu4.c **** #else
 995              	 .loc 1 733 0
 996 005c 0360     	 str r3,[r0]
 997              	 .loc 1 771 0
 998 005e 10BD     	 pop {r4,pc}
 999              	.L61:
 1000              	 .align 2
 1001              	.L60:
 1002 0060 FFFCFFFF 	 .word -769
 1003 0064 FFFBFFFF 	 .word -1025
 1004 0068 FFFFCFFF 	 .word -3145729
 1005 006c FFFFFFFC 	 .word -50331649
 1006 0070 FFC0FFFF 	 .word -16129
 1007 0074 FFFFC0FF 	 .word -4128769
 1008              	 .cfi_endproc
 1009              	.LFE138:
 1011              	 .section .text.XMC_CCU4_SLICE_ConfigureEvent,"ax",%progbits
 1012              	 .align 1
 1013              	 .global XMC_CCU4_SLICE_ConfigureEvent
 1014              	 .code 16
 1015              	 .thumb_func
 1017              	XMC_CCU4_SLICE_ConfigureEvent:
 1018              	.LFB139:
 772:../Libraries/XMCLib/src/xmc_ccu4.c **** 
 773:../Libraries/XMCLib/src/xmc_ccu4.c **** /* API to configure a slice trigger event */
 774:../Libraries/XMCLib/src/xmc_ccu4.c **** void XMC_CCU4_SLICE_ConfigureEvent(XMC_CCU4_SLICE_t *const slice,
 775:../Libraries/XMCLib/src/xmc_ccu4.c ****                                    const XMC_CCU4_SLICE_EVENT_t event,
 776:../Libraries/XMCLib/src/xmc_ccu4.c ****                                    const XMC_CCU4_SLICE_EVENT_CONFIG_t *const config)
 777:../Libraries/XMCLib/src/xmc_ccu4.c **** {
 1019              	 .loc 1 777 0
 1020              	 .cfi_startproc
 1021              	.LVL136:
 1022 0000 F0B5     	 push {r4,r5,r6,r7,lr}
 1023              	.LCFI9:
 1024              	 .cfi_def_cfa_offset 20
 1025              	 .cfi_offset 4,-20
 1026              	 .cfi_offset 5,-16
 1027              	 .cfi_offset 6,-12
 1028              	 .cfi_offset 7,-8
 1029              	 .cfi_offset 14,-4
 778:../Libraries/XMCLib/src/xmc_ccu4.c ****   uint32_t ins;
 779:../Libraries/XMCLib/src/xmc_ccu4.c ****   uint8_t  pos;
 780:../Libraries/XMCLib/src/xmc_ccu4.c ****   uint8_t  offset;
 781:../Libraries/XMCLib/src/xmc_ccu4.c **** 
 782:../Libraries/XMCLib/src/xmc_ccu4.c ****   XMC_ASSERT("XMC_CCU4_SLICE_ConfigureEvent:Invalid Slice Pointer", XMC_CCU4_IsValidSlice(slice));
 783:../Libraries/XMCLib/src/xmc_ccu4.c ****   XMC_ASSERT("XMC_CCU4_SLICE_ConfigureEvent:Invalid Event ID", XMC_CCU4_SLICE_CHECK_EVENT_ID(event)
 784:../Libraries/XMCLib/src/xmc_ccu4.c ****   XMC_ASSERT("XMC_CCU4_SLICE_ConfigureEvent:Invalid Input", XMC_CCU4_SLICE_IsInputvalid(config->map
 785:../Libraries/XMCLib/src/xmc_ccu4.c ****   XMC_ASSERT("XMC_CCU4_SLICE_ConfigureEvent:Invalid Edge Sensitivity",
 786:../Libraries/XMCLib/src/xmc_ccu4.c ****              XMC_CCU4_SLICE_CHECK_EDGE_SENSITIVITY(config->edge));
 787:../Libraries/XMCLib/src/xmc_ccu4.c ****   XMC_ASSERT("XMC_CCU4_SLICE_ConfigureEvent:Invalid Level Sensitivity",
 788:../Libraries/XMCLib/src/xmc_ccu4.c ****              ((config->level == XMC_CCU4_SLICE_EVENT_LEVEL_SENSITIVITY_ACTIVE_HIGH) ||\
 789:../Libraries/XMCLib/src/xmc_ccu4.c ****               (config->level == XMC_CCU4_SLICE_EVENT_LEVEL_SENSITIVITY_ACTIVE_LOW)));
 790:../Libraries/XMCLib/src/xmc_ccu4.c ****   XMC_ASSERT("XMC_CCU4_SLICE_ConfigureEvent:Invalid Debounce Period", 
 791:../Libraries/XMCLib/src/xmc_ccu4.c ****              XMC_CCU4_SLICE_CHECK_EVENT_FILTER(config->duration));
 792:../Libraries/XMCLib/src/xmc_ccu4.c ****   /* Calculate offset with reference to event */
 793:../Libraries/XMCLib/src/xmc_ccu4.c ****   offset = ((uint8_t) event) - 1U;
 794:../Libraries/XMCLib/src/xmc_ccu4.c ****   
 795:../Libraries/XMCLib/src/xmc_ccu4.c **** #if defined(CCU4V3) /* Defined for XMC1400 devices only */
 796:../Libraries/XMCLib/src/xmc_ccu4.c ****   ins = slice->INS2;
 797:../Libraries/XMCLib/src/xmc_ccu4.c **** 
 798:../Libraries/XMCLib/src/xmc_ccu4.c ****   /* First, configure the edge sensitivity */
 799:../Libraries/XMCLib/src/xmc_ccu4.c ****   pos = ((uint8_t) CCU4_CC4_INS2_EV0EM_Pos) + (uint8_t)(offset << 2U);
 800:../Libraries/XMCLib/src/xmc_ccu4.c ****   ins &= ~(((uint32_t) XMC_CCU4_SLICE_EVENT_EDGE_CONFIG_MASK) << pos);
 1030              	 .loc 1 800 0
 1031 0002 0326     	 mov r6,#3
 1032 0004 351C     	 mov r5,r6
 793:../Libraries/XMCLib/src/xmc_ccu4.c ****   
 1033              	 .loc 1 793 0
 1034 0006 0139     	 sub r1,r1,#1
 1035              	.LVL137:
 1036 0008 C9B2     	 uxtb r1,r1
 1037              	.LVL138:
 799:../Libraries/XMCLib/src/xmc_ccu4.c ****   ins &= ~(((uint32_t) XMC_CCU4_SLICE_EVENT_EDGE_CONFIG_MASK) << pos);
 1038              	 .loc 1 799 0
 1039 000a 8B00     	 lsl r3,r1,#2
 1040 000c DBB2     	 uxtb r3,r3
 1041              	 .loc 1 800 0
 1042 000e 9D40     	 lsl r5,r5,r3
 796:../Libraries/XMCLib/src/xmc_ccu4.c **** 
 1043              	 .loc 1 796 0
 1044 0010 0468     	 ldr r4,[r0]
 1045              	.LVL139:
 801:../Libraries/XMCLib/src/xmc_ccu4.c ****   ins |= ((uint32_t) config->edge) << pos;
 802:../Libraries/XMCLib/src/xmc_ccu4.c **** 
 803:../Libraries/XMCLib/src/xmc_ccu4.c ****   /* Next, the level */
 804:../Libraries/XMCLib/src/xmc_ccu4.c ****   pos = ((uint8_t) CCU4_CC4_INS2_EV0LM_Pos) + (uint8_t)(offset << 2U);
 805:../Libraries/XMCLib/src/xmc_ccu4.c ****   ins &= ~(((uint32_t) XMC_CCU4_SLICE_EVENT_LEVEL_CONFIG_MASK) << pos);
 1046              	 .loc 1 805 0
 1047 0012 0127     	 mov r7,#1
 800:../Libraries/XMCLib/src/xmc_ccu4.c ****   ins |= ((uint32_t) config->edge) << pos;
 1048              	 .loc 1 800 0
 1049 0014 AC43     	 bic r4,r5
 1050              	.LVL140:
 801:../Libraries/XMCLib/src/xmc_ccu4.c ****   ins |= ((uint32_t) config->edge) << pos;
 1051              	 .loc 1 801 0
 1052 0016 5578     	 ldrb r5,[r2,#1]
 806:../Libraries/XMCLib/src/xmc_ccu4.c ****   ins |= ((uint32_t) config->level) << pos;
 807:../Libraries/XMCLib/src/xmc_ccu4.c **** 
 808:../Libraries/XMCLib/src/xmc_ccu4.c ****   /* Next, the debounce filter */
 809:../Libraries/XMCLib/src/xmc_ccu4.c ****   pos = ((uint8_t) CCU4_CC4_INS2_LPF0M_Pos) + (uint8_t)(offset << 2U);
 810:../Libraries/XMCLib/src/xmc_ccu4.c ****   ins &= ~(((uint32_t) XMC_CCU4_SLICE_EVENT_FILTER_CONFIG_MASK) << pos);
 811:../Libraries/XMCLib/src/xmc_ccu4.c ****   ins |= ((uint32_t) config->duration) << pos;
 812:../Libraries/XMCLib/src/xmc_ccu4.c **** 
 813:../Libraries/XMCLib/src/xmc_ccu4.c ****   slice->INS2 = ins;
 814:../Libraries/XMCLib/src/xmc_ccu4.c **** 
 815:../Libraries/XMCLib/src/xmc_ccu4.c ****   ins = slice->INS1;
 816:../Libraries/XMCLib/src/xmc_ccu4.c **** 
 817:../Libraries/XMCLib/src/xmc_ccu4.c ****   /* Finally the input */
 818:../Libraries/XMCLib/src/xmc_ccu4.c ****   pos = ((uint8_t) CCU4_CC4_INS1_EV0IS_Pos) + (uint8_t)(offset << 3U);
 1053              	 .loc 1 818 0
 1054 0018 C900     	 lsl r1,r1,#3
 1055              	.LVL141:
 801:../Libraries/XMCLib/src/xmc_ccu4.c **** 
 1056              	 .loc 1 801 0
 1057 001a 9D40     	 lsl r5,r5,r3
 1058 001c 2C43     	 orr r4,r5
 1059              	.LVL142:
 804:../Libraries/XMCLib/src/xmc_ccu4.c ****   ins &= ~(((uint32_t) XMC_CCU4_SLICE_EVENT_LEVEL_CONFIG_MASK) << pos);
 1060              	 .loc 1 804 0
 1061 001e 9D1C     	 add r5,r3,#2
 805:../Libraries/XMCLib/src/xmc_ccu4.c ****   ins |= ((uint32_t) config->level) << pos;
 1062              	 .loc 1 805 0
 1063 0020 EDB2     	 uxtb r5,r5
 1064 0022 AF40     	 lsl r7,r7,r5
 1065 0024 BC43     	 bic r4,r7
 1066              	.LVL143:
 806:../Libraries/XMCLib/src/xmc_ccu4.c **** 
 1067              	 .loc 1 806 0
 1068 0026 9778     	 ldrb r7,[r2,#2]
 809:../Libraries/XMCLib/src/xmc_ccu4.c ****   ins &= ~(((uint32_t) XMC_CCU4_SLICE_EVENT_FILTER_CONFIG_MASK) << pos);
 1069              	 .loc 1 809 0
 1070 0028 1033     	 add r3,r3,#16
 1071              	.LVL144:
 806:../Libraries/XMCLib/src/xmc_ccu4.c **** 
 1072              	 .loc 1 806 0
 1073 002a AF40     	 lsl r7,r7,r5
 811:../Libraries/XMCLib/src/xmc_ccu4.c **** 
 1074              	 .loc 1 811 0
 1075 002c D578     	 ldrb r5,[r2,#3]
 810:../Libraries/XMCLib/src/xmc_ccu4.c ****   ins |= ((uint32_t) config->duration) << pos;
 1076              	 .loc 1 810 0
 1077 002e DBB2     	 uxtb r3,r3
 1078              	.LVL145:
 1079 0030 9E40     	 lsl r6,r6,r3
 811:../Libraries/XMCLib/src/xmc_ccu4.c **** 
 1080              	 .loc 1 811 0
 1081 0032 9D40     	 lsl r5,r5,r3
 819:../Libraries/XMCLib/src/xmc_ccu4.c ****   ins &= ~(((uint32_t) XMC_CCU4_SLICE_EVENT_INPUT_CONFIG_MASK) << pos);
 1082              	 .loc 1 819 0
 1083 0034 3F23     	 mov r3,#63
 1084 0036 C9B2     	 uxtb r1,r1
 1085 0038 8B40     	 lsl r3,r3,r1
 806:../Libraries/XMCLib/src/xmc_ccu4.c **** 
 1086              	 .loc 1 806 0
 1087 003a 3C43     	 orr r4,r7
 1088              	.LVL146:
 810:../Libraries/XMCLib/src/xmc_ccu4.c ****   ins |= ((uint32_t) config->duration) << pos;
 1089              	 .loc 1 810 0
 1090 003c B443     	 bic r4,r6
 1091              	.LVL147:
 811:../Libraries/XMCLib/src/xmc_ccu4.c **** 
 1092              	 .loc 1 811 0
 1093 003e 2C43     	 orr r4,r5
 1094              	.LVL148:
 813:../Libraries/XMCLib/src/xmc_ccu4.c **** 
 1095              	 .loc 1 813 0
 1096 0040 0460     	 str r4,[r0]
 815:../Libraries/XMCLib/src/xmc_ccu4.c **** 
 1097              	 .loc 1 815 0
 1098 0042 D830     	 add r0,r0,#216
 1099              	.LVL149:
 1100 0044 0468     	 ldr r4,[r0]
 1101              	.LVL150:
 820:../Libraries/XMCLib/src/xmc_ccu4.c ****   ins |= ((uint32_t) config->mapped_input) << pos;
 821:../Libraries/XMCLib/src/xmc_ccu4.c **** 
 822:../Libraries/XMCLib/src/xmc_ccu4.c ****   slice->INS1 = ins;
 823:../Libraries/XMCLib/src/xmc_ccu4.c **** 
 824:../Libraries/XMCLib/src/xmc_ccu4.c **** #else
 825:../Libraries/XMCLib/src/xmc_ccu4.c ****   ins = slice->INS;
 826:../Libraries/XMCLib/src/xmc_ccu4.c ****   
 827:../Libraries/XMCLib/src/xmc_ccu4.c ****   /* First, configure the edge sensitivity */
 828:../Libraries/XMCLib/src/xmc_ccu4.c ****   pos = ((uint8_t) CCU4_CC4_INS_EV0EM_Pos) + (uint8_t)(offset << 1U);
 829:../Libraries/XMCLib/src/xmc_ccu4.c ****   ins &= ~(((uint32_t) XMC_CCU4_SLICE_EVENT_EDGE_CONFIG_MASK) << pos);
 830:../Libraries/XMCLib/src/xmc_ccu4.c ****   ins |= ((uint32_t) config->edge) << pos;
 831:../Libraries/XMCLib/src/xmc_ccu4.c ****   
 832:../Libraries/XMCLib/src/xmc_ccu4.c ****   /* Next, the level */
 833:../Libraries/XMCLib/src/xmc_ccu4.c ****   pos = ((uint8_t) CCU4_CC4_INS_EV0LM_Pos) + offset;
 834:../Libraries/XMCLib/src/xmc_ccu4.c ****   ins &= ~(((uint32_t) XMC_CCU4_SLICE_EVENT_LEVEL_CONFIG_MASK) << pos);
 835:../Libraries/XMCLib/src/xmc_ccu4.c ****   ins |= ((uint32_t) config->level) << pos;
 836:../Libraries/XMCLib/src/xmc_ccu4.c ****   
 837:../Libraries/XMCLib/src/xmc_ccu4.c ****   /* Next, the debounce filter */
 838:../Libraries/XMCLib/src/xmc_ccu4.c ****   pos = ((uint8_t) CCU4_CC4_INS_LPF0M_Pos) + (uint8_t)(offset << 1U);
 839:../Libraries/XMCLib/src/xmc_ccu4.c ****   ins &= ~(((uint32_t) XMC_CCU4_SLICE_EVENT_FILTER_CONFIG_MASK) << pos);
 840:../Libraries/XMCLib/src/xmc_ccu4.c ****   ins |= ((uint32_t) config->duration) << pos;
 841:../Libraries/XMCLib/src/xmc_ccu4.c **** 
 842:../Libraries/XMCLib/src/xmc_ccu4.c ****   /* Finally the input */
 843:../Libraries/XMCLib/src/xmc_ccu4.c ****   pos = ((uint8_t) CCU4_CC4_INS_EV0IS_Pos) + (uint8_t)(offset << 2U);
