   1              	 .cpu cortex-m0
   2              	 .fpu softvfp
   3              	 .eabi_attribute 20,1
   4              	 .eabi_attribute 21,1
   5              	 .eabi_attribute 23,3
   6              	 .eabi_attribute 24,1
   7              	 .eabi_attribute 25,1
   8              	 .eabi_attribute 26,1
   9              	 .eabi_attribute 30,4
  10              	 .eabi_attribute 34,0
  11              	 .eabi_attribute 18,4
  12              	 .code 16
  13              	 .file "optiga_crypt.c"
  14              	 .text
  15              	.Ltext0:
  16              	 .cfi_sections .debug_frame
  17              	 .section .text.optiga_crypt_generic_event_handler,"ax",%progbits
  18              	 .align 1
  19              	 .code 16
  20              	 .thumb_func
  22              	optiga_crypt_generic_event_handler:
  23              	.LFB0:
  24              	 .file 1 "C:/Workspace/DAVE-4.4.2-64Bit/optiga-trust-m/optiga/crypt/optiga_crypt.c"
   1:C:/Workspace/DAVE-4.4.2-64Bit/optiga-trust-m/optiga/crypt\optiga_crypt.c **** /**
   2:C:/Workspace/DAVE-4.4.2-64Bit/optiga-trust-m/optiga/crypt\optiga_crypt.c **** * \copyright
   3:C:/Workspace/DAVE-4.4.2-64Bit/optiga-trust-m/optiga/crypt\optiga_crypt.c **** * MIT License
   4:C:/Workspace/DAVE-4.4.2-64Bit/optiga-trust-m/optiga/crypt\optiga_crypt.c **** *
   5:C:/Workspace/DAVE-4.4.2-64Bit/optiga-trust-m/optiga/crypt\optiga_crypt.c **** * Copyright (c) 2019 Infineon Technologies AG
   6:C:/Workspace/DAVE-4.4.2-64Bit/optiga-trust-m/optiga/crypt\optiga_crypt.c **** *
   7:C:/Workspace/DAVE-4.4.2-64Bit/optiga-trust-m/optiga/crypt\optiga_crypt.c **** * Permission is hereby granted, free of charge, to any person obtaining a copy
   8:C:/Workspace/DAVE-4.4.2-64Bit/optiga-trust-m/optiga/crypt\optiga_crypt.c **** * of this software and associated documentation files (the "Software"), to deal
   9:C:/Workspace/DAVE-4.4.2-64Bit/optiga-trust-m/optiga/crypt\optiga_crypt.c **** * in the Software without restriction, including without limitation the rights
  10:C:/Workspace/DAVE-4.4.2-64Bit/optiga-trust-m/optiga/crypt\optiga_crypt.c **** * to use, copy, modify, merge, publish, distribute, sublicense, and/or sell
  11:C:/Workspace/DAVE-4.4.2-64Bit/optiga-trust-m/optiga/crypt\optiga_crypt.c **** * copies of the Software, and to permit persons to whom the Software is
  12:C:/Workspace/DAVE-4.4.2-64Bit/optiga-trust-m/optiga/crypt\optiga_crypt.c **** * furnished to do so, subject to the following conditions:
  13:C:/Workspace/DAVE-4.4.2-64Bit/optiga-trust-m/optiga/crypt\optiga_crypt.c **** *
  14:C:/Workspace/DAVE-4.4.2-64Bit/optiga-trust-m/optiga/crypt\optiga_crypt.c **** * The above copyright notice and this permission notice shall be included in all
  15:C:/Workspace/DAVE-4.4.2-64Bit/optiga-trust-m/optiga/crypt\optiga_crypt.c **** * copies or substantial portions of the Software.
  16:C:/Workspace/DAVE-4.4.2-64Bit/optiga-trust-m/optiga/crypt\optiga_crypt.c **** *
  17:C:/Workspace/DAVE-4.4.2-64Bit/optiga-trust-m/optiga/crypt\optiga_crypt.c **** * THE SOFTWARE IS PROVIDED "AS IS", WITHOUT WARRANTY OF ANY KIND, EXPRESS OR
  18:C:/Workspace/DAVE-4.4.2-64Bit/optiga-trust-m/optiga/crypt\optiga_crypt.c **** * IMPLIED, INCLUDING BUT NOT LIMITED TO THE WARRANTIES OF MERCHANTABILITY,
  19:C:/Workspace/DAVE-4.4.2-64Bit/optiga-trust-m/optiga/crypt\optiga_crypt.c **** * FITNESS FOR A PARTICULAR PURPOSE AND NONINFRINGEMENT. IN NO EVENT SHALL THE
  20:C:/Workspace/DAVE-4.4.2-64Bit/optiga-trust-m/optiga/crypt\optiga_crypt.c **** * AUTHORS OR COPYRIGHT HOLDERS BE LIABLE FOR ANY CLAIM, DAMAGES OR OTHER
  21:C:/Workspace/DAVE-4.4.2-64Bit/optiga-trust-m/optiga/crypt\optiga_crypt.c **** * LIABILITY, WHETHER IN AN ACTION OF CONTRACT, TORT OR OTHERWISE, ARISING FROM,
  22:C:/Workspace/DAVE-4.4.2-64Bit/optiga-trust-m/optiga/crypt\optiga_crypt.c **** * OUT OF OR IN CONNECTION WITH THE SOFTWARE OR THE USE OR OTHER DEALINGS IN THE
  23:C:/Workspace/DAVE-4.4.2-64Bit/optiga-trust-m/optiga/crypt\optiga_crypt.c **** * SOFTWARE
  24:C:/Workspace/DAVE-4.4.2-64Bit/optiga-trust-m/optiga/crypt\optiga_crypt.c **** *
  25:C:/Workspace/DAVE-4.4.2-64Bit/optiga-trust-m/optiga/crypt\optiga_crypt.c **** * \endcopyright
  26:C:/Workspace/DAVE-4.4.2-64Bit/optiga-trust-m/optiga/crypt\optiga_crypt.c **** *
  27:C:/Workspace/DAVE-4.4.2-64Bit/optiga-trust-m/optiga/crypt\optiga_crypt.c **** * \author Infineon Technologies AG
  28:C:/Workspace/DAVE-4.4.2-64Bit/optiga-trust-m/optiga/crypt\optiga_crypt.c **** *
  29:C:/Workspace/DAVE-4.4.2-64Bit/optiga-trust-m/optiga/crypt\optiga_crypt.c **** * \file optiga_crypt.c
  30:C:/Workspace/DAVE-4.4.2-64Bit/optiga-trust-m/optiga/crypt\optiga_crypt.c **** *
  31:C:/Workspace/DAVE-4.4.2-64Bit/optiga-trust-m/optiga/crypt\optiga_crypt.c **** * \brief   This file implements the OPTIGA Crypt module.
  32:C:/Workspace/DAVE-4.4.2-64Bit/optiga-trust-m/optiga/crypt\optiga_crypt.c **** *
  33:C:/Workspace/DAVE-4.4.2-64Bit/optiga-trust-m/optiga/crypt\optiga_crypt.c **** * \ingroup  grOptigaCrypt
  34:C:/Workspace/DAVE-4.4.2-64Bit/optiga-trust-m/optiga/crypt\optiga_crypt.c **** *
  35:C:/Workspace/DAVE-4.4.2-64Bit/optiga-trust-m/optiga/crypt\optiga_crypt.c **** * @{
  36:C:/Workspace/DAVE-4.4.2-64Bit/optiga-trust-m/optiga/crypt\optiga_crypt.c **** */
  37:C:/Workspace/DAVE-4.4.2-64Bit/optiga-trust-m/optiga/crypt\optiga_crypt.c **** 
  38:C:/Workspace/DAVE-4.4.2-64Bit/optiga-trust-m/optiga/crypt\optiga_crypt.c **** 
  39:C:/Workspace/DAVE-4.4.2-64Bit/optiga-trust-m/optiga/crypt\optiga_crypt.c **** #include "optiga/optiga_crypt.h"
  40:C:/Workspace/DAVE-4.4.2-64Bit/optiga-trust-m/optiga/crypt\optiga_crypt.c **** #include "optiga/common/optiga_lib_logger.h"
  41:C:/Workspace/DAVE-4.4.2-64Bit/optiga-trust-m/optiga/crypt\optiga_crypt.c **** #include "optiga/common/optiga_lib_common_internal.h"
  42:C:/Workspace/DAVE-4.4.2-64Bit/optiga-trust-m/optiga/crypt\optiga_crypt.c **** #include "optiga/pal/pal_os_memory.h"
  43:C:/Workspace/DAVE-4.4.2-64Bit/optiga-trust-m/optiga/crypt\optiga_crypt.c **** 
  44:C:/Workspace/DAVE-4.4.2-64Bit/optiga-trust-m/optiga/crypt\optiga_crypt.c **** /// ECDSA FIPS 186-3 without hash
  45:C:/Workspace/DAVE-4.4.2-64Bit/optiga-trust-m/optiga/crypt\optiga_crypt.c **** #define OPTIGA_CRYPT_ECDSA_FIPS_186_3_WITHOUT_HASH                  (0x11)
  46:C:/Workspace/DAVE-4.4.2-64Bit/optiga-trust-m/optiga/crypt\optiga_crypt.c **** /// Elliptic Curve Diffie-Hellman key agreement algorithm
  47:C:/Workspace/DAVE-4.4.2-64Bit/optiga-trust-m/optiga/crypt\optiga_crypt.c **** #define OPTIGA_CRYPT_ECDH_KEY_AGREEMENT_ALGORITHM                   (0x01)
  48:C:/Workspace/DAVE-4.4.2-64Bit/optiga-trust-m/optiga/crypt\optiga_crypt.c **** /// Minimum length of random data
  49:C:/Workspace/DAVE-4.4.2-64Bit/optiga-trust-m/optiga/crypt\optiga_crypt.c **** #define OPTIGA_CRYPT_MINIMUM_RANDOM_DATA_LENGTH                     (0x08)
  50:C:/Workspace/DAVE-4.4.2-64Bit/optiga-trust-m/optiga/crypt\optiga_crypt.c **** /// Param type for optiga pre-master secret
  51:C:/Workspace/DAVE-4.4.2-64Bit/optiga-trust-m/optiga/crypt\optiga_crypt.c **** #define OPTIGA_CRYTP_RANDOM_PARAM_PRE_MASTER_SECRET                 (0x04)
  52:C:/Workspace/DAVE-4.4.2-64Bit/optiga-trust-m/optiga/crypt\optiga_crypt.c **** /// Minimum optional data length
  53:C:/Workspace/DAVE-4.4.2-64Bit/optiga-trust-m/optiga/crypt\optiga_crypt.c **** #define OPTIGA_CRYTP_MINIMUM_OPTIONAL_DATA_LENGTH                   (0x28)
  54:C:/Workspace/DAVE-4.4.2-64Bit/optiga-trust-m/optiga/crypt\optiga_crypt.c **** 
  55:C:/Workspace/DAVE-4.4.2-64Bit/optiga-trust-m/optiga/crypt\optiga_crypt.c **** _STATIC_H void optiga_crypt_generic_event_handler(void * p_ctx,
  56:C:/Workspace/DAVE-4.4.2-64Bit/optiga-trust-m/optiga/crypt\optiga_crypt.c ****                                                   optiga_lib_status_t event)
  57:C:/Workspace/DAVE-4.4.2-64Bit/optiga-trust-m/optiga/crypt\optiga_crypt.c **** {
  25              	 .loc 1 57 0
  26              	 .cfi_startproc
  27              	.LVL0:
  28 0000 10B5     	 push {r4,lr}
  29              	.LCFI0:
  30              	 .cfi_def_cfa_offset 8
  31              	 .cfi_offset 4,-8
  32              	 .cfi_offset 14,-4
  33              	 .loc 1 57 0
  34 0002 041C     	 mov r4,r0
  58:C:/Workspace/DAVE-4.4.2-64Bit/optiga-trust-m/optiga/crypt\optiga_crypt.c ****     optiga_crypt_t * me = (optiga_crypt_t *)p_ctx;
  59:C:/Workspace/DAVE-4.4.2-64Bit/optiga-trust-m/optiga/crypt\optiga_crypt.c **** 
  60:C:/Workspace/DAVE-4.4.2-64Bit/optiga-trust-m/optiga/crypt\optiga_crypt.c ****     me->handler(me->caller_context, event);
  35              	 .loc 1 60 0
  36 0004 406A     	 ldr r0,[r0,#36]
  37              	.LVL1:
  38 0006 A36A     	 ldr r3,[r4,#40]
  39 0008 9847     	 blx r3
  40              	.LVL2:
  61:C:/Workspace/DAVE-4.4.2-64Bit/optiga-trust-m/optiga/crypt\optiga_crypt.c ****     me->instance_state = OPTIGA_LIB_INSTANCE_FREE;
  41              	 .loc 1 61 0
  42 000a 0023     	 mov r3,#0
  62:C:/Workspace/DAVE-4.4.2-64Bit/optiga-trust-m/optiga/crypt\optiga_crypt.c **** }
  43              	 .loc 1 62 0
  44              	 
  61:C:/Workspace/DAVE-4.4.2-64Bit/optiga-trust-m/optiga/crypt\optiga_crypt.c ****     me->instance_state = OPTIGA_LIB_INSTANCE_FREE;
  45              	 .loc 1 61 0
  46 000c A385     	 strh r3,[r4,#44]
  47              	.LVL3:
  48              	 .loc 1 62 0
  49 000e 10BD     	 pop {r4,pc}
  50              	 .cfi_endproc
  51              	.LFE0:
  53              	 .section .text.optiga_crypt_reset_protection_level,"ax",%progbits
  54              	 .align 1
  55              	 .code 16
  56              	 .thumb_func
  58              	optiga_crypt_reset_protection_level:
  59              	.LFB1:
  63:C:/Workspace/DAVE-4.4.2-64Bit/optiga-trust-m/optiga/crypt\optiga_crypt.c **** 
  64:C:/Workspace/DAVE-4.4.2-64Bit/optiga-trust-m/optiga/crypt\optiga_crypt.c **** _STATIC_H void optiga_crypt_reset_protection_level(optiga_crypt_t * me)
  65:C:/Workspace/DAVE-4.4.2-64Bit/optiga-trust-m/optiga/crypt\optiga_crypt.c **** {
  60              	 .loc 1 65 0
  61              	 .cfi_startproc
  62              	.LVL4:
  66:C:/Workspace/DAVE-4.4.2-64Bit/optiga-trust-m/optiga/crypt\optiga_crypt.c **** #ifdef OPTIGA_LIB_DEBUG_NULL_CHECK
  67:C:/Workspace/DAVE-4.4.2-64Bit/optiga-trust-m/optiga/crypt\optiga_crypt.c ****     if (NULL != me)
  63              	 .loc 1 67 0
  64 0000 0028     	 cmp r0,#0
  65 0002 02D0     	 beq .L2
  66              	.LVL5:
  67              	.LBB4:
  68              	.LBB5:
  68:C:/Workspace/DAVE-4.4.2-64Bit/optiga-trust-m/optiga/crypt\optiga_crypt.c **** #endif
  69:C:/Workspace/DAVE-4.4.2-64Bit/optiga-trust-m/optiga/crypt\optiga_crypt.c ****     {
  70:C:/Workspace/DAVE-4.4.2-64Bit/optiga-trust-m/optiga/crypt\optiga_crypt.c ****         OPTIGA_CRYPT_SET_COMMS_PROTECTION_LEVEL(me, OPTIGA_COMMS_DEFAULT_PROTECTION_LEVEL);
  71:C:/Workspace/DAVE-4.4.2-64Bit/optiga-trust-m/optiga/crypt\optiga_crypt.c ****     }
  72:C:/Workspace/DAVE-4.4.2-64Bit/optiga-trust-m/optiga/crypt\optiga_crypt.c **** }
  73:C:/Workspace/DAVE-4.4.2-64Bit/optiga-trust-m/optiga/crypt\optiga_crypt.c **** 
  74:C:/Workspace/DAVE-4.4.2-64Bit/optiga-trust-m/optiga/crypt\optiga_crypt.c **** extern void optiga_cmd_set_shielded_connection_option(optiga_cmd_t * me,
  75:C:/Workspace/DAVE-4.4.2-64Bit/optiga-trust-m/optiga/crypt\optiga_crypt.c ****                                                       uint8_t value,
  76:C:/Workspace/DAVE-4.4.2-64Bit/optiga-trust-m/optiga/crypt\optiga_crypt.c ****                                                       uint8_t shielded_connection_option);
  77:C:/Workspace/DAVE-4.4.2-64Bit/optiga-trust-m/optiga/crypt\optiga_crypt.c **** 
  78:C:/Workspace/DAVE-4.4.2-64Bit/optiga-trust-m/optiga/crypt\optiga_crypt.c **** #if defined (OPTIGA_CRYPT_ECC_GENERATE_KEYPAIR_ENABLED) || defined (OPTIGA_CRYPT_RSA_GENERATE_KEYPA
  79:C:/Workspace/DAVE-4.4.2-64Bit/optiga-trust-m/optiga/crypt\optiga_crypt.c **** _STATIC_H optiga_lib_status_t optiga_crypt_generate_keypair(optiga_crypt_t * me,
  80:C:/Workspace/DAVE-4.4.2-64Bit/optiga-trust-m/optiga/crypt\optiga_crypt.c ****                                                             uint8_t cmd_param,
  81:C:/Workspace/DAVE-4.4.2-64Bit/optiga-trust-m/optiga/crypt\optiga_crypt.c ****                                                             uint8_t key_usage,
  82:C:/Workspace/DAVE-4.4.2-64Bit/optiga-trust-m/optiga/crypt\optiga_crypt.c ****                                                             bool_t export_private_key,
  83:C:/Workspace/DAVE-4.4.2-64Bit/optiga-trust-m/optiga/crypt\optiga_crypt.c ****                                                             void * p_private_key,
  84:C:/Workspace/DAVE-4.4.2-64Bit/optiga-trust-m/optiga/crypt\optiga_crypt.c ****                                                             uint8_t * p_public_key,
  85:C:/Workspace/DAVE-4.4.2-64Bit/optiga-trust-m/optiga/crypt\optiga_crypt.c ****                                                             uint16_t * p_public_key_length)
  86:C:/Workspace/DAVE-4.4.2-64Bit/optiga-trust-m/optiga/crypt\optiga_crypt.c **** {
  87:C:/Workspace/DAVE-4.4.2-64Bit/optiga-trust-m/optiga/crypt\optiga_crypt.c ****     optiga_lib_status_t return_value = OPTIGA_CRYPT_ERROR;
  88:C:/Workspace/DAVE-4.4.2-64Bit/optiga-trust-m/optiga/crypt\optiga_crypt.c ****     optiga_gen_keypair_params_t * p_params;
  89:C:/Workspace/DAVE-4.4.2-64Bit/optiga-trust-m/optiga/crypt\optiga_crypt.c **** 
  90:C:/Workspace/DAVE-4.4.2-64Bit/optiga-trust-m/optiga/crypt\optiga_crypt.c ****     do
  91:C:/Workspace/DAVE-4.4.2-64Bit/optiga-trust-m/optiga/crypt\optiga_crypt.c ****     {
  92:C:/Workspace/DAVE-4.4.2-64Bit/optiga-trust-m/optiga/crypt\optiga_crypt.c **** #ifdef OPTIGA_LIB_DEBUG_NULL_CHECK
  93:C:/Workspace/DAVE-4.4.2-64Bit/optiga-trust-m/optiga/crypt\optiga_crypt.c ****         if ((NULL == me) || (NULL == me->my_cmd) ||
  94:C:/Workspace/DAVE-4.4.2-64Bit/optiga-trust-m/optiga/crypt\optiga_crypt.c ****             (NULL == p_public_key) || (NULL == p_private_key) || (NULL == p_public_key_length))
  95:C:/Workspace/DAVE-4.4.2-64Bit/optiga-trust-m/optiga/crypt\optiga_crypt.c ****         {
  96:C:/Workspace/DAVE-4.4.2-64Bit/optiga-trust-m/optiga/crypt\optiga_crypt.c ****             return_value = OPTIGA_CRYPT_ERROR_INVALID_INPUT;
  97:C:/Workspace/DAVE-4.4.2-64Bit/optiga-trust-m/optiga/crypt\optiga_crypt.c ****             break;
  98:C:/Workspace/DAVE-4.4.2-64Bit/optiga-trust-m/optiga/crypt\optiga_crypt.c ****         }
  99:C:/Workspace/DAVE-4.4.2-64Bit/optiga-trust-m/optiga/crypt\optiga_crypt.c **** #endif
 100:C:/Workspace/DAVE-4.4.2-64Bit/optiga-trust-m/optiga/crypt\optiga_crypt.c ****         if (OPTIGA_LIB_INSTANCE_BUSY == me->instance_state)
 101:C:/Workspace/DAVE-4.4.2-64Bit/optiga-trust-m/optiga/crypt\optiga_crypt.c ****         {
 102:C:/Workspace/DAVE-4.4.2-64Bit/optiga-trust-m/optiga/crypt\optiga_crypt.c ****             return_value = OPTIGA_CRYPT_ERROR_INSTANCE_IN_USE;
 103:C:/Workspace/DAVE-4.4.2-64Bit/optiga-trust-m/optiga/crypt\optiga_crypt.c ****             break;
 104:C:/Workspace/DAVE-4.4.2-64Bit/optiga-trust-m/optiga/crypt\optiga_crypt.c ****         }
 105:C:/Workspace/DAVE-4.4.2-64Bit/optiga-trust-m/optiga/crypt\optiga_crypt.c **** 
 106:C:/Workspace/DAVE-4.4.2-64Bit/optiga-trust-m/optiga/crypt\optiga_crypt.c ****         me->instance_state = OPTIGA_LIB_INSTANCE_BUSY;
 107:C:/Workspace/DAVE-4.4.2-64Bit/optiga-trust-m/optiga/crypt\optiga_crypt.c ****         p_params = (optiga_gen_keypair_params_t *)&(me->params.optiga_gen_keypair_params);
 108:C:/Workspace/DAVE-4.4.2-64Bit/optiga-trust-m/optiga/crypt\optiga_crypt.c ****         pal_os_memset(&me->params,0x00,sizeof(optiga_crypt_params_t));
 109:C:/Workspace/DAVE-4.4.2-64Bit/optiga-trust-m/optiga/crypt\optiga_crypt.c **** 
 110:C:/Workspace/DAVE-4.4.2-64Bit/optiga-trust-m/optiga/crypt\optiga_crypt.c ****         p_params->key_usage = key_usage;
 111:C:/Workspace/DAVE-4.4.2-64Bit/optiga-trust-m/optiga/crypt\optiga_crypt.c ****         p_params->export_private_key = export_private_key;
 112:C:/Workspace/DAVE-4.4.2-64Bit/optiga-trust-m/optiga/crypt\optiga_crypt.c ****         p_params->public_key_length = p_public_key_length;
 113:C:/Workspace/DAVE-4.4.2-64Bit/optiga-trust-m/optiga/crypt\optiga_crypt.c ****         OPTIGA_PROTECTION_ENABLE(me->my_cmd, me);
 114:C:/Workspace/DAVE-4.4.2-64Bit/optiga-trust-m/optiga/crypt\optiga_crypt.c ****         OPTIGA_PROTECTION_SET_VERSION(me->my_cmd, me);
 115:C:/Workspace/DAVE-4.4.2-64Bit/optiga-trust-m/optiga/crypt\optiga_crypt.c **** 
 116:C:/Workspace/DAVE-4.4.2-64Bit/optiga-trust-m/optiga/crypt\optiga_crypt.c ****         if (export_private_key)
 117:C:/Workspace/DAVE-4.4.2-64Bit/optiga-trust-m/optiga/crypt\optiga_crypt.c ****         {
 118:C:/Workspace/DAVE-4.4.2-64Bit/optiga-trust-m/optiga/crypt\optiga_crypt.c ****             p_params->private_key = (uint8_t *)p_private_key;
 119:C:/Workspace/DAVE-4.4.2-64Bit/optiga-trust-m/optiga/crypt\optiga_crypt.c ****         }
 120:C:/Workspace/DAVE-4.4.2-64Bit/optiga-trust-m/optiga/crypt\optiga_crypt.c ****         else
 121:C:/Workspace/DAVE-4.4.2-64Bit/optiga-trust-m/optiga/crypt\optiga_crypt.c ****         {
 122:C:/Workspace/DAVE-4.4.2-64Bit/optiga-trust-m/optiga/crypt\optiga_crypt.c ****             p_params->private_key_oid = (optiga_key_id_t)(* ((uint16_t* )p_private_key));
 123:C:/Workspace/DAVE-4.4.2-64Bit/optiga-trust-m/optiga/crypt\optiga_crypt.c ****         }
 124:C:/Workspace/DAVE-4.4.2-64Bit/optiga-trust-m/optiga/crypt\optiga_crypt.c **** 
 125:C:/Workspace/DAVE-4.4.2-64Bit/optiga-trust-m/optiga/crypt\optiga_crypt.c ****         p_params->public_key = p_public_key;
 126:C:/Workspace/DAVE-4.4.2-64Bit/optiga-trust-m/optiga/crypt\optiga_crypt.c ****         p_params->public_key_length = p_public_key_length;
 127:C:/Workspace/DAVE-4.4.2-64Bit/optiga-trust-m/optiga/crypt\optiga_crypt.c **** 
 128:C:/Workspace/DAVE-4.4.2-64Bit/optiga-trust-m/optiga/crypt\optiga_crypt.c ****         return_value = optiga_cmd_gen_keypair(me->my_cmd,
 129:C:/Workspace/DAVE-4.4.2-64Bit/optiga-trust-m/optiga/crypt\optiga_crypt.c ****                                               (uint8_t )cmd_param,
 130:C:/Workspace/DAVE-4.4.2-64Bit/optiga-trust-m/optiga/crypt\optiga_crypt.c ****                                               (optiga_gen_keypair_params_t *)p_params);
 131:C:/Workspace/DAVE-4.4.2-64Bit/optiga-trust-m/optiga/crypt\optiga_crypt.c ****     } while (FALSE);
 132:C:/Workspace/DAVE-4.4.2-64Bit/optiga-trust-m/optiga/crypt\optiga_crypt.c ****     optiga_crypt_reset_protection_level(me);
 133:C:/Workspace/DAVE-4.4.2-64Bit/optiga-trust-m/optiga/crypt\optiga_crypt.c **** 
 134:C:/Workspace/DAVE-4.4.2-64Bit/optiga-trust-m/optiga/crypt\optiga_crypt.c ****     return (return_value);
 135:C:/Workspace/DAVE-4.4.2-64Bit/optiga-trust-m/optiga/crypt\optiga_crypt.c **** }
 136:C:/Workspace/DAVE-4.4.2-64Bit/optiga-trust-m/optiga/crypt\optiga_crypt.c **** #endif // (OPTIGA_CRYPT_ECC_GENERATE_KEYPAIR_ENABLED) || (OPTIGA_CRYPT_RSA_GENERATE_KEYPAIR_ENABLED
 137:C:/Workspace/DAVE-4.4.2-64Bit/optiga-trust-m/optiga/crypt\optiga_crypt.c **** 
 138:C:/Workspace/DAVE-4.4.2-64Bit/optiga-trust-m/optiga/crypt\optiga_crypt.c **** #if defined (OPTIGA_CRYPT_ECDSA_SIGN_ENABLED) || defined (OPTIGA_CRYPT_RSA_SIGN_ENABLED)
 139:C:/Workspace/DAVE-4.4.2-64Bit/optiga-trust-m/optiga/crypt\optiga_crypt.c **** //lint --e{715} suppress "The salt_length argument is kept for future use"
 140:C:/Workspace/DAVE-4.4.2-64Bit/optiga-trust-m/optiga/crypt\optiga_crypt.c **** _STATIC_H optiga_lib_status_t optiga_crypt_sign(optiga_crypt_t * me,
 141:C:/Workspace/DAVE-4.4.2-64Bit/optiga-trust-m/optiga/crypt\optiga_crypt.c ****                                                 uint8_t signature_scheme,
 142:C:/Workspace/DAVE-4.4.2-64Bit/optiga-trust-m/optiga/crypt\optiga_crypt.c ****                                                 const uint8_t * p_digest,
 143:C:/Workspace/DAVE-4.4.2-64Bit/optiga-trust-m/optiga/crypt\optiga_crypt.c ****                                                 uint8_t digest_length,
 144:C:/Workspace/DAVE-4.4.2-64Bit/optiga-trust-m/optiga/crypt\optiga_crypt.c ****                                                 optiga_key_id_t private_key,
 145:C:/Workspace/DAVE-4.4.2-64Bit/optiga-trust-m/optiga/crypt\optiga_crypt.c ****                                                 uint8_t * p_signature,
 146:C:/Workspace/DAVE-4.4.2-64Bit/optiga-trust-m/optiga/crypt\optiga_crypt.c ****                                                 uint16_t * p_signature_length,
 147:C:/Workspace/DAVE-4.4.2-64Bit/optiga-trust-m/optiga/crypt\optiga_crypt.c ****                                                 uint16_t salt_length)
 148:C:/Workspace/DAVE-4.4.2-64Bit/optiga-trust-m/optiga/crypt\optiga_crypt.c **** {
 149:C:/Workspace/DAVE-4.4.2-64Bit/optiga-trust-m/optiga/crypt\optiga_crypt.c ****     optiga_lib_status_t return_value = OPTIGA_CRYPT_ERROR;
 150:C:/Workspace/DAVE-4.4.2-64Bit/optiga-trust-m/optiga/crypt\optiga_crypt.c ****     optiga_calc_sign_params_t * p_params;
 151:C:/Workspace/DAVE-4.4.2-64Bit/optiga-trust-m/optiga/crypt\optiga_crypt.c **** 
 152:C:/Workspace/DAVE-4.4.2-64Bit/optiga-trust-m/optiga/crypt\optiga_crypt.c ****     do
 153:C:/Workspace/DAVE-4.4.2-64Bit/optiga-trust-m/optiga/crypt\optiga_crypt.c ****     {
 154:C:/Workspace/DAVE-4.4.2-64Bit/optiga-trust-m/optiga/crypt\optiga_crypt.c **** #ifdef OPTIGA_LIB_DEBUG_NULL_CHECK
 155:C:/Workspace/DAVE-4.4.2-64Bit/optiga-trust-m/optiga/crypt\optiga_crypt.c ****         if ((NULL == me) || (NULL == me->my_cmd) || (NULL == p_digest) ||
 156:C:/Workspace/DAVE-4.4.2-64Bit/optiga-trust-m/optiga/crypt\optiga_crypt.c ****             (NULL == p_signature) || (NULL == p_signature_length))
 157:C:/Workspace/DAVE-4.4.2-64Bit/optiga-trust-m/optiga/crypt\optiga_crypt.c ****         {
 158:C:/Workspace/DAVE-4.4.2-64Bit/optiga-trust-m/optiga/crypt\optiga_crypt.c ****             return_value = OPTIGA_CRYPT_ERROR_INVALID_INPUT;
 159:C:/Workspace/DAVE-4.4.2-64Bit/optiga-trust-m/optiga/crypt\optiga_crypt.c ****             break;
 160:C:/Workspace/DAVE-4.4.2-64Bit/optiga-trust-m/optiga/crypt\optiga_crypt.c ****         }
 161:C:/Workspace/DAVE-4.4.2-64Bit/optiga-trust-m/optiga/crypt\optiga_crypt.c **** #endif
 162:C:/Workspace/DAVE-4.4.2-64Bit/optiga-trust-m/optiga/crypt\optiga_crypt.c **** 
 163:C:/Workspace/DAVE-4.4.2-64Bit/optiga-trust-m/optiga/crypt\optiga_crypt.c ****         if (OPTIGA_LIB_INSTANCE_BUSY == me->instance_state)
 164:C:/Workspace/DAVE-4.4.2-64Bit/optiga-trust-m/optiga/crypt\optiga_crypt.c ****         {
 165:C:/Workspace/DAVE-4.4.2-64Bit/optiga-trust-m/optiga/crypt\optiga_crypt.c ****             return_value = OPTIGA_CRYPT_ERROR_INSTANCE_IN_USE;
 166:C:/Workspace/DAVE-4.4.2-64Bit/optiga-trust-m/optiga/crypt\optiga_crypt.c ****             break;
 167:C:/Workspace/DAVE-4.4.2-64Bit/optiga-trust-m/optiga/crypt\optiga_crypt.c ****         }
 168:C:/Workspace/DAVE-4.4.2-64Bit/optiga-trust-m/optiga/crypt\optiga_crypt.c **** 
 169:C:/Workspace/DAVE-4.4.2-64Bit/optiga-trust-m/optiga/crypt\optiga_crypt.c ****         me->instance_state = OPTIGA_LIB_INSTANCE_BUSY;
 170:C:/Workspace/DAVE-4.4.2-64Bit/optiga-trust-m/optiga/crypt\optiga_crypt.c **** 
 171:C:/Workspace/DAVE-4.4.2-64Bit/optiga-trust-m/optiga/crypt\optiga_crypt.c ****         p_params = (optiga_calc_sign_params_t *)&(me->params.optiga_calc_sign_params);
 172:C:/Workspace/DAVE-4.4.2-64Bit/optiga-trust-m/optiga/crypt\optiga_crypt.c ****         pal_os_memset(&me->params,0x00,sizeof(optiga_crypt_params_t));
 173:C:/Workspace/DAVE-4.4.2-64Bit/optiga-trust-m/optiga/crypt\optiga_crypt.c **** 
 174:C:/Workspace/DAVE-4.4.2-64Bit/optiga-trust-m/optiga/crypt\optiga_crypt.c ****         p_params->p_digest = p_digest;
 175:C:/Workspace/DAVE-4.4.2-64Bit/optiga-trust-m/optiga/crypt\optiga_crypt.c ****         p_params->digest_length = digest_length;
 176:C:/Workspace/DAVE-4.4.2-64Bit/optiga-trust-m/optiga/crypt\optiga_crypt.c ****         p_params->private_key_oid = private_key;
 177:C:/Workspace/DAVE-4.4.2-64Bit/optiga-trust-m/optiga/crypt\optiga_crypt.c ****         p_params->p_signature = p_signature;
 178:C:/Workspace/DAVE-4.4.2-64Bit/optiga-trust-m/optiga/crypt\optiga_crypt.c ****         p_params->p_signature_length = p_signature_length;
 179:C:/Workspace/DAVE-4.4.2-64Bit/optiga-trust-m/optiga/crypt\optiga_crypt.c ****         OPTIGA_PROTECTION_ENABLE(me->my_cmd, me);
 180:C:/Workspace/DAVE-4.4.2-64Bit/optiga-trust-m/optiga/crypt\optiga_crypt.c ****         OPTIGA_PROTECTION_SET_VERSION(me->my_cmd, me);
 181:C:/Workspace/DAVE-4.4.2-64Bit/optiga-trust-m/optiga/crypt\optiga_crypt.c **** 
 182:C:/Workspace/DAVE-4.4.2-64Bit/optiga-trust-m/optiga/crypt\optiga_crypt.c ****         return_value = optiga_cmd_calc_sign(me->my_cmd,
 183:C:/Workspace/DAVE-4.4.2-64Bit/optiga-trust-m/optiga/crypt\optiga_crypt.c ****                                             signature_scheme,
 184:C:/Workspace/DAVE-4.4.2-64Bit/optiga-trust-m/optiga/crypt\optiga_crypt.c ****                                             (optiga_calc_sign_params_t *)p_params);
 185:C:/Workspace/DAVE-4.4.2-64Bit/optiga-trust-m/optiga/crypt\optiga_crypt.c ****         if (OPTIGA_LIB_SUCCESS != return_value)
 186:C:/Workspace/DAVE-4.4.2-64Bit/optiga-trust-m/optiga/crypt\optiga_crypt.c ****         {
 187:C:/Workspace/DAVE-4.4.2-64Bit/optiga-trust-m/optiga/crypt\optiga_crypt.c ****             me->instance_state = OPTIGA_LIB_INSTANCE_FREE;
 188:C:/Workspace/DAVE-4.4.2-64Bit/optiga-trust-m/optiga/crypt\optiga_crypt.c ****         }
 189:C:/Workspace/DAVE-4.4.2-64Bit/optiga-trust-m/optiga/crypt\optiga_crypt.c ****     } while (FALSE);
 190:C:/Workspace/DAVE-4.4.2-64Bit/optiga-trust-m/optiga/crypt\optiga_crypt.c ****     optiga_crypt_reset_protection_level(me);
 191:C:/Workspace/DAVE-4.4.2-64Bit/optiga-trust-m/optiga/crypt\optiga_crypt.c **** 
 192:C:/Workspace/DAVE-4.4.2-64Bit/optiga-trust-m/optiga/crypt\optiga_crypt.c ****     return (return_value);
 193:C:/Workspace/DAVE-4.4.2-64Bit/optiga-trust-m/optiga/crypt\optiga_crypt.c **** }
 194:C:/Workspace/DAVE-4.4.2-64Bit/optiga-trust-m/optiga/crypt\optiga_crypt.c **** #endif // (OPTIGA_CRYPT_ECDSA_SIGN_ENABLED) || (OPTIGA_CRYPT_RSA_SIGN_ENABLED)
 195:C:/Workspace/DAVE-4.4.2-64Bit/optiga-trust-m/optiga/crypt\optiga_crypt.c **** 
 196:C:/Workspace/DAVE-4.4.2-64Bit/optiga-trust-m/optiga/crypt\optiga_crypt.c **** #if defined (OPTIGA_CRYPT_ECDSA_VERIFY_ENABLED) || defined (OPTIGA_CRYPT_RSA_VERIFY_ENABLED)
 197:C:/Workspace/DAVE-4.4.2-64Bit/optiga-trust-m/optiga/crypt\optiga_crypt.c **** //lint --e{715} suppress "The salt_length argument is kept for future use"
 198:C:/Workspace/DAVE-4.4.2-64Bit/optiga-trust-m/optiga/crypt\optiga_crypt.c **** _STATIC_H optiga_lib_status_t optiga_crypt_verify(optiga_crypt_t * me,
 199:C:/Workspace/DAVE-4.4.2-64Bit/optiga-trust-m/optiga/crypt\optiga_crypt.c ****                                                   uint8_t cmd_param,
 200:C:/Workspace/DAVE-4.4.2-64Bit/optiga-trust-m/optiga/crypt\optiga_crypt.c ****                                                   const uint8_t * p_digest,
 201:C:/Workspace/DAVE-4.4.2-64Bit/optiga-trust-m/optiga/crypt\optiga_crypt.c ****                                                   uint8_t digest_length,
 202:C:/Workspace/DAVE-4.4.2-64Bit/optiga-trust-m/optiga/crypt\optiga_crypt.c ****                                                   const uint8_t * p_signature,
 203:C:/Workspace/DAVE-4.4.2-64Bit/optiga-trust-m/optiga/crypt\optiga_crypt.c ****                                                   uint16_t signature_length,
 204:C:/Workspace/DAVE-4.4.2-64Bit/optiga-trust-m/optiga/crypt\optiga_crypt.c ****                                                   uint8_t public_key_source_type,
 205:C:/Workspace/DAVE-4.4.2-64Bit/optiga-trust-m/optiga/crypt\optiga_crypt.c ****                                                   const void * p_public_key,
 206:C:/Workspace/DAVE-4.4.2-64Bit/optiga-trust-m/optiga/crypt\optiga_crypt.c ****                                                   uint16_t salt_length)
 207:C:/Workspace/DAVE-4.4.2-64Bit/optiga-trust-m/optiga/crypt\optiga_crypt.c **** {
 208:C:/Workspace/DAVE-4.4.2-64Bit/optiga-trust-m/optiga/crypt\optiga_crypt.c ****     optiga_verify_sign_params_t * p_params;
 209:C:/Workspace/DAVE-4.4.2-64Bit/optiga-trust-m/optiga/crypt\optiga_crypt.c ****     optiga_lib_status_t return_value = OPTIGA_CRYPT_ERROR;
 210:C:/Workspace/DAVE-4.4.2-64Bit/optiga-trust-m/optiga/crypt\optiga_crypt.c **** 
 211:C:/Workspace/DAVE-4.4.2-64Bit/optiga-trust-m/optiga/crypt\optiga_crypt.c ****     do
 212:C:/Workspace/DAVE-4.4.2-64Bit/optiga-trust-m/optiga/crypt\optiga_crypt.c ****     {
 213:C:/Workspace/DAVE-4.4.2-64Bit/optiga-trust-m/optiga/crypt\optiga_crypt.c **** #ifdef OPTIGA_LIB_DEBUG_NULL_CHECK
 214:C:/Workspace/DAVE-4.4.2-64Bit/optiga-trust-m/optiga/crypt\optiga_crypt.c ****         if ((NULL == me) || (NULL == me->my_cmd) ||
 215:C:/Workspace/DAVE-4.4.2-64Bit/optiga-trust-m/optiga/crypt\optiga_crypt.c ****             (NULL == p_digest) || (NULL == p_signature) || (NULL == p_public_key))
 216:C:/Workspace/DAVE-4.4.2-64Bit/optiga-trust-m/optiga/crypt\optiga_crypt.c ****         {
 217:C:/Workspace/DAVE-4.4.2-64Bit/optiga-trust-m/optiga/crypt\optiga_crypt.c ****             return_value = OPTIGA_CRYPT_ERROR_INVALID_INPUT;
 218:C:/Workspace/DAVE-4.4.2-64Bit/optiga-trust-m/optiga/crypt\optiga_crypt.c ****             break;
 219:C:/Workspace/DAVE-4.4.2-64Bit/optiga-trust-m/optiga/crypt\optiga_crypt.c ****         }
 220:C:/Workspace/DAVE-4.4.2-64Bit/optiga-trust-m/optiga/crypt\optiga_crypt.c **** #endif
 221:C:/Workspace/DAVE-4.4.2-64Bit/optiga-trust-m/optiga/crypt\optiga_crypt.c **** 
 222:C:/Workspace/DAVE-4.4.2-64Bit/optiga-trust-m/optiga/crypt\optiga_crypt.c ****         if (OPTIGA_LIB_INSTANCE_BUSY == me->instance_state)
 223:C:/Workspace/DAVE-4.4.2-64Bit/optiga-trust-m/optiga/crypt\optiga_crypt.c ****         {
 224:C:/Workspace/DAVE-4.4.2-64Bit/optiga-trust-m/optiga/crypt\optiga_crypt.c ****             return_value = OPTIGA_CRYPT_ERROR_INSTANCE_IN_USE;
 225:C:/Workspace/DAVE-4.4.2-64Bit/optiga-trust-m/optiga/crypt\optiga_crypt.c ****             break;
 226:C:/Workspace/DAVE-4.4.2-64Bit/optiga-trust-m/optiga/crypt\optiga_crypt.c ****         }
 227:C:/Workspace/DAVE-4.4.2-64Bit/optiga-trust-m/optiga/crypt\optiga_crypt.c **** 
 228:C:/Workspace/DAVE-4.4.2-64Bit/optiga-trust-m/optiga/crypt\optiga_crypt.c ****         me->instance_state = OPTIGA_LIB_INSTANCE_BUSY;
 229:C:/Workspace/DAVE-4.4.2-64Bit/optiga-trust-m/optiga/crypt\optiga_crypt.c ****         p_params = (optiga_verify_sign_params_t *)&(me->params.optiga_verify_sign_params);
 230:C:/Workspace/DAVE-4.4.2-64Bit/optiga-trust-m/optiga/crypt\optiga_crypt.c ****         pal_os_memset(&me->params,0x00,sizeof(optiga_crypt_params_t));
 231:C:/Workspace/DAVE-4.4.2-64Bit/optiga-trust-m/optiga/crypt\optiga_crypt.c **** 
 232:C:/Workspace/DAVE-4.4.2-64Bit/optiga-trust-m/optiga/crypt\optiga_crypt.c ****         OPTIGA_PROTECTION_ENABLE(me->my_cmd, me);
 233:C:/Workspace/DAVE-4.4.2-64Bit/optiga-trust-m/optiga/crypt\optiga_crypt.c ****         OPTIGA_PROTECTION_SET_VERSION(me->my_cmd, me);
 234:C:/Workspace/DAVE-4.4.2-64Bit/optiga-trust-m/optiga/crypt\optiga_crypt.c ****         p_params->p_digest = p_digest;
 235:C:/Workspace/DAVE-4.4.2-64Bit/optiga-trust-m/optiga/crypt\optiga_crypt.c ****         p_params->digest_length = digest_length;
 236:C:/Workspace/DAVE-4.4.2-64Bit/optiga-trust-m/optiga/crypt\optiga_crypt.c ****         p_params->p_signature = p_signature;
 237:C:/Workspace/DAVE-4.4.2-64Bit/optiga-trust-m/optiga/crypt\optiga_crypt.c ****         p_params->signature_length = signature_length;
 238:C:/Workspace/DAVE-4.4.2-64Bit/optiga-trust-m/optiga/crypt\optiga_crypt.c ****         p_params->public_key_source_type = public_key_source_type;
 239:C:/Workspace/DAVE-4.4.2-64Bit/optiga-trust-m/optiga/crypt\optiga_crypt.c **** 
 240:C:/Workspace/DAVE-4.4.2-64Bit/optiga-trust-m/optiga/crypt\optiga_crypt.c ****         if (OPTIGA_CRYPT_OID_DATA == public_key_source_type)
 241:C:/Workspace/DAVE-4.4.2-64Bit/optiga-trust-m/optiga/crypt\optiga_crypt.c ****         {
 242:C:/Workspace/DAVE-4.4.2-64Bit/optiga-trust-m/optiga/crypt\optiga_crypt.c ****             p_params->certificate_oid = *((uint16_t *)p_public_key);
 243:C:/Workspace/DAVE-4.4.2-64Bit/optiga-trust-m/optiga/crypt\optiga_crypt.c ****         }
 244:C:/Workspace/DAVE-4.4.2-64Bit/optiga-trust-m/optiga/crypt\optiga_crypt.c ****         else
 245:C:/Workspace/DAVE-4.4.2-64Bit/optiga-trust-m/optiga/crypt\optiga_crypt.c ****         {
 246:C:/Workspace/DAVE-4.4.2-64Bit/optiga-trust-m/optiga/crypt\optiga_crypt.c ****             p_params->public_key = (public_key_from_host_t *)p_public_key;
 247:C:/Workspace/DAVE-4.4.2-64Bit/optiga-trust-m/optiga/crypt\optiga_crypt.c ****         }
 248:C:/Workspace/DAVE-4.4.2-64Bit/optiga-trust-m/optiga/crypt\optiga_crypt.c **** 
 249:C:/Workspace/DAVE-4.4.2-64Bit/optiga-trust-m/optiga/crypt\optiga_crypt.c ****         return_value = optiga_cmd_verify_sign(me->my_cmd,
 250:C:/Workspace/DAVE-4.4.2-64Bit/optiga-trust-m/optiga/crypt\optiga_crypt.c ****                                              (uint8_t)cmd_param,
 251:C:/Workspace/DAVE-4.4.2-64Bit/optiga-trust-m/optiga/crypt\optiga_crypt.c ****                                              (optiga_verify_sign_params_t *)p_params);
 252:C:/Workspace/DAVE-4.4.2-64Bit/optiga-trust-m/optiga/crypt\optiga_crypt.c ****         if (OPTIGA_LIB_SUCCESS != return_value)
 253:C:/Workspace/DAVE-4.4.2-64Bit/optiga-trust-m/optiga/crypt\optiga_crypt.c ****         {
 254:C:/Workspace/DAVE-4.4.2-64Bit/optiga-trust-m/optiga/crypt\optiga_crypt.c ****             me->instance_state = OPTIGA_LIB_INSTANCE_FREE;
 255:C:/Workspace/DAVE-4.4.2-64Bit/optiga-trust-m/optiga/crypt\optiga_crypt.c ****         }
 256:C:/Workspace/DAVE-4.4.2-64Bit/optiga-trust-m/optiga/crypt\optiga_crypt.c ****     } while (FALSE);
 257:C:/Workspace/DAVE-4.4.2-64Bit/optiga-trust-m/optiga/crypt\optiga_crypt.c ****     optiga_crypt_reset_protection_level(me);
 258:C:/Workspace/DAVE-4.4.2-64Bit/optiga-trust-m/optiga/crypt\optiga_crypt.c **** 
 259:C:/Workspace/DAVE-4.4.2-64Bit/optiga-trust-m/optiga/crypt\optiga_crypt.c ****     return (return_value);
 260:C:/Workspace/DAVE-4.4.2-64Bit/optiga-trust-m/optiga/crypt\optiga_crypt.c **** }
 261:C:/Workspace/DAVE-4.4.2-64Bit/optiga-trust-m/optiga/crypt\optiga_crypt.c **** #endif //(OPTIGA_CRYPT_ECDSA_VERIFY_ENABLED) || (OPTIGA_CRYPT_RSA_VERIFY_ENABLED)
 262:C:/Workspace/DAVE-4.4.2-64Bit/optiga-trust-m/optiga/crypt\optiga_crypt.c **** 
 263:C:/Workspace/DAVE-4.4.2-64Bit/optiga-trust-m/optiga/crypt\optiga_crypt.c **** #if defined (OPTIGA_CRYPT_RSA_DECRYPT_ENABLED) || defined (OPTIGA_CRYPT_RSA_ENCRYPT_ENABLED)
 264:C:/Workspace/DAVE-4.4.2-64Bit/optiga-trust-m/optiga/crypt\optiga_crypt.c **** //lint --e{715} suppress "label and label_length is RFU hence not used"
 265:C:/Workspace/DAVE-4.4.2-64Bit/optiga-trust-m/optiga/crypt\optiga_crypt.c **** _STATIC_H optiga_lib_status_t optiga_crypt_rsa_enc_dec(optiga_crypt_t * me,
 266:C:/Workspace/DAVE-4.4.2-64Bit/optiga-trust-m/optiga/crypt\optiga_crypt.c ****                                                        optiga_rsa_encryption_scheme_t encryption_sc
 267:C:/Workspace/DAVE-4.4.2-64Bit/optiga-trust-m/optiga/crypt\optiga_crypt.c ****                                                        const uint8_t * p_message,
 268:C:/Workspace/DAVE-4.4.2-64Bit/optiga-trust-m/optiga/crypt\optiga_crypt.c ****                                                        uint16_t message_length,
 269:C:/Workspace/DAVE-4.4.2-64Bit/optiga-trust-m/optiga/crypt\optiga_crypt.c ****                                                        const uint8_t * p_label,
 270:C:/Workspace/DAVE-4.4.2-64Bit/optiga-trust-m/optiga/crypt\optiga_crypt.c ****                                                        uint16_t label_length,
 271:C:/Workspace/DAVE-4.4.2-64Bit/optiga-trust-m/optiga/crypt\optiga_crypt.c ****                                                        uint8_t public_key_source_type,
 272:C:/Workspace/DAVE-4.4.2-64Bit/optiga-trust-m/optiga/crypt\optiga_crypt.c ****                                                        const void * p_key,
 273:C:/Workspace/DAVE-4.4.2-64Bit/optiga-trust-m/optiga/crypt\optiga_crypt.c ****                                                        uint8_t * p_processed_message,
 274:C:/Workspace/DAVE-4.4.2-64Bit/optiga-trust-m/optiga/crypt\optiga_crypt.c ****                                                        uint16_t * p_processed_message_length,
 275:C:/Workspace/DAVE-4.4.2-64Bit/optiga-trust-m/optiga/crypt\optiga_crypt.c ****                                                        bool_t is_enc)
 276:C:/Workspace/DAVE-4.4.2-64Bit/optiga-trust-m/optiga/crypt\optiga_crypt.c **** {
 277:C:/Workspace/DAVE-4.4.2-64Bit/optiga-trust-m/optiga/crypt\optiga_crypt.c ****     optiga_lib_status_t return_value = OPTIGA_CRYPT_ERROR;
 278:C:/Workspace/DAVE-4.4.2-64Bit/optiga-trust-m/optiga/crypt\optiga_crypt.c ****     optiga_encrypt_asym_params_t * p_params;
 279:C:/Workspace/DAVE-4.4.2-64Bit/optiga-trust-m/optiga/crypt\optiga_crypt.c **** 
 280:C:/Workspace/DAVE-4.4.2-64Bit/optiga-trust-m/optiga/crypt\optiga_crypt.c ****     do
 281:C:/Workspace/DAVE-4.4.2-64Bit/optiga-trust-m/optiga/crypt\optiga_crypt.c ****     {
 282:C:/Workspace/DAVE-4.4.2-64Bit/optiga-trust-m/optiga/crypt\optiga_crypt.c ****         if (OPTIGA_LIB_INSTANCE_BUSY == me->instance_state)
 283:C:/Workspace/DAVE-4.4.2-64Bit/optiga-trust-m/optiga/crypt\optiga_crypt.c ****         {
 284:C:/Workspace/DAVE-4.4.2-64Bit/optiga-trust-m/optiga/crypt\optiga_crypt.c ****             return_value = OPTIGA_CRYPT_ERROR_INSTANCE_IN_USE;
 285:C:/Workspace/DAVE-4.4.2-64Bit/optiga-trust-m/optiga/crypt\optiga_crypt.c ****             break;
 286:C:/Workspace/DAVE-4.4.2-64Bit/optiga-trust-m/optiga/crypt\optiga_crypt.c ****         }
 287:C:/Workspace/DAVE-4.4.2-64Bit/optiga-trust-m/optiga/crypt\optiga_crypt.c ****         me->instance_state = OPTIGA_LIB_INSTANCE_BUSY;;
 288:C:/Workspace/DAVE-4.4.2-64Bit/optiga-trust-m/optiga/crypt\optiga_crypt.c **** 
 289:C:/Workspace/DAVE-4.4.2-64Bit/optiga-trust-m/optiga/crypt\optiga_crypt.c ****         p_params = (optiga_encrypt_asym_params_t *)&(me->params.optiga_encrypt_asym_params);
 290:C:/Workspace/DAVE-4.4.2-64Bit/optiga-trust-m/optiga/crypt\optiga_crypt.c ****         pal_os_memset(&me->params,0x00,sizeof(optiga_crypt_params_t));
 291:C:/Workspace/DAVE-4.4.2-64Bit/optiga-trust-m/optiga/crypt\optiga_crypt.c **** 
 292:C:/Workspace/DAVE-4.4.2-64Bit/optiga-trust-m/optiga/crypt\optiga_crypt.c ****         p_params->message = p_message;
 293:C:/Workspace/DAVE-4.4.2-64Bit/optiga-trust-m/optiga/crypt\optiga_crypt.c ****         p_params->message_length = message_length;
 294:C:/Workspace/DAVE-4.4.2-64Bit/optiga-trust-m/optiga/crypt\optiga_crypt.c ****         p_params->processed_message = p_processed_message;
 295:C:/Workspace/DAVE-4.4.2-64Bit/optiga-trust-m/optiga/crypt\optiga_crypt.c ****         p_params->processed_message_length = p_processed_message_length;
 296:C:/Workspace/DAVE-4.4.2-64Bit/optiga-trust-m/optiga/crypt\optiga_crypt.c **** 
 297:C:/Workspace/DAVE-4.4.2-64Bit/optiga-trust-m/optiga/crypt\optiga_crypt.c ****         OPTIGA_PROTECTION_ENABLE(me->my_cmd, me);
 298:C:/Workspace/DAVE-4.4.2-64Bit/optiga-trust-m/optiga/crypt\optiga_crypt.c ****         OPTIGA_PROTECTION_SET_VERSION(me->my_cmd, me);
 299:C:/Workspace/DAVE-4.4.2-64Bit/optiga-trust-m/optiga/crypt\optiga_crypt.c **** 
 300:C:/Workspace/DAVE-4.4.2-64Bit/optiga-trust-m/optiga/crypt\optiga_crypt.c **** 
 301:C:/Workspace/DAVE-4.4.2-64Bit/optiga-trust-m/optiga/crypt\optiga_crypt.c ****         if (is_enc)
 302:C:/Workspace/DAVE-4.4.2-64Bit/optiga-trust-m/optiga/crypt\optiga_crypt.c ****         {
 303:C:/Workspace/DAVE-4.4.2-64Bit/optiga-trust-m/optiga/crypt\optiga_crypt.c ****             p_params->key = p_key;
 304:C:/Workspace/DAVE-4.4.2-64Bit/optiga-trust-m/optiga/crypt\optiga_crypt.c ****             p_params->public_key_source_type = public_key_source_type;
 305:C:/Workspace/DAVE-4.4.2-64Bit/optiga-trust-m/optiga/crypt\optiga_crypt.c **** #ifdef OPTIGA_CRYPT_RSA_ENCRYPT_ENABLED
 306:C:/Workspace/DAVE-4.4.2-64Bit/optiga-trust-m/optiga/crypt\optiga_crypt.c ****             return_value = optiga_cmd_encrypt_asym(me->my_cmd, (uint8_t)encryption_scheme,
 307:C:/Workspace/DAVE-4.4.2-64Bit/optiga-trust-m/optiga/crypt\optiga_crypt.c ****                                                    (optiga_encrypt_asym_params_t *)p_params);
 308:C:/Workspace/DAVE-4.4.2-64Bit/optiga-trust-m/optiga/crypt\optiga_crypt.c **** #endif
 309:C:/Workspace/DAVE-4.4.2-64Bit/optiga-trust-m/optiga/crypt\optiga_crypt.c ****         }
 310:C:/Workspace/DAVE-4.4.2-64Bit/optiga-trust-m/optiga/crypt\optiga_crypt.c ****         else
 311:C:/Workspace/DAVE-4.4.2-64Bit/optiga-trust-m/optiga/crypt\optiga_crypt.c ****         {
 312:C:/Workspace/DAVE-4.4.2-64Bit/optiga-trust-m/optiga/crypt\optiga_crypt.c ****             p_params->private_key_id = (optiga_key_id_t)*(optiga_key_id_t *)p_key;
 313:C:/Workspace/DAVE-4.4.2-64Bit/optiga-trust-m/optiga/crypt\optiga_crypt.c ****             p_params->key = &p_params->private_key_id;
 314:C:/Workspace/DAVE-4.4.2-64Bit/optiga-trust-m/optiga/crypt\optiga_crypt.c ****             p_params->public_key_source_type = 0;
 315:C:/Workspace/DAVE-4.4.2-64Bit/optiga-trust-m/optiga/crypt\optiga_crypt.c **** #ifdef OPTIGA_CRYPT_RSA_DECRYPT_ENABLED
 316:C:/Workspace/DAVE-4.4.2-64Bit/optiga-trust-m/optiga/crypt\optiga_crypt.c ****             return_value = optiga_cmd_decrypt_asym(me->my_cmd, (uint8_t)encryption_scheme,
 317:C:/Workspace/DAVE-4.4.2-64Bit/optiga-trust-m/optiga/crypt\optiga_crypt.c ****                                                    (optiga_encrypt_asym_params_t *)p_params);
 318:C:/Workspace/DAVE-4.4.2-64Bit/optiga-trust-m/optiga/crypt\optiga_crypt.c **** #endif
 319:C:/Workspace/DAVE-4.4.2-64Bit/optiga-trust-m/optiga/crypt\optiga_crypt.c ****         }
 320:C:/Workspace/DAVE-4.4.2-64Bit/optiga-trust-m/optiga/crypt\optiga_crypt.c ****         if (OPTIGA_LIB_SUCCESS != return_value)
 321:C:/Workspace/DAVE-4.4.2-64Bit/optiga-trust-m/optiga/crypt\optiga_crypt.c ****         {
 322:C:/Workspace/DAVE-4.4.2-64Bit/optiga-trust-m/optiga/crypt\optiga_crypt.c ****             me->instance_state = OPTIGA_LIB_INSTANCE_FREE;
 323:C:/Workspace/DAVE-4.4.2-64Bit/optiga-trust-m/optiga/crypt\optiga_crypt.c ****         }
 324:C:/Workspace/DAVE-4.4.2-64Bit/optiga-trust-m/optiga/crypt\optiga_crypt.c ****     } while (FALSE);
 325:C:/Workspace/DAVE-4.4.2-64Bit/optiga-trust-m/optiga/crypt\optiga_crypt.c ****     optiga_crypt_reset_protection_level(me);
 326:C:/Workspace/DAVE-4.4.2-64Bit/optiga-trust-m/optiga/crypt\optiga_crypt.c **** 
 327:C:/Workspace/DAVE-4.4.2-64Bit/optiga-trust-m/optiga/crypt\optiga_crypt.c ****     return (return_value);
 328:C:/Workspace/DAVE-4.4.2-64Bit/optiga-trust-m/optiga/crypt\optiga_crypt.c **** }
 329:C:/Workspace/DAVE-4.4.2-64Bit/optiga-trust-m/optiga/crypt\optiga_crypt.c **** #endif //(OPTIGA_CRYPT_RSA_DECRYPT_ENABLED) || (OPTIGA_CRYPT_RSA_ENCRYPT_ENABLED)
 330:C:/Workspace/DAVE-4.4.2-64Bit/optiga-trust-m/optiga/crypt\optiga_crypt.c **** #if defined (OPTIGA_CRYPT_RANDOM_ENABLED) || defined (OPTIGA_CRYPT_RSA_PRE_MASTER_SECRET_ENABLED)
 331:C:/Workspace/DAVE-4.4.2-64Bit/optiga-trust-m/optiga/crypt\optiga_crypt.c **** _STATIC_H optiga_lib_status_t optiga_crypt_get_random(optiga_crypt_t * me,
 332:C:/Workspace/DAVE-4.4.2-64Bit/optiga-trust-m/optiga/crypt\optiga_crypt.c ****                                                       uint8_t cmd_param,
 333:C:/Workspace/DAVE-4.4.2-64Bit/optiga-trust-m/optiga/crypt\optiga_crypt.c ****                                                       uint8_t * p_random_data,
 334:C:/Workspace/DAVE-4.4.2-64Bit/optiga-trust-m/optiga/crypt\optiga_crypt.c ****                                                       uint16_t random_data_length,
 335:C:/Workspace/DAVE-4.4.2-64Bit/optiga-trust-m/optiga/crypt\optiga_crypt.c ****                                                       const uint8_t * p_optional_data,
 336:C:/Workspace/DAVE-4.4.2-64Bit/optiga-trust-m/optiga/crypt\optiga_crypt.c ****                                                       uint16_t optional_data_length)
 337:C:/Workspace/DAVE-4.4.2-64Bit/optiga-trust-m/optiga/crypt\optiga_crypt.c **** {
 338:C:/Workspace/DAVE-4.4.2-64Bit/optiga-trust-m/optiga/crypt\optiga_crypt.c ****     optiga_lib_status_t return_value = OPTIGA_CRYPT_ERROR;
 339:C:/Workspace/DAVE-4.4.2-64Bit/optiga-trust-m/optiga/crypt\optiga_crypt.c ****     optiga_get_random_params_t * p_params;
 340:C:/Workspace/DAVE-4.4.2-64Bit/optiga-trust-m/optiga/crypt\optiga_crypt.c ****     do
 341:C:/Workspace/DAVE-4.4.2-64Bit/optiga-trust-m/optiga/crypt\optiga_crypt.c ****     {
 342:C:/Workspace/DAVE-4.4.2-64Bit/optiga-trust-m/optiga/crypt\optiga_crypt.c ****         if (OPTIGA_LIB_INSTANCE_BUSY == me->instance_state)
 343:C:/Workspace/DAVE-4.4.2-64Bit/optiga-trust-m/optiga/crypt\optiga_crypt.c ****         {
 344:C:/Workspace/DAVE-4.4.2-64Bit/optiga-trust-m/optiga/crypt\optiga_crypt.c ****             return_value = OPTIGA_CRYPT_ERROR_INSTANCE_IN_USE;
 345:C:/Workspace/DAVE-4.4.2-64Bit/optiga-trust-m/optiga/crypt\optiga_crypt.c ****             break;
 346:C:/Workspace/DAVE-4.4.2-64Bit/optiga-trust-m/optiga/crypt\optiga_crypt.c ****         }
 347:C:/Workspace/DAVE-4.4.2-64Bit/optiga-trust-m/optiga/crypt\optiga_crypt.c **** 
 348:C:/Workspace/DAVE-4.4.2-64Bit/optiga-trust-m/optiga/crypt\optiga_crypt.c ****         me->instance_state = OPTIGA_LIB_INSTANCE_BUSY;
 349:C:/Workspace/DAVE-4.4.2-64Bit/optiga-trust-m/optiga/crypt\optiga_crypt.c ****         p_params = (optiga_get_random_params_t *)&(me->params.optiga_get_random_params);
 350:C:/Workspace/DAVE-4.4.2-64Bit/optiga-trust-m/optiga/crypt\optiga_crypt.c ****         pal_os_memset(&me->params,0x00,sizeof(optiga_crypt_params_t));
 351:C:/Workspace/DAVE-4.4.2-64Bit/optiga-trust-m/optiga/crypt\optiga_crypt.c **** 
 352:C:/Workspace/DAVE-4.4.2-64Bit/optiga-trust-m/optiga/crypt\optiga_crypt.c ****         p_params->optional_data = p_optional_data;
 353:C:/Workspace/DAVE-4.4.2-64Bit/optiga-trust-m/optiga/crypt\optiga_crypt.c ****         p_params->optional_data_length = optional_data_length;
 354:C:/Workspace/DAVE-4.4.2-64Bit/optiga-trust-m/optiga/crypt\optiga_crypt.c ****         p_params->random_data = p_random_data;
 355:C:/Workspace/DAVE-4.4.2-64Bit/optiga-trust-m/optiga/crypt\optiga_crypt.c ****         p_params->random_data_length = random_data_length;
 356:C:/Workspace/DAVE-4.4.2-64Bit/optiga-trust-m/optiga/crypt\optiga_crypt.c ****         OPTIGA_PROTECTION_ENABLE(me->my_cmd, me);
 357:C:/Workspace/DAVE-4.4.2-64Bit/optiga-trust-m/optiga/crypt\optiga_crypt.c ****         OPTIGA_PROTECTION_SET_VERSION(me->my_cmd, me);
 358:C:/Workspace/DAVE-4.4.2-64Bit/optiga-trust-m/optiga/crypt\optiga_crypt.c **** 
 359:C:/Workspace/DAVE-4.4.2-64Bit/optiga-trust-m/optiga/crypt\optiga_crypt.c ****         return_value = optiga_cmd_get_random(me->my_cmd,
 360:C:/Workspace/DAVE-4.4.2-64Bit/optiga-trust-m/optiga/crypt\optiga_crypt.c ****                                              (uint8_t)cmd_param,
 361:C:/Workspace/DAVE-4.4.2-64Bit/optiga-trust-m/optiga/crypt\optiga_crypt.c ****                                               (optiga_get_random_params_t *)p_params);
 362:C:/Workspace/DAVE-4.4.2-64Bit/optiga-trust-m/optiga/crypt\optiga_crypt.c ****         if (OPTIGA_LIB_SUCCESS != return_value)
 363:C:/Workspace/DAVE-4.4.2-64Bit/optiga-trust-m/optiga/crypt\optiga_crypt.c ****         {
 364:C:/Workspace/DAVE-4.4.2-64Bit/optiga-trust-m/optiga/crypt\optiga_crypt.c ****             me->instance_state = OPTIGA_LIB_INSTANCE_FREE;
 365:C:/Workspace/DAVE-4.4.2-64Bit/optiga-trust-m/optiga/crypt\optiga_crypt.c ****         }
 366:C:/Workspace/DAVE-4.4.2-64Bit/optiga-trust-m/optiga/crypt\optiga_crypt.c ****     } while (FALSE);
 367:C:/Workspace/DAVE-4.4.2-64Bit/optiga-trust-m/optiga/crypt\optiga_crypt.c ****     optiga_crypt_reset_protection_level(me);
 368:C:/Workspace/DAVE-4.4.2-64Bit/optiga-trust-m/optiga/crypt\optiga_crypt.c **** 
 369:C:/Workspace/DAVE-4.4.2-64Bit/optiga-trust-m/optiga/crypt\optiga_crypt.c ****     return (return_value);
 370:C:/Workspace/DAVE-4.4.2-64Bit/optiga-trust-m/optiga/crypt\optiga_crypt.c **** }
 371:C:/Workspace/DAVE-4.4.2-64Bit/optiga-trust-m/optiga/crypt\optiga_crypt.c **** #endif //(OPTIGA_CRYPT_RANDOM_ENABLED) || (OPTIGA_CRYPT_RSA_PRE_MASTER_SECRET_ENABLED)
 372:C:/Workspace/DAVE-4.4.2-64Bit/optiga-trust-m/optiga/crypt\optiga_crypt.c **** 
 373:C:/Workspace/DAVE-4.4.2-64Bit/optiga-trust-m/optiga/crypt\optiga_crypt.c **** 
 374:C:/Workspace/DAVE-4.4.2-64Bit/optiga-trust-m/optiga/crypt\optiga_crypt.c **** #ifdef OPTIGA_COMMS_SHIELDED_CONNECTION
 375:C:/Workspace/DAVE-4.4.2-64Bit/optiga-trust-m/optiga/crypt\optiga_crypt.c **** void optiga_crypt_set_comms_params(optiga_crypt_t * me,
 376:C:/Workspace/DAVE-4.4.2-64Bit/optiga-trust-m/optiga/crypt\optiga_crypt.c ****                                    uint8_t parameter_type,
 377:C:/Workspace/DAVE-4.4.2-64Bit/optiga-trust-m/optiga/crypt\optiga_crypt.c ****                                    uint8_t value)
 378:C:/Workspace/DAVE-4.4.2-64Bit/optiga-trust-m/optiga/crypt\optiga_crypt.c **** {
 379:C:/Workspace/DAVE-4.4.2-64Bit/optiga-trust-m/optiga/crypt\optiga_crypt.c ****     switch (parameter_type)
 380:C:/Workspace/DAVE-4.4.2-64Bit/optiga-trust-m/optiga/crypt\optiga_crypt.c ****     {
 381:C:/Workspace/DAVE-4.4.2-64Bit/optiga-trust-m/optiga/crypt\optiga_crypt.c ****         case OPTIGA_COMMS_PROTECTION_LEVEL:
 382:C:/Workspace/DAVE-4.4.2-64Bit/optiga-trust-m/optiga/crypt\optiga_crypt.c ****         {
 383:C:/Workspace/DAVE-4.4.2-64Bit/optiga-trust-m/optiga/crypt\optiga_crypt.c ****             me->protection_level = value;
  69              	 .loc 1 383 0
  70 0004 0023     	 mov r3,#0
  71 0006 2E30     	 add r0,r0,#46
  72              	.LVL6:
  73 0008 0370     	 strb r3,[r0]
  74              	.LVL7:
  75              	.L2:
  76              	.LBE5:
  77              	.LBE4:
  72:C:/Workspace/DAVE-4.4.2-64Bit/optiga-trust-m/optiga/crypt\optiga_crypt.c **** 
  78              	 .loc 1 72 0
  79              	 
  80 000a 7047     	 bx lr
  81              	 .cfi_endproc
  82              	.LFE1:
  84              	 .section .text.optiga_crypt_get_random,"ax",%progbits
  85              	 .align 1
  86              	 .code 16
  87              	 .thumb_func
  89              	optiga_crypt_get_random:
  90              	.LFB6:
 337:C:/Workspace/DAVE-4.4.2-64Bit/optiga-trust-m/optiga/crypt\optiga_crypt.c ****     optiga_lib_status_t return_value = OPTIGA_CRYPT_ERROR;
  91              	 .loc 1 337 0
  92              	 .cfi_startproc
  93              	.LVL8:
  94 0000 F7B5     	 push {r0,r1,r2,r4,r5,r6,r7,lr}
  95              	.LCFI1:
  96              	 .cfi_def_cfa_offset 32
  97              	 .cfi_offset 0,-32
  98              	 .cfi_offset 1,-28
  99              	 .cfi_offset 2,-24
 100              	 .cfi_offset 4,-20
 101              	 .cfi_offset 5,-16
 102              	 .cfi_offset 6,-12
 103              	 .cfi_offset 7,-8
 104              	 .cfi_offset 14,-4
 337:C:/Workspace/DAVE-4.4.2-64Bit/optiga-trust-m/optiga/crypt\optiga_crypt.c ****     optiga_lib_status_t return_value = OPTIGA_CRYPT_ERROR;
 105              	 .loc 1 337 0
 106 0002 0093     	 str r3,[sp]
 107 0004 08AB     	 add r3,sp,#32
 108              	.LVL9:
 109 0006 171C     	 mov r7,r2
 110 0008 04CB     	 ldmia r3!,{r2}
 111              	.LVL10:
 112 000a 041C     	 mov r4,r0
 113 000c 1B88     	 ldrh r3,[r3]
 114              	.LVL11:
 115 000e 0E1C     	 mov r6,r1
 116 0010 0193     	 str r3,[sp,#4]
 342:C:/Workspace/DAVE-4.4.2-64Bit/optiga-trust-m/optiga/crypt\optiga_crypt.c ****         {
 117              	 .loc 1 342 0
 118 0012 838D     	 ldrh r3,[r0,#44]
 119 0014 012B     	 cmp r3,#1
 120 0016 26D0     	 beq .L10
 348:C:/Workspace/DAVE-4.4.2-64Bit/optiga-trust-m/optiga/crypt\optiga_crypt.c ****         p_params = (optiga_get_random_params_t *)&(me->params.optiga_get_random_params);
 121              	 .loc 1 348 0
 122 0018 0125     	 mov r5,#1
 350:C:/Workspace/DAVE-4.4.2-64Bit/optiga-trust-m/optiga/crypt\optiga_crypt.c **** 
 123              	 .loc 1 350 0
 124 001a 0021     	 mov r1,#0
 125              	.LVL12:
 348:C:/Workspace/DAVE-4.4.2-64Bit/optiga-trust-m/optiga/crypt\optiga_crypt.c ****         p_params = (optiga_get_random_params_t *)&(me->params.optiga_get_random_params);
 126              	 .loc 1 348 0
 127 001c 8585     	 strh r5,[r0,#44]
 128              	.LVL13:
 350:C:/Workspace/DAVE-4.4.2-64Bit/optiga-trust-m/optiga/crypt\optiga_crypt.c **** 
 129              	 .loc 1 350 0
 130 001e 2022     	 mov r2,#32
 131 0020 FFF7FEFF 	 bl memset
 132              	.LVL14:
 352:C:/Workspace/DAVE-4.4.2-64Bit/optiga-trust-m/optiga/crypt\optiga_crypt.c ****         p_params->optional_data_length = optional_data_length;
 133              	 .loc 1 352 0
 134 0024 089B     	 ldr r3,[sp,#32]
 354:C:/Workspace/DAVE-4.4.2-64Bit/optiga-trust-m/optiga/crypt\optiga_crypt.c ****         p_params->random_data_length = random_data_length;
 135              	 .loc 1 354 0
 136 0026 6760     	 str r7,[r4,#4]
 352:C:/Workspace/DAVE-4.4.2-64Bit/optiga-trust-m/optiga/crypt\optiga_crypt.c ****         p_params->optional_data_length = optional_data_length;
 137              	 .loc 1 352 0
 138 0028 A360     	 str r3,[r4,#8]
 353:C:/Workspace/DAVE-4.4.2-64Bit/optiga-trust-m/optiga/crypt\optiga_crypt.c ****         p_params->random_data = p_random_data;
 139              	 .loc 1 353 0
 140 002a 6B46     	 mov r3,sp
 141 002c 9B88     	 ldrh r3,[r3,#4]
 356:C:/Workspace/DAVE-4.4.2-64Bit/optiga-trust-m/optiga/crypt\optiga_crypt.c ****         OPTIGA_PROTECTION_SET_VERSION(me->my_cmd, me);
 142              	 .loc 1 356 0
 143 002e 206A     	 ldr r0,[r4,#32]
 353:C:/Workspace/DAVE-4.4.2-64Bit/optiga-trust-m/optiga/crypt\optiga_crypt.c ****         p_params->random_data = p_random_data;
 144              	 .loc 1 353 0
 145 0030 6380     	 strh r3,[r4,#2]
 355:C:/Workspace/DAVE-4.4.2-64Bit/optiga-trust-m/optiga/crypt\optiga_crypt.c ****         OPTIGA_PROTECTION_ENABLE(me->my_cmd, me);
 146              	 .loc 1 355 0
 147 0032 6B46     	 mov r3,sp
 148 0034 1B88     	 ldrh r3,[r3]
 356:C:/Workspace/DAVE-4.4.2-64Bit/optiga-trust-m/optiga/crypt\optiga_crypt.c ****         OPTIGA_PROTECTION_SET_VERSION(me->my_cmd, me);
 149              	 .loc 1 356 0
 150 0036 0022     	 mov r2,#0
 355:C:/Workspace/DAVE-4.4.2-64Bit/optiga-trust-m/optiga/crypt\optiga_crypt.c ****         OPTIGA_PROTECTION_ENABLE(me->my_cmd, me);
 151              	 .loc 1 355 0
 152 0038 2380     	 strh r3,[r4]
 356:C:/Workspace/DAVE-4.4.2-64Bit/optiga-trust-m/optiga/crypt\optiga_crypt.c ****         OPTIGA_PROTECTION_SET_VERSION(me->my_cmd, me);
 153              	 .loc 1 356 0
 154 003a 231C     	 mov r3,r4
 155 003c 2E33     	 add r3,r3,#46
 156 003e 1978     	 ldrb r1,[r3]
 157 0040 FFF7FEFF 	 bl optiga_cmd_set_shielded_connection_option
 158              	.LVL15:
 357:C:/Workspace/DAVE-4.4.2-64Bit/optiga-trust-m/optiga/crypt\optiga_crypt.c **** 
 159              	 .loc 1 357 0
 160 0044 231C     	 mov r3,r4
 161 0046 2F33     	 add r3,r3,#47
 162 0048 1978     	 ldrb r1,[r3]
 163 004a 2A1C     	 mov r2,r5
 164 004c 206A     	 ldr r0,[r4,#32]
 165 004e FFF7FEFF 	 bl optiga_cmd_set_shielded_connection_option
 166              	.LVL16:
 359:C:/Workspace/DAVE-4.4.2-64Bit/optiga-trust-m/optiga/crypt\optiga_crypt.c ****                                              (uint8_t)cmd_param,
 167              	 .loc 1 359 0
 168 0052 206A     	 ldr r0,[r4,#32]
 169 0054 311C     	 mov r1,r6
 170 0056 221C     	 mov r2,r4
 171 0058 FFF7FEFF 	 bl optiga_cmd_get_random
 172              	.LVL17:
 173 005c 051E     	 sub r5,r0,#0
 174              	.LVL18:
 362:C:/Workspace/DAVE-4.4.2-64Bit/optiga-trust-m/optiga/crypt\optiga_crypt.c ****         {
 175              	 .loc 1 362 0
 176 005e 03D0     	 beq .L9
 364:C:/Workspace/DAVE-4.4.2-64Bit/optiga-trust-m/optiga/crypt\optiga_crypt.c ****         }
 177              	 .loc 1 364 0
 178 0060 0023     	 mov r3,#0
 179 0062 A385     	 strh r3,[r4,#44]
 180 0064 00E0     	 b .L9
 181              	.LVL19:
 182              	.L10:
 344:C:/Workspace/DAVE-4.4.2-64Bit/optiga-trust-m/optiga/crypt\optiga_crypt.c ****             break;
 183              	 .loc 1 344 0
 184 0066 034D     	 ldr r5,.L14
 185              	.LVL20:
 186              	.L9:
 367:C:/Workspace/DAVE-4.4.2-64Bit/optiga-trust-m/optiga/crypt\optiga_crypt.c **** 
 187              	 .loc 1 367 0
 188 0068 201C     	 mov r0,r4
 189 006a FFF7FEFF 	 bl optiga_crypt_reset_protection_level
 190              	.LVL21:
 370:C:/Workspace/DAVE-4.4.2-64Bit/optiga-trust-m/optiga/crypt\optiga_crypt.c **** #endif //(OPTIGA_CRYPT_RANDOM_ENABLED) || (OPTIGA_CRYPT_RSA_PRE_MASTER_SECRET_ENABLED)
 191              	 .loc 1 370 0
 192              	 
 193 006e 281C     	 mov r0,r5
 194              	.LVL22:
 195              	.LVL23:
 196              	.LVL24:
 197 0070 FEBD     	 pop {r1,r2,r3,r4,r5,r6,r7,pc}
 198              	.L15:
 199 0072 C046     	 .align 2
 200              	.L14:
 201 0074 05040000 	 .word 1029
 202              	 .cfi_endproc
 203              	.LFE6:
 205              	 .section .text.optiga_crypt_generate_keypair,"ax",%progbits
 206              	 .align 1
 207              	 .code 16
 208              	 .thumb_func
 210              	optiga_crypt_generate_keypair:
 211              	.LFB2:
  86:C:/Workspace/DAVE-4.4.2-64Bit/optiga-trust-m/optiga/crypt\optiga_crypt.c ****     optiga_lib_status_t return_value = OPTIGA_CRYPT_ERROR;
 212              	 .loc 1 86 0
 213              	 .cfi_startproc
 214              	.LVL25:
 215 0000 F7B5     	 push {r0,r1,r2,r4,r5,r6,r7,lr}
 216              	.LCFI2:
 217              	 .cfi_def_cfa_offset 32
 218              	 .cfi_offset 0,-32
 219              	 .cfi_offset 1,-28
 220              	 .cfi_offset 2,-24
 221              	 .cfi_offset 4,-20
 222              	 .cfi_offset 5,-16
 223              	 .cfi_offset 6,-12
 224              	 .cfi_offset 7,-8
 225              	 .cfi_offset 14,-4
  86:C:/Workspace/DAVE-4.4.2-64Bit/optiga-trust-m/optiga/crypt\optiga_crypt.c ****     optiga_lib_status_t return_value = OPTIGA_CRYPT_ERROR;
 226              	 .loc 1 86 0
 227 0002 041C     	 mov r4,r0
 228 0004 0091     	 str r1,[sp]
 229 0006 0192     	 str r2,[sp,#4]
 230 0008 1D1C     	 mov r5,r3
  93:C:/Workspace/DAVE-4.4.2-64Bit/optiga-trust-m/optiga/crypt\optiga_crypt.c ****             (NULL == p_public_key) || (NULL == p_private_key) || (NULL == p_public_key_length))
 231              	 .loc 1 93 0
 232 000a 0028     	 cmp r0,#0
 233 000c 3AD0     	 beq .L24
  93:C:/Workspace/DAVE-4.4.2-64Bit/optiga-trust-m/optiga/crypt\optiga_crypt.c ****             (NULL == p_public_key) || (NULL == p_private_key) || (NULL == p_public_key_length))
 234              	 .loc 1 93 0 is_stmt 0 discriminator 1
 235 000e 076A     	 ldr r7,[r0,#32]
 236 0010 002F     	 cmp r7,#0
 237 0012 37D0     	 beq .L24
  93:C:/Workspace/DAVE-4.4.2-64Bit/optiga-trust-m/optiga/crypt\optiga_crypt.c ****             (NULL == p_public_key) || (NULL == p_private_key) || (NULL == p_public_key_length))
 238              	 .loc 1 93 0 discriminator 2
 239 0014 099B     	 ldr r3,[sp,#36]
 240              	.LVL26:
 241 0016 002B     	 cmp r3,#0
 242 0018 34D0     	 beq .L24
  94:C:/Workspace/DAVE-4.4.2-64Bit/optiga-trust-m/optiga/crypt\optiga_crypt.c ****         {
 243              	 .loc 1 94 0 is_stmt 1
 244 001a 089B     	 ldr r3,[sp,#32]
 245 001c 002B     	 cmp r3,#0
 246 001e 31D0     	 beq .L24
  94:C:/Workspace/DAVE-4.4.2-64Bit/optiga-trust-m/optiga/crypt\optiga_crypt.c ****         {
 247              	 .loc 1 94 0 is_stmt 0 discriminator 1
 248 0020 0A9B     	 ldr r3,[sp,#40]
 249 0022 002B     	 cmp r3,#0
 250 0024 2ED0     	 beq .L24
 100:C:/Workspace/DAVE-4.4.2-64Bit/optiga-trust-m/optiga/crypt\optiga_crypt.c ****         {
 251              	 .loc 1 100 0 is_stmt 1
 252 0026 838D     	 ldrh r3,[r0,#44]
 253 0028 012B     	 cmp r3,#1
 254 002a 2DD0     	 beq .L25
 106:C:/Workspace/DAVE-4.4.2-64Bit/optiga-trust-m/optiga/crypt\optiga_crypt.c ****         p_params = (optiga_gen_keypair_params_t *)&(me->params.optiga_gen_keypair_params);
 255              	 .loc 1 106 0
 256 002c 0126     	 mov r6,#1
 108:C:/Workspace/DAVE-4.4.2-64Bit/optiga-trust-m/optiga/crypt\optiga_crypt.c **** 
 257              	 .loc 1 108 0
 258 002e 0021     	 mov r1,#0
 259              	.LVL27:
 260 0030 2022     	 mov r2,#32
 261              	.LVL28:
 106:C:/Workspace/DAVE-4.4.2-64Bit/optiga-trust-m/optiga/crypt\optiga_crypt.c ****         p_params = (optiga_gen_keypair_params_t *)&(me->params.optiga_gen_keypair_params);
 262              	 .loc 1 106 0
 263 0032 8685     	 strh r6,[r0,#44]
 264              	.LVL29:
 108:C:/Workspace/DAVE-4.4.2-64Bit/optiga-trust-m/optiga/crypt\optiga_crypt.c **** 
 265              	 .loc 1 108 0
 266 0034 FFF7FEFF 	 bl memset
 267              	.LVL30:
 110:C:/Workspace/DAVE-4.4.2-64Bit/optiga-trust-m/optiga/crypt\optiga_crypt.c ****         p_params->export_private_key = export_private_key;
 268              	 .loc 1 110 0
 269 0038 6B46     	 mov r3,sp
 270 003a 1B79     	 ldrb r3,[r3,#4]
 111:C:/Workspace/DAVE-4.4.2-64Bit/optiga-trust-m/optiga/crypt\optiga_crypt.c ****         p_params->public_key_length = p_public_key_length;
 271              	 .loc 1 111 0
 272 003c 6570     	 strb r5,[r4,#1]
 110:C:/Workspace/DAVE-4.4.2-64Bit/optiga-trust-m/optiga/crypt\optiga_crypt.c ****         p_params->export_private_key = export_private_key;
 273              	 .loc 1 110 0
 274 003e 2370     	 strb r3,[r4]
 112:C:/Workspace/DAVE-4.4.2-64Bit/optiga-trust-m/optiga/crypt\optiga_crypt.c ****         OPTIGA_PROTECTION_ENABLE(me->my_cmd, me);
 275              	 .loc 1 112 0
 276 0040 0A9B     	 ldr r3,[sp,#40]
 113:C:/Workspace/DAVE-4.4.2-64Bit/optiga-trust-m/optiga/crypt\optiga_crypt.c ****         OPTIGA_PROTECTION_SET_VERSION(me->my_cmd, me);
 277              	 .loc 1 113 0
 278 0042 381C     	 mov r0,r7
 112:C:/Workspace/DAVE-4.4.2-64Bit/optiga-trust-m/optiga/crypt\optiga_crypt.c ****         OPTIGA_PROTECTION_ENABLE(me->my_cmd, me);
 279              	 .loc 1 112 0
 280 0044 2361     	 str r3,[r4,#16]
 113:C:/Workspace/DAVE-4.4.2-64Bit/optiga-trust-m/optiga/crypt\optiga_crypt.c ****         OPTIGA_PROTECTION_SET_VERSION(me->my_cmd, me);
 281              	 .loc 1 113 0
 282 0046 231C     	 mov r3,r4
 283 0048 2E33     	 add r3,r3,#46
 284 004a 1978     	 ldrb r1,[r3]
 285 004c 0022     	 mov r2,#0
 286 004e FFF7FEFF 	 bl optiga_cmd_set_shielded_connection_option
 287              	.LVL31:
 114:C:/Workspace/DAVE-4.4.2-64Bit/optiga-trust-m/optiga/crypt\optiga_crypt.c **** 
 288              	 .loc 1 114 0
 289 0052 231C     	 mov r3,r4
 290 0054 2F33     	 add r3,r3,#47
 291 0056 1978     	 ldrb r1,[r3]
 292 0058 206A     	 ldr r0,[r4,#32]
 293 005a 321C     	 mov r2,r6
 294 005c FFF7FEFF 	 bl optiga_cmd_set_shielded_connection_option
 295              	.LVL32:
 118:C:/Workspace/DAVE-4.4.2-64Bit/optiga-trust-m/optiga/crypt\optiga_crypt.c ****         }
 296              	 .loc 1 118 0
 297 0060 089B     	 ldr r3,[sp,#32]
 116:C:/Workspace/DAVE-4.4.2-64Bit/optiga-trust-m/optiga/crypt\optiga_crypt.c ****         {
 298              	 .loc 1 116 0
 299 0062 002D     	 cmp r5,#0
 300 0064 01D0     	 beq .L18
 118:C:/Workspace/DAVE-4.4.2-64Bit/optiga-trust-m/optiga/crypt\optiga_crypt.c ****         }
 301              	 .loc 1 118 0
 302 0066 6360     	 str r3,[r4,#4]
 303 0068 01E0     	 b .L19
 304              	.L18:
 122:C:/Workspace/DAVE-4.4.2-64Bit/optiga-trust-m/optiga/crypt\optiga_crypt.c ****         }
 305              	 .loc 1 122 0
 306 006a 1B88     	 ldrh r3,[r3]
 307 006c 6380     	 strh r3,[r4,#2]
 308              	.L19:
 125:C:/Workspace/DAVE-4.4.2-64Bit/optiga-trust-m/optiga/crypt\optiga_crypt.c ****         p_params->public_key_length = p_public_key_length;
 309              	 .loc 1 125 0
 310 006e 099B     	 ldr r3,[sp,#36]
 128:C:/Workspace/DAVE-4.4.2-64Bit/optiga-trust-m/optiga/crypt\optiga_crypt.c ****                                               (uint8_t )cmd_param,
 311              	 .loc 1 128 0
 312 0070 206A     	 ldr r0,[r4,#32]
 125:C:/Workspace/DAVE-4.4.2-64Bit/optiga-trust-m/optiga/crypt\optiga_crypt.c ****         p_params->public_key_length = p_public_key_length;
 313              	 .loc 1 125 0
 314 0072 E360     	 str r3,[r4,#12]
 126:C:/Workspace/DAVE-4.4.2-64Bit/optiga-trust-m/optiga/crypt\optiga_crypt.c **** 
 315              	 .loc 1 126 0
 316 0074 0A9B     	 ldr r3,[sp,#40]
 128:C:/Workspace/DAVE-4.4.2-64Bit/optiga-trust-m/optiga/crypt\optiga_crypt.c ****                                               (uint8_t )cmd_param,
 317              	 .loc 1 128 0
 318 0076 0099     	 ldr r1,[sp]
 126:C:/Workspace/DAVE-4.4.2-64Bit/optiga-trust-m/optiga/crypt\optiga_crypt.c **** 
 319              	 .loc 1 126 0
 320 0078 2361     	 str r3,[r4,#16]
 128:C:/Workspace/DAVE-4.4.2-64Bit/optiga-trust-m/optiga/crypt\optiga_crypt.c ****                                               (uint8_t )cmd_param,
 321              	 .loc 1 128 0
 322 007a 221C     	 mov r2,r4
 323 007c FFF7FEFF 	 bl optiga_cmd_gen_keypair
 324              	.LVL33:
 325 0080 051C     	 mov r5,r0
 326              	.LVL34:
 327 0082 02E0     	 b .L17
 328              	.LVL35:
 329              	.L24:
  96:C:/Workspace/DAVE-4.4.2-64Bit/optiga-trust-m/optiga/crypt\optiga_crypt.c ****             break;
 330              	 .loc 1 96 0
 331 0084 034D     	 ldr r5,.L26
 332 0086 00E0     	 b .L17
 333              	.L25:
 102:C:/Workspace/DAVE-4.4.2-64Bit/optiga-trust-m/optiga/crypt\optiga_crypt.c ****             break;
 334              	 .loc 1 102 0
 335 0088 034D     	 ldr r5,.L26+4
 336              	.LVL36:
 337              	.L17:
 132:C:/Workspace/DAVE-4.4.2-64Bit/optiga-trust-m/optiga/crypt\optiga_crypt.c **** 
 338              	 .loc 1 132 0
 339 008a 201C     	 mov r0,r4
 340 008c FFF7FEFF 	 bl optiga_crypt_reset_protection_level
 341              	.LVL37:
 135:C:/Workspace/DAVE-4.4.2-64Bit/optiga-trust-m/optiga/crypt\optiga_crypt.c **** #endif // (OPTIGA_CRYPT_ECC_GENERATE_KEYPAIR_ENABLED) || (OPTIGA_CRYPT_RSA_GENERATE_KEYPAIR_ENABLED
 342              	 .loc 1 135 0
 343              	 
 344 0090 281C     	 mov r0,r5
 345              	.LVL38:
 346              	.LVL39:
 347 0092 FEBD     	 pop {r1,r2,r3,r4,r5,r6,r7,pc}
 348              	.L27:
 349              	 .align 2
 350              	.L26:
 351 0094 03040000 	 .word 1027
 352 0098 05040000 	 .word 1029
 353              	 .cfi_endproc
 354              	.LFE2:
 356              	 .section .text.optiga_crypt_sign.isra.0,"ax",%progbits
 357              	 .align 1
 358              	 .code 16
 359              	 .thumb_func
 361              	optiga_crypt_sign.isra.0:
 362              	.LFB27:
 140:C:/Workspace/DAVE-4.4.2-64Bit/optiga-trust-m/optiga/crypt\optiga_crypt.c ****                                                 uint8_t signature_scheme,
 363              	 .loc 1 140 0
 364              	 .cfi_startproc
 365              	.LVL40:
 366 0000 F0B5     	 push {r4,r5,r6,r7,lr}
 367              	.LCFI3:
 368              	 .cfi_def_cfa_offset 20
 369              	 .cfi_offset 4,-20
 370              	 .cfi_offset 5,-16
 371              	 .cfi_offset 6,-12
 372              	 .cfi_offset 7,-8
 373              	 .cfi_offset 14,-4
 374 0002 85B0     	 sub sp,sp,#20
 375              	.LCFI4:
 376              	 .cfi_def_cfa_offset 40
 140:C:/Workspace/DAVE-4.4.2-64Bit/optiga-trust-m/optiga/crypt\optiga_crypt.c ****                                                 uint8_t signature_scheme,
 377              	 .loc 1 140 0
 378 0004 0293     	 str r3,[sp,#8]
 379 0006 0AAB     	 add r3,sp,#40
 380              	.LVL41:
 381 0008 1B88     	 ldrh r3,[r3]
 382              	.LVL42:
 383 000a 041C     	 mov r4,r0
 384 000c 0191     	 str r1,[sp,#4]
 385 000e 171C     	 mov r7,r2
 386 0010 0393     	 str r3,[sp,#12]
 155:C:/Workspace/DAVE-4.4.2-64Bit/optiga-trust-m/optiga/crypt\optiga_crypt.c ****             (NULL == p_signature) || (NULL == p_signature_length))
 387              	 .loc 1 155 0
 388 0012 0028     	 cmp r0,#0
 389 0014 36D0     	 beq .L34
 390 0016 056A     	 ldr r5,[r0,#32]
 391 0018 002D     	 cmp r5,#0
 392 001a 33D0     	 beq .L34
 393 001c 002A     	 cmp r2,#0
 394 001e 31D0     	 beq .L34
 395 0020 0B9B     	 ldr r3,[sp,#44]
 396 0022 002B     	 cmp r3,#0
 397 0024 2ED0     	 beq .L34
 156:C:/Workspace/DAVE-4.4.2-64Bit/optiga-trust-m/optiga/crypt\optiga_crypt.c ****         {
 398              	 .loc 1 156 0
 399 0026 0C9B     	 ldr r3,[sp,#48]
 400 0028 002B     	 cmp r3,#0
 401 002a 2BD0     	 beq .L34
 163:C:/Workspace/DAVE-4.4.2-64Bit/optiga-trust-m/optiga/crypt\optiga_crypt.c ****         {
 402              	 .loc 1 163 0
 403 002c 838D     	 ldrh r3,[r0,#44]
 404 002e 012B     	 cmp r3,#1
 405 0030 2AD0     	 beq .L35
 169:C:/Workspace/DAVE-4.4.2-64Bit/optiga-trust-m/optiga/crypt\optiga_crypt.c **** 
 406              	 .loc 1 169 0
 407 0032 0126     	 mov r6,#1
 172:C:/Workspace/DAVE-4.4.2-64Bit/optiga-trust-m/optiga/crypt\optiga_crypt.c **** 
 408              	 .loc 1 172 0
 409 0034 0021     	 mov r1,#0
 410              	.LVL43:
 411 0036 2022     	 mov r2,#32
 412              	.LVL44:
 169:C:/Workspace/DAVE-4.4.2-64Bit/optiga-trust-m/optiga/crypt\optiga_crypt.c **** 
 413              	 .loc 1 169 0
 414 0038 8685     	 strh r6,[r0,#44]
 415              	.LVL45:
 172:C:/Workspace/DAVE-4.4.2-64Bit/optiga-trust-m/optiga/crypt\optiga_crypt.c **** 
 416              	 .loc 1 172 0
 417 003a FFF7FEFF 	 bl memset
 418              	.LVL46:
 175:C:/Workspace/DAVE-4.4.2-64Bit/optiga-trust-m/optiga/crypt\optiga_crypt.c ****         p_params->private_key_oid = private_key;
 419              	 .loc 1 175 0
 420 003e 6B46     	 mov r3,sp
 421 0040 1B7A     	 ldrb r3,[r3,#8]
 174:C:/Workspace/DAVE-4.4.2-64Bit/optiga-trust-m/optiga/crypt\optiga_crypt.c ****         p_params->digest_length = digest_length;
 422              	 .loc 1 174 0
 423 0042 2760     	 str r7,[r4]
 175:C:/Workspace/DAVE-4.4.2-64Bit/optiga-trust-m/optiga/crypt\optiga_crypt.c ****         p_params->private_key_oid = private_key;
 424              	 .loc 1 175 0
 425 0044 A373     	 strb r3,[r4,#14]
 176:C:/Workspace/DAVE-4.4.2-64Bit/optiga-trust-m/optiga/crypt\optiga_crypt.c ****         p_params->p_signature = p_signature;
 426              	 .loc 1 176 0
 427 0046 6B46     	 mov r3,sp
 428 0048 9B89     	 ldrh r3,[r3,#12]
 179:C:/Workspace/DAVE-4.4.2-64Bit/optiga-trust-m/optiga/crypt\optiga_crypt.c ****         OPTIGA_PROTECTION_SET_VERSION(me->my_cmd, me);
 429              	 .loc 1 179 0
 430 004a 281C     	 mov r0,r5
 176:C:/Workspace/DAVE-4.4.2-64Bit/optiga-trust-m/optiga/crypt\optiga_crypt.c ****         p_params->p_signature = p_signature;
 431              	 .loc 1 176 0
 432 004c A381     	 strh r3,[r4,#12]
 177:C:/Workspace/DAVE-4.4.2-64Bit/optiga-trust-m/optiga/crypt\optiga_crypt.c ****         p_params->p_signature_length = p_signature_length;
 433              	 .loc 1 177 0
 434 004e 0B9B     	 ldr r3,[sp,#44]
 179:C:/Workspace/DAVE-4.4.2-64Bit/optiga-trust-m/optiga/crypt\optiga_crypt.c ****         OPTIGA_PROTECTION_SET_VERSION(me->my_cmd, me);
 435              	 .loc 1 179 0
 436 0050 0022     	 mov r2,#0
 177:C:/Workspace/DAVE-4.4.2-64Bit/optiga-trust-m/optiga/crypt\optiga_crypt.c ****         p_params->p_signature_length = p_signature_length;
 437              	 .loc 1 177 0
 438 0052 6360     	 str r3,[r4,#4]
 178:C:/Workspace/DAVE-4.4.2-64Bit/optiga-trust-m/optiga/crypt\optiga_crypt.c ****         OPTIGA_PROTECTION_ENABLE(me->my_cmd, me);
 439              	 .loc 1 178 0
 440 0054 0C9B     	 ldr r3,[sp,#48]
 441 0056 A360     	 str r3,[r4,#8]
 179:C:/Workspace/DAVE-4.4.2-64Bit/optiga-trust-m/optiga/crypt\optiga_crypt.c ****         OPTIGA_PROTECTION_SET_VERSION(me->my_cmd, me);
 442              	 .loc 1 179 0
 443 0058 231C     	 mov r3,r4
 444 005a 2E33     	 add r3,r3,#46
 445 005c 1978     	 ldrb r1,[r3]
 446 005e FFF7FEFF 	 bl optiga_cmd_set_shielded_connection_option
 447              	.LVL47:
 180:C:/Workspace/DAVE-4.4.2-64Bit/optiga-trust-m/optiga/crypt\optiga_crypt.c **** 
 448              	 .loc 1 180 0
 449 0062 231C     	 mov r3,r4
 450 0064 2F33     	 add r3,r3,#47
 451 0066 1978     	 ldrb r1,[r3]
 452 0068 206A     	 ldr r0,[r4,#32]
 453 006a 321C     	 mov r2,r6
 454 006c FFF7FEFF 	 bl optiga_cmd_set_shielded_connection_option
 455              	.LVL48:
 182:C:/Workspace/DAVE-4.4.2-64Bit/optiga-trust-m/optiga/crypt\optiga_crypt.c ****                                             signature_scheme,
 456              	 .loc 1 182 0
 457 0070 206A     	 ldr r0,[r4,#32]
 458 0072 0199     	 ldr r1,[sp,#4]
 459 0074 221C     	 mov r2,r4
 460 0076 FFF7FEFF 	 bl optiga_cmd_calc_sign
 461              	.LVL49:
 462 007a 051E     	 sub r5,r0,#0
 463              	.LVL50:
 185:C:/Workspace/DAVE-4.4.2-64Bit/optiga-trust-m/optiga/crypt\optiga_crypt.c ****         {
 464              	 .loc 1 185 0
 465 007c 05D0     	 beq .L29
 187:C:/Workspace/DAVE-4.4.2-64Bit/optiga-trust-m/optiga/crypt\optiga_crypt.c ****         }
 466              	 .loc 1 187 0
 467 007e 0023     	 mov r3,#0
 468 0080 A385     	 strh r3,[r4,#44]
 469 0082 02E0     	 b .L29
 470              	.LVL51:
 471              	.L34:
 158:C:/Workspace/DAVE-4.4.2-64Bit/optiga-trust-m/optiga/crypt\optiga_crypt.c ****             break;
 472              	 .loc 1 158 0
 473 0084 044D     	 ldr r5,.L39
 474 0086 00E0     	 b .L29
 475              	.L35:
 165:C:/Workspace/DAVE-4.4.2-64Bit/optiga-trust-m/optiga/crypt\optiga_crypt.c ****             break;
 476              	 .loc 1 165 0
 477 0088 044D     	 ldr r5,.L39+4
 478              	.LVL52:
 479              	.L29:
 190:C:/Workspace/DAVE-4.4.2-64Bit/optiga-trust-m/optiga/crypt\optiga_crypt.c **** 
 480              	 .loc 1 190 0
 481 008a 201C     	 mov r0,r4
 482 008c FFF7FEFF 	 bl optiga_crypt_reset_protection_level
 483              	.LVL53:
 193:C:/Workspace/DAVE-4.4.2-64Bit/optiga-trust-m/optiga/crypt\optiga_crypt.c **** #endif // (OPTIGA_CRYPT_ECDSA_SIGN_ENABLED) || (OPTIGA_CRYPT_RSA_SIGN_ENABLED)
 484              	 .loc 1 193 0
 485 0090 281C     	 mov r0,r5
 486 0092 05B0     	 add sp,sp,#20
 487              	 
 488              	.LVL54:
 489              	.LVL55:
 490              	.LVL56:
 491 0094 F0BD     	 pop {r4,r5,r6,r7,pc}
 492              	.L40:
 493 0096 C046     	 .align 2
 494              	.L39:
 495 0098 03040000 	 .word 1027
 496 009c 05040000 	 .word 1029
 497              	 .cfi_endproc
 498              	.LFE27:
 500              	 .section .text.optiga_crypt_verify.isra.1,"ax",%progbits
 501              	 .align 1
 502              	 .code 16
 503              	 .thumb_func
 505              	optiga_crypt_verify.isra.1:
 506              	.LFB28:
 198:C:/Workspace/DAVE-4.4.2-64Bit/optiga-trust-m/optiga/crypt\optiga_crypt.c ****                                                   uint8_t cmd_param,
 507              	 .loc 1 198 0
 508              	 .cfi_startproc
 509              	.LVL57:
 510 0000 F0B5     	 push {r4,r5,r6,r7,lr}
 511              	.LCFI5:
 512              	 .cfi_def_cfa_offset 20
 513              	 .cfi_offset 4,-20
 514              	 .cfi_offset 5,-16
 515              	 .cfi_offset 6,-12
 516              	 .cfi_offset 7,-8
 517              	 .cfi_offset 14,-4
 518 0002 85B0     	 sub sp,sp,#20
 519              	.LCFI6:
 520              	 .cfi_def_cfa_offset 40
 198:C:/Workspace/DAVE-4.4.2-64Bit/optiga-trust-m/optiga/crypt\optiga_crypt.c ****                                                   uint8_t cmd_param,
 521              	 .loc 1 198 0
 522 0004 0293     	 str r3,[sp,#8]
 523 0006 0AAB     	 add r3,sp,#40
 524              	.LVL58:
 525 0008 0092     	 str r2,[sp]
 526 000a 04CB     	 ldmia r3!,{r2}
 527              	.LVL59:
 528 000c 041C     	 mov r4,r0
 529 000e 1B88     	 ldrh r3,[r3]
 530              	.LVL60:
 531 0010 0191     	 str r1,[sp,#4]
 532 0012 0393     	 str r3,[sp,#12]
 533 0014 0CAB     	 add r3,sp,#48
 534              	.LVL61:
 535 0016 1D78     	 ldrb r5,[r3]
 214:C:/Workspace/DAVE-4.4.2-64Bit/optiga-trust-m/optiga/crypt\optiga_crypt.c ****             (NULL == p_digest) || (NULL == p_signature) || (NULL == p_public_key))
 536              	 .loc 1 214 0
 537 0018 0028     	 cmp r0,#0
 538 001a 3DD0     	 beq .L49
 539 001c 076A     	 ldr r7,[r0,#32]
 540 001e 002F     	 cmp r7,#0
 541 0020 3AD0     	 beq .L49
 542 0022 009B     	 ldr r3,[sp]
 543              	.LVL62:
 544 0024 002B     	 cmp r3,#0
 545 0026 37D0     	 beq .L49
 215:C:/Workspace/DAVE-4.4.2-64Bit/optiga-trust-m/optiga/crypt\optiga_crypt.c ****         {
 546              	 .loc 1 215 0
 547 0028 002A     	 cmp r2,#0
 548 002a 35D0     	 beq .L49
 549 002c 0D9B     	 ldr r3,[sp,#52]
 550 002e 002B     	 cmp r3,#0
 551 0030 32D0     	 beq .L49
 222:C:/Workspace/DAVE-4.4.2-64Bit/optiga-trust-m/optiga/crypt\optiga_crypt.c ****         {
 552              	 .loc 1 222 0
 553 0032 838D     	 ldrh r3,[r0,#44]
 554 0034 012B     	 cmp r3,#1
 555 0036 31D0     	 beq .L50
 228:C:/Workspace/DAVE-4.4.2-64Bit/optiga-trust-m/optiga/crypt\optiga_crypt.c ****         p_params = (optiga_verify_sign_params_t *)&(me->params.optiga_verify_sign_params);
 556              	 .loc 1 228 0
 557 0038 0126     	 mov r6,#1
 230:C:/Workspace/DAVE-4.4.2-64Bit/optiga-trust-m/optiga/crypt\optiga_crypt.c **** 
 558              	 .loc 1 230 0
 559 003a 0021     	 mov r1,#0
 560              	.LVL63:
 561 003c 2022     	 mov r2,#32
 228:C:/Workspace/DAVE-4.4.2-64Bit/optiga-trust-m/optiga/crypt\optiga_crypt.c ****         p_params = (optiga_verify_sign_params_t *)&(me->params.optiga_verify_sign_params);
 562              	 .loc 1 228 0
 563 003e 8685     	 strh r6,[r0,#44]
 564              	.LVL64:
 230:C:/Workspace/DAVE-4.4.2-64Bit/optiga-trust-m/optiga/crypt\optiga_crypt.c **** 
 565              	 .loc 1 230 0
 566 0040 FFF7FEFF 	 bl memset
 567              	.LVL65:
 232:C:/Workspace/DAVE-4.4.2-64Bit/optiga-trust-m/optiga/crypt\optiga_crypt.c ****         OPTIGA_PROTECTION_SET_VERSION(me->my_cmd, me);
 568              	 .loc 1 232 0
 569 0044 231C     	 mov r3,r4
 570 0046 2E33     	 add r3,r3,#46
 571 0048 1978     	 ldrb r1,[r3]
 572 004a 381C     	 mov r0,r7
 573 004c 0022     	 mov r2,#0
 574 004e FFF7FEFF 	 bl optiga_cmd_set_shielded_connection_option
 575              	.LVL66:
 233:C:/Workspace/DAVE-4.4.2-64Bit/optiga-trust-m/optiga/crypt\optiga_crypt.c ****         p_params->p_digest = p_digest;
 576              	 .loc 1 233 0
 577 0052 231C     	 mov r3,r4
 578 0054 2F33     	 add r3,r3,#47
 579 0056 1978     	 ldrb r1,[r3]
 580 0058 206A     	 ldr r0,[r4,#32]
 581 005a 321C     	 mov r2,r6
 582 005c FFF7FEFF 	 bl optiga_cmd_set_shielded_connection_option
 583              	.LVL67:
 234:C:/Workspace/DAVE-4.4.2-64Bit/optiga-trust-m/optiga/crypt\optiga_crypt.c ****         p_params->digest_length = digest_length;
 584              	 .loc 1 234 0
 585 0060 009B     	 ldr r3,[sp]
 238:C:/Workspace/DAVE-4.4.2-64Bit/optiga-trust-m/optiga/crypt\optiga_crypt.c **** 
 586              	 .loc 1 238 0
 587 0062 A573     	 strb r5,[r4,#14]
 234:C:/Workspace/DAVE-4.4.2-64Bit/optiga-trust-m/optiga/crypt\optiga_crypt.c ****         p_params->digest_length = digest_length;
 588              	 .loc 1 234 0
 589 0064 2360     	 str r3,[r4]
 235:C:/Workspace/DAVE-4.4.2-64Bit/optiga-trust-m/optiga/crypt\optiga_crypt.c ****         p_params->p_signature = p_signature;
 590              	 .loc 1 235 0
 591 0066 6B46     	 mov r3,sp
 592 0068 1B7A     	 ldrb r3,[r3,#8]
 593 006a 2371     	 strb r3,[r4,#4]
 236:C:/Workspace/DAVE-4.4.2-64Bit/optiga-trust-m/optiga/crypt\optiga_crypt.c ****         p_params->signature_length = signature_length;
 594              	 .loc 1 236 0
 595 006c 0A9B     	 ldr r3,[sp,#40]
 596 006e A360     	 str r3,[r4,#8]
 237:C:/Workspace/DAVE-4.4.2-64Bit/optiga-trust-m/optiga/crypt\optiga_crypt.c ****         p_params->public_key_source_type = public_key_source_type;
 597              	 .loc 1 237 0
 598 0070 6B46     	 mov r3,sp
 599 0072 9B89     	 ldrh r3,[r3,#12]
 600 0074 A381     	 strh r3,[r4,#12]
 242:C:/Workspace/DAVE-4.4.2-64Bit/optiga-trust-m/optiga/crypt\optiga_crypt.c ****         }
 601              	 .loc 1 242 0
 602 0076 0D9B     	 ldr r3,[sp,#52]
 240:C:/Workspace/DAVE-4.4.2-64Bit/optiga-trust-m/optiga/crypt\optiga_crypt.c ****         {
 603              	 .loc 1 240 0
 604 0078 002D     	 cmp r5,#0
 605 007a 02D1     	 bne .L43
 242:C:/Workspace/DAVE-4.4.2-64Bit/optiga-trust-m/optiga/crypt\optiga_crypt.c ****         }
 606              	 .loc 1 242 0
 607 007c 1B88     	 ldrh r3,[r3]
 608 007e A382     	 strh r3,[r4,#20]
 609 0080 00E0     	 b .L44
 610              	.L43:
 246:C:/Workspace/DAVE-4.4.2-64Bit/optiga-trust-m/optiga/crypt\optiga_crypt.c ****         }
 611              	 .loc 1 246 0
 612 0082 2361     	 str r3,[r4,#16]
 613              	.L44:
 249:C:/Workspace/DAVE-4.4.2-64Bit/optiga-trust-m/optiga/crypt\optiga_crypt.c ****                                              (uint8_t)cmd_param,
 614              	 .loc 1 249 0
 615 0084 206A     	 ldr r0,[r4,#32]
 616 0086 0199     	 ldr r1,[sp,#4]
 617 0088 221C     	 mov r2,r4
 618 008a FFF7FEFF 	 bl optiga_cmd_verify_sign
 619              	.LVL68:
 620 008e 051E     	 sub r5,r0,#0
 621              	.LVL69:
 252:C:/Workspace/DAVE-4.4.2-64Bit/optiga-trust-m/optiga/crypt\optiga_crypt.c ****         {
 622              	 .loc 1 252 0
 623 0090 05D0     	 beq .L42
 254:C:/Workspace/DAVE-4.4.2-64Bit/optiga-trust-m/optiga/crypt\optiga_crypt.c ****         }
 624              	 .loc 1 254 0
 625 0092 0023     	 mov r3,#0
 626 0094 A385     	 strh r3,[r4,#44]
 627 0096 02E0     	 b .L42
 628              	.LVL70:
 629              	.L49:
 217:C:/Workspace/DAVE-4.4.2-64Bit/optiga-trust-m/optiga/crypt\optiga_crypt.c ****             break;
 630              	 .loc 1 217 0
 631 0098 044D     	 ldr r5,.L54
 632 009a 00E0     	 b .L42
 633              	.L50:
 224:C:/Workspace/DAVE-4.4.2-64Bit/optiga-trust-m/optiga/crypt\optiga_crypt.c ****             break;
 634              	 .loc 1 224 0
 635 009c 044D     	 ldr r5,.L54+4
 636              	.LVL71:
 637              	.L42:
 257:C:/Workspace/DAVE-4.4.2-64Bit/optiga-trust-m/optiga/crypt\optiga_crypt.c **** 
 638              	 .loc 1 257 0
 639 009e 201C     	 mov r0,r4
 640 00a0 FFF7FEFF 	 bl optiga_crypt_reset_protection_level
 641              	.LVL72:
 260:C:/Workspace/DAVE-4.4.2-64Bit/optiga-trust-m/optiga/crypt\optiga_crypt.c **** #endif //(OPTIGA_CRYPT_ECDSA_VERIFY_ENABLED) || (OPTIGA_CRYPT_RSA_VERIFY_ENABLED)
 642              	 .loc 1 260 0
 643 00a4 281C     	 mov r0,r5
 644 00a6 05B0     	 add sp,sp,#20
 645              	.LVL73:
 646              	 
 647              	.LVL74:
 648              	.LVL75:
 649 00a8 F0BD     	 pop {r4,r5,r6,r7,pc}
 650              	.L55:
 651 00aa C046     	 .align 2
 652              	.L54:
 653 00ac 03040000 	 .word 1027
 654 00b0 05040000 	 .word 1029
 655              	 .cfi_endproc
 656              	.LFE28:
 658              	 .section .text.optiga_crypt_rsa_enc_dec.isra.2,"ax",%progbits
 659              	 .align 1
 660              	 .code 16
 661              	 .thumb_func
 663              	optiga_crypt_rsa_enc_dec.isra.2:
 664              	.LFB29:
 265:C:/Workspace/DAVE-4.4.2-64Bit/optiga-trust-m/optiga/crypt\optiga_crypt.c ****                                                        optiga_rsa_encryption_scheme_t encryption_sc
 665              	 .loc 1 265 0
 666              	 .cfi_startproc
 667              	.LVL76:
 668 0000 F0B5     	 push {r4,r5,r6,r7,lr}
 669              	.LCFI7:
 670              	 .cfi_def_cfa_offset 20
 671              	 .cfi_offset 4,-20
 672              	 .cfi_offset 5,-16
 673              	 .cfi_offset 6,-12
 674              	 .cfi_offset 7,-8
 675              	 .cfi_offset 14,-4
 676 0002 85B0     	 sub sp,sp,#20
 677              	.LCFI8:
 678              	 .cfi_def_cfa_offset 40
 265:C:/Workspace/DAVE-4.4.2-64Bit/optiga-trust-m/optiga/crypt\optiga_crypt.c ****                                                        optiga_rsa_encryption_scheme_t encryption_sc
 679              	 .loc 1 265 0
 680 0004 0293     	 str r3,[sp,#8]
 681 0006 0AAB     	 add r3,sp,#40
 682              	.LVL77:
 683 0008 1B78     	 ldrb r3,[r3]
 684              	.LVL78:
 685 000a 0192     	 str r2,[sp,#4]
 686 000c 0393     	 str r3,[sp,#12]
 687 000e 0EAB     	 add r3,sp,#56
 688              	.LVL79:
 689 0010 1E78     	 ldrb r6,[r3]
 282:C:/Workspace/DAVE-4.4.2-64Bit/optiga-trust-m/optiga/crypt\optiga_crypt.c ****         {
 690              	 .loc 1 282 0
 691 0012 838D     	 ldrh r3,[r0,#44]
 692              	.LVL80:
 265:C:/Workspace/DAVE-4.4.2-64Bit/optiga-trust-m/optiga/crypt\optiga_crypt.c ****                                                        optiga_rsa_encryption_scheme_t encryption_sc
 693              	 .loc 1 265 0
 694 0014 041C     	 mov r4,r0
 695 0016 0D1C     	 mov r5,r1
 282:C:/Workspace/DAVE-4.4.2-64Bit/optiga-trust-m/optiga/crypt\optiga_crypt.c ****         {
 696              	 .loc 1 282 0
 697 0018 012B     	 cmp r3,#1
 698 001a 39D0     	 beq .L60
 287:C:/Workspace/DAVE-4.4.2-64Bit/optiga-trust-m/optiga/crypt\optiga_crypt.c **** 
 699              	 .loc 1 287 0
 700 001c 0127     	 mov r7,#1
 290:C:/Workspace/DAVE-4.4.2-64Bit/optiga-trust-m/optiga/crypt\optiga_crypt.c **** 
 701              	 .loc 1 290 0
 702 001e 0021     	 mov r1,#0
 703              	.LVL81:
 704 0020 2022     	 mov r2,#32
 705              	.LVL82:
 287:C:/Workspace/DAVE-4.4.2-64Bit/optiga-trust-m/optiga/crypt\optiga_crypt.c **** 
 706              	 .loc 1 287 0
 707 0022 8785     	 strh r7,[r0,#44]
 708              	.LVL83:
 290:C:/Workspace/DAVE-4.4.2-64Bit/optiga-trust-m/optiga/crypt\optiga_crypt.c **** 
 709              	 .loc 1 290 0
 710 0024 FFF7FEFF 	 bl memset
 711              	.LVL84:
 292:C:/Workspace/DAVE-4.4.2-64Bit/optiga-trust-m/optiga/crypt\optiga_crypt.c ****         p_params->message_length = message_length;
 712              	 .loc 1 292 0
 713 0028 019B     	 ldr r3,[sp,#4]
 297:C:/Workspace/DAVE-4.4.2-64Bit/optiga-trust-m/optiga/crypt\optiga_crypt.c ****         OPTIGA_PROTECTION_SET_VERSION(me->my_cmd, me);
 714              	 .loc 1 297 0
 715 002a 206A     	 ldr r0,[r4,#32]
 292:C:/Workspace/DAVE-4.4.2-64Bit/optiga-trust-m/optiga/crypt\optiga_crypt.c ****         p_params->message_length = message_length;
 716              	 .loc 1 292 0
 717 002c A360     	 str r3,[r4,#8]
 293:C:/Workspace/DAVE-4.4.2-64Bit/optiga-trust-m/optiga/crypt\optiga_crypt.c ****         p_params->processed_message = p_processed_message;
 718              	 .loc 1 293 0
 719 002e 6B46     	 mov r3,sp
 720 0030 1B89     	 ldrh r3,[r3,#8]
 297:C:/Workspace/DAVE-4.4.2-64Bit/optiga-trust-m/optiga/crypt\optiga_crypt.c ****         OPTIGA_PROTECTION_SET_VERSION(me->my_cmd, me);
 721              	 .loc 1 297 0
 722 0032 0022     	 mov r2,#0
 293:C:/Workspace/DAVE-4.4.2-64Bit/optiga-trust-m/optiga/crypt\optiga_crypt.c ****         p_params->processed_message = p_processed_message;
 723              	 .loc 1 293 0
 724 0034 2380     	 strh r3,[r4]
 294:C:/Workspace/DAVE-4.4.2-64Bit/optiga-trust-m/optiga/crypt\optiga_crypt.c ****         p_params->processed_message_length = p_processed_message_length;
 725              	 .loc 1 294 0
 726 0036 0C9B     	 ldr r3,[sp,#48]
 727 0038 6361     	 str r3,[r4,#20]
 295:C:/Workspace/DAVE-4.4.2-64Bit/optiga-trust-m/optiga/crypt\optiga_crypt.c **** 
 728              	 .loc 1 295 0
 729 003a 0D9B     	 ldr r3,[sp,#52]
 730 003c 6360     	 str r3,[r4,#4]
 297:C:/Workspace/DAVE-4.4.2-64Bit/optiga-trust-m/optiga/crypt\optiga_crypt.c ****         OPTIGA_PROTECTION_SET_VERSION(me->my_cmd, me);
 731              	 .loc 1 297 0
 732 003e 231C     	 mov r3,r4
 733 0040 2E33     	 add r3,r3,#46
 734 0042 1978     	 ldrb r1,[r3]
 735 0044 FFF7FEFF 	 bl optiga_cmd_set_shielded_connection_option
 736              	.LVL85:
 298:C:/Workspace/DAVE-4.4.2-64Bit/optiga-trust-m/optiga/crypt\optiga_crypt.c **** 
 737              	 .loc 1 298 0
 738 0048 231C     	 mov r3,r4
 739 004a 2F33     	 add r3,r3,#47
 740 004c 1978     	 ldrb r1,[r3]
 741 004e 206A     	 ldr r0,[r4,#32]
 742 0050 3A1C     	 mov r2,r7
 743 0052 FFF7FEFF 	 bl optiga_cmd_set_shielded_connection_option
 744              	.LVL86:
 303:C:/Workspace/DAVE-4.4.2-64Bit/optiga-trust-m/optiga/crypt\optiga_crypt.c ****             p_params->public_key_source_type = public_key_source_type;
 745              	 .loc 1 303 0
 746 0056 0B9B     	 ldr r3,[sp,#44]
 301:C:/Workspace/DAVE-4.4.2-64Bit/optiga-trust-m/optiga/crypt\optiga_crypt.c ****         {
 747              	 .loc 1 301 0
 748 0058 002E     	 cmp r6,#0
 749 005a 09D0     	 beq .L58
 303:C:/Workspace/DAVE-4.4.2-64Bit/optiga-trust-m/optiga/crypt\optiga_crypt.c ****             p_params->public_key_source_type = public_key_source_type;
 750              	 .loc 1 303 0
 751 005c 2361     	 str r3,[r4,#16]
 304:C:/Workspace/DAVE-4.4.2-64Bit/optiga-trust-m/optiga/crypt\optiga_crypt.c **** #ifdef OPTIGA_CRYPT_RSA_ENCRYPT_ENABLED
 752              	 .loc 1 304 0
 753 005e 6B46     	 mov r3,sp
 754 0060 1B7B     	 ldrb r3,[r3,#12]
 306:C:/Workspace/DAVE-4.4.2-64Bit/optiga-trust-m/optiga/crypt\optiga_crypt.c ****                                                    (optiga_encrypt_asym_params_t *)p_params);
 755              	 .loc 1 306 0
 756 0062 206A     	 ldr r0,[r4,#32]
 304:C:/Workspace/DAVE-4.4.2-64Bit/optiga-trust-m/optiga/crypt\optiga_crypt.c **** #ifdef OPTIGA_CRYPT_RSA_ENCRYPT_ENABLED
 757              	 .loc 1 304 0
 758 0064 2373     	 strb r3,[r4,#12]
 306:C:/Workspace/DAVE-4.4.2-64Bit/optiga-trust-m/optiga/crypt\optiga_crypt.c ****                                                    (optiga_encrypt_asym_params_t *)p_params);
 759              	 .loc 1 306 0
 760 0066 291C     	 mov r1,r5
 761 0068 221C     	 mov r2,r4
 762 006a FFF7FEFF 	 bl optiga_cmd_encrypt_asym
 763              	.LVL87:
 764 006e 0AE0     	 b .L64
 765              	.L58:
 312:C:/Workspace/DAVE-4.4.2-64Bit/optiga-trust-m/optiga/crypt\optiga_crypt.c ****             p_params->key = &p_params->private_key_id;
 766              	 .loc 1 312 0
 767 0070 1B88     	 ldrh r3,[r3]
 316:C:/Workspace/DAVE-4.4.2-64Bit/optiga-trust-m/optiga/crypt\optiga_crypt.c ****                                                    (optiga_encrypt_asym_params_t *)p_params);
 768              	 .loc 1 316 0
 769 0072 206A     	 ldr r0,[r4,#32]
 312:C:/Workspace/DAVE-4.4.2-64Bit/optiga-trust-m/optiga/crypt\optiga_crypt.c ****             p_params->key = &p_params->private_key_id;
 770              	 .loc 1 312 0
 771 0074 2383     	 strh r3,[r4,#24]
 313:C:/Workspace/DAVE-4.4.2-64Bit/optiga-trust-m/optiga/crypt\optiga_crypt.c ****             p_params->public_key_source_type = 0;
 772              	 .loc 1 313 0
 773 0076 231C     	 mov r3,r4
 774 0078 1833     	 add r3,r3,#24
 775 007a 2361     	 str r3,[r4,#16]
 314:C:/Workspace/DAVE-4.4.2-64Bit/optiga-trust-m/optiga/crypt\optiga_crypt.c **** #ifdef OPTIGA_CRYPT_RSA_DECRYPT_ENABLED
 776              	 .loc 1 314 0
 777 007c 2673     	 strb r6,[r4,#12]
 316:C:/Workspace/DAVE-4.4.2-64Bit/optiga-trust-m/optiga/crypt\optiga_crypt.c ****                                                    (optiga_encrypt_asym_params_t *)p_params);
 778              	 .loc 1 316 0
 779 007e 291C     	 mov r1,r5
 780 0080 221C     	 mov r2,r4
 781 0082 FFF7FEFF 	 bl optiga_cmd_decrypt_asym
 782              	.LVL88:
 783              	.L64:
 784 0086 051E     	 sub r5,r0,#0
 785              	.LVL89:
 320:C:/Workspace/DAVE-4.4.2-64Bit/optiga-trust-m/optiga/crypt\optiga_crypt.c ****         {
 786              	 .loc 1 320 0
 787 0088 03D0     	 beq .L57
 322:C:/Workspace/DAVE-4.4.2-64Bit/optiga-trust-m/optiga/crypt\optiga_crypt.c ****         }
 788              	 .loc 1 322 0
 789 008a 0023     	 mov r3,#0
 790 008c A385     	 strh r3,[r4,#44]
 791 008e 00E0     	 b .L57
 792              	.LVL90:
 793              	.L60:
 284:C:/Workspace/DAVE-4.4.2-64Bit/optiga-trust-m/optiga/crypt\optiga_crypt.c ****             break;
 794              	 .loc 1 284 0
 795 0090 034D     	 ldr r5,.L65
 796              	.LVL91:
 797              	.L57:
 325:C:/Workspace/DAVE-4.4.2-64Bit/optiga-trust-m/optiga/crypt\optiga_crypt.c **** 
 798              	 .loc 1 325 0
 799 0092 201C     	 mov r0,r4
 800 0094 FFF7FEFF 	 bl optiga_crypt_reset_protection_level
 801              	.LVL92:
 328:C:/Workspace/DAVE-4.4.2-64Bit/optiga-trust-m/optiga/crypt\optiga_crypt.c **** #endif //(OPTIGA_CRYPT_RSA_DECRYPT_ENABLED) || (OPTIGA_CRYPT_RSA_ENCRYPT_ENABLED)
 802              	 .loc 1 328 0
 803 0098 281C     	 mov r0,r5
 804 009a 05B0     	 add sp,sp,#20
 805              	 
 806              	.LVL93:
 807              	.LVL94:
 808 009c F0BD     	 pop {r4,r5,r6,r7,pc}
 809              	.L66:
 810 009e C046     	 .align 2
 811              	.L65:
 812 00a0 05040000 	 .word 1029
 813              	 .cfi_endproc
 814              	.LFE29:
 816              	 .section .text.optiga_crypt_set_comms_params,"ax",%progbits
 817              	 .align 1
 818              	 .global optiga_crypt_set_comms_params
 819              	 .code 16
 820              	 .thumb_func
 822              	optiga_crypt_set_comms_params:
 823              	.LFB7:
 378:C:/Workspace/DAVE-4.4.2-64Bit/optiga-trust-m/optiga/crypt\optiga_crypt.c ****     switch (parameter_type)
 824              	 .loc 1 378 0
 825              	 .cfi_startproc
 826              	.LVL95:
 379:C:/Workspace/DAVE-4.4.2-64Bit/optiga-trust-m/optiga/crypt\optiga_crypt.c ****     {
 827              	 .loc 1 379 0
 828 0000 0129     	 cmp r1,#1
 829 0002 03D0     	 beq .L69
 830 0004 0229     	 cmp r1,#2
 831 0006 03D1     	 bne .L67
 384:C:/Workspace/DAVE-4.4.2-64Bit/optiga-trust-m/optiga/crypt\optiga_crypt.c ****             break;
 385:C:/Workspace/DAVE-4.4.2-64Bit/optiga-trust-m/optiga/crypt\optiga_crypt.c ****         }
 386:C:/Workspace/DAVE-4.4.2-64Bit/optiga-trust-m/optiga/crypt\optiga_crypt.c ****         case OPTIGA_COMMS_PROTOCOL_VERSION:
 387:C:/Workspace/DAVE-4.4.2-64Bit/optiga-trust-m/optiga/crypt\optiga_crypt.c ****         {
 388:C:/Workspace/DAVE-4.4.2-64Bit/optiga-trust-m/optiga/crypt\optiga_crypt.c ****             me->protocol_version = value;
 832              	 .loc 1 388 0
 833 0008 2F30     	 add r0,r0,#47
 834              	.LVL96:
 835 000a 00E0     	 b .L71
 836              	.LVL97:
 837              	.L69:
 383:C:/Workspace/DAVE-4.4.2-64Bit/optiga-trust-m/optiga/crypt\optiga_crypt.c ****             break;
 838              	 .loc 1 383 0
 839 000c 2E30     	 add r0,r0,#46
 840              	.LVL98:
 841              	.L71:
 842              	 .loc 1 388 0
 843 000e 0270     	 strb r2,[r0]
 844              	.L67:
 389:C:/Workspace/DAVE-4.4.2-64Bit/optiga-trust-m/optiga/crypt\optiga_crypt.c ****             break;
 390:C:/Workspace/DAVE-4.4.2-64Bit/optiga-trust-m/optiga/crypt\optiga_crypt.c ****         }
 391:C:/Workspace/DAVE-4.4.2-64Bit/optiga-trust-m/optiga/crypt\optiga_crypt.c ****         default:
 392:C:/Workspace/DAVE-4.4.2-64Bit/optiga-trust-m/optiga/crypt\optiga_crypt.c ****         {
 393:C:/Workspace/DAVE-4.4.2-64Bit/optiga-trust-m/optiga/crypt\optiga_crypt.c ****             break;
 394:C:/Workspace/DAVE-4.4.2-64Bit/optiga-trust-m/optiga/crypt\optiga_crypt.c ****         }
 395:C:/Workspace/DAVE-4.4.2-64Bit/optiga-trust-m/optiga/crypt\optiga_crypt.c ****     }
 396:C:/Workspace/DAVE-4.4.2-64Bit/optiga-trust-m/optiga/crypt\optiga_crypt.c **** }
 845              	 .loc 1 396 0
 846              	 
 847 0010 7047     	 bx lr
 848              	 .cfi_endproc
 849              	.LFE7:
 851              	 .section .text.optiga_crypt_create,"ax",%progbits
 852              	 .align 1
 853              	 .global optiga_crypt_create
 854              	 .code 16
 855              	 .thumb_func
 857              	optiga_crypt_create:
 858              	.LFB8:
 397:C:/Workspace/DAVE-4.4.2-64Bit/optiga-trust-m/optiga/crypt\optiga_crypt.c **** #endif
 398:C:/Workspace/DAVE-4.4.2-64Bit/optiga-trust-m/optiga/crypt\optiga_crypt.c **** 
 399:C:/Workspace/DAVE-4.4.2-64Bit/optiga-trust-m/optiga/crypt\optiga_crypt.c **** optiga_crypt_t * optiga_crypt_create(uint8_t optiga_instance_id,
 400:C:/Workspace/DAVE-4.4.2-64Bit/optiga-trust-m/optiga/crypt\optiga_crypt.c ****                                      callback_handler_t handler,
 401:C:/Workspace/DAVE-4.4.2-64Bit/optiga-trust-m/optiga/crypt\optiga_crypt.c ****                                      void * caller_context)
 402:C:/Workspace/DAVE-4.4.2-64Bit/optiga-trust-m/optiga/crypt\optiga_crypt.c **** {
 859              	 .loc 1 402 0
 860              	 .cfi_startproc
 861              	.LVL99:
 862 0000 F8B5     	 push {r3,r4,r5,r6,r7,lr}
 863              	.LCFI9:
 864              	 .cfi_def_cfa_offset 24
 865              	 .cfi_offset 3,-24
 866              	 .cfi_offset 4,-20
 867              	 .cfi_offset 5,-16
 868              	 .cfi_offset 6,-12
 869              	 .cfi_offset 7,-8
 870              	 .cfi_offset 14,-4
 403:C:/Workspace/DAVE-4.4.2-64Bit/optiga-trust-m/optiga/crypt\optiga_crypt.c ****     optiga_crypt_t * me = NULL;
 404:C:/Workspace/DAVE-4.4.2-64Bit/optiga-trust-m/optiga/crypt\optiga_crypt.c **** 
 405:C:/Workspace/DAVE-4.4.2-64Bit/optiga-trust-m/optiga/crypt\optiga_crypt.c ****     do
 406:C:/Workspace/DAVE-4.4.2-64Bit/optiga-trust-m/optiga/crypt\optiga_crypt.c ****     {
 407:C:/Workspace/DAVE-4.4.2-64Bit/optiga-trust-m/optiga/crypt\optiga_crypt.c **** #ifdef OPTIGA_LIB_DEBUG_NULL_CHECK
 408:C:/Workspace/DAVE-4.4.2-64Bit/optiga-trust-m/optiga/crypt\optiga_crypt.c ****         if (NULL == handler)
 871              	 .loc 1 408 0
 872 0002 0029     	 cmp r1,#0
 873 0004 01D1     	 bne .L73
 874              	.LVL100:
 875              	.L75:
 403:C:/Workspace/DAVE-4.4.2-64Bit/optiga-trust-m/optiga/crypt\optiga_crypt.c ****     optiga_crypt_t * me = NULL;
 876              	 .loc 1 403 0
 877 0006 0024     	 mov r4,#0
 878 0008 1EE0     	 b .L74
 879              	.LVL101:
 880              	.L73:
 881 000a 0F1C     	 mov r7,r1
 882 000c 051C     	 mov r5,r0
 409:C:/Workspace/DAVE-4.4.2-64Bit/optiga-trust-m/optiga/crypt\optiga_crypt.c ****         {
 410:C:/Workspace/DAVE-4.4.2-64Bit/optiga-trust-m/optiga/crypt\optiga_crypt.c ****             break;
 411:C:/Workspace/DAVE-4.4.2-64Bit/optiga-trust-m/optiga/crypt\optiga_crypt.c ****         }
 412:C:/Workspace/DAVE-4.4.2-64Bit/optiga-trust-m/optiga/crypt\optiga_crypt.c **** #endif
 413:C:/Workspace/DAVE-4.4.2-64Bit/optiga-trust-m/optiga/crypt\optiga_crypt.c ****         me = (optiga_crypt_t *)pal_os_calloc(1, sizeof(optiga_crypt_t));
 883              	 .loc 1 413 0
 884 000e 3021     	 mov r1,#48
 885              	.LVL102:
 886 0010 0120     	 mov r0,#1
 887              	.LVL103:
 888 0012 161C     	 mov r6,r2
 889 0014 FFF7FEFF 	 bl calloc
 890              	.LVL104:
 891 0018 041E     	 sub r4,r0,#0
 892              	.LVL105:
 414:C:/Workspace/DAVE-4.4.2-64Bit/optiga-trust-m/optiga/crypt\optiga_crypt.c ****         if (NULL == me)
 893              	 .loc 1 414 0
 894 001a F4D0     	 beq .L75
 415:C:/Workspace/DAVE-4.4.2-64Bit/optiga-trust-m/optiga/crypt\optiga_crypt.c ****         {
 416:C:/Workspace/DAVE-4.4.2-64Bit/optiga-trust-m/optiga/crypt\optiga_crypt.c ****             break;
 417:C:/Workspace/DAVE-4.4.2-64Bit/optiga-trust-m/optiga/crypt\optiga_crypt.c ****         }
 418:C:/Workspace/DAVE-4.4.2-64Bit/optiga-trust-m/optiga/crypt\optiga_crypt.c **** 
 419:C:/Workspace/DAVE-4.4.2-64Bit/optiga-trust-m/optiga/crypt\optiga_crypt.c ****         me->handler = handler;
 420:C:/Workspace/DAVE-4.4.2-64Bit/optiga-trust-m/optiga/crypt\optiga_crypt.c ****         me->caller_context = caller_context;
 421:C:/Workspace/DAVE-4.4.2-64Bit/optiga-trust-m/optiga/crypt\optiga_crypt.c ****         me->instance_state = OPTIGA_LIB_SUCCESS;
 422:C:/Workspace/DAVE-4.4.2-64Bit/optiga-trust-m/optiga/crypt\optiga_crypt.c **** #ifdef OPTIGA_COMMS_SHIELDED_CONNECTION
 423:C:/Workspace/DAVE-4.4.2-64Bit/optiga-trust-m/optiga/crypt\optiga_crypt.c ****         me->protocol_version = OPTIGA_COMMS_PROTOCOL_VERSION_PRE_SHARED_SECRET;
 895              	 .loc 1 423 0
 896 001c 031C     	 mov r3,r0
 421:C:/Workspace/DAVE-4.4.2-64Bit/optiga-trust-m/optiga/crypt\optiga_crypt.c **** #ifdef OPTIGA_COMMS_SHIELDED_CONNECTION
 897              	 .loc 1 421 0
 898 001e 0022     	 mov r2,#0
 899              	 .loc 1 423 0
 900 0020 0121     	 mov r1,#1
 901 0022 2F33     	 add r3,r3,#47
 421:C:/Workspace/DAVE-4.4.2-64Bit/optiga-trust-m/optiga/crypt\optiga_crypt.c **** #ifdef OPTIGA_COMMS_SHIELDED_CONNECTION
 902              	 .loc 1 421 0
 903 0024 8285     	 strh r2,[r0,#44]
 419:C:/Workspace/DAVE-4.4.2-64Bit/optiga-trust-m/optiga/crypt\optiga_crypt.c ****         me->caller_context = caller_context;
 904              	 .loc 1 419 0
 905 0026 8762     	 str r7,[r0,#40]
 420:C:/Workspace/DAVE-4.4.2-64Bit/optiga-trust-m/optiga/crypt\optiga_crypt.c ****         me->instance_state = OPTIGA_LIB_SUCCESS;
 906              	 .loc 1 420 0
 907 0028 4662     	 str r6,[r0,#36]
 424:C:/Workspace/DAVE-4.4.2-64Bit/optiga-trust-m/optiga/crypt\optiga_crypt.c ****         me->protection_level = OPTIGA_COMMS_DEFAULT_PROTECTION_LEVEL;
 908              	 .loc 1 424 0
 909 002a 013B     	 sub r3,r3,#1
 423:C:/Workspace/DAVE-4.4.2-64Bit/optiga-trust-m/optiga/crypt\optiga_crypt.c ****         me->protection_level = OPTIGA_COMMS_DEFAULT_PROTECTION_LEVEL;
 910              	 .loc 1 423 0
 911 002c 5970     	 strb r1,[r3,#1]
 425:C:/Workspace/DAVE-4.4.2-64Bit/optiga-trust-m/optiga/crypt\optiga_crypt.c **** #endif
 426:C:/Workspace/DAVE-4.4.2-64Bit/optiga-trust-m/optiga/crypt\optiga_crypt.c ****         me->my_cmd = optiga_cmd_create(optiga_instance_id,
 912              	 .loc 1 426 0
 913 002e 281C     	 mov r0,r5
 914              	.LVL106:
 424:C:/Workspace/DAVE-4.4.2-64Bit/optiga-trust-m/optiga/crypt\optiga_crypt.c **** #endif
 915              	 .loc 1 424 0
 916 0030 1A70     	 strb r2,[r3]
 917              	 .loc 1 426 0
 918 0032 0649     	 ldr r1,.L79
 919 0034 221C     	 mov r2,r4
 920 0036 FFF7FEFF 	 bl optiga_cmd_create
 921              	.LVL107:
 922 003a 051E     	 sub r5,r0,#0
 923 003c 2062     	 str r0,[r4,#32]
 427:C:/Workspace/DAVE-4.4.2-64Bit/optiga-trust-m/optiga/crypt\optiga_crypt.c ****                                        optiga_crypt_generic_event_handler,
 428:C:/Workspace/DAVE-4.4.2-64Bit/optiga-trust-m/optiga/crypt\optiga_crypt.c ****                                        me);
 429:C:/Workspace/DAVE-4.4.2-64Bit/optiga-trust-m/optiga/crypt\optiga_crypt.c ****         if (NULL == me->my_cmd)
 924              	 .loc 1 429 0
 925 003e 03D1     	 bne .L74
 430:C:/Workspace/DAVE-4.4.2-64Bit/optiga-trust-m/optiga/crypt\optiga_crypt.c ****         {
 431:C:/Workspace/DAVE-4.4.2-64Bit/optiga-trust-m/optiga/crypt\optiga_crypt.c ****             pal_os_free(me);
 926              	 .loc 1 431 0
 927 0040 201C     	 mov r0,r4
 928 0042 FFF7FEFF 	 bl free
 929              	.LVL108:
 432:C:/Workspace/DAVE-4.4.2-64Bit/optiga-trust-m/optiga/crypt\optiga_crypt.c ****             me = NULL;
 930              	 .loc 1 432 0
 931 0046 2C1C     	 mov r4,r5
 932              	.LVL109:
 933              	.L74:
 433:C:/Workspace/DAVE-4.4.2-64Bit/optiga-trust-m/optiga/crypt\optiga_crypt.c ****         }
 434:C:/Workspace/DAVE-4.4.2-64Bit/optiga-trust-m/optiga/crypt\optiga_crypt.c **** 
 435:C:/Workspace/DAVE-4.4.2-64Bit/optiga-trust-m/optiga/crypt\optiga_crypt.c ****     } while (FALSE);
 436:C:/Workspace/DAVE-4.4.2-64Bit/optiga-trust-m/optiga/crypt\optiga_crypt.c **** 
 437:C:/Workspace/DAVE-4.4.2-64Bit/optiga-trust-m/optiga/crypt\optiga_crypt.c ****     return (me);
 438:C:/Workspace/DAVE-4.4.2-64Bit/optiga-trust-m/optiga/crypt\optiga_crypt.c **** }
 934              	 .loc 1 438 0
 935 0048 201C     	 mov r0,r4
 936              	 
 937              	.LVL110:
 938 004a F8BD     	 pop {r3,r4,r5,r6,r7,pc}
 939              	.L80:
 940              	 .align 2
 941              	.L79:
 942 004c 00000000 	 .word optiga_crypt_generic_event_handler
 943              	 .cfi_endproc
 944              	.LFE8:
 946              	 .section .text.optiga_crypt_destroy,"ax",%progbits
 947              	 .align 1
 948              	 .global optiga_crypt_destroy
 949              	 .code 16
 950              	 .thumb_func
 952              	optiga_crypt_destroy:
 953              	.LFB9:
 439:C:/Workspace/DAVE-4.4.2-64Bit/optiga-trust-m/optiga/crypt\optiga_crypt.c **** 
 440:C:/Workspace/DAVE-4.4.2-64Bit/optiga-trust-m/optiga/crypt\optiga_crypt.c **** optiga_lib_status_t optiga_crypt_destroy(optiga_crypt_t * me)
 441:C:/Workspace/DAVE-4.4.2-64Bit/optiga-trust-m/optiga/crypt\optiga_crypt.c **** {
 954              	 .loc 1 441 0
 955              	 .cfi_startproc
 956              	.LVL111:
 957 0000 38B5     	 push {r3,r4,r5,lr}
 958              	.LCFI10:
 959              	 .cfi_def_cfa_offset 16
 960              	 .cfi_offset 3,-16
 961              	 .cfi_offset 4,-12
 962              	 .cfi_offset 5,-8
 963              	 .cfi_offset 14,-4
 442:C:/Workspace/DAVE-4.4.2-64Bit/optiga-trust-m/optiga/crypt\optiga_crypt.c ****     optiga_lib_status_t return_value;
 443:C:/Workspace/DAVE-4.4.2-64Bit/optiga-trust-m/optiga/crypt\optiga_crypt.c **** 
 444:C:/Workspace/DAVE-4.4.2-64Bit/optiga-trust-m/optiga/crypt\optiga_crypt.c ****     do
 445:C:/Workspace/DAVE-4.4.2-64Bit/optiga-trust-m/optiga/crypt\optiga_crypt.c ****     {
 446:C:/Workspace/DAVE-4.4.2-64Bit/optiga-trust-m/optiga/crypt\optiga_crypt.c **** #ifdef OPTIGA_LIB_DEBUG_NULL_CHECK
 447:C:/Workspace/DAVE-4.4.2-64Bit/optiga-trust-m/optiga/crypt\optiga_crypt.c ****         if (NULL == me)
 964              	 .loc 1 447 0
 965 0002 0028     	 cmp r0,#0
 966 0004 0BD0     	 beq .L83
 448:C:/Workspace/DAVE-4.4.2-64Bit/optiga-trust-m/optiga/crypt\optiga_crypt.c ****         {
 449:C:/Workspace/DAVE-4.4.2-64Bit/optiga-trust-m/optiga/crypt\optiga_crypt.c ****             return_value = OPTIGA_CRYPT_ERROR_INVALID_INPUT;
 450:C:/Workspace/DAVE-4.4.2-64Bit/optiga-trust-m/optiga/crypt\optiga_crypt.c ****             break;
 451:C:/Workspace/DAVE-4.4.2-64Bit/optiga-trust-m/optiga/crypt\optiga_crypt.c ****         }
 452:C:/Workspace/DAVE-4.4.2-64Bit/optiga-trust-m/optiga/crypt\optiga_crypt.c **** #endif
 453:C:/Workspace/DAVE-4.4.2-64Bit/optiga-trust-m/optiga/crypt\optiga_crypt.c ****         if (OPTIGA_LIB_INSTANCE_BUSY == me->instance_state)
 967              	 .loc 1 453 0
 968 0006 838D     	 ldrh r3,[r0,#44]
 969 0008 012B     	 cmp r3,#1
 970 000a 0AD0     	 beq .L84
 971 000c 041C     	 mov r4,r0
 454:C:/Workspace/DAVE-4.4.2-64Bit/optiga-trust-m/optiga/crypt\optiga_crypt.c ****         {
 455:C:/Workspace/DAVE-4.4.2-64Bit/optiga-trust-m/optiga/crypt\optiga_crypt.c ****             return_value = OPTIGA_CRYPT_ERROR_INSTANCE_IN_USE;
 456:C:/Workspace/DAVE-4.4.2-64Bit/optiga-trust-m/optiga/crypt\optiga_crypt.c ****             break;
 457:C:/Workspace/DAVE-4.4.2-64Bit/optiga-trust-m/optiga/crypt\optiga_crypt.c ****         }
 458:C:/Workspace/DAVE-4.4.2-64Bit/optiga-trust-m/optiga/crypt\optiga_crypt.c ****         return_value = optiga_cmd_destroy(me->my_cmd);
 972              	 .loc 1 458 0
 973 000e 006A     	 ldr r0,[r0,#32]
 974              	.LVL112:
 975 0010 FFF7FEFF 	 bl optiga_cmd_destroy
 976              	.LVL113:
 977 0014 051C     	 mov r5,r0
 978              	.LVL114:
 459:C:/Workspace/DAVE-4.4.2-64Bit/optiga-trust-m/optiga/crypt\optiga_crypt.c ****         pal_os_free(me);
 979              	 .loc 1 459 0
 980 0016 201C     	 mov r0,r4
 981              	.LVL115:
 982 0018 FFF7FEFF 	 bl free
 983              	.LVL116:
 984 001c 02E0     	 b .L82
 985              	.LVL117:
 986              	.L83:
 449:C:/Workspace/DAVE-4.4.2-64Bit/optiga-trust-m/optiga/crypt\optiga_crypt.c ****             break;
 987              	 .loc 1 449 0
 988 001e 024D     	 ldr r5,.L85
 989 0020 00E0     	 b .L82
 990              	.L84:
 455:C:/Workspace/DAVE-4.4.2-64Bit/optiga-trust-m/optiga/crypt\optiga_crypt.c ****             break;
 991              	 .loc 1 455 0
 992 0022 024D     	 ldr r5,.L85+4
 993              	.LVL118:
 994              	.L82:
 460:C:/Workspace/DAVE-4.4.2-64Bit/optiga-trust-m/optiga/crypt\optiga_crypt.c **** 
 461:C:/Workspace/DAVE-4.4.2-64Bit/optiga-trust-m/optiga/crypt\optiga_crypt.c ****     } while (FALSE);
 462:C:/Workspace/DAVE-4.4.2-64Bit/optiga-trust-m/optiga/crypt\optiga_crypt.c ****     return (return_value);
 463:C:/Workspace/DAVE-4.4.2-64Bit/optiga-trust-m/optiga/crypt\optiga_crypt.c **** }
 995              	 .loc 1 463 0
 996 0024 281C     	 mov r0,r5
 997              	 
 998              	.LVL119:
 999 0026 38BD     	 pop {r3,r4,r5,pc}
 1000              	.L86:
 1001              	 .align 2
 1002              	.L85:
 1003 0028 03040000 	 .word 1027
 1004 002c 05040000 	 .word 1029
 1005              	 .cfi_endproc
 1006              	.LFE9:
 1008              	 .section .text.optiga_crypt_random,"ax",%progbits
 1009              	 .align 1
 1010              	 .global optiga_crypt_random
 1011              	 .code 16
 1012              	 .thumb_func
 1014              	optiga_crypt_random:
 1015              	.LFB10:
 464:C:/Workspace/DAVE-4.4.2-64Bit/optiga-trust-m/optiga/crypt\optiga_crypt.c **** 
 465:C:/Workspace/DAVE-4.4.2-64Bit/optiga-trust-m/optiga/crypt\optiga_crypt.c **** #ifdef OPTIGA_CRYPT_RANDOM_ENABLED
 466:C:/Workspace/DAVE-4.4.2-64Bit/optiga-trust-m/optiga/crypt\optiga_crypt.c **** optiga_lib_status_t optiga_crypt_random(optiga_crypt_t * me,
 467:C:/Workspace/DAVE-4.4.2-64Bit/optiga-trust-m/optiga/crypt\optiga_crypt.c ****                                         optiga_rng_type_t rng_type,
 468:C:/Workspace/DAVE-4.4.2-64Bit/optiga-trust-m/optiga/crypt\optiga_crypt.c ****                                         uint8_t * random_data,
 469:C:/Workspace/DAVE-4.4.2-64Bit/optiga-trust-m/optiga/crypt\optiga_crypt.c ****                                         uint16_t random_data_length)
 470:C:/Workspace/DAVE-4.4.2-64Bit/optiga-trust-m/optiga/crypt\optiga_crypt.c **** {
 1016              	 .loc 1 470 0
 1017              	 .cfi_startproc
 1018              	.LVL120:
 1019 0000 F7B5     	 push {r0,r1,r2,r4,r5,r6,r7,lr}
 1020              	.LCFI11:
 1021              	 .cfi_def_cfa_offset 32
 1022              	 .cfi_offset 0,-32
 1023              	 .cfi_offset 1,-28
 1024              	 .cfi_offset 2,-24
 1025              	 .cfi_offset 4,-20
 1026              	 .cfi_offset 5,-16
 1027              	 .cfi_offset 6,-12
 1028              	 .cfi_offset 7,-8
 1029              	 .cfi_offset 14,-4
 1030              	 .loc 1 470 0
 1031 0002 041C     	 mov r4,r0
 1032 0004 0F1C     	 mov r7,r1
 1033 0006 151C     	 mov r5,r2
 471:C:/Workspace/DAVE-4.4.2-64Bit/optiga-trust-m/optiga/crypt\optiga_crypt.c ****     optiga_lib_status_t return_value = OPTIGA_CRYPT_ERROR;
 472:C:/Workspace/DAVE-4.4.2-64Bit/optiga-trust-m/optiga/crypt\optiga_crypt.c ****     OPTIGA_CRYPT_LOG_MESSAGE(__FUNCTION__);
 1034              	 .loc 1 472 0
 1035 0008 0C48     	 ldr r0,.L92
 1036              	.LVL121:
 1037 000a 0D49     	 ldr r1,.L92+4
 1038              	.LVL122:
 1039 000c 0D4A     	 ldr r2,.L92+8
 1040              	.LVL123:
 470:C:/Workspace/DAVE-4.4.2-64Bit/optiga-trust-m/optiga/crypt\optiga_crypt.c ****     optiga_lib_status_t return_value = OPTIGA_CRYPT_ERROR;
 1041              	 .loc 1 470 0
 1042 000e 1E1C     	 mov r6,r3
 1043              	 .loc 1 472 0
 1044 0010 FFF7FEFF 	 bl optiga_lib_print_message
 1045              	.LVL124:
 473:C:/Workspace/DAVE-4.4.2-64Bit/optiga-trust-m/optiga/crypt\optiga_crypt.c ****     do
 474:C:/Workspace/DAVE-4.4.2-64Bit/optiga-trust-m/optiga/crypt\optiga_crypt.c ****     {
 475:C:/Workspace/DAVE-4.4.2-64Bit/optiga-trust-m/optiga/crypt\optiga_crypt.c **** #ifdef OPTIGA_LIB_DEBUG_NULL_CHECK
 476:C:/Workspace/DAVE-4.4.2-64Bit/optiga-trust-m/optiga/crypt\optiga_crypt.c ****         if ((NULL == me) || (NULL == me->my_cmd) || (NULL == random_data))
 1046              	 .loc 1 476 0
 1047 0014 002C     	 cmp r4,#0
 1048 0016 0ED0     	 beq .L91
 1049              	 .loc 1 476 0 is_stmt 0 discriminator 1
 1050 0018 236A     	 ldr r3,[r4,#32]
 1051 001a 002B     	 cmp r3,#0
 1052 001c 0BD0     	 beq .L91
 1053              	 .loc 1 476 0 discriminator 2
 1054 001e 002D     	 cmp r5,#0
 1055 0020 09D0     	 beq .L91
 477:C:/Workspace/DAVE-4.4.2-64Bit/optiga-trust-m/optiga/crypt\optiga_crypt.c ****         {
 478:C:/Workspace/DAVE-4.4.2-64Bit/optiga-trust-m/optiga/crypt\optiga_crypt.c ****             return_value = OPTIGA_CRYPT_ERROR_INVALID_INPUT;
 479:C:/Workspace/DAVE-4.4.2-64Bit/optiga-trust-m/optiga/crypt\optiga_crypt.c ****             break;
 480:C:/Workspace/DAVE-4.4.2-64Bit/optiga-trust-m/optiga/crypt\optiga_crypt.c ****         }
 481:C:/Workspace/DAVE-4.4.2-64Bit/optiga-trust-m/optiga/crypt\optiga_crypt.c **** #endif
 482:C:/Workspace/DAVE-4.4.2-64Bit/optiga-trust-m/optiga/crypt\optiga_crypt.c ****         return_value = optiga_crypt_get_random(me,
 1056              	 .loc 1 482 0 is_stmt 1
 1057 0022 0023     	 mov r3,#0
 1058 0024 201C     	 mov r0,r4
 1059 0026 0093     	 str r3,[sp]
 1060 0028 0193     	 str r3,[sp,#4]
 1061 002a 391C     	 mov r1,r7
 1062 002c 2A1C     	 mov r2,r5
 1063 002e 331C     	 mov r3,r6
 1064 0030 FFF7FEFF 	 bl optiga_crypt_get_random
 1065              	.LVL125:
 1066 0034 00E0     	 b .L88
 1067              	.LVL126:
 1068              	.L91:
 478:C:/Workspace/DAVE-4.4.2-64Bit/optiga-trust-m/optiga/crypt\optiga_crypt.c ****             break;
 1069              	 .loc 1 478 0
 1070 0036 0448     	 ldr r0,.L92+12
 1071              	.LVL127:
 1072              	.L88:
 483:C:/Workspace/DAVE-4.4.2-64Bit/optiga-trust-m/optiga/crypt\optiga_crypt.c ****                                                (uint8_t)rng_type,
 484:C:/Workspace/DAVE-4.4.2-64Bit/optiga-trust-m/optiga/crypt\optiga_crypt.c ****                                                random_data,
 485:C:/Workspace/DAVE-4.4.2-64Bit/optiga-trust-m/optiga/crypt\optiga_crypt.c ****                                                random_data_length,
 486:C:/Workspace/DAVE-4.4.2-64Bit/optiga-trust-m/optiga/crypt\optiga_crypt.c ****                                                NULL,
 487:C:/Workspace/DAVE-4.4.2-64Bit/optiga-trust-m/optiga/crypt\optiga_crypt.c ****                                                0x00);
 488:C:/Workspace/DAVE-4.4.2-64Bit/optiga-trust-m/optiga/crypt\optiga_crypt.c ****     } while (FALSE);
 489:C:/Workspace/DAVE-4.4.2-64Bit/optiga-trust-m/optiga/crypt\optiga_crypt.c **** 
 490:C:/Workspace/DAVE-4.4.2-64Bit/optiga-trust-m/optiga/crypt\optiga_crypt.c ****     return (return_value);
 491:C:/Workspace/DAVE-4.4.2-64Bit/optiga-trust-m/optiga/crypt\optiga_crypt.c **** }
 1073              	 .loc 1 491 0
 1074              	 
 1075              	.LVL128:
 1076              	.LVL129:
 1077 0038 FEBD     	 pop {r1,r2,r3,r4,r5,r6,r7,pc}
 1078              	.L93:
 1079 003a C046     	 .align 2
 1080              	.L92:
 1081 003c 00000000 	 .word .LANCHOR0
 1082 0040 00000000 	 .word .LC2
 1083 0044 15000000 	 .word .LC4
 1084 0048 03040000 	 .word 1027
 1085              	 .cfi_endproc
 1086              	.LFE10:
 1088              	 .section .text.optiga_crypt_hash_start,"ax",%progbits
 1089              	 .align 1
 1090              	 .global optiga_crypt_hash_start
 1091              	 .code 16
 1092              	 .thumb_func
 1094              	optiga_crypt_hash_start:
 1095              	.LFB11:
 492:C:/Workspace/DAVE-4.4.2-64Bit/optiga-trust-m/optiga/crypt\optiga_crypt.c **** #endif //OPTIGA_CRYPT_RANDOM_ENABLED
 493:C:/Workspace/DAVE-4.4.2-64Bit/optiga-trust-m/optiga/crypt\optiga_crypt.c **** 
 494:C:/Workspace/DAVE-4.4.2-64Bit/optiga-trust-m/optiga/crypt\optiga_crypt.c **** #ifdef OPTIGA_CRYPT_HASH_ENABLED
 495:C:/Workspace/DAVE-4.4.2-64Bit/optiga-trust-m/optiga/crypt\optiga_crypt.c **** optiga_lib_status_t optiga_crypt_hash_start(optiga_crypt_t * me,
 496:C:/Workspace/DAVE-4.4.2-64Bit/optiga-trust-m/optiga/crypt\optiga_crypt.c ****                                             optiga_hash_context_t * hash_ctx)
 497:C:/Workspace/DAVE-4.4.2-64Bit/optiga-trust-m/optiga/crypt\optiga_crypt.c **** {
 1096              	 .loc 1 497 0
 1097              	 .cfi_startproc
 1098              	.LVL130:
 1099 0000 F8B5     	 push {r3,r4,r5,r6,r7,lr}
 1100              	.LCFI12:
 1101              	 .cfi_def_cfa_offset 24
 1102              	 .cfi_offset 3,-24
 1103              	 .cfi_offset 4,-20
 1104              	 .cfi_offset 5,-16
 1105              	 .cfi_offset 6,-12
 1106              	 .cfi_offset 7,-8
 1107              	 .cfi_offset 14,-4
 498:C:/Workspace/DAVE-4.4.2-64Bit/optiga-trust-m/optiga/crypt\optiga_crypt.c ****     optiga_lib_status_t return_value = OPTIGA_CRYPT_ERROR;
 499:C:/Workspace/DAVE-4.4.2-64Bit/optiga-trust-m/optiga/crypt\optiga_crypt.c ****     optiga_calc_hash_params_t * p_params;
 500:C:/Workspace/DAVE-4.4.2-64Bit/optiga-trust-m/optiga/crypt\optiga_crypt.c ****     OPTIGA_CRYPT_LOG_MESSAGE(__FUNCTION__);
 1108              	 .loc 1 500 0
 1109 0002 1F4A     	 ldr r2,.L103
 497:C:/Workspace/DAVE-4.4.2-64Bit/optiga-trust-m/optiga/crypt\optiga_crypt.c ****     optiga_lib_status_t return_value = OPTIGA_CRYPT_ERROR;
 1110              	 .loc 1 497 0
 1111 0004 041C     	 mov r4,r0
 1112 0006 0D1C     	 mov r5,r1
 1113              	 .loc 1 500 0
 1114 0008 1E48     	 ldr r0,.L103+4
 1115              	.LVL131:
 1116 000a 1F49     	 ldr r1,.L103+8
 1117              	.LVL132:
 1118 000c FFF7FEFF 	 bl optiga_lib_print_message
 1119              	.LVL133:
 501:C:/Workspace/DAVE-4.4.2-64Bit/optiga-trust-m/optiga/crypt\optiga_crypt.c ****     do
 502:C:/Workspace/DAVE-4.4.2-64Bit/optiga-trust-m/optiga/crypt\optiga_crypt.c ****     {
 503:C:/Workspace/DAVE-4.4.2-64Bit/optiga-trust-m/optiga/crypt\optiga_crypt.c **** #ifdef OPTIGA_LIB_DEBUG_NULL_CHECK
 504:C:/Workspace/DAVE-4.4.2-64Bit/optiga-trust-m/optiga/crypt\optiga_crypt.c ****         if ((NULL == me) || (NULL == me->my_cmd) || (NULL == hash_ctx))
 1120              	 .loc 1 504 0
 1121 0010 002C     	 cmp r4,#0
 1122 0012 2CD0     	 beq .L98
 1123              	 .loc 1 504 0 is_stmt 0 discriminator 1
 1124 0014 276A     	 ldr r7,[r4,#32]
 1125 0016 002F     	 cmp r7,#0
 1126 0018 29D0     	 beq .L98
 1127              	 .loc 1 504 0 discriminator 2
 1128 001a 002D     	 cmp r5,#0
 1129 001c 27D0     	 beq .L98
 505:C:/Workspace/DAVE-4.4.2-64Bit/optiga-trust-m/optiga/crypt\optiga_crypt.c ****         {
 506:C:/Workspace/DAVE-4.4.2-64Bit/optiga-trust-m/optiga/crypt\optiga_crypt.c ****             return_value = OPTIGA_CRYPT_ERROR_INVALID_INPUT;
 507:C:/Workspace/DAVE-4.4.2-64Bit/optiga-trust-m/optiga/crypt\optiga_crypt.c ****             break;
 508:C:/Workspace/DAVE-4.4.2-64Bit/optiga-trust-m/optiga/crypt\optiga_crypt.c ****         }
 509:C:/Workspace/DAVE-4.4.2-64Bit/optiga-trust-m/optiga/crypt\optiga_crypt.c **** #endif
 510:C:/Workspace/DAVE-4.4.2-64Bit/optiga-trust-m/optiga/crypt\optiga_crypt.c **** 
 511:C:/Workspace/DAVE-4.4.2-64Bit/optiga-trust-m/optiga/crypt\optiga_crypt.c ****         if (OPTIGA_LIB_INSTANCE_BUSY == me->instance_state)
 1130              	 .loc 1 511 0 is_stmt 1
 1131 001e A38D     	 ldrh r3,[r4,#44]
 1132 0020 012B     	 cmp r3,#1
 1133 0022 26D0     	 beq .L99
 512:C:/Workspace/DAVE-4.4.2-64Bit/optiga-trust-m/optiga/crypt\optiga_crypt.c ****         {
 513:C:/Workspace/DAVE-4.4.2-64Bit/optiga-trust-m/optiga/crypt\optiga_crypt.c ****             return_value = OPTIGA_CRYPT_ERROR_INSTANCE_IN_USE;
 514:C:/Workspace/DAVE-4.4.2-64Bit/optiga-trust-m/optiga/crypt\optiga_crypt.c ****             break;
 515:C:/Workspace/DAVE-4.4.2-64Bit/optiga-trust-m/optiga/crypt\optiga_crypt.c ****         }
 516:C:/Workspace/DAVE-4.4.2-64Bit/optiga-trust-m/optiga/crypt\optiga_crypt.c **** 
 517:C:/Workspace/DAVE-4.4.2-64Bit/optiga-trust-m/optiga/crypt\optiga_crypt.c ****         me->instance_state = OPTIGA_LIB_INSTANCE_BUSY;
 1134              	 .loc 1 517 0
 1135 0024 0126     	 mov r6,#1
 518:C:/Workspace/DAVE-4.4.2-64Bit/optiga-trust-m/optiga/crypt\optiga_crypt.c ****         p_params = (optiga_calc_hash_params_t *)&(me->params.optiga_calc_hash_params);
 519:C:/Workspace/DAVE-4.4.2-64Bit/optiga-trust-m/optiga/crypt\optiga_crypt.c ****         pal_os_memset(&me->params,0x00,sizeof(optiga_crypt_params_t));
 1136              	 .loc 1 519 0
 1137 0026 0021     	 mov r1,#0
 517:C:/Workspace/DAVE-4.4.2-64Bit/optiga-trust-m/optiga/crypt\optiga_crypt.c ****         p_params = (optiga_calc_hash_params_t *)&(me->params.optiga_calc_hash_params);
 1138              	 .loc 1 517 0
 1139 0028 A685     	 strh r6,[r4,#44]
 1140              	.LVL134:
 1141              	 .loc 1 519 0
 1142 002a 2022     	 mov r2,#32
 1143 002c 201C     	 mov r0,r4
 1144 002e FFF7FEFF 	 bl memset
 1145              	.LVL135:
 520:C:/Workspace/DAVE-4.4.2-64Bit/optiga-trust-m/optiga/crypt\optiga_crypt.c **** 
 521:C:/Workspace/DAVE-4.4.2-64Bit/optiga-trust-m/optiga/crypt\optiga_crypt.c ****         OPTIGA_PROTECTION_ENABLE(me->my_cmd, me);
 1146              	 .loc 1 521 0
 1147 0032 231C     	 mov r3,r4
 1148 0034 2E33     	 add r3,r3,#46
 1149 0036 1978     	 ldrb r1,[r3]
 1150 0038 381C     	 mov r0,r7
 1151 003a 0022     	 mov r2,#0
 1152 003c FFF7FEFF 	 bl optiga_cmd_set_shielded_connection_option
 1153              	.LVL136:
 522:C:/Workspace/DAVE-4.4.2-64Bit/optiga-trust-m/optiga/crypt\optiga_crypt.c ****         OPTIGA_PROTECTION_SET_VERSION(me->my_cmd, me);
 1154              	 .loc 1 522 0
 1155 0040 231C     	 mov r3,r4
 1156 0042 321C     	 mov r2,r6
 523:C:/Workspace/DAVE-4.4.2-64Bit/optiga-trust-m/optiga/crypt\optiga_crypt.c ****         p_params->hash_sequence = OPTIGA_CRYPT_HASH_START;
 1157              	 .loc 1 523 0
 1158 0044 0026     	 mov r6,#0
 522:C:/Workspace/DAVE-4.4.2-64Bit/optiga-trust-m/optiga/crypt\optiga_crypt.c ****         OPTIGA_PROTECTION_SET_VERSION(me->my_cmd, me);
 1159              	 .loc 1 522 0
 1160 0046 2F33     	 add r3,r3,#47
 1161 0048 1978     	 ldrb r1,[r3]
 1162 004a 206A     	 ldr r0,[r4,#32]
 1163 004c FFF7FEFF 	 bl optiga_cmd_set_shielded_connection_option
 1164              	.LVL137:
 524:C:/Workspace/DAVE-4.4.2-64Bit/optiga-trust-m/optiga/crypt\optiga_crypt.c ****         p_params->p_hash_context = hash_ctx;
 1165              	 .loc 1 524 0
 1166 0050 A560     	 str r5,[r4,#8]
 523:C:/Workspace/DAVE-4.4.2-64Bit/optiga-trust-m/optiga/crypt\optiga_crypt.c ****         p_params->hash_sequence = OPTIGA_CRYPT_HASH_START;
 1167              	 .loc 1 523 0
 1168 0052 2673     	 strb r6,[r4,#12]
 525:C:/Workspace/DAVE-4.4.2-64Bit/optiga-trust-m/optiga/crypt\optiga_crypt.c ****         p_params->apparent_context_size = 0;
 1169              	 .loc 1 525 0
 1170 0054 E661     	 str r6,[r4,#28]
 526:C:/Workspace/DAVE-4.4.2-64Bit/optiga-trust-m/optiga/crypt\optiga_crypt.c ****         p_params->p_hash_data = NULL;
 1171              	 .loc 1 526 0
 1172 0056 6660     	 str r6,[r4,#4]
 527:C:/Workspace/DAVE-4.4.2-64Bit/optiga-trust-m/optiga/crypt\optiga_crypt.c ****         p_params->p_hash_oid = NULL;
 1173              	 .loc 1 527 0
 1174 0058 2660     	 str r6,[r4]
 528:C:/Workspace/DAVE-4.4.2-64Bit/optiga-trust-m/optiga/crypt\optiga_crypt.c **** 
 529:C:/Workspace/DAVE-4.4.2-64Bit/optiga-trust-m/optiga/crypt\optiga_crypt.c ****         return_value = optiga_cmd_calc_hash(me->my_cmd,
 1175              	 .loc 1 529 0
 1176 005a A979     	 ldrb r1,[r5,#6]
 1177 005c 206A     	 ldr r0,[r4,#32]
 1178 005e 221C     	 mov r2,r4
 1179 0060 FFF7FEFF 	 bl optiga_cmd_calc_hash
 1180              	.LVL138:
 1181 0064 051E     	 sub r5,r0,#0
 1182              	.LVL139:
 530:C:/Workspace/DAVE-4.4.2-64Bit/optiga-trust-m/optiga/crypt\optiga_crypt.c ****                                             hash_ctx->hash_algo,
 531:C:/Workspace/DAVE-4.4.2-64Bit/optiga-trust-m/optiga/crypt\optiga_crypt.c ****                                             (optiga_calc_hash_params_t *)p_params);
 532:C:/Workspace/DAVE-4.4.2-64Bit/optiga-trust-m/optiga/crypt\optiga_crypt.c ****         if (OPTIGA_LIB_SUCCESS != return_value)
 1183              	 .loc 1 532 0
 1184 0066 B542     	 cmp r5,r6
 1185 0068 04D0     	 beq .L95
 533:C:/Workspace/DAVE-4.4.2-64Bit/optiga-trust-m/optiga/crypt\optiga_crypt.c ****         {
 534:C:/Workspace/DAVE-4.4.2-64Bit/optiga-trust-m/optiga/crypt\optiga_crypt.c ****             me->instance_state = OPTIGA_LIB_INSTANCE_FREE;
 1186              	 .loc 1 534 0
 1187 006a A685     	 strh r6,[r4,#44]
 1188 006c 02E0     	 b .L95
 1189              	.LVL140:
 1190              	.L98:
 506:C:/Workspace/DAVE-4.4.2-64Bit/optiga-trust-m/optiga/crypt\optiga_crypt.c ****             break;
 1191              	 .loc 1 506 0
 1192 006e 074D     	 ldr r5,.L103+12
 1193              	.LVL141:
 1194 0070 00E0     	 b .L95
 1195              	.LVL142:
 1196              	.L99:
 513:C:/Workspace/DAVE-4.4.2-64Bit/optiga-trust-m/optiga/crypt\optiga_crypt.c ****             break;
 1197              	 .loc 1 513 0
 1198 0072 074D     	 ldr r5,.L103+16
 1199              	.LVL143:
 1200              	.L95:
 535:C:/Workspace/DAVE-4.4.2-64Bit/optiga-trust-m/optiga/crypt\optiga_crypt.c ****         }
 536:C:/Workspace/DAVE-4.4.2-64Bit/optiga-trust-m/optiga/crypt\optiga_crypt.c ****     } while (FALSE);
 537:C:/Workspace/DAVE-4.4.2-64Bit/optiga-trust-m/optiga/crypt\optiga_crypt.c ****     optiga_crypt_reset_protection_level(me);
 1201              	 .loc 1 537 0
 1202 0074 201C     	 mov r0,r4
 1203 0076 FFF7FEFF 	 bl optiga_crypt_reset_protection_level
 1204              	.LVL144:
 538:C:/Workspace/DAVE-4.4.2-64Bit/optiga-trust-m/optiga/crypt\optiga_crypt.c **** 
 539:C:/Workspace/DAVE-4.4.2-64Bit/optiga-trust-m/optiga/crypt\optiga_crypt.c ****     return (return_value);
 540:C:/Workspace/DAVE-4.4.2-64Bit/optiga-trust-m/optiga/crypt\optiga_crypt.c **** }
 1205              	 .loc 1 540 0
 1206              	 
 1207 007a 281C     	 mov r0,r5
 1208              	.LVL145:
 1209              	.LVL146:
 1210 007c F8BD     	 pop {r3,r4,r5,r6,r7,pc}
 1211              	.L104:
 1212 007e C046     	 .align 2
 1213              	.L103:
 1214 0080 15000000 	 .word .LC4
 1215 0084 00000000 	 .word .LANCHOR1
 1216 0088 00000000 	 .word .LC2
 1217 008c 03040000 	 .word 1027
 1218 0090 05040000 	 .word 1029
 1219              	 .cfi_endproc
 1220              	.LFE11:
 1222              	 .section .text.optiga_crypt_hash_update,"ax",%progbits
 1223              	 .align 1
 1224              	 .global optiga_crypt_hash_update
 1225              	 .code 16
 1226              	 .thumb_func
 1228              	optiga_crypt_hash_update:
 1229              	.LFB12:
 541:C:/Workspace/DAVE-4.4.2-64Bit/optiga-trust-m/optiga/crypt\optiga_crypt.c **** 
 542:C:/Workspace/DAVE-4.4.2-64Bit/optiga-trust-m/optiga/crypt\optiga_crypt.c **** optiga_lib_status_t optiga_crypt_hash_update(optiga_crypt_t * me,
 543:C:/Workspace/DAVE-4.4.2-64Bit/optiga-trust-m/optiga/crypt\optiga_crypt.c ****                                              optiga_hash_context_t * hash_ctx,
 544:C:/Workspace/DAVE-4.4.2-64Bit/optiga-trust-m/optiga/crypt\optiga_crypt.c ****                                              uint8_t source_of_data_to_hash,
 545:C:/Workspace/DAVE-4.4.2-64Bit/optiga-trust-m/optiga/crypt\optiga_crypt.c ****                                              const void * data_to_hash)
 546:C:/Workspace/DAVE-4.4.2-64Bit/optiga-trust-m/optiga/crypt\optiga_crypt.c **** {
 1230              	 .loc 1 546 0
 1231              	 .cfi_startproc
 1232              	.LVL147:
 1233 0000 F7B5     	 push {r0,r1,r2,r4,r5,r6,r7,lr}
 1234              	.LCFI13:
 1235              	 .cfi_def_cfa_offset 32
 1236              	 .cfi_offset 0,-32
 1237              	 .cfi_offset 1,-28
 1238              	 .cfi_offset 2,-24
 1239              	 .cfi_offset 4,-20
 1240              	 .cfi_offset 5,-16
 1241              	 .cfi_offset 6,-12
 1242              	 .cfi_offset 7,-8
 1243              	 .cfi_offset 14,-4
 1244              	 .loc 1 546 0
 1245 0002 041C     	 mov r4,r0
 1246 0004 0D1C     	 mov r5,r1
 1247 0006 0192     	 str r2,[sp,#4]
 547:C:/Workspace/DAVE-4.4.2-64Bit/optiga-trust-m/optiga/crypt\optiga_crypt.c ****     optiga_lib_status_t return_value = OPTIGA_CRYPT_ERROR;
 548:C:/Workspace/DAVE-4.4.2-64Bit/optiga-trust-m/optiga/crypt\optiga_crypt.c ****     optiga_calc_hash_params_t * p_params;
 549:C:/Workspace/DAVE-4.4.2-64Bit/optiga-trust-m/optiga/crypt\optiga_crypt.c ****     OPTIGA_CRYPT_LOG_MESSAGE(__FUNCTION__);
 1248              	 .loc 1 549 0
 1249 0008 2548     	 ldr r0,.L117
 1250              	.LVL148:
 1251 000a 2649     	 ldr r1,.L117+4
 1252              	.LVL149:
 1253 000c 264A     	 ldr r2,.L117+8
 1254              	.LVL150:
 546:C:/Workspace/DAVE-4.4.2-64Bit/optiga-trust-m/optiga/crypt\optiga_crypt.c ****     optiga_lib_status_t return_value = OPTIGA_CRYPT_ERROR;
 1255              	 .loc 1 546 0
 1256 000e 1E1C     	 mov r6,r3
 1257              	 .loc 1 549 0
 1258 0010 FFF7FEFF 	 bl optiga_lib_print_message
 1259              	.LVL151:
 550:C:/Workspace/DAVE-4.4.2-64Bit/optiga-trust-m/optiga/crypt\optiga_crypt.c ****     do
 551:C:/Workspace/DAVE-4.4.2-64Bit/optiga-trust-m/optiga/crypt\optiga_crypt.c ****     {
 552:C:/Workspace/DAVE-4.4.2-64Bit/optiga-trust-m/optiga/crypt\optiga_crypt.c **** #ifdef OPTIGA_LIB_DEBUG_NULL_CHECK
 553:C:/Workspace/DAVE-4.4.2-64Bit/optiga-trust-m/optiga/crypt\optiga_crypt.c ****         if ((NULL == me) || (NULL == me->my_cmd) ||
 1260              	 .loc 1 553 0
 1261 0014 002C     	 cmp r4,#0
 1262 0016 3BD0     	 beq .L112
 1263              	 .loc 1 553 0 is_stmt 0 discriminator 1
 1264 0018 276A     	 ldr r7,[r4,#32]
 1265 001a 002F     	 cmp r7,#0
 1266 001c 38D0     	 beq .L112
 1267              	 .loc 1 553 0 discriminator 2
 1268 001e 002D     	 cmp r5,#0
 1269 0020 36D0     	 beq .L112
 554:C:/Workspace/DAVE-4.4.2-64Bit/optiga-trust-m/optiga/crypt\optiga_crypt.c ****             (NULL == hash_ctx) || (NULL == data_to_hash))
 1270              	 .loc 1 554 0 is_stmt 1
 1271 0022 002E     	 cmp r6,#0
 1272 0024 34D0     	 beq .L112
 555:C:/Workspace/DAVE-4.4.2-64Bit/optiga-trust-m/optiga/crypt\optiga_crypt.c ****         {
 556:C:/Workspace/DAVE-4.4.2-64Bit/optiga-trust-m/optiga/crypt\optiga_crypt.c ****             return_value = OPTIGA_CRYPT_ERROR_INVALID_INPUT;
 557:C:/Workspace/DAVE-4.4.2-64Bit/optiga-trust-m/optiga/crypt\optiga_crypt.c ****             break;
 558:C:/Workspace/DAVE-4.4.2-64Bit/optiga-trust-m/optiga/crypt\optiga_crypt.c ****         }
 559:C:/Workspace/DAVE-4.4.2-64Bit/optiga-trust-m/optiga/crypt\optiga_crypt.c **** #endif
 560:C:/Workspace/DAVE-4.4.2-64Bit/optiga-trust-m/optiga/crypt\optiga_crypt.c **** 
 561:C:/Workspace/DAVE-4.4.2-64Bit/optiga-trust-m/optiga/crypt\optiga_crypt.c ****         if (OPTIGA_LIB_INSTANCE_BUSY == me->instance_state)
 1273              	 .loc 1 561 0
 1274 0026 A38D     	 ldrh r3,[r4,#44]
 1275 0028 012B     	 cmp r3,#1
 1276 002a 33D0     	 beq .L113
 562:C:/Workspace/DAVE-4.4.2-64Bit/optiga-trust-m/optiga/crypt\optiga_crypt.c ****         {
 563:C:/Workspace/DAVE-4.4.2-64Bit/optiga-trust-m/optiga/crypt\optiga_crypt.c ****             return_value = OPTIGA_CRYPT_ERROR_INSTANCE_IN_USE;
 564:C:/Workspace/DAVE-4.4.2-64Bit/optiga-trust-m/optiga/crypt\optiga_crypt.c ****             break;
 565:C:/Workspace/DAVE-4.4.2-64Bit/optiga-trust-m/optiga/crypt\optiga_crypt.c ****         }
 566:C:/Workspace/DAVE-4.4.2-64Bit/optiga-trust-m/optiga/crypt\optiga_crypt.c **** 
 567:C:/Workspace/DAVE-4.4.2-64Bit/optiga-trust-m/optiga/crypt\optiga_crypt.c ****         me->instance_state = OPTIGA_LIB_INSTANCE_BUSY;
 1277              	 .loc 1 567 0
 1278 002c 0123     	 mov r3,#1
 568:C:/Workspace/DAVE-4.4.2-64Bit/optiga-trust-m/optiga/crypt\optiga_crypt.c ****         p_params = (optiga_calc_hash_params_t *)&(me->params.optiga_calc_hash_params);
 569:C:/Workspace/DAVE-4.4.2-64Bit/optiga-trust-m/optiga/crypt\optiga_crypt.c ****         pal_os_memset(&me->params,0x00,sizeof(optiga_crypt_params_t));
 1279              	 .loc 1 569 0
 1280 002e 0021     	 mov r1,#0
 567:C:/Workspace/DAVE-4.4.2-64Bit/optiga-trust-m/optiga/crypt\optiga_crypt.c ****         p_params = (optiga_calc_hash_params_t *)&(me->params.optiga_calc_hash_params);
 1281              	 .loc 1 567 0
 1282 0030 A385     	 strh r3,[r4,#44]
 1283              	.LVL152:
 1284              	 .loc 1 569 0
 1285 0032 2022     	 mov r2,#32
 1286 0034 201C     	 mov r0,r4
 1287 0036 FFF7FEFF 	 bl memset
 1288              	.LVL153:
 570:C:/Workspace/DAVE-4.4.2-64Bit/optiga-trust-m/optiga/crypt\optiga_crypt.c **** 
 571:C:/Workspace/DAVE-4.4.2-64Bit/optiga-trust-m/optiga/crypt\optiga_crypt.c ****         OPTIGA_PROTECTION_ENABLE(me->my_cmd, me);
 1289              	 .loc 1 571 0
 1290 003a 231C     	 mov r3,r4
 1291 003c 2E33     	 add r3,r3,#46
 1292 003e 1978     	 ldrb r1,[r3]
 1293 0040 381C     	 mov r0,r7
 1294 0042 0022     	 mov r2,#0
 1295 0044 FFF7FEFF 	 bl optiga_cmd_set_shielded_connection_option
 1296              	.LVL154:
 572:C:/Workspace/DAVE-4.4.2-64Bit/optiga-trust-m/optiga/crypt\optiga_crypt.c ****         OPTIGA_PROTECTION_SET_VERSION(me->my_cmd, me);
 1297              	 .loc 1 572 0
 1298 0048 231C     	 mov r3,r4
 1299 004a 2F33     	 add r3,r3,#47
 1300 004c 1978     	 ldrb r1,[r3]
 1301 004e 206A     	 ldr r0,[r4,#32]
 1302 0050 0122     	 mov r2,#1
 1303 0052 FFF7FEFF 	 bl optiga_cmd_set_shielded_connection_option
 1304              	.LVL155:
 573:C:/Workspace/DAVE-4.4.2-64Bit/optiga-trust-m/optiga/crypt\optiga_crypt.c ****         p_params->source_of_data_to_hash = source_of_data_to_hash;
 1305              	 .loc 1 573 0
 1306 0056 6B46     	 mov r3,sp
 1307 0058 1B79     	 ldrb r3,[r3,#4]
 574:C:/Workspace/DAVE-4.4.2-64Bit/optiga-trust-m/optiga/crypt\optiga_crypt.c ****         p_params->hash_sequence = OPTIGA_CRYPT_HASH_CONTINUE;
 575:C:/Workspace/DAVE-4.4.2-64Bit/optiga-trust-m/optiga/crypt\optiga_crypt.c ****         p_params->p_hash_context = hash_ctx;
 1308              	 .loc 1 575 0
 1309 005a A560     	 str r5,[r4,#8]
 573:C:/Workspace/DAVE-4.4.2-64Bit/optiga-trust-m/optiga/crypt\optiga_crypt.c ****         p_params->source_of_data_to_hash = source_of_data_to_hash;
 1310              	 .loc 1 573 0
 1311 005c 6373     	 strb r3,[r4,#13]
 574:C:/Workspace/DAVE-4.4.2-64Bit/optiga-trust-m/optiga/crypt\optiga_crypt.c ****         p_params->hash_sequence = OPTIGA_CRYPT_HASH_CONTINUE;
 1312              	 .loc 1 574 0
 1313 005e 0223     	 mov r3,#2
 1314 0060 2373     	 strb r3,[r4,#12]
 576:C:/Workspace/DAVE-4.4.2-64Bit/optiga-trust-m/optiga/crypt\optiga_crypt.c ****         p_params->apparent_context_size = p_params->p_hash_context->context_buffer_length;
 1315              	 .loc 1 576 0
 1316 0062 AB88     	 ldrh r3,[r5,#4]
 1317 0064 E361     	 str r3,[r4,#28]
 577:C:/Workspace/DAVE-4.4.2-64Bit/optiga-trust-m/optiga/crypt\optiga_crypt.c ****         p_params->p_hash_data = NULL;
 1318              	 .loc 1 577 0
 1319 0066 0023     	 mov r3,#0
 1320 0068 6360     	 str r3,[r4,#4]
 578:C:/Workspace/DAVE-4.4.2-64Bit/optiga-trust-m/optiga/crypt\optiga_crypt.c ****         p_params->p_hash_oid = NULL;
 1321              	 .loc 1 578 0
 1322 006a 2360     	 str r3,[r4]
 579:C:/Workspace/DAVE-4.4.2-64Bit/optiga-trust-m/optiga/crypt\optiga_crypt.c **** 
 580:C:/Workspace/DAVE-4.4.2-64Bit/optiga-trust-m/optiga/crypt\optiga_crypt.c ****         if (source_of_data_to_hash)
 1323              	 .loc 1 580 0
 1324 006c 019B     	 ldr r3,[sp,#4]
 1325 006e 002B     	 cmp r3,#0
 1326 0070 01D0     	 beq .L107
 581:C:/Workspace/DAVE-4.4.2-64Bit/optiga-trust-m/optiga/crypt\optiga_crypt.c ****         {
 582:C:/Workspace/DAVE-4.4.2-64Bit/optiga-trust-m/optiga/crypt\optiga_crypt.c ****             p_params->p_hash_data = (hash_data_from_host_t *)data_to_hash;
 1327              	 .loc 1 582 0
 1328 0072 6660     	 str r6,[r4,#4]
 1329 0074 02E0     	 b .L108
 1330              	.L107:
 583:C:/Workspace/DAVE-4.4.2-64Bit/optiga-trust-m/optiga/crypt\optiga_crypt.c ****         }
 584:C:/Workspace/DAVE-4.4.2-64Bit/optiga-trust-m/optiga/crypt\optiga_crypt.c ****         else
 585:C:/Workspace/DAVE-4.4.2-64Bit/optiga-trust-m/optiga/crypt\optiga_crypt.c ****         {
 586:C:/Workspace/DAVE-4.4.2-64Bit/optiga-trust-m/optiga/crypt\optiga_crypt.c ****             p_params->hash_sequence |= OPTIGA_CRYPT_HASH_FOR_OID;
 1331              	 .loc 1 586 0
 1332 0076 1223     	 mov r3,#18
 587:C:/Workspace/DAVE-4.4.2-64Bit/optiga-trust-m/optiga/crypt\optiga_crypt.c ****             p_params->p_hash_oid = (hash_data_in_optiga_t *)data_to_hash;
 1333              	 .loc 1 587 0
 1334 0078 2660     	 str r6,[r4]
 586:C:/Workspace/DAVE-4.4.2-64Bit/optiga-trust-m/optiga/crypt\optiga_crypt.c ****             p_params->p_hash_oid = (hash_data_in_optiga_t *)data_to_hash;
 1335              	 .loc 1 586 0
 1336 007a 2373     	 strb r3,[r4,#12]
 1337              	.L108:
 588:C:/Workspace/DAVE-4.4.2-64Bit/optiga-trust-m/optiga/crypt\optiga_crypt.c ****         }
 589:C:/Workspace/DAVE-4.4.2-64Bit/optiga-trust-m/optiga/crypt\optiga_crypt.c **** 
 590:C:/Workspace/DAVE-4.4.2-64Bit/optiga-trust-m/optiga/crypt\optiga_crypt.c ****         return_value = optiga_cmd_calc_hash(me->my_cmd,
 1338              	 .loc 1 590 0
 1339 007c A979     	 ldrb r1,[r5,#6]
 1340 007e 206A     	 ldr r0,[r4,#32]
 1341 0080 221C     	 mov r2,r4
 1342 0082 FFF7FEFF 	 bl optiga_cmd_calc_hash
 1343              	.LVL156:
 1344 0086 051E     	 sub r5,r0,#0
 1345              	.LVL157:
 591:C:/Workspace/DAVE-4.4.2-64Bit/optiga-trust-m/optiga/crypt\optiga_crypt.c ****                                             hash_ctx->hash_algo,
 592:C:/Workspace/DAVE-4.4.2-64Bit/optiga-trust-m/optiga/crypt\optiga_crypt.c ****                                             (optiga_calc_hash_params_t *)p_params);
 593:C:/Workspace/DAVE-4.4.2-64Bit/optiga-trust-m/optiga/crypt\optiga_crypt.c ****         if (OPTIGA_LIB_SUCCESS != return_value)
 1346              	 .loc 1 593 0
 1347 0088 05D0     	 beq .L106
 594:C:/Workspace/DAVE-4.4.2-64Bit/optiga-trust-m/optiga/crypt\optiga_crypt.c ****         {
 595:C:/Workspace/DAVE-4.4.2-64Bit/optiga-trust-m/optiga/crypt\optiga_crypt.c ****             me->instance_state = OPTIGA_LIB_INSTANCE_FREE;
 1348              	 .loc 1 595 0
 1349 008a 0023     	 mov r3,#0
 1350 008c A385     	 strh r3,[r4,#44]
 1351 008e 02E0     	 b .L106
 1352              	.LVL158:
 1353              	.L112:
 556:C:/Workspace/DAVE-4.4.2-64Bit/optiga-trust-m/optiga/crypt\optiga_crypt.c ****             break;
 1354              	 .loc 1 556 0
 1355 0090 064D     	 ldr r5,.L117+12
 1356              	.LVL159:
 1357 0092 00E0     	 b .L106
 1358              	.LVL160:
 1359              	.L113:
 563:C:/Workspace/DAVE-4.4.2-64Bit/optiga-trust-m/optiga/crypt\optiga_crypt.c ****             break;
 1360              	 .loc 1 563 0
 1361 0094 064D     	 ldr r5,.L117+16
 1362              	.LVL161:
 1363              	.L106:
 596:C:/Workspace/DAVE-4.4.2-64Bit/optiga-trust-m/optiga/crypt\optiga_crypt.c ****         }
 597:C:/Workspace/DAVE-4.4.2-64Bit/optiga-trust-m/optiga/crypt\optiga_crypt.c ****     } while (FALSE);
 598:C:/Workspace/DAVE-4.4.2-64Bit/optiga-trust-m/optiga/crypt\optiga_crypt.c ****     optiga_crypt_reset_protection_level(me);
 1364              	 .loc 1 598 0
 1365 0096 201C     	 mov r0,r4
 1366 0098 FFF7FEFF 	 bl optiga_crypt_reset_protection_level
 1367              	.LVL162:
 599:C:/Workspace/DAVE-4.4.2-64Bit/optiga-trust-m/optiga/crypt\optiga_crypt.c **** 
 600:C:/Workspace/DAVE-4.4.2-64Bit/optiga-trust-m/optiga/crypt\optiga_crypt.c ****     return (return_value);
 601:C:/Workspace/DAVE-4.4.2-64Bit/optiga-trust-m/optiga/crypt\optiga_crypt.c **** }
 1368              	 .loc 1 601 0
 1369              	 
 1370 009c 281C     	 mov r0,r5
 1371              	.LVL163:
 1372              	.LVL164:
 1373              	.LVL165:
 1374 009e FEBD     	 pop {r1,r2,r3,r4,r5,r6,r7,pc}
 1375              	.L118:
 1376              	 .align 2
 1377              	.L117:
 1378 00a0 00000000 	 .word .LANCHOR2
 1379 00a4 00000000 	 .word .LC2
 1380 00a8 15000000 	 .word .LC4
 1381 00ac 03040000 	 .word 1027
 1382 00b0 05040000 	 .word 1029
 1383              	 .cfi_endproc
 1384              	.LFE12:
 1386              	 .section .text.optiga_crypt_hash_finalize,"ax",%progbits
 1387              	 .align 1
 1388              	 .global optiga_crypt_hash_finalize
 1389              	 .code 16
 1390              	 .thumb_func
 1392              	optiga_crypt_hash_finalize:
 1393              	.LFB13:
 602:C:/Workspace/DAVE-4.4.2-64Bit/optiga-trust-m/optiga/crypt\optiga_crypt.c **** 
 603:C:/Workspace/DAVE-4.4.2-64Bit/optiga-trust-m/optiga/crypt\optiga_crypt.c **** optiga_lib_status_t optiga_crypt_hash_finalize(optiga_crypt_t * me,
 604:C:/Workspace/DAVE-4.4.2-64Bit/optiga-trust-m/optiga/crypt\optiga_crypt.c ****                                                optiga_hash_context_t * hash_ctx,
 605:C:/Workspace/DAVE-4.4.2-64Bit/optiga-trust-m/optiga/crypt\optiga_crypt.c ****                                                uint8_t * hash_output)
 606:C:/Workspace/DAVE-4.4.2-64Bit/optiga-trust-m/optiga/crypt\optiga_crypt.c **** {
 1394              	 .loc 1 606 0
 1395              	 .cfi_startproc
 1396              	.LVL166:
 1397 0000 F7B5     	 push {r0,r1,r2,r4,r5,r6,r7,lr}
 1398              	.LCFI14:
 1399              	 .cfi_def_cfa_offset 32
 1400              	 .cfi_offset 0,-32
 1401              	 .cfi_offset 1,-28
 1402              	 .cfi_offset 2,-24
 1403              	 .cfi_offset 4,-20
 1404              	 .cfi_offset 5,-16
 1405              	 .cfi_offset 6,-12
 1406              	 .cfi_offset 7,-8
 1407              	 .cfi_offset 14,-4
 1408              	 .loc 1 606 0
 1409 0002 041C     	 mov r4,r0
 1410 0004 0D1C     	 mov r5,r1
 1411 0006 0192     	 str r2,[sp,#4]
 607:C:/Workspace/DAVE-4.4.2-64Bit/optiga-trust-m/optiga/crypt\optiga_crypt.c ****     optiga_lib_status_t return_value = OPTIGA_CRYPT_ERROR;
 608:C:/Workspace/DAVE-4.4.2-64Bit/optiga-trust-m/optiga/crypt\optiga_crypt.c ****     optiga_calc_hash_params_t * p_params;
 609:C:/Workspace/DAVE-4.4.2-64Bit/optiga-trust-m/optiga/crypt\optiga_crypt.c ****     OPTIGA_CRYPT_LOG_MESSAGE(__FUNCTION__);
 1412              	 .loc 1 609 0
 1413 0008 2148     	 ldr r0,.L129
 1414              	.LVL167:
 1415 000a 2249     	 ldr r1,.L129+4
 1416              	.LVL168:
 1417 000c 224A     	 ldr r2,.L129+8
 1418              	.LVL169:
 1419 000e FFF7FEFF 	 bl optiga_lib_print_message
 1420              	.LVL170:
 610:C:/Workspace/DAVE-4.4.2-64Bit/optiga-trust-m/optiga/crypt\optiga_crypt.c ****     do
 611:C:/Workspace/DAVE-4.4.2-64Bit/optiga-trust-m/optiga/crypt\optiga_crypt.c ****     {
 612:C:/Workspace/DAVE-4.4.2-64Bit/optiga-trust-m/optiga/crypt\optiga_crypt.c **** #ifdef OPTIGA_LIB_DEBUG_NULL_CHECK
 613:C:/Workspace/DAVE-4.4.2-64Bit/optiga-trust-m/optiga/crypt\optiga_crypt.c ****         if ((NULL == me) || (NULL == me->my_cmd) ||
 1421              	 .loc 1 613 0
 1422 0012 002C     	 cmp r4,#0
 1423 0014 33D0     	 beq .L124
 1424              	 .loc 1 613 0 is_stmt 0 discriminator 1
 1425 0016 276A     	 ldr r7,[r4,#32]
 1426 0018 002F     	 cmp r7,#0
 1427 001a 30D0     	 beq .L124
 1428              	 .loc 1 613 0 discriminator 2
 1429 001c 002D     	 cmp r5,#0
 1430 001e 2ED0     	 beq .L124
 614:C:/Workspace/DAVE-4.4.2-64Bit/optiga-trust-m/optiga/crypt\optiga_crypt.c ****             (NULL == hash_ctx) || (NULL == hash_output))
 1431              	 .loc 1 614 0 is_stmt 1
 1432 0020 019B     	 ldr r3,[sp,#4]
 1433 0022 002B     	 cmp r3,#0
 1434 0024 2BD0     	 beq .L124
 615:C:/Workspace/DAVE-4.4.2-64Bit/optiga-trust-m/optiga/crypt\optiga_crypt.c ****         {
 616:C:/Workspace/DAVE-4.4.2-64Bit/optiga-trust-m/optiga/crypt\optiga_crypt.c ****             return_value = OPTIGA_CRYPT_ERROR_INVALID_INPUT;
 617:C:/Workspace/DAVE-4.4.2-64Bit/optiga-trust-m/optiga/crypt\optiga_crypt.c ****             break;
 618:C:/Workspace/DAVE-4.4.2-64Bit/optiga-trust-m/optiga/crypt\optiga_crypt.c ****         }
 619:C:/Workspace/DAVE-4.4.2-64Bit/optiga-trust-m/optiga/crypt\optiga_crypt.c **** #endif
 620:C:/Workspace/DAVE-4.4.2-64Bit/optiga-trust-m/optiga/crypt\optiga_crypt.c **** 
 621:C:/Workspace/DAVE-4.4.2-64Bit/optiga-trust-m/optiga/crypt\optiga_crypt.c ****         if (OPTIGA_LIB_INSTANCE_BUSY == me->instance_state)
 1435              	 .loc 1 621 0
 1436 0026 A38D     	 ldrh r3,[r4,#44]
 1437 0028 012B     	 cmp r3,#1
 1438 002a 2AD0     	 beq .L125
 622:C:/Workspace/DAVE-4.4.2-64Bit/optiga-trust-m/optiga/crypt\optiga_crypt.c ****         {
 623:C:/Workspace/DAVE-4.4.2-64Bit/optiga-trust-m/optiga/crypt\optiga_crypt.c ****             return_value = OPTIGA_CRYPT_ERROR_INSTANCE_IN_USE;
 624:C:/Workspace/DAVE-4.4.2-64Bit/optiga-trust-m/optiga/crypt\optiga_crypt.c ****             break;
 625:C:/Workspace/DAVE-4.4.2-64Bit/optiga-trust-m/optiga/crypt\optiga_crypt.c ****         }
 626:C:/Workspace/DAVE-4.4.2-64Bit/optiga-trust-m/optiga/crypt\optiga_crypt.c **** 
 627:C:/Workspace/DAVE-4.4.2-64Bit/optiga-trust-m/optiga/crypt\optiga_crypt.c ****         me->instance_state = OPTIGA_LIB_INSTANCE_BUSY;
 1439              	 .loc 1 627 0
 1440 002c 0126     	 mov r6,#1
 628:C:/Workspace/DAVE-4.4.2-64Bit/optiga-trust-m/optiga/crypt\optiga_crypt.c ****         p_params = (optiga_calc_hash_params_t *)&(me->params.optiga_calc_hash_params);
 629:C:/Workspace/DAVE-4.4.2-64Bit/optiga-trust-m/optiga/crypt\optiga_crypt.c ****         pal_os_memset(&me->params,0x00,sizeof(optiga_crypt_params_t));
 1441              	 .loc 1 629 0
 1442 002e 0021     	 mov r1,#0
 627:C:/Workspace/DAVE-4.4.2-64Bit/optiga-trust-m/optiga/crypt\optiga_crypt.c ****         p_params = (optiga_calc_hash_params_t *)&(me->params.optiga_calc_hash_params);
 1443              	 .loc 1 627 0
 1444 0030 A685     	 strh r6,[r4,#44]
 1445              	.LVL171:
 1446              	 .loc 1 629 0
 1447 0032 2022     	 mov r2,#32
 1448 0034 201C     	 mov r0,r4
 1449 0036 FFF7FEFF 	 bl memset
 1450              	.LVL172:
 630:C:/Workspace/DAVE-4.4.2-64Bit/optiga-trust-m/optiga/crypt\optiga_crypt.c **** 
 631:C:/Workspace/DAVE-4.4.2-64Bit/optiga-trust-m/optiga/crypt\optiga_crypt.c ****         OPTIGA_PROTECTION_ENABLE(me->my_cmd, me);
 1451              	 .loc 1 631 0
 1452 003a 231C     	 mov r3,r4
 1453 003c 2E33     	 add r3,r3,#46
 1454 003e 1978     	 ldrb r1,[r3]
 1455 0040 381C     	 mov r0,r7
 1456 0042 0022     	 mov r2,#0
 1457 0044 FFF7FEFF 	 bl optiga_cmd_set_shielded_connection_option
 1458              	.LVL173:
 632:C:/Workspace/DAVE-4.4.2-64Bit/optiga-trust-m/optiga/crypt\optiga_crypt.c ****         OPTIGA_PROTECTION_SET_VERSION(me->my_cmd, me);
 1459              	 .loc 1 632 0
 1460 0048 231C     	 mov r3,r4
 1461 004a 2F33     	 add r3,r3,#47
 1462 004c 1978     	 ldrb r1,[r3]
 1463 004e 321C     	 mov r2,r6
 1464 0050 206A     	 ldr r0,[r4,#32]
 1465 0052 FFF7FEFF 	 bl optiga_cmd_set_shielded_connection_option
 1466              	.LVL174:
 633:C:/Workspace/DAVE-4.4.2-64Bit/optiga-trust-m/optiga/crypt\optiga_crypt.c ****         p_params->p_out_digest = hash_output;
 1467              	 .loc 1 633 0
 1468 0056 019B     	 ldr r3,[sp,#4]
 634:C:/Workspace/DAVE-4.4.2-64Bit/optiga-trust-m/optiga/crypt\optiga_crypt.c ****         p_params->hash_sequence = OPTIGA_CRYPT_HASH_FINAL;
 635:C:/Workspace/DAVE-4.4.2-64Bit/optiga-trust-m/optiga/crypt\optiga_crypt.c ****         p_params->p_hash_context = hash_ctx;
 636:C:/Workspace/DAVE-4.4.2-64Bit/optiga-trust-m/optiga/crypt\optiga_crypt.c ****         p_params->apparent_context_size = p_params->p_hash_context->context_buffer_length;
 637:C:/Workspace/DAVE-4.4.2-64Bit/optiga-trust-m/optiga/crypt\optiga_crypt.c ****         p_params->p_hash_data = NULL;
 1469              	 .loc 1 637 0
 1470 0058 0026     	 mov r6,#0
 633:C:/Workspace/DAVE-4.4.2-64Bit/optiga-trust-m/optiga/crypt\optiga_crypt.c ****         p_params->p_out_digest = hash_output;
 1471              	 .loc 1 633 0
 1472 005a 6361     	 str r3,[r4,#20]
 634:C:/Workspace/DAVE-4.4.2-64Bit/optiga-trust-m/optiga/crypt\optiga_crypt.c ****         p_params->hash_sequence = OPTIGA_CRYPT_HASH_FINAL;
 1473              	 .loc 1 634 0
 1474 005c 0323     	 mov r3,#3
 635:C:/Workspace/DAVE-4.4.2-64Bit/optiga-trust-m/optiga/crypt\optiga_crypt.c ****         p_params->apparent_context_size = p_params->p_hash_context->context_buffer_length;
 1475              	 .loc 1 635 0
 1476 005e A560     	 str r5,[r4,#8]
 634:C:/Workspace/DAVE-4.4.2-64Bit/optiga-trust-m/optiga/crypt\optiga_crypt.c ****         p_params->hash_sequence = OPTIGA_CRYPT_HASH_FINAL;
 1477              	 .loc 1 634 0
 1478 0060 2373     	 strb r3,[r4,#12]
 636:C:/Workspace/DAVE-4.4.2-64Bit/optiga-trust-m/optiga/crypt\optiga_crypt.c ****         p_params->p_hash_data = NULL;
 1479              	 .loc 1 636 0
 1480 0062 AB88     	 ldrh r3,[r5,#4]
 1481              	 .loc 1 637 0
 1482 0064 6660     	 str r6,[r4,#4]
 636:C:/Workspace/DAVE-4.4.2-64Bit/optiga-trust-m/optiga/crypt\optiga_crypt.c ****         p_params->p_hash_data = NULL;
 1483              	 .loc 1 636 0
 1484 0066 E361     	 str r3,[r4,#28]
 638:C:/Workspace/DAVE-4.4.2-64Bit/optiga-trust-m/optiga/crypt\optiga_crypt.c ****         p_params->p_hash_oid = NULL;
 1485              	 .loc 1 638 0
 1486 0068 2660     	 str r6,[r4]
 639:C:/Workspace/DAVE-4.4.2-64Bit/optiga-trust-m/optiga/crypt\optiga_crypt.c **** 
 640:C:/Workspace/DAVE-4.4.2-64Bit/optiga-trust-m/optiga/crypt\optiga_crypt.c ****         return_value = optiga_cmd_calc_hash(me->my_cmd,
 1487              	 .loc 1 640 0
 1488 006a A979     	 ldrb r1,[r5,#6]
 1489 006c 206A     	 ldr r0,[r4,#32]
 1490 006e 221C     	 mov r2,r4
 1491 0070 FFF7FEFF 	 bl optiga_cmd_calc_hash
 1492              	.LVL175:
 1493 0074 051E     	 sub r5,r0,#0
 1494              	.LVL176:
 641:C:/Workspace/DAVE-4.4.2-64Bit/optiga-trust-m/optiga/crypt\optiga_crypt.c ****                                             hash_ctx->hash_algo,
 642:C:/Workspace/DAVE-4.4.2-64Bit/optiga-trust-m/optiga/crypt\optiga_crypt.c ****                                             (optiga_calc_hash_params_t *)p_params);
 643:C:/Workspace/DAVE-4.4.2-64Bit/optiga-trust-m/optiga/crypt\optiga_crypt.c ****         if (OPTIGA_LIB_SUCCESS != return_value)
 1495              	 .loc 1 643 0
 1496 0076 B542     	 cmp r5,r6
 1497 0078 04D0     	 beq .L120
 644:C:/Workspace/DAVE-4.4.2-64Bit/optiga-trust-m/optiga/crypt\optiga_crypt.c ****         {
 645:C:/Workspace/DAVE-4.4.2-64Bit/optiga-trust-m/optiga/crypt\optiga_crypt.c ****             me->instance_state = OPTIGA_LIB_INSTANCE_FREE;
 1498              	 .loc 1 645 0
 1499 007a A685     	 strh r6,[r4,#44]
 1500 007c 02E0     	 b .L120
 1501              	.LVL177:
 1502              	.L124:
 616:C:/Workspace/DAVE-4.4.2-64Bit/optiga-trust-m/optiga/crypt\optiga_crypt.c ****             break;
 1503              	 .loc 1 616 0
 1504 007e 074D     	 ldr r5,.L129+12
 1505              	.LVL178:
 1506 0080 00E0     	 b .L120
 1507              	.LVL179:
 1508              	.L125:
 623:C:/Workspace/DAVE-4.4.2-64Bit/optiga-trust-m/optiga/crypt\optiga_crypt.c ****             break;
 1509              	 .loc 1 623 0
 1510 0082 074D     	 ldr r5,.L129+16
 1511              	.LVL180:
 1512              	.L120:
 646:C:/Workspace/DAVE-4.4.2-64Bit/optiga-trust-m/optiga/crypt\optiga_crypt.c ****         }
 647:C:/Workspace/DAVE-4.4.2-64Bit/optiga-trust-m/optiga/crypt\optiga_crypt.c ****     } while (FALSE);
 648:C:/Workspace/DAVE-4.4.2-64Bit/optiga-trust-m/optiga/crypt\optiga_crypt.c ****     optiga_crypt_reset_protection_level(me);
 1513              	 .loc 1 648 0
 1514 0084 201C     	 mov r0,r4
 1515 0086 FFF7FEFF 	 bl optiga_crypt_reset_protection_level
 1516              	.LVL181:
 649:C:/Workspace/DAVE-4.4.2-64Bit/optiga-trust-m/optiga/crypt\optiga_crypt.c **** 
 650:C:/Workspace/DAVE-4.4.2-64Bit/optiga-trust-m/optiga/crypt\optiga_crypt.c ****     return (return_value);
 651:C:/Workspace/DAVE-4.4.2-64Bit/optiga-trust-m/optiga/crypt\optiga_crypt.c **** }
 1517              	 .loc 1 651 0
 1518              	 
 1519 008a 281C     	 mov r0,r5
 1520              	.LVL182:
 1521              	.LVL183:
 1522 008c FEBD     	 pop {r1,r2,r3,r4,r5,r6,r7,pc}
 1523              	.L130:
 1524 008e C046     	 .align 2
 1525              	.L129:
 1526 0090 00000000 	 .word .LANCHOR3
 1527 0094 00000000 	 .word .LC2
 1528 0098 15000000 	 .word .LC4
 1529 009c 03040000 	 .word 1027
 1530 00a0 05040000 	 .word 1029
 1531              	 .cfi_endproc
 1532              	.LFE13:
 1534              	 .section .text.optiga_crypt_ecc_generate_keypair,"ax",%progbits
 1535              	 .align 1
 1536              	 .global optiga_crypt_ecc_generate_keypair
 1537              	 .code 16
 1538              	 .thumb_func
 1540              	optiga_crypt_ecc_generate_keypair:
 1541              	.LFB14:
 652:C:/Workspace/DAVE-4.4.2-64Bit/optiga-trust-m/optiga/crypt\optiga_crypt.c **** #endif //OPTIGA_CRYPT_HASH_ENABLED
 653:C:/Workspace/DAVE-4.4.2-64Bit/optiga-trust-m/optiga/crypt\optiga_crypt.c **** 
 654:C:/Workspace/DAVE-4.4.2-64Bit/optiga-trust-m/optiga/crypt\optiga_crypt.c **** #ifdef OPTIGA_CRYPT_ECC_GENERATE_KEYPAIR_ENABLED
 655:C:/Workspace/DAVE-4.4.2-64Bit/optiga-trust-m/optiga/crypt\optiga_crypt.c **** optiga_lib_status_t optiga_crypt_ecc_generate_keypair(optiga_crypt_t * me,
 656:C:/Workspace/DAVE-4.4.2-64Bit/optiga-trust-m/optiga/crypt\optiga_crypt.c ****                                                       optiga_ecc_curve_t curve_id,
 657:C:/Workspace/DAVE-4.4.2-64Bit/optiga-trust-m/optiga/crypt\optiga_crypt.c ****                                                       uint8_t key_usage,
 658:C:/Workspace/DAVE-4.4.2-64Bit/optiga-trust-m/optiga/crypt\optiga_crypt.c ****                                                       bool_t export_private_key,
 659:C:/Workspace/DAVE-4.4.2-64Bit/optiga-trust-m/optiga/crypt\optiga_crypt.c ****                                                       void * private_key,
 660:C:/Workspace/DAVE-4.4.2-64Bit/optiga-trust-m/optiga/crypt\optiga_crypt.c ****                                                       uint8_t * public_key,
 661:C:/Workspace/DAVE-4.4.2-64Bit/optiga-trust-m/optiga/crypt\optiga_crypt.c ****                                                       uint16_t * public_key_length)
 662:C:/Workspace/DAVE-4.4.2-64Bit/optiga-trust-m/optiga/crypt\optiga_crypt.c **** {
 1542              	 .loc 1 662 0
 1543              	 .cfi_startproc
 1544              	.LVL184:
 1545 0000 F0B5     	 push {r4,r5,r6,r7,lr}
 1546              	.LCFI15:
 1547              	 .cfi_def_cfa_offset 20
 1548              	 .cfi_offset 4,-20
 1549              	 .cfi_offset 5,-16
 1550              	 .cfi_offset 6,-12
 1551              	 .cfi_offset 7,-8
 1552              	 .cfi_offset 14,-4
 1553 0002 1C1C     	 mov r4,r3
 1554 0004 071C     	 mov r7,r0
 1555 0006 0E1C     	 mov r6,r1
 1556 0008 151C     	 mov r5,r2
 1557 000a 85B0     	 sub sp,sp,#20
 1558              	.LCFI16:
 1559              	 .cfi_def_cfa_offset 40
 663:C:/Workspace/DAVE-4.4.2-64Bit/optiga-trust-m/optiga/crypt\optiga_crypt.c ****     OPTIGA_CRYPT_LOG_MESSAGE(__FUNCTION__);
 1560              	 .loc 1 663 0
 1561 000c 0948     	 ldr r0,.L132
 1562              	.LVL185:
 1563 000e 0A49     	 ldr r1,.L132+4
 1564              	.LVL186:
 1565 0010 0A4A     	 ldr r2,.L132+8
 1566              	.LVL187:
 1567 0012 FFF7FEFF 	 bl optiga_lib_print_message
 1568              	.LVL188:
 664:C:/Workspace/DAVE-4.4.2-64Bit/optiga-trust-m/optiga/crypt\optiga_crypt.c ****     return (optiga_crypt_generate_keypair(me,
 1569              	 .loc 1 664 0
 1570 0016 0A9B     	 ldr r3,[sp,#40]
 1571 0018 381C     	 mov r0,r7
 1572 001a 0093     	 str r3,[sp]
 1573 001c 0B9B     	 ldr r3,[sp,#44]
 1574 001e 311C     	 mov r1,r6
 1575 0020 0193     	 str r3,[sp,#4]
 1576 0022 0C9B     	 ldr r3,[sp,#48]
 1577 0024 2A1C     	 mov r2,r5
 1578 0026 0293     	 str r3,[sp,#8]
 1579 0028 231C     	 mov r3,r4
 1580 002a FFF7FEFF 	 bl optiga_crypt_generate_keypair
 1581              	.LVL189:
 665:C:/Workspace/DAVE-4.4.2-64Bit/optiga-trust-m/optiga/crypt\optiga_crypt.c ****                                          (uint8_t)curve_id,
 666:C:/Workspace/DAVE-4.4.2-64Bit/optiga-trust-m/optiga/crypt\optiga_crypt.c ****                                          key_usage,
 667:C:/Workspace/DAVE-4.4.2-64Bit/optiga-trust-m/optiga/crypt\optiga_crypt.c ****                                          export_private_key,
 668:C:/Workspace/DAVE-4.4.2-64Bit/optiga-trust-m/optiga/crypt\optiga_crypt.c ****                                          private_key,
 669:C:/Workspace/DAVE-4.4.2-64Bit/optiga-trust-m/optiga/crypt\optiga_crypt.c ****                                          public_key,
 670:C:/Workspace/DAVE-4.4.2-64Bit/optiga-trust-m/optiga/crypt\optiga_crypt.c ****                                          public_key_length));
 671:C:/Workspace/DAVE-4.4.2-64Bit/optiga-trust-m/optiga/crypt\optiga_crypt.c **** }
 1582              	 .loc 1 671 0
 1583 002e 05B0     	 add sp,sp,#20
 1584              	 
 1585              	.LVL190:
 1586 0030 F0BD     	 pop {r4,r5,r6,r7,pc}
 1587              	.L133:
 1588 0032 C046     	 .align 2
 1589              	.L132:
 1590 0034 00000000 	 .word .LANCHOR4
 1591 0038 00000000 	 .word .LC2
 1592 003c 15000000 	 .word .LC4
 1593              	 .cfi_endproc
 1594              	.LFE14:
 1596              	 .section .text.optiga_crypt_ecdsa_sign,"ax",%progbits
 1597              	 .align 1
 1598              	 .global optiga_crypt_ecdsa_sign
 1599              	 .code 16
 1600              	 .thumb_func
 1602              	optiga_crypt_ecdsa_sign:
 1603              	.LFB15:
 672:C:/Workspace/DAVE-4.4.2-64Bit/optiga-trust-m/optiga/crypt\optiga_crypt.c **** #endif //OPTIGA_CRYPT_ECC_GENERATE_KEYPAIR_ENABLED
 673:C:/Workspace/DAVE-4.4.2-64Bit/optiga-trust-m/optiga/crypt\optiga_crypt.c **** 
 674:C:/Workspace/DAVE-4.4.2-64Bit/optiga-trust-m/optiga/crypt\optiga_crypt.c **** #ifdef OPTIGA_CRYPT_ECDSA_SIGN_ENABLED
 675:C:/Workspace/DAVE-4.4.2-64Bit/optiga-trust-m/optiga/crypt\optiga_crypt.c **** optiga_lib_status_t optiga_crypt_ecdsa_sign(optiga_crypt_t * me,
 676:C:/Workspace/DAVE-4.4.2-64Bit/optiga-trust-m/optiga/crypt\optiga_crypt.c ****                                             const uint8_t * digest,
 677:C:/Workspace/DAVE-4.4.2-64Bit/optiga-trust-m/optiga/crypt\optiga_crypt.c ****                                             uint8_t digest_length,
 678:C:/Workspace/DAVE-4.4.2-64Bit/optiga-trust-m/optiga/crypt\optiga_crypt.c ****                                             optiga_key_id_t private_key,
 679:C:/Workspace/DAVE-4.4.2-64Bit/optiga-trust-m/optiga/crypt\optiga_crypt.c ****                                             uint8_t * signature,
 680:C:/Workspace/DAVE-4.4.2-64Bit/optiga-trust-m/optiga/crypt\optiga_crypt.c ****                                             uint16_t * signature_length)
 681:C:/Workspace/DAVE-4.4.2-64Bit/optiga-trust-m/optiga/crypt\optiga_crypt.c **** {
 1604              	 .loc 1 681 0
 1605              	 .cfi_startproc
 1606              	.LVL191:
 1607 0000 F0B5     	 push {r4,r5,r6,r7,lr}
 1608              	.LCFI17:
 1609              	 .cfi_def_cfa_offset 20
 1610              	 .cfi_offset 4,-20
 1611              	 .cfi_offset 5,-16
 1612              	 .cfi_offset 6,-12
 1613              	 .cfi_offset 7,-8
 1614              	 .cfi_offset 14,-4
 1615 0002 1F1C     	 mov r7,r3
 1616 0004 061C     	 mov r6,r0
 1617 0006 0D1C     	 mov r5,r1
 1618 0008 141C     	 mov r4,r2
 1619 000a 85B0     	 sub sp,sp,#20
 1620              	.LCFI18:
 1621              	 .cfi_def_cfa_offset 40
 682:C:/Workspace/DAVE-4.4.2-64Bit/optiga-trust-m/optiga/crypt\optiga_crypt.c ****     OPTIGA_CRYPT_LOG_MESSAGE(__FUNCTION__);
 1622              	 .loc 1 682 0
 1623 000c 0848     	 ldr r0,.L135
 1624              	.LVL192:
 1625 000e 0949     	 ldr r1,.L135+4
 1626              	.LVL193:
 1627 0010 094A     	 ldr r2,.L135+8
 1628              	.LVL194:
 1629 0012 FFF7FEFF 	 bl optiga_lib_print_message
 1630              	.LVL195:
 683:C:/Workspace/DAVE-4.4.2-64Bit/optiga-trust-m/optiga/crypt\optiga_crypt.c ****     return (optiga_crypt_sign(me,
 1631              	 .loc 1 683 0
 1632 0016 0A9B     	 ldr r3,[sp,#40]
 1633 0018 0097     	 str r7,[sp]
 1634 001a 0193     	 str r3,[sp,#4]
 1635 001c 0B9B     	 ldr r3,[sp,#44]
 1636 001e 301C     	 mov r0,r6
 1637 0020 0293     	 str r3,[sp,#8]
 1638 0022 1121     	 mov r1,#17
 1639 0024 2A1C     	 mov r2,r5
 1640 0026 231C     	 mov r3,r4
 1641 0028 FFF7FEFF 	 bl optiga_crypt_sign.isra.0
 1642              	.LVL196:
 684:C:/Workspace/DAVE-4.4.2-64Bit/optiga-trust-m/optiga/crypt\optiga_crypt.c ****                               OPTIGA_CRYPT_ECDSA_FIPS_186_3_WITHOUT_HASH,
 685:C:/Workspace/DAVE-4.4.2-64Bit/optiga-trust-m/optiga/crypt\optiga_crypt.c ****                               digest,
 686:C:/Workspace/DAVE-4.4.2-64Bit/optiga-trust-m/optiga/crypt\optiga_crypt.c ****                               digest_length,
 687:C:/Workspace/DAVE-4.4.2-64Bit/optiga-trust-m/optiga/crypt\optiga_crypt.c ****                               private_key,
 688:C:/Workspace/DAVE-4.4.2-64Bit/optiga-trust-m/optiga/crypt\optiga_crypt.c ****                               signature,
 689:C:/Workspace/DAVE-4.4.2-64Bit/optiga-trust-m/optiga/crypt\optiga_crypt.c ****                               signature_length,
 690:C:/Workspace/DAVE-4.4.2-64Bit/optiga-trust-m/optiga/crypt\optiga_crypt.c ****                               0x0000));
 691:C:/Workspace/DAVE-4.4.2-64Bit/optiga-trust-m/optiga/crypt\optiga_crypt.c **** }
 1643              	 .loc 1 691 0
 1644 002c 05B0     	 add sp,sp,#20
 1645              	 
 1646              	.LVL197:
 1647              	.LVL198:
 1648 002e F0BD     	 pop {r4,r5,r6,r7,pc}
 1649              	.L136:
 1650              	 .align 2
 1651              	.L135:
 1652 0030 00000000 	 .word .LANCHOR5
 1653 0034 00000000 	 .word .LC2
 1654 0038 15000000 	 .word .LC4
 1655              	 .cfi_endproc
 1656              	.LFE15:
 1658              	 .section .text.optiga_crypt_ecdsa_verify,"ax",%progbits
 1659              	 .align 1
 1660              	 .global optiga_crypt_ecdsa_verify
 1661              	 .code 16
 1662              	 .thumb_func
 1664              	optiga_crypt_ecdsa_verify:
 1665              	.LFB16:
 692:C:/Workspace/DAVE-4.4.2-64Bit/optiga-trust-m/optiga/crypt\optiga_crypt.c **** #endif //OPTIGA_CRYPT_ECDSA_SIGN_ENABLED
 693:C:/Workspace/DAVE-4.4.2-64Bit/optiga-trust-m/optiga/crypt\optiga_crypt.c **** 
 694:C:/Workspace/DAVE-4.4.2-64Bit/optiga-trust-m/optiga/crypt\optiga_crypt.c **** #ifdef OPTIGA_CRYPT_ECDSA_VERIFY_ENABLED
 695:C:/Workspace/DAVE-4.4.2-64Bit/optiga-trust-m/optiga/crypt\optiga_crypt.c **** optiga_lib_status_t optiga_crypt_ecdsa_verify(optiga_crypt_t * me,
 696:C:/Workspace/DAVE-4.4.2-64Bit/optiga-trust-m/optiga/crypt\optiga_crypt.c ****                                               const uint8_t * digest,
 697:C:/Workspace/DAVE-4.4.2-64Bit/optiga-trust-m/optiga/crypt\optiga_crypt.c ****                                               uint8_t digest_length,
 698:C:/Workspace/DAVE-4.4.2-64Bit/optiga-trust-m/optiga/crypt\optiga_crypt.c ****                                               const uint8_t * signature,
 699:C:/Workspace/DAVE-4.4.2-64Bit/optiga-trust-m/optiga/crypt\optiga_crypt.c ****                                               uint16_t signature_length,
 700:C:/Workspace/DAVE-4.4.2-64Bit/optiga-trust-m/optiga/crypt\optiga_crypt.c ****                                               uint8_t public_key_source_type,
 701:C:/Workspace/DAVE-4.4.2-64Bit/optiga-trust-m/optiga/crypt\optiga_crypt.c ****                                               const void * public_key)
 702:C:/Workspace/DAVE-4.4.2-64Bit/optiga-trust-m/optiga/crypt\optiga_crypt.c **** {
 1666              	 .loc 1 702 0
 1667              	 .cfi_startproc
 1668              	.LVL199:
 1669 0000 F0B5     	 push {r4,r5,r6,r7,lr}
 1670              	.LCFI19:
 1671              	 .cfi_def_cfa_offset 20
 1672              	 .cfi_offset 4,-20
 1673              	 .cfi_offset 5,-16
 1674              	 .cfi_offset 6,-12
 1675              	 .cfi_offset 7,-8
 1676              	 .cfi_offset 14,-4
 1677 0002 061C     	 mov r6,r0
 1678 0004 0D1C     	 mov r5,r1
 1679 0006 141C     	 mov r4,r2
 1680 0008 87B0     	 sub sp,sp,#28
 1681              	.LCFI20:
 1682              	 .cfi_def_cfa_offset 48
 1683              	 .loc 1 702 0
 1684 000a 0493     	 str r3,[sp,#16]
 1685 000c 0CAB     	 add r3,sp,#48
 1686              	.LVL200:
 1687 000e 1B88     	 ldrh r3,[r3]
 1688              	.LVL201:
 703:C:/Workspace/DAVE-4.4.2-64Bit/optiga-trust-m/optiga/crypt\optiga_crypt.c ****     OPTIGA_CRYPT_LOG_MESSAGE(__FUNCTION__);
 1689              	 .loc 1 703 0
 1690 0010 0B48     	 ldr r0,.L138
 1691              	.LVL202:
 702:C:/Workspace/DAVE-4.4.2-64Bit/optiga-trust-m/optiga/crypt\optiga_crypt.c ****     OPTIGA_CRYPT_LOG_MESSAGE(__FUNCTION__);
 1692              	 .loc 1 702 0
 1693 0012 0593     	 str r3,[sp,#20]
 1694              	 .loc 1 703 0
 1695 0014 0B49     	 ldr r1,.L138+4
 1696              	.LVL203:
 702:C:/Workspace/DAVE-4.4.2-64Bit/optiga-trust-m/optiga/crypt\optiga_crypt.c ****     OPTIGA_CRYPT_LOG_MESSAGE(__FUNCTION__);
 1697              	 .loc 1 702 0
 1698 0016 0DAB     	 add r3,sp,#52
 1699              	.LVL204:
 1700              	 .loc 1 703 0
 1701 0018 0B4A     	 ldr r2,.L138+8
 1702              	.LVL205:
 702:C:/Workspace/DAVE-4.4.2-64Bit/optiga-trust-m/optiga/crypt\optiga_crypt.c ****     OPTIGA_CRYPT_LOG_MESSAGE(__FUNCTION__);
 1703              	 .loc 1 702 0
 1704 001a 1F78     	 ldrb r7,[r3]
 1705              	 .loc 1 703 0
 1706 001c FFF7FEFF 	 bl optiga_lib_print_message
 1707              	.LVL206:
 704:C:/Workspace/DAVE-4.4.2-64Bit/optiga-trust-m/optiga/crypt\optiga_crypt.c ****     return (optiga_crypt_verify(me,
 1708              	 .loc 1 704 0
 1709 0020 049B     	 ldr r3,[sp,#16]
 1710 0022 0297     	 str r7,[sp,#8]
 1711 0024 0093     	 str r3,[sp]
 1712 0026 059B     	 ldr r3,[sp,#20]
 1713 0028 301C     	 mov r0,r6
 1714 002a 0193     	 str r3,[sp,#4]
 1715 002c 0E9B     	 ldr r3,[sp,#56]
 1716 002e 1121     	 mov r1,#17
 1717 0030 0393     	 str r3,[sp,#12]
 1718 0032 2A1C     	 mov r2,r5
 1719 0034 231C     	 mov r3,r4
 1720 0036 FFF7FEFF 	 bl optiga_crypt_verify.isra.1
 1721              	.LVL207:
 705:C:/Workspace/DAVE-4.4.2-64Bit/optiga-trust-m/optiga/crypt\optiga_crypt.c ****                                 OPTIGA_CRYPT_ECDSA_FIPS_186_3_WITHOUT_HASH,
 706:C:/Workspace/DAVE-4.4.2-64Bit/optiga-trust-m/optiga/crypt\optiga_crypt.c ****                                 digest,
 707:C:/Workspace/DAVE-4.4.2-64Bit/optiga-trust-m/optiga/crypt\optiga_crypt.c ****                                 digest_length,
 708:C:/Workspace/DAVE-4.4.2-64Bit/optiga-trust-m/optiga/crypt\optiga_crypt.c ****                                 signature,
 709:C:/Workspace/DAVE-4.4.2-64Bit/optiga-trust-m/optiga/crypt\optiga_crypt.c ****                                 signature_length,
 710:C:/Workspace/DAVE-4.4.2-64Bit/optiga-trust-m/optiga/crypt\optiga_crypt.c ****                                 public_key_source_type,
 711:C:/Workspace/DAVE-4.4.2-64Bit/optiga-trust-m/optiga/crypt\optiga_crypt.c ****                                 public_key,
 712:C:/Workspace/DAVE-4.4.2-64Bit/optiga-trust-m/optiga/crypt\optiga_crypt.c ****                                 0x0000));
 713:C:/Workspace/DAVE-4.4.2-64Bit/optiga-trust-m/optiga/crypt\optiga_crypt.c **** }
 1722              	 .loc 1 713 0
 1723 003a 07B0     	 add sp,sp,#28
 1724              	 
 1725              	.LVL208:
 1726              	.LVL209:
 1727 003c F0BD     	 pop {r4,r5,r6,r7,pc}
 1728              	.L139:
 1729 003e C046     	 .align 2
 1730              	.L138:
 1731 0040 00000000 	 .word .LANCHOR6
 1732 0044 00000000 	 .word .LC2
 1733 0048 15000000 	 .word .LC4
 1734              	 .cfi_endproc
 1735              	.LFE16:
 1737              	 .section .text.optiga_crypt_ecdh,"ax",%progbits
 1738              	 .align 1
 1739              	 .global optiga_crypt_ecdh
 1740              	 .code 16
 1741              	 .thumb_func
 1743              	optiga_crypt_ecdh:
 1744              	.LFB17:
 714:C:/Workspace/DAVE-4.4.2-64Bit/optiga-trust-m/optiga/crypt\optiga_crypt.c **** #endif //OPTIGA_CRYPT_ECDSA_VERIFY_ENABLED
 715:C:/Workspace/DAVE-4.4.2-64Bit/optiga-trust-m/optiga/crypt\optiga_crypt.c **** 
 716:C:/Workspace/DAVE-4.4.2-64Bit/optiga-trust-m/optiga/crypt\optiga_crypt.c **** 
 717:C:/Workspace/DAVE-4.4.2-64Bit/optiga-trust-m/optiga/crypt\optiga_crypt.c **** #ifdef OPTIGA_CRYPT_ECDH_ENABLED
 718:C:/Workspace/DAVE-4.4.2-64Bit/optiga-trust-m/optiga/crypt\optiga_crypt.c **** optiga_lib_status_t optiga_crypt_ecdh(optiga_crypt_t * me,
 719:C:/Workspace/DAVE-4.4.2-64Bit/optiga-trust-m/optiga/crypt\optiga_crypt.c ****                                       optiga_key_id_t private_key,
 720:C:/Workspace/DAVE-4.4.2-64Bit/optiga-trust-m/optiga/crypt\optiga_crypt.c ****                                       public_key_from_host_t * public_key,
 721:C:/Workspace/DAVE-4.4.2-64Bit/optiga-trust-m/optiga/crypt\optiga_crypt.c ****                                       bool_t export_to_host,
 722:C:/Workspace/DAVE-4.4.2-64Bit/optiga-trust-m/optiga/crypt\optiga_crypt.c ****                                       uint8_t * shared_secret)
 723:C:/Workspace/DAVE-4.4.2-64Bit/optiga-trust-m/optiga/crypt\optiga_crypt.c **** {
 1745              	 .loc 1 723 0
 1746              	 .cfi_startproc
 1747              	.LVL210:
 1748 0000 F7B5     	 push {r0,r1,r2,r4,r5,r6,r7,lr}
 1749              	.LCFI21:
 1750              	 .cfi_def_cfa_offset 32
 1751              	 .cfi_offset 0,-32
 1752              	 .cfi_offset 1,-28
 1753              	 .cfi_offset 2,-24
 1754              	 .cfi_offset 4,-20
 1755              	 .cfi_offset 5,-16
 1756              	 .cfi_offset 6,-12
 1757              	 .cfi_offset 7,-8
 1758              	 .cfi_offset 14,-4
 1759              	 .loc 1 723 0
 1760 0002 041C     	 mov r4,r0
 1761 0004 0191     	 str r1,[sp,#4]
 1762 0006 161C     	 mov r6,r2
 724:C:/Workspace/DAVE-4.4.2-64Bit/optiga-trust-m/optiga/crypt\optiga_crypt.c ****     optiga_lib_status_t return_value = OPTIGA_CRYPT_ERROR;
 725:C:/Workspace/DAVE-4.4.2-64Bit/optiga-trust-m/optiga/crypt\optiga_crypt.c ****     optiga_calc_ssec_params_t * p_params;
 726:C:/Workspace/DAVE-4.4.2-64Bit/optiga-trust-m/optiga/crypt\optiga_crypt.c ****     OPTIGA_CRYPT_LOG_MESSAGE(__FUNCTION__);
 1763              	 .loc 1 726 0
 1764 0008 2448     	 ldr r0,.L152
 1765              	.LVL211:
 1766 000a 2549     	 ldr r1,.L152+4
 1767              	.LVL212:
 1768 000c 254A     	 ldr r2,.L152+8
 1769              	.LVL213:
 723:C:/Workspace/DAVE-4.4.2-64Bit/optiga-trust-m/optiga/crypt\optiga_crypt.c ****     optiga_lib_status_t return_value = OPTIGA_CRYPT_ERROR;
 1770              	 .loc 1 723 0
 1771 000e 0093     	 str r3,[sp]
 1772              	 .loc 1 726 0
 1773 0010 FFF7FEFF 	 bl optiga_lib_print_message
 1774              	.LVL214:
 727:C:/Workspace/DAVE-4.4.2-64Bit/optiga-trust-m/optiga/crypt\optiga_crypt.c **** 
 728:C:/Workspace/DAVE-4.4.2-64Bit/optiga-trust-m/optiga/crypt\optiga_crypt.c ****     do
 729:C:/Workspace/DAVE-4.4.2-64Bit/optiga-trust-m/optiga/crypt\optiga_crypt.c ****     {
 730:C:/Workspace/DAVE-4.4.2-64Bit/optiga-trust-m/optiga/crypt\optiga_crypt.c **** 
 731:C:/Workspace/DAVE-4.4.2-64Bit/optiga-trust-m/optiga/crypt\optiga_crypt.c **** #ifdef OPTIGA_LIB_DEBUG_NULL_CHECK
 732:C:/Workspace/DAVE-4.4.2-64Bit/optiga-trust-m/optiga/crypt\optiga_crypt.c ****         if ((NULL == me) || (NULL == me->my_cmd) || (NULL == public_key) ||
 1775              	 .loc 1 732 0
 1776 0014 002C     	 cmp r4,#0
 1777 0016 38D0     	 beq .L147
 1778              	 .loc 1 732 0 is_stmt 0 discriminator 1
 1779 0018 276A     	 ldr r7,[r4,#32]
 1780 001a 002F     	 cmp r7,#0
 1781 001c 35D0     	 beq .L147
 1782              	 .loc 1 732 0 discriminator 2
 1783 001e 002E     	 cmp r6,#0
 1784 0020 33D0     	 beq .L147
 1785              	 .loc 1 732 0 discriminator 3
 1786 0022 3368     	 ldr r3,[r6]
 1787 0024 002B     	 cmp r3,#0
 1788 0026 30D0     	 beq .L147
 733:C:/Workspace/DAVE-4.4.2-64Bit/optiga-trust-m/optiga/crypt\optiga_crypt.c ****             (NULL == public_key->public_key) ||
 1789              	 .loc 1 733 0 is_stmt 1
 1790 0028 009B     	 ldr r3,[sp]
 1791 002a 012B     	 cmp r3,#1
 1792 002c 02D1     	 bne .L142
 734:C:/Workspace/DAVE-4.4.2-64Bit/optiga-trust-m/optiga/crypt\optiga_crypt.c ****             ((TRUE == export_to_host) && (NULL == shared_secret)))
 1793              	 .loc 1 734 0
 1794 002e 089B     	 ldr r3,[sp,#32]
 1795 0030 002B     	 cmp r3,#0
 1796 0032 2AD0     	 beq .L147
 1797              	.L142:
 735:C:/Workspace/DAVE-4.4.2-64Bit/optiga-trust-m/optiga/crypt\optiga_crypt.c ****         {
 736:C:/Workspace/DAVE-4.4.2-64Bit/optiga-trust-m/optiga/crypt\optiga_crypt.c ****             return_value = OPTIGA_CRYPT_ERROR_INVALID_INPUT;
 737:C:/Workspace/DAVE-4.4.2-64Bit/optiga-trust-m/optiga/crypt\optiga_crypt.c ****             break;
 738:C:/Workspace/DAVE-4.4.2-64Bit/optiga-trust-m/optiga/crypt\optiga_crypt.c ****         }
 739:C:/Workspace/DAVE-4.4.2-64Bit/optiga-trust-m/optiga/crypt\optiga_crypt.c **** #endif
 740:C:/Workspace/DAVE-4.4.2-64Bit/optiga-trust-m/optiga/crypt\optiga_crypt.c **** 
 741:C:/Workspace/DAVE-4.4.2-64Bit/optiga-trust-m/optiga/crypt\optiga_crypt.c ****         if (OPTIGA_LIB_INSTANCE_BUSY == me->instance_state)
 1798              	 .loc 1 741 0
 1799 0034 A38D     	 ldrh r3,[r4,#44]
 1800 0036 012B     	 cmp r3,#1
 1801 0038 29D0     	 beq .L148
 742:C:/Workspace/DAVE-4.4.2-64Bit/optiga-trust-m/optiga/crypt\optiga_crypt.c ****         {
 743:C:/Workspace/DAVE-4.4.2-64Bit/optiga-trust-m/optiga/crypt\optiga_crypt.c ****             return_value = OPTIGA_CRYPT_ERROR_INSTANCE_IN_USE;
 744:C:/Workspace/DAVE-4.4.2-64Bit/optiga-trust-m/optiga/crypt\optiga_crypt.c ****             break;
 745:C:/Workspace/DAVE-4.4.2-64Bit/optiga-trust-m/optiga/crypt\optiga_crypt.c ****         }
 746:C:/Workspace/DAVE-4.4.2-64Bit/optiga-trust-m/optiga/crypt\optiga_crypt.c **** 
 747:C:/Workspace/DAVE-4.4.2-64Bit/optiga-trust-m/optiga/crypt\optiga_crypt.c ****         me->instance_state = OPTIGA_LIB_INSTANCE_BUSY;
 1802              	 .loc 1 747 0
 1803 003a 0125     	 mov r5,#1
 748:C:/Workspace/DAVE-4.4.2-64Bit/optiga-trust-m/optiga/crypt\optiga_crypt.c **** 
 749:C:/Workspace/DAVE-4.4.2-64Bit/optiga-trust-m/optiga/crypt\optiga_crypt.c ****         p_params = (optiga_calc_ssec_params_t *)&(me->params.optiga_calc_ssec_params);
 750:C:/Workspace/DAVE-4.4.2-64Bit/optiga-trust-m/optiga/crypt\optiga_crypt.c ****         pal_os_memset(&me->params,0x00,sizeof(optiga_crypt_params_t));
 1804              	 .loc 1 750 0
 1805 003c 0021     	 mov r1,#0
 747:C:/Workspace/DAVE-4.4.2-64Bit/optiga-trust-m/optiga/crypt\optiga_crypt.c **** 
 1806              	 .loc 1 747 0
 1807 003e A585     	 strh r5,[r4,#44]
 1808              	.LVL215:
 1809              	 .loc 1 750 0
 1810 0040 2022     	 mov r2,#32
 1811 0042 201C     	 mov r0,r4
 1812 0044 FFF7FEFF 	 bl memset
 1813              	.LVL216:
 751:C:/Workspace/DAVE-4.4.2-64Bit/optiga-trust-m/optiga/crypt\optiga_crypt.c **** 
 752:C:/Workspace/DAVE-4.4.2-64Bit/optiga-trust-m/optiga/crypt\optiga_crypt.c ****         p_params->private_key = private_key;
 1814              	 .loc 1 752 0
 1815 0048 6B46     	 mov r3,sp
 1816 004a 9B88     	 ldrh r3,[r3,#4]
 753:C:/Workspace/DAVE-4.4.2-64Bit/optiga-trust-m/optiga/crypt\optiga_crypt.c ****         p_params->public_key = public_key;
 1817              	 .loc 1 753 0
 1818 004c 2660     	 str r6,[r4]
 752:C:/Workspace/DAVE-4.4.2-64Bit/optiga-trust-m/optiga/crypt\optiga_crypt.c ****         p_params->public_key = public_key;
 1819              	 .loc 1 752 0
 1820 004e 2381     	 strh r3,[r4,#8]
 754:C:/Workspace/DAVE-4.4.2-64Bit/optiga-trust-m/optiga/crypt\optiga_crypt.c ****         p_params->export_to_host = export_to_host;
 1821              	 .loc 1 754 0
 1822 0050 6B46     	 mov r3,sp
 1823 0052 1B78     	 ldrb r3,[r3]
 755:C:/Workspace/DAVE-4.4.2-64Bit/optiga-trust-m/optiga/crypt\optiga_crypt.c ****         p_params->shared_secret = shared_secret;
 756:C:/Workspace/DAVE-4.4.2-64Bit/optiga-trust-m/optiga/crypt\optiga_crypt.c ****         OPTIGA_PROTECTION_ENABLE(me->my_cmd, me);
 1824              	 .loc 1 756 0
 1825 0054 381C     	 mov r0,r7
 754:C:/Workspace/DAVE-4.4.2-64Bit/optiga-trust-m/optiga/crypt\optiga_crypt.c ****         p_params->export_to_host = export_to_host;
 1826              	 .loc 1 754 0
 1827 0056 A372     	 strb r3,[r4,#10]
 755:C:/Workspace/DAVE-4.4.2-64Bit/optiga-trust-m/optiga/crypt\optiga_crypt.c ****         p_params->shared_secret = shared_secret;
 1828              	 .loc 1 755 0
 1829 0058 089B     	 ldr r3,[sp,#32]
 1830              	 .loc 1 756 0
 1831 005a 0022     	 mov r2,#0
 755:C:/Workspace/DAVE-4.4.2-64Bit/optiga-trust-m/optiga/crypt\optiga_crypt.c ****         p_params->shared_secret = shared_secret;
 1832              	 .loc 1 755 0
 1833 005c 6360     	 str r3,[r4,#4]
 1834              	 .loc 1 756 0
 1835 005e 231C     	 mov r3,r4
 1836 0060 2E33     	 add r3,r3,#46
 1837 0062 1978     	 ldrb r1,[r3]
 1838 0064 FFF7FEFF 	 bl optiga_cmd_set_shielded_connection_option
 1839              	.LVL217:
 757:C:/Workspace/DAVE-4.4.2-64Bit/optiga-trust-m/optiga/crypt\optiga_crypt.c ****         OPTIGA_PROTECTION_SET_VERSION(me->my_cmd, me);
 1840              	 .loc 1 757 0
 1841 0068 231C     	 mov r3,r4
 1842 006a 2F33     	 add r3,r3,#47
 1843 006c 1978     	 ldrb r1,[r3]
 1844 006e 2A1C     	 mov r2,r5
 1845 0070 206A     	 ldr r0,[r4,#32]
 1846 0072 FFF7FEFF 	 bl optiga_cmd_set_shielded_connection_option
 1847              	.LVL218:
 758:C:/Workspace/DAVE-4.4.2-64Bit/optiga-trust-m/optiga/crypt\optiga_crypt.c **** 
 759:C:/Workspace/DAVE-4.4.2-64Bit/optiga-trust-m/optiga/crypt\optiga_crypt.c ****         return_value = optiga_cmd_calc_ssec(me->my_cmd, OPTIGA_CRYPT_ECDH_KEY_AGREEMENT_ALGORITHM,
 1848              	 .loc 1 759 0
 1849 0076 291C     	 mov r1,r5
 1850 0078 206A     	 ldr r0,[r4,#32]
 1851 007a 221C     	 mov r2,r4
 1852 007c FFF7FEFF 	 bl optiga_cmd_calc_ssec
 1853              	.LVL219:
 1854 0080 051E     	 sub r5,r0,#0
 1855              	.LVL220:
 760:C:/Workspace/DAVE-4.4.2-64Bit/optiga-trust-m/optiga/crypt\optiga_crypt.c ****                                             (optiga_calc_ssec_params_t *)p_params);
 761:C:/Workspace/DAVE-4.4.2-64Bit/optiga-trust-m/optiga/crypt\optiga_crypt.c ****         if (OPTIGA_LIB_SUCCESS != return_value)
 1856              	 .loc 1 761 0
 1857 0082 05D0     	 beq .L141
 762:C:/Workspace/DAVE-4.4.2-64Bit/optiga-trust-m/optiga/crypt\optiga_crypt.c ****         {
 763:C:/Workspace/DAVE-4.4.2-64Bit/optiga-trust-m/optiga/crypt\optiga_crypt.c ****             me->instance_state = OPTIGA_LIB_INSTANCE_FREE;
 1858              	 .loc 1 763 0
 1859 0084 0023     	 mov r3,#0
 1860 0086 A385     	 strh r3,[r4,#44]
 1861 0088 02E0     	 b .L141
 1862              	.LVL221:
 1863              	.L147:
 736:C:/Workspace/DAVE-4.4.2-64Bit/optiga-trust-m/optiga/crypt\optiga_crypt.c ****             break;
 1864              	 .loc 1 736 0
 1865 008a 074D     	 ldr r5,.L152+12
 1866 008c 00E0     	 b .L141
 1867              	.L148:
 743:C:/Workspace/DAVE-4.4.2-64Bit/optiga-trust-m/optiga/crypt\optiga_crypt.c ****             break;
 1868              	 .loc 1 743 0
 1869 008e 074D     	 ldr r5,.L152+16
 1870              	.LVL222:
 1871              	.L141:
 764:C:/Workspace/DAVE-4.4.2-64Bit/optiga-trust-m/optiga/crypt\optiga_crypt.c ****         }
 765:C:/Workspace/DAVE-4.4.2-64Bit/optiga-trust-m/optiga/crypt\optiga_crypt.c ****     } while (FALSE);
 766:C:/Workspace/DAVE-4.4.2-64Bit/optiga-trust-m/optiga/crypt\optiga_crypt.c ****     optiga_crypt_reset_protection_level(me);
 1872              	 .loc 1 766 0
 1873 0090 201C     	 mov r0,r4
 1874 0092 FFF7FEFF 	 bl optiga_crypt_reset_protection_level
 1875              	.LVL223:
 767:C:/Workspace/DAVE-4.4.2-64Bit/optiga-trust-m/optiga/crypt\optiga_crypt.c **** 
 768:C:/Workspace/DAVE-4.4.2-64Bit/optiga-trust-m/optiga/crypt\optiga_crypt.c ****     return (return_value);
 769:C:/Workspace/DAVE-4.4.2-64Bit/optiga-trust-m/optiga/crypt\optiga_crypt.c **** }
 1876              	 .loc 1 769 0
 1877              	 
 1878 0096 281C     	 mov r0,r5
 1879              	.LVL224:
 1880              	.LVL225:
 1881              	.LVL226:
 1882 0098 FEBD     	 pop {r1,r2,r3,r4,r5,r6,r7,pc}
 1883              	.L153:
 1884 009a C046     	 .align 2
 1885              	.L152:
 1886 009c 00000000 	 .word .LANCHOR7
 1887 00a0 00000000 	 .word .LC2
 1888 00a4 15000000 	 .word .LC4
 1889 00a8 03040000 	 .word 1027
 1890 00ac 05040000 	 .word 1029
 1891              	 .cfi_endproc
 1892              	.LFE17:
 1894              	 .section .text.optiga_crypt_tls_prf_sha256,"ax",%progbits
 1895              	 .align 1
 1896              	 .global optiga_crypt_tls_prf_sha256
 1897              	 .code 16
 1898              	 .thumb_func
 1900              	optiga_crypt_tls_prf_sha256:
 1901              	.LFB18:
 770:C:/Workspace/DAVE-4.4.2-64Bit/optiga-trust-m/optiga/crypt\optiga_crypt.c **** #endif  //OPTIGA_CRYPT_ECDH_ENABLED
 771:C:/Workspace/DAVE-4.4.2-64Bit/optiga-trust-m/optiga/crypt\optiga_crypt.c **** 
 772:C:/Workspace/DAVE-4.4.2-64Bit/optiga-trust-m/optiga/crypt\optiga_crypt.c **** #ifdef OPTIGA_CRYPT_TLS_PRF_SHA256_ENABLED
 773:C:/Workspace/DAVE-4.4.2-64Bit/optiga-trust-m/optiga/crypt\optiga_crypt.c **** optiga_lib_status_t optiga_crypt_tls_prf_sha256(optiga_crypt_t * me,
 774:C:/Workspace/DAVE-4.4.2-64Bit/optiga-trust-m/optiga/crypt\optiga_crypt.c ****                                                 uint16_t secret,
 775:C:/Workspace/DAVE-4.4.2-64Bit/optiga-trust-m/optiga/crypt\optiga_crypt.c ****                                                 const uint8_t * label,
 776:C:/Workspace/DAVE-4.4.2-64Bit/optiga-trust-m/optiga/crypt\optiga_crypt.c ****                                                 uint16_t label_length,
 777:C:/Workspace/DAVE-4.4.2-64Bit/optiga-trust-m/optiga/crypt\optiga_crypt.c ****                                                 const uint8_t * seed,
 778:C:/Workspace/DAVE-4.4.2-64Bit/optiga-trust-m/optiga/crypt\optiga_crypt.c ****                                                 uint16_t seed_length,
 779:C:/Workspace/DAVE-4.4.2-64Bit/optiga-trust-m/optiga/crypt\optiga_crypt.c ****                                                 uint16_t derived_key_length,
 780:C:/Workspace/DAVE-4.4.2-64Bit/optiga-trust-m/optiga/crypt\optiga_crypt.c ****                                                 bool_t export_to_host,
 781:C:/Workspace/DAVE-4.4.2-64Bit/optiga-trust-m/optiga/crypt\optiga_crypt.c ****                                                 uint8_t * derived_key)
 782:C:/Workspace/DAVE-4.4.2-64Bit/optiga-trust-m/optiga/crypt\optiga_crypt.c **** {
 1902              	 .loc 1 782 0
 1903              	 .cfi_startproc
 1904              	.LVL227:
 1905 0000 F0B5     	 push {r4,r5,r6,r7,lr}
 1906              	.LCFI22:
 1907              	 .cfi_def_cfa_offset 20
 1908              	 .cfi_offset 4,-20
 1909              	 .cfi_offset 5,-16
 1910              	 .cfi_offset 6,-12
 1911              	 .cfi_offset 7,-8
 1912              	 .cfi_offset 14,-4
 1913 0002 87B0     	 sub sp,sp,#28
 1914              	.LCFI23:
 1915              	 .cfi_def_cfa_offset 48
 1916              	 .loc 1 782 0
 1917 0004 0393     	 str r3,[sp,#12]
 1918 0006 0CAB     	 add r3,sp,#48
 1919              	.LVL228:
 1920 0008 0292     	 str r2,[sp,#8]
 1921 000a 04CB     	 ldmia r3!,{r2}
 1922              	.LVL229:
 1923 000c 041C     	 mov r4,r0
 1924 000e 1B88     	 ldrh r3,[r3]
 1925              	.LVL230:
 1926 0010 0191     	 str r1,[sp,#4]
 1927 0012 0493     	 str r3,[sp,#16]
 1928 0014 0EAB     	 add r3,sp,#56
 1929              	.LVL231:
 1930 0016 1B88     	 ldrh r3,[r3]
 1931              	.LVL232:
 783:C:/Workspace/DAVE-4.4.2-64Bit/optiga-trust-m/optiga/crypt\optiga_crypt.c ****     optiga_lib_status_t return_value = OPTIGA_CRYPT_ERROR;
 784:C:/Workspace/DAVE-4.4.2-64Bit/optiga-trust-m/optiga/crypt\optiga_crypt.c ****     optiga_derive_key_params_t * p_params;
 785:C:/Workspace/DAVE-4.4.2-64Bit/optiga-trust-m/optiga/crypt\optiga_crypt.c ****     OPTIGA_CRYPT_LOG_MESSAGE(__FUNCTION__);
 1932              	 .loc 1 785 0
 1933 0018 2A48     	 ldr r0,.L169
 1934              	.LVL233:
 782:C:/Workspace/DAVE-4.4.2-64Bit/optiga-trust-m/optiga/crypt\optiga_crypt.c ****     optiga_lib_status_t return_value = OPTIGA_CRYPT_ERROR;
 1935              	 .loc 1 782 0
 1936 001a 0593     	 str r3,[sp,#20]
 1937              	 .loc 1 785 0
 1938 001c 2A49     	 ldr r1,.L169+4
 1939              	.LVL234:
 782:C:/Workspace/DAVE-4.4.2-64Bit/optiga-trust-m/optiga/crypt\optiga_crypt.c ****     optiga_lib_status_t return_value = OPTIGA_CRYPT_ERROR;
 1940              	 .loc 1 782 0
 1941 001e 0FAB     	 add r3,sp,#60
 1942              	.LVL235:
 1943              	 .loc 1 785 0
 1944 0020 2A4A     	 ldr r2,.L169+8
 782:C:/Workspace/DAVE-4.4.2-64Bit/optiga-trust-m/optiga/crypt\optiga_crypt.c ****     optiga_lib_status_t return_value = OPTIGA_CRYPT_ERROR;
 1945              	 .loc 1 782 0
 1946 0022 1E78     	 ldrb r6,[r3]
 1947              	 .loc 1 785 0
 1948 0024 FFF7FEFF 	 bl optiga_lib_print_message
 1949              	.LVL236:
 786:C:/Workspace/DAVE-4.4.2-64Bit/optiga-trust-m/optiga/crypt\optiga_crypt.c **** 
 787:C:/Workspace/DAVE-4.4.2-64Bit/optiga-trust-m/optiga/crypt\optiga_crypt.c ****     do
 788:C:/Workspace/DAVE-4.4.2-64Bit/optiga-trust-m/optiga/crypt\optiga_crypt.c ****     {
 789:C:/Workspace/DAVE-4.4.2-64Bit/optiga-trust-m/optiga/crypt\optiga_crypt.c **** #ifdef OPTIGA_LIB_DEBUG_NULL_CHECK
 790:C:/Workspace/DAVE-4.4.2-64Bit/optiga-trust-m/optiga/crypt\optiga_crypt.c ****         if ((NULL == me) || (NULL == me->my_cmd) || (NULL == seed) ||
 1950              	 .loc 1 790 0
 1951 0028 002C     	 cmp r4,#0
 1952 002a 42D0     	 beq .L161
 1953              	 .loc 1 790 0 is_stmt 0 discriminator 1
 1954 002c 276A     	 ldr r7,[r4,#32]
 1955 002e 002F     	 cmp r7,#0
 1956 0030 3FD0     	 beq .L161
 1957              	 .loc 1 790 0 discriminator 2
 1958 0032 0C9B     	 ldr r3,[sp,#48]
 1959 0034 002B     	 cmp r3,#0
 1960 0036 3CD0     	 beq .L161
 1961              	 .loc 1 790 0 discriminator 3
 1962 0038 012E     	 cmp r6,#1
 1963 003a 02D1     	 bne .L156
 791:C:/Workspace/DAVE-4.4.2-64Bit/optiga-trust-m/optiga/crypt\optiga_crypt.c ****            ((TRUE == export_to_host) && (NULL == derived_key)))
 1964              	 .loc 1 791 0 is_stmt 1
 1965 003c 109B     	 ldr r3,[sp,#64]
 1966 003e 002B     	 cmp r3,#0
 1967 0040 37D0     	 beq .L161
 1968              	.L156:
 792:C:/Workspace/DAVE-4.4.2-64Bit/optiga-trust-m/optiga/crypt\optiga_crypt.c ****         {
 793:C:/Workspace/DAVE-4.4.2-64Bit/optiga-trust-m/optiga/crypt\optiga_crypt.c ****             return_value = OPTIGA_CRYPT_ERROR_INVALID_INPUT;
 794:C:/Workspace/DAVE-4.4.2-64Bit/optiga-trust-m/optiga/crypt\optiga_crypt.c ****             break;
 795:C:/Workspace/DAVE-4.4.2-64Bit/optiga-trust-m/optiga/crypt\optiga_crypt.c ****         }
 796:C:/Workspace/DAVE-4.4.2-64Bit/optiga-trust-m/optiga/crypt\optiga_crypt.c **** #endif
 797:C:/Workspace/DAVE-4.4.2-64Bit/optiga-trust-m/optiga/crypt\optiga_crypt.c **** 
 798:C:/Workspace/DAVE-4.4.2-64Bit/optiga-trust-m/optiga/crypt\optiga_crypt.c ****         if (OPTIGA_LIB_INSTANCE_BUSY == me->instance_state)
 1969              	 .loc 1 798 0
 1970 0042 A38D     	 ldrh r3,[r4,#44]
 1971 0044 012B     	 cmp r3,#1
 1972 0046 36D0     	 beq .L162
 799:C:/Workspace/DAVE-4.4.2-64Bit/optiga-trust-m/optiga/crypt\optiga_crypt.c ****         {
 800:C:/Workspace/DAVE-4.4.2-64Bit/optiga-trust-m/optiga/crypt\optiga_crypt.c ****             return_value = OPTIGA_CRYPT_ERROR_INSTANCE_IN_USE;
 801:C:/Workspace/DAVE-4.4.2-64Bit/optiga-trust-m/optiga/crypt\optiga_crypt.c ****             break;
 802:C:/Workspace/DAVE-4.4.2-64Bit/optiga-trust-m/optiga/crypt\optiga_crypt.c ****         }
 803:C:/Workspace/DAVE-4.4.2-64Bit/optiga-trust-m/optiga/crypt\optiga_crypt.c **** 
 804:C:/Workspace/DAVE-4.4.2-64Bit/optiga-trust-m/optiga/crypt\optiga_crypt.c ****         me->instance_state = OPTIGA_LIB_INSTANCE_BUSY;
 1973              	 .loc 1 804 0
 1974 0048 0125     	 mov r5,#1
 805:C:/Workspace/DAVE-4.4.2-64Bit/optiga-trust-m/optiga/crypt\optiga_crypt.c **** 
 806:C:/Workspace/DAVE-4.4.2-64Bit/optiga-trust-m/optiga/crypt\optiga_crypt.c ****         p_params = (optiga_derive_key_params_t *)&(me->params.optiga_derive_key_params);
 807:C:/Workspace/DAVE-4.4.2-64Bit/optiga-trust-m/optiga/crypt\optiga_crypt.c ****         pal_os_memset(&me->params,0x00,sizeof(optiga_crypt_params_t));
 1975              	 .loc 1 807 0
 1976 004a 0021     	 mov r1,#0
 1977 004c 2022     	 mov r2,#32
 804:C:/Workspace/DAVE-4.4.2-64Bit/optiga-trust-m/optiga/crypt\optiga_crypt.c **** 
 1978              	 .loc 1 804 0
 1979 004e A585     	 strh r5,[r4,#44]
 1980              	.LVL237:
 1981              	 .loc 1 807 0
 1982 0050 201C     	 mov r0,r4
 1983 0052 FFF7FEFF 	 bl memset
 1984              	.LVL238:
 808:C:/Workspace/DAVE-4.4.2-64Bit/optiga-trust-m/optiga/crypt\optiga_crypt.c **** 
 809:C:/Workspace/DAVE-4.4.2-64Bit/optiga-trust-m/optiga/crypt\optiga_crypt.c ****         p_params->input_shared_secret_oid = secret;
 1985              	 .loc 1 809 0
 1986 0056 6B46     	 mov r3,sp
 1987 0058 9B88     	 ldrh r3,[r3,#4]
 810:C:/Workspace/DAVE-4.4.2-64Bit/optiga-trust-m/optiga/crypt\optiga_crypt.c ****         p_params->label = label;
 811:C:/Workspace/DAVE-4.4.2-64Bit/optiga-trust-m/optiga/crypt\optiga_crypt.c ****         p_params->label_length = label_length;
 812:C:/Workspace/DAVE-4.4.2-64Bit/optiga-trust-m/optiga/crypt\optiga_crypt.c ****         p_params->seed = (const uint8_t *)seed;
 813:C:/Workspace/DAVE-4.4.2-64Bit/optiga-trust-m/optiga/crypt\optiga_crypt.c ****         p_params->seed_length = seed_length;
 814:C:/Workspace/DAVE-4.4.2-64Bit/optiga-trust-m/optiga/crypt\optiga_crypt.c **** #ifdef OPTIGA_COMMS_SHIELDED_CONNECTION
 815:C:/Workspace/DAVE-4.4.2-64Bit/optiga-trust-m/optiga/crypt\optiga_crypt.c ****         me->protection_level |= OPTIGA_COMMS_COMMAND_PROTECTION;
 816:C:/Workspace/DAVE-4.4.2-64Bit/optiga-trust-m/optiga/crypt\optiga_crypt.c **** #endif //OPTIGA_COMMS_SHIELDED_CONNECTION
 817:C:/Workspace/DAVE-4.4.2-64Bit/optiga-trust-m/optiga/crypt\optiga_crypt.c ****         OPTIGA_PROTECTION_ENABLE(me->my_cmd, me);
 1988              	 .loc 1 817 0
 1989 005a 381C     	 mov r0,r7
 809:C:/Workspace/DAVE-4.4.2-64Bit/optiga-trust-m/optiga/crypt\optiga_crypt.c ****         p_params->label = label;
 1990              	 .loc 1 809 0
 1991 005c 2380     	 strh r3,[r4]
 810:C:/Workspace/DAVE-4.4.2-64Bit/optiga-trust-m/optiga/crypt\optiga_crypt.c ****         p_params->label = label;
 1992              	 .loc 1 810 0
 1993 005e 029B     	 ldr r3,[sp,#8]
 1994              	 .loc 1 817 0
 1995 0060 0022     	 mov r2,#0
 810:C:/Workspace/DAVE-4.4.2-64Bit/optiga-trust-m/optiga/crypt\optiga_crypt.c ****         p_params->label = label;
 1996              	 .loc 1 810 0
 1997 0062 E360     	 str r3,[r4,#12]
 811:C:/Workspace/DAVE-4.4.2-64Bit/optiga-trust-m/optiga/crypt\optiga_crypt.c ****         p_params->seed = (const uint8_t *)seed;
 1998              	 .loc 1 811 0
 1999 0064 6B46     	 mov r3,sp
 2000 0066 9B89     	 ldrh r3,[r3,#12]
 2001 0068 6380     	 strh r3,[r4,#2]
 812:C:/Workspace/DAVE-4.4.2-64Bit/optiga-trust-m/optiga/crypt\optiga_crypt.c ****         p_params->seed_length = seed_length;
 2002              	 .loc 1 812 0
 2003 006a 0C9B     	 ldr r3,[sp,#48]
 2004 006c A360     	 str r3,[r4,#8]
 813:C:/Workspace/DAVE-4.4.2-64Bit/optiga-trust-m/optiga/crypt\optiga_crypt.c **** #ifdef OPTIGA_COMMS_SHIELDED_CONNECTION
 2005              	 .loc 1 813 0
 2006 006e 6B46     	 mov r3,sp
 2007 0070 1B8A     	 ldrh r3,[r3,#16]
 2008 0072 A380     	 strh r3,[r4,#4]
 815:C:/Workspace/DAVE-4.4.2-64Bit/optiga-trust-m/optiga/crypt\optiga_crypt.c **** #endif //OPTIGA_COMMS_SHIELDED_CONNECTION
 2009              	 .loc 1 815 0
 2010 0074 231C     	 mov r3,r4
 2011 0076 2E33     	 add r3,r3,#46
 2012 0078 1978     	 ldrb r1,[r3]
 2013 007a 2943     	 orr r1,r5
 2014 007c 1970     	 strb r1,[r3]
 2015              	 .loc 1 817 0
 2016 007e FFF7FEFF 	 bl optiga_cmd_set_shielded_connection_option
 2017              	.LVL239:
 818:C:/Workspace/DAVE-4.4.2-64Bit/optiga-trust-m/optiga/crypt\optiga_crypt.c ****         OPTIGA_PROTECTION_SET_VERSION(me->my_cmd, me);
 2018              	 .loc 1 818 0
 2019 0082 231C     	 mov r3,r4
 2020 0084 2F33     	 add r3,r3,#47
 2021 0086 1978     	 ldrb r1,[r3]
 2022 0088 206A     	 ldr r0,[r4,#32]
 2023 008a 2A1C     	 mov r2,r5
 2024 008c FFF7FEFF 	 bl optiga_cmd_set_shielded_connection_option
 2025              	.LVL240:
 819:C:/Workspace/DAVE-4.4.2-64Bit/optiga-trust-m/optiga/crypt\optiga_crypt.c ****         p_params->derived_key_length = derived_key_length;
 2026              	 .loc 1 819 0
 2027 0090 6B46     	 mov r3,sp
 2028 0092 9B8A     	 ldrh r3,[r3,#20]
 2029 0094 E380     	 strh r3,[r4,#6]
 820:C:/Workspace/DAVE-4.4.2-64Bit/optiga-trust-m/optiga/crypt\optiga_crypt.c ****         if (FALSE != export_to_host)
 2030              	 .loc 1 820 0
 2031 0096 002E     	 cmp r6,#0
 2032 0098 01D0     	 beq .L157
 821:C:/Workspace/DAVE-4.4.2-64Bit/optiga-trust-m/optiga/crypt\optiga_crypt.c ****         {
 822:C:/Workspace/DAVE-4.4.2-64Bit/optiga-trust-m/optiga/crypt\optiga_crypt.c ****             p_params->derived_key = (uint8_t *)derived_key;
 2033              	 .loc 1 822 0
 2034 009a 109B     	 ldr r3,[sp,#64]
 2035 009c 2361     	 str r3,[r4,#16]
 2036              	.L157:
 823:C:/Workspace/DAVE-4.4.2-64Bit/optiga-trust-m/optiga/crypt\optiga_crypt.c ****         }
 824:C:/Workspace/DAVE-4.4.2-64Bit/optiga-trust-m/optiga/crypt\optiga_crypt.c **** 
 825:C:/Workspace/DAVE-4.4.2-64Bit/optiga-trust-m/optiga/crypt\optiga_crypt.c ****         return_value = optiga_cmd_derive_key(me->my_cmd,
 2037              	 .loc 1 825 0
 2038 009e 206A     	 ldr r0,[r4,#32]
 2039 00a0 0121     	 mov r1,#1
 2040 00a2 221C     	 mov r2,r4
 2041 00a4 FFF7FEFF 	 bl optiga_cmd_derive_key
 2042              	.LVL241:
 2043 00a8 051E     	 sub r5,r0,#0
 2044              	.LVL242:
 826:C:/Workspace/DAVE-4.4.2-64Bit/optiga-trust-m/optiga/crypt\optiga_crypt.c ****                                              0x01,
 827:C:/Workspace/DAVE-4.4.2-64Bit/optiga-trust-m/optiga/crypt\optiga_crypt.c ****                                              (optiga_derive_key_params_t *)p_params);
 828:C:/Workspace/DAVE-4.4.2-64Bit/optiga-trust-m/optiga/crypt\optiga_crypt.c ****         if (OPTIGA_LIB_SUCCESS != return_value)
 2045              	 .loc 1 828 0
 2046 00aa 05D0     	 beq .L155
 829:C:/Workspace/DAVE-4.4.2-64Bit/optiga-trust-m/optiga/crypt\optiga_crypt.c ****         {
 830:C:/Workspace/DAVE-4.4.2-64Bit/optiga-trust-m/optiga/crypt\optiga_crypt.c ****             me->instance_state = OPTIGA_LIB_INSTANCE_FREE;
 2047              	 .loc 1 830 0
 2048 00ac 0023     	 mov r3,#0
 2049 00ae A385     	 strh r3,[r4,#44]
 2050 00b0 02E0     	 b .L155
 2051              	.LVL243:
 2052              	.L161:
 793:C:/Workspace/DAVE-4.4.2-64Bit/optiga-trust-m/optiga/crypt\optiga_crypt.c ****             break;
 2053              	 .loc 1 793 0
 2054 00b2 074D     	 ldr r5,.L169+12
 2055 00b4 00E0     	 b .L155
 2056              	.L162:
 800:C:/Workspace/DAVE-4.4.2-64Bit/optiga-trust-m/optiga/crypt\optiga_crypt.c ****             break;
 2057              	 .loc 1 800 0
 2058 00b6 074D     	 ldr r5,.L169+16
 2059              	.LVL244:
 2060              	.L155:
 831:C:/Workspace/DAVE-4.4.2-64Bit/optiga-trust-m/optiga/crypt\optiga_crypt.c ****         }
 832:C:/Workspace/DAVE-4.4.2-64Bit/optiga-trust-m/optiga/crypt\optiga_crypt.c ****     } while (FALSE);
 833:C:/Workspace/DAVE-4.4.2-64Bit/optiga-trust-m/optiga/crypt\optiga_crypt.c ****     optiga_crypt_reset_protection_level(me);
 2061              	 .loc 1 833 0
 2062 00b8 201C     	 mov r0,r4
 2063 00ba FFF7FEFF 	 bl optiga_crypt_reset_protection_level
 2064              	.LVL245:
 834:C:/Workspace/DAVE-4.4.2-64Bit/optiga-trust-m/optiga/crypt\optiga_crypt.c **** 
 835:C:/Workspace/DAVE-4.4.2-64Bit/optiga-trust-m/optiga/crypt\optiga_crypt.c ****     return (return_value);
 836:C:/Workspace/DAVE-4.4.2-64Bit/optiga-trust-m/optiga/crypt\optiga_crypt.c **** }
 2065              	 .loc 1 836 0
 2066 00be 281C     	 mov r0,r5
 2067 00c0 07B0     	 add sp,sp,#28
 2068              	 
 2069              	.LVL246:
 2070              	.LVL247:
 2071 00c2 F0BD     	 pop {r4,r5,r6,r7,pc}
 2072              	.L170:
 2073              	 .align 2
 2074              	.L169:
 2075 00c4 00000000 	 .word .LANCHOR8
 2076 00c8 00000000 	 .word .LC2
 2077 00cc 15000000 	 .word .LC4
 2078 00d0 03040000 	 .word 1027
 2079 00d4 05040000 	 .word 1029
 2080              	 .cfi_endproc
 2081              	.LFE18:
 2083              	 .section .text.optiga_crypt_rsa_generate_keypair,"ax",%progbits
 2084              	 .align 1
 2085              	 .global optiga_crypt_rsa_generate_keypair
 2086              	 .code 16
 2087              	 .thumb_func
 2089              	optiga_crypt_rsa_generate_keypair:
 2090              	.LFB19:
 837:C:/Workspace/DAVE-4.4.2-64Bit/optiga-trust-m/optiga/crypt\optiga_crypt.c **** #endif //OPTIGA_CRYPT_TLS_PRF_SHA256_ENABLED
 838:C:/Workspace/DAVE-4.4.2-64Bit/optiga-trust-m/optiga/crypt\optiga_crypt.c **** 
 839:C:/Workspace/DAVE-4.4.2-64Bit/optiga-trust-m/optiga/crypt\optiga_crypt.c **** 
 840:C:/Workspace/DAVE-4.4.2-64Bit/optiga-trust-m/optiga/crypt\optiga_crypt.c **** #ifdef OPTIGA_CRYPT_RSA_GENERATE_KEYPAIR_ENABLED
 841:C:/Workspace/DAVE-4.4.2-64Bit/optiga-trust-m/optiga/crypt\optiga_crypt.c **** optiga_lib_status_t optiga_crypt_rsa_generate_keypair(optiga_crypt_t * me,
 842:C:/Workspace/DAVE-4.4.2-64Bit/optiga-trust-m/optiga/crypt\optiga_crypt.c ****                                                       optiga_rsa_key_type_t key_type,
 843:C:/Workspace/DAVE-4.4.2-64Bit/optiga-trust-m/optiga/crypt\optiga_crypt.c ****                                                       uint8_t key_usage,
 844:C:/Workspace/DAVE-4.4.2-64Bit/optiga-trust-m/optiga/crypt\optiga_crypt.c ****                                                       bool_t export_private_key,
 845:C:/Workspace/DAVE-4.4.2-64Bit/optiga-trust-m/optiga/crypt\optiga_crypt.c ****                                                       void * private_key,
 846:C:/Workspace/DAVE-4.4.2-64Bit/optiga-trust-m/optiga/crypt\optiga_crypt.c ****                                                       uint8_t * public_key,
 847:C:/Workspace/DAVE-4.4.2-64Bit/optiga-trust-m/optiga/crypt\optiga_crypt.c ****                                                       uint16_t * public_key_length)
 848:C:/Workspace/DAVE-4.4.2-64Bit/optiga-trust-m/optiga/crypt\optiga_crypt.c **** {
 2091              	 .loc 1 848 0
 2092              	 .cfi_startproc
 2093              	.LVL248:
 2094 0000 F0B5     	 push {r4,r5,r6,r7,lr}
 2095              	.LCFI24:
 2096              	 .cfi_def_cfa_offset 20
 2097              	 .cfi_offset 4,-20
 2098              	 .cfi_offset 5,-16
 2099              	 .cfi_offset 6,-12
 2100              	 .cfi_offset 7,-8
 2101              	 .cfi_offset 14,-4
 2102 0002 1C1C     	 mov r4,r3
 2103 0004 071C     	 mov r7,r0
 2104 0006 0E1C     	 mov r6,r1
 2105 0008 151C     	 mov r5,r2
 2106 000a 85B0     	 sub sp,sp,#20
 2107              	.LCFI25:
 2108              	 .cfi_def_cfa_offset 40
 849:C:/Workspace/DAVE-4.4.2-64Bit/optiga-trust-m/optiga/crypt\optiga_crypt.c ****     OPTIGA_CRYPT_LOG_MESSAGE(__FUNCTION__);
 2109              	 .loc 1 849 0
 2110 000c 0948     	 ldr r0,.L172
 2111              	.LVL249:
 2112 000e 0A49     	 ldr r1,.L172+4
 2113              	.LVL250:
 2114 0010 0A4A     	 ldr r2,.L172+8
 2115              	.LVL251:
 2116 0012 FFF7FEFF 	 bl optiga_lib_print_message
 2117              	.LVL252:
 850:C:/Workspace/DAVE-4.4.2-64Bit/optiga-trust-m/optiga/crypt\optiga_crypt.c ****     return (optiga_crypt_generate_keypair(me,
 2118              	 .loc 1 850 0
 2119 0016 0A9B     	 ldr r3,[sp,#40]
 2120 0018 381C     	 mov r0,r7
 2121 001a 0093     	 str r3,[sp]
 2122 001c 0B9B     	 ldr r3,[sp,#44]
 2123 001e 311C     	 mov r1,r6
 2124 0020 0193     	 str r3,[sp,#4]
 2125 0022 0C9B     	 ldr r3,[sp,#48]
 2126 0024 2A1C     	 mov r2,r5
 2127 0026 0293     	 str r3,[sp,#8]
 2128 0028 231C     	 mov r3,r4
 2129 002a FFF7FEFF 	 bl optiga_crypt_generate_keypair
 2130              	.LVL253:
 851:C:/Workspace/DAVE-4.4.2-64Bit/optiga-trust-m/optiga/crypt\optiga_crypt.c ****                                          (uint8_t)key_type,
 852:C:/Workspace/DAVE-4.4.2-64Bit/optiga-trust-m/optiga/crypt\optiga_crypt.c ****                                          key_usage,
 853:C:/Workspace/DAVE-4.4.2-64Bit/optiga-trust-m/optiga/crypt\optiga_crypt.c ****                                          export_private_key,
 854:C:/Workspace/DAVE-4.4.2-64Bit/optiga-trust-m/optiga/crypt\optiga_crypt.c ****                                          private_key,
 855:C:/Workspace/DAVE-4.4.2-64Bit/optiga-trust-m/optiga/crypt\optiga_crypt.c ****                                          public_key,
 856:C:/Workspace/DAVE-4.4.2-64Bit/optiga-trust-m/optiga/crypt\optiga_crypt.c ****                                          public_key_length));
 857:C:/Workspace/DAVE-4.4.2-64Bit/optiga-trust-m/optiga/crypt\optiga_crypt.c **** }
 2131              	 .loc 1 857 0
 2132 002e 05B0     	 add sp,sp,#20
 2133              	 
 2134              	.LVL254:
 2135 0030 F0BD     	 pop {r4,r5,r6,r7,pc}
 2136              	.L173:
 2137 0032 C046     	 .align 2
 2138              	.L172:
 2139 0034 00000000 	 .word .LANCHOR9
 2140 0038 00000000 	 .word .LC2
 2141 003c 15000000 	 .word .LC4
 2142              	 .cfi_endproc
 2143              	.LFE19:
 2145              	 .section .text.optiga_crypt_rsa_sign,"ax",%progbits
 2146              	 .align 1
 2147              	 .global optiga_crypt_rsa_sign
 2148              	 .code 16
 2149              	 .thumb_func
 2151              	optiga_crypt_rsa_sign:
 2152              	.LFB20:
 858:C:/Workspace/DAVE-4.4.2-64Bit/optiga-trust-m/optiga/crypt\optiga_crypt.c **** #endif //OPTIGA_CRYPT_RSA_GENERATE_KEYPAIR_ENABLED
 859:C:/Workspace/DAVE-4.4.2-64Bit/optiga-trust-m/optiga/crypt\optiga_crypt.c **** 
 860:C:/Workspace/DAVE-4.4.2-64Bit/optiga-trust-m/optiga/crypt\optiga_crypt.c **** 
 861:C:/Workspace/DAVE-4.4.2-64Bit/optiga-trust-m/optiga/crypt\optiga_crypt.c **** #ifdef OPTIGA_CRYPT_RSA_SIGN_ENABLED
 862:C:/Workspace/DAVE-4.4.2-64Bit/optiga-trust-m/optiga/crypt\optiga_crypt.c **** optiga_lib_status_t optiga_crypt_rsa_sign(optiga_crypt_t * me,
 863:C:/Workspace/DAVE-4.4.2-64Bit/optiga-trust-m/optiga/crypt\optiga_crypt.c ****                                           optiga_rsa_signature_scheme_t signature_scheme,
 864:C:/Workspace/DAVE-4.4.2-64Bit/optiga-trust-m/optiga/crypt\optiga_crypt.c ****                                           const uint8_t * digest,
 865:C:/Workspace/DAVE-4.4.2-64Bit/optiga-trust-m/optiga/crypt\optiga_crypt.c ****                                           uint8_t digest_length,
 866:C:/Workspace/DAVE-4.4.2-64Bit/optiga-trust-m/optiga/crypt\optiga_crypt.c ****                                           optiga_key_id_t private_key,
 867:C:/Workspace/DAVE-4.4.2-64Bit/optiga-trust-m/optiga/crypt\optiga_crypt.c ****                                           uint8_t * signature,
 868:C:/Workspace/DAVE-4.4.2-64Bit/optiga-trust-m/optiga/crypt\optiga_crypt.c ****                                           uint16_t * signature_length,
 869:C:/Workspace/DAVE-4.4.2-64Bit/optiga-trust-m/optiga/crypt\optiga_crypt.c ****                                           uint16_t salt_length)
 870:C:/Workspace/DAVE-4.4.2-64Bit/optiga-trust-m/optiga/crypt\optiga_crypt.c **** {
 2153              	 .loc 1 870 0
 2154              	 .cfi_startproc
 2155              	.LVL255:
 2156 0000 F0B5     	 push {r4,r5,r6,r7,lr}
 2157              	.LCFI26:
 2158              	 .cfi_def_cfa_offset 20
 2159              	 .cfi_offset 4,-20
 2160              	 .cfi_offset 5,-16
 2161              	 .cfi_offset 6,-12
 2162              	 .cfi_offset 7,-8
 2163              	 .cfi_offset 14,-4
 2164 0002 061C     	 mov r6,r0
 2165 0004 0D1C     	 mov r5,r1
 2166 0006 141C     	 mov r4,r2
 2167 0008 87B0     	 sub sp,sp,#28
 2168              	.LCFI27:
 2169              	 .cfi_def_cfa_offset 48
 2170              	 .loc 1 870 0
 2171 000a 0593     	 str r3,[sp,#20]
 871:C:/Workspace/DAVE-4.4.2-64Bit/optiga-trust-m/optiga/crypt\optiga_crypt.c ****     OPTIGA_CRYPT_LOG_MESSAGE(__FUNCTION__);
 2172              	 .loc 1 871 0
 2173 000c 0948     	 ldr r0,.L175
 2174              	.LVL256:
 870:C:/Workspace/DAVE-4.4.2-64Bit/optiga-trust-m/optiga/crypt\optiga_crypt.c ****     OPTIGA_CRYPT_LOG_MESSAGE(__FUNCTION__);
 2175              	 .loc 1 870 0
 2176 000e 0CAB     	 add r3,sp,#48
 2177              	.LVL257:
 2178              	 .loc 1 871 0
 2179 0010 0949     	 ldr r1,.L175+4
 2180              	.LVL258:
 2181 0012 0A4A     	 ldr r2,.L175+8
 2182              	.LVL259:
 870:C:/Workspace/DAVE-4.4.2-64Bit/optiga-trust-m/optiga/crypt\optiga_crypt.c ****     OPTIGA_CRYPT_LOG_MESSAGE(__FUNCTION__);
 2183              	 .loc 1 870 0
 2184 0014 1F88     	 ldrh r7,[r3]
 2185              	 .loc 1 871 0
 2186 0016 FFF7FEFF 	 bl optiga_lib_print_message
 2187              	.LVL260:
 872:C:/Workspace/DAVE-4.4.2-64Bit/optiga-trust-m/optiga/crypt\optiga_crypt.c ****     return (optiga_crypt_sign(me,
 2188              	 .loc 1 872 0
 2189 001a 0D9B     	 ldr r3,[sp,#52]
 2190 001c 0097     	 str r7,[sp]
 2191 001e 0193     	 str r3,[sp,#4]
 2192 0020 0E9B     	 ldr r3,[sp,#56]
 2193 0022 301C     	 mov r0,r6
 2194 0024 0293     	 str r3,[sp,#8]
 2195 0026 291C     	 mov r1,r5
 2196 0028 221C     	 mov r2,r4
 2197 002a 059B     	 ldr r3,[sp,#20]
 2198 002c FFF7FEFF 	 bl optiga_crypt_sign.isra.0
 2199              	.LVL261:
 873:C:/Workspace/DAVE-4.4.2-64Bit/optiga-trust-m/optiga/crypt\optiga_crypt.c ****                              (uint8_t)signature_scheme,
 874:C:/Workspace/DAVE-4.4.2-64Bit/optiga-trust-m/optiga/crypt\optiga_crypt.c ****                              digest,
 875:C:/Workspace/DAVE-4.4.2-64Bit/optiga-trust-m/optiga/crypt\optiga_crypt.c ****                              digest_length,
 876:C:/Workspace/DAVE-4.4.2-64Bit/optiga-trust-m/optiga/crypt\optiga_crypt.c ****                              private_key,
 877:C:/Workspace/DAVE-4.4.2-64Bit/optiga-trust-m/optiga/crypt\optiga_crypt.c ****                              signature,
 878:C:/Workspace/DAVE-4.4.2-64Bit/optiga-trust-m/optiga/crypt\optiga_crypt.c ****                              signature_length,
 879:C:/Workspace/DAVE-4.4.2-64Bit/optiga-trust-m/optiga/crypt\optiga_crypt.c ****                              salt_length));
 880:C:/Workspace/DAVE-4.4.2-64Bit/optiga-trust-m/optiga/crypt\optiga_crypt.c **** }
 2200              	 .loc 1 880 0
 2201 0030 07B0     	 add sp,sp,#28
 2202              	 
 2203              	.LVL262:
 2204              	.LVL263:
 2205 0032 F0BD     	 pop {r4,r5,r6,r7,pc}
 2206              	.L176:
 2207              	 .align 2
 2208              	.L175:
 2209 0034 00000000 	 .word .LANCHOR10
 2210 0038 00000000 	 .word .LC2
 2211 003c 15000000 	 .word .LC4
 2212              	 .cfi_endproc
 2213              	.LFE20:
 2215              	 .section .text.optiga_crypt_rsa_verify,"ax",%progbits
 2216              	 .align 1
 2217              	 .global optiga_crypt_rsa_verify
 2218              	 .code 16
 2219              	 .thumb_func
 2221              	optiga_crypt_rsa_verify:
 2222              	.LFB21:
 881:C:/Workspace/DAVE-4.4.2-64Bit/optiga-trust-m/optiga/crypt\optiga_crypt.c **** 
 882:C:/Workspace/DAVE-4.4.2-64Bit/optiga-trust-m/optiga/crypt\optiga_crypt.c **** #endif //OPTIGA_CRYPT_RSA_SIGN_ENABLED
 883:C:/Workspace/DAVE-4.4.2-64Bit/optiga-trust-m/optiga/crypt\optiga_crypt.c **** #ifdef OPTIGA_CRYPT_RSA_VERIFY_ENABLED
 884:C:/Workspace/DAVE-4.4.2-64Bit/optiga-trust-m/optiga/crypt\optiga_crypt.c **** optiga_lib_status_t optiga_crypt_rsa_verify(optiga_crypt_t * me,
 885:C:/Workspace/DAVE-4.4.2-64Bit/optiga-trust-m/optiga/crypt\optiga_crypt.c ****                                             optiga_rsa_signature_scheme_t signature_scheme,
 886:C:/Workspace/DAVE-4.4.2-64Bit/optiga-trust-m/optiga/crypt\optiga_crypt.c ****                                             const uint8_t * digest,
 887:C:/Workspace/DAVE-4.4.2-64Bit/optiga-trust-m/optiga/crypt\optiga_crypt.c ****                                             uint8_t digest_length,
 888:C:/Workspace/DAVE-4.4.2-64Bit/optiga-trust-m/optiga/crypt\optiga_crypt.c ****                                             const uint8_t * signature,
 889:C:/Workspace/DAVE-4.4.2-64Bit/optiga-trust-m/optiga/crypt\optiga_crypt.c ****                                             uint16_t signature_length,
 890:C:/Workspace/DAVE-4.4.2-64Bit/optiga-trust-m/optiga/crypt\optiga_crypt.c ****                                             uint8_t public_key_source_type,
 891:C:/Workspace/DAVE-4.4.2-64Bit/optiga-trust-m/optiga/crypt\optiga_crypt.c ****                                             const void * public_key,
 892:C:/Workspace/DAVE-4.4.2-64Bit/optiga-trust-m/optiga/crypt\optiga_crypt.c ****                                             uint16_t salt_length)
 893:C:/Workspace/DAVE-4.4.2-64Bit/optiga-trust-m/optiga/crypt\optiga_crypt.c **** {
 2223              	 .loc 1 893 0
 2224              	 .cfi_startproc
 2225              	.LVL264:
 2226 0000 F0B5     	 push {r4,r5,r6,r7,lr}
 2227              	.LCFI28:
 2228              	 .cfi_def_cfa_offset 20
 2229              	 .cfi_offset 4,-20
 2230              	 .cfi_offset 5,-16
 2231              	 .cfi_offset 6,-12
 2232              	 .cfi_offset 7,-8
 2233              	 .cfi_offset 14,-4
 2234 0002 061C     	 mov r6,r0
 2235 0004 0D1C     	 mov r5,r1
 2236 0006 141C     	 mov r4,r2
 2237 0008 87B0     	 sub sp,sp,#28
 2238              	.LCFI29:
 2239              	 .cfi_def_cfa_offset 48
 2240              	 .loc 1 893 0
 2241 000a 0493     	 str r3,[sp,#16]
 2242 000c 0CAB     	 add r3,sp,#48
 2243              	.LVL265:
 2244 000e 04CB     	 ldmia r3!,{r2}
 2245              	.LVL266:
 894:C:/Workspace/DAVE-4.4.2-64Bit/optiga-trust-m/optiga/crypt\optiga_crypt.c ****     OPTIGA_CRYPT_LOG_MESSAGE(__FUNCTION__);
 2246              	 .loc 1 894 0
 2247 0010 0B48     	 ldr r0,.L178
 2248              	.LVL267:
 893:C:/Workspace/DAVE-4.4.2-64Bit/optiga-trust-m/optiga/crypt\optiga_crypt.c ****     OPTIGA_CRYPT_LOG_MESSAGE(__FUNCTION__);
 2249              	 .loc 1 893 0
 2250 0012 1B88     	 ldrh r3,[r3]
 2251              	.LVL268:
 2252              	 .loc 1 894 0
 2253 0014 0B49     	 ldr r1,.L178+4
 2254              	.LVL269:
 893:C:/Workspace/DAVE-4.4.2-64Bit/optiga-trust-m/optiga/crypt\optiga_crypt.c ****     OPTIGA_CRYPT_LOG_MESSAGE(__FUNCTION__);
 2255              	 .loc 1 893 0
 2256 0016 0593     	 str r3,[sp,#20]
 2257              	 .loc 1 894 0
 2258 0018 0B4A     	 ldr r2,.L178+8
 893:C:/Workspace/DAVE-4.4.2-64Bit/optiga-trust-m/optiga/crypt\optiga_crypt.c ****     OPTIGA_CRYPT_LOG_MESSAGE(__FUNCTION__);
 2259              	 .loc 1 893 0
 2260 001a 0EAB     	 add r3,sp,#56
 2261              	.LVL270:
 2262 001c 1F78     	 ldrb r7,[r3]
 2263              	 .loc 1 894 0
 2264 001e FFF7FEFF 	 bl optiga_lib_print_message
 2265              	.LVL271:
 895:C:/Workspace/DAVE-4.4.2-64Bit/optiga-trust-m/optiga/crypt\optiga_crypt.c ****     return (optiga_crypt_verify(me,
 2266              	 .loc 1 895 0
 2267 0022 0C9B     	 ldr r3,[sp,#48]
 2268 0024 0297     	 str r7,[sp,#8]
 2269 0026 0093     	 str r3,[sp]
 2270 0028 059B     	 ldr r3,[sp,#20]
 2271 002a 301C     	 mov r0,r6
 2272 002c 0193     	 str r3,[sp,#4]
 2273 002e 0F9B     	 ldr r3,[sp,#60]
 2274 0030 291C     	 mov r1,r5
 2275 0032 0393     	 str r3,[sp,#12]
 2276 0034 221C     	 mov r2,r4
 2277 0036 049B     	 ldr r3,[sp,#16]
 2278 0038 FFF7FEFF 	 bl optiga_crypt_verify.isra.1
 2279              	.LVL272:
 896:C:/Workspace/DAVE-4.4.2-64Bit/optiga-trust-m/optiga/crypt\optiga_crypt.c ****                                 (uint8_t)signature_scheme,
 897:C:/Workspace/DAVE-4.4.2-64Bit/optiga-trust-m/optiga/crypt\optiga_crypt.c ****                                 digest,
 898:C:/Workspace/DAVE-4.4.2-64Bit/optiga-trust-m/optiga/crypt\optiga_crypt.c ****                                 digest_length,
 899:C:/Workspace/DAVE-4.4.2-64Bit/optiga-trust-m/optiga/crypt\optiga_crypt.c ****                                 signature,
 900:C:/Workspace/DAVE-4.4.2-64Bit/optiga-trust-m/optiga/crypt\optiga_crypt.c ****                                 signature_length,
 901:C:/Workspace/DAVE-4.4.2-64Bit/optiga-trust-m/optiga/crypt\optiga_crypt.c ****                                 public_key_source_type,
 902:C:/Workspace/DAVE-4.4.2-64Bit/optiga-trust-m/optiga/crypt\optiga_crypt.c ****                                 public_key,
 903:C:/Workspace/DAVE-4.4.2-64Bit/optiga-trust-m/optiga/crypt\optiga_crypt.c ****                                 salt_length));
 904:C:/Workspace/DAVE-4.4.2-64Bit/optiga-trust-m/optiga/crypt\optiga_crypt.c **** }
 2280              	 .loc 1 904 0
 2281 003c 07B0     	 add sp,sp,#28
 2282              	 
 2283              	.LVL273:
 2284              	.LVL274:
 2285 003e F0BD     	 pop {r4,r5,r6,r7,pc}
 2286              	.L179:
 2287              	 .align 2
 2288              	.L178:
 2289 0040 00000000 	 .word .LANCHOR11
 2290 0044 00000000 	 .word .LC2
 2291 0048 15000000 	 .word .LC4
 2292              	 .cfi_endproc
 2293              	.LFE21:
 2295              	 .section .text.optiga_crypt_rsa_encrypt_message,"ax",%progbits
 2296              	 .align 1
 2297              	 .global optiga_crypt_rsa_encrypt_message
 2298              	 .code 16
 2299              	 .thumb_func
 2301              	optiga_crypt_rsa_encrypt_message:
 2302              	.LFB22:
 905:C:/Workspace/DAVE-4.4.2-64Bit/optiga-trust-m/optiga/crypt\optiga_crypt.c **** #endif //OPTIGA_CRYPT_RSA_VERIFY_ENABLED
 906:C:/Workspace/DAVE-4.4.2-64Bit/optiga-trust-m/optiga/crypt\optiga_crypt.c **** 
 907:C:/Workspace/DAVE-4.4.2-64Bit/optiga-trust-m/optiga/crypt\optiga_crypt.c **** #ifdef OPTIGA_CRYPT_RSA_ENCRYPT_ENABLED
 908:C:/Workspace/DAVE-4.4.2-64Bit/optiga-trust-m/optiga/crypt\optiga_crypt.c **** optiga_lib_status_t optiga_crypt_rsa_encrypt_message(optiga_crypt_t * me,
 909:C:/Workspace/DAVE-4.4.2-64Bit/optiga-trust-m/optiga/crypt\optiga_crypt.c ****                                                      optiga_rsa_encryption_scheme_t encryption_sche
 910:C:/Workspace/DAVE-4.4.2-64Bit/optiga-trust-m/optiga/crypt\optiga_crypt.c ****                                                      const uint8_t * message,
 911:C:/Workspace/DAVE-4.4.2-64Bit/optiga-trust-m/optiga/crypt\optiga_crypt.c ****                                                      uint16_t message_length,
 912:C:/Workspace/DAVE-4.4.2-64Bit/optiga-trust-m/optiga/crypt\optiga_crypt.c ****                                                      const uint8_t * label,
 913:C:/Workspace/DAVE-4.4.2-64Bit/optiga-trust-m/optiga/crypt\optiga_crypt.c ****                                                      uint16_t label_length,
 914:C:/Workspace/DAVE-4.4.2-64Bit/optiga-trust-m/optiga/crypt\optiga_crypt.c ****                                                      uint8_t public_key_source_type,
 915:C:/Workspace/DAVE-4.4.2-64Bit/optiga-trust-m/optiga/crypt\optiga_crypt.c ****                                                      const void * public_key,
 916:C:/Workspace/DAVE-4.4.2-64Bit/optiga-trust-m/optiga/crypt\optiga_crypt.c ****                                                      uint8_t * encrypted_message,
 917:C:/Workspace/DAVE-4.4.2-64Bit/optiga-trust-m/optiga/crypt\optiga_crypt.c ****                                                      uint16_t * encrypted_message_length)
 918:C:/Workspace/DAVE-4.4.2-64Bit/optiga-trust-m/optiga/crypt\optiga_crypt.c **** {
 2303              	 .loc 1 918 0
 2304              	 .cfi_startproc
 2305              	.LVL275:
 2306 0000 F0B5     	 push {r4,r5,r6,r7,lr}
 2307              	.LCFI30:
 2308              	 .cfi_def_cfa_offset 20
 2309              	 .cfi_offset 4,-20
 2310              	 .cfi_offset 5,-16
 2311              	 .cfi_offset 6,-12
 2312              	 .cfi_offset 7,-8
 2313              	 .cfi_offset 14,-4
 2314 0002 89B0     	 sub sp,sp,#36
 2315              	.LCFI31:
 2316              	 .cfi_def_cfa_offset 56
 2317              	.LVL276:
 2318              	 .loc 1 918 0
 2319 0004 041C     	 mov r4,r0
 2320 0006 0E1C     	 mov r6,r1
 2321 0008 151C     	 mov r5,r2
 2322 000a 0793     	 str r3,[sp,#28]
 919:C:/Workspace/DAVE-4.4.2-64Bit/optiga-trust-m/optiga/crypt\optiga_crypt.c **** 
 920:C:/Workspace/DAVE-4.4.2-64Bit/optiga-trust-m/optiga/crypt\optiga_crypt.c ****     optiga_lib_status_t return_value = OPTIGA_CRYPT_ERROR_INVALID_INPUT;
 921:C:/Workspace/DAVE-4.4.2-64Bit/optiga-trust-m/optiga/crypt\optiga_crypt.c ****     OPTIGA_CRYPT_LOG_MESSAGE(__FUNCTION__);
 2323              	 .loc 1 921 0
 2324 000c 1448     	 ldr r0,.L188
 2325              	.LVL277:
 918:C:/Workspace/DAVE-4.4.2-64Bit/optiga-trust-m/optiga/crypt\optiga_crypt.c **** 
 2326              	 .loc 1 918 0
 2327 000e 10AB     	 add r3,sp,#64
 2328              	.LVL278:
 2329              	 .loc 1 921 0
 2330 0010 1449     	 ldr r1,.L188+4
 2331              	.LVL279:
 2332 0012 154A     	 ldr r2,.L188+8
 2333              	.LVL280:
 918:C:/Workspace/DAVE-4.4.2-64Bit/optiga-trust-m/optiga/crypt\optiga_crypt.c **** 
 2334              	 .loc 1 918 0
 2335 0014 1F78     	 ldrb r7,[r3]
 2336              	 .loc 1 921 0
 2337 0016 FFF7FEFF 	 bl optiga_lib_print_message
 2338              	.LVL281:
 922:C:/Workspace/DAVE-4.4.2-64Bit/optiga-trust-m/optiga/crypt\optiga_crypt.c ****     do
 923:C:/Workspace/DAVE-4.4.2-64Bit/optiga-trust-m/optiga/crypt\optiga_crypt.c ****     {
 924:C:/Workspace/DAVE-4.4.2-64Bit/optiga-trust-m/optiga/crypt\optiga_crypt.c **** #ifdef OPTIGA_LIB_DEBUG_NULL_CHECK
 925:C:/Workspace/DAVE-4.4.2-64Bit/optiga-trust-m/optiga/crypt\optiga_crypt.c ****         if ((NULL == me) || (NULL == me->my_cmd) || (NULL == message)||
 2339              	 .loc 1 925 0
 2340 001a 002C     	 cmp r4,#0
 2341 001c 1DD0     	 beq .L187
 2342              	 .loc 1 925 0 is_stmt 0 discriminator 1
 2343 001e 236A     	 ldr r3,[r4,#32]
 2344 0020 002B     	 cmp r3,#0
 2345 0022 1AD0     	 beq .L187
 2346              	 .loc 1 925 0 discriminator 2
 2347 0024 002D     	 cmp r5,#0
 2348 0026 18D0     	 beq .L187
 2349              	 .loc 1 925 0 discriminator 3
 2350 0028 119B     	 ldr r3,[sp,#68]
 2351 002a 002B     	 cmp r3,#0
 2352 002c 15D0     	 beq .L187
 926:C:/Workspace/DAVE-4.4.2-64Bit/optiga-trust-m/optiga/crypt\optiga_crypt.c ****             (NULL == public_key) || (NULL == encrypted_message) || (NULL == encrypted_message_lengt
 2353              	 .loc 1 926 0 is_stmt 1
 2354 002e 129B     	 ldr r3,[sp,#72]
 2355 0030 002B     	 cmp r3,#0
 2356 0032 12D0     	 beq .L187
 2357              	 .loc 1 926 0 is_stmt 0 discriminator 1
 2358 0034 139B     	 ldr r3,[sp,#76]
 2359 0036 002B     	 cmp r3,#0
 2360 0038 0FD0     	 beq .L187
 927:C:/Workspace/DAVE-4.4.2-64Bit/optiga-trust-m/optiga/crypt\optiga_crypt.c ****         {
 928:C:/Workspace/DAVE-4.4.2-64Bit/optiga-trust-m/optiga/crypt\optiga_crypt.c ****             break;
 929:C:/Workspace/DAVE-4.4.2-64Bit/optiga-trust-m/optiga/crypt\optiga_crypt.c ****         }
 930:C:/Workspace/DAVE-4.4.2-64Bit/optiga-trust-m/optiga/crypt\optiga_crypt.c **** #endif
 931:C:/Workspace/DAVE-4.4.2-64Bit/optiga-trust-m/optiga/crypt\optiga_crypt.c ****         return_value =  optiga_crypt_rsa_enc_dec(me,
 2361              	 .loc 1 931 0 is_stmt 1
 2362 003a 119B     	 ldr r3,[sp,#68]
 2363 003c 0097     	 str r7,[sp]
 2364 003e 0193     	 str r3,[sp,#4]
 2365 0040 129B     	 ldr r3,[sp,#72]
 2366 0042 201C     	 mov r0,r4
 2367 0044 0293     	 str r3,[sp,#8]
 2368 0046 139B     	 ldr r3,[sp,#76]
 2369 0048 311C     	 mov r1,r6
 2370 004a 0393     	 str r3,[sp,#12]
 2371 004c 0123     	 mov r3,#1
 2372 004e 2A1C     	 mov r2,r5
 2373 0050 0493     	 str r3,[sp,#16]
 2374 0052 079B     	 ldr r3,[sp,#28]
 2375 0054 FFF7FEFF 	 bl optiga_crypt_rsa_enc_dec.isra.2
 2376              	.LVL282:
 2377 0058 00E0     	 b .L181
 2378              	.LVL283:
 2379              	.L187:
 920:C:/Workspace/DAVE-4.4.2-64Bit/optiga-trust-m/optiga/crypt\optiga_crypt.c ****     OPTIGA_CRYPT_LOG_MESSAGE(__FUNCTION__);
 2380              	 .loc 1 920 0
 2381 005a 0448     	 ldr r0,.L188+12
 2382              	.LVL284:
 2383              	.L181:
 932:C:/Workspace/DAVE-4.4.2-64Bit/optiga-trust-m/optiga/crypt\optiga_crypt.c ****                                                  encryption_scheme,
 933:C:/Workspace/DAVE-4.4.2-64Bit/optiga-trust-m/optiga/crypt\optiga_crypt.c ****                                                  message,
 934:C:/Workspace/DAVE-4.4.2-64Bit/optiga-trust-m/optiga/crypt\optiga_crypt.c ****                                                  message_length,
 935:C:/Workspace/DAVE-4.4.2-64Bit/optiga-trust-m/optiga/crypt\optiga_crypt.c ****                                                  label,
 936:C:/Workspace/DAVE-4.4.2-64Bit/optiga-trust-m/optiga/crypt\optiga_crypt.c ****                                                  label_length,
 937:C:/Workspace/DAVE-4.4.2-64Bit/optiga-trust-m/optiga/crypt\optiga_crypt.c ****                                                  public_key_source_type,
 938:C:/Workspace/DAVE-4.4.2-64Bit/optiga-trust-m/optiga/crypt\optiga_crypt.c ****                                                  public_key,
 939:C:/Workspace/DAVE-4.4.2-64Bit/optiga-trust-m/optiga/crypt\optiga_crypt.c ****                                                  encrypted_message,
 940:C:/Workspace/DAVE-4.4.2-64Bit/optiga-trust-m/optiga/crypt\optiga_crypt.c ****                                                  encrypted_message_length,
 941:C:/Workspace/DAVE-4.4.2-64Bit/optiga-trust-m/optiga/crypt\optiga_crypt.c ****                                                  TRUE);
 942:C:/Workspace/DAVE-4.4.2-64Bit/optiga-trust-m/optiga/crypt\optiga_crypt.c ****     } while (FALSE);
 943:C:/Workspace/DAVE-4.4.2-64Bit/optiga-trust-m/optiga/crypt\optiga_crypt.c ****     return (return_value);
 944:C:/Workspace/DAVE-4.4.2-64Bit/optiga-trust-m/optiga/crypt\optiga_crypt.c **** }
 2384              	 .loc 1 944 0
 2385 005c 09B0     	 add sp,sp,#36
 2386              	 
 2387              	.LVL285:
 2388              	.LVL286:
 2389 005e F0BD     	 pop {r4,r5,r6,r7,pc}
 2390              	.L189:
 2391              	 .align 2
 2392              	.L188:
 2393 0060 00000000 	 .word .LANCHOR12
 2394 0064 00000000 	 .word .LC2
 2395 0068 15000000 	 .word .LC4
 2396 006c 03040000 	 .word 1027
 2397              	 .cfi_endproc
 2398              	.LFE22:
 2400              	 .section .text.optiga_crypt_rsa_encrypt_session,"ax",%progbits
 2401              	 .align 1
 2402              	 .global optiga_crypt_rsa_encrypt_session
 2403              	 .code 16
 2404              	 .thumb_func
 2406              	optiga_crypt_rsa_encrypt_session:
 2407              	.LFB23:
 945:C:/Workspace/DAVE-4.4.2-64Bit/optiga-trust-m/optiga/crypt\optiga_crypt.c **** 
 946:C:/Workspace/DAVE-4.4.2-64Bit/optiga-trust-m/optiga/crypt\optiga_crypt.c **** optiga_lib_status_t optiga_crypt_rsa_encrypt_session(optiga_crypt_t * me,
 947:C:/Workspace/DAVE-4.4.2-64Bit/optiga-trust-m/optiga/crypt\optiga_crypt.c ****                                                      optiga_rsa_encryption_scheme_t encryption_sche
 948:C:/Workspace/DAVE-4.4.2-64Bit/optiga-trust-m/optiga/crypt\optiga_crypt.c ****                                                      const uint8_t * label,
 949:C:/Workspace/DAVE-4.4.2-64Bit/optiga-trust-m/optiga/crypt\optiga_crypt.c ****                                                      uint16_t label_length,
 950:C:/Workspace/DAVE-4.4.2-64Bit/optiga-trust-m/optiga/crypt\optiga_crypt.c ****                                                      uint8_t public_key_source_type,
 951:C:/Workspace/DAVE-4.4.2-64Bit/optiga-trust-m/optiga/crypt\optiga_crypt.c ****                                                      const void * public_key,
 952:C:/Workspace/DAVE-4.4.2-64Bit/optiga-trust-m/optiga/crypt\optiga_crypt.c ****                                                      uint8_t * encrypted_message,
 953:C:/Workspace/DAVE-4.4.2-64Bit/optiga-trust-m/optiga/crypt\optiga_crypt.c ****                                                      uint16_t * encrypted_message_length)
 954:C:/Workspace/DAVE-4.4.2-64Bit/optiga-trust-m/optiga/crypt\optiga_crypt.c **** {
 2408              	 .loc 1 954 0
 2409              	 .cfi_startproc
 2410              	.LVL287:
 2411 0000 F0B5     	 push {r4,r5,r6,r7,lr}
 2412              	.LCFI32:
 2413              	 .cfi_def_cfa_offset 20
 2414              	 .cfi_offset 4,-20
 2415              	 .cfi_offset 5,-16
 2416              	 .cfi_offset 6,-12
 2417              	 .cfi_offset 7,-8
 2418              	 .cfi_offset 14,-4
 2419 0002 87B0     	 sub sp,sp,#28
 2420              	.LCFI33:
 2421              	 .cfi_def_cfa_offset 48
 2422              	 .loc 1 954 0
 2423 0004 041C     	 mov r4,r0
 2424 0006 0D1C     	 mov r5,r1
 2425 0008 0CAB     	 add r3,sp,#48
 2426              	.LVL288:
 955:C:/Workspace/DAVE-4.4.2-64Bit/optiga-trust-m/optiga/crypt\optiga_crypt.c ****     optiga_lib_status_t return_value = OPTIGA_CRYPT_ERROR_INVALID_INPUT;
 956:C:/Workspace/DAVE-4.4.2-64Bit/optiga-trust-m/optiga/crypt\optiga_crypt.c ****     OPTIGA_CRYPT_LOG_MESSAGE(__FUNCTION__);
 2427              	 .loc 1 956 0
 2428 000a 1548     	 ldr r0,.L197
 2429              	.LVL289:
 2430 000c 1549     	 ldr r1,.L197+4
 2431              	.LVL290:
 2432 000e 164A     	 ldr r2,.L197+8
 2433              	.LVL291:
 954:C:/Workspace/DAVE-4.4.2-64Bit/optiga-trust-m/optiga/crypt\optiga_crypt.c ****     optiga_lib_status_t return_value = OPTIGA_CRYPT_ERROR_INVALID_INPUT;
 2434              	 .loc 1 954 0
 2435 0010 1E78     	 ldrb r6,[r3]
 2436 0012 0D9F     	 ldr r7,[sp,#52]
 2437              	 .loc 1 956 0
 2438 0014 FFF7FEFF 	 bl optiga_lib_print_message
 2439              	.LVL292:
 957:C:/Workspace/DAVE-4.4.2-64Bit/optiga-trust-m/optiga/crypt\optiga_crypt.c ****     do
 958:C:/Workspace/DAVE-4.4.2-64Bit/optiga-trust-m/optiga/crypt\optiga_crypt.c ****     {
 959:C:/Workspace/DAVE-4.4.2-64Bit/optiga-trust-m/optiga/crypt\optiga_crypt.c **** #ifdef OPTIGA_LIB_DEBUG_NULL_CHECK
 960:C:/Workspace/DAVE-4.4.2-64Bit/optiga-trust-m/optiga/crypt\optiga_crypt.c ****         if ((NULL == me) || (NULL == me->my_cmd) || (NULL == encrypted_message)|| (NULL == encrypte
 2440              	 .loc 1 960 0
 2441 0018 002C     	 cmp r4,#0
 2442 001a 1ED0     	 beq .L196
 2443              	 .loc 1 960 0 is_stmt 0 discriminator 1
 2444 001c 236A     	 ldr r3,[r4,#32]
 2445 001e 002B     	 cmp r3,#0
 2446 0020 1BD0     	 beq .L196
 2447              	 .loc 1 960 0 discriminator 2
 2448 0022 0E9B     	 ldr r3,[sp,#56]
 2449 0024 002B     	 cmp r3,#0
 2450 0026 18D0     	 beq .L196
 2451              	 .loc 1 960 0 discriminator 3
 2452 0028 0F9B     	 ldr r3,[sp,#60]
 2453 002a 002B     	 cmp r3,#0
 2454 002c 15D0     	 beq .L196
 2455              	 .loc 1 960 0 discriminator 4
 2456 002e 002F     	 cmp r7,#0
 2457 0030 13D0     	 beq .L196
 961:C:/Workspace/DAVE-4.4.2-64Bit/optiga-trust-m/optiga/crypt\optiga_crypt.c ****             (NULL == public_key))
 962:C:/Workspace/DAVE-4.4.2-64Bit/optiga-trust-m/optiga/crypt\optiga_crypt.c ****         {
 963:C:/Workspace/DAVE-4.4.2-64Bit/optiga-trust-m/optiga/crypt\optiga_crypt.c ****             break;
 964:C:/Workspace/DAVE-4.4.2-64Bit/optiga-trust-m/optiga/crypt\optiga_crypt.c ****         }
 965:C:/Workspace/DAVE-4.4.2-64Bit/optiga-trust-m/optiga/crypt\optiga_crypt.c **** #endif
 966:C:/Workspace/DAVE-4.4.2-64Bit/optiga-trust-m/optiga/crypt\optiga_crypt.c **** #ifdef OPTIGA_COMMS_SHIELDED_CONNECTION
 967:C:/Workspace/DAVE-4.4.2-64Bit/optiga-trust-m/optiga/crypt\optiga_crypt.c ****         me->protection_level |= OPTIGA_COMMS_COMMAND_PROTECTION;
 2458              	 .loc 1 967 0 is_stmt 1
 2459 0032 211C     	 mov r1,r4
 2460 0034 0122     	 mov r2,#1
 2461 0036 2E31     	 add r1,r1,#46
 2462 0038 0B78     	 ldrb r3,[r1]
 968:C:/Workspace/DAVE-4.4.2-64Bit/optiga-trust-m/optiga/crypt\optiga_crypt.c **** #endif //OPTIGA_COMMS_SHIELDED_CONNECTION
 969:C:/Workspace/DAVE-4.4.2-64Bit/optiga-trust-m/optiga/crypt\optiga_crypt.c ****         return_value =  optiga_crypt_rsa_enc_dec(me,
 2463              	 .loc 1 969 0
 2464 003a 201C     	 mov r0,r4
 967:C:/Workspace/DAVE-4.4.2-64Bit/optiga-trust-m/optiga/crypt\optiga_crypt.c **** #endif //OPTIGA_COMMS_SHIELDED_CONNECTION
 2465              	 .loc 1 967 0
 2466 003c 1343     	 orr r3,r2
 2467 003e 0B70     	 strb r3,[r1]
 2468              	 .loc 1 969 0
 2469 0040 0492     	 str r2,[sp,#16]
 2470 0042 0022     	 mov r2,#0
 2471 0044 0E9B     	 ldr r3,[sp,#56]
 2472 0046 0096     	 str r6,[sp]
 2473 0048 0293     	 str r3,[sp,#8]
 2474 004a 0F9B     	 ldr r3,[sp,#60]
 2475 004c 0197     	 str r7,[sp,#4]
 2476 004e 0393     	 str r3,[sp,#12]
 2477 0050 291C     	 mov r1,r5
 2478 0052 131C     	 mov r3,r2
 2479 0054 FFF7FEFF 	 bl optiga_crypt_rsa_enc_dec.isra.2
 2480              	.LVL293:
 2481 0058 00E0     	 b .L191
 2482              	.LVL294:
 2483              	.L196:
 955:C:/Workspace/DAVE-4.4.2-64Bit/optiga-trust-m/optiga/crypt\optiga_crypt.c ****     OPTIGA_CRYPT_LOG_MESSAGE(__FUNCTION__);
 2484              	 .loc 1 955 0
 2485 005a 0448     	 ldr r0,.L197+12
 2486              	.LVL295:
 2487              	.L191:
 970:C:/Workspace/DAVE-4.4.2-64Bit/optiga-trust-m/optiga/crypt\optiga_crypt.c ****                                                  encryption_scheme,
 971:C:/Workspace/DAVE-4.4.2-64Bit/optiga-trust-m/optiga/crypt\optiga_crypt.c ****                                                  NULL,
 972:C:/Workspace/DAVE-4.4.2-64Bit/optiga-trust-m/optiga/crypt\optiga_crypt.c ****                                                  0,
 973:C:/Workspace/DAVE-4.4.2-64Bit/optiga-trust-m/optiga/crypt\optiga_crypt.c ****                                                  label,
 974:C:/Workspace/DAVE-4.4.2-64Bit/optiga-trust-m/optiga/crypt\optiga_crypt.c ****                                                  label_length,
 975:C:/Workspace/DAVE-4.4.2-64Bit/optiga-trust-m/optiga/crypt\optiga_crypt.c ****                                                  public_key_source_type,
 976:C:/Workspace/DAVE-4.4.2-64Bit/optiga-trust-m/optiga/crypt\optiga_crypt.c ****                                                  public_key,
 977:C:/Workspace/DAVE-4.4.2-64Bit/optiga-trust-m/optiga/crypt\optiga_crypt.c ****                                                  encrypted_message,
 978:C:/Workspace/DAVE-4.4.2-64Bit/optiga-trust-m/optiga/crypt\optiga_crypt.c ****                                                  encrypted_message_length,
 979:C:/Workspace/DAVE-4.4.2-64Bit/optiga-trust-m/optiga/crypt\optiga_crypt.c ****                                                  TRUE);
 980:C:/Workspace/DAVE-4.4.2-64Bit/optiga-trust-m/optiga/crypt\optiga_crypt.c ****     } while (FALSE);
 981:C:/Workspace/DAVE-4.4.2-64Bit/optiga-trust-m/optiga/crypt\optiga_crypt.c ****     return (return_value);
 982:C:/Workspace/DAVE-4.4.2-64Bit/optiga-trust-m/optiga/crypt\optiga_crypt.c **** }
 2488              	 .loc 1 982 0
 2489 005c 07B0     	 add sp,sp,#28
 2490              	 
 2491              	.LVL296:
 2492 005e F0BD     	 pop {r4,r5,r6,r7,pc}
 2493              	.L198:
 2494              	 .align 2
 2495              	.L197:
 2496 0060 00000000 	 .word .LANCHOR13
 2497 0064 00000000 	 .word .LC2
 2498 0068 15000000 	 .word .LC4
 2499 006c 03040000 	 .word 1027
 2500              	 .cfi_endproc
 2501              	.LFE23:
 2503              	 .section .text.optiga_crypt_rsa_decrypt_and_export,"ax",%progbits
 2504              	 .align 1
 2505              	 .global optiga_crypt_rsa_decrypt_and_export
 2506              	 .code 16
 2507              	 .thumb_func
 2509              	optiga_crypt_rsa_decrypt_and_export:
 2510              	.LFB24:
 983:C:/Workspace/DAVE-4.4.2-64Bit/optiga-trust-m/optiga/crypt\optiga_crypt.c **** 
 984:C:/Workspace/DAVE-4.4.2-64Bit/optiga-trust-m/optiga/crypt\optiga_crypt.c **** #endif //OPTIGA_CRYPT_RSA_ENCRYPT_ENABLED
 985:C:/Workspace/DAVE-4.4.2-64Bit/optiga-trust-m/optiga/crypt\optiga_crypt.c **** #ifdef OPTIGA_CRYPT_RSA_DECRYPT_ENABLED
 986:C:/Workspace/DAVE-4.4.2-64Bit/optiga-trust-m/optiga/crypt\optiga_crypt.c **** optiga_lib_status_t optiga_crypt_rsa_decrypt_and_export(optiga_crypt_t * me,
 987:C:/Workspace/DAVE-4.4.2-64Bit/optiga-trust-m/optiga/crypt\optiga_crypt.c ****                                                         optiga_rsa_encryption_scheme_t encryption_s
 988:C:/Workspace/DAVE-4.4.2-64Bit/optiga-trust-m/optiga/crypt\optiga_crypt.c ****                                                         const uint8_t * encrypted_message,
 989:C:/Workspace/DAVE-4.4.2-64Bit/optiga-trust-m/optiga/crypt\optiga_crypt.c ****                                                         uint16_t encrypted_message_length,
 990:C:/Workspace/DAVE-4.4.2-64Bit/optiga-trust-m/optiga/crypt\optiga_crypt.c ****                                                         const uint8_t * label,
 991:C:/Workspace/DAVE-4.4.2-64Bit/optiga-trust-m/optiga/crypt\optiga_crypt.c ****                                                         uint16_t label_length,
 992:C:/Workspace/DAVE-4.4.2-64Bit/optiga-trust-m/optiga/crypt\optiga_crypt.c ****                                                         optiga_key_id_t private_key,
 993:C:/Workspace/DAVE-4.4.2-64Bit/optiga-trust-m/optiga/crypt\optiga_crypt.c ****                                                         uint8_t * message,
 994:C:/Workspace/DAVE-4.4.2-64Bit/optiga-trust-m/optiga/crypt\optiga_crypt.c ****                                                         uint16_t * message_length)
 995:C:/Workspace/DAVE-4.4.2-64Bit/optiga-trust-m/optiga/crypt\optiga_crypt.c **** {
 2511              	 .loc 1 995 0
 2512              	 .cfi_startproc
 2513              	.LVL297:
 2514 0000 F0B5     	 push {r4,r5,r6,r7,lr}
 2515              	.LCFI34:
 2516              	 .cfi_def_cfa_offset 20
 2517              	 .cfi_offset 4,-20
 2518              	 .cfi_offset 5,-16
 2519              	 .cfi_offset 6,-12
 2520              	 .cfi_offset 7,-8
 2521              	 .cfi_offset 14,-4
 2522 0002 8BB0     	 sub sp,sp,#44
 2523              	.LCFI35:
 2524              	 .cfi_def_cfa_offset 64
 2525              	.LVL298:
 2526              	 .loc 1 995 0
 2527 0004 041C     	 mov r4,r0
 2528 0006 0E1C     	 mov r6,r1
 2529 0008 151C     	 mov r5,r2
 2530 000a 0793     	 str r3,[sp,#28]
 996:C:/Workspace/DAVE-4.4.2-64Bit/optiga-trust-m/optiga/crypt\optiga_crypt.c ****     optiga_lib_status_t return_value = OPTIGA_CRYPT_ERROR_INVALID_INPUT;
 997:C:/Workspace/DAVE-4.4.2-64Bit/optiga-trust-m/optiga/crypt\optiga_crypt.c ****     optiga_key_id_t private_key_id;
 998:C:/Workspace/DAVE-4.4.2-64Bit/optiga-trust-m/optiga/crypt\optiga_crypt.c ****     OPTIGA_CRYPT_LOG_MESSAGE(__FUNCTION__);
 2531              	 .loc 1 998 0
 2532 000c 1748     	 ldr r0,.L206
 2533              	.LVL299:
 995:C:/Workspace/DAVE-4.4.2-64Bit/optiga-trust-m/optiga/crypt\optiga_crypt.c ****     optiga_lib_status_t return_value = OPTIGA_CRYPT_ERROR_INVALID_INPUT;
 2534              	 .loc 1 995 0
 2535 000e 12AB     	 add r3,sp,#72
 2536              	.LVL300:
 2537              	 .loc 1 998 0
 2538 0010 1749     	 ldr r1,.L206+4
 2539              	.LVL301:
 2540 0012 184A     	 ldr r2,.L206+8
 2541              	.LVL302:
 995:C:/Workspace/DAVE-4.4.2-64Bit/optiga-trust-m/optiga/crypt\optiga_crypt.c ****     optiga_lib_status_t return_value = OPTIGA_CRYPT_ERROR_INVALID_INPUT;
 2542              	 .loc 1 995 0
 2543 0014 1F88     	 ldrh r7,[r3]
 2544              	 .loc 1 998 0
 2545 0016 FFF7FEFF 	 bl optiga_lib_print_message
 2546              	.LVL303:
 999:C:/Workspace/DAVE-4.4.2-64Bit/optiga-trust-m/optiga/crypt\optiga_crypt.c ****     do
1000:C:/Workspace/DAVE-4.4.2-64Bit/optiga-trust-m/optiga/crypt\optiga_crypt.c ****     {
1001:C:/Workspace/DAVE-4.4.2-64Bit/optiga-trust-m/optiga/crypt\optiga_crypt.c **** #ifdef OPTIGA_LIB_DEBUG_NULL_CHECK
1002:C:/Workspace/DAVE-4.4.2-64Bit/optiga-trust-m/optiga/crypt\optiga_crypt.c ****         if ((NULL == me) || (NULL == me->my_cmd) || (NULL == message) || (NULL == message_length)||
 2547              	 .loc 1 1002 0
 2548 001a 002C     	 cmp r4,#0
 2549 001c 23D0     	 beq .L205
 2550              	 .loc 1 1002 0 is_stmt 0 discriminator 1
 2551 001e 236A     	 ldr r3,[r4,#32]
 2552 0020 002B     	 cmp r3,#0
 2553 0022 20D0     	 beq .L205
 2554              	 .loc 1 1002 0 discriminator 2
 2555 0024 139B     	 ldr r3,[sp,#76]
 2556 0026 002B     	 cmp r3,#0
 2557 0028 1DD0     	 beq .L205
 2558              	 .loc 1 1002 0 discriminator 3
 2559 002a 149B     	 ldr r3,[sp,#80]
 2560 002c 002B     	 cmp r3,#0
 2561 002e 1AD0     	 beq .L205
 2562              	 .loc 1 1002 0 discriminator 4
 2563 0030 002D     	 cmp r5,#0
 2564 0032 18D0     	 beq .L205
1003:C:/Workspace/DAVE-4.4.2-64Bit/optiga-trust-m/optiga/crypt\optiga_crypt.c ****             (NULL == encrypted_message))
1004:C:/Workspace/DAVE-4.4.2-64Bit/optiga-trust-m/optiga/crypt\optiga_crypt.c ****         {
1005:C:/Workspace/DAVE-4.4.2-64Bit/optiga-trust-m/optiga/crypt\optiga_crypt.c ****             break;
1006:C:/Workspace/DAVE-4.4.2-64Bit/optiga-trust-m/optiga/crypt\optiga_crypt.c ****         }
1007:C:/Workspace/DAVE-4.4.2-64Bit/optiga-trust-m/optiga/crypt\optiga_crypt.c **** #endif
1008:C:/Workspace/DAVE-4.4.2-64Bit/optiga-trust-m/optiga/crypt\optiga_crypt.c **** #ifdef OPTIGA_COMMS_SHIELDED_CONNECTION
1009:C:/Workspace/DAVE-4.4.2-64Bit/optiga-trust-m/optiga/crypt\optiga_crypt.c ****         me->protection_level |= OPTIGA_COMMS_RESPONSE_PROTECTION;
 2565              	 .loc 1 1009 0 is_stmt 1
 2566 0034 221C     	 mov r2,r4
 2567 0036 0221     	 mov r1,#2
 2568 0038 2E32     	 add r2,r2,#46
 2569 003a 1378     	 ldrb r3,[r2]
1010:C:/Workspace/DAVE-4.4.2-64Bit/optiga-trust-m/optiga/crypt\optiga_crypt.c **** #endif //OPTIGA_COMMS_SHIELDED_CONNECTION
1011:C:/Workspace/DAVE-4.4.2-64Bit/optiga-trust-m/optiga/crypt\optiga_crypt.c ****         private_key_id = private_key;
1012:C:/Workspace/DAVE-4.4.2-64Bit/optiga-trust-m/optiga/crypt\optiga_crypt.c ****         return_value = optiga_crypt_rsa_enc_dec(me,
 2570              	 .loc 1 1012 0
 2571 003c 201C     	 mov r0,r4
1009:C:/Workspace/DAVE-4.4.2-64Bit/optiga-trust-m/optiga/crypt\optiga_crypt.c **** #endif //OPTIGA_COMMS_SHIELDED_CONNECTION
 2572              	 .loc 1 1009 0
 2573 003e 0B43     	 orr r3,r1
 2574 0040 1370     	 strb r3,[r2]
1011:C:/Workspace/DAVE-4.4.2-64Bit/optiga-trust-m/optiga/crypt\optiga_crypt.c ****         return_value = optiga_crypt_rsa_enc_dec(me,
 2575              	 .loc 1 1011 0
 2576 0042 1E22     	 mov r2,#30
 2577 0044 02AB     	 add r3,sp,#8
 2578 0046 D218     	 add r2,r2,r3
 2579              	 .loc 1 1012 0
 2580 0048 0023     	 mov r3,#0
1011:C:/Workspace/DAVE-4.4.2-64Bit/optiga-trust-m/optiga/crypt\optiga_crypt.c ****         return_value = optiga_crypt_rsa_enc_dec(me,
 2581              	 .loc 1 1011 0
 2582 004a 1780     	 strh r7,[r2]
 2583              	 .loc 1 1012 0
 2584 004c 0192     	 str r2,[sp,#4]
 2585 004e 139A     	 ldr r2,[sp,#76]
 2586 0050 0093     	 str r3,[sp]
 2587 0052 0292     	 str r2,[sp,#8]
 2588 0054 149A     	 ldr r2,[sp,#80]
 2589 0056 0493     	 str r3,[sp,#16]
 2590 0058 0392     	 str r2,[sp,#12]
 2591 005a 311C     	 mov r1,r6
 2592 005c 2A1C     	 mov r2,r5
 2593 005e 079B     	 ldr r3,[sp,#28]
 2594 0060 FFF7FEFF 	 bl optiga_crypt_rsa_enc_dec.isra.2
 2595              	.LVL304:
 2596 0064 00E0     	 b .L200
 2597              	.LVL305:
 2598              	.L205:
 996:C:/Workspace/DAVE-4.4.2-64Bit/optiga-trust-m/optiga/crypt\optiga_crypt.c ****     optiga_key_id_t private_key_id;
 2599              	 .loc 1 996 0
 2600 0066 0448     	 ldr r0,.L206+12
 2601              	.LVL306:
 2602              	.L200:
1013:C:/Workspace/DAVE-4.4.2-64Bit/optiga-trust-m/optiga/crypt\optiga_crypt.c ****                                                 encryption_scheme,
1014:C:/Workspace/DAVE-4.4.2-64Bit/optiga-trust-m/optiga/crypt\optiga_crypt.c ****                                                 encrypted_message,
1015:C:/Workspace/DAVE-4.4.2-64Bit/optiga-trust-m/optiga/crypt\optiga_crypt.c ****                                                 encrypted_message_length,
1016:C:/Workspace/DAVE-4.4.2-64Bit/optiga-trust-m/optiga/crypt\optiga_crypt.c ****                                                 label,
1017:C:/Workspace/DAVE-4.4.2-64Bit/optiga-trust-m/optiga/crypt\optiga_crypt.c ****                                                 label_length,
1018:C:/Workspace/DAVE-4.4.2-64Bit/optiga-trust-m/optiga/crypt\optiga_crypt.c ****                                                 0,
1019:C:/Workspace/DAVE-4.4.2-64Bit/optiga-trust-m/optiga/crypt\optiga_crypt.c ****                                                 (void *)&private_key_id,
1020:C:/Workspace/DAVE-4.4.2-64Bit/optiga-trust-m/optiga/crypt\optiga_crypt.c ****                                                 message,
1021:C:/Workspace/DAVE-4.4.2-64Bit/optiga-trust-m/optiga/crypt\optiga_crypt.c ****                                                 message_length,
1022:C:/Workspace/DAVE-4.4.2-64Bit/optiga-trust-m/optiga/crypt\optiga_crypt.c ****                                                 FALSE);
1023:C:/Workspace/DAVE-4.4.2-64Bit/optiga-trust-m/optiga/crypt\optiga_crypt.c ****     } while (FALSE);
1024:C:/Workspace/DAVE-4.4.2-64Bit/optiga-trust-m/optiga/crypt\optiga_crypt.c **** 
1025:C:/Workspace/DAVE-4.4.2-64Bit/optiga-trust-m/optiga/crypt\optiga_crypt.c ****     return (return_value);
1026:C:/Workspace/DAVE-4.4.2-64Bit/optiga-trust-m/optiga/crypt\optiga_crypt.c **** }
 2603              	 .loc 1 1026 0
 2604 0068 0BB0     	 add sp,sp,#44
 2605              	 
 2606              	.LVL307:
 2607              	.LVL308:
 2608 006a F0BD     	 pop {r4,r5,r6,r7,pc}
 2609              	.L207:
 2610              	 .align 2
 2611              	.L206:
 2612 006c 00000000 	 .word .LANCHOR14
 2613 0070 00000000 	 .word .LC2
 2614 0074 15000000 	 .word .LC4
 2615 0078 03040000 	 .word 1027
 2616              	 .cfi_endproc
 2617              	.LFE24:
 2619              	 .section .text.optiga_crypt_rsa_decrypt_and_store,"ax",%progbits
 2620              	 .align 1
 2621              	 .global optiga_crypt_rsa_decrypt_and_store
 2622              	 .code 16
 2623              	 .thumb_func
 2625              	optiga_crypt_rsa_decrypt_and_store:
 2626              	.LFB25:
1027:C:/Workspace/DAVE-4.4.2-64Bit/optiga-trust-m/optiga/crypt\optiga_crypt.c **** 
1028:C:/Workspace/DAVE-4.4.2-64Bit/optiga-trust-m/optiga/crypt\optiga_crypt.c **** optiga_lib_status_t optiga_crypt_rsa_decrypt_and_store(optiga_crypt_t * me,
1029:C:/Workspace/DAVE-4.4.2-64Bit/optiga-trust-m/optiga/crypt\optiga_crypt.c ****                                                        optiga_rsa_encryption_scheme_t encryption_sc
1030:C:/Workspace/DAVE-4.4.2-64Bit/optiga-trust-m/optiga/crypt\optiga_crypt.c ****                                                        const uint8_t * encrypted_message,
1031:C:/Workspace/DAVE-4.4.2-64Bit/optiga-trust-m/optiga/crypt\optiga_crypt.c ****                                                        uint16_t encrypted_message_length,
1032:C:/Workspace/DAVE-4.4.2-64Bit/optiga-trust-m/optiga/crypt\optiga_crypt.c ****                                                        const uint8_t * label,
1033:C:/Workspace/DAVE-4.4.2-64Bit/optiga-trust-m/optiga/crypt\optiga_crypt.c ****                                                        uint16_t label_length,
1034:C:/Workspace/DAVE-4.4.2-64Bit/optiga-trust-m/optiga/crypt\optiga_crypt.c ****                                                        optiga_key_id_t private_key)
