   1              	 .cpu cortex-m0
   2              	 .fpu softvfp
   3              	 .eabi_attribute 20,1
   4              	 .eabi_attribute 21,1
   5              	 .eabi_attribute 23,3
   6              	 .eabi_attribute 24,1
   7              	 .eabi_attribute 25,1
   8              	 .eabi_attribute 26,1
   9              	 .eabi_attribute 30,4
  10              	 .eabi_attribute 34,0
  11              	 .eabi_attribute 18,4
  12              	 .code 16
  13              	 .file "optiga_crypt.c"
  14              	 .text
  15              	.Ltext0:
  16              	 .cfi_sections .debug_frame
  17              	 .section .text.optiga_crypt_generic_event_handler,"ax",%progbits
  18              	 .align 1
  19              	 .code 16
  20              	 .thumb_func
  22              	optiga_crypt_generic_event_handler:
  23              	.LFB0:
  24              	 .file 1 "//MAC/Home/Downloads/getstarted-optiga-trust-m/optiga-trust-m-1/optiga/crypt/optiga_crypt.c"
   1://MAC/Home/Downloads/getstarted-optiga-trust-m/optiga-trust-m-1/optiga/crypt/optiga_crypt.c **** /**
   2://MAC/Home/Downloads/getstarted-optiga-trust-m/optiga-trust-m-1/optiga/crypt/optiga_crypt.c **** * \copyright
   3://MAC/Home/Downloads/getstarted-optiga-trust-m/optiga-trust-m-1/optiga/crypt/optiga_crypt.c **** * MIT License
   4://MAC/Home/Downloads/getstarted-optiga-trust-m/optiga-trust-m-1/optiga/crypt/optiga_crypt.c **** *
   5://MAC/Home/Downloads/getstarted-optiga-trust-m/optiga-trust-m-1/optiga/crypt/optiga_crypt.c **** * Copyright (c) 2019 Infineon Technologies AG
   6://MAC/Home/Downloads/getstarted-optiga-trust-m/optiga-trust-m-1/optiga/crypt/optiga_crypt.c **** *
   7://MAC/Home/Downloads/getstarted-optiga-trust-m/optiga-trust-m-1/optiga/crypt/optiga_crypt.c **** * Permission is hereby granted, free of charge, to any person obtaining a copy
   8://MAC/Home/Downloads/getstarted-optiga-trust-m/optiga-trust-m-1/optiga/crypt/optiga_crypt.c **** * of this software and associated documentation files (the "Software"), to deal
   9://MAC/Home/Downloads/getstarted-optiga-trust-m/optiga-trust-m-1/optiga/crypt/optiga_crypt.c **** * in the Software without restriction, including without limitation the rights
  10://MAC/Home/Downloads/getstarted-optiga-trust-m/optiga-trust-m-1/optiga/crypt/optiga_crypt.c **** * to use, copy, modify, merge, publish, distribute, sublicense, and/or sell
  11://MAC/Home/Downloads/getstarted-optiga-trust-m/optiga-trust-m-1/optiga/crypt/optiga_crypt.c **** * copies of the Software, and to permit persons to whom the Software is
  12://MAC/Home/Downloads/getstarted-optiga-trust-m/optiga-trust-m-1/optiga/crypt/optiga_crypt.c **** * furnished to do so, subject to the following conditions:
  13://MAC/Home/Downloads/getstarted-optiga-trust-m/optiga-trust-m-1/optiga/crypt/optiga_crypt.c **** *
  14://MAC/Home/Downloads/getstarted-optiga-trust-m/optiga-trust-m-1/optiga/crypt/optiga_crypt.c **** * The above copyright notice and this permission notice shall be included in all
  15://MAC/Home/Downloads/getstarted-optiga-trust-m/optiga-trust-m-1/optiga/crypt/optiga_crypt.c **** * copies or substantial portions of the Software.
  16://MAC/Home/Downloads/getstarted-optiga-trust-m/optiga-trust-m-1/optiga/crypt/optiga_crypt.c **** *
  17://MAC/Home/Downloads/getstarted-optiga-trust-m/optiga-trust-m-1/optiga/crypt/optiga_crypt.c **** * THE SOFTWARE IS PROVIDED "AS IS", WITHOUT WARRANTY OF ANY KIND, EXPRESS OR
  18://MAC/Home/Downloads/getstarted-optiga-trust-m/optiga-trust-m-1/optiga/crypt/optiga_crypt.c **** * IMPLIED, INCLUDING BUT NOT LIMITED TO THE WARRANTIES OF MERCHANTABILITY,
  19://MAC/Home/Downloads/getstarted-optiga-trust-m/optiga-trust-m-1/optiga/crypt/optiga_crypt.c **** * FITNESS FOR A PARTICULAR PURPOSE AND NONINFRINGEMENT. IN NO EVENT SHALL THE
  20://MAC/Home/Downloads/getstarted-optiga-trust-m/optiga-trust-m-1/optiga/crypt/optiga_crypt.c **** * AUTHORS OR COPYRIGHT HOLDERS BE LIABLE FOR ANY CLAIM, DAMAGES OR OTHER
  21://MAC/Home/Downloads/getstarted-optiga-trust-m/optiga-trust-m-1/optiga/crypt/optiga_crypt.c **** * LIABILITY, WHETHER IN AN ACTION OF CONTRACT, TORT OR OTHERWISE, ARISING FROM,
  22://MAC/Home/Downloads/getstarted-optiga-trust-m/optiga-trust-m-1/optiga/crypt/optiga_crypt.c **** * OUT OF OR IN CONNECTION WITH THE SOFTWARE OR THE USE OR OTHER DEALINGS IN THE
  23://MAC/Home/Downloads/getstarted-optiga-trust-m/optiga-trust-m-1/optiga/crypt/optiga_crypt.c **** * SOFTWARE
  24://MAC/Home/Downloads/getstarted-optiga-trust-m/optiga-trust-m-1/optiga/crypt/optiga_crypt.c **** *
  25://MAC/Home/Downloads/getstarted-optiga-trust-m/optiga-trust-m-1/optiga/crypt/optiga_crypt.c **** * \endcopyright
  26://MAC/Home/Downloads/getstarted-optiga-trust-m/optiga-trust-m-1/optiga/crypt/optiga_crypt.c **** *
  27://MAC/Home/Downloads/getstarted-optiga-trust-m/optiga-trust-m-1/optiga/crypt/optiga_crypt.c **** * \author Infineon Technologies AG
  28://MAC/Home/Downloads/getstarted-optiga-trust-m/optiga-trust-m-1/optiga/crypt/optiga_crypt.c **** *
  29://MAC/Home/Downloads/getstarted-optiga-trust-m/optiga-trust-m-1/optiga/crypt/optiga_crypt.c **** * \file optiga_crypt.c
  30://MAC/Home/Downloads/getstarted-optiga-trust-m/optiga-trust-m-1/optiga/crypt/optiga_crypt.c **** *
  31://MAC/Home/Downloads/getstarted-optiga-trust-m/optiga-trust-m-1/optiga/crypt/optiga_crypt.c **** * \brief   This file implements the OPTIGA Crypt module.
  32://MAC/Home/Downloads/getstarted-optiga-trust-m/optiga-trust-m-1/optiga/crypt/optiga_crypt.c **** *
  33://MAC/Home/Downloads/getstarted-optiga-trust-m/optiga-trust-m-1/optiga/crypt/optiga_crypt.c **** * \ingroup  grOptigaCrypt
  34://MAC/Home/Downloads/getstarted-optiga-trust-m/optiga-trust-m-1/optiga/crypt/optiga_crypt.c **** *
  35://MAC/Home/Downloads/getstarted-optiga-trust-m/optiga-trust-m-1/optiga/crypt/optiga_crypt.c **** * @{
  36://MAC/Home/Downloads/getstarted-optiga-trust-m/optiga-trust-m-1/optiga/crypt/optiga_crypt.c **** */
  37://MAC/Home/Downloads/getstarted-optiga-trust-m/optiga-trust-m-1/optiga/crypt/optiga_crypt.c **** 
  38://MAC/Home/Downloads/getstarted-optiga-trust-m/optiga-trust-m-1/optiga/crypt/optiga_crypt.c **** 
  39://MAC/Home/Downloads/getstarted-optiga-trust-m/optiga-trust-m-1/optiga/crypt/optiga_crypt.c **** #include "optiga/optiga_crypt.h"
  40://MAC/Home/Downloads/getstarted-optiga-trust-m/optiga-trust-m-1/optiga/crypt/optiga_crypt.c **** #include "optiga/common/optiga_lib_logger.h"
  41://MAC/Home/Downloads/getstarted-optiga-trust-m/optiga-trust-m-1/optiga/crypt/optiga_crypt.c **** #include "optiga/common/optiga_lib_common_internal.h"
  42://MAC/Home/Downloads/getstarted-optiga-trust-m/optiga-trust-m-1/optiga/crypt/optiga_crypt.c **** #include "optiga/pal/pal_os_memory.h"
  43://MAC/Home/Downloads/getstarted-optiga-trust-m/optiga-trust-m-1/optiga/crypt/optiga_crypt.c **** 
  44://MAC/Home/Downloads/getstarted-optiga-trust-m/optiga-trust-m-1/optiga/crypt/optiga_crypt.c **** /// ECDSA FIPS 186-3 without hash
  45://MAC/Home/Downloads/getstarted-optiga-trust-m/optiga-trust-m-1/optiga/crypt/optiga_crypt.c **** #define OPTIGA_CRYPT_ECDSA_FIPS_186_3_WITHOUT_HASH                  (0x11)
  46://MAC/Home/Downloads/getstarted-optiga-trust-m/optiga-trust-m-1/optiga/crypt/optiga_crypt.c **** /// Elliptic Curve Diffie-Hellman key agreement algorithm
  47://MAC/Home/Downloads/getstarted-optiga-trust-m/optiga-trust-m-1/optiga/crypt/optiga_crypt.c **** #define OPTIGA_CRYPT_ECDH_KEY_AGREEMENT_ALGORITHM                   (0x01)
  48://MAC/Home/Downloads/getstarted-optiga-trust-m/optiga-trust-m-1/optiga/crypt/optiga_crypt.c **** /// Minimum length of random data
  49://MAC/Home/Downloads/getstarted-optiga-trust-m/optiga-trust-m-1/optiga/crypt/optiga_crypt.c **** #define OPTIGA_CRYPT_MINIMUM_RANDOM_DATA_LENGTH                     (0x08)
  50://MAC/Home/Downloads/getstarted-optiga-trust-m/optiga-trust-m-1/optiga/crypt/optiga_crypt.c **** /// Param type for optiga pre-master secret
  51://MAC/Home/Downloads/getstarted-optiga-trust-m/optiga-trust-m-1/optiga/crypt/optiga_crypt.c **** #define OPTIGA_CRYTP_RANDOM_PARAM_PRE_MASTER_SECRET                 (0x04)
  52://MAC/Home/Downloads/getstarted-optiga-trust-m/optiga-trust-m-1/optiga/crypt/optiga_crypt.c **** /// Minimum optional data length
  53://MAC/Home/Downloads/getstarted-optiga-trust-m/optiga-trust-m-1/optiga/crypt/optiga_crypt.c **** #define OPTIGA_CRYTP_MINIMUM_OPTIONAL_DATA_LENGTH                   (0x28)
  54://MAC/Home/Downloads/getstarted-optiga-trust-m/optiga-trust-m-1/optiga/crypt/optiga_crypt.c **** 
  55://MAC/Home/Downloads/getstarted-optiga-trust-m/optiga-trust-m-1/optiga/crypt/optiga_crypt.c **** _STATIC_H void optiga_crypt_generic_event_handler(void * p_ctx,
  56://MAC/Home/Downloads/getstarted-optiga-trust-m/optiga-trust-m-1/optiga/crypt/optiga_crypt.c ****                                                   optiga_lib_status_t event)
  57://MAC/Home/Downloads/getstarted-optiga-trust-m/optiga-trust-m-1/optiga/crypt/optiga_crypt.c **** {
  25              	 .loc 1 57 0
  26              	 .cfi_startproc
  27              	.LVL0:
  28 0000 10B5     	 push {r4,lr}
  29              	.LCFI0:
  30              	 .cfi_def_cfa_offset 8
  31              	 .cfi_offset 4,-8
  32              	 .cfi_offset 14,-4
  33              	 .loc 1 57 0
  34 0002 041C     	 mov r4,r0
  58://MAC/Home/Downloads/getstarted-optiga-trust-m/optiga-trust-m-1/optiga/crypt/optiga_crypt.c ****     optiga_crypt_t * me = (optiga_crypt_t *)p_ctx;
  59://MAC/Home/Downloads/getstarted-optiga-trust-m/optiga-trust-m-1/optiga/crypt/optiga_crypt.c **** 
  60://MAC/Home/Downloads/getstarted-optiga-trust-m/optiga-trust-m-1/optiga/crypt/optiga_crypt.c ****     me->handler(me->caller_context, event);
  35              	 .loc 1 60 0
  36 0004 406A     	 ldr r0,[r0,#36]
  37              	.LVL1:
  38 0006 A36A     	 ldr r3,[r4,#40]
  39 0008 9847     	 blx r3
  40              	.LVL2:
  61://MAC/Home/Downloads/getstarted-optiga-trust-m/optiga-trust-m-1/optiga/crypt/optiga_crypt.c ****     me->instance_state = OPTIGA_LIB_INSTANCE_FREE;
  41              	 .loc 1 61 0
  42 000a 0023     	 mov r3,#0
  62://MAC/Home/Downloads/getstarted-optiga-trust-m/optiga-trust-m-1/optiga/crypt/optiga_crypt.c **** }
  43              	 .loc 1 62 0
  44              	 
  61://MAC/Home/Downloads/getstarted-optiga-trust-m/optiga-trust-m-1/optiga/crypt/optiga_crypt.c ****     me->instance_state = OPTIGA_LIB_INSTANCE_FREE;
  45              	 .loc 1 61 0
  46 000c A385     	 strh r3,[r4,#44]
  47              	.LVL3:
  48              	 .loc 1 62 0
  49 000e 10BD     	 pop {r4,pc}
  50              	 .cfi_endproc
  51              	.LFE0:
  53              	 .section .text.optiga_crypt_reset_protection_level,"ax",%progbits
  54              	 .align 1
  55              	 .code 16
  56              	 .thumb_func
  58              	optiga_crypt_reset_protection_level:
  59              	.LFB1:
  63://MAC/Home/Downloads/getstarted-optiga-trust-m/optiga-trust-m-1/optiga/crypt/optiga_crypt.c **** 
  64://MAC/Home/Downloads/getstarted-optiga-trust-m/optiga-trust-m-1/optiga/crypt/optiga_crypt.c **** _STATIC_H void optiga_crypt_reset_protection_level(optiga_crypt_t * me)
  65://MAC/Home/Downloads/getstarted-optiga-trust-m/optiga-trust-m-1/optiga/crypt/optiga_crypt.c **** {
  60              	 .loc 1 65 0
  61              	 .cfi_startproc
  62              	.LVL4:
  66://MAC/Home/Downloads/getstarted-optiga-trust-m/optiga-trust-m-1/optiga/crypt/optiga_crypt.c **** #ifdef OPTIGA_LIB_DEBUG_NULL_CHECK
  67://MAC/Home/Downloads/getstarted-optiga-trust-m/optiga-trust-m-1/optiga/crypt/optiga_crypt.c ****     if (NULL != me)
  63              	 .loc 1 67 0
  64 0000 0028     	 cmp r0,#0
  65 0002 02D0     	 beq .L2
  66              	.LVL5:
  67              	.LBB4:
  68              	.LBB5:
  68://MAC/Home/Downloads/getstarted-optiga-trust-m/optiga-trust-m-1/optiga/crypt/optiga_crypt.c **** #endif
  69://MAC/Home/Downloads/getstarted-optiga-trust-m/optiga-trust-m-1/optiga/crypt/optiga_crypt.c ****     {
  70://MAC/Home/Downloads/getstarted-optiga-trust-m/optiga-trust-m-1/optiga/crypt/optiga_crypt.c ****         OPTIGA_CRYPT_SET_COMMS_PROTECTION_LEVEL(me, OPTIGA_COMMS_DEFAULT_PROTECTION_LEVEL);
  71://MAC/Home/Downloads/getstarted-optiga-trust-m/optiga-trust-m-1/optiga/crypt/optiga_crypt.c ****     }
  72://MAC/Home/Downloads/getstarted-optiga-trust-m/optiga-trust-m-1/optiga/crypt/optiga_crypt.c **** }
  73://MAC/Home/Downloads/getstarted-optiga-trust-m/optiga-trust-m-1/optiga/crypt/optiga_crypt.c **** 
  74://MAC/Home/Downloads/getstarted-optiga-trust-m/optiga-trust-m-1/optiga/crypt/optiga_crypt.c **** extern void optiga_cmd_set_shielded_connection_option(optiga_cmd_t * me,
  75://MAC/Home/Downloads/getstarted-optiga-trust-m/optiga-trust-m-1/optiga/crypt/optiga_crypt.c ****                                                       uint8_t value,
  76://MAC/Home/Downloads/getstarted-optiga-trust-m/optiga-trust-m-1/optiga/crypt/optiga_crypt.c ****                                                       uint8_t shielded_connection_option);
  77://MAC/Home/Downloads/getstarted-optiga-trust-m/optiga-trust-m-1/optiga/crypt/optiga_crypt.c **** 
  78://MAC/Home/Downloads/getstarted-optiga-trust-m/optiga-trust-m-1/optiga/crypt/optiga_crypt.c **** #if defined (OPTIGA_CRYPT_ECC_GENERATE_KEYPAIR_ENABLED) || defined (OPTIGA_CRYPT_RSA_GENERATE_KEYPA
  79://MAC/Home/Downloads/getstarted-optiga-trust-m/optiga-trust-m-1/optiga/crypt/optiga_crypt.c **** _STATIC_H optiga_lib_status_t optiga_crypt_generate_keypair(optiga_crypt_t * me,
  80://MAC/Home/Downloads/getstarted-optiga-trust-m/optiga-trust-m-1/optiga/crypt/optiga_crypt.c ****                                                             uint8_t cmd_param,
  81://MAC/Home/Downloads/getstarted-optiga-trust-m/optiga-trust-m-1/optiga/crypt/optiga_crypt.c ****                                                             uint8_t key_usage,
  82://MAC/Home/Downloads/getstarted-optiga-trust-m/optiga-trust-m-1/optiga/crypt/optiga_crypt.c ****                                                             bool_t export_private_key,
  83://MAC/Home/Downloads/getstarted-optiga-trust-m/optiga-trust-m-1/optiga/crypt/optiga_crypt.c ****                                                             void * p_private_key,
  84://MAC/Home/Downloads/getstarted-optiga-trust-m/optiga-trust-m-1/optiga/crypt/optiga_crypt.c ****                                                             uint8_t * p_public_key,
  85://MAC/Home/Downloads/getstarted-optiga-trust-m/optiga-trust-m-1/optiga/crypt/optiga_crypt.c ****                                                             uint16_t * p_public_key_length)
  86://MAC/Home/Downloads/getstarted-optiga-trust-m/optiga-trust-m-1/optiga/crypt/optiga_crypt.c **** {
  87://MAC/Home/Downloads/getstarted-optiga-trust-m/optiga-trust-m-1/optiga/crypt/optiga_crypt.c ****     optiga_lib_status_t return_value = OPTIGA_CRYPT_ERROR;
  88://MAC/Home/Downloads/getstarted-optiga-trust-m/optiga-trust-m-1/optiga/crypt/optiga_crypt.c ****     optiga_gen_keypair_params_t * p_params;
  89://MAC/Home/Downloads/getstarted-optiga-trust-m/optiga-trust-m-1/optiga/crypt/optiga_crypt.c **** 
  90://MAC/Home/Downloads/getstarted-optiga-trust-m/optiga-trust-m-1/optiga/crypt/optiga_crypt.c ****     do
  91://MAC/Home/Downloads/getstarted-optiga-trust-m/optiga-trust-m-1/optiga/crypt/optiga_crypt.c ****     {
  92://MAC/Home/Downloads/getstarted-optiga-trust-m/optiga-trust-m-1/optiga/crypt/optiga_crypt.c **** #ifdef OPTIGA_LIB_DEBUG_NULL_CHECK
  93://MAC/Home/Downloads/getstarted-optiga-trust-m/optiga-trust-m-1/optiga/crypt/optiga_crypt.c ****         if ((NULL == me) || (NULL == me->my_cmd) ||
  94://MAC/Home/Downloads/getstarted-optiga-trust-m/optiga-trust-m-1/optiga/crypt/optiga_crypt.c ****             (NULL == p_public_key) || (NULL == p_private_key) || (NULL == p_public_key_length))
  95://MAC/Home/Downloads/getstarted-optiga-trust-m/optiga-trust-m-1/optiga/crypt/optiga_crypt.c ****         {
  96://MAC/Home/Downloads/getstarted-optiga-trust-m/optiga-trust-m-1/optiga/crypt/optiga_crypt.c ****             return_value = OPTIGA_CRYPT_ERROR_INVALID_INPUT;
  97://MAC/Home/Downloads/getstarted-optiga-trust-m/optiga-trust-m-1/optiga/crypt/optiga_crypt.c ****             break;
  98://MAC/Home/Downloads/getstarted-optiga-trust-m/optiga-trust-m-1/optiga/crypt/optiga_crypt.c ****         }
  99://MAC/Home/Downloads/getstarted-optiga-trust-m/optiga-trust-m-1/optiga/crypt/optiga_crypt.c **** #endif
 100://MAC/Home/Downloads/getstarted-optiga-trust-m/optiga-trust-m-1/optiga/crypt/optiga_crypt.c ****         if (OPTIGA_LIB_INSTANCE_BUSY == me->instance_state)
 101://MAC/Home/Downloads/getstarted-optiga-trust-m/optiga-trust-m-1/optiga/crypt/optiga_crypt.c ****         {
 102://MAC/Home/Downloads/getstarted-optiga-trust-m/optiga-trust-m-1/optiga/crypt/optiga_crypt.c ****             return_value = OPTIGA_CRYPT_ERROR_INSTANCE_IN_USE;
 103://MAC/Home/Downloads/getstarted-optiga-trust-m/optiga-trust-m-1/optiga/crypt/optiga_crypt.c ****             break;
 104://MAC/Home/Downloads/getstarted-optiga-trust-m/optiga-trust-m-1/optiga/crypt/optiga_crypt.c ****         }
 105://MAC/Home/Downloads/getstarted-optiga-trust-m/optiga-trust-m-1/optiga/crypt/optiga_crypt.c **** 
 106://MAC/Home/Downloads/getstarted-optiga-trust-m/optiga-trust-m-1/optiga/crypt/optiga_crypt.c ****         me->instance_state = OPTIGA_LIB_INSTANCE_BUSY;
 107://MAC/Home/Downloads/getstarted-optiga-trust-m/optiga-trust-m-1/optiga/crypt/optiga_crypt.c ****         p_params = (optiga_gen_keypair_params_t *)&(me->params.optiga_gen_keypair_params);
 108://MAC/Home/Downloads/getstarted-optiga-trust-m/optiga-trust-m-1/optiga/crypt/optiga_crypt.c ****         pal_os_memset(&me->params,0x00,sizeof(optiga_crypt_params_t));
 109://MAC/Home/Downloads/getstarted-optiga-trust-m/optiga-trust-m-1/optiga/crypt/optiga_crypt.c **** 
 110://MAC/Home/Downloads/getstarted-optiga-trust-m/optiga-trust-m-1/optiga/crypt/optiga_crypt.c ****         p_params->key_usage = key_usage;
 111://MAC/Home/Downloads/getstarted-optiga-trust-m/optiga-trust-m-1/optiga/crypt/optiga_crypt.c ****         p_params->export_private_key = export_private_key;
 112://MAC/Home/Downloads/getstarted-optiga-trust-m/optiga-trust-m-1/optiga/crypt/optiga_crypt.c ****         p_params->public_key_length = p_public_key_length;
 113://MAC/Home/Downloads/getstarted-optiga-trust-m/optiga-trust-m-1/optiga/crypt/optiga_crypt.c ****         OPTIGA_PROTECTION_ENABLE(me->my_cmd, me);
 114://MAC/Home/Downloads/getstarted-optiga-trust-m/optiga-trust-m-1/optiga/crypt/optiga_crypt.c ****         OPTIGA_PROTECTION_SET_VERSION(me->my_cmd, me);
 115://MAC/Home/Downloads/getstarted-optiga-trust-m/optiga-trust-m-1/optiga/crypt/optiga_crypt.c **** 
 116://MAC/Home/Downloads/getstarted-optiga-trust-m/optiga-trust-m-1/optiga/crypt/optiga_crypt.c ****         if (export_private_key)
 117://MAC/Home/Downloads/getstarted-optiga-trust-m/optiga-trust-m-1/optiga/crypt/optiga_crypt.c ****         {
 118://MAC/Home/Downloads/getstarted-optiga-trust-m/optiga-trust-m-1/optiga/crypt/optiga_crypt.c ****             p_params->private_key = (uint8_t *)p_private_key;
 119://MAC/Home/Downloads/getstarted-optiga-trust-m/optiga-trust-m-1/optiga/crypt/optiga_crypt.c ****         }
 120://MAC/Home/Downloads/getstarted-optiga-trust-m/optiga-trust-m-1/optiga/crypt/optiga_crypt.c ****         else
 121://MAC/Home/Downloads/getstarted-optiga-trust-m/optiga-trust-m-1/optiga/crypt/optiga_crypt.c ****         {
 122://MAC/Home/Downloads/getstarted-optiga-trust-m/optiga-trust-m-1/optiga/crypt/optiga_crypt.c ****             p_params->private_key_oid = (optiga_key_id_t)(* ((uint16_t* )p_private_key));
 123://MAC/Home/Downloads/getstarted-optiga-trust-m/optiga-trust-m-1/optiga/crypt/optiga_crypt.c ****         }
 124://MAC/Home/Downloads/getstarted-optiga-trust-m/optiga-trust-m-1/optiga/crypt/optiga_crypt.c **** 
 125://MAC/Home/Downloads/getstarted-optiga-trust-m/optiga-trust-m-1/optiga/crypt/optiga_crypt.c ****         p_params->public_key = p_public_key;
 126://MAC/Home/Downloads/getstarted-optiga-trust-m/optiga-trust-m-1/optiga/crypt/optiga_crypt.c ****         p_params->public_key_length = p_public_key_length;
 127://MAC/Home/Downloads/getstarted-optiga-trust-m/optiga-trust-m-1/optiga/crypt/optiga_crypt.c **** 
 128://MAC/Home/Downloads/getstarted-optiga-trust-m/optiga-trust-m-1/optiga/crypt/optiga_crypt.c ****         return_value = optiga_cmd_gen_keypair(me->my_cmd,
 129://MAC/Home/Downloads/getstarted-optiga-trust-m/optiga-trust-m-1/optiga/crypt/optiga_crypt.c ****                                               (uint8_t )cmd_param,
 130://MAC/Home/Downloads/getstarted-optiga-trust-m/optiga-trust-m-1/optiga/crypt/optiga_crypt.c ****                                               (optiga_gen_keypair_params_t *)p_params);
 131://MAC/Home/Downloads/getstarted-optiga-trust-m/optiga-trust-m-1/optiga/crypt/optiga_crypt.c ****     } while (FALSE);
 132://MAC/Home/Downloads/getstarted-optiga-trust-m/optiga-trust-m-1/optiga/crypt/optiga_crypt.c ****     optiga_crypt_reset_protection_level(me);
 133://MAC/Home/Downloads/getstarted-optiga-trust-m/optiga-trust-m-1/optiga/crypt/optiga_crypt.c **** 
 134://MAC/Home/Downloads/getstarted-optiga-trust-m/optiga-trust-m-1/optiga/crypt/optiga_crypt.c ****     return (return_value);
 135://MAC/Home/Downloads/getstarted-optiga-trust-m/optiga-trust-m-1/optiga/crypt/optiga_crypt.c **** }
 136://MAC/Home/Downloads/getstarted-optiga-trust-m/optiga-trust-m-1/optiga/crypt/optiga_crypt.c **** #endif // (OPTIGA_CRYPT_ECC_GENERATE_KEYPAIR_ENABLED) || (OPTIGA_CRYPT_RSA_GENERATE_KEYPAIR_ENABLED
 137://MAC/Home/Downloads/getstarted-optiga-trust-m/optiga-trust-m-1/optiga/crypt/optiga_crypt.c **** 
 138://MAC/Home/Downloads/getstarted-optiga-trust-m/optiga-trust-m-1/optiga/crypt/optiga_crypt.c **** #if defined (OPTIGA_CRYPT_ECDSA_SIGN_ENABLED) || defined (OPTIGA_CRYPT_RSA_SIGN_ENABLED)
 139://MAC/Home/Downloads/getstarted-optiga-trust-m/optiga-trust-m-1/optiga/crypt/optiga_crypt.c **** //lint --e{715} suppress "The salt_length argument is kept for future use"
 140://MAC/Home/Downloads/getstarted-optiga-trust-m/optiga-trust-m-1/optiga/crypt/optiga_crypt.c **** _STATIC_H optiga_lib_status_t optiga_crypt_sign(optiga_crypt_t * me,
 141://MAC/Home/Downloads/getstarted-optiga-trust-m/optiga-trust-m-1/optiga/crypt/optiga_crypt.c ****                                                 uint8_t signature_scheme,
 142://MAC/Home/Downloads/getstarted-optiga-trust-m/optiga-trust-m-1/optiga/crypt/optiga_crypt.c ****                                                 const uint8_t * p_digest,
 143://MAC/Home/Downloads/getstarted-optiga-trust-m/optiga-trust-m-1/optiga/crypt/optiga_crypt.c ****                                                 uint8_t digest_length,
 144://MAC/Home/Downloads/getstarted-optiga-trust-m/optiga-trust-m-1/optiga/crypt/optiga_crypt.c ****                                                 optiga_key_id_t private_key,
 145://MAC/Home/Downloads/getstarted-optiga-trust-m/optiga-trust-m-1/optiga/crypt/optiga_crypt.c ****                                                 uint8_t * p_signature,
 146://MAC/Home/Downloads/getstarted-optiga-trust-m/optiga-trust-m-1/optiga/crypt/optiga_crypt.c ****                                                 uint16_t * p_signature_length,
 147://MAC/Home/Downloads/getstarted-optiga-trust-m/optiga-trust-m-1/optiga/crypt/optiga_crypt.c ****                                                 uint16_t salt_length)
 148://MAC/Home/Downloads/getstarted-optiga-trust-m/optiga-trust-m-1/optiga/crypt/optiga_crypt.c **** {
 149://MAC/Home/Downloads/getstarted-optiga-trust-m/optiga-trust-m-1/optiga/crypt/optiga_crypt.c ****     optiga_lib_status_t return_value = OPTIGA_CRYPT_ERROR;
 150://MAC/Home/Downloads/getstarted-optiga-trust-m/optiga-trust-m-1/optiga/crypt/optiga_crypt.c ****     optiga_calc_sign_params_t * p_params;
 151://MAC/Home/Downloads/getstarted-optiga-trust-m/optiga-trust-m-1/optiga/crypt/optiga_crypt.c **** 
 152://MAC/Home/Downloads/getstarted-optiga-trust-m/optiga-trust-m-1/optiga/crypt/optiga_crypt.c ****     do
 153://MAC/Home/Downloads/getstarted-optiga-trust-m/optiga-trust-m-1/optiga/crypt/optiga_crypt.c ****     {
 154://MAC/Home/Downloads/getstarted-optiga-trust-m/optiga-trust-m-1/optiga/crypt/optiga_crypt.c **** #ifdef OPTIGA_LIB_DEBUG_NULL_CHECK
 155://MAC/Home/Downloads/getstarted-optiga-trust-m/optiga-trust-m-1/optiga/crypt/optiga_crypt.c ****         if ((NULL == me) || (NULL == me->my_cmd) || (NULL == p_digest) ||
 156://MAC/Home/Downloads/getstarted-optiga-trust-m/optiga-trust-m-1/optiga/crypt/optiga_crypt.c ****             (NULL == p_signature) || (NULL == p_signature_length))
 157://MAC/Home/Downloads/getstarted-optiga-trust-m/optiga-trust-m-1/optiga/crypt/optiga_crypt.c ****         {
 158://MAC/Home/Downloads/getstarted-optiga-trust-m/optiga-trust-m-1/optiga/crypt/optiga_crypt.c ****             return_value = OPTIGA_CRYPT_ERROR_INVALID_INPUT;
 159://MAC/Home/Downloads/getstarted-optiga-trust-m/optiga-trust-m-1/optiga/crypt/optiga_crypt.c ****             break;
 160://MAC/Home/Downloads/getstarted-optiga-trust-m/optiga-trust-m-1/optiga/crypt/optiga_crypt.c ****         }
 161://MAC/Home/Downloads/getstarted-optiga-trust-m/optiga-trust-m-1/optiga/crypt/optiga_crypt.c **** #endif
 162://MAC/Home/Downloads/getstarted-optiga-trust-m/optiga-trust-m-1/optiga/crypt/optiga_crypt.c **** 
 163://MAC/Home/Downloads/getstarted-optiga-trust-m/optiga-trust-m-1/optiga/crypt/optiga_crypt.c ****         if (OPTIGA_LIB_INSTANCE_BUSY == me->instance_state)
 164://MAC/Home/Downloads/getstarted-optiga-trust-m/optiga-trust-m-1/optiga/crypt/optiga_crypt.c ****         {
 165://MAC/Home/Downloads/getstarted-optiga-trust-m/optiga-trust-m-1/optiga/crypt/optiga_crypt.c ****             return_value = OPTIGA_CRYPT_ERROR_INSTANCE_IN_USE;
 166://MAC/Home/Downloads/getstarted-optiga-trust-m/optiga-trust-m-1/optiga/crypt/optiga_crypt.c ****             break;
 167://MAC/Home/Downloads/getstarted-optiga-trust-m/optiga-trust-m-1/optiga/crypt/optiga_crypt.c ****         }
 168://MAC/Home/Downloads/getstarted-optiga-trust-m/optiga-trust-m-1/optiga/crypt/optiga_crypt.c **** 
 169://MAC/Home/Downloads/getstarted-optiga-trust-m/optiga-trust-m-1/optiga/crypt/optiga_crypt.c ****         me->instance_state = OPTIGA_LIB_INSTANCE_BUSY;
 170://MAC/Home/Downloads/getstarted-optiga-trust-m/optiga-trust-m-1/optiga/crypt/optiga_crypt.c **** 
 171://MAC/Home/Downloads/getstarted-optiga-trust-m/optiga-trust-m-1/optiga/crypt/optiga_crypt.c ****         p_params = (optiga_calc_sign_params_t *)&(me->params.optiga_calc_sign_params);
 172://MAC/Home/Downloads/getstarted-optiga-trust-m/optiga-trust-m-1/optiga/crypt/optiga_crypt.c ****         pal_os_memset(&me->params,0x00,sizeof(optiga_crypt_params_t));
 173://MAC/Home/Downloads/getstarted-optiga-trust-m/optiga-trust-m-1/optiga/crypt/optiga_crypt.c **** 
 174://MAC/Home/Downloads/getstarted-optiga-trust-m/optiga-trust-m-1/optiga/crypt/optiga_crypt.c ****         p_params->p_digest = p_digest;
 175://MAC/Home/Downloads/getstarted-optiga-trust-m/optiga-trust-m-1/optiga/crypt/optiga_crypt.c ****         p_params->digest_length = digest_length;
 176://MAC/Home/Downloads/getstarted-optiga-trust-m/optiga-trust-m-1/optiga/crypt/optiga_crypt.c ****         p_params->private_key_oid = private_key;
 177://MAC/Home/Downloads/getstarted-optiga-trust-m/optiga-trust-m-1/optiga/crypt/optiga_crypt.c ****         p_params->p_signature = p_signature;
 178://MAC/Home/Downloads/getstarted-optiga-trust-m/optiga-trust-m-1/optiga/crypt/optiga_crypt.c ****         p_params->p_signature_length = p_signature_length;
 179://MAC/Home/Downloads/getstarted-optiga-trust-m/optiga-trust-m-1/optiga/crypt/optiga_crypt.c ****         OPTIGA_PROTECTION_ENABLE(me->my_cmd, me);
 180://MAC/Home/Downloads/getstarted-optiga-trust-m/optiga-trust-m-1/optiga/crypt/optiga_crypt.c ****         OPTIGA_PROTECTION_SET_VERSION(me->my_cmd, me);
 181://MAC/Home/Downloads/getstarted-optiga-trust-m/optiga-trust-m-1/optiga/crypt/optiga_crypt.c **** 
 182://MAC/Home/Downloads/getstarted-optiga-trust-m/optiga-trust-m-1/optiga/crypt/optiga_crypt.c ****         return_value = optiga_cmd_calc_sign(me->my_cmd,
 183://MAC/Home/Downloads/getstarted-optiga-trust-m/optiga-trust-m-1/optiga/crypt/optiga_crypt.c ****                                             signature_scheme,
 184://MAC/Home/Downloads/getstarted-optiga-trust-m/optiga-trust-m-1/optiga/crypt/optiga_crypt.c ****                                             (optiga_calc_sign_params_t *)p_params);
 185://MAC/Home/Downloads/getstarted-optiga-trust-m/optiga-trust-m-1/optiga/crypt/optiga_crypt.c ****         if (OPTIGA_LIB_SUCCESS != return_value)
 186://MAC/Home/Downloads/getstarted-optiga-trust-m/optiga-trust-m-1/optiga/crypt/optiga_crypt.c ****         {
 187://MAC/Home/Downloads/getstarted-optiga-trust-m/optiga-trust-m-1/optiga/crypt/optiga_crypt.c ****             me->instance_state = OPTIGA_LIB_INSTANCE_FREE;
 188://MAC/Home/Downloads/getstarted-optiga-trust-m/optiga-trust-m-1/optiga/crypt/optiga_crypt.c ****         }
 189://MAC/Home/Downloads/getstarted-optiga-trust-m/optiga-trust-m-1/optiga/crypt/optiga_crypt.c ****     } while (FALSE);
 190://MAC/Home/Downloads/getstarted-optiga-trust-m/optiga-trust-m-1/optiga/crypt/optiga_crypt.c ****     optiga_crypt_reset_protection_level(me);
 191://MAC/Home/Downloads/getstarted-optiga-trust-m/optiga-trust-m-1/optiga/crypt/optiga_crypt.c **** 
 192://MAC/Home/Downloads/getstarted-optiga-trust-m/optiga-trust-m-1/optiga/crypt/optiga_crypt.c ****     return (return_value);
 193://MAC/Home/Downloads/getstarted-optiga-trust-m/optiga-trust-m-1/optiga/crypt/optiga_crypt.c **** }
 194://MAC/Home/Downloads/getstarted-optiga-trust-m/optiga-trust-m-1/optiga/crypt/optiga_crypt.c **** #endif // (OPTIGA_CRYPT_ECDSA_SIGN_ENABLED) || (OPTIGA_CRYPT_RSA_SIGN_ENABLED)
 195://MAC/Home/Downloads/getstarted-optiga-trust-m/optiga-trust-m-1/optiga/crypt/optiga_crypt.c **** 
 196://MAC/Home/Downloads/getstarted-optiga-trust-m/optiga-trust-m-1/optiga/crypt/optiga_crypt.c **** #if defined (OPTIGA_CRYPT_ECDSA_VERIFY_ENABLED) || defined (OPTIGA_CRYPT_RSA_VERIFY_ENABLED)
 197://MAC/Home/Downloads/getstarted-optiga-trust-m/optiga-trust-m-1/optiga/crypt/optiga_crypt.c **** //lint --e{715} suppress "The salt_length argument is kept for future use"
 198://MAC/Home/Downloads/getstarted-optiga-trust-m/optiga-trust-m-1/optiga/crypt/optiga_crypt.c **** _STATIC_H optiga_lib_status_t optiga_crypt_verify(optiga_crypt_t * me,
 199://MAC/Home/Downloads/getstarted-optiga-trust-m/optiga-trust-m-1/optiga/crypt/optiga_crypt.c ****                                                   uint8_t cmd_param,
 200://MAC/Home/Downloads/getstarted-optiga-trust-m/optiga-trust-m-1/optiga/crypt/optiga_crypt.c ****                                                   const uint8_t * p_digest,
 201://MAC/Home/Downloads/getstarted-optiga-trust-m/optiga-trust-m-1/optiga/crypt/optiga_crypt.c ****                                                   uint8_t digest_length,
 202://MAC/Home/Downloads/getstarted-optiga-trust-m/optiga-trust-m-1/optiga/crypt/optiga_crypt.c ****                                                   const uint8_t * p_signature,
 203://MAC/Home/Downloads/getstarted-optiga-trust-m/optiga-trust-m-1/optiga/crypt/optiga_crypt.c ****                                                   uint16_t signature_length,
 204://MAC/Home/Downloads/getstarted-optiga-trust-m/optiga-trust-m-1/optiga/crypt/optiga_crypt.c ****                                                   uint8_t public_key_source_type,
 205://MAC/Home/Downloads/getstarted-optiga-trust-m/optiga-trust-m-1/optiga/crypt/optiga_crypt.c ****                                                   const void * p_public_key,
 206://MAC/Home/Downloads/getstarted-optiga-trust-m/optiga-trust-m-1/optiga/crypt/optiga_crypt.c ****                                                   uint16_t salt_length)
 207://MAC/Home/Downloads/getstarted-optiga-trust-m/optiga-trust-m-1/optiga/crypt/optiga_crypt.c **** {
 208://MAC/Home/Downloads/getstarted-optiga-trust-m/optiga-trust-m-1/optiga/crypt/optiga_crypt.c ****     optiga_verify_sign_params_t * p_params;
 209://MAC/Home/Downloads/getstarted-optiga-trust-m/optiga-trust-m-1/optiga/crypt/optiga_crypt.c ****     optiga_lib_status_t return_value = OPTIGA_CRYPT_ERROR;
 210://MAC/Home/Downloads/getstarted-optiga-trust-m/optiga-trust-m-1/optiga/crypt/optiga_crypt.c **** 
 211://MAC/Home/Downloads/getstarted-optiga-trust-m/optiga-trust-m-1/optiga/crypt/optiga_crypt.c ****     do
 212://MAC/Home/Downloads/getstarted-optiga-trust-m/optiga-trust-m-1/optiga/crypt/optiga_crypt.c ****     {
 213://MAC/Home/Downloads/getstarted-optiga-trust-m/optiga-trust-m-1/optiga/crypt/optiga_crypt.c **** #ifdef OPTIGA_LIB_DEBUG_NULL_CHECK
 214://MAC/Home/Downloads/getstarted-optiga-trust-m/optiga-trust-m-1/optiga/crypt/optiga_crypt.c ****         if ((NULL == me) || (NULL == me->my_cmd) ||
 215://MAC/Home/Downloads/getstarted-optiga-trust-m/optiga-trust-m-1/optiga/crypt/optiga_crypt.c ****             (NULL == p_digest) || (NULL == p_signature) || (NULL == p_public_key))
 216://MAC/Home/Downloads/getstarted-optiga-trust-m/optiga-trust-m-1/optiga/crypt/optiga_crypt.c ****         {
 217://MAC/Home/Downloads/getstarted-optiga-trust-m/optiga-trust-m-1/optiga/crypt/optiga_crypt.c ****             return_value = OPTIGA_CRYPT_ERROR_INVALID_INPUT;
 218://MAC/Home/Downloads/getstarted-optiga-trust-m/optiga-trust-m-1/optiga/crypt/optiga_crypt.c ****             break;
 219://MAC/Home/Downloads/getstarted-optiga-trust-m/optiga-trust-m-1/optiga/crypt/optiga_crypt.c ****         }
 220://MAC/Home/Downloads/getstarted-optiga-trust-m/optiga-trust-m-1/optiga/crypt/optiga_crypt.c **** #endif
 221://MAC/Home/Downloads/getstarted-optiga-trust-m/optiga-trust-m-1/optiga/crypt/optiga_crypt.c **** 
 222://MAC/Home/Downloads/getstarted-optiga-trust-m/optiga-trust-m-1/optiga/crypt/optiga_crypt.c ****         if (OPTIGA_LIB_INSTANCE_BUSY == me->instance_state)
 223://MAC/Home/Downloads/getstarted-optiga-trust-m/optiga-trust-m-1/optiga/crypt/optiga_crypt.c ****         {
 224://MAC/Home/Downloads/getstarted-optiga-trust-m/optiga-trust-m-1/optiga/crypt/optiga_crypt.c ****             return_value = OPTIGA_CRYPT_ERROR_INSTANCE_IN_USE;
 225://MAC/Home/Downloads/getstarted-optiga-trust-m/optiga-trust-m-1/optiga/crypt/optiga_crypt.c ****             break;
 226://MAC/Home/Downloads/getstarted-optiga-trust-m/optiga-trust-m-1/optiga/crypt/optiga_crypt.c ****         }
 227://MAC/Home/Downloads/getstarted-optiga-trust-m/optiga-trust-m-1/optiga/crypt/optiga_crypt.c **** 
 228://MAC/Home/Downloads/getstarted-optiga-trust-m/optiga-trust-m-1/optiga/crypt/optiga_crypt.c ****         me->instance_state = OPTIGA_LIB_INSTANCE_BUSY;
 229://MAC/Home/Downloads/getstarted-optiga-trust-m/optiga-trust-m-1/optiga/crypt/optiga_crypt.c ****         p_params = (optiga_verify_sign_params_t *)&(me->params.optiga_verify_sign_params);
 230://MAC/Home/Downloads/getstarted-optiga-trust-m/optiga-trust-m-1/optiga/crypt/optiga_crypt.c ****         pal_os_memset(&me->params,0x00,sizeof(optiga_crypt_params_t));
 231://MAC/Home/Downloads/getstarted-optiga-trust-m/optiga-trust-m-1/optiga/crypt/optiga_crypt.c **** 
 232://MAC/Home/Downloads/getstarted-optiga-trust-m/optiga-trust-m-1/optiga/crypt/optiga_crypt.c ****         OPTIGA_PROTECTION_ENABLE(me->my_cmd, me);
 233://MAC/Home/Downloads/getstarted-optiga-trust-m/optiga-trust-m-1/optiga/crypt/optiga_crypt.c ****         OPTIGA_PROTECTION_SET_VERSION(me->my_cmd, me);
 234://MAC/Home/Downloads/getstarted-optiga-trust-m/optiga-trust-m-1/optiga/crypt/optiga_crypt.c ****         p_params->p_digest = p_digest;
 235://MAC/Home/Downloads/getstarted-optiga-trust-m/optiga-trust-m-1/optiga/crypt/optiga_crypt.c ****         p_params->digest_length = digest_length;
 236://MAC/Home/Downloads/getstarted-optiga-trust-m/optiga-trust-m-1/optiga/crypt/optiga_crypt.c ****         p_params->p_signature = p_signature;
 237://MAC/Home/Downloads/getstarted-optiga-trust-m/optiga-trust-m-1/optiga/crypt/optiga_crypt.c ****         p_params->signature_length = signature_length;
 238://MAC/Home/Downloads/getstarted-optiga-trust-m/optiga-trust-m-1/optiga/crypt/optiga_crypt.c ****         p_params->public_key_source_type = public_key_source_type;
 239://MAC/Home/Downloads/getstarted-optiga-trust-m/optiga-trust-m-1/optiga/crypt/optiga_crypt.c **** 
 240://MAC/Home/Downloads/getstarted-optiga-trust-m/optiga-trust-m-1/optiga/crypt/optiga_crypt.c ****         if (OPTIGA_CRYPT_OID_DATA == public_key_source_type)
 241://MAC/Home/Downloads/getstarted-optiga-trust-m/optiga-trust-m-1/optiga/crypt/optiga_crypt.c ****         {
 242://MAC/Home/Downloads/getstarted-optiga-trust-m/optiga-trust-m-1/optiga/crypt/optiga_crypt.c ****             p_params->certificate_oid = *((uint16_t *)p_public_key);
 243://MAC/Home/Downloads/getstarted-optiga-trust-m/optiga-trust-m-1/optiga/crypt/optiga_crypt.c ****         }
 244://MAC/Home/Downloads/getstarted-optiga-trust-m/optiga-trust-m-1/optiga/crypt/optiga_crypt.c ****         else
 245://MAC/Home/Downloads/getstarted-optiga-trust-m/optiga-trust-m-1/optiga/crypt/optiga_crypt.c ****         {
 246://MAC/Home/Downloads/getstarted-optiga-trust-m/optiga-trust-m-1/optiga/crypt/optiga_crypt.c ****             p_params->public_key = (public_key_from_host_t *)p_public_key;
 247://MAC/Home/Downloads/getstarted-optiga-trust-m/optiga-trust-m-1/optiga/crypt/optiga_crypt.c ****         }
 248://MAC/Home/Downloads/getstarted-optiga-trust-m/optiga-trust-m-1/optiga/crypt/optiga_crypt.c **** 
 249://MAC/Home/Downloads/getstarted-optiga-trust-m/optiga-trust-m-1/optiga/crypt/optiga_crypt.c ****         return_value = optiga_cmd_verify_sign(me->my_cmd,
 250://MAC/Home/Downloads/getstarted-optiga-trust-m/optiga-trust-m-1/optiga/crypt/optiga_crypt.c ****                                              (uint8_t)cmd_param,
 251://MAC/Home/Downloads/getstarted-optiga-trust-m/optiga-trust-m-1/optiga/crypt/optiga_crypt.c ****                                              (optiga_verify_sign_params_t *)p_params);
 252://MAC/Home/Downloads/getstarted-optiga-trust-m/optiga-trust-m-1/optiga/crypt/optiga_crypt.c ****         if (OPTIGA_LIB_SUCCESS != return_value)
 253://MAC/Home/Downloads/getstarted-optiga-trust-m/optiga-trust-m-1/optiga/crypt/optiga_crypt.c ****         {
 254://MAC/Home/Downloads/getstarted-optiga-trust-m/optiga-trust-m-1/optiga/crypt/optiga_crypt.c ****             me->instance_state = OPTIGA_LIB_INSTANCE_FREE;
 255://MAC/Home/Downloads/getstarted-optiga-trust-m/optiga-trust-m-1/optiga/crypt/optiga_crypt.c ****         }
 256://MAC/Home/Downloads/getstarted-optiga-trust-m/optiga-trust-m-1/optiga/crypt/optiga_crypt.c ****     } while (FALSE);
 257://MAC/Home/Downloads/getstarted-optiga-trust-m/optiga-trust-m-1/optiga/crypt/optiga_crypt.c ****     optiga_crypt_reset_protection_level(me);
 258://MAC/Home/Downloads/getstarted-optiga-trust-m/optiga-trust-m-1/optiga/crypt/optiga_crypt.c **** 
 259://MAC/Home/Downloads/getstarted-optiga-trust-m/optiga-trust-m-1/optiga/crypt/optiga_crypt.c ****     return (return_value);
 260://MAC/Home/Downloads/getstarted-optiga-trust-m/optiga-trust-m-1/optiga/crypt/optiga_crypt.c **** }
 261://MAC/Home/Downloads/getstarted-optiga-trust-m/optiga-trust-m-1/optiga/crypt/optiga_crypt.c **** #endif //(OPTIGA_CRYPT_ECDSA_VERIFY_ENABLED) || (OPTIGA_CRYPT_RSA_VERIFY_ENABLED)
 262://MAC/Home/Downloads/getstarted-optiga-trust-m/optiga-trust-m-1/optiga/crypt/optiga_crypt.c **** 
 263://MAC/Home/Downloads/getstarted-optiga-trust-m/optiga-trust-m-1/optiga/crypt/optiga_crypt.c **** #if defined (OPTIGA_CRYPT_RSA_DECRYPT_ENABLED) || defined (OPTIGA_CRYPT_RSA_ENCRYPT_ENABLED)
 264://MAC/Home/Downloads/getstarted-optiga-trust-m/optiga-trust-m-1/optiga/crypt/optiga_crypt.c **** //lint --e{715} suppress "label and label_length is RFU hence not used"
 265://MAC/Home/Downloads/getstarted-optiga-trust-m/optiga-trust-m-1/optiga/crypt/optiga_crypt.c **** _STATIC_H optiga_lib_status_t optiga_crypt_rsa_enc_dec(optiga_crypt_t * me,
 266://MAC/Home/Downloads/getstarted-optiga-trust-m/optiga-trust-m-1/optiga/crypt/optiga_crypt.c ****                                                        optiga_rsa_encryption_scheme_t encryption_sc
 267://MAC/Home/Downloads/getstarted-optiga-trust-m/optiga-trust-m-1/optiga/crypt/optiga_crypt.c ****                                                        const uint8_t * p_message,
 268://MAC/Home/Downloads/getstarted-optiga-trust-m/optiga-trust-m-1/optiga/crypt/optiga_crypt.c ****                                                        uint16_t message_length,
 269://MAC/Home/Downloads/getstarted-optiga-trust-m/optiga-trust-m-1/optiga/crypt/optiga_crypt.c ****                                                        const uint8_t * p_label,
 270://MAC/Home/Downloads/getstarted-optiga-trust-m/optiga-trust-m-1/optiga/crypt/optiga_crypt.c ****                                                        uint16_t label_length,
 271://MAC/Home/Downloads/getstarted-optiga-trust-m/optiga-trust-m-1/optiga/crypt/optiga_crypt.c ****                                                        uint8_t public_key_source_type,
 272://MAC/Home/Downloads/getstarted-optiga-trust-m/optiga-trust-m-1/optiga/crypt/optiga_crypt.c ****                                                        const void * p_key,
 273://MAC/Home/Downloads/getstarted-optiga-trust-m/optiga-trust-m-1/optiga/crypt/optiga_crypt.c ****                                                        uint8_t * p_processed_message,
 274://MAC/Home/Downloads/getstarted-optiga-trust-m/optiga-trust-m-1/optiga/crypt/optiga_crypt.c ****                                                        uint16_t * p_processed_message_length,
 275://MAC/Home/Downloads/getstarted-optiga-trust-m/optiga-trust-m-1/optiga/crypt/optiga_crypt.c ****                                                        bool_t is_enc)
 276://MAC/Home/Downloads/getstarted-optiga-trust-m/optiga-trust-m-1/optiga/crypt/optiga_crypt.c **** {
 277://MAC/Home/Downloads/getstarted-optiga-trust-m/optiga-trust-m-1/optiga/crypt/optiga_crypt.c ****     optiga_lib_status_t return_value = OPTIGA_CRYPT_ERROR;
 278://MAC/Home/Downloads/getstarted-optiga-trust-m/optiga-trust-m-1/optiga/crypt/optiga_crypt.c ****     optiga_encrypt_asym_params_t * p_params;
 279://MAC/Home/Downloads/getstarted-optiga-trust-m/optiga-trust-m-1/optiga/crypt/optiga_crypt.c **** 
 280://MAC/Home/Downloads/getstarted-optiga-trust-m/optiga-trust-m-1/optiga/crypt/optiga_crypt.c ****     do
 281://MAC/Home/Downloads/getstarted-optiga-trust-m/optiga-trust-m-1/optiga/crypt/optiga_crypt.c ****     {
 282://MAC/Home/Downloads/getstarted-optiga-trust-m/optiga-trust-m-1/optiga/crypt/optiga_crypt.c ****         if (OPTIGA_LIB_INSTANCE_BUSY == me->instance_state)
 283://MAC/Home/Downloads/getstarted-optiga-trust-m/optiga-trust-m-1/optiga/crypt/optiga_crypt.c ****         {
 284://MAC/Home/Downloads/getstarted-optiga-trust-m/optiga-trust-m-1/optiga/crypt/optiga_crypt.c ****             return_value = OPTIGA_CRYPT_ERROR_INSTANCE_IN_USE;
 285://MAC/Home/Downloads/getstarted-optiga-trust-m/optiga-trust-m-1/optiga/crypt/optiga_crypt.c ****             break;
 286://MAC/Home/Downloads/getstarted-optiga-trust-m/optiga-trust-m-1/optiga/crypt/optiga_crypt.c ****         }
 287://MAC/Home/Downloads/getstarted-optiga-trust-m/optiga-trust-m-1/optiga/crypt/optiga_crypt.c ****         me->instance_state = OPTIGA_LIB_INSTANCE_BUSY;;
 288://MAC/Home/Downloads/getstarted-optiga-trust-m/optiga-trust-m-1/optiga/crypt/optiga_crypt.c **** 
 289://MAC/Home/Downloads/getstarted-optiga-trust-m/optiga-trust-m-1/optiga/crypt/optiga_crypt.c ****         p_params = (optiga_encrypt_asym_params_t *)&(me->params.optiga_encrypt_asym_params);
 290://MAC/Home/Downloads/getstarted-optiga-trust-m/optiga-trust-m-1/optiga/crypt/optiga_crypt.c ****         pal_os_memset(&me->params,0x00,sizeof(optiga_crypt_params_t));
 291://MAC/Home/Downloads/getstarted-optiga-trust-m/optiga-trust-m-1/optiga/crypt/optiga_crypt.c **** 
 292://MAC/Home/Downloads/getstarted-optiga-trust-m/optiga-trust-m-1/optiga/crypt/optiga_crypt.c ****         p_params->message = p_message;
 293://MAC/Home/Downloads/getstarted-optiga-trust-m/optiga-trust-m-1/optiga/crypt/optiga_crypt.c ****         p_params->message_length = message_length;
 294://MAC/Home/Downloads/getstarted-optiga-trust-m/optiga-trust-m-1/optiga/crypt/optiga_crypt.c ****         p_params->processed_message = p_processed_message;
 295://MAC/Home/Downloads/getstarted-optiga-trust-m/optiga-trust-m-1/optiga/crypt/optiga_crypt.c ****         p_params->processed_message_length = p_processed_message_length;
 296://MAC/Home/Downloads/getstarted-optiga-trust-m/optiga-trust-m-1/optiga/crypt/optiga_crypt.c **** 
 297://MAC/Home/Downloads/getstarted-optiga-trust-m/optiga-trust-m-1/optiga/crypt/optiga_crypt.c ****         OPTIGA_PROTECTION_ENABLE(me->my_cmd, me);
 298://MAC/Home/Downloads/getstarted-optiga-trust-m/optiga-trust-m-1/optiga/crypt/optiga_crypt.c ****         OPTIGA_PROTECTION_SET_VERSION(me->my_cmd, me);
 299://MAC/Home/Downloads/getstarted-optiga-trust-m/optiga-trust-m-1/optiga/crypt/optiga_crypt.c **** 
 300://MAC/Home/Downloads/getstarted-optiga-trust-m/optiga-trust-m-1/optiga/crypt/optiga_crypt.c **** 
 301://MAC/Home/Downloads/getstarted-optiga-trust-m/optiga-trust-m-1/optiga/crypt/optiga_crypt.c ****         if (is_enc)
 302://MAC/Home/Downloads/getstarted-optiga-trust-m/optiga-trust-m-1/optiga/crypt/optiga_crypt.c ****         {
 303://MAC/Home/Downloads/getstarted-optiga-trust-m/optiga-trust-m-1/optiga/crypt/optiga_crypt.c ****             p_params->key = p_key;
 304://MAC/Home/Downloads/getstarted-optiga-trust-m/optiga-trust-m-1/optiga/crypt/optiga_crypt.c ****             p_params->public_key_source_type = public_key_source_type;
 305://MAC/Home/Downloads/getstarted-optiga-trust-m/optiga-trust-m-1/optiga/crypt/optiga_crypt.c **** #ifdef OPTIGA_CRYPT_RSA_ENCRYPT_ENABLED
 306://MAC/Home/Downloads/getstarted-optiga-trust-m/optiga-trust-m-1/optiga/crypt/optiga_crypt.c ****             return_value = optiga_cmd_encrypt_asym(me->my_cmd, (uint8_t)encryption_scheme,
 307://MAC/Home/Downloads/getstarted-optiga-trust-m/optiga-trust-m-1/optiga/crypt/optiga_crypt.c ****                                                    (optiga_encrypt_asym_params_t *)p_params);
 308://MAC/Home/Downloads/getstarted-optiga-trust-m/optiga-trust-m-1/optiga/crypt/optiga_crypt.c **** #endif
 309://MAC/Home/Downloads/getstarted-optiga-trust-m/optiga-trust-m-1/optiga/crypt/optiga_crypt.c ****         }
 310://MAC/Home/Downloads/getstarted-optiga-trust-m/optiga-trust-m-1/optiga/crypt/optiga_crypt.c ****         else
 311://MAC/Home/Downloads/getstarted-optiga-trust-m/optiga-trust-m-1/optiga/crypt/optiga_crypt.c ****         {
 312://MAC/Home/Downloads/getstarted-optiga-trust-m/optiga-trust-m-1/optiga/crypt/optiga_crypt.c ****             p_params->private_key_id = (optiga_key_id_t)*(optiga_key_id_t *)p_key;
 313://MAC/Home/Downloads/getstarted-optiga-trust-m/optiga-trust-m-1/optiga/crypt/optiga_crypt.c ****             p_params->key = &p_params->private_key_id;
 314://MAC/Home/Downloads/getstarted-optiga-trust-m/optiga-trust-m-1/optiga/crypt/optiga_crypt.c ****             p_params->public_key_source_type = 0;
 315://MAC/Home/Downloads/getstarted-optiga-trust-m/optiga-trust-m-1/optiga/crypt/optiga_crypt.c **** #ifdef OPTIGA_CRYPT_RSA_DECRYPT_ENABLED
 316://MAC/Home/Downloads/getstarted-optiga-trust-m/optiga-trust-m-1/optiga/crypt/optiga_crypt.c ****             return_value = optiga_cmd_decrypt_asym(me->my_cmd, (uint8_t)encryption_scheme,
 317://MAC/Home/Downloads/getstarted-optiga-trust-m/optiga-trust-m-1/optiga/crypt/optiga_crypt.c ****                                                    (optiga_encrypt_asym_params_t *)p_params);
 318://MAC/Home/Downloads/getstarted-optiga-trust-m/optiga-trust-m-1/optiga/crypt/optiga_crypt.c **** #endif
 319://MAC/Home/Downloads/getstarted-optiga-trust-m/optiga-trust-m-1/optiga/crypt/optiga_crypt.c ****         }
 320://MAC/Home/Downloads/getstarted-optiga-trust-m/optiga-trust-m-1/optiga/crypt/optiga_crypt.c ****         if (OPTIGA_LIB_SUCCESS != return_value)
 321://MAC/Home/Downloads/getstarted-optiga-trust-m/optiga-trust-m-1/optiga/crypt/optiga_crypt.c ****         {
 322://MAC/Home/Downloads/getstarted-optiga-trust-m/optiga-trust-m-1/optiga/crypt/optiga_crypt.c ****             me->instance_state = OPTIGA_LIB_INSTANCE_FREE;
 323://MAC/Home/Downloads/getstarted-optiga-trust-m/optiga-trust-m-1/optiga/crypt/optiga_crypt.c ****         }
 324://MAC/Home/Downloads/getstarted-optiga-trust-m/optiga-trust-m-1/optiga/crypt/optiga_crypt.c ****     } while (FALSE);
 325://MAC/Home/Downloads/getstarted-optiga-trust-m/optiga-trust-m-1/optiga/crypt/optiga_crypt.c ****     optiga_crypt_reset_protection_level(me);
 326://MAC/Home/Downloads/getstarted-optiga-trust-m/optiga-trust-m-1/optiga/crypt/optiga_crypt.c **** 
 327://MAC/Home/Downloads/getstarted-optiga-trust-m/optiga-trust-m-1/optiga/crypt/optiga_crypt.c ****     return (return_value);
 328://MAC/Home/Downloads/getstarted-optiga-trust-m/optiga-trust-m-1/optiga/crypt/optiga_crypt.c **** }
 329://MAC/Home/Downloads/getstarted-optiga-trust-m/optiga-trust-m-1/optiga/crypt/optiga_crypt.c **** #endif //(OPTIGA_CRYPT_RSA_DECRYPT_ENABLED) || (OPTIGA_CRYPT_RSA_ENCRYPT_ENABLED)
 330://MAC/Home/Downloads/getstarted-optiga-trust-m/optiga-trust-m-1/optiga/crypt/optiga_crypt.c **** #if defined (OPTIGA_CRYPT_RANDOM_ENABLED) || defined (OPTIGA_CRYPT_RSA_PRE_MASTER_SECRET_ENABLED)
 331://MAC/Home/Downloads/getstarted-optiga-trust-m/optiga-trust-m-1/optiga/crypt/optiga_crypt.c **** _STATIC_H optiga_lib_status_t optiga_crypt_get_random(optiga_crypt_t * me,
 332://MAC/Home/Downloads/getstarted-optiga-trust-m/optiga-trust-m-1/optiga/crypt/optiga_crypt.c ****                                                       uint8_t cmd_param,
 333://MAC/Home/Downloads/getstarted-optiga-trust-m/optiga-trust-m-1/optiga/crypt/optiga_crypt.c ****                                                       uint8_t * p_random_data,
 334://MAC/Home/Downloads/getstarted-optiga-trust-m/optiga-trust-m-1/optiga/crypt/optiga_crypt.c ****                                                       uint16_t random_data_length,
 335://MAC/Home/Downloads/getstarted-optiga-trust-m/optiga-trust-m-1/optiga/crypt/optiga_crypt.c ****                                                       const uint8_t * p_optional_data,
 336://MAC/Home/Downloads/getstarted-optiga-trust-m/optiga-trust-m-1/optiga/crypt/optiga_crypt.c ****                                                       uint16_t optional_data_length)
 337://MAC/Home/Downloads/getstarted-optiga-trust-m/optiga-trust-m-1/optiga/crypt/optiga_crypt.c **** {
 338://MAC/Home/Downloads/getstarted-optiga-trust-m/optiga-trust-m-1/optiga/crypt/optiga_crypt.c ****     optiga_lib_status_t return_value = OPTIGA_CRYPT_ERROR;
 339://MAC/Home/Downloads/getstarted-optiga-trust-m/optiga-trust-m-1/optiga/crypt/optiga_crypt.c ****     optiga_get_random_params_t * p_params;
 340://MAC/Home/Downloads/getstarted-optiga-trust-m/optiga-trust-m-1/optiga/crypt/optiga_crypt.c ****     do
 341://MAC/Home/Downloads/getstarted-optiga-trust-m/optiga-trust-m-1/optiga/crypt/optiga_crypt.c ****     {
 342://MAC/Home/Downloads/getstarted-optiga-trust-m/optiga-trust-m-1/optiga/crypt/optiga_crypt.c ****         if (OPTIGA_LIB_INSTANCE_BUSY == me->instance_state)
 343://MAC/Home/Downloads/getstarted-optiga-trust-m/optiga-trust-m-1/optiga/crypt/optiga_crypt.c ****         {
 344://MAC/Home/Downloads/getstarted-optiga-trust-m/optiga-trust-m-1/optiga/crypt/optiga_crypt.c ****             return_value = OPTIGA_CRYPT_ERROR_INSTANCE_IN_USE;
 345://MAC/Home/Downloads/getstarted-optiga-trust-m/optiga-trust-m-1/optiga/crypt/optiga_crypt.c ****             break;
 346://MAC/Home/Downloads/getstarted-optiga-trust-m/optiga-trust-m-1/optiga/crypt/optiga_crypt.c ****         }
 347://MAC/Home/Downloads/getstarted-optiga-trust-m/optiga-trust-m-1/optiga/crypt/optiga_crypt.c **** 
 348://MAC/Home/Downloads/getstarted-optiga-trust-m/optiga-trust-m-1/optiga/crypt/optiga_crypt.c ****         me->instance_state = OPTIGA_LIB_INSTANCE_BUSY;
 349://MAC/Home/Downloads/getstarted-optiga-trust-m/optiga-trust-m-1/optiga/crypt/optiga_crypt.c ****         p_params = (optiga_get_random_params_t *)&(me->params.optiga_get_random_params);
 350://MAC/Home/Downloads/getstarted-optiga-trust-m/optiga-trust-m-1/optiga/crypt/optiga_crypt.c ****         pal_os_memset(&me->params,0x00,sizeof(optiga_crypt_params_t));
 351://MAC/Home/Downloads/getstarted-optiga-trust-m/optiga-trust-m-1/optiga/crypt/optiga_crypt.c **** 
 352://MAC/Home/Downloads/getstarted-optiga-trust-m/optiga-trust-m-1/optiga/crypt/optiga_crypt.c ****         p_params->optional_data = p_optional_data;
 353://MAC/Home/Downloads/getstarted-optiga-trust-m/optiga-trust-m-1/optiga/crypt/optiga_crypt.c ****         p_params->optional_data_length = optional_data_length;
 354://MAC/Home/Downloads/getstarted-optiga-trust-m/optiga-trust-m-1/optiga/crypt/optiga_crypt.c ****         p_params->random_data = p_random_data;
 355://MAC/Home/Downloads/getstarted-optiga-trust-m/optiga-trust-m-1/optiga/crypt/optiga_crypt.c ****         p_params->random_data_length = random_data_length;
 356://MAC/Home/Downloads/getstarted-optiga-trust-m/optiga-trust-m-1/optiga/crypt/optiga_crypt.c ****         OPTIGA_PROTECTION_ENABLE(me->my_cmd, me);
 357://MAC/Home/Downloads/getstarted-optiga-trust-m/optiga-trust-m-1/optiga/crypt/optiga_crypt.c ****         OPTIGA_PROTECTION_SET_VERSION(me->my_cmd, me);
 358://MAC/Home/Downloads/getstarted-optiga-trust-m/optiga-trust-m-1/optiga/crypt/optiga_crypt.c **** 
 359://MAC/Home/Downloads/getstarted-optiga-trust-m/optiga-trust-m-1/optiga/crypt/optiga_crypt.c ****         return_value = optiga_cmd_get_random(me->my_cmd,
 360://MAC/Home/Downloads/getstarted-optiga-trust-m/optiga-trust-m-1/optiga/crypt/optiga_crypt.c ****                                              (uint8_t)cmd_param,
 361://MAC/Home/Downloads/getstarted-optiga-trust-m/optiga-trust-m-1/optiga/crypt/optiga_crypt.c ****                                               (optiga_get_random_params_t *)p_params);
 362://MAC/Home/Downloads/getstarted-optiga-trust-m/optiga-trust-m-1/optiga/crypt/optiga_crypt.c ****         if (OPTIGA_LIB_SUCCESS != return_value)
 363://MAC/Home/Downloads/getstarted-optiga-trust-m/optiga-trust-m-1/optiga/crypt/optiga_crypt.c ****         {
 364://MAC/Home/Downloads/getstarted-optiga-trust-m/optiga-trust-m-1/optiga/crypt/optiga_crypt.c ****             me->instance_state = OPTIGA_LIB_INSTANCE_FREE;
 365://MAC/Home/Downloads/getstarted-optiga-trust-m/optiga-trust-m-1/optiga/crypt/optiga_crypt.c ****         }
 366://MAC/Home/Downloads/getstarted-optiga-trust-m/optiga-trust-m-1/optiga/crypt/optiga_crypt.c ****     } while (FALSE);
 367://MAC/Home/Downloads/getstarted-optiga-trust-m/optiga-trust-m-1/optiga/crypt/optiga_crypt.c ****     optiga_crypt_reset_protection_level(me);
 368://MAC/Home/Downloads/getstarted-optiga-trust-m/optiga-trust-m-1/optiga/crypt/optiga_crypt.c **** 
 369://MAC/Home/Downloads/getstarted-optiga-trust-m/optiga-trust-m-1/optiga/crypt/optiga_crypt.c ****     return (return_value);
 370://MAC/Home/Downloads/getstarted-optiga-trust-m/optiga-trust-m-1/optiga/crypt/optiga_crypt.c **** }
 371://MAC/Home/Downloads/getstarted-optiga-trust-m/optiga-trust-m-1/optiga/crypt/optiga_crypt.c **** #endif //(OPTIGA_CRYPT_RANDOM_ENABLED) || (OPTIGA_CRYPT_RSA_PRE_MASTER_SECRET_ENABLED)
 372://MAC/Home/Downloads/getstarted-optiga-trust-m/optiga-trust-m-1/optiga/crypt/optiga_crypt.c **** 
 373://MAC/Home/Downloads/getstarted-optiga-trust-m/optiga-trust-m-1/optiga/crypt/optiga_crypt.c **** 
 374://MAC/Home/Downloads/getstarted-optiga-trust-m/optiga-trust-m-1/optiga/crypt/optiga_crypt.c **** #ifdef OPTIGA_COMMS_SHIELDED_CONNECTION
 375://MAC/Home/Downloads/getstarted-optiga-trust-m/optiga-trust-m-1/optiga/crypt/optiga_crypt.c **** void optiga_crypt_set_comms_params(optiga_crypt_t * me,
 376://MAC/Home/Downloads/getstarted-optiga-trust-m/optiga-trust-m-1/optiga/crypt/optiga_crypt.c ****                                    uint8_t parameter_type,
 377://MAC/Home/Downloads/getstarted-optiga-trust-m/optiga-trust-m-1/optiga/crypt/optiga_crypt.c ****                                    uint8_t value)
 378://MAC/Home/Downloads/getstarted-optiga-trust-m/optiga-trust-m-1/optiga/crypt/optiga_crypt.c **** {
 379://MAC/Home/Downloads/getstarted-optiga-trust-m/optiga-trust-m-1/optiga/crypt/optiga_crypt.c ****     switch (parameter_type)
 380://MAC/Home/Downloads/getstarted-optiga-trust-m/optiga-trust-m-1/optiga/crypt/optiga_crypt.c ****     {
 381://MAC/Home/Downloads/getstarted-optiga-trust-m/optiga-trust-m-1/optiga/crypt/optiga_crypt.c ****         case OPTIGA_COMMS_PROTECTION_LEVEL:
 382://MAC/Home/Downloads/getstarted-optiga-trust-m/optiga-trust-m-1/optiga/crypt/optiga_crypt.c ****         {
 383://MAC/Home/Downloads/getstarted-optiga-trust-m/optiga-trust-m-1/optiga/crypt/optiga_crypt.c ****             me->protection_level = value;
  69              	 .loc 1 383 0
  70 0004 0023     	 mov r3,#0
  71 0006 2E30     	 add r0,r0,#46
  72              	.LVL6:
  73 0008 0370     	 strb r3,[r0]
  74              	.LVL7:
  75              	.L2:
  76              	.LBE5:
  77              	.LBE4:
  72://MAC/Home/Downloads/getstarted-optiga-trust-m/optiga-trust-m-1/optiga/crypt/optiga_crypt.c **** 
  78              	 .loc 1 72 0
  79              	 
  80 000a 7047     	 bx lr
  81              	 .cfi_endproc
  82              	.LFE1:
  84              	 .section .text.optiga_crypt_get_random,"ax",%progbits
  85              	 .align 1
  86              	 .code 16
  87              	 .thumb_func
  89              	optiga_crypt_get_random:
  90              	.LFB6:
 337://MAC/Home/Downloads/getstarted-optiga-trust-m/optiga-trust-m-1/optiga/crypt/optiga_crypt.c ****     optiga_lib_status_t return_value = OPTIGA_CRYPT_ERROR;
  91              	 .loc 1 337 0
  92              	 .cfi_startproc
  93              	.LVL8:
  94 0000 F7B5     	 push {r0,r1,r2,r4,r5,r6,r7,lr}
  95              	.LCFI1:
  96              	 .cfi_def_cfa_offset 32
  97              	 .cfi_offset 0,-32
  98              	 .cfi_offset 1,-28
  99              	 .cfi_offset 2,-24
 100              	 .cfi_offset 4,-20
 101              	 .cfi_offset 5,-16
 102              	 .cfi_offset 6,-12
 103              	 .cfi_offset 7,-8
 104              	 .cfi_offset 14,-4
 337://MAC/Home/Downloads/getstarted-optiga-trust-m/optiga-trust-m-1/optiga/crypt/optiga_crypt.c ****     optiga_lib_status_t return_value = OPTIGA_CRYPT_ERROR;
 105              	 .loc 1 337 0
 106 0002 0093     	 str r3,[sp]
 107 0004 08AB     	 add r3,sp,#32
 108              	.LVL9:
 109 0006 171C     	 mov r7,r2
 110 0008 04CB     	 ldmia r3!,{r2}
 111              	.LVL10:
 112 000a 041C     	 mov r4,r0
 113 000c 1B88     	 ldrh r3,[r3]
 114              	.LVL11:
 115 000e 0E1C     	 mov r6,r1
 116 0010 0193     	 str r3,[sp,#4]
 342://MAC/Home/Downloads/getstarted-optiga-trust-m/optiga-trust-m-1/optiga/crypt/optiga_crypt.c ****         {
 117              	 .loc 1 342 0
 118 0012 838D     	 ldrh r3,[r0,#44]
 119 0014 012B     	 cmp r3,#1
 120 0016 26D0     	 beq .L10
 348://MAC/Home/Downloads/getstarted-optiga-trust-m/optiga-trust-m-1/optiga/crypt/optiga_crypt.c ****         p_params = (optiga_get_random_params_t *)&(me->params.optiga_get_random_params);
 121              	 .loc 1 348 0
 122 0018 0125     	 mov r5,#1
 350://MAC/Home/Downloads/getstarted-optiga-trust-m/optiga-trust-m-1/optiga/crypt/optiga_crypt.c **** 
 123              	 .loc 1 350 0
 124 001a 0021     	 mov r1,#0
 125              	.LVL12:
 348://MAC/Home/Downloads/getstarted-optiga-trust-m/optiga-trust-m-1/optiga/crypt/optiga_crypt.c ****         p_params = (optiga_get_random_params_t *)&(me->params.optiga_get_random_params);
 126              	 .loc 1 348 0
 127 001c 8585     	 strh r5,[r0,#44]
 128              	.LVL13:
 350://MAC/Home/Downloads/getstarted-optiga-trust-m/optiga-trust-m-1/optiga/crypt/optiga_crypt.c **** 
 129              	 .loc 1 350 0
 130 001e 2022     	 mov r2,#32
 131 0020 FFF7FEFF 	 bl memset
 132              	.LVL14:
 352://MAC/Home/Downloads/getstarted-optiga-trust-m/optiga-trust-m-1/optiga/crypt/optiga_crypt.c ****         p_params->optional_data_length = optional_data_length;
 133              	 .loc 1 352 0
 134 0024 089B     	 ldr r3,[sp,#32]
 354://MAC/Home/Downloads/getstarted-optiga-trust-m/optiga-trust-m-1/optiga/crypt/optiga_crypt.c ****         p_params->random_data_length = random_data_length;
 135              	 .loc 1 354 0
 136 0026 6760     	 str r7,[r4,#4]
 352://MAC/Home/Downloads/getstarted-optiga-trust-m/optiga-trust-m-1/optiga/crypt/optiga_crypt.c ****         p_params->optional_data_length = optional_data_length;
 137              	 .loc 1 352 0
 138 0028 A360     	 str r3,[r4,#8]
 353://MAC/Home/Downloads/getstarted-optiga-trust-m/optiga-trust-m-1/optiga/crypt/optiga_crypt.c ****         p_params->random_data = p_random_data;
 139              	 .loc 1 353 0
 140 002a 6B46     	 mov r3,sp
 141 002c 9B88     	 ldrh r3,[r3,#4]
 356://MAC/Home/Downloads/getstarted-optiga-trust-m/optiga-trust-m-1/optiga/crypt/optiga_crypt.c ****         OPTIGA_PROTECTION_SET_VERSION(me->my_cmd, me);
 142              	 .loc 1 356 0
 143 002e 206A     	 ldr r0,[r4,#32]
 353://MAC/Home/Downloads/getstarted-optiga-trust-m/optiga-trust-m-1/optiga/crypt/optiga_crypt.c ****         p_params->random_data = p_random_data;
 144              	 .loc 1 353 0
 145 0030 6380     	 strh r3,[r4,#2]
 355://MAC/Home/Downloads/getstarted-optiga-trust-m/optiga-trust-m-1/optiga/crypt/optiga_crypt.c ****         OPTIGA_PROTECTION_ENABLE(me->my_cmd, me);
 146              	 .loc 1 355 0
 147 0032 6B46     	 mov r3,sp
 148 0034 1B88     	 ldrh r3,[r3]
 356://MAC/Home/Downloads/getstarted-optiga-trust-m/optiga-trust-m-1/optiga/crypt/optiga_crypt.c ****         OPTIGA_PROTECTION_SET_VERSION(me->my_cmd, me);
 149              	 .loc 1 356 0
 150 0036 0022     	 mov r2,#0
 355://MAC/Home/Downloads/getstarted-optiga-trust-m/optiga-trust-m-1/optiga/crypt/optiga_crypt.c ****         OPTIGA_PROTECTION_ENABLE(me->my_cmd, me);
 151              	 .loc 1 355 0
 152 0038 2380     	 strh r3,[r4]
 356://MAC/Home/Downloads/getstarted-optiga-trust-m/optiga-trust-m-1/optiga/crypt/optiga_crypt.c ****         OPTIGA_PROTECTION_SET_VERSION(me->my_cmd, me);
 153              	 .loc 1 356 0
 154 003a 231C     	 mov r3,r4
 155 003c 2E33     	 add r3,r3,#46
 156 003e 1978     	 ldrb r1,[r3]
 157 0040 FFF7FEFF 	 bl optiga_cmd_set_shielded_connection_option
 158              	.LVL15:
 357://MAC/Home/Downloads/getstarted-optiga-trust-m/optiga-trust-m-1/optiga/crypt/optiga_crypt.c **** 
 159              	 .loc 1 357 0
 160 0044 231C     	 mov r3,r4
 161 0046 2F33     	 add r3,r3,#47
 162 0048 1978     	 ldrb r1,[r3]
 163 004a 2A1C     	 mov r2,r5
 164 004c 206A     	 ldr r0,[r4,#32]
 165 004e FFF7FEFF 	 bl optiga_cmd_set_shielded_connection_option
 166              	.LVL16:
 359://MAC/Home/Downloads/getstarted-optiga-trust-m/optiga-trust-m-1/optiga/crypt/optiga_crypt.c ****                                              (uint8_t)cmd_param,
 167              	 .loc 1 359 0
 168 0052 206A     	 ldr r0,[r4,#32]
 169 0054 311C     	 mov r1,r6
 170 0056 221C     	 mov r2,r4
 171 0058 FFF7FEFF 	 bl optiga_cmd_get_random
 172              	.LVL17:
 173 005c 051E     	 sub r5,r0,#0
 174              	.LVL18:
 362://MAC/Home/Downloads/getstarted-optiga-trust-m/optiga-trust-m-1/optiga/crypt/optiga_crypt.c ****         {
 175              	 .loc 1 362 0
 176 005e 03D0     	 beq .L9
 364://MAC/Home/Downloads/getstarted-optiga-trust-m/optiga-trust-m-1/optiga/crypt/optiga_crypt.c ****         }
 177              	 .loc 1 364 0
 178 0060 0023     	 mov r3,#0
 179 0062 A385     	 strh r3,[r4,#44]
 180 0064 00E0     	 b .L9
 181              	.LVL19:
 182              	.L10:
 344://MAC/Home/Downloads/getstarted-optiga-trust-m/optiga-trust-m-1/optiga/crypt/optiga_crypt.c ****             break;
 183              	 .loc 1 344 0
 184 0066 034D     	 ldr r5,.L14
 185              	.LVL20:
 186              	.L9:
 367://MAC/Home/Downloads/getstarted-optiga-trust-m/optiga-trust-m-1/optiga/crypt/optiga_crypt.c **** 
 187              	 .loc 1 367 0
 188 0068 201C     	 mov r0,r4
 189 006a FFF7FEFF 	 bl optiga_crypt_reset_protection_level
 190              	.LVL21:
 370://MAC/Home/Downloads/getstarted-optiga-trust-m/optiga-trust-m-1/optiga/crypt/optiga_crypt.c **** #endif //(OPTIGA_CRYPT_RANDOM_ENABLED) || (OPTIGA_CRYPT_RSA_PRE_MASTER_SECRET_ENABLED)
 191              	 .loc 1 370 0
 192              	 
 193 006e 281C     	 mov r0,r5
 194              	.LVL22:
 195              	.LVL23:
 196              	.LVL24:
 197 0070 FEBD     	 pop {r1,r2,r3,r4,r5,r6,r7,pc}
 198              	.L15:
 199 0072 C046     	 .align 2
 200              	.L14:
 201 0074 05040000 	 .word 1029
 202              	 .cfi_endproc
 203              	.LFE6:
 205              	 .section .text.optiga_crypt_generate_keypair,"ax",%progbits
 206              	 .align 1
 207              	 .code 16
 208              	 .thumb_func
 210              	optiga_crypt_generate_keypair:
 211              	.LFB2:
  86://MAC/Home/Downloads/getstarted-optiga-trust-m/optiga-trust-m-1/optiga/crypt/optiga_crypt.c ****     optiga_lib_status_t return_value = OPTIGA_CRYPT_ERROR;
 212              	 .loc 1 86 0
 213              	 .cfi_startproc
 214              	.LVL25:
 215 0000 F7B5     	 push {r0,r1,r2,r4,r5,r6,r7,lr}
 216              	.LCFI2:
 217              	 .cfi_def_cfa_offset 32
 218              	 .cfi_offset 0,-32
 219              	 .cfi_offset 1,-28
 220              	 .cfi_offset 2,-24
 221              	 .cfi_offset 4,-20
 222              	 .cfi_offset 5,-16
 223              	 .cfi_offset 6,-12
 224              	 .cfi_offset 7,-8
 225              	 .cfi_offset 14,-4
  86://MAC/Home/Downloads/getstarted-optiga-trust-m/optiga-trust-m-1/optiga/crypt/optiga_crypt.c ****     optiga_lib_status_t return_value = OPTIGA_CRYPT_ERROR;
 226              	 .loc 1 86 0
 227 0002 041C     	 mov r4,r0
 228 0004 0091     	 str r1,[sp]
 229 0006 0192     	 str r2,[sp,#4]
 230 0008 1D1C     	 mov r5,r3
  93://MAC/Home/Downloads/getstarted-optiga-trust-m/optiga-trust-m-1/optiga/crypt/optiga_crypt.c ****             (NULL == p_public_key) || (NULL == p_private_key) || (NULL == p_public_key_length))
 231              	 .loc 1 93 0
 232 000a 0028     	 cmp r0,#0
 233 000c 3AD0     	 beq .L24
  93://MAC/Home/Downloads/getstarted-optiga-trust-m/optiga-trust-m-1/optiga/crypt/optiga_crypt.c ****             (NULL == p_public_key) || (NULL == p_private_key) || (NULL == p_public_key_length))
 234              	 .loc 1 93 0 is_stmt 0 discriminator 1
 235 000e 076A     	 ldr r7,[r0,#32]
 236 0010 002F     	 cmp r7,#0
 237 0012 37D0     	 beq .L24
  93://MAC/Home/Downloads/getstarted-optiga-trust-m/optiga-trust-m-1/optiga/crypt/optiga_crypt.c ****             (NULL == p_public_key) || (NULL == p_private_key) || (NULL == p_public_key_length))
 238              	 .loc 1 93 0 discriminator 2
 239 0014 099B     	 ldr r3,[sp,#36]
 240              	.LVL26:
 241 0016 002B     	 cmp r3,#0
 242 0018 34D0     	 beq .L24
  94://MAC/Home/Downloads/getstarted-optiga-trust-m/optiga-trust-m-1/optiga/crypt/optiga_crypt.c ****         {
 243              	 .loc 1 94 0 is_stmt 1
 244 001a 089B     	 ldr r3,[sp,#32]
 245 001c 002B     	 cmp r3,#0
 246 001e 31D0     	 beq .L24
  94://MAC/Home/Downloads/getstarted-optiga-trust-m/optiga-trust-m-1/optiga/crypt/optiga_crypt.c ****         {
 247              	 .loc 1 94 0 is_stmt 0 discriminator 1
 248 0020 0A9B     	 ldr r3,[sp,#40]
 249 0022 002B     	 cmp r3,#0
 250 0024 2ED0     	 beq .L24
 100://MAC/Home/Downloads/getstarted-optiga-trust-m/optiga-trust-m-1/optiga/crypt/optiga_crypt.c ****         {
 251              	 .loc 1 100 0 is_stmt 1
 252 0026 838D     	 ldrh r3,[r0,#44]
 253 0028 012B     	 cmp r3,#1
 254 002a 2DD0     	 beq .L25
 106://MAC/Home/Downloads/getstarted-optiga-trust-m/optiga-trust-m-1/optiga/crypt/optiga_crypt.c ****         p_params = (optiga_gen_keypair_params_t *)&(me->params.optiga_gen_keypair_params);
 255              	 .loc 1 106 0
 256 002c 0126     	 mov r6,#1
 108://MAC/Home/Downloads/getstarted-optiga-trust-m/optiga-trust-m-1/optiga/crypt/optiga_crypt.c **** 
 257              	 .loc 1 108 0
 258 002e 0021     	 mov r1,#0
 259              	.LVL27:
 260 0030 2022     	 mov r2,#32
 261              	.LVL28:
 106://MAC/Home/Downloads/getstarted-optiga-trust-m/optiga-trust-m-1/optiga/crypt/optiga_crypt.c ****         p_params = (optiga_gen_keypair_params_t *)&(me->params.optiga_gen_keypair_params);
 262              	 .loc 1 106 0
 263 0032 8685     	 strh r6,[r0,#44]
 264              	.LVL29:
 108://MAC/Home/Downloads/getstarted-optiga-trust-m/optiga-trust-m-1/optiga/crypt/optiga_crypt.c **** 
 265              	 .loc 1 108 0
 266 0034 FFF7FEFF 	 bl memset
 267              	.LVL30:
 110://MAC/Home/Downloads/getstarted-optiga-trust-m/optiga-trust-m-1/optiga/crypt/optiga_crypt.c ****         p_params->export_private_key = export_private_key;
 268              	 .loc 1 110 0
 269 0038 6B46     	 mov r3,sp
 270 003a 1B79     	 ldrb r3,[r3,#4]
 111://MAC/Home/Downloads/getstarted-optiga-trust-m/optiga-trust-m-1/optiga/crypt/optiga_crypt.c ****         p_params->public_key_length = p_public_key_length;
 271              	 .loc 1 111 0
 272 003c 6570     	 strb r5,[r4,#1]
 110://MAC/Home/Downloads/getstarted-optiga-trust-m/optiga-trust-m-1/optiga/crypt/optiga_crypt.c ****         p_params->export_private_key = export_private_key;
 273              	 .loc 1 110 0
 274 003e 2370     	 strb r3,[r4]
 112://MAC/Home/Downloads/getstarted-optiga-trust-m/optiga-trust-m-1/optiga/crypt/optiga_crypt.c ****         OPTIGA_PROTECTION_ENABLE(me->my_cmd, me);
 275              	 .loc 1 112 0
 276 0040 0A9B     	 ldr r3,[sp,#40]
 113://MAC/Home/Downloads/getstarted-optiga-trust-m/optiga-trust-m-1/optiga/crypt/optiga_crypt.c ****         OPTIGA_PROTECTION_SET_VERSION(me->my_cmd, me);
 277              	 .loc 1 113 0
 278 0042 381C     	 mov r0,r7
 112://MAC/Home/Downloads/getstarted-optiga-trust-m/optiga-trust-m-1/optiga/crypt/optiga_crypt.c ****         OPTIGA_PROTECTION_ENABLE(me->my_cmd, me);
 279              	 .loc 1 112 0
 280 0044 2361     	 str r3,[r4,#16]
 113://MAC/Home/Downloads/getstarted-optiga-trust-m/optiga-trust-m-1/optiga/crypt/optiga_crypt.c ****         OPTIGA_PROTECTION_SET_VERSION(me->my_cmd, me);
 281              	 .loc 1 113 0
 282 0046 231C     	 mov r3,r4
 283 0048 2E33     	 add r3,r3,#46
 284 004a 1978     	 ldrb r1,[r3]
 285 004c 0022     	 mov r2,#0
 286 004e FFF7FEFF 	 bl optiga_cmd_set_shielded_connection_option
 287              	.LVL31:
 114://MAC/Home/Downloads/getstarted-optiga-trust-m/optiga-trust-m-1/optiga/crypt/optiga_crypt.c **** 
 288              	 .loc 1 114 0
 289 0052 231C     	 mov r3,r4
 290 0054 2F33     	 add r3,r3,#47
 291 0056 1978     	 ldrb r1,[r3]
 292 0058 206A     	 ldr r0,[r4,#32]
 293 005a 321C     	 mov r2,r6
 294 005c FFF7FEFF 	 bl optiga_cmd_set_shielded_connection_option
 295              	.LVL32:
 118://MAC/Home/Downloads/getstarted-optiga-trust-m/optiga-trust-m-1/optiga/crypt/optiga_crypt.c ****         }
 296              	 .loc 1 118 0
 297 0060 089B     	 ldr r3,[sp,#32]
 116://MAC/Home/Downloads/getstarted-optiga-trust-m/optiga-trust-m-1/optiga/crypt/optiga_crypt.c ****         {
 298              	 .loc 1 116 0
 299 0062 002D     	 cmp r5,#0
 300 0064 01D0     	 beq .L18
 118://MAC/Home/Downloads/getstarted-optiga-trust-m/optiga-trust-m-1/optiga/crypt/optiga_crypt.c ****         }
 301              	 .loc 1 118 0
 302 0066 6360     	 str r3,[r4,#4]
 303 0068 01E0     	 b .L19
 304              	.L18:
 122://MAC/Home/Downloads/getstarted-optiga-trust-m/optiga-trust-m-1/optiga/crypt/optiga_crypt.c ****         }
 305              	 .loc 1 122 0
 306 006a 1B88     	 ldrh r3,[r3]
 307 006c 6380     	 strh r3,[r4,#2]
 308              	.L19:
 125://MAC/Home/Downloads/getstarted-optiga-trust-m/optiga-trust-m-1/optiga/crypt/optiga_crypt.c ****         p_params->public_key_length = p_public_key_length;
 309              	 .loc 1 125 0
 310 006e 099B     	 ldr r3,[sp,#36]
 128://MAC/Home/Downloads/getstarted-optiga-trust-m/optiga-trust-m-1/optiga/crypt/optiga_crypt.c ****                                               (uint8_t )cmd_param,
 311              	 .loc 1 128 0
 312 0070 206A     	 ldr r0,[r4,#32]
 125://MAC/Home/Downloads/getstarted-optiga-trust-m/optiga-trust-m-1/optiga/crypt/optiga_crypt.c ****         p_params->public_key_length = p_public_key_length;
 313              	 .loc 1 125 0
 314 0072 E360     	 str r3,[r4,#12]
 126://MAC/Home/Downloads/getstarted-optiga-trust-m/optiga-trust-m-1/optiga/crypt/optiga_crypt.c **** 
 315              	 .loc 1 126 0
 316 0074 0A9B     	 ldr r3,[sp,#40]
 128://MAC/Home/Downloads/getstarted-optiga-trust-m/optiga-trust-m-1/optiga/crypt/optiga_crypt.c ****                                               (uint8_t )cmd_param,
 317              	 .loc 1 128 0
 318 0076 0099     	 ldr r1,[sp]
 126://MAC/Home/Downloads/getstarted-optiga-trust-m/optiga-trust-m-1/optiga/crypt/optiga_crypt.c **** 
 319              	 .loc 1 126 0
 320 0078 2361     	 str r3,[r4,#16]
 128://MAC/Home/Downloads/getstarted-optiga-trust-m/optiga-trust-m-1/optiga/crypt/optiga_crypt.c ****                                               (uint8_t )cmd_param,
 321              	 .loc 1 128 0
 322 007a 221C     	 mov r2,r4
 323 007c FFF7FEFF 	 bl optiga_cmd_gen_keypair
 324              	.LVL33:
 325 0080 051C     	 mov r5,r0
 326              	.LVL34:
 327 0082 02E0     	 b .L17
 328              	.LVL35:
 329              	.L24:
  96://MAC/Home/Downloads/getstarted-optiga-trust-m/optiga-trust-m-1/optiga/crypt/optiga_crypt.c ****             break;
 330              	 .loc 1 96 0
 331 0084 034D     	 ldr r5,.L26
 332 0086 00E0     	 b .L17
 333              	.L25:
 102://MAC/Home/Downloads/getstarted-optiga-trust-m/optiga-trust-m-1/optiga/crypt/optiga_crypt.c ****             break;
 334              	 .loc 1 102 0
 335 0088 034D     	 ldr r5,.L26+4
 336              	.LVL36:
 337              	.L17:
 132://MAC/Home/Downloads/getstarted-optiga-trust-m/optiga-trust-m-1/optiga/crypt/optiga_crypt.c **** 
 338              	 .loc 1 132 0
 339 008a 201C     	 mov r0,r4
 340 008c FFF7FEFF 	 bl optiga_crypt_reset_protection_level
 341              	.LVL37:
 135://MAC/Home/Downloads/getstarted-optiga-trust-m/optiga-trust-m-1/optiga/crypt/optiga_crypt.c **** #endif // (OPTIGA_CRYPT_ECC_GENERATE_KEYPAIR_ENABLED) || (OPTIGA_CRYPT_RSA_GENERATE_KEYPAIR_ENABLED
 342              	 .loc 1 135 0
 343              	 
 344 0090 281C     	 mov r0,r5
 345              	.LVL38:
 346              	.LVL39:
 347 0092 FEBD     	 pop {r1,r2,r3,r4,r5,r6,r7,pc}
 348              	.L27:
 349              	 .align 2
 350              	.L26:
 351 0094 03040000 	 .word 1027
 352 0098 05040000 	 .word 1029
 353              	 .cfi_endproc
 354              	.LFE2:
 356              	 .section .text.optiga_crypt_sign.isra.0,"ax",%progbits
 357              	 .align 1
 358              	 .code 16
 359              	 .thumb_func
 361              	optiga_crypt_sign.isra.0:
 362              	.LFB27:
 140://MAC/Home/Downloads/getstarted-optiga-trust-m/optiga-trust-m-1/optiga/crypt/optiga_crypt.c ****                                                 uint8_t signature_scheme,
 363              	 .loc 1 140 0
 364              	 .cfi_startproc
 365              	.LVL40:
 366 0000 F0B5     	 push {r4,r5,r6,r7,lr}
 367              	.LCFI3:
 368              	 .cfi_def_cfa_offset 20
 369              	 .cfi_offset 4,-20
 370              	 .cfi_offset 5,-16
 371              	 .cfi_offset 6,-12
 372              	 .cfi_offset 7,-8
 373              	 .cfi_offset 14,-4
 374 0002 85B0     	 sub sp,sp,#20
 375              	.LCFI4:
 376              	 .cfi_def_cfa_offset 40
 140://MAC/Home/Downloads/getstarted-optiga-trust-m/optiga-trust-m-1/optiga/crypt/optiga_crypt.c ****                                                 uint8_t signature_scheme,
 377              	 .loc 1 140 0
 378 0004 0293     	 str r3,[sp,#8]
 379 0006 0AAB     	 add r3,sp,#40
 380              	.LVL41:
 381 0008 1B88     	 ldrh r3,[r3]
 382              	.LVL42:
 383 000a 041C     	 mov r4,r0
 384 000c 0191     	 str r1,[sp,#4]
 385 000e 171C     	 mov r7,r2
 386 0010 0393     	 str r3,[sp,#12]
 155://MAC/Home/Downloads/getstarted-optiga-trust-m/optiga-trust-m-1/optiga/crypt/optiga_crypt.c ****             (NULL == p_signature) || (NULL == p_signature_length))
 387              	 .loc 1 155 0
 388 0012 0028     	 cmp r0,#0
 389 0014 36D0     	 beq .L34
 390 0016 056A     	 ldr r5,[r0,#32]
 391 0018 002D     	 cmp r5,#0
 392 001a 33D0     	 beq .L34
 393 001c 002A     	 cmp r2,#0
 394 001e 31D0     	 beq .L34
 395 0020 0B9B     	 ldr r3,[sp,#44]
 396 0022 002B     	 cmp r3,#0
 397 0024 2ED0     	 beq .L34
 156://MAC/Home/Downloads/getstarted-optiga-trust-m/optiga-trust-m-1/optiga/crypt/optiga_crypt.c ****         {
 398              	 .loc 1 156 0
 399 0026 0C9B     	 ldr r3,[sp,#48]
 400 0028 002B     	 cmp r3,#0
 401 002a 2BD0     	 beq .L34
 163://MAC/Home/Downloads/getstarted-optiga-trust-m/optiga-trust-m-1/optiga/crypt/optiga_crypt.c ****         {
 402              	 .loc 1 163 0
 403 002c 838D     	 ldrh r3,[r0,#44]
 404 002e 012B     	 cmp r3,#1
 405 0030 2AD0     	 beq .L35
 169://MAC/Home/Downloads/getstarted-optiga-trust-m/optiga-trust-m-1/optiga/crypt/optiga_crypt.c **** 
 406              	 .loc 1 169 0
 407 0032 0126     	 mov r6,#1
 172://MAC/Home/Downloads/getstarted-optiga-trust-m/optiga-trust-m-1/optiga/crypt/optiga_crypt.c **** 
 408              	 .loc 1 172 0
 409 0034 0021     	 mov r1,#0
 410              	.LVL43:
 411 0036 2022     	 mov r2,#32
 412              	.LVL44:
 169://MAC/Home/Downloads/getstarted-optiga-trust-m/optiga-trust-m-1/optiga/crypt/optiga_crypt.c **** 
 413              	 .loc 1 169 0
 414 0038 8685     	 strh r6,[r0,#44]
 415              	.LVL45:
 172://MAC/Home/Downloads/getstarted-optiga-trust-m/optiga-trust-m-1/optiga/crypt/optiga_crypt.c **** 
 416              	 .loc 1 172 0
 417 003a FFF7FEFF 	 bl memset
 418              	.LVL46:
 175://MAC/Home/Downloads/getstarted-optiga-trust-m/optiga-trust-m-1/optiga/crypt/optiga_crypt.c ****         p_params->private_key_oid = private_key;
 419              	 .loc 1 175 0
 420 003e 6B46     	 mov r3,sp
 421 0040 1B7A     	 ldrb r3,[r3,#8]
 174://MAC/Home/Downloads/getstarted-optiga-trust-m/optiga-trust-m-1/optiga/crypt/optiga_crypt.c ****         p_params->digest_length = digest_length;
 422              	 .loc 1 174 0
 423 0042 2760     	 str r7,[r4]
 175://MAC/Home/Downloads/getstarted-optiga-trust-m/optiga-trust-m-1/optiga/crypt/optiga_crypt.c ****         p_params->private_key_oid = private_key;
 424              	 .loc 1 175 0
 425 0044 A373     	 strb r3,[r4,#14]
 176://MAC/Home/Downloads/getstarted-optiga-trust-m/optiga-trust-m-1/optiga/crypt/optiga_crypt.c ****         p_params->p_signature = p_signature;
 426              	 .loc 1 176 0
 427 0046 6B46     	 mov r3,sp
 428 0048 9B89     	 ldrh r3,[r3,#12]
 179://MAC/Home/Downloads/getstarted-optiga-trust-m/optiga-trust-m-1/optiga/crypt/optiga_crypt.c ****         OPTIGA_PROTECTION_SET_VERSION(me->my_cmd, me);
 429              	 .loc 1 179 0
 430 004a 281C     	 mov r0,r5
 176://MAC/Home/Downloads/getstarted-optiga-trust-m/optiga-trust-m-1/optiga/crypt/optiga_crypt.c ****         p_params->p_signature = p_signature;
 431              	 .loc 1 176 0
 432 004c A381     	 strh r3,[r4,#12]
 177://MAC/Home/Downloads/getstarted-optiga-trust-m/optiga-trust-m-1/optiga/crypt/optiga_crypt.c ****         p_params->p_signature_length = p_signature_length;
 433              	 .loc 1 177 0
 434 004e 0B9B     	 ldr r3,[sp,#44]
 179://MAC/Home/Downloads/getstarted-optiga-trust-m/optiga-trust-m-1/optiga/crypt/optiga_crypt.c ****         OPTIGA_PROTECTION_SET_VERSION(me->my_cmd, me);
 435              	 .loc 1 179 0
 436 0050 0022     	 mov r2,#0
 177://MAC/Home/Downloads/getstarted-optiga-trust-m/optiga-trust-m-1/optiga/crypt/optiga_crypt.c ****         p_params->p_signature_length = p_signature_length;
 437              	 .loc 1 177 0
 438 0052 6360     	 str r3,[r4,#4]
 178://MAC/Home/Downloads/getstarted-optiga-trust-m/optiga-trust-m-1/optiga/crypt/optiga_crypt.c ****         OPTIGA_PROTECTION_ENABLE(me->my_cmd, me);
 439              	 .loc 1 178 0
 440 0054 0C9B     	 ldr r3,[sp,#48]
 441 0056 A360     	 str r3,[r4,#8]
 179://MAC/Home/Downloads/getstarted-optiga-trust-m/optiga-trust-m-1/optiga/crypt/optiga_crypt.c ****         OPTIGA_PROTECTION_SET_VERSION(me->my_cmd, me);
 442              	 .loc 1 179 0
 443 0058 231C     	 mov r3,r4
 444 005a 2E33     	 add r3,r3,#46
 445 005c 1978     	 ldrb r1,[r3]
 446 005e FFF7FEFF 	 bl optiga_cmd_set_shielded_connection_option
 447              	.LVL47:
 180://MAC/Home/Downloads/getstarted-optiga-trust-m/optiga-trust-m-1/optiga/crypt/optiga_crypt.c **** 
 448              	 .loc 1 180 0
 449 0062 231C     	 mov r3,r4
 450 0064 2F33     	 add r3,r3,#47
 451 0066 1978     	 ldrb r1,[r3]
 452 0068 206A     	 ldr r0,[r4,#32]
 453 006a 321C     	 mov r2,r6
 454 006c FFF7FEFF 	 bl optiga_cmd_set_shielded_connection_option
 455              	.LVL48:
 182://MAC/Home/Downloads/getstarted-optiga-trust-m/optiga-trust-m-1/optiga/crypt/optiga_crypt.c ****                                             signature_scheme,
 456              	 .loc 1 182 0
 457 0070 206A     	 ldr r0,[r4,#32]
 458 0072 0199     	 ldr r1,[sp,#4]
 459 0074 221C     	 mov r2,r4
 460 0076 FFF7FEFF 	 bl optiga_cmd_calc_sign
 461              	.LVL49:
 462 007a 051E     	 sub r5,r0,#0
 463              	.LVL50:
 185://MAC/Home/Downloads/getstarted-optiga-trust-m/optiga-trust-m-1/optiga/crypt/optiga_crypt.c ****         {
 464              	 .loc 1 185 0
 465 007c 05D0     	 beq .L29
 187://MAC/Home/Downloads/getstarted-optiga-trust-m/optiga-trust-m-1/optiga/crypt/optiga_crypt.c ****         }
 466              	 .loc 1 187 0
 467 007e 0023     	 mov r3,#0
 468 0080 A385     	 strh r3,[r4,#44]
 469 0082 02E0     	 b .L29
 470              	.LVL51:
 471              	.L34:
 158://MAC/Home/Downloads/getstarted-optiga-trust-m/optiga-trust-m-1/optiga/crypt/optiga_crypt.c ****             break;
 472              	 .loc 1 158 0
 473 0084 044D     	 ldr r5,.L39
 474 0086 00E0     	 b .L29
 475              	.L35:
 165://MAC/Home/Downloads/getstarted-optiga-trust-m/optiga-trust-m-1/optiga/crypt/optiga_crypt.c ****             break;
 476              	 .loc 1 165 0
 477 0088 044D     	 ldr r5,.L39+4
 478              	.LVL52:
 479              	.L29:
 190://MAC/Home/Downloads/getstarted-optiga-trust-m/optiga-trust-m-1/optiga/crypt/optiga_crypt.c **** 
 480              	 .loc 1 190 0
 481 008a 201C     	 mov r0,r4
 482 008c FFF7FEFF 	 bl optiga_crypt_reset_protection_level
 483              	.LVL53:
 193://MAC/Home/Downloads/getstarted-optiga-trust-m/optiga-trust-m-1/optiga/crypt/optiga_crypt.c **** #endif // (OPTIGA_CRYPT_ECDSA_SIGN_ENABLED) || (OPTIGA_CRYPT_RSA_SIGN_ENABLED)
 484              	 .loc 1 193 0
 485 0090 281C     	 mov r0,r5
 486 0092 05B0     	 add sp,sp,#20
 487              	 
 488              	.LVL54:
 489              	.LVL55:
 490              	.LVL56:
 491 0094 F0BD     	 pop {r4,r5,r6,r7,pc}
 492              	.L40:
 493 0096 C046     	 .align 2
 494              	.L39:
 495 0098 03040000 	 .word 1027
 496 009c 05040000 	 .word 1029
 497              	 .cfi_endproc
 498              	.LFE27:
 500              	 .section .text.optiga_crypt_verify.isra.1,"ax",%progbits
 501              	 .align 1
 502              	 .code 16
 503              	 .thumb_func
 505              	optiga_crypt_verify.isra.1:
 506              	.LFB28:
 198://MAC/Home/Downloads/getstarted-optiga-trust-m/optiga-trust-m-1/optiga/crypt/optiga_crypt.c ****                                                   uint8_t cmd_param,
 507              	 .loc 1 198 0
 508              	 .cfi_startproc
 509              	.LVL57:
 510 0000 F0B5     	 push {r4,r5,r6,r7,lr}
 511              	.LCFI5:
 512              	 .cfi_def_cfa_offset 20
 513              	 .cfi_offset 4,-20
 514              	 .cfi_offset 5,-16
 515              	 .cfi_offset 6,-12
 516              	 .cfi_offset 7,-8
 517              	 .cfi_offset 14,-4
 518 0002 85B0     	 sub sp,sp,#20
 519              	.LCFI6:
 520              	 .cfi_def_cfa_offset 40
 198://MAC/Home/Downloads/getstarted-optiga-trust-m/optiga-trust-m-1/optiga/crypt/optiga_crypt.c ****                                                   uint8_t cmd_param,
 521              	 .loc 1 198 0
 522 0004 0293     	 str r3,[sp,#8]
 523 0006 0AAB     	 add r3,sp,#40
 524              	.LVL58:
 525 0008 0092     	 str r2,[sp]
 526 000a 04CB     	 ldmia r3!,{r2}
 527              	.LVL59:
 528 000c 041C     	 mov r4,r0
 529 000e 1B88     	 ldrh r3,[r3]
 530              	.LVL60:
 531 0010 0191     	 str r1,[sp,#4]
 532 0012 0393     	 str r3,[sp,#12]
 533 0014 0CAB     	 add r3,sp,#48
 534              	.LVL61:
 535 0016 1D78     	 ldrb r5,[r3]
 214://MAC/Home/Downloads/getstarted-optiga-trust-m/optiga-trust-m-1/optiga/crypt/optiga_crypt.c ****             (NULL == p_digest) || (NULL == p_signature) || (NULL == p_public_key))
 536              	 .loc 1 214 0
 537 0018 0028     	 cmp r0,#0
 538 001a 3DD0     	 beq .L49
 539 001c 076A     	 ldr r7,[r0,#32]
 540 001e 002F     	 cmp r7,#0
 541 0020 3AD0     	 beq .L49
 542 0022 009B     	 ldr r3,[sp]
 543              	.LVL62:
 544 0024 002B     	 cmp r3,#0
 545 0026 37D0     	 beq .L49
 215://MAC/Home/Downloads/getstarted-optiga-trust-m/optiga-trust-m-1/optiga/crypt/optiga_crypt.c ****         {
 546              	 .loc 1 215 0
 547 0028 002A     	 cmp r2,#0
 548 002a 35D0     	 beq .L49
 549 002c 0D9B     	 ldr r3,[sp,#52]
 550 002e 002B     	 cmp r3,#0
 551 0030 32D0     	 beq .L49
 222://MAC/Home/Downloads/getstarted-optiga-trust-m/optiga-trust-m-1/optiga/crypt/optiga_crypt.c ****         {
 552              	 .loc 1 222 0
 553 0032 838D     	 ldrh r3,[r0,#44]
 554 0034 012B     	 cmp r3,#1
 555 0036 31D0     	 beq .L50
 228://MAC/Home/Downloads/getstarted-optiga-trust-m/optiga-trust-m-1/optiga/crypt/optiga_crypt.c ****         p_params = (optiga_verify_sign_params_t *)&(me->params.optiga_verify_sign_params);
 556              	 .loc 1 228 0
 557 0038 0126     	 mov r6,#1
 230://MAC/Home/Downloads/getstarted-optiga-trust-m/optiga-trust-m-1/optiga/crypt/optiga_crypt.c **** 
 558              	 .loc 1 230 0
 559 003a 0021     	 mov r1,#0
 560              	.LVL63:
 561 003c 2022     	 mov r2,#32
 228://MAC/Home/Downloads/getstarted-optiga-trust-m/optiga-trust-m-1/optiga/crypt/optiga_crypt.c ****         p_params = (optiga_verify_sign_params_t *)&(me->params.optiga_verify_sign_params);
 562              	 .loc 1 228 0
 563 003e 8685     	 strh r6,[r0,#44]
 564              	.LVL64:
 230://MAC/Home/Downloads/getstarted-optiga-trust-m/optiga-trust-m-1/optiga/crypt/optiga_crypt.c **** 
 565              	 .loc 1 230 0
 566 0040 FFF7FEFF 	 bl memset
 567              	.LVL65:
 232://MAC/Home/Downloads/getstarted-optiga-trust-m/optiga-trust-m-1/optiga/crypt/optiga_crypt.c ****         OPTIGA_PROTECTION_SET_VERSION(me->my_cmd, me);
 568              	 .loc 1 232 0
 569 0044 231C     	 mov r3,r4
 570 0046 2E33     	 add r3,r3,#46
 571 0048 1978     	 ldrb r1,[r3]
 572 004a 381C     	 mov r0,r7
 573 004c 0022     	 mov r2,#0
 574 004e FFF7FEFF 	 bl optiga_cmd_set_shielded_connection_option
 575              	.LVL66:
 233://MAC/Home/Downloads/getstarted-optiga-trust-m/optiga-trust-m-1/optiga/crypt/optiga_crypt.c ****         p_params->p_digest = p_digest;
 576              	 .loc 1 233 0
 577 0052 231C     	 mov r3,r4
 578 0054 2F33     	 add r3,r3,#47
 579 0056 1978     	 ldrb r1,[r3]
 580 0058 206A     	 ldr r0,[r4,#32]
 581 005a 321C     	 mov r2,r6
 582 005c FFF7FEFF 	 bl optiga_cmd_set_shielded_connection_option
 583              	.LVL67:
 234://MAC/Home/Downloads/getstarted-optiga-trust-m/optiga-trust-m-1/optiga/crypt/optiga_crypt.c ****         p_params->digest_length = digest_length;
 584              	 .loc 1 234 0
 585 0060 009B     	 ldr r3,[sp]
 238://MAC/Home/Downloads/getstarted-optiga-trust-m/optiga-trust-m-1/optiga/crypt/optiga_crypt.c **** 
 586              	 .loc 1 238 0
 587 0062 A573     	 strb r5,[r4,#14]
 234://MAC/Home/Downloads/getstarted-optiga-trust-m/optiga-trust-m-1/optiga/crypt/optiga_crypt.c ****         p_params->digest_length = digest_length;
 588              	 .loc 1 234 0
 589 0064 2360     	 str r3,[r4]
 235://MAC/Home/Downloads/getstarted-optiga-trust-m/optiga-trust-m-1/optiga/crypt/optiga_crypt.c ****         p_params->p_signature = p_signature;
 590              	 .loc 1 235 0
 591 0066 6B46     	 mov r3,sp
 592 0068 1B7A     	 ldrb r3,[r3,#8]
 593 006a 2371     	 strb r3,[r4,#4]
 236://MAC/Home/Downloads/getstarted-optiga-trust-m/optiga-trust-m-1/optiga/crypt/optiga_crypt.c ****         p_params->signature_length = signature_length;
 594              	 .loc 1 236 0
 595 006c 0A9B     	 ldr r3,[sp,#40]
 596 006e A360     	 str r3,[r4,#8]
 237://MAC/Home/Downloads/getstarted-optiga-trust-m/optiga-trust-m-1/optiga/crypt/optiga_crypt.c ****         p_params->public_key_source_type = public_key_source_type;
 597              	 .loc 1 237 0
 598 0070 6B46     	 mov r3,sp
 599 0072 9B89     	 ldrh r3,[r3,#12]
 600 0074 A381     	 strh r3,[r4,#12]
 242://MAC/Home/Downloads/getstarted-optiga-trust-m/optiga-trust-m-1/optiga/crypt/optiga_crypt.c ****         }
 601              	 .loc 1 242 0
 602 0076 0D9B     	 ldr r3,[sp,#52]
 240://MAC/Home/Downloads/getstarted-optiga-trust-m/optiga-trust-m-1/optiga/crypt/optiga_crypt.c ****         {
 603              	 .loc 1 240 0
 604 0078 002D     	 cmp r5,#0
 605 007a 02D1     	 bne .L43
 242://MAC/Home/Downloads/getstarted-optiga-trust-m/optiga-trust-m-1/optiga/crypt/optiga_crypt.c ****         }
 606              	 .loc 1 242 0
 607 007c 1B88     	 ldrh r3,[r3]
 608 007e A382     	 strh r3,[r4,#20]
 609 0080 00E0     	 b .L44
 610              	.L43:
 246://MAC/Home/Downloads/getstarted-optiga-trust-m/optiga-trust-m-1/optiga/crypt/optiga_crypt.c ****         }
 611              	 .loc 1 246 0
 612 0082 2361     	 str r3,[r4,#16]
 613              	.L44:
 249://MAC/Home/Downloads/getstarted-optiga-trust-m/optiga-trust-m-1/optiga/crypt/optiga_crypt.c ****                                              (uint8_t)cmd_param,
 614              	 .loc 1 249 0
 615 0084 206A     	 ldr r0,[r4,#32]
 616 0086 0199     	 ldr r1,[sp,#4]
 617 0088 221C     	 mov r2,r4
 618 008a FFF7FEFF 	 bl optiga_cmd_verify_sign
 619              	.LVL68:
 620 008e 051E     	 sub r5,r0,#0
 621              	.LVL69:
 252://MAC/Home/Downloads/getstarted-optiga-trust-m/optiga-trust-m-1/optiga/crypt/optiga_crypt.c ****         {
 622              	 .loc 1 252 0
 623 0090 05D0     	 beq .L42
 254://MAC/Home/Downloads/getstarted-optiga-trust-m/optiga-trust-m-1/optiga/crypt/optiga_crypt.c ****         }
 624              	 .loc 1 254 0
 625 0092 0023     	 mov r3,#0
 626 0094 A385     	 strh r3,[r4,#44]
 627 0096 02E0     	 b .L42
 628              	.LVL70:
 629              	.L49:
 217://MAC/Home/Downloads/getstarted-optiga-trust-m/optiga-trust-m-1/optiga/crypt/optiga_crypt.c ****             break;
 630              	 .loc 1 217 0
 631 0098 044D     	 ldr r5,.L54
 632 009a 00E0     	 b .L42
 633              	.L50:
 224://MAC/Home/Downloads/getstarted-optiga-trust-m/optiga-trust-m-1/optiga/crypt/optiga_crypt.c ****             break;
 634              	 .loc 1 224 0
 635 009c 044D     	 ldr r5,.L54+4
 636              	.LVL71:
 637              	.L42:
 257://MAC/Home/Downloads/getstarted-optiga-trust-m/optiga-trust-m-1/optiga/crypt/optiga_crypt.c **** 
 638              	 .loc 1 257 0
 639 009e 201C     	 mov r0,r4
 640 00a0 FFF7FEFF 	 bl optiga_crypt_reset_protection_level
 641              	.LVL72:
 260://MAC/Home/Downloads/getstarted-optiga-trust-m/optiga-trust-m-1/optiga/crypt/optiga_crypt.c **** #endif //(OPTIGA_CRYPT_ECDSA_VERIFY_ENABLED) || (OPTIGA_CRYPT_RSA_VERIFY_ENABLED)
 642              	 .loc 1 260 0
 643 00a4 281C     	 mov r0,r5
 644 00a6 05B0     	 add sp,sp,#20
 645              	.LVL73:
 646              	 
 647              	.LVL74:
 648              	.LVL75:
 649 00a8 F0BD     	 pop {r4,r5,r6,r7,pc}
 650              	.L55:
 651 00aa C046     	 .align 2
 652              	.L54:
 653 00ac 03040000 	 .word 1027
 654 00b0 05040000 	 .word 1029
 655              	 .cfi_endproc
 656              	.LFE28:
 658              	 .section .text.optiga_crypt_rsa_enc_dec.isra.2,"ax",%progbits
 659              	 .align 1
 660              	 .code 16
 661              	 .thumb_func
 663              	optiga_crypt_rsa_enc_dec.isra.2:
 664              	.LFB29:
 265://MAC/Home/Downloads/getstarted-optiga-trust-m/optiga-trust-m-1/optiga/crypt/optiga_crypt.c ****                                                        optiga_rsa_encryption_scheme_t encryption_sc
 665              	 .loc 1 265 0
 666              	 .cfi_startproc
 667              	.LVL76:
 668 0000 F0B5     	 push {r4,r5,r6,r7,lr}
 669              	.LCFI7:
 670              	 .cfi_def_cfa_offset 20
 671              	 .cfi_offset 4,-20
 672              	 .cfi_offset 5,-16
 673              	 .cfi_offset 6,-12
 674              	 .cfi_offset 7,-8
 675              	 .cfi_offset 14,-4
 676 0002 85B0     	 sub sp,sp,#20
 677              	.LCFI8:
 678              	 .cfi_def_cfa_offset 40
 265://MAC/Home/Downloads/getstarted-optiga-trust-m/optiga-trust-m-1/optiga/crypt/optiga_crypt.c ****                                                        optiga_rsa_encryption_scheme_t encryption_sc
 679              	 .loc 1 265 0
 680 0004 0293     	 str r3,[sp,#8]
 681 0006 0AAB     	 add r3,sp,#40
 682              	.LVL77:
 683 0008 1B78     	 ldrb r3,[r3]
 684              	.LVL78:
 685 000a 0192     	 str r2,[sp,#4]
 686 000c 0393     	 str r3,[sp,#12]
 687 000e 0EAB     	 add r3,sp,#56
 688              	.LVL79:
 689 0010 1E78     	 ldrb r6,[r3]
 282://MAC/Home/Downloads/getstarted-optiga-trust-m/optiga-trust-m-1/optiga/crypt/optiga_crypt.c ****         {
 690              	 .loc 1 282 0
 691 0012 838D     	 ldrh r3,[r0,#44]
 692              	.LVL80:
 265://MAC/Home/Downloads/getstarted-optiga-trust-m/optiga-trust-m-1/optiga/crypt/optiga_crypt.c ****                                                        optiga_rsa_encryption_scheme_t encryption_sc
 693              	 .loc 1 265 0
 694 0014 041C     	 mov r4,r0
 695 0016 0D1C     	 mov r5,r1
 282://MAC/Home/Downloads/getstarted-optiga-trust-m/optiga-trust-m-1/optiga/crypt/optiga_crypt.c ****         {
 696              	 .loc 1 282 0
 697 0018 012B     	 cmp r3,#1
 698 001a 39D0     	 beq .L60
 287://MAC/Home/Downloads/getstarted-optiga-trust-m/optiga-trust-m-1/optiga/crypt/optiga_crypt.c **** 
 699              	 .loc 1 287 0
 700 001c 0127     	 mov r7,#1
 290://MAC/Home/Downloads/getstarted-optiga-trust-m/optiga-trust-m-1/optiga/crypt/optiga_crypt.c **** 
 701              	 .loc 1 290 0
 702 001e 0021     	 mov r1,#0
 703              	.LVL81:
 704 0020 2022     	 mov r2,#32
 705              	.LVL82:
 287://MAC/Home/Downloads/getstarted-optiga-trust-m/optiga-trust-m-1/optiga/crypt/optiga_crypt.c **** 
 706              	 .loc 1 287 0
 707 0022 8785     	 strh r7,[r0,#44]
 708              	.LVL83:
 290://MAC/Home/Downloads/getstarted-optiga-trust-m/optiga-trust-m-1/optiga/crypt/optiga_crypt.c **** 
 709              	 .loc 1 290 0
 710 0024 FFF7FEFF 	 bl memset
 711              	.LVL84:
 292://MAC/Home/Downloads/getstarted-optiga-trust-m/optiga-trust-m-1/optiga/crypt/optiga_crypt.c ****         p_params->message_length = message_length;
 712              	 .loc 1 292 0
 713 0028 019B     	 ldr r3,[sp,#4]
 297://MAC/Home/Downloads/getstarted-optiga-trust-m/optiga-trust-m-1/optiga/crypt/optiga_crypt.c ****         OPTIGA_PROTECTION_SET_VERSION(me->my_cmd, me);
 714              	 .loc 1 297 0
 715 002a 206A     	 ldr r0,[r4,#32]
 292://MAC/Home/Downloads/getstarted-optiga-trust-m/optiga-trust-m-1/optiga/crypt/optiga_crypt.c ****         p_params->message_length = message_length;
 716              	 .loc 1 292 0
 717 002c A360     	 str r3,[r4,#8]
 293://MAC/Home/Downloads/getstarted-optiga-trust-m/optiga-trust-m-1/optiga/crypt/optiga_crypt.c ****         p_params->processed_message = p_processed_message;
 718              	 .loc 1 293 0
 719 002e 6B46     	 mov r3,sp
 720 0030 1B89     	 ldrh r3,[r3,#8]
 297://MAC/Home/Downloads/getstarted-optiga-trust-m/optiga-trust-m-1/optiga/crypt/optiga_crypt.c ****         OPTIGA_PROTECTION_SET_VERSION(me->my_cmd, me);
 721              	 .loc 1 297 0
 722 0032 0022     	 mov r2,#0
 293://MAC/Home/Downloads/getstarted-optiga-trust-m/optiga-trust-m-1/optiga/crypt/optiga_crypt.c ****         p_params->processed_message = p_processed_message;
 723              	 .loc 1 293 0
 724 0034 2380     	 strh r3,[r4]
 294://MAC/Home/Downloads/getstarted-optiga-trust-m/optiga-trust-m-1/optiga/crypt/optiga_crypt.c ****         p_params->processed_message_length = p_processed_message_length;
 725              	 .loc 1 294 0
 726 0036 0C9B     	 ldr r3,[sp,#48]
 727 0038 6361     	 str r3,[r4,#20]
 295://MAC/Home/Downloads/getstarted-optiga-trust-m/optiga-trust-m-1/optiga/crypt/optiga_crypt.c **** 
 728              	 .loc 1 295 0
 729 003a 0D9B     	 ldr r3,[sp,#52]
 730 003c 6360     	 str r3,[r4,#4]
 297://MAC/Home/Downloads/getstarted-optiga-trust-m/optiga-trust-m-1/optiga/crypt/optiga_crypt.c ****         OPTIGA_PROTECTION_SET_VERSION(me->my_cmd, me);
 731              	 .loc 1 297 0
 732 003e 231C     	 mov r3,r4
 733 0040 2E33     	 add r3,r3,#46
 734 0042 1978     	 ldrb r1,[r3]
 735 0044 FFF7FEFF 	 bl optiga_cmd_set_shielded_connection_option
 736              	.LVL85:
 298://MAC/Home/Downloads/getstarted-optiga-trust-m/optiga-trust-m-1/optiga/crypt/optiga_crypt.c **** 
 737              	 .loc 1 298 0
 738 0048 231C     	 mov r3,r4
 739 004a 2F33     	 add r3,r3,#47
 740 004c 1978     	 ldrb r1,[r3]
 741 004e 206A     	 ldr r0,[r4,#32]
 742 0050 3A1C     	 mov r2,r7
 743 0052 FFF7FEFF 	 bl optiga_cmd_set_shielded_connection_option
 744              	.LVL86:
 303://MAC/Home/Downloads/getstarted-optiga-trust-m/optiga-trust-m-1/optiga/crypt/optiga_crypt.c ****             p_params->public_key_source_type = public_key_source_type;
 745              	 .loc 1 303 0
 746 0056 0B9B     	 ldr r3,[sp,#44]
 301://MAC/Home/Downloads/getstarted-optiga-trust-m/optiga-trust-m-1/optiga/crypt/optiga_crypt.c ****         {
 747              	 .loc 1 301 0
 748 0058 002E     	 cmp r6,#0
 749 005a 09D0     	 beq .L58
 303://MAC/Home/Downloads/getstarted-optiga-trust-m/optiga-trust-m-1/optiga/crypt/optiga_crypt.c ****             p_params->public_key_source_type = public_key_source_type;
 750              	 .loc 1 303 0
 751 005c 2361     	 str r3,[r4,#16]
 304://MAC/Home/Downloads/getstarted-optiga-trust-m/optiga-trust-m-1/optiga/crypt/optiga_crypt.c **** #ifdef OPTIGA_CRYPT_RSA_ENCRYPT_ENABLED
 752              	 .loc 1 304 0
 753 005e 6B46     	 mov r3,sp
 754 0060 1B7B     	 ldrb r3,[r3,#12]
 306://MAC/Home/Downloads/getstarted-optiga-trust-m/optiga-trust-m-1/optiga/crypt/optiga_crypt.c ****                                                    (optiga_encrypt_asym_params_t *)p_params);
 755              	 .loc 1 306 0
 756 0062 206A     	 ldr r0,[r4,#32]
 304://MAC/Home/Downloads/getstarted-optiga-trust-m/optiga-trust-m-1/optiga/crypt/optiga_crypt.c **** #ifdef OPTIGA_CRYPT_RSA_ENCRYPT_ENABLED
 757              	 .loc 1 304 0
 758 0064 2373     	 strb r3,[r4,#12]
 306://MAC/Home/Downloads/getstarted-optiga-trust-m/optiga-trust-m-1/optiga/crypt/optiga_crypt.c ****                                                    (optiga_encrypt_asym_params_t *)p_params);
 759              	 .loc 1 306 0
 760 0066 291C     	 mov r1,r5
 761 0068 221C     	 mov r2,r4
 762 006a FFF7FEFF 	 bl optiga_cmd_encrypt_asym
 763              	.LVL87:
 764 006e 0AE0     	 b .L64
 765              	.L58:
 312://MAC/Home/Downloads/getstarted-optiga-trust-m/optiga-trust-m-1/optiga/crypt/optiga_crypt.c ****             p_params->key = &p_params->private_key_id;
 766              	 .loc 1 312 0
 767 0070 1B88     	 ldrh r3,[r3]
 316://MAC/Home/Downloads/getstarted-optiga-trust-m/optiga-trust-m-1/optiga/crypt/optiga_crypt.c ****                                                    (optiga_encrypt_asym_params_t *)p_params);
 768              	 .loc 1 316 0
 769 0072 206A     	 ldr r0,[r4,#32]
 312://MAC/Home/Downloads/getstarted-optiga-trust-m/optiga-trust-m-1/optiga/crypt/optiga_crypt.c ****             p_params->key = &p_params->private_key_id;
 770              	 .loc 1 312 0
 771 0074 2383     	 strh r3,[r4,#24]
 313://MAC/Home/Downloads/getstarted-optiga-trust-m/optiga-trust-m-1/optiga/crypt/optiga_crypt.c ****             p_params->public_key_source_type = 0;
 772              	 .loc 1 313 0
 773 0076 231C     	 mov r3,r4
 774 0078 1833     	 add r3,r3,#24
 775 007a 2361     	 str r3,[r4,#16]
 314://MAC/Home/Downloads/getstarted-optiga-trust-m/optiga-trust-m-1/optiga/crypt/optiga_crypt.c **** #ifdef OPTIGA_CRYPT_RSA_DECRYPT_ENABLED
 776              	 .loc 1 314 0
 777 007c 2673     	 strb r6,[r4,#12]
 316://MAC/Home/Downloads/getstarted-optiga-trust-m/optiga-trust-m-1/optiga/crypt/optiga_crypt.c ****                                                    (optiga_encrypt_asym_params_t *)p_params);
 778              	 .loc 1 316 0
 779 007e 291C     	 mov r1,r5
 780 0080 221C     	 mov r2,r4
 781 0082 FFF7FEFF 	 bl optiga_cmd_decrypt_asym
 782              	.LVL88:
 783              	.L64:
 784 0086 051E     	 sub r5,r0,#0
 785              	.LVL89:
 320://MAC/Home/Downloads/getstarted-optiga-trust-m/optiga-trust-m-1/optiga/crypt/optiga_crypt.c ****         {
 786              	 .loc 1 320 0
 787 0088 03D0     	 beq .L57
 322://MAC/Home/Downloads/getstarted-optiga-trust-m/optiga-trust-m-1/optiga/crypt/optiga_crypt.c ****         }
 788              	 .loc 1 322 0
 789 008a 0023     	 mov r3,#0
 790 008c A385     	 strh r3,[r4,#44]
 791 008e 00E0     	 b .L57
 792              	.LVL90:
 793              	.L60:
 284://MAC/Home/Downloads/getstarted-optiga-trust-m/optiga-trust-m-1/optiga/crypt/optiga_crypt.c ****             break;
 794              	 .loc 1 284 0
 795 0090 034D     	 ldr r5,.L65
 796              	.LVL91:
 797              	.L57:
 325://MAC/Home/Downloads/getstarted-optiga-trust-m/optiga-trust-m-1/optiga/crypt/optiga_crypt.c **** 
 798              	 .loc 1 325 0
 799 0092 201C     	 mov r0,r4
 800 0094 FFF7FEFF 	 bl optiga_crypt_reset_protection_level
 801              	.LVL92:
 328://MAC/Home/Downloads/getstarted-optiga-trust-m/optiga-trust-m-1/optiga/crypt/optiga_crypt.c **** #endif //(OPTIGA_CRYPT_RSA_DECRYPT_ENABLED) || (OPTIGA_CRYPT_RSA_ENCRYPT_ENABLED)
 802              	 .loc 1 328 0
 803 0098 281C     	 mov r0,r5
 804 009a 05B0     	 add sp,sp,#20
 805              	 
 806              	.LVL93:
 807              	.LVL94:
 808 009c F0BD     	 pop {r4,r5,r6,r7,pc}
 809              	.L66:
 810 009e C046     	 .align 2
 811              	.L65:
 812 00a0 05040000 	 .word 1029
 813              	 .cfi_endproc
 814              	.LFE29:
 816              	 .section .text.optiga_crypt_set_comms_params,"ax",%progbits
 817              	 .align 1
 818              	 .global optiga_crypt_set_comms_params
 819              	 .code 16
 820              	 .thumb_func
 822              	optiga_crypt_set_comms_params:
 823              	.LFB7:
 378://MAC/Home/Downloads/getstarted-optiga-trust-m/optiga-trust-m-1/optiga/crypt/optiga_crypt.c ****     switch (parameter_type)
 824              	 .loc 1 378 0
 825              	 .cfi_startproc
 826              	.LVL95:
 379://MAC/Home/Downloads/getstarted-optiga-trust-m/optiga-trust-m-1/optiga/crypt/optiga_crypt.c ****     {
 827              	 .loc 1 379 0
 828 0000 0129     	 cmp r1,#1
 829 0002 03D0     	 beq .L69
 830 0004 0229     	 cmp r1,#2
 831 0006 03D1     	 bne .L67
 384://MAC/Home/Downloads/getstarted-optiga-trust-m/optiga-trust-m-1/optiga/crypt/optiga_crypt.c ****             break;
 385://MAC/Home/Downloads/getstarted-optiga-trust-m/optiga-trust-m-1/optiga/crypt/optiga_crypt.c ****         }
 386://MAC/Home/Downloads/getstarted-optiga-trust-m/optiga-trust-m-1/optiga/crypt/optiga_crypt.c ****         case OPTIGA_COMMS_PROTOCOL_VERSION:
 387://MAC/Home/Downloads/getstarted-optiga-trust-m/optiga-trust-m-1/optiga/crypt/optiga_crypt.c ****         {
 388://MAC/Home/Downloads/getstarted-optiga-trust-m/optiga-trust-m-1/optiga/crypt/optiga_crypt.c ****             me->protocol_version = value;
 832              	 .loc 1 388 0
 833 0008 2F30     	 add r0,r0,#47
 834              	.LVL96:
 835 000a 00E0     	 b .L71
 836              	.LVL97:
 837              	.L69:
 383://MAC/Home/Downloads/getstarted-optiga-trust-m/optiga-trust-m-1/optiga/crypt/optiga_crypt.c ****             break;
 838              	 .loc 1 383 0
 839 000c 2E30     	 add r0,r0,#46
 840              	.LVL98:
 841              	.L71:
 842              	 .loc 1 388 0
 843 000e 0270     	 strb r2,[r0]
 844              	.L67:
 389://MAC/Home/Downloads/getstarted-optiga-trust-m/optiga-trust-m-1/optiga/crypt/optiga_crypt.c ****             break;
 390://MAC/Home/Downloads/getstarted-optiga-trust-m/optiga-trust-m-1/optiga/crypt/optiga_crypt.c ****         }
 391://MAC/Home/Downloads/getstarted-optiga-trust-m/optiga-trust-m-1/optiga/crypt/optiga_crypt.c ****         default:
 392://MAC/Home/Downloads/getstarted-optiga-trust-m/optiga-trust-m-1/optiga/crypt/optiga_crypt.c ****         {
 393://MAC/Home/Downloads/getstarted-optiga-trust-m/optiga-trust-m-1/optiga/crypt/optiga_crypt.c ****             break;
 394://MAC/Home/Downloads/getstarted-optiga-trust-m/optiga-trust-m-1/optiga/crypt/optiga_crypt.c ****         }
 395://MAC/Home/Downloads/getstarted-optiga-trust-m/optiga-trust-m-1/optiga/crypt/optiga_crypt.c ****     }
 396://MAC/Home/Downloads/getstarted-optiga-trust-m/optiga-trust-m-1/optiga/crypt/optiga_crypt.c **** }
 845              	 .loc 1 396 0
 846              	 
 847 0010 7047     	 bx lr
 848              	 .cfi_endproc
 849              	.LFE7:
 851              	 .section .text.optiga_crypt_create,"ax",%progbits
 852              	 .align 1
 853              	 .global optiga_crypt_create
 854              	 .code 16
 855              	 .thumb_func
 857              	optiga_crypt_create:
 858              	.LFB8:
 397://MAC/Home/Downloads/getstarted-optiga-trust-m/optiga-trust-m-1/optiga/crypt/optiga_crypt.c **** #endif
 398://MAC/Home/Downloads/getstarted-optiga-trust-m/optiga-trust-m-1/optiga/crypt/optiga_crypt.c **** 
 399://MAC/Home/Downloads/getstarted-optiga-trust-m/optiga-trust-m-1/optiga/crypt/optiga_crypt.c **** optiga_crypt_t * optiga_crypt_create(uint8_t optiga_instance_id,
 400://MAC/Home/Downloads/getstarted-optiga-trust-m/optiga-trust-m-1/optiga/crypt/optiga_crypt.c ****                                      callback_handler_t handler,
 401://MAC/Home/Downloads/getstarted-optiga-trust-m/optiga-trust-m-1/optiga/crypt/optiga_crypt.c ****                                      void * caller_context)
 402://MAC/Home/Downloads/getstarted-optiga-trust-m/optiga-trust-m-1/optiga/crypt/optiga_crypt.c **** {
 859              	 .loc 1 402 0
 860              	 .cfi_startproc
 861              	.LVL99:
 862 0000 F8B5     	 push {r3,r4,r5,r6,r7,lr}
 863              	.LCFI9:
 864              	 .cfi_def_cfa_offset 24
 865              	 .cfi_offset 3,-24
 866              	 .cfi_offset 4,-20
 867              	 .cfi_offset 5,-16
 868              	 .cfi_offset 6,-12
 869              	 .cfi_offset 7,-8
 870              	 .cfi_offset 14,-4
 403://MAC/Home/Downloads/getstarted-optiga-trust-m/optiga-trust-m-1/optiga/crypt/optiga_crypt.c ****     optiga_crypt_t * me = NULL;
 404://MAC/Home/Downloads/getstarted-optiga-trust-m/optiga-trust-m-1/optiga/crypt/optiga_crypt.c **** 
 405://MAC/Home/Downloads/getstarted-optiga-trust-m/optiga-trust-m-1/optiga/crypt/optiga_crypt.c ****     do
 406://MAC/Home/Downloads/getstarted-optiga-trust-m/optiga-trust-m-1/optiga/crypt/optiga_crypt.c ****     {
 407://MAC/Home/Downloads/getstarted-optiga-trust-m/optiga-trust-m-1/optiga/crypt/optiga_crypt.c **** #ifdef OPTIGA_LIB_DEBUG_NULL_CHECK
 408://MAC/Home/Downloads/getstarted-optiga-trust-m/optiga-trust-m-1/optiga/crypt/optiga_crypt.c ****         if (NULL == handler)
 871              	 .loc 1 408 0
 872 0002 0029     	 cmp r1,#0
 873 0004 01D1     	 bne .L73
 874              	.LVL100:
 875              	.L75:
 403://MAC/Home/Downloads/getstarted-optiga-trust-m/optiga-trust-m-1/optiga/crypt/optiga_crypt.c ****     optiga_crypt_t * me = NULL;
 876              	 .loc 1 403 0
 877 0006 0024     	 mov r4,#0
 878 0008 1EE0     	 b .L74
 879              	.LVL101:
 880              	.L73:
 881 000a 0F1C     	 mov r7,r1
 882 000c 051C     	 mov r5,r0
 409://MAC/Home/Downloads/getstarted-optiga-trust-m/optiga-trust-m-1/optiga/crypt/optiga_crypt.c ****         {
 410://MAC/Home/Downloads/getstarted-optiga-trust-m/optiga-trust-m-1/optiga/crypt/optiga_crypt.c ****             break;
 411://MAC/Home/Downloads/getstarted-optiga-trust-m/optiga-trust-m-1/optiga/crypt/optiga_crypt.c ****         }
 412://MAC/Home/Downloads/getstarted-optiga-trust-m/optiga-trust-m-1/optiga/crypt/optiga_crypt.c **** #endif
 413://MAC/Home/Downloads/getstarted-optiga-trust-m/optiga-trust-m-1/optiga/crypt/optiga_crypt.c ****         me = (optiga_crypt_t *)pal_os_calloc(1, sizeof(optiga_crypt_t));
 883              	 .loc 1 413 0
 884 000e 3021     	 mov r1,#48
 885              	.LVL102:
 886 0010 0120     	 mov r0,#1
 887              	.LVL103:
 888 0012 161C     	 mov r6,r2
 889 0014 FFF7FEFF 	 bl calloc
 890              	.LVL104:
 891 0018 041E     	 sub r4,r0,#0
 892              	.LVL105:
 414://MAC/Home/Downloads/getstarted-optiga-trust-m/optiga-trust-m-1/optiga/crypt/optiga_crypt.c ****         if (NULL == me)
 893              	 .loc 1 414 0
 894 001a F4D0     	 beq .L75
 415://MAC/Home/Downloads/getstarted-optiga-trust-m/optiga-trust-m-1/optiga/crypt/optiga_crypt.c ****         {
 416://MAC/Home/Downloads/getstarted-optiga-trust-m/optiga-trust-m-1/optiga/crypt/optiga_crypt.c ****             break;
 417://MAC/Home/Downloads/getstarted-optiga-trust-m/optiga-trust-m-1/optiga/crypt/optiga_crypt.c ****         }
 418://MAC/Home/Downloads/getstarted-optiga-trust-m/optiga-trust-m-1/optiga/crypt/optiga_crypt.c **** 
 419://MAC/Home/Downloads/getstarted-optiga-trust-m/optiga-trust-m-1/optiga/crypt/optiga_crypt.c ****         me->handler = handler;
 420://MAC/Home/Downloads/getstarted-optiga-trust-m/optiga-trust-m-1/optiga/crypt/optiga_crypt.c ****         me->caller_context = caller_context;
 421://MAC/Home/Downloads/getstarted-optiga-trust-m/optiga-trust-m-1/optiga/crypt/optiga_crypt.c ****         me->instance_state = OPTIGA_LIB_SUCCESS;
 422://MAC/Home/Downloads/getstarted-optiga-trust-m/optiga-trust-m-1/optiga/crypt/optiga_crypt.c **** #ifdef OPTIGA_COMMS_SHIELDED_CONNECTION
 423://MAC/Home/Downloads/getstarted-optiga-trust-m/optiga-trust-m-1/optiga/crypt/optiga_crypt.c ****         me->protocol_version = OPTIGA_COMMS_PROTOCOL_VERSION_PRE_SHARED_SECRET;
 895              	 .loc 1 423 0
 896 001c 031C     	 mov r3,r0
 421://MAC/Home/Downloads/getstarted-optiga-trust-m/optiga-trust-m-1/optiga/crypt/optiga_crypt.c **** #ifdef OPTIGA_COMMS_SHIELDED_CONNECTION
 897              	 .loc 1 421 0
 898 001e 0022     	 mov r2,#0
 899              	 .loc 1 423 0
 900 0020 0121     	 mov r1,#1
 901 0022 2F33     	 add r3,r3,#47
 421://MAC/Home/Downloads/getstarted-optiga-trust-m/optiga-trust-m-1/optiga/crypt/optiga_crypt.c **** #ifdef OPTIGA_COMMS_SHIELDED_CONNECTION
 902              	 .loc 1 421 0
 903 0024 8285     	 strh r2,[r0,#44]
 419://MAC/Home/Downloads/getstarted-optiga-trust-m/optiga-trust-m-1/optiga/crypt/optiga_crypt.c ****         me->caller_context = caller_context;
 904              	 .loc 1 419 0
 905 0026 8762     	 str r7,[r0,#40]
 420://MAC/Home/Downloads/getstarted-optiga-trust-m/optiga-trust-m-1/optiga/crypt/optiga_crypt.c ****         me->instance_state = OPTIGA_LIB_SUCCESS;
 906              	 .loc 1 420 0
 907 0028 4662     	 str r6,[r0,#36]
 424://MAC/Home/Downloads/getstarted-optiga-trust-m/optiga-trust-m-1/optiga/crypt/optiga_crypt.c ****         me->protection_level = OPTIGA_COMMS_DEFAULT_PROTECTION_LEVEL;
 908              	 .loc 1 424 0
 909 002a 013B     	 sub r3,r3,#1
 423://MAC/Home/Downloads/getstarted-optiga-trust-m/optiga-trust-m-1/optiga/crypt/optiga_crypt.c ****         me->protection_level = OPTIGA_COMMS_DEFAULT_PROTECTION_LEVEL;
 910              	 .loc 1 423 0
 911 002c 5970     	 strb r1,[r3,#1]
 425://MAC/Home/Downloads/getstarted-optiga-trust-m/optiga-trust-m-1/optiga/crypt/optiga_crypt.c **** #endif
 426://MAC/Home/Downloads/getstarted-optiga-trust-m/optiga-trust-m-1/optiga/crypt/optiga_crypt.c ****         me->my_cmd = optiga_cmd_create(optiga_instance_id,
 912              	 .loc 1 426 0
 913 002e 281C     	 mov r0,r5
 914              	.LVL106:
 424://MAC/Home/Downloads/getstarted-optiga-trust-m/optiga-trust-m-1/optiga/crypt/optiga_crypt.c **** #endif
 915              	 .loc 1 424 0
 916 0030 1A70     	 strb r2,[r3]
 917              	 .loc 1 426 0
 918 0032 0649     	 ldr r1,.L79
 919 0034 221C     	 mov r2,r4
 920 0036 FFF7FEFF 	 bl optiga_cmd_create
 921              	.LVL107:
 922 003a 051E     	 sub r5,r0,#0
 923 003c 2062     	 str r0,[r4,#32]
 427://MAC/Home/Downloads/getstarted-optiga-trust-m/optiga-trust-m-1/optiga/crypt/optiga_crypt.c ****                                        optiga_crypt_generic_event_handler,
 428://MAC/Home/Downloads/getstarted-optiga-trust-m/optiga-trust-m-1/optiga/crypt/optiga_crypt.c ****                                        me);
 429://MAC/Home/Downloads/getstarted-optiga-trust-m/optiga-trust-m-1/optiga/crypt/optiga_crypt.c ****         if (NULL == me->my_cmd)
 924              	 .loc 1 429 0
 925 003e 03D1     	 bne .L74
 430://MAC/Home/Downloads/getstarted-optiga-trust-m/optiga-trust-m-1/optiga/crypt/optiga_crypt.c ****         {
 431://MAC/Home/Downloads/getstarted-optiga-trust-m/optiga-trust-m-1/optiga/crypt/optiga_crypt.c ****             pal_os_free(me);
 926              	 .loc 1 431 0
 927 0040 201C     	 mov r0,r4
 928 0042 FFF7FEFF 	 bl free
 929              	.LVL108:
 432://MAC/Home/Downloads/getstarted-optiga-trust-m/optiga-trust-m-1/optiga/crypt/optiga_crypt.c ****             me = NULL;
 930              	 .loc 1 432 0
 931 0046 2C1C     	 mov r4,r5
 932              	.LVL109:
 933              	.L74:
 433://MAC/Home/Downloads/getstarted-optiga-trust-m/optiga-trust-m-1/optiga/crypt/optiga_crypt.c ****         }
 434://MAC/Home/Downloads/getstarted-optiga-trust-m/optiga-trust-m-1/optiga/crypt/optiga_crypt.c **** 
 435://MAC/Home/Downloads/getstarted-optiga-trust-m/optiga-trust-m-1/optiga/crypt/optiga_crypt.c ****     } while (FALSE);
 436://MAC/Home/Downloads/getstarted-optiga-trust-m/optiga-trust-m-1/optiga/crypt/optiga_crypt.c **** 
 437://MAC/Home/Downloads/getstarted-optiga-trust-m/optiga-trust-m-1/optiga/crypt/optiga_crypt.c ****     return (me);
 438://MAC/Home/Downloads/getstarted-optiga-trust-m/optiga-trust-m-1/optiga/crypt/optiga_crypt.c **** }
 934              	 .loc 1 438 0
 935 0048 201C     	 mov r0,r4
 936              	 
 937              	.LVL110:
 938 004a F8BD     	 pop {r3,r4,r5,r6,r7,pc}
 939              	.L80:
 940              	 .align 2
 941              	.L79:
 942 004c 00000000 	 .word optiga_crypt_generic_event_handler
 943              	 .cfi_endproc
 944              	.LFE8:
 946              	 .section .text.optiga_crypt_destroy,"ax",%progbits
 947              	 .align 1
 948              	 .global optiga_crypt_destroy
 949              	 .code 16
 950              	 .thumb_func
 952              	optiga_crypt_destroy:
 953              	.LFB9:
 439://MAC/Home/Downloads/getstarted-optiga-trust-m/optiga-trust-m-1/optiga/crypt/optiga_crypt.c **** 
 440://MAC/Home/Downloads/getstarted-optiga-trust-m/optiga-trust-m-1/optiga/crypt/optiga_crypt.c **** optiga_lib_status_t optiga_crypt_destroy(optiga_crypt_t * me)
 441://MAC/Home/Downloads/getstarted-optiga-trust-m/optiga-trust-m-1/optiga/crypt/optiga_crypt.c **** {
 954              	 .loc 1 441 0
 955              	 .cfi_startproc
 956              	.LVL111:
 957 0000 38B5     	 push {r3,r4,r5,lr}
 958              	.LCFI10:
 959              	 .cfi_def_cfa_offset 16
 960              	 .cfi_offset 3,-16
 961              	 .cfi_offset 4,-12
 962              	 .cfi_offset 5,-8
 963              	 .cfi_offset 14,-4
 442://MAC/Home/Downloads/getstarted-optiga-trust-m/optiga-trust-m-1/optiga/crypt/optiga_crypt.c ****     optiga_lib_status_t return_value;
 443://MAC/Home/Downloads/getstarted-optiga-trust-m/optiga-trust-m-1/optiga/crypt/optiga_crypt.c **** 
 444://MAC/Home/Downloads/getstarted-optiga-trust-m/optiga-trust-m-1/optiga/crypt/optiga_crypt.c ****     do
 445://MAC/Home/Downloads/getstarted-optiga-trust-m/optiga-trust-m-1/optiga/crypt/optiga_crypt.c ****     {
 446://MAC/Home/Downloads/getstarted-optiga-trust-m/optiga-trust-m-1/optiga/crypt/optiga_crypt.c **** #ifdef OPTIGA_LIB_DEBUG_NULL_CHECK
 447://MAC/Home/Downloads/getstarted-optiga-trust-m/optiga-trust-m-1/optiga/crypt/optiga_crypt.c ****         if (NULL == me)
 964              	 .loc 1 447 0
 965 0002 0028     	 cmp r0,#0
 966 0004 0BD0     	 beq .L83
 448://MAC/Home/Downloads/getstarted-optiga-trust-m/optiga-trust-m-1/optiga/crypt/optiga_crypt.c ****         {
 449://MAC/Home/Downloads/getstarted-optiga-trust-m/optiga-trust-m-1/optiga/crypt/optiga_crypt.c ****             return_value = OPTIGA_CRYPT_ERROR_INVALID_INPUT;
 450://MAC/Home/Downloads/getstarted-optiga-trust-m/optiga-trust-m-1/optiga/crypt/optiga_crypt.c ****             break;
 451://MAC/Home/Downloads/getstarted-optiga-trust-m/optiga-trust-m-1/optiga/crypt/optiga_crypt.c ****         }
 452://MAC/Home/Downloads/getstarted-optiga-trust-m/optiga-trust-m-1/optiga/crypt/optiga_crypt.c **** #endif
 453://MAC/Home/Downloads/getstarted-optiga-trust-m/optiga-trust-m-1/optiga/crypt/optiga_crypt.c ****         if (OPTIGA_LIB_INSTANCE_BUSY == me->instance_state)
 967              	 .loc 1 453 0
 968 0006 838D     	 ldrh r3,[r0,#44]
 969 0008 012B     	 cmp r3,#1
 970 000a 0AD0     	 beq .L84
 971 000c 041C     	 mov r4,r0
 454://MAC/Home/Downloads/getstarted-optiga-trust-m/optiga-trust-m-1/optiga/crypt/optiga_crypt.c ****         {
 455://MAC/Home/Downloads/getstarted-optiga-trust-m/optiga-trust-m-1/optiga/crypt/optiga_crypt.c ****             return_value = OPTIGA_CRYPT_ERROR_INSTANCE_IN_USE;
 456://MAC/Home/Downloads/getstarted-optiga-trust-m/optiga-trust-m-1/optiga/crypt/optiga_crypt.c ****             break;
 457://MAC/Home/Downloads/getstarted-optiga-trust-m/optiga-trust-m-1/optiga/crypt/optiga_crypt.c ****         }
 458://MAC/Home/Downloads/getstarted-optiga-trust-m/optiga-trust-m-1/optiga/crypt/optiga_crypt.c ****         return_value = optiga_cmd_destroy(me->my_cmd);
 972              	 .loc 1 458 0
 973 000e 006A     	 ldr r0,[r0,#32]
 974              	.LVL112:
 975 0010 FFF7FEFF 	 bl optiga_cmd_destroy
 976              	.LVL113:
 977 0014 051C     	 mov r5,r0
 978              	.LVL114:
 459://MAC/Home/Downloads/getstarted-optiga-trust-m/optiga-trust-m-1/optiga/crypt/optiga_crypt.c ****         pal_os_free(me);
 979              	 .loc 1 459 0
 980 0016 201C     	 mov r0,r4
 981              	.LVL115:
 982 0018 FFF7FEFF 	 bl free
 983              	.LVL116:
 984 001c 02E0     	 b .L82
 985              	.LVL117:
 986              	.L83:
 449://MAC/Home/Downloads/getstarted-optiga-trust-m/optiga-trust-m-1/optiga/crypt/optiga_crypt.c ****             break;
 987              	 .loc 1 449 0
 988 001e 024D     	 ldr r5,.L85
 989 0020 00E0     	 b .L82
 990              	.L84:
 455://MAC/Home/Downloads/getstarted-optiga-trust-m/optiga-trust-m-1/optiga/crypt/optiga_crypt.c ****             break;
 991              	 .loc 1 455 0
 992 0022 024D     	 ldr r5,.L85+4
 993              	.LVL118:
 994              	.L82:
 460://MAC/Home/Downloads/getstarted-optiga-trust-m/optiga-trust-m-1/optiga/crypt/optiga_crypt.c **** 
 461://MAC/Home/Downloads/getstarted-optiga-trust-m/optiga-trust-m-1/optiga/crypt/optiga_crypt.c ****     } while (FALSE);
 462://MAC/Home/Downloads/getstarted-optiga-trust-m/optiga-trust-m-1/optiga/crypt/optiga_crypt.c ****     return (return_value);
 463://MAC/Home/Downloads/getstarted-optiga-trust-m/optiga-trust-m-1/optiga/crypt/optiga_crypt.c **** }
 995              	 .loc 1 463 0
 996 0024 281C     	 mov r0,r5
 997              	 
 998              	.LVL119:
 999 0026 38BD     	 pop {r3,r4,r5,pc}
 1000              	.L86:
 1001              	 .align 2
 1002              	.L85:
 1003 0028 03040000 	 .word 1027
 1004 002c 05040000 	 .word 1029
 1005              	 .cfi_endproc
 1006              	.LFE9:
 1008              	 .section .text.optiga_crypt_random,"ax",%progbits
 1009              	 .align 1
 1010              	 .global optiga_crypt_random
 1011              	 .code 16
 1012              	 .thumb_func
 1014              	optiga_crypt_random:
 1015              	.LFB10:
 464://MAC/Home/Downloads/getstarted-optiga-trust-m/optiga-trust-m-1/optiga/crypt/optiga_crypt.c **** 
 465://MAC/Home/Downloads/getstarted-optiga-trust-m/optiga-trust-m-1/optiga/crypt/optiga_crypt.c **** #ifdef OPTIGA_CRYPT_RANDOM_ENABLED
 466://MAC/Home/Downloads/getstarted-optiga-trust-m/optiga-trust-m-1/optiga/crypt/optiga_crypt.c **** optiga_lib_status_t optiga_crypt_random(optiga_crypt_t * me,
 467://MAC/Home/Downloads/getstarted-optiga-trust-m/optiga-trust-m-1/optiga/crypt/optiga_crypt.c ****                                         optiga_rng_type_t rng_type,
 468://MAC/Home/Downloads/getstarted-optiga-trust-m/optiga-trust-m-1/optiga/crypt/optiga_crypt.c ****                                         uint8_t * random_data,
 469://MAC/Home/Downloads/getstarted-optiga-trust-m/optiga-trust-m-1/optiga/crypt/optiga_crypt.c ****                                         uint16_t random_data_length)
 470://MAC/Home/Downloads/getstarted-optiga-trust-m/optiga-trust-m-1/optiga/crypt/optiga_crypt.c **** {
 1016              	 .loc 1 470 0
 1017              	 .cfi_startproc
 1018              	.LVL120:
 1019 0000 13B5     	 push {r0,r1,r4,lr}
 1020              	.LCFI11:
 1021              	 .cfi_def_cfa_offset 16
 1022              	 .cfi_offset 0,-16
 1023              	 .cfi_offset 1,-12
 1024              	 .cfi_offset 4,-8
 1025              	 .cfi_offset 14,-4
 471://MAC/Home/Downloads/getstarted-optiga-trust-m/optiga-trust-m-1/optiga/crypt/optiga_crypt.c ****     optiga_lib_status_t return_value = OPTIGA_CRYPT_ERROR;
 472://MAC/Home/Downloads/getstarted-optiga-trust-m/optiga-trust-m-1/optiga/crypt/optiga_crypt.c ****     OPTIGA_CRYPT_LOG_MESSAGE(__FUNCTION__);
 473://MAC/Home/Downloads/getstarted-optiga-trust-m/optiga-trust-m-1/optiga/crypt/optiga_crypt.c ****     do
 474://MAC/Home/Downloads/getstarted-optiga-trust-m/optiga-trust-m-1/optiga/crypt/optiga_crypt.c ****     {
 475://MAC/Home/Downloads/getstarted-optiga-trust-m/optiga-trust-m-1/optiga/crypt/optiga_crypt.c **** #ifdef OPTIGA_LIB_DEBUG_NULL_CHECK
 476://MAC/Home/Downloads/getstarted-optiga-trust-m/optiga-trust-m-1/optiga/crypt/optiga_crypt.c ****         if ((NULL == me) || (NULL == me->my_cmd) || (NULL == random_data))
 1026              	 .loc 1 476 0
 1027 0002 0028     	 cmp r0,#0
 1028 0004 0AD0     	 beq .L91
 1029              	 .loc 1 476 0 is_stmt 0 discriminator 1
 1030 0006 046A     	 ldr r4,[r0,#32]
 1031 0008 002C     	 cmp r4,#0
 1032 000a 07D0     	 beq .L91
 1033              	 .loc 1 476 0 discriminator 2
 1034 000c 002A     	 cmp r2,#0
 1035 000e 05D0     	 beq .L91
 477://MAC/Home/Downloads/getstarted-optiga-trust-m/optiga-trust-m-1/optiga/crypt/optiga_crypt.c ****         {
 478://MAC/Home/Downloads/getstarted-optiga-trust-m/optiga-trust-m-1/optiga/crypt/optiga_crypt.c ****             return_value = OPTIGA_CRYPT_ERROR_INVALID_INPUT;
 479://MAC/Home/Downloads/getstarted-optiga-trust-m/optiga-trust-m-1/optiga/crypt/optiga_crypt.c ****             break;
 480://MAC/Home/Downloads/getstarted-optiga-trust-m/optiga-trust-m-1/optiga/crypt/optiga_crypt.c ****         }
 481://MAC/Home/Downloads/getstarted-optiga-trust-m/optiga-trust-m-1/optiga/crypt/optiga_crypt.c **** #endif
 482://MAC/Home/Downloads/getstarted-optiga-trust-m/optiga-trust-m-1/optiga/crypt/optiga_crypt.c ****         return_value = optiga_crypt_get_random(me,
 1036              	 .loc 1 482 0 is_stmt 1
 1037 0010 0024     	 mov r4,#0
 1038 0012 0094     	 str r4,[sp]
 1039 0014 0194     	 str r4,[sp,#4]
 1040 0016 FFF7FEFF 	 bl optiga_crypt_get_random
 1041              	.LVL121:
 1042 001a 00E0     	 b .L88
 1043              	.LVL122:
 1044              	.L91:
 478://MAC/Home/Downloads/getstarted-optiga-trust-m/optiga-trust-m-1/optiga/crypt/optiga_crypt.c ****             break;
 1045              	 .loc 1 478 0
 1046 001c 0048     	 ldr r0,.L92
 1047              	.LVL123:
 1048              	.L88:
 483://MAC/Home/Downloads/getstarted-optiga-trust-m/optiga-trust-m-1/optiga/crypt/optiga_crypt.c ****                                                (uint8_t)rng_type,
 484://MAC/Home/Downloads/getstarted-optiga-trust-m/optiga-trust-m-1/optiga/crypt/optiga_crypt.c ****                                                random_data,
 485://MAC/Home/Downloads/getstarted-optiga-trust-m/optiga-trust-m-1/optiga/crypt/optiga_crypt.c ****                                                random_data_length,
 486://MAC/Home/Downloads/getstarted-optiga-trust-m/optiga-trust-m-1/optiga/crypt/optiga_crypt.c ****                                                NULL,
 487://MAC/Home/Downloads/getstarted-optiga-trust-m/optiga-trust-m-1/optiga/crypt/optiga_crypt.c ****                                                0x00);
 488://MAC/Home/Downloads/getstarted-optiga-trust-m/optiga-trust-m-1/optiga/crypt/optiga_crypt.c ****     } while (FALSE);
 489://MAC/Home/Downloads/getstarted-optiga-trust-m/optiga-trust-m-1/optiga/crypt/optiga_crypt.c **** 
 490://MAC/Home/Downloads/getstarted-optiga-trust-m/optiga-trust-m-1/optiga/crypt/optiga_crypt.c ****     return (return_value);
 491://MAC/Home/Downloads/getstarted-optiga-trust-m/optiga-trust-m-1/optiga/crypt/optiga_crypt.c **** }
 1049              	 .loc 1 491 0
 1050              	 
 1051 001e 16BD     	 pop {r1,r2,r4,pc}
 1052              	.L93:
 1053              	 .align 2
 1054              	.L92:
 1055 0020 03040000 	 .word 1027
 1056              	 .cfi_endproc
 1057              	.LFE10:
 1059              	 .section .text.optiga_crypt_hash_start,"ax",%progbits
 1060              	 .align 1
 1061              	 .global optiga_crypt_hash_start
 1062              	 .code 16
 1063              	 .thumb_func
 1065              	optiga_crypt_hash_start:
 1066              	.LFB11:
 492://MAC/Home/Downloads/getstarted-optiga-trust-m/optiga-trust-m-1/optiga/crypt/optiga_crypt.c **** #endif //OPTIGA_CRYPT_RANDOM_ENABLED
 493://MAC/Home/Downloads/getstarted-optiga-trust-m/optiga-trust-m-1/optiga/crypt/optiga_crypt.c **** 
 494://MAC/Home/Downloads/getstarted-optiga-trust-m/optiga-trust-m-1/optiga/crypt/optiga_crypt.c **** #ifdef OPTIGA_CRYPT_HASH_ENABLED
 495://MAC/Home/Downloads/getstarted-optiga-trust-m/optiga-trust-m-1/optiga/crypt/optiga_crypt.c **** optiga_lib_status_t optiga_crypt_hash_start(optiga_crypt_t * me,
 496://MAC/Home/Downloads/getstarted-optiga-trust-m/optiga-trust-m-1/optiga/crypt/optiga_crypt.c ****                                             optiga_hash_context_t * hash_ctx)
 497://MAC/Home/Downloads/getstarted-optiga-trust-m/optiga-trust-m-1/optiga/crypt/optiga_crypt.c **** {
 1067              	 .loc 1 497 0
 1068              	 .cfi_startproc
 1069              	.LVL124:
 1070 0000 F8B5     	 push {r3,r4,r5,r6,r7,lr}
 1071              	.LCFI12:
 1072              	 .cfi_def_cfa_offset 24
 1073              	 .cfi_offset 3,-24
 1074              	 .cfi_offset 4,-20
 1075              	 .cfi_offset 5,-16
 1076              	 .cfi_offset 6,-12
 1077              	 .cfi_offset 7,-8
 1078              	 .cfi_offset 14,-4
 1079              	 .loc 1 497 0
 1080 0002 041C     	 mov r4,r0
 1081 0004 0D1C     	 mov r5,r1
 498://MAC/Home/Downloads/getstarted-optiga-trust-m/optiga-trust-m-1/optiga/crypt/optiga_crypt.c ****     optiga_lib_status_t return_value = OPTIGA_CRYPT_ERROR;
 499://MAC/Home/Downloads/getstarted-optiga-trust-m/optiga-trust-m-1/optiga/crypt/optiga_crypt.c ****     optiga_calc_hash_params_t * p_params;
 500://MAC/Home/Downloads/getstarted-optiga-trust-m/optiga-trust-m-1/optiga/crypt/optiga_crypt.c ****     OPTIGA_CRYPT_LOG_MESSAGE(__FUNCTION__);
 501://MAC/Home/Downloads/getstarted-optiga-trust-m/optiga-trust-m-1/optiga/crypt/optiga_crypt.c ****     do
 502://MAC/Home/Downloads/getstarted-optiga-trust-m/optiga-trust-m-1/optiga/crypt/optiga_crypt.c ****     {
 503://MAC/Home/Downloads/getstarted-optiga-trust-m/optiga-trust-m-1/optiga/crypt/optiga_crypt.c **** #ifdef OPTIGA_LIB_DEBUG_NULL_CHECK
 504://MAC/Home/Downloads/getstarted-optiga-trust-m/optiga-trust-m-1/optiga/crypt/optiga_crypt.c ****         if ((NULL == me) || (NULL == me->my_cmd) || (NULL == hash_ctx))
 1082              	 .loc 1 504 0
 1083 0006 0028     	 cmp r0,#0
 1084 0008 2BD0     	 beq .L98
 1085              	 .loc 1 504 0 is_stmt 0 discriminator 1
 1086 000a 076A     	 ldr r7,[r0,#32]
 1087 000c 002F     	 cmp r7,#0
 1088 000e 28D0     	 beq .L98
 1089              	 .loc 1 504 0 discriminator 2
 1090 0010 0029     	 cmp r1,#0
 1091 0012 26D0     	 beq .L98
 505://MAC/Home/Downloads/getstarted-optiga-trust-m/optiga-trust-m-1/optiga/crypt/optiga_crypt.c ****         {
 506://MAC/Home/Downloads/getstarted-optiga-trust-m/optiga-trust-m-1/optiga/crypt/optiga_crypt.c ****             return_value = OPTIGA_CRYPT_ERROR_INVALID_INPUT;
 507://MAC/Home/Downloads/getstarted-optiga-trust-m/optiga-trust-m-1/optiga/crypt/optiga_crypt.c ****             break;
 508://MAC/Home/Downloads/getstarted-optiga-trust-m/optiga-trust-m-1/optiga/crypt/optiga_crypt.c ****         }
 509://MAC/Home/Downloads/getstarted-optiga-trust-m/optiga-trust-m-1/optiga/crypt/optiga_crypt.c **** #endif
 510://MAC/Home/Downloads/getstarted-optiga-trust-m/optiga-trust-m-1/optiga/crypt/optiga_crypt.c **** 
 511://MAC/Home/Downloads/getstarted-optiga-trust-m/optiga-trust-m-1/optiga/crypt/optiga_crypt.c ****         if (OPTIGA_LIB_INSTANCE_BUSY == me->instance_state)
 1092              	 .loc 1 511 0 is_stmt 1
 1093 0014 838D     	 ldrh r3,[r0,#44]
 1094 0016 012B     	 cmp r3,#1
 1095 0018 25D0     	 beq .L99
 512://MAC/Home/Downloads/getstarted-optiga-trust-m/optiga-trust-m-1/optiga/crypt/optiga_crypt.c ****         {
 513://MAC/Home/Downloads/getstarted-optiga-trust-m/optiga-trust-m-1/optiga/crypt/optiga_crypt.c ****             return_value = OPTIGA_CRYPT_ERROR_INSTANCE_IN_USE;
 514://MAC/Home/Downloads/getstarted-optiga-trust-m/optiga-trust-m-1/optiga/crypt/optiga_crypt.c ****             break;
 515://MAC/Home/Downloads/getstarted-optiga-trust-m/optiga-trust-m-1/optiga/crypt/optiga_crypt.c ****         }
 516://MAC/Home/Downloads/getstarted-optiga-trust-m/optiga-trust-m-1/optiga/crypt/optiga_crypt.c **** 
 517://MAC/Home/Downloads/getstarted-optiga-trust-m/optiga-trust-m-1/optiga/crypt/optiga_crypt.c ****         me->instance_state = OPTIGA_LIB_INSTANCE_BUSY;
 1096              	 .loc 1 517 0
 1097 001a 0126     	 mov r6,#1
 518://MAC/Home/Downloads/getstarted-optiga-trust-m/optiga-trust-m-1/optiga/crypt/optiga_crypt.c ****         p_params = (optiga_calc_hash_params_t *)&(me->params.optiga_calc_hash_params);
 519://MAC/Home/Downloads/getstarted-optiga-trust-m/optiga-trust-m-1/optiga/crypt/optiga_crypt.c ****         pal_os_memset(&me->params,0x00,sizeof(optiga_crypt_params_t));
 1098              	 .loc 1 519 0
 1099 001c 0021     	 mov r1,#0
 1100              	.LVL125:
 517://MAC/Home/Downloads/getstarted-optiga-trust-m/optiga-trust-m-1/optiga/crypt/optiga_crypt.c ****         p_params = (optiga_calc_hash_params_t *)&(me->params.optiga_calc_hash_params);
 1101              	 .loc 1 517 0
 1102 001e 8685     	 strh r6,[r0,#44]
 1103              	.LVL126:
 1104              	 .loc 1 519 0
 1105 0020 2022     	 mov r2,#32
 1106 0022 FFF7FEFF 	 bl memset
 1107              	.LVL127:
 520://MAC/Home/Downloads/getstarted-optiga-trust-m/optiga-trust-m-1/optiga/crypt/optiga_crypt.c **** 
 521://MAC/Home/Downloads/getstarted-optiga-trust-m/optiga-trust-m-1/optiga/crypt/optiga_crypt.c ****         OPTIGA_PROTECTION_ENABLE(me->my_cmd, me);
 1108              	 .loc 1 521 0
 1109 0026 231C     	 mov r3,r4
 1110 0028 2E33     	 add r3,r3,#46
 1111 002a 1978     	 ldrb r1,[r3]
 1112 002c 381C     	 mov r0,r7
 1113 002e 0022     	 mov r2,#0
 1114 0030 FFF7FEFF 	 bl optiga_cmd_set_shielded_connection_option
 1115              	.LVL128:
 522://MAC/Home/Downloads/getstarted-optiga-trust-m/optiga-trust-m-1/optiga/crypt/optiga_crypt.c ****         OPTIGA_PROTECTION_SET_VERSION(me->my_cmd, me);
 1116              	 .loc 1 522 0
 1117 0034 231C     	 mov r3,r4
 1118 0036 321C     	 mov r2,r6
 523://MAC/Home/Downloads/getstarted-optiga-trust-m/optiga-trust-m-1/optiga/crypt/optiga_crypt.c ****         p_params->hash_sequence = OPTIGA_CRYPT_HASH_START;
 1119              	 .loc 1 523 0
 1120 0038 0026     	 mov r6,#0
 522://MAC/Home/Downloads/getstarted-optiga-trust-m/optiga-trust-m-1/optiga/crypt/optiga_crypt.c ****         OPTIGA_PROTECTION_SET_VERSION(me->my_cmd, me);
 1121              	 .loc 1 522 0
 1122 003a 2F33     	 add r3,r3,#47
 1123 003c 1978     	 ldrb r1,[r3]
 1124 003e 206A     	 ldr r0,[r4,#32]
 1125 0040 FFF7FEFF 	 bl optiga_cmd_set_shielded_connection_option
 1126              	.LVL129:
 524://MAC/Home/Downloads/getstarted-optiga-trust-m/optiga-trust-m-1/optiga/crypt/optiga_crypt.c ****         p_params->p_hash_context = hash_ctx;
 1127              	 .loc 1 524 0
 1128 0044 A560     	 str r5,[r4,#8]
 523://MAC/Home/Downloads/getstarted-optiga-trust-m/optiga-trust-m-1/optiga/crypt/optiga_crypt.c ****         p_params->hash_sequence = OPTIGA_CRYPT_HASH_START;
 1129              	 .loc 1 523 0
 1130 0046 2673     	 strb r6,[r4,#12]
 525://MAC/Home/Downloads/getstarted-optiga-trust-m/optiga-trust-m-1/optiga/crypt/optiga_crypt.c ****         p_params->apparent_context_size = 0;
 1131              	 .loc 1 525 0
 1132 0048 E661     	 str r6,[r4,#28]
 526://MAC/Home/Downloads/getstarted-optiga-trust-m/optiga-trust-m-1/optiga/crypt/optiga_crypt.c ****         p_params->p_hash_data = NULL;
 1133              	 .loc 1 526 0
 1134 004a 6660     	 str r6,[r4,#4]
 527://MAC/Home/Downloads/getstarted-optiga-trust-m/optiga-trust-m-1/optiga/crypt/optiga_crypt.c ****         p_params->p_hash_oid = NULL;
 1135              	 .loc 1 527 0
 1136 004c 2660     	 str r6,[r4]
 528://MAC/Home/Downloads/getstarted-optiga-trust-m/optiga-trust-m-1/optiga/crypt/optiga_crypt.c **** 
 529://MAC/Home/Downloads/getstarted-optiga-trust-m/optiga-trust-m-1/optiga/crypt/optiga_crypt.c ****         return_value = optiga_cmd_calc_hash(me->my_cmd,
 1137              	 .loc 1 529 0
 1138 004e A979     	 ldrb r1,[r5,#6]
 1139 0050 206A     	 ldr r0,[r4,#32]
 1140 0052 221C     	 mov r2,r4
 1141 0054 FFF7FEFF 	 bl optiga_cmd_calc_hash
 1142              	.LVL130:
 1143 0058 051E     	 sub r5,r0,#0
 1144              	.LVL131:
 530://MAC/Home/Downloads/getstarted-optiga-trust-m/optiga-trust-m-1/optiga/crypt/optiga_crypt.c ****                                             hash_ctx->hash_algo,
 531://MAC/Home/Downloads/getstarted-optiga-trust-m/optiga-trust-m-1/optiga/crypt/optiga_crypt.c ****                                             (optiga_calc_hash_params_t *)p_params);
 532://MAC/Home/Downloads/getstarted-optiga-trust-m/optiga-trust-m-1/optiga/crypt/optiga_crypt.c ****         if (OPTIGA_LIB_SUCCESS != return_value)
 1145              	 .loc 1 532 0
 1146 005a B542     	 cmp r5,r6
 1147 005c 04D0     	 beq .L95
 533://MAC/Home/Downloads/getstarted-optiga-trust-m/optiga-trust-m-1/optiga/crypt/optiga_crypt.c ****         {
 534://MAC/Home/Downloads/getstarted-optiga-trust-m/optiga-trust-m-1/optiga/crypt/optiga_crypt.c ****             me->instance_state = OPTIGA_LIB_INSTANCE_FREE;
 1148              	 .loc 1 534 0
 1149 005e A685     	 strh r6,[r4,#44]
 1150 0060 02E0     	 b .L95
 1151              	.LVL132:
 1152              	.L98:
 506://MAC/Home/Downloads/getstarted-optiga-trust-m/optiga-trust-m-1/optiga/crypt/optiga_crypt.c ****             break;
 1153              	 .loc 1 506 0
 1154 0062 044D     	 ldr r5,.L103
 1155 0064 00E0     	 b .L95
 1156              	.L99:
 513://MAC/Home/Downloads/getstarted-optiga-trust-m/optiga-trust-m-1/optiga/crypt/optiga_crypt.c ****             break;
 1157              	 .loc 1 513 0
 1158 0066 044D     	 ldr r5,.L103+4
 1159              	.LVL133:
 1160              	.L95:
 535://MAC/Home/Downloads/getstarted-optiga-trust-m/optiga-trust-m-1/optiga/crypt/optiga_crypt.c ****         }
 536://MAC/Home/Downloads/getstarted-optiga-trust-m/optiga-trust-m-1/optiga/crypt/optiga_crypt.c ****     } while (FALSE);
 537://MAC/Home/Downloads/getstarted-optiga-trust-m/optiga-trust-m-1/optiga/crypt/optiga_crypt.c ****     optiga_crypt_reset_protection_level(me);
 1161              	 .loc 1 537 0
 1162 0068 201C     	 mov r0,r4
 1163 006a FFF7FEFF 	 bl optiga_crypt_reset_protection_level
 1164              	.LVL134:
 538://MAC/Home/Downloads/getstarted-optiga-trust-m/optiga-trust-m-1/optiga/crypt/optiga_crypt.c **** 
 539://MAC/Home/Downloads/getstarted-optiga-trust-m/optiga-trust-m-1/optiga/crypt/optiga_crypt.c ****     return (return_value);
 540://MAC/Home/Downloads/getstarted-optiga-trust-m/optiga-trust-m-1/optiga/crypt/optiga_crypt.c **** }
 1165              	 .loc 1 540 0
 1166              	 
 1167 006e 281C     	 mov r0,r5
 1168              	.LVL135:
 1169              	.LVL136:
 1170 0070 F8BD     	 pop {r3,r4,r5,r6,r7,pc}
 1171              	.L104:
 1172 0072 C046     	 .align 2
 1173              	.L103:
 1174 0074 03040000 	 .word 1027
 1175 0078 05040000 	 .word 1029
 1176              	 .cfi_endproc
 1177              	.LFE11:
 1179              	 .section .text.optiga_crypt_hash_update,"ax",%progbits
 1180              	 .align 1
 1181              	 .global optiga_crypt_hash_update
 1182              	 .code 16
 1183              	 .thumb_func
 1185              	optiga_crypt_hash_update:
 1186              	.LFB12:
 541://MAC/Home/Downloads/getstarted-optiga-trust-m/optiga-trust-m-1/optiga/crypt/optiga_crypt.c **** 
 542://MAC/Home/Downloads/getstarted-optiga-trust-m/optiga-trust-m-1/optiga/crypt/optiga_crypt.c **** optiga_lib_status_t optiga_crypt_hash_update(optiga_crypt_t * me,
 543://MAC/Home/Downloads/getstarted-optiga-trust-m/optiga-trust-m-1/optiga/crypt/optiga_crypt.c ****                                              optiga_hash_context_t * hash_ctx,
 544://MAC/Home/Downloads/getstarted-optiga-trust-m/optiga-trust-m-1/optiga/crypt/optiga_crypt.c ****                                              uint8_t source_of_data_to_hash,
 545://MAC/Home/Downloads/getstarted-optiga-trust-m/optiga-trust-m-1/optiga/crypt/optiga_crypt.c ****                                              const void * data_to_hash)
 546://MAC/Home/Downloads/getstarted-optiga-trust-m/optiga-trust-m-1/optiga/crypt/optiga_crypt.c **** {
 1187              	 .loc 1 546 0
 1188              	 .cfi_startproc
 1189              	.LVL137:
 1190 0000 F7B5     	 push {r0,r1,r2,r4,r5,r6,r7,lr}
 1191              	.LCFI13:
 1192              	 .cfi_def_cfa_offset 32
 1193              	 .cfi_offset 0,-32
 1194              	 .cfi_offset 1,-28
 1195              	 .cfi_offset 2,-24
 1196              	 .cfi_offset 4,-20
 1197              	 .cfi_offset 5,-16
 1198              	 .cfi_offset 6,-12
 1199              	 .cfi_offset 7,-8
 1200              	 .cfi_offset 14,-4
 1201              	 .loc 1 546 0
 1202 0002 041C     	 mov r4,r0
 1203 0004 0D1C     	 mov r5,r1
 1204 0006 0192     	 str r2,[sp,#4]
 1205 0008 1E1C     	 mov r6,r3
 547://MAC/Home/Downloads/getstarted-optiga-trust-m/optiga-trust-m-1/optiga/crypt/optiga_crypt.c ****     optiga_lib_status_t return_value = OPTIGA_CRYPT_ERROR;
 548://MAC/Home/Downloads/getstarted-optiga-trust-m/optiga-trust-m-1/optiga/crypt/optiga_crypt.c ****     optiga_calc_hash_params_t * p_params;
 549://MAC/Home/Downloads/getstarted-optiga-trust-m/optiga-trust-m-1/optiga/crypt/optiga_crypt.c ****     OPTIGA_CRYPT_LOG_MESSAGE(__FUNCTION__);
 550://MAC/Home/Downloads/getstarted-optiga-trust-m/optiga-trust-m-1/optiga/crypt/optiga_crypt.c ****     do
 551://MAC/Home/Downloads/getstarted-optiga-trust-m/optiga-trust-m-1/optiga/crypt/optiga_crypt.c ****     {
 552://MAC/Home/Downloads/getstarted-optiga-trust-m/optiga-trust-m-1/optiga/crypt/optiga_crypt.c **** #ifdef OPTIGA_LIB_DEBUG_NULL_CHECK
 553://MAC/Home/Downloads/getstarted-optiga-trust-m/optiga-trust-m-1/optiga/crypt/optiga_crypt.c ****         if ((NULL == me) || (NULL == me->my_cmd) ||
 1206              	 .loc 1 553 0
 1207 000a 0028     	 cmp r0,#0
 1208 000c 3AD0     	 beq .L112
 1209              	 .loc 1 553 0 is_stmt 0 discriminator 1
 1210 000e 076A     	 ldr r7,[r0,#32]
 1211 0010 002F     	 cmp r7,#0
 1212 0012 37D0     	 beq .L112
 1213              	 .loc 1 553 0 discriminator 2
 1214 0014 0029     	 cmp r1,#0
 1215 0016 35D0     	 beq .L112
 554://MAC/Home/Downloads/getstarted-optiga-trust-m/optiga-trust-m-1/optiga/crypt/optiga_crypt.c ****             (NULL == hash_ctx) || (NULL == data_to_hash))
 1216              	 .loc 1 554 0 is_stmt 1
 1217 0018 002B     	 cmp r3,#0
 1218 001a 33D0     	 beq .L112
 555://MAC/Home/Downloads/getstarted-optiga-trust-m/optiga-trust-m-1/optiga/crypt/optiga_crypt.c ****         {
 556://MAC/Home/Downloads/getstarted-optiga-trust-m/optiga-trust-m-1/optiga/crypt/optiga_crypt.c ****             return_value = OPTIGA_CRYPT_ERROR_INVALID_INPUT;
 557://MAC/Home/Downloads/getstarted-optiga-trust-m/optiga-trust-m-1/optiga/crypt/optiga_crypt.c ****             break;
 558://MAC/Home/Downloads/getstarted-optiga-trust-m/optiga-trust-m-1/optiga/crypt/optiga_crypt.c ****         }
 559://MAC/Home/Downloads/getstarted-optiga-trust-m/optiga-trust-m-1/optiga/crypt/optiga_crypt.c **** #endif
 560://MAC/Home/Downloads/getstarted-optiga-trust-m/optiga-trust-m-1/optiga/crypt/optiga_crypt.c **** 
 561://MAC/Home/Downloads/getstarted-optiga-trust-m/optiga-trust-m-1/optiga/crypt/optiga_crypt.c ****         if (OPTIGA_LIB_INSTANCE_BUSY == me->instance_state)
 1219              	 .loc 1 561 0
 1220 001c 838D     	 ldrh r3,[r0,#44]
 1221              	.LVL138:
 1222 001e 012B     	 cmp r3,#1
 1223 0020 32D0     	 beq .L113
 562://MAC/Home/Downloads/getstarted-optiga-trust-m/optiga-trust-m-1/optiga/crypt/optiga_crypt.c ****         {
 563://MAC/Home/Downloads/getstarted-optiga-trust-m/optiga-trust-m-1/optiga/crypt/optiga_crypt.c ****             return_value = OPTIGA_CRYPT_ERROR_INSTANCE_IN_USE;
 564://MAC/Home/Downloads/getstarted-optiga-trust-m/optiga-trust-m-1/optiga/crypt/optiga_crypt.c ****             break;
 565://MAC/Home/Downloads/getstarted-optiga-trust-m/optiga-trust-m-1/optiga/crypt/optiga_crypt.c ****         }
 566://MAC/Home/Downloads/getstarted-optiga-trust-m/optiga-trust-m-1/optiga/crypt/optiga_crypt.c **** 
 567://MAC/Home/Downloads/getstarted-optiga-trust-m/optiga-trust-m-1/optiga/crypt/optiga_crypt.c ****         me->instance_state = OPTIGA_LIB_INSTANCE_BUSY;
 1224              	 .loc 1 567 0
 1225 0022 0123     	 mov r3,#1
 568://MAC/Home/Downloads/getstarted-optiga-trust-m/optiga-trust-m-1/optiga/crypt/optiga_crypt.c ****         p_params = (optiga_calc_hash_params_t *)&(me->params.optiga_calc_hash_params);
 569://MAC/Home/Downloads/getstarted-optiga-trust-m/optiga-trust-m-1/optiga/crypt/optiga_crypt.c ****         pal_os_memset(&me->params,0x00,sizeof(optiga_crypt_params_t));
 1226              	 .loc 1 569 0
 1227 0024 0021     	 mov r1,#0
 1228              	.LVL139:
 567://MAC/Home/Downloads/getstarted-optiga-trust-m/optiga-trust-m-1/optiga/crypt/optiga_crypt.c ****         p_params = (optiga_calc_hash_params_t *)&(me->params.optiga_calc_hash_params);
 1229              	 .loc 1 567 0
 1230 0026 8385     	 strh r3,[r0,#44]
 1231              	.LVL140:
 1232              	 .loc 1 569 0
 1233 0028 2022     	 mov r2,#32
 1234              	.LVL141:
 1235 002a FFF7FEFF 	 bl memset
 1236              	.LVL142:
 570://MAC/Home/Downloads/getstarted-optiga-trust-m/optiga-trust-m-1/optiga/crypt/optiga_crypt.c **** 
 571://MAC/Home/Downloads/getstarted-optiga-trust-m/optiga-trust-m-1/optiga/crypt/optiga_crypt.c ****         OPTIGA_PROTECTION_ENABLE(me->my_cmd, me);
 1237              	 .loc 1 571 0
 1238 002e 231C     	 mov r3,r4
 1239 0030 2E33     	 add r3,r3,#46
 1240 0032 1978     	 ldrb r1,[r3]
 1241 0034 381C     	 mov r0,r7
 1242 0036 0022     	 mov r2,#0
 1243 0038 FFF7FEFF 	 bl optiga_cmd_set_shielded_connection_option
 1244              	.LVL143:
 572://MAC/Home/Downloads/getstarted-optiga-trust-m/optiga-trust-m-1/optiga/crypt/optiga_crypt.c ****         OPTIGA_PROTECTION_SET_VERSION(me->my_cmd, me);
 1245              	 .loc 1 572 0
 1246 003c 231C     	 mov r3,r4
 1247 003e 2F33     	 add r3,r3,#47
 1248 0040 1978     	 ldrb r1,[r3]
 1249 0042 206A     	 ldr r0,[r4,#32]
 1250 0044 0122     	 mov r2,#1
 1251 0046 FFF7FEFF 	 bl optiga_cmd_set_shielded_connection_option
 1252              	.LVL144:
 573://MAC/Home/Downloads/getstarted-optiga-trust-m/optiga-trust-m-1/optiga/crypt/optiga_crypt.c ****         p_params->source_of_data_to_hash = source_of_data_to_hash;
 1253              	 .loc 1 573 0
 1254 004a 6B46     	 mov r3,sp
 1255 004c 1B79     	 ldrb r3,[r3,#4]
 574://MAC/Home/Downloads/getstarted-optiga-trust-m/optiga-trust-m-1/optiga/crypt/optiga_crypt.c ****         p_params->hash_sequence = OPTIGA_CRYPT_HASH_CONTINUE;
 575://MAC/Home/Downloads/getstarted-optiga-trust-m/optiga-trust-m-1/optiga/crypt/optiga_crypt.c ****         p_params->p_hash_context = hash_ctx;
 1256              	 .loc 1 575 0
 1257 004e A560     	 str r5,[r4,#8]
 573://MAC/Home/Downloads/getstarted-optiga-trust-m/optiga-trust-m-1/optiga/crypt/optiga_crypt.c ****         p_params->source_of_data_to_hash = source_of_data_to_hash;
 1258              	 .loc 1 573 0
 1259 0050 6373     	 strb r3,[r4,#13]
 574://MAC/Home/Downloads/getstarted-optiga-trust-m/optiga-trust-m-1/optiga/crypt/optiga_crypt.c ****         p_params->hash_sequence = OPTIGA_CRYPT_HASH_CONTINUE;
 1260              	 .loc 1 574 0
 1261 0052 0223     	 mov r3,#2
 1262 0054 2373     	 strb r3,[r4,#12]
 576://MAC/Home/Downloads/getstarted-optiga-trust-m/optiga-trust-m-1/optiga/crypt/optiga_crypt.c ****         p_params->apparent_context_size = p_params->p_hash_context->context_buffer_length;
 1263              	 .loc 1 576 0
 1264 0056 AB88     	 ldrh r3,[r5,#4]
 1265 0058 E361     	 str r3,[r4,#28]
 577://MAC/Home/Downloads/getstarted-optiga-trust-m/optiga-trust-m-1/optiga/crypt/optiga_crypt.c ****         p_params->p_hash_data = NULL;
 1266              	 .loc 1 577 0
 1267 005a 0023     	 mov r3,#0
 1268 005c 6360     	 str r3,[r4,#4]
 578://MAC/Home/Downloads/getstarted-optiga-trust-m/optiga-trust-m-1/optiga/crypt/optiga_crypt.c ****         p_params->p_hash_oid = NULL;
 1269              	 .loc 1 578 0
 1270 005e 2360     	 str r3,[r4]
 579://MAC/Home/Downloads/getstarted-optiga-trust-m/optiga-trust-m-1/optiga/crypt/optiga_crypt.c **** 
 580://MAC/Home/Downloads/getstarted-optiga-trust-m/optiga-trust-m-1/optiga/crypt/optiga_crypt.c ****         if (source_of_data_to_hash)
 1271              	 .loc 1 580 0
 1272 0060 019B     	 ldr r3,[sp,#4]
 1273 0062 002B     	 cmp r3,#0
 1274 0064 01D0     	 beq .L107
 581://MAC/Home/Downloads/getstarted-optiga-trust-m/optiga-trust-m-1/optiga/crypt/optiga_crypt.c ****         {
 582://MAC/Home/Downloads/getstarted-optiga-trust-m/optiga-trust-m-1/optiga/crypt/optiga_crypt.c ****             p_params->p_hash_data = (hash_data_from_host_t *)data_to_hash;
 1275              	 .loc 1 582 0
 1276 0066 6660     	 str r6,[r4,#4]
 1277 0068 02E0     	 b .L108
 1278              	.L107:
 583://MAC/Home/Downloads/getstarted-optiga-trust-m/optiga-trust-m-1/optiga/crypt/optiga_crypt.c ****         }
 584://MAC/Home/Downloads/getstarted-optiga-trust-m/optiga-trust-m-1/optiga/crypt/optiga_crypt.c ****         else
 585://MAC/Home/Downloads/getstarted-optiga-trust-m/optiga-trust-m-1/optiga/crypt/optiga_crypt.c ****         {
 586://MAC/Home/Downloads/getstarted-optiga-trust-m/optiga-trust-m-1/optiga/crypt/optiga_crypt.c ****             p_params->hash_sequence |= OPTIGA_CRYPT_HASH_FOR_OID;
 1279              	 .loc 1 586 0
 1280 006a 1223     	 mov r3,#18
 587://MAC/Home/Downloads/getstarted-optiga-trust-m/optiga-trust-m-1/optiga/crypt/optiga_crypt.c ****             p_params->p_hash_oid = (hash_data_in_optiga_t *)data_to_hash;
 1281              	 .loc 1 587 0
 1282 006c 2660     	 str r6,[r4]
 586://MAC/Home/Downloads/getstarted-optiga-trust-m/optiga-trust-m-1/optiga/crypt/optiga_crypt.c ****             p_params->p_hash_oid = (hash_data_in_optiga_t *)data_to_hash;
 1283              	 .loc 1 586 0
 1284 006e 2373     	 strb r3,[r4,#12]
 1285              	.L108:
 588://MAC/Home/Downloads/getstarted-optiga-trust-m/optiga-trust-m-1/optiga/crypt/optiga_crypt.c ****         }
 589://MAC/Home/Downloads/getstarted-optiga-trust-m/optiga-trust-m-1/optiga/crypt/optiga_crypt.c **** 
 590://MAC/Home/Downloads/getstarted-optiga-trust-m/optiga-trust-m-1/optiga/crypt/optiga_crypt.c ****         return_value = optiga_cmd_calc_hash(me->my_cmd,
 1286              	 .loc 1 590 0
 1287 0070 A979     	 ldrb r1,[r5,#6]
 1288 0072 206A     	 ldr r0,[r4,#32]
 1289 0074 221C     	 mov r2,r4
 1290 0076 FFF7FEFF 	 bl optiga_cmd_calc_hash
 1291              	.LVL145:
 1292 007a 051E     	 sub r5,r0,#0
 1293              	.LVL146:
 591://MAC/Home/Downloads/getstarted-optiga-trust-m/optiga-trust-m-1/optiga/crypt/optiga_crypt.c ****                                             hash_ctx->hash_algo,
 592://MAC/Home/Downloads/getstarted-optiga-trust-m/optiga-trust-m-1/optiga/crypt/optiga_crypt.c ****                                             (optiga_calc_hash_params_t *)p_params);
 593://MAC/Home/Downloads/getstarted-optiga-trust-m/optiga-trust-m-1/optiga/crypt/optiga_crypt.c ****         if (OPTIGA_LIB_SUCCESS != return_value)
 1294              	 .loc 1 593 0
 1295 007c 05D0     	 beq .L106
 594://MAC/Home/Downloads/getstarted-optiga-trust-m/optiga-trust-m-1/optiga/crypt/optiga_crypt.c ****         {
 595://MAC/Home/Downloads/getstarted-optiga-trust-m/optiga-trust-m-1/optiga/crypt/optiga_crypt.c ****             me->instance_state = OPTIGA_LIB_INSTANCE_FREE;
 1296              	 .loc 1 595 0
 1297 007e 0023     	 mov r3,#0
 1298 0080 A385     	 strh r3,[r4,#44]
 1299 0082 02E0     	 b .L106
 1300              	.LVL147:
 1301              	.L112:
 556://MAC/Home/Downloads/getstarted-optiga-trust-m/optiga-trust-m-1/optiga/crypt/optiga_crypt.c ****             break;
 1302              	 .loc 1 556 0
 1303 0084 034D     	 ldr r5,.L117
 1304 0086 00E0     	 b .L106
 1305              	.LVL148:
 1306              	.L113:
 563://MAC/Home/Downloads/getstarted-optiga-trust-m/optiga-trust-m-1/optiga/crypt/optiga_crypt.c ****             break;
 1307              	 .loc 1 563 0
 1308 0088 034D     	 ldr r5,.L117+4
 1309              	.LVL149:
 1310              	.L106:
 596://MAC/Home/Downloads/getstarted-optiga-trust-m/optiga-trust-m-1/optiga/crypt/optiga_crypt.c ****         }
 597://MAC/Home/Downloads/getstarted-optiga-trust-m/optiga-trust-m-1/optiga/crypt/optiga_crypt.c ****     } while (FALSE);
 598://MAC/Home/Downloads/getstarted-optiga-trust-m/optiga-trust-m-1/optiga/crypt/optiga_crypt.c ****     optiga_crypt_reset_protection_level(me);
 1311              	 .loc 1 598 0
 1312 008a 201C     	 mov r0,r4
 1313 008c FFF7FEFF 	 bl optiga_crypt_reset_protection_level
 1314              	.LVL150:
 599://MAC/Home/Downloads/getstarted-optiga-trust-m/optiga-trust-m-1/optiga/crypt/optiga_crypt.c **** 
 600://MAC/Home/Downloads/getstarted-optiga-trust-m/optiga-trust-m-1/optiga/crypt/optiga_crypt.c ****     return (return_value);
 601://MAC/Home/Downloads/getstarted-optiga-trust-m/optiga-trust-m-1/optiga/crypt/optiga_crypt.c **** }
 1315              	 .loc 1 601 0
 1316              	 
 1317 0090 281C     	 mov r0,r5
 1318              	.LVL151:
 1319              	.LVL152:
 1320              	.LVL153:
 1321 0092 FEBD     	 pop {r1,r2,r3,r4,r5,r6,r7,pc}
 1322              	.L118:
 1323              	 .align 2
 1324              	.L117:
 1325 0094 03040000 	 .word 1027
 1326 0098 05040000 	 .word 1029
 1327              	 .cfi_endproc
 1328              	.LFE12:
 1330              	 .section .text.optiga_crypt_hash_finalize,"ax",%progbits
 1331              	 .align 1
 1332              	 .global optiga_crypt_hash_finalize
 1333              	 .code 16
 1334              	 .thumb_func
 1336              	optiga_crypt_hash_finalize:
 1337              	.LFB13:
 602://MAC/Home/Downloads/getstarted-optiga-trust-m/optiga-trust-m-1/optiga/crypt/optiga_crypt.c **** 
 603://MAC/Home/Downloads/getstarted-optiga-trust-m/optiga-trust-m-1/optiga/crypt/optiga_crypt.c **** optiga_lib_status_t optiga_crypt_hash_finalize(optiga_crypt_t * me,
 604://MAC/Home/Downloads/getstarted-optiga-trust-m/optiga-trust-m-1/optiga/crypt/optiga_crypt.c ****                                                optiga_hash_context_t * hash_ctx,
 605://MAC/Home/Downloads/getstarted-optiga-trust-m/optiga-trust-m-1/optiga/crypt/optiga_crypt.c ****                                                uint8_t * hash_output)
 606://MAC/Home/Downloads/getstarted-optiga-trust-m/optiga-trust-m-1/optiga/crypt/optiga_crypt.c **** {
 1338              	 .loc 1 606 0
 1339              	 .cfi_startproc
 1340              	.LVL154:
 1341 0000 F7B5     	 push {r0,r1,r2,r4,r5,r6,r7,lr}
 1342              	.LCFI14:
 1343              	 .cfi_def_cfa_offset 32
 1344              	 .cfi_offset 0,-32
 1345              	 .cfi_offset 1,-28
 1346              	 .cfi_offset 2,-24
 1347              	 .cfi_offset 4,-20
 1348              	 .cfi_offset 5,-16
 1349              	 .cfi_offset 6,-12
 1350              	 .cfi_offset 7,-8
 1351              	 .cfi_offset 14,-4
 1352              	 .loc 1 606 0
 1353 0002 041C     	 mov r4,r0
 1354 0004 0D1C     	 mov r5,r1
 1355 0006 0192     	 str r2,[sp,#4]
 607://MAC/Home/Downloads/getstarted-optiga-trust-m/optiga-trust-m-1/optiga/crypt/optiga_crypt.c ****     optiga_lib_status_t return_value = OPTIGA_CRYPT_ERROR;
 608://MAC/Home/Downloads/getstarted-optiga-trust-m/optiga-trust-m-1/optiga/crypt/optiga_crypt.c ****     optiga_calc_hash_params_t * p_params;
 609://MAC/Home/Downloads/getstarted-optiga-trust-m/optiga-trust-m-1/optiga/crypt/optiga_crypt.c ****     OPTIGA_CRYPT_LOG_MESSAGE(__FUNCTION__);
 610://MAC/Home/Downloads/getstarted-optiga-trust-m/optiga-trust-m-1/optiga/crypt/optiga_crypt.c ****     do
 611://MAC/Home/Downloads/getstarted-optiga-trust-m/optiga-trust-m-1/optiga/crypt/optiga_crypt.c ****     {
 612://MAC/Home/Downloads/getstarted-optiga-trust-m/optiga-trust-m-1/optiga/crypt/optiga_crypt.c **** #ifdef OPTIGA_LIB_DEBUG_NULL_CHECK
 613://MAC/Home/Downloads/getstarted-optiga-trust-m/optiga-trust-m-1/optiga/crypt/optiga_crypt.c ****         if ((NULL == me) || (NULL == me->my_cmd) ||
 1356              	 .loc 1 613 0
 1357 0008 0028     	 cmp r0,#0
 1358 000a 31D0     	 beq .L124
 1359              	 .loc 1 613 0 is_stmt 0 discriminator 1
 1360 000c 076A     	 ldr r7,[r0,#32]
 1361 000e 002F     	 cmp r7,#0
 1362 0010 2ED0     	 beq .L124
 1363              	 .loc 1 613 0 discriminator 2
 1364 0012 0029     	 cmp r1,#0
 1365 0014 2CD0     	 beq .L124
 614://MAC/Home/Downloads/getstarted-optiga-trust-m/optiga-trust-m-1/optiga/crypt/optiga_crypt.c ****             (NULL == hash_ctx) || (NULL == hash_output))
 1366              	 .loc 1 614 0 is_stmt 1
 1367 0016 002A     	 cmp r2,#0
 1368 0018 2AD0     	 beq .L124
 615://MAC/Home/Downloads/getstarted-optiga-trust-m/optiga-trust-m-1/optiga/crypt/optiga_crypt.c ****         {
 616://MAC/Home/Downloads/getstarted-optiga-trust-m/optiga-trust-m-1/optiga/crypt/optiga_crypt.c ****             return_value = OPTIGA_CRYPT_ERROR_INVALID_INPUT;
 617://MAC/Home/Downloads/getstarted-optiga-trust-m/optiga-trust-m-1/optiga/crypt/optiga_crypt.c ****             break;
 618://MAC/Home/Downloads/getstarted-optiga-trust-m/optiga-trust-m-1/optiga/crypt/optiga_crypt.c ****         }
 619://MAC/Home/Downloads/getstarted-optiga-trust-m/optiga-trust-m-1/optiga/crypt/optiga_crypt.c **** #endif
 620://MAC/Home/Downloads/getstarted-optiga-trust-m/optiga-trust-m-1/optiga/crypt/optiga_crypt.c **** 
 621://MAC/Home/Downloads/getstarted-optiga-trust-m/optiga-trust-m-1/optiga/crypt/optiga_crypt.c ****         if (OPTIGA_LIB_INSTANCE_BUSY == me->instance_state)
 1369              	 .loc 1 621 0
 1370 001a 838D     	 ldrh r3,[r0,#44]
 1371 001c 012B     	 cmp r3,#1
 1372 001e 29D0     	 beq .L125
 622://MAC/Home/Downloads/getstarted-optiga-trust-m/optiga-trust-m-1/optiga/crypt/optiga_crypt.c ****         {
 623://MAC/Home/Downloads/getstarted-optiga-trust-m/optiga-trust-m-1/optiga/crypt/optiga_crypt.c ****             return_value = OPTIGA_CRYPT_ERROR_INSTANCE_IN_USE;
 624://MAC/Home/Downloads/getstarted-optiga-trust-m/optiga-trust-m-1/optiga/crypt/optiga_crypt.c ****             break;
 625://MAC/Home/Downloads/getstarted-optiga-trust-m/optiga-trust-m-1/optiga/crypt/optiga_crypt.c ****         }
 626://MAC/Home/Downloads/getstarted-optiga-trust-m/optiga-trust-m-1/optiga/crypt/optiga_crypt.c **** 
 627://MAC/Home/Downloads/getstarted-optiga-trust-m/optiga-trust-m-1/optiga/crypt/optiga_crypt.c ****         me->instance_state = OPTIGA_LIB_INSTANCE_BUSY;
 1373              	 .loc 1 627 0
 1374 0020 0126     	 mov r6,#1
 628://MAC/Home/Downloads/getstarted-optiga-trust-m/optiga-trust-m-1/optiga/crypt/optiga_crypt.c ****         p_params = (optiga_calc_hash_params_t *)&(me->params.optiga_calc_hash_params);
 629://MAC/Home/Downloads/getstarted-optiga-trust-m/optiga-trust-m-1/optiga/crypt/optiga_crypt.c ****         pal_os_memset(&me->params,0x00,sizeof(optiga_crypt_params_t));
 1375              	 .loc 1 629 0
 1376 0022 0021     	 mov r1,#0
 1377              	.LVL155:
 627://MAC/Home/Downloads/getstarted-optiga-trust-m/optiga-trust-m-1/optiga/crypt/optiga_crypt.c ****         p_params = (optiga_calc_hash_params_t *)&(me->params.optiga_calc_hash_params);
 1378              	 .loc 1 627 0
 1379 0024 8685     	 strh r6,[r0,#44]
 1380              	.LVL156:
 1381              	 .loc 1 629 0
 1382 0026 2022     	 mov r2,#32
 1383              	.LVL157:
 1384 0028 FFF7FEFF 	 bl memset
 1385              	.LVL158:
 630://MAC/Home/Downloads/getstarted-optiga-trust-m/optiga-trust-m-1/optiga/crypt/optiga_crypt.c **** 
 631://MAC/Home/Downloads/getstarted-optiga-trust-m/optiga-trust-m-1/optiga/crypt/optiga_crypt.c ****         OPTIGA_PROTECTION_ENABLE(me->my_cmd, me);
 1386              	 .loc 1 631 0
 1387 002c 231C     	 mov r3,r4
 1388 002e 2E33     	 add r3,r3,#46
 1389 0030 1978     	 ldrb r1,[r3]
 1390 0032 381C     	 mov r0,r7
 1391 0034 0022     	 mov r2,#0
 1392 0036 FFF7FEFF 	 bl optiga_cmd_set_shielded_connection_option
 1393              	.LVL159:
 632://MAC/Home/Downloads/getstarted-optiga-trust-m/optiga-trust-m-1/optiga/crypt/optiga_crypt.c ****         OPTIGA_PROTECTION_SET_VERSION(me->my_cmd, me);
 1394              	 .loc 1 632 0
 1395 003a 231C     	 mov r3,r4
 1396 003c 2F33     	 add r3,r3,#47
 1397 003e 1978     	 ldrb r1,[r3]
 1398 0040 321C     	 mov r2,r6
 1399 0042 206A     	 ldr r0,[r4,#32]
 1400 0044 FFF7FEFF 	 bl optiga_cmd_set_shielded_connection_option
 1401              	.LVL160:
 633://MAC/Home/Downloads/getstarted-optiga-trust-m/optiga-trust-m-1/optiga/crypt/optiga_crypt.c ****         p_params->p_out_digest = hash_output;
 1402              	 .loc 1 633 0
 1403 0048 019B     	 ldr r3,[sp,#4]
 634://MAC/Home/Downloads/getstarted-optiga-trust-m/optiga-trust-m-1/optiga/crypt/optiga_crypt.c ****         p_params->hash_sequence = OPTIGA_CRYPT_HASH_FINAL;
 635://MAC/Home/Downloads/getstarted-optiga-trust-m/optiga-trust-m-1/optiga/crypt/optiga_crypt.c ****         p_params->p_hash_context = hash_ctx;
 636://MAC/Home/Downloads/getstarted-optiga-trust-m/optiga-trust-m-1/optiga/crypt/optiga_crypt.c ****         p_params->apparent_context_size = p_params->p_hash_context->context_buffer_length;
 637://MAC/Home/Downloads/getstarted-optiga-trust-m/optiga-trust-m-1/optiga/crypt/optiga_crypt.c ****         p_params->p_hash_data = NULL;
 1404              	 .loc 1 637 0
 1405 004a 0026     	 mov r6,#0
 633://MAC/Home/Downloads/getstarted-optiga-trust-m/optiga-trust-m-1/optiga/crypt/optiga_crypt.c ****         p_params->p_out_digest = hash_output;
 1406              	 .loc 1 633 0
 1407 004c 6361     	 str r3,[r4,#20]
 634://MAC/Home/Downloads/getstarted-optiga-trust-m/optiga-trust-m-1/optiga/crypt/optiga_crypt.c ****         p_params->hash_sequence = OPTIGA_CRYPT_HASH_FINAL;
 1408              	 .loc 1 634 0
 1409 004e 0323     	 mov r3,#3
 635://MAC/Home/Downloads/getstarted-optiga-trust-m/optiga-trust-m-1/optiga/crypt/optiga_crypt.c ****         p_params->apparent_context_size = p_params->p_hash_context->context_buffer_length;
 1410              	 .loc 1 635 0
 1411 0050 A560     	 str r5,[r4,#8]
 634://MAC/Home/Downloads/getstarted-optiga-trust-m/optiga-trust-m-1/optiga/crypt/optiga_crypt.c ****         p_params->hash_sequence = OPTIGA_CRYPT_HASH_FINAL;
 1412              	 .loc 1 634 0
 1413 0052 2373     	 strb r3,[r4,#12]
 636://MAC/Home/Downloads/getstarted-optiga-trust-m/optiga-trust-m-1/optiga/crypt/optiga_crypt.c ****         p_params->p_hash_data = NULL;
 1414              	 .loc 1 636 0
 1415 0054 AB88     	 ldrh r3,[r5,#4]
 1416              	 .loc 1 637 0
 1417 0056 6660     	 str r6,[r4,#4]
 636://MAC/Home/Downloads/getstarted-optiga-trust-m/optiga-trust-m-1/optiga/crypt/optiga_crypt.c ****         p_params->p_hash_data = NULL;
 1418              	 .loc 1 636 0
 1419 0058 E361     	 str r3,[r4,#28]
 638://MAC/Home/Downloads/getstarted-optiga-trust-m/optiga-trust-m-1/optiga/crypt/optiga_crypt.c ****         p_params->p_hash_oid = NULL;
 1420              	 .loc 1 638 0
 1421 005a 2660     	 str r6,[r4]
 639://MAC/Home/Downloads/getstarted-optiga-trust-m/optiga-trust-m-1/optiga/crypt/optiga_crypt.c **** 
 640://MAC/Home/Downloads/getstarted-optiga-trust-m/optiga-trust-m-1/optiga/crypt/optiga_crypt.c ****         return_value = optiga_cmd_calc_hash(me->my_cmd,
 1422              	 .loc 1 640 0
 1423 005c A979     	 ldrb r1,[r5,#6]
 1424 005e 206A     	 ldr r0,[r4,#32]
 1425 0060 221C     	 mov r2,r4
 1426 0062 FFF7FEFF 	 bl optiga_cmd_calc_hash
 1427              	.LVL161:
 1428 0066 051E     	 sub r5,r0,#0
 1429              	.LVL162:
 641://MAC/Home/Downloads/getstarted-optiga-trust-m/optiga-trust-m-1/optiga/crypt/optiga_crypt.c ****                                             hash_ctx->hash_algo,
 642://MAC/Home/Downloads/getstarted-optiga-trust-m/optiga-trust-m-1/optiga/crypt/optiga_crypt.c ****                                             (optiga_calc_hash_params_t *)p_params);
 643://MAC/Home/Downloads/getstarted-optiga-trust-m/optiga-trust-m-1/optiga/crypt/optiga_crypt.c ****         if (OPTIGA_LIB_SUCCESS != return_value)
 1430              	 .loc 1 643 0
 1431 0068 B542     	 cmp r5,r6
 1432 006a 04D0     	 beq .L120
 644://MAC/Home/Downloads/getstarted-optiga-trust-m/optiga-trust-m-1/optiga/crypt/optiga_crypt.c ****         {
 645://MAC/Home/Downloads/getstarted-optiga-trust-m/optiga-trust-m-1/optiga/crypt/optiga_crypt.c ****             me->instance_state = OPTIGA_LIB_INSTANCE_FREE;
 1433              	 .loc 1 645 0
 1434 006c A685     	 strh r6,[r4,#44]
 1435 006e 02E0     	 b .L120
 1436              	.LVL163:
 1437              	.L124:
 616://MAC/Home/Downloads/getstarted-optiga-trust-m/optiga-trust-m-1/optiga/crypt/optiga_crypt.c ****             break;
 1438              	 .loc 1 616 0
 1439 0070 034D     	 ldr r5,.L129
 1440 0072 00E0     	 b .L120
 1441              	.L125:
 623://MAC/Home/Downloads/getstarted-optiga-trust-m/optiga-trust-m-1/optiga/crypt/optiga_crypt.c ****             break;
 1442              	 .loc 1 623 0
 1443 0074 034D     	 ldr r5,.L129+4
 1444              	.LVL164:
 1445              	.L120:
 646://MAC/Home/Downloads/getstarted-optiga-trust-m/optiga-trust-m-1/optiga/crypt/optiga_crypt.c ****         }
 647://MAC/Home/Downloads/getstarted-optiga-trust-m/optiga-trust-m-1/optiga/crypt/optiga_crypt.c ****     } while (FALSE);
 648://MAC/Home/Downloads/getstarted-optiga-trust-m/optiga-trust-m-1/optiga/crypt/optiga_crypt.c ****     optiga_crypt_reset_protection_level(me);
 1446              	 .loc 1 648 0
 1447 0076 201C     	 mov r0,r4
 1448 0078 FFF7FEFF 	 bl optiga_crypt_reset_protection_level
 1449              	.LVL165:
 649://MAC/Home/Downloads/getstarted-optiga-trust-m/optiga-trust-m-1/optiga/crypt/optiga_crypt.c **** 
 650://MAC/Home/Downloads/getstarted-optiga-trust-m/optiga-trust-m-1/optiga/crypt/optiga_crypt.c ****     return (return_value);
 651://MAC/Home/Downloads/getstarted-optiga-trust-m/optiga-trust-m-1/optiga/crypt/optiga_crypt.c **** }
 1450              	 .loc 1 651 0
 1451              	 
 1452 007c 281C     	 mov r0,r5
 1453              	.LVL166:
 1454              	.LVL167:
 1455 007e FEBD     	 pop {r1,r2,r3,r4,r5,r6,r7,pc}
 1456              	.L130:
 1457              	 .align 2
 1458              	.L129:
 1459 0080 03040000 	 .word 1027
 1460 0084 05040000 	 .word 1029
 1461              	 .cfi_endproc
 1462              	.LFE13:
 1464              	 .section .text.optiga_crypt_ecc_generate_keypair,"ax",%progbits
 1465              	 .align 1
 1466              	 .global optiga_crypt_ecc_generate_keypair
 1467              	 .code 16
 1468              	 .thumb_func
 1470              	optiga_crypt_ecc_generate_keypair:
 1471              	.LFB14:
 652://MAC/Home/Downloads/getstarted-optiga-trust-m/optiga-trust-m-1/optiga/crypt/optiga_crypt.c **** #endif //OPTIGA_CRYPT_HASH_ENABLED
 653://MAC/Home/Downloads/getstarted-optiga-trust-m/optiga-trust-m-1/optiga/crypt/optiga_crypt.c **** 
 654://MAC/Home/Downloads/getstarted-optiga-trust-m/optiga-trust-m-1/optiga/crypt/optiga_crypt.c **** #ifdef OPTIGA_CRYPT_ECC_GENERATE_KEYPAIR_ENABLED
 655://MAC/Home/Downloads/getstarted-optiga-trust-m/optiga-trust-m-1/optiga/crypt/optiga_crypt.c **** optiga_lib_status_t optiga_crypt_ecc_generate_keypair(optiga_crypt_t * me,
 656://MAC/Home/Downloads/getstarted-optiga-trust-m/optiga-trust-m-1/optiga/crypt/optiga_crypt.c ****                                                       optiga_ecc_curve_t curve_id,
 657://MAC/Home/Downloads/getstarted-optiga-trust-m/optiga-trust-m-1/optiga/crypt/optiga_crypt.c ****                                                       uint8_t key_usage,
 658://MAC/Home/Downloads/getstarted-optiga-trust-m/optiga-trust-m-1/optiga/crypt/optiga_crypt.c ****                                                       bool_t export_private_key,
 659://MAC/Home/Downloads/getstarted-optiga-trust-m/optiga-trust-m-1/optiga/crypt/optiga_crypt.c ****                                                       void * private_key,
 660://MAC/Home/Downloads/getstarted-optiga-trust-m/optiga-trust-m-1/optiga/crypt/optiga_crypt.c ****                                                       uint8_t * public_key,
 661://MAC/Home/Downloads/getstarted-optiga-trust-m/optiga-trust-m-1/optiga/crypt/optiga_crypt.c ****                                                       uint16_t * public_key_length)
 662://MAC/Home/Downloads/getstarted-optiga-trust-m/optiga-trust-m-1/optiga/crypt/optiga_crypt.c **** {
 1472              	 .loc 1 662 0
 1473              	 .cfi_startproc
 1474              	.LVL168:
 1475 0000 1FB5     	 push {r0,r1,r2,r3,r4,lr}
 1476              	.LCFI15:
 1477              	 .cfi_def_cfa_offset 24
 1478              	 .cfi_offset 0,-24
 1479              	 .cfi_offset 1,-20
 1480              	 .cfi_offset 2,-16
 1481              	 .cfi_offset 3,-12
 1482              	 .cfi_offset 4,-8
 1483              	 .cfi_offset 14,-4
 663://MAC/Home/Downloads/getstarted-optiga-trust-m/optiga-trust-m-1/optiga/crypt/optiga_crypt.c ****     OPTIGA_CRYPT_LOG_MESSAGE(__FUNCTION__);
 664://MAC/Home/Downloads/getstarted-optiga-trust-m/optiga-trust-m-1/optiga/crypt/optiga_crypt.c ****     return (optiga_crypt_generate_keypair(me,
 1484              	 .loc 1 664 0
 1485 0002 069C     	 ldr r4,[sp,#24]
 1486 0004 0094     	 str r4,[sp]
 1487 0006 079C     	 ldr r4,[sp,#28]
 1488 0008 0194     	 str r4,[sp,#4]
 1489 000a 089C     	 ldr r4,[sp,#32]
 1490 000c 0294     	 str r4,[sp,#8]
 1491 000e FFF7FEFF 	 bl optiga_crypt_generate_keypair
 1492              	.LVL169:
 665://MAC/Home/Downloads/getstarted-optiga-trust-m/optiga-trust-m-1/optiga/crypt/optiga_crypt.c ****                                          (uint8_t)curve_id,
 666://MAC/Home/Downloads/getstarted-optiga-trust-m/optiga-trust-m-1/optiga/crypt/optiga_crypt.c ****                                          key_usage,
 667://MAC/Home/Downloads/getstarted-optiga-trust-m/optiga-trust-m-1/optiga/crypt/optiga_crypt.c ****                                          export_private_key,
 668://MAC/Home/Downloads/getstarted-optiga-trust-m/optiga-trust-m-1/optiga/crypt/optiga_crypt.c ****                                          private_key,
 669://MAC/Home/Downloads/getstarted-optiga-trust-m/optiga-trust-m-1/optiga/crypt/optiga_crypt.c ****                                          public_key,
 670://MAC/Home/Downloads/getstarted-optiga-trust-m/optiga-trust-m-1/optiga/crypt/optiga_crypt.c ****                                          public_key_length));
 671://MAC/Home/Downloads/getstarted-optiga-trust-m/optiga-trust-m-1/optiga/crypt/optiga_crypt.c **** }
 1493              	 .loc 1 671 0
 1494 0012 04B0     	 add sp,sp,#16
 1495              	 
 1496 0014 10BD     	 pop {r4,pc}
 1497              	 .cfi_endproc
 1498              	.LFE14:
 1500              	 .section .text.optiga_crypt_ecdsa_sign,"ax",%progbits
 1501              	 .align 1
 1502              	 .global optiga_crypt_ecdsa_sign
 1503              	 .code 16
 1504              	 .thumb_func
 1506              	optiga_crypt_ecdsa_sign:
 1507              	.LFB15:
 672://MAC/Home/Downloads/getstarted-optiga-trust-m/optiga-trust-m-1/optiga/crypt/optiga_crypt.c **** #endif //OPTIGA_CRYPT_ECC_GENERATE_KEYPAIR_ENABLED
 673://MAC/Home/Downloads/getstarted-optiga-trust-m/optiga-trust-m-1/optiga/crypt/optiga_crypt.c **** 
 674://MAC/Home/Downloads/getstarted-optiga-trust-m/optiga-trust-m-1/optiga/crypt/optiga_crypt.c **** #ifdef OPTIGA_CRYPT_ECDSA_SIGN_ENABLED
 675://MAC/Home/Downloads/getstarted-optiga-trust-m/optiga-trust-m-1/optiga/crypt/optiga_crypt.c **** optiga_lib_status_t optiga_crypt_ecdsa_sign(optiga_crypt_t * me,
 676://MAC/Home/Downloads/getstarted-optiga-trust-m/optiga-trust-m-1/optiga/crypt/optiga_crypt.c ****                                             const uint8_t * digest,
 677://MAC/Home/Downloads/getstarted-optiga-trust-m/optiga-trust-m-1/optiga/crypt/optiga_crypt.c ****                                             uint8_t digest_length,
 678://MAC/Home/Downloads/getstarted-optiga-trust-m/optiga-trust-m-1/optiga/crypt/optiga_crypt.c ****                                             optiga_key_id_t private_key,
 679://MAC/Home/Downloads/getstarted-optiga-trust-m/optiga-trust-m-1/optiga/crypt/optiga_crypt.c ****                                             uint8_t * signature,
 680://MAC/Home/Downloads/getstarted-optiga-trust-m/optiga-trust-m-1/optiga/crypt/optiga_crypt.c ****                                             uint16_t * signature_length)
 681://MAC/Home/Downloads/getstarted-optiga-trust-m/optiga-trust-m-1/optiga/crypt/optiga_crypt.c **** {
 1508              	 .loc 1 681 0
 1509              	 .cfi_startproc
 1510              	.LVL170:
 1511 0000 30B5     	 push {r4,r5,lr}
 1512              	.LCFI16:
 1513              	 .cfi_def_cfa_offset 12
 1514              	 .cfi_offset 4,-12
 1515              	 .cfi_offset 5,-8
 1516              	 .cfi_offset 14,-4
 1517 0002 0D1C     	 mov r5,r1
 1518 0004 141C     	 mov r4,r2
 1519 0006 85B0     	 sub sp,sp,#20
 1520              	.LCFI17:
 1521              	 .cfi_def_cfa_offset 32
 682://MAC/Home/Downloads/getstarted-optiga-trust-m/optiga-trust-m-1/optiga/crypt/optiga_crypt.c ****     OPTIGA_CRYPT_LOG_MESSAGE(__FUNCTION__);
 683://MAC/Home/Downloads/getstarted-optiga-trust-m/optiga-trust-m-1/optiga/crypt/optiga_crypt.c ****     return (optiga_crypt_sign(me,
 1522              	 .loc 1 683 0
 1523 0008 0093     	 str r3,[sp]
 1524 000a 089B     	 ldr r3,[sp,#32]
 1525              	.LVL171:
 1526 000c 1121     	 mov r1,#17
 1527              	.LVL172:
 1528 000e 0193     	 str r3,[sp,#4]
 1529 0010 099B     	 ldr r3,[sp,#36]
 1530 0012 2A1C     	 mov r2,r5
 1531              	.LVL173:
 1532 0014 0293     	 str r3,[sp,#8]
 1533 0016 231C     	 mov r3,r4
 1534 0018 FFF7FEFF 	 bl optiga_crypt_sign.isra.0
 1535              	.LVL174:
 684://MAC/Home/Downloads/getstarted-optiga-trust-m/optiga-trust-m-1/optiga/crypt/optiga_crypt.c ****                               OPTIGA_CRYPT_ECDSA_FIPS_186_3_WITHOUT_HASH,
 685://MAC/Home/Downloads/getstarted-optiga-trust-m/optiga-trust-m-1/optiga/crypt/optiga_crypt.c ****                               digest,
 686://MAC/Home/Downloads/getstarted-optiga-trust-m/optiga-trust-m-1/optiga/crypt/optiga_crypt.c ****                               digest_length,
 687://MAC/Home/Downloads/getstarted-optiga-trust-m/optiga-trust-m-1/optiga/crypt/optiga_crypt.c ****                               private_key,
 688://MAC/Home/Downloads/getstarted-optiga-trust-m/optiga-trust-m-1/optiga/crypt/optiga_crypt.c ****                               signature,
 689://MAC/Home/Downloads/getstarted-optiga-trust-m/optiga-trust-m-1/optiga/crypt/optiga_crypt.c ****                               signature_length,
 690://MAC/Home/Downloads/getstarted-optiga-trust-m/optiga-trust-m-1/optiga/crypt/optiga_crypt.c ****                               0x0000));
 691://MAC/Home/Downloads/getstarted-optiga-trust-m/optiga-trust-m-1/optiga/crypt/optiga_crypt.c **** }
 1536              	 .loc 1 691 0
 1537 001c 05B0     	 add sp,sp,#20
 1538              	 
 1539              	.LVL175:
 1540 001e 30BD     	 pop {r4,r5,pc}
 1541              	 .cfi_endproc
 1542              	.LFE15:
 1544              	 .section .text.optiga_crypt_ecdsa_verify,"ax",%progbits
 1545              	 .align 1
 1546              	 .global optiga_crypt_ecdsa_verify
 1547              	 .code 16
 1548              	 .thumb_func
 1550              	optiga_crypt_ecdsa_verify:
 1551              	.LFB16:
 692://MAC/Home/Downloads/getstarted-optiga-trust-m/optiga-trust-m-1/optiga/crypt/optiga_crypt.c **** #endif //OPTIGA_CRYPT_ECDSA_SIGN_ENABLED
 693://MAC/Home/Downloads/getstarted-optiga-trust-m/optiga-trust-m-1/optiga/crypt/optiga_crypt.c **** 
 694://MAC/Home/Downloads/getstarted-optiga-trust-m/optiga-trust-m-1/optiga/crypt/optiga_crypt.c **** #ifdef OPTIGA_CRYPT_ECDSA_VERIFY_ENABLED
 695://MAC/Home/Downloads/getstarted-optiga-trust-m/optiga-trust-m-1/optiga/crypt/optiga_crypt.c **** optiga_lib_status_t optiga_crypt_ecdsa_verify(optiga_crypt_t * me,
 696://MAC/Home/Downloads/getstarted-optiga-trust-m/optiga-trust-m-1/optiga/crypt/optiga_crypt.c ****                                               const uint8_t * digest,
 697://MAC/Home/Downloads/getstarted-optiga-trust-m/optiga-trust-m-1/optiga/crypt/optiga_crypt.c ****                                               uint8_t digest_length,
 698://MAC/Home/Downloads/getstarted-optiga-trust-m/optiga-trust-m-1/optiga/crypt/optiga_crypt.c ****                                               const uint8_t * signature,
 699://MAC/Home/Downloads/getstarted-optiga-trust-m/optiga-trust-m-1/optiga/crypt/optiga_crypt.c ****                                               uint16_t signature_length,
 700://MAC/Home/Downloads/getstarted-optiga-trust-m/optiga-trust-m-1/optiga/crypt/optiga_crypt.c ****                                               uint8_t public_key_source_type,
 701://MAC/Home/Downloads/getstarted-optiga-trust-m/optiga-trust-m-1/optiga/crypt/optiga_crypt.c ****                                               const void * public_key)
 702://MAC/Home/Downloads/getstarted-optiga-trust-m/optiga-trust-m-1/optiga/crypt/optiga_crypt.c **** {
 1552              	 .loc 1 702 0
 1553              	 .cfi_startproc
 1554              	.LVL176:
 1555 0000 30B5     	 push {r4,r5,lr}
 1556              	.LCFI18:
 1557              	 .cfi_def_cfa_offset 12
 1558              	 .cfi_offset 4,-12
 1559              	 .cfi_offset 5,-8
 1560              	 .cfi_offset 14,-4
 1561 0002 0D1C     	 mov r5,r1
 1562 0004 141C     	 mov r4,r2
 1563 0006 85B0     	 sub sp,sp,#20
 1564              	.LCFI19:
 1565              	 .cfi_def_cfa_offset 32
 1566              	 .loc 1 702 0
 1567 0008 08AA     	 add r2,sp,#32
 1568              	.LVL177:
 1569 000a 1188     	 ldrh r1,[r2]
 1570              	.LVL178:
 1571 000c 09AA     	 add r2,sp,#36
 1572              	.LVL179:
 1573 000e 1278     	 ldrb r2,[r2]
 1574              	.LVL180:
 703://MAC/Home/Downloads/getstarted-optiga-trust-m/optiga-trust-m-1/optiga/crypt/optiga_crypt.c ****     OPTIGA_CRYPT_LOG_MESSAGE(__FUNCTION__);
 704://MAC/Home/Downloads/getstarted-optiga-trust-m/optiga-trust-m-1/optiga/crypt/optiga_crypt.c ****     return (optiga_crypt_verify(me,
 1575              	 .loc 1 704 0
 1576 0010 0093     	 str r3,[sp]
 1577 0012 0A9B     	 ldr r3,[sp,#40]
 1578              	.LVL181:
 1579 0014 0191     	 str r1,[sp,#4]
 1580 0016 0292     	 str r2,[sp,#8]
 1581 0018 0393     	 str r3,[sp,#12]
 1582 001a 1121     	 mov r1,#17
 1583 001c 2A1C     	 mov r2,r5
 1584 001e 231C     	 mov r3,r4
 1585 0020 FFF7FEFF 	 bl optiga_crypt_verify.isra.1
 1586              	.LVL182:
 705://MAC/Home/Downloads/getstarted-optiga-trust-m/optiga-trust-m-1/optiga/crypt/optiga_crypt.c ****                                 OPTIGA_CRYPT_ECDSA_FIPS_186_3_WITHOUT_HASH,
 706://MAC/Home/Downloads/getstarted-optiga-trust-m/optiga-trust-m-1/optiga/crypt/optiga_crypt.c ****                                 digest,
 707://MAC/Home/Downloads/getstarted-optiga-trust-m/optiga-trust-m-1/optiga/crypt/optiga_crypt.c ****                                 digest_length,
 708://MAC/Home/Downloads/getstarted-optiga-trust-m/optiga-trust-m-1/optiga/crypt/optiga_crypt.c ****                                 signature,
 709://MAC/Home/Downloads/getstarted-optiga-trust-m/optiga-trust-m-1/optiga/crypt/optiga_crypt.c ****                                 signature_length,
 710://MAC/Home/Downloads/getstarted-optiga-trust-m/optiga-trust-m-1/optiga/crypt/optiga_crypt.c ****                                 public_key_source_type,
 711://MAC/Home/Downloads/getstarted-optiga-trust-m/optiga-trust-m-1/optiga/crypt/optiga_crypt.c ****                                 public_key,
 712://MAC/Home/Downloads/getstarted-optiga-trust-m/optiga-trust-m-1/optiga/crypt/optiga_crypt.c ****                                 0x0000));
 713://MAC/Home/Downloads/getstarted-optiga-trust-m/optiga-trust-m-1/optiga/crypt/optiga_crypt.c **** }
 1587              	 .loc 1 713 0
 1588 0024 05B0     	 add sp,sp,#20
 1589              	 
 1590              	.LVL183:
 1591 0026 30BD     	 pop {r4,r5,pc}
 1592              	 .cfi_endproc
 1593              	.LFE16:
 1595              	 .section .text.optiga_crypt_ecdh,"ax",%progbits
 1596              	 .align 1
 1597              	 .global optiga_crypt_ecdh
 1598              	 .code 16
 1599              	 .thumb_func
 1601              	optiga_crypt_ecdh:
 1602              	.LFB17:
 714://MAC/Home/Downloads/getstarted-optiga-trust-m/optiga-trust-m-1/optiga/crypt/optiga_crypt.c **** #endif //OPTIGA_CRYPT_ECDSA_VERIFY_ENABLED
 715://MAC/Home/Downloads/getstarted-optiga-trust-m/optiga-trust-m-1/optiga/crypt/optiga_crypt.c **** 
 716://MAC/Home/Downloads/getstarted-optiga-trust-m/optiga-trust-m-1/optiga/crypt/optiga_crypt.c **** 
 717://MAC/Home/Downloads/getstarted-optiga-trust-m/optiga-trust-m-1/optiga/crypt/optiga_crypt.c **** #ifdef OPTIGA_CRYPT_ECDH_ENABLED
 718://MAC/Home/Downloads/getstarted-optiga-trust-m/optiga-trust-m-1/optiga/crypt/optiga_crypt.c **** optiga_lib_status_t optiga_crypt_ecdh(optiga_crypt_t * me,
 719://MAC/Home/Downloads/getstarted-optiga-trust-m/optiga-trust-m-1/optiga/crypt/optiga_crypt.c ****                                       optiga_key_id_t private_key,
 720://MAC/Home/Downloads/getstarted-optiga-trust-m/optiga-trust-m-1/optiga/crypt/optiga_crypt.c ****                                       public_key_from_host_t * public_key,
 721://MAC/Home/Downloads/getstarted-optiga-trust-m/optiga-trust-m-1/optiga/crypt/optiga_crypt.c ****                                       bool_t export_to_host,
 722://MAC/Home/Downloads/getstarted-optiga-trust-m/optiga-trust-m-1/optiga/crypt/optiga_crypt.c ****                                       uint8_t * shared_secret)
 723://MAC/Home/Downloads/getstarted-optiga-trust-m/optiga-trust-m-1/optiga/crypt/optiga_crypt.c **** {
 1603              	 .loc 1 723 0
 1604              	 .cfi_startproc
 1605              	.LVL184:
 1606 0000 F7B5     	 push {r0,r1,r2,r4,r5,r6,r7,lr}
 1607              	.LCFI20:
 1608              	 .cfi_def_cfa_offset 32
 1609              	 .cfi_offset 0,-32
 1610              	 .cfi_offset 1,-28
 1611              	 .cfi_offset 2,-24
 1612              	 .cfi_offset 4,-20
 1613              	 .cfi_offset 5,-16
 1614              	 .cfi_offset 6,-12
 1615              	 .cfi_offset 7,-8
 1616              	 .cfi_offset 14,-4
 1617              	 .loc 1 723 0
 1618 0002 041C     	 mov r4,r0
 1619 0004 0191     	 str r1,[sp,#4]
 1620 0006 161C     	 mov r6,r2
 1621 0008 0093     	 str r3,[sp]
 724://MAC/Home/Downloads/getstarted-optiga-trust-m/optiga-trust-m-1/optiga/crypt/optiga_crypt.c ****     optiga_lib_status_t return_value = OPTIGA_CRYPT_ERROR;
 725://MAC/Home/Downloads/getstarted-optiga-trust-m/optiga-trust-m-1/optiga/crypt/optiga_crypt.c ****     optiga_calc_ssec_params_t * p_params;
 726://MAC/Home/Downloads/getstarted-optiga-trust-m/optiga-trust-m-1/optiga/crypt/optiga_crypt.c ****     OPTIGA_CRYPT_LOG_MESSAGE(__FUNCTION__);
 727://MAC/Home/Downloads/getstarted-optiga-trust-m/optiga-trust-m-1/optiga/crypt/optiga_crypt.c **** 
 728://MAC/Home/Downloads/getstarted-optiga-trust-m/optiga-trust-m-1/optiga/crypt/optiga_crypt.c ****     do
 729://MAC/Home/Downloads/getstarted-optiga-trust-m/optiga-trust-m-1/optiga/crypt/optiga_crypt.c ****     {
 730://MAC/Home/Downloads/getstarted-optiga-trust-m/optiga-trust-m-1/optiga/crypt/optiga_crypt.c **** 
 731://MAC/Home/Downloads/getstarted-optiga-trust-m/optiga-trust-m-1/optiga/crypt/optiga_crypt.c **** #ifdef OPTIGA_LIB_DEBUG_NULL_CHECK
 732://MAC/Home/Downloads/getstarted-optiga-trust-m/optiga-trust-m-1/optiga/crypt/optiga_crypt.c ****         if ((NULL == me) || (NULL == me->my_cmd) || (NULL == public_key) ||
 1622              	 .loc 1 732 0
 1623 000a 0028     	 cmp r0,#0
 1624 000c 38D0     	 beq .L141
 1625              	 .loc 1 732 0 is_stmt 0 discriminator 1
 1626 000e 076A     	 ldr r7,[r0,#32]
 1627 0010 002F     	 cmp r7,#0
 1628 0012 35D0     	 beq .L141
 1629              	 .loc 1 732 0 discriminator 2
 1630 0014 002A     	 cmp r2,#0
 1631 0016 33D0     	 beq .L141
 1632              	 .loc 1 732 0 discriminator 3
 1633 0018 1368     	 ldr r3,[r2]
 1634              	.LVL185:
 1635 001a 002B     	 cmp r3,#0
 1636 001c 30D0     	 beq .L141
 733://MAC/Home/Downloads/getstarted-optiga-trust-m/optiga-trust-m-1/optiga/crypt/optiga_crypt.c ****             (NULL == public_key->public_key) ||
 1637              	 .loc 1 733 0 is_stmt 1
 1638 001e 009B     	 ldr r3,[sp]
 1639 0020 012B     	 cmp r3,#1
 1640 0022 02D1     	 bne .L136
 734://MAC/Home/Downloads/getstarted-optiga-trust-m/optiga-trust-m-1/optiga/crypt/optiga_crypt.c ****             ((TRUE == export_to_host) && (NULL == shared_secret)))
 1641              	 .loc 1 734 0
 1642 0024 089B     	 ldr r3,[sp,#32]
 1643 0026 002B     	 cmp r3,#0
 1644 0028 2AD0     	 beq .L141
 1645              	.L136:
 735://MAC/Home/Downloads/getstarted-optiga-trust-m/optiga-trust-m-1/optiga/crypt/optiga_crypt.c ****         {
 736://MAC/Home/Downloads/getstarted-optiga-trust-m/optiga-trust-m-1/optiga/crypt/optiga_crypt.c ****             return_value = OPTIGA_CRYPT_ERROR_INVALID_INPUT;
 737://MAC/Home/Downloads/getstarted-optiga-trust-m/optiga-trust-m-1/optiga/crypt/optiga_crypt.c ****             break;
 738://MAC/Home/Downloads/getstarted-optiga-trust-m/optiga-trust-m-1/optiga/crypt/optiga_crypt.c ****         }
 739://MAC/Home/Downloads/getstarted-optiga-trust-m/optiga-trust-m-1/optiga/crypt/optiga_crypt.c **** #endif
 740://MAC/Home/Downloads/getstarted-optiga-trust-m/optiga-trust-m-1/optiga/crypt/optiga_crypt.c **** 
 741://MAC/Home/Downloads/getstarted-optiga-trust-m/optiga-trust-m-1/optiga/crypt/optiga_crypt.c ****         if (OPTIGA_LIB_INSTANCE_BUSY == me->instance_state)
 1646              	 .loc 1 741 0
 1647 002a A38D     	 ldrh r3,[r4,#44]
 1648 002c 012B     	 cmp r3,#1
 1649 002e 29D0     	 beq .L142
 742://MAC/Home/Downloads/getstarted-optiga-trust-m/optiga-trust-m-1/optiga/crypt/optiga_crypt.c ****         {
 743://MAC/Home/Downloads/getstarted-optiga-trust-m/optiga-trust-m-1/optiga/crypt/optiga_crypt.c ****             return_value = OPTIGA_CRYPT_ERROR_INSTANCE_IN_USE;
 744://MAC/Home/Downloads/getstarted-optiga-trust-m/optiga-trust-m-1/optiga/crypt/optiga_crypt.c ****             break;
 745://MAC/Home/Downloads/getstarted-optiga-trust-m/optiga-trust-m-1/optiga/crypt/optiga_crypt.c ****         }
 746://MAC/Home/Downloads/getstarted-optiga-trust-m/optiga-trust-m-1/optiga/crypt/optiga_crypt.c **** 
 747://MAC/Home/Downloads/getstarted-optiga-trust-m/optiga-trust-m-1/optiga/crypt/optiga_crypt.c ****         me->instance_state = OPTIGA_LIB_INSTANCE_BUSY;
 1650              	 .loc 1 747 0
 1651 0030 0125     	 mov r5,#1
 748://MAC/Home/Downloads/getstarted-optiga-trust-m/optiga-trust-m-1/optiga/crypt/optiga_crypt.c **** 
 749://MAC/Home/Downloads/getstarted-optiga-trust-m/optiga-trust-m-1/optiga/crypt/optiga_crypt.c ****         p_params = (optiga_calc_ssec_params_t *)&(me->params.optiga_calc_ssec_params);
 750://MAC/Home/Downloads/getstarted-optiga-trust-m/optiga-trust-m-1/optiga/crypt/optiga_crypt.c ****         pal_os_memset(&me->params,0x00,sizeof(optiga_crypt_params_t));
 1652              	 .loc 1 750 0
 1653 0032 0021     	 mov r1,#0
 1654              	.LVL186:
 747://MAC/Home/Downloads/getstarted-optiga-trust-m/optiga-trust-m-1/optiga/crypt/optiga_crypt.c **** 
 1655              	 .loc 1 747 0
 1656 0034 A585     	 strh r5,[r4,#44]
 1657              	.LVL187:
 1658              	 .loc 1 750 0
 1659 0036 2022     	 mov r2,#32
 1660              	.LVL188:
 1661 0038 201C     	 mov r0,r4
 1662              	.LVL189:
 1663 003a FFF7FEFF 	 bl memset
 1664              	.LVL190:
 751://MAC/Home/Downloads/getstarted-optiga-trust-m/optiga-trust-m-1/optiga/crypt/optiga_crypt.c **** 
 752://MAC/Home/Downloads/getstarted-optiga-trust-m/optiga-trust-m-1/optiga/crypt/optiga_crypt.c ****         p_params->private_key = private_key;
 1665              	 .loc 1 752 0
 1666 003e 6B46     	 mov r3,sp
 1667 0040 9B88     	 ldrh r3,[r3,#4]
 753://MAC/Home/Downloads/getstarted-optiga-trust-m/optiga-trust-m-1/optiga/crypt/optiga_crypt.c ****         p_params->public_key = public_key;
 1668              	 .loc 1 753 0
 1669 0042 2660     	 str r6,[r4]
 752://MAC/Home/Downloads/getstarted-optiga-trust-m/optiga-trust-m-1/optiga/crypt/optiga_crypt.c ****         p_params->public_key = public_key;
 1670              	 .loc 1 752 0
 1671 0044 2381     	 strh r3,[r4,#8]
 754://MAC/Home/Downloads/getstarted-optiga-trust-m/optiga-trust-m-1/optiga/crypt/optiga_crypt.c ****         p_params->export_to_host = export_to_host;
 1672              	 .loc 1 754 0
 1673 0046 6B46     	 mov r3,sp
 1674 0048 1B78     	 ldrb r3,[r3]
 755://MAC/Home/Downloads/getstarted-optiga-trust-m/optiga-trust-m-1/optiga/crypt/optiga_crypt.c ****         p_params->shared_secret = shared_secret;
 756://MAC/Home/Downloads/getstarted-optiga-trust-m/optiga-trust-m-1/optiga/crypt/optiga_crypt.c ****         OPTIGA_PROTECTION_ENABLE(me->my_cmd, me);
 1675              	 .loc 1 756 0
 1676 004a 381C     	 mov r0,r7
 754://MAC/Home/Downloads/getstarted-optiga-trust-m/optiga-trust-m-1/optiga/crypt/optiga_crypt.c ****         p_params->export_to_host = export_to_host;
 1677              	 .loc 1 754 0
 1678 004c A372     	 strb r3,[r4,#10]
 755://MAC/Home/Downloads/getstarted-optiga-trust-m/optiga-trust-m-1/optiga/crypt/optiga_crypt.c ****         p_params->shared_secret = shared_secret;
 1679              	 .loc 1 755 0
 1680 004e 089B     	 ldr r3,[sp,#32]
 1681              	 .loc 1 756 0
 1682 0050 0022     	 mov r2,#0
 755://MAC/Home/Downloads/getstarted-optiga-trust-m/optiga-trust-m-1/optiga/crypt/optiga_crypt.c ****         p_params->shared_secret = shared_secret;
 1683              	 .loc 1 755 0
 1684 0052 6360     	 str r3,[r4,#4]
 1685              	 .loc 1 756 0
 1686 0054 231C     	 mov r3,r4
 1687 0056 2E33     	 add r3,r3,#46
 1688 0058 1978     	 ldrb r1,[r3]
 1689 005a FFF7FEFF 	 bl optiga_cmd_set_shielded_connection_option
 1690              	.LVL191:
 757://MAC/Home/Downloads/getstarted-optiga-trust-m/optiga-trust-m-1/optiga/crypt/optiga_crypt.c ****         OPTIGA_PROTECTION_SET_VERSION(me->my_cmd, me);
 1691              	 .loc 1 757 0
 1692 005e 231C     	 mov r3,r4
 1693 0060 2F33     	 add r3,r3,#47
 1694 0062 1978     	 ldrb r1,[r3]
 1695 0064 2A1C     	 mov r2,r5
 1696 0066 206A     	 ldr r0,[r4,#32]
 1697 0068 FFF7FEFF 	 bl optiga_cmd_set_shielded_connection_option
 1698              	.LVL192:
 758://MAC/Home/Downloads/getstarted-optiga-trust-m/optiga-trust-m-1/optiga/crypt/optiga_crypt.c **** 
 759://MAC/Home/Downloads/getstarted-optiga-trust-m/optiga-trust-m-1/optiga/crypt/optiga_crypt.c ****         return_value = optiga_cmd_calc_ssec(me->my_cmd, OPTIGA_CRYPT_ECDH_KEY_AGREEMENT_ALGORITHM,
 1699              	 .loc 1 759 0
 1700 006c 291C     	 mov r1,r5
 1701 006e 206A     	 ldr r0,[r4,#32]
 1702 0070 221C     	 mov r2,r4
 1703 0072 FFF7FEFF 	 bl optiga_cmd_calc_ssec
 1704              	.LVL193:
 1705 0076 051E     	 sub r5,r0,#0
 1706              	.LVL194:
 760://MAC/Home/Downloads/getstarted-optiga-trust-m/optiga-trust-m-1/optiga/crypt/optiga_crypt.c ****                                             (optiga_calc_ssec_params_t *)p_params);
 761://MAC/Home/Downloads/getstarted-optiga-trust-m/optiga-trust-m-1/optiga/crypt/optiga_crypt.c ****         if (OPTIGA_LIB_SUCCESS != return_value)
 1707              	 .loc 1 761 0
 1708 0078 05D0     	 beq .L135
 762://MAC/Home/Downloads/getstarted-optiga-trust-m/optiga-trust-m-1/optiga/crypt/optiga_crypt.c ****         {
 763://MAC/Home/Downloads/getstarted-optiga-trust-m/optiga-trust-m-1/optiga/crypt/optiga_crypt.c ****             me->instance_state = OPTIGA_LIB_INSTANCE_FREE;
 1709              	 .loc 1 763 0
 1710 007a 0023     	 mov r3,#0
 1711 007c A385     	 strh r3,[r4,#44]
 1712 007e 02E0     	 b .L135
 1713              	.LVL195:
 1714              	.L141:
 736://MAC/Home/Downloads/getstarted-optiga-trust-m/optiga-trust-m-1/optiga/crypt/optiga_crypt.c ****             break;
 1715              	 .loc 1 736 0
 1716 0080 034D     	 ldr r5,.L146
 1717 0082 00E0     	 b .L135
 1718              	.L142:
 743://MAC/Home/Downloads/getstarted-optiga-trust-m/optiga-trust-m-1/optiga/crypt/optiga_crypt.c ****             break;
 1719              	 .loc 1 743 0
 1720 0084 034D     	 ldr r5,.L146+4
 1721              	.LVL196:
 1722              	.L135:
 764://MAC/Home/Downloads/getstarted-optiga-trust-m/optiga-trust-m-1/optiga/crypt/optiga_crypt.c ****         }
 765://MAC/Home/Downloads/getstarted-optiga-trust-m/optiga-trust-m-1/optiga/crypt/optiga_crypt.c ****     } while (FALSE);
 766://MAC/Home/Downloads/getstarted-optiga-trust-m/optiga-trust-m-1/optiga/crypt/optiga_crypt.c ****     optiga_crypt_reset_protection_level(me);
 1723              	 .loc 1 766 0
 1724 0086 201C     	 mov r0,r4
 1725 0088 FFF7FEFF 	 bl optiga_crypt_reset_protection_level
 1726              	.LVL197:
 767://MAC/Home/Downloads/getstarted-optiga-trust-m/optiga-trust-m-1/optiga/crypt/optiga_crypt.c **** 
 768://MAC/Home/Downloads/getstarted-optiga-trust-m/optiga-trust-m-1/optiga/crypt/optiga_crypt.c ****     return (return_value);
 769://MAC/Home/Downloads/getstarted-optiga-trust-m/optiga-trust-m-1/optiga/crypt/optiga_crypt.c **** }
 1727              	 .loc 1 769 0
 1728              	 
 1729 008c 281C     	 mov r0,r5
 1730              	.LVL198:
 1731              	.LVL199:
 1732              	.LVL200:
 1733 008e FEBD     	 pop {r1,r2,r3,r4,r5,r6,r7,pc}
 1734              	.L147:
 1735              	 .align 2
 1736              	.L146:
 1737 0090 03040000 	 .word 1027
 1738 0094 05040000 	 .word 1029
 1739              	 .cfi_endproc
 1740              	.LFE17:
 1742              	 .section .text.optiga_crypt_tls_prf_sha256,"ax",%progbits
 1743              	 .align 1
 1744              	 .global optiga_crypt_tls_prf_sha256
 1745              	 .code 16
 1746              	 .thumb_func
 1748              	optiga_crypt_tls_prf_sha256:
 1749              	.LFB18:
 770://MAC/Home/Downloads/getstarted-optiga-trust-m/optiga-trust-m-1/optiga/crypt/optiga_crypt.c **** #endif  //OPTIGA_CRYPT_ECDH_ENABLED
 771://MAC/Home/Downloads/getstarted-optiga-trust-m/optiga-trust-m-1/optiga/crypt/optiga_crypt.c **** 
 772://MAC/Home/Downloads/getstarted-optiga-trust-m/optiga-trust-m-1/optiga/crypt/optiga_crypt.c **** #ifdef OPTIGA_CRYPT_TLS_PRF_SHA256_ENABLED
 773://MAC/Home/Downloads/getstarted-optiga-trust-m/optiga-trust-m-1/optiga/crypt/optiga_crypt.c **** optiga_lib_status_t optiga_crypt_tls_prf_sha256(optiga_crypt_t * me,
 774://MAC/Home/Downloads/getstarted-optiga-trust-m/optiga-trust-m-1/optiga/crypt/optiga_crypt.c ****                                                 uint16_t secret,
 775://MAC/Home/Downloads/getstarted-optiga-trust-m/optiga-trust-m-1/optiga/crypt/optiga_crypt.c ****                                                 const uint8_t * label,
 776://MAC/Home/Downloads/getstarted-optiga-trust-m/optiga-trust-m-1/optiga/crypt/optiga_crypt.c ****                                                 uint16_t label_length,
 777://MAC/Home/Downloads/getstarted-optiga-trust-m/optiga-trust-m-1/optiga/crypt/optiga_crypt.c ****                                                 const uint8_t * seed,
 778://MAC/Home/Downloads/getstarted-optiga-trust-m/optiga-trust-m-1/optiga/crypt/optiga_crypt.c ****                                                 uint16_t seed_length,
 779://MAC/Home/Downloads/getstarted-optiga-trust-m/optiga-trust-m-1/optiga/crypt/optiga_crypt.c ****                                                 uint16_t derived_key_length,
 780://MAC/Home/Downloads/getstarted-optiga-trust-m/optiga-trust-m-1/optiga/crypt/optiga_crypt.c ****                                                 bool_t export_to_host,
 781://MAC/Home/Downloads/getstarted-optiga-trust-m/optiga-trust-m-1/optiga/crypt/optiga_crypt.c ****                                                 uint8_t * derived_key)
 782://MAC/Home/Downloads/getstarted-optiga-trust-m/optiga-trust-m-1/optiga/crypt/optiga_crypt.c **** {
 1750              	 .loc 1 782 0
 1751              	 .cfi_startproc
 1752              	.LVL201:
 1753 0000 F0B5     	 push {r4,r5,r6,r7,lr}
 1754              	.LCFI21:
 1755              	 .cfi_def_cfa_offset 20
 1756              	 .cfi_offset 4,-20
 1757              	 .cfi_offset 5,-16
 1758              	 .cfi_offset 6,-12
 1759              	 .cfi_offset 7,-8
 1760              	 .cfi_offset 14,-4
 1761 0002 87B0     	 sub sp,sp,#28
 1762              	.LCFI22:
 1763              	 .cfi_def_cfa_offset 48
 1764              	 .loc 1 782 0
 1765 0004 0393     	 str r3,[sp,#12]
 1766 0006 0CAB     	 add r3,sp,#48
 1767              	.LVL202:
 1768 0008 0292     	 str r2,[sp,#8]
 1769 000a 04CB     	 ldmia r3!,{r2}
 1770              	.LVL203:
 1771 000c 041C     	 mov r4,r0
 1772 000e 1B88     	 ldrh r3,[r3]
 1773              	.LVL204:
 1774 0010 0191     	 str r1,[sp,#4]
 1775 0012 0493     	 str r3,[sp,#16]
 1776 0014 0EAB     	 add r3,sp,#56
 1777              	.LVL205:
 1778 0016 1B88     	 ldrh r3,[r3]
 1779              	.LVL206:
 1780 0018 0593     	 str r3,[sp,#20]
 1781 001a 0FAB     	 add r3,sp,#60
 1782              	.LVL207:
 1783 001c 1E78     	 ldrb r6,[r3]
 783://MAC/Home/Downloads/getstarted-optiga-trust-m/optiga-trust-m-1/optiga/crypt/optiga_crypt.c ****     optiga_lib_status_t return_value = OPTIGA_CRYPT_ERROR;
 784://MAC/Home/Downloads/getstarted-optiga-trust-m/optiga-trust-m-1/optiga/crypt/optiga_crypt.c ****     optiga_derive_key_params_t * p_params;
 785://MAC/Home/Downloads/getstarted-optiga-trust-m/optiga-trust-m-1/optiga/crypt/optiga_crypt.c ****     OPTIGA_CRYPT_LOG_MESSAGE(__FUNCTION__);
 786://MAC/Home/Downloads/getstarted-optiga-trust-m/optiga-trust-m-1/optiga/crypt/optiga_crypt.c **** 
 787://MAC/Home/Downloads/getstarted-optiga-trust-m/optiga-trust-m-1/optiga/crypt/optiga_crypt.c ****     do
 788://MAC/Home/Downloads/getstarted-optiga-trust-m/optiga-trust-m-1/optiga/crypt/optiga_crypt.c ****     {
 789://MAC/Home/Downloads/getstarted-optiga-trust-m/optiga-trust-m-1/optiga/crypt/optiga_crypt.c **** #ifdef OPTIGA_LIB_DEBUG_NULL_CHECK
 790://MAC/Home/Downloads/getstarted-optiga-trust-m/optiga-trust-m-1/optiga/crypt/optiga_crypt.c ****         if ((NULL == me) || (NULL == me->my_cmd) || (NULL == seed) ||
 1784              	 .loc 1 790 0
 1785 001e 0028     	 cmp r0,#0
 1786 0020 41D0     	 beq .L155
 1787              	 .loc 1 790 0 is_stmt 0 discriminator 1
 1788 0022 076A     	 ldr r7,[r0,#32]
 1789 0024 002F     	 cmp r7,#0
 1790 0026 3ED0     	 beq .L155
 1791              	 .loc 1 790 0 discriminator 2
 1792 0028 002A     	 cmp r2,#0
 1793 002a 3CD0     	 beq .L155
 1794              	 .loc 1 790 0 discriminator 3
 1795 002c 012E     	 cmp r6,#1
 1796 002e 02D1     	 bne .L150
 791://MAC/Home/Downloads/getstarted-optiga-trust-m/optiga-trust-m-1/optiga/crypt/optiga_crypt.c ****            ((TRUE == export_to_host) && (NULL == derived_key)))
 1797              	 .loc 1 791 0 is_stmt 1
 1798 0030 109B     	 ldr r3,[sp,#64]
 1799              	.LVL208:
 1800 0032 002B     	 cmp r3,#0
 1801 0034 37D0     	 beq .L155
 1802              	.L150:
 792://MAC/Home/Downloads/getstarted-optiga-trust-m/optiga-trust-m-1/optiga/crypt/optiga_crypt.c ****         {
 793://MAC/Home/Downloads/getstarted-optiga-trust-m/optiga-trust-m-1/optiga/crypt/optiga_crypt.c ****             return_value = OPTIGA_CRYPT_ERROR_INVALID_INPUT;
 794://MAC/Home/Downloads/getstarted-optiga-trust-m/optiga-trust-m-1/optiga/crypt/optiga_crypt.c ****             break;
 795://MAC/Home/Downloads/getstarted-optiga-trust-m/optiga-trust-m-1/optiga/crypt/optiga_crypt.c ****         }
 796://MAC/Home/Downloads/getstarted-optiga-trust-m/optiga-trust-m-1/optiga/crypt/optiga_crypt.c **** #endif
 797://MAC/Home/Downloads/getstarted-optiga-trust-m/optiga-trust-m-1/optiga/crypt/optiga_crypt.c **** 
 798://MAC/Home/Downloads/getstarted-optiga-trust-m/optiga-trust-m-1/optiga/crypt/optiga_crypt.c ****         if (OPTIGA_LIB_INSTANCE_BUSY == me->instance_state)
 1803              	 .loc 1 798 0
 1804 0036 A38D     	 ldrh r3,[r4,#44]
 1805 0038 012B     	 cmp r3,#1
 1806 003a 36D0     	 beq .L156
 799://MAC/Home/Downloads/getstarted-optiga-trust-m/optiga-trust-m-1/optiga/crypt/optiga_crypt.c ****         {
 800://MAC/Home/Downloads/getstarted-optiga-trust-m/optiga-trust-m-1/optiga/crypt/optiga_crypt.c ****             return_value = OPTIGA_CRYPT_ERROR_INSTANCE_IN_USE;
 801://MAC/Home/Downloads/getstarted-optiga-trust-m/optiga-trust-m-1/optiga/crypt/optiga_crypt.c ****             break;
 802://MAC/Home/Downloads/getstarted-optiga-trust-m/optiga-trust-m-1/optiga/crypt/optiga_crypt.c ****         }
 803://MAC/Home/Downloads/getstarted-optiga-trust-m/optiga-trust-m-1/optiga/crypt/optiga_crypt.c **** 
 804://MAC/Home/Downloads/getstarted-optiga-trust-m/optiga-trust-m-1/optiga/crypt/optiga_crypt.c ****         me->instance_state = OPTIGA_LIB_INSTANCE_BUSY;
 1807              	 .loc 1 804 0
 1808 003c 0125     	 mov r5,#1
 805://MAC/Home/Downloads/getstarted-optiga-trust-m/optiga-trust-m-1/optiga/crypt/optiga_crypt.c **** 
 806://MAC/Home/Downloads/getstarted-optiga-trust-m/optiga-trust-m-1/optiga/crypt/optiga_crypt.c ****         p_params = (optiga_derive_key_params_t *)&(me->params.optiga_derive_key_params);
 807://MAC/Home/Downloads/getstarted-optiga-trust-m/optiga-trust-m-1/optiga/crypt/optiga_crypt.c ****         pal_os_memset(&me->params,0x00,sizeof(optiga_crypt_params_t));
 1809              	 .loc 1 807 0
 1810 003e 0021     	 mov r1,#0
 1811              	.LVL209:
 1812 0040 2022     	 mov r2,#32
 804://MAC/Home/Downloads/getstarted-optiga-trust-m/optiga-trust-m-1/optiga/crypt/optiga_crypt.c **** 
 1813              	 .loc 1 804 0
 1814 0042 A585     	 strh r5,[r4,#44]
 1815              	.LVL210:
 1816              	 .loc 1 807 0
 1817 0044 201C     	 mov r0,r4
 1818              	.LVL211:
 1819 0046 FFF7FEFF 	 bl memset
 1820              	.LVL212:
 808://MAC/Home/Downloads/getstarted-optiga-trust-m/optiga-trust-m-1/optiga/crypt/optiga_crypt.c **** 
 809://MAC/Home/Downloads/getstarted-optiga-trust-m/optiga-trust-m-1/optiga/crypt/optiga_crypt.c ****         p_params->input_shared_secret_oid = secret;
 1821              	 .loc 1 809 0
 1822 004a 6B46     	 mov r3,sp
 1823 004c 9B88     	 ldrh r3,[r3,#4]
 810://MAC/Home/Downloads/getstarted-optiga-trust-m/optiga-trust-m-1/optiga/crypt/optiga_crypt.c ****         p_params->label = label;
 811://MAC/Home/Downloads/getstarted-optiga-trust-m/optiga-trust-m-1/optiga/crypt/optiga_crypt.c ****         p_params->label_length = label_length;
 812://MAC/Home/Downloads/getstarted-optiga-trust-m/optiga-trust-m-1/optiga/crypt/optiga_crypt.c ****         p_params->seed = (const uint8_t *)seed;
 813://MAC/Home/Downloads/getstarted-optiga-trust-m/optiga-trust-m-1/optiga/crypt/optiga_crypt.c ****         p_params->seed_length = seed_length;
 814://MAC/Home/Downloads/getstarted-optiga-trust-m/optiga-trust-m-1/optiga/crypt/optiga_crypt.c **** #ifdef OPTIGA_COMMS_SHIELDED_CONNECTION
 815://MAC/Home/Downloads/getstarted-optiga-trust-m/optiga-trust-m-1/optiga/crypt/optiga_crypt.c ****         me->protection_level |= OPTIGA_COMMS_COMMAND_PROTECTION;
 816://MAC/Home/Downloads/getstarted-optiga-trust-m/optiga-trust-m-1/optiga/crypt/optiga_crypt.c **** #endif //OPTIGA_COMMS_SHIELDED_CONNECTION
 817://MAC/Home/Downloads/getstarted-optiga-trust-m/optiga-trust-m-1/optiga/crypt/optiga_crypt.c ****         OPTIGA_PROTECTION_ENABLE(me->my_cmd, me);
 1824              	 .loc 1 817 0
 1825 004e 381C     	 mov r0,r7
 809://MAC/Home/Downloads/getstarted-optiga-trust-m/optiga-trust-m-1/optiga/crypt/optiga_crypt.c ****         p_params->label = label;
 1826              	 .loc 1 809 0
 1827 0050 2380     	 strh r3,[r4]
 810://MAC/Home/Downloads/getstarted-optiga-trust-m/optiga-trust-m-1/optiga/crypt/optiga_crypt.c ****         p_params->label = label;
 1828              	 .loc 1 810 0
 1829 0052 029B     	 ldr r3,[sp,#8]
 1830              	 .loc 1 817 0
 1831 0054 0022     	 mov r2,#0
 810://MAC/Home/Downloads/getstarted-optiga-trust-m/optiga-trust-m-1/optiga/crypt/optiga_crypt.c ****         p_params->label = label;
 1832              	 .loc 1 810 0
 1833 0056 E360     	 str r3,[r4,#12]
 811://MAC/Home/Downloads/getstarted-optiga-trust-m/optiga-trust-m-1/optiga/crypt/optiga_crypt.c ****         p_params->seed = (const uint8_t *)seed;
 1834              	 .loc 1 811 0
 1835 0058 6B46     	 mov r3,sp
 1836 005a 9B89     	 ldrh r3,[r3,#12]
 1837 005c 6380     	 strh r3,[r4,#2]
 812://MAC/Home/Downloads/getstarted-optiga-trust-m/optiga-trust-m-1/optiga/crypt/optiga_crypt.c ****         p_params->seed_length = seed_length;
 1838              	 .loc 1 812 0
 1839 005e 0C9B     	 ldr r3,[sp,#48]
 1840 0060 A360     	 str r3,[r4,#8]
 813://MAC/Home/Downloads/getstarted-optiga-trust-m/optiga-trust-m-1/optiga/crypt/optiga_crypt.c **** #ifdef OPTIGA_COMMS_SHIELDED_CONNECTION
 1841              	 .loc 1 813 0
 1842 0062 6B46     	 mov r3,sp
 1843 0064 1B8A     	 ldrh r3,[r3,#16]
 1844 0066 A380     	 strh r3,[r4,#4]
 815://MAC/Home/Downloads/getstarted-optiga-trust-m/optiga-trust-m-1/optiga/crypt/optiga_crypt.c **** #endif //OPTIGA_COMMS_SHIELDED_CONNECTION
 1845              	 .loc 1 815 0
 1846 0068 231C     	 mov r3,r4
 1847 006a 2E33     	 add r3,r3,#46
 1848 006c 1978     	 ldrb r1,[r3]
 1849 006e 2943     	 orr r1,r5
 1850 0070 1970     	 strb r1,[r3]
 1851              	 .loc 1 817 0
 1852 0072 FFF7FEFF 	 bl optiga_cmd_set_shielded_connection_option
 1853              	.LVL213:
 818://MAC/Home/Downloads/getstarted-optiga-trust-m/optiga-trust-m-1/optiga/crypt/optiga_crypt.c ****         OPTIGA_PROTECTION_SET_VERSION(me->my_cmd, me);
 1854              	 .loc 1 818 0
 1855 0076 231C     	 mov r3,r4
 1856 0078 2F33     	 add r3,r3,#47
 1857 007a 1978     	 ldrb r1,[r3]
 1858 007c 206A     	 ldr r0,[r4,#32]
 1859 007e 2A1C     	 mov r2,r5
 1860 0080 FFF7FEFF 	 bl optiga_cmd_set_shielded_connection_option
 1861              	.LVL214:
 819://MAC/Home/Downloads/getstarted-optiga-trust-m/optiga-trust-m-1/optiga/crypt/optiga_crypt.c ****         p_params->derived_key_length = derived_key_length;
 1862              	 .loc 1 819 0
 1863 0084 6B46     	 mov r3,sp
 1864 0086 9B8A     	 ldrh r3,[r3,#20]
 1865 0088 E380     	 strh r3,[r4,#6]
 820://MAC/Home/Downloads/getstarted-optiga-trust-m/optiga-trust-m-1/optiga/crypt/optiga_crypt.c ****         if (FALSE != export_to_host)
 1866              	 .loc 1 820 0
 1867 008a 002E     	 cmp r6,#0
 1868 008c 01D0     	 beq .L151
 821://MAC/Home/Downloads/getstarted-optiga-trust-m/optiga-trust-m-1/optiga/crypt/optiga_crypt.c ****         {
 822://MAC/Home/Downloads/getstarted-optiga-trust-m/optiga-trust-m-1/optiga/crypt/optiga_crypt.c ****             p_params->derived_key = (uint8_t *)derived_key;
 1869              	 .loc 1 822 0
 1870 008e 109B     	 ldr r3,[sp,#64]
 1871 0090 2361     	 str r3,[r4,#16]
 1872              	.L151:
 823://MAC/Home/Downloads/getstarted-optiga-trust-m/optiga-trust-m-1/optiga/crypt/optiga_crypt.c ****         }
 824://MAC/Home/Downloads/getstarted-optiga-trust-m/optiga-trust-m-1/optiga/crypt/optiga_crypt.c **** 
 825://MAC/Home/Downloads/getstarted-optiga-trust-m/optiga-trust-m-1/optiga/crypt/optiga_crypt.c ****         return_value = optiga_cmd_derive_key(me->my_cmd,
 1873              	 .loc 1 825 0
 1874 0092 206A     	 ldr r0,[r4,#32]
 1875 0094 0121     	 mov r1,#1
 1876 0096 221C     	 mov r2,r4
 1877 0098 FFF7FEFF 	 bl optiga_cmd_derive_key
 1878              	.LVL215:
 1879 009c 051E     	 sub r5,r0,#0
 1880              	.LVL216:
 826://MAC/Home/Downloads/getstarted-optiga-trust-m/optiga-trust-m-1/optiga/crypt/optiga_crypt.c ****                                              0x01,
 827://MAC/Home/Downloads/getstarted-optiga-trust-m/optiga-trust-m-1/optiga/crypt/optiga_crypt.c ****                                              (optiga_derive_key_params_t *)p_params);
 828://MAC/Home/Downloads/getstarted-optiga-trust-m/optiga-trust-m-1/optiga/crypt/optiga_crypt.c ****         if (OPTIGA_LIB_SUCCESS != return_value)
 1881              	 .loc 1 828 0
 1882 009e 05D0     	 beq .L149
 829://MAC/Home/Downloads/getstarted-optiga-trust-m/optiga-trust-m-1/optiga/crypt/optiga_crypt.c ****         {
 830://MAC/Home/Downloads/getstarted-optiga-trust-m/optiga-trust-m-1/optiga/crypt/optiga_crypt.c ****             me->instance_state = OPTIGA_LIB_INSTANCE_FREE;
 1883              	 .loc 1 830 0
 1884 00a0 0023     	 mov r3,#0
 1885 00a2 A385     	 strh r3,[r4,#44]
 1886 00a4 02E0     	 b .L149
 1887              	.LVL217:
 1888              	.L155:
 793://MAC/Home/Downloads/getstarted-optiga-trust-m/optiga-trust-m-1/optiga/crypt/optiga_crypt.c ****             break;
 1889              	 .loc 1 793 0
 1890 00a6 044D     	 ldr r5,.L163
 1891 00a8 00E0     	 b .L149
 1892              	.L156:
 800://MAC/Home/Downloads/getstarted-optiga-trust-m/optiga-trust-m-1/optiga/crypt/optiga_crypt.c ****             break;
 1893              	 .loc 1 800 0
 1894 00aa 044D     	 ldr r5,.L163+4
 1895              	.LVL218:
 1896              	.L149:
 831://MAC/Home/Downloads/getstarted-optiga-trust-m/optiga-trust-m-1/optiga/crypt/optiga_crypt.c ****         }
 832://MAC/Home/Downloads/getstarted-optiga-trust-m/optiga-trust-m-1/optiga/crypt/optiga_crypt.c ****     } while (FALSE);
 833://MAC/Home/Downloads/getstarted-optiga-trust-m/optiga-trust-m-1/optiga/crypt/optiga_crypt.c ****     optiga_crypt_reset_protection_level(me);
 1897              	 .loc 1 833 0
 1898 00ac 201C     	 mov r0,r4
 1899 00ae FFF7FEFF 	 bl optiga_crypt_reset_protection_level
 1900              	.LVL219:
 834://MAC/Home/Downloads/getstarted-optiga-trust-m/optiga-trust-m-1/optiga/crypt/optiga_crypt.c **** 
 835://MAC/Home/Downloads/getstarted-optiga-trust-m/optiga-trust-m-1/optiga/crypt/optiga_crypt.c ****     return (return_value);
 836://MAC/Home/Downloads/getstarted-optiga-trust-m/optiga-trust-m-1/optiga/crypt/optiga_crypt.c **** }
 1901              	 .loc 1 836 0
 1902 00b2 281C     	 mov r0,r5
 1903 00b4 07B0     	 add sp,sp,#28
 1904              	 
 1905              	.LVL220:
 1906              	.LVL221:
 1907 00b6 F0BD     	 pop {r4,r5,r6,r7,pc}
 1908              	.L164:
 1909              	 .align 2
 1910              	.L163:
 1911 00b8 03040000 	 .word 1027
 1912 00bc 05040000 	 .word 1029
 1913              	 .cfi_endproc
 1914              	.LFE18:
 1916              	 .section .text.optiga_crypt_rsa_generate_keypair,"ax",%progbits
 1917              	 .align 1
 1918              	 .global optiga_crypt_rsa_generate_keypair
 1919              	 .code 16
 1920              	 .thumb_func
 1922              	optiga_crypt_rsa_generate_keypair:
 1923              	.LFB19:
 837://MAC/Home/Downloads/getstarted-optiga-trust-m/optiga-trust-m-1/optiga/crypt/optiga_crypt.c **** #endif //OPTIGA_CRYPT_TLS_PRF_SHA256_ENABLED
 838://MAC/Home/Downloads/getstarted-optiga-trust-m/optiga-trust-m-1/optiga/crypt/optiga_crypt.c **** 
 839://MAC/Home/Downloads/getstarted-optiga-trust-m/optiga-trust-m-1/optiga/crypt/optiga_crypt.c **** 
 840://MAC/Home/Downloads/getstarted-optiga-trust-m/optiga-trust-m-1/optiga/crypt/optiga_crypt.c **** #ifdef OPTIGA_CRYPT_RSA_GENERATE_KEYPAIR_ENABLED
 841://MAC/Home/Downloads/getstarted-optiga-trust-m/optiga-trust-m-1/optiga/crypt/optiga_crypt.c **** optiga_lib_status_t optiga_crypt_rsa_generate_keypair(optiga_crypt_t * me,
 842://MAC/Home/Downloads/getstarted-optiga-trust-m/optiga-trust-m-1/optiga/crypt/optiga_crypt.c ****                                                       optiga_rsa_key_type_t key_type,
 843://MAC/Home/Downloads/getstarted-optiga-trust-m/optiga-trust-m-1/optiga/crypt/optiga_crypt.c ****                                                       uint8_t key_usage,
 844://MAC/Home/Downloads/getstarted-optiga-trust-m/optiga-trust-m-1/optiga/crypt/optiga_crypt.c ****                                                       bool_t export_private_key,
 845://MAC/Home/Downloads/getstarted-optiga-trust-m/optiga-trust-m-1/optiga/crypt/optiga_crypt.c ****                                                       void * private_key,
 846://MAC/Home/Downloads/getstarted-optiga-trust-m/optiga-trust-m-1/optiga/crypt/optiga_crypt.c ****                                                       uint8_t * public_key,
 847://MAC/Home/Downloads/getstarted-optiga-trust-m/optiga-trust-m-1/optiga/crypt/optiga_crypt.c ****                                                       uint16_t * public_key_length)
 848://MAC/Home/Downloads/getstarted-optiga-trust-m/optiga-trust-m-1/optiga/crypt/optiga_crypt.c **** {
 1924              	 .loc 1 848 0
 1925              	 .cfi_startproc
 1926              	.LVL222:
 1927 0000 1FB5     	 push {r0,r1,r2,r3,r4,lr}
 1928              	.LCFI23:
 1929              	 .cfi_def_cfa_offset 24
 1930              	 .cfi_offset 0,-24
 1931              	 .cfi_offset 1,-20
 1932              	 .cfi_offset 2,-16
 1933              	 .cfi_offset 3,-12
 1934              	 .cfi_offset 4,-8
 1935              	 .cfi_offset 14,-4
 849://MAC/Home/Downloads/getstarted-optiga-trust-m/optiga-trust-m-1/optiga/crypt/optiga_crypt.c ****     OPTIGA_CRYPT_LOG_MESSAGE(__FUNCTION__);
 850://MAC/Home/Downloads/getstarted-optiga-trust-m/optiga-trust-m-1/optiga/crypt/optiga_crypt.c ****     return (optiga_crypt_generate_keypair(me,
 1936              	 .loc 1 850 0
 1937 0002 069C     	 ldr r4,[sp,#24]
 1938 0004 0094     	 str r4,[sp]
 1939 0006 079C     	 ldr r4,[sp,#28]
 1940 0008 0194     	 str r4,[sp,#4]
 1941 000a 089C     	 ldr r4,[sp,#32]
 1942 000c 0294     	 str r4,[sp,#8]
 1943 000e FFF7FEFF 	 bl optiga_crypt_generate_keypair
 1944              	.LVL223:
 851://MAC/Home/Downloads/getstarted-optiga-trust-m/optiga-trust-m-1/optiga/crypt/optiga_crypt.c ****                                          (uint8_t)key_type,
 852://MAC/Home/Downloads/getstarted-optiga-trust-m/optiga-trust-m-1/optiga/crypt/optiga_crypt.c ****                                          key_usage,
 853://MAC/Home/Downloads/getstarted-optiga-trust-m/optiga-trust-m-1/optiga/crypt/optiga_crypt.c ****                                          export_private_key,
 854://MAC/Home/Downloads/getstarted-optiga-trust-m/optiga-trust-m-1/optiga/crypt/optiga_crypt.c ****                                          private_key,
 855://MAC/Home/Downloads/getstarted-optiga-trust-m/optiga-trust-m-1/optiga/crypt/optiga_crypt.c ****                                          public_key,
 856://MAC/Home/Downloads/getstarted-optiga-trust-m/optiga-trust-m-1/optiga/crypt/optiga_crypt.c ****                                          public_key_length));
 857://MAC/Home/Downloads/getstarted-optiga-trust-m/optiga-trust-m-1/optiga/crypt/optiga_crypt.c **** }
 1945              	 .loc 1 857 0
 1946 0012 04B0     	 add sp,sp,#16
 1947              	 
 1948 0014 10BD     	 pop {r4,pc}
 1949              	 .cfi_endproc
 1950              	.LFE19:
 1952              	 .section .text.optiga_crypt_rsa_sign,"ax",%progbits
 1953              	 .align 1
 1954              	 .global optiga_crypt_rsa_sign
 1955              	 .code 16
 1956              	 .thumb_func
 1958              	optiga_crypt_rsa_sign:
 1959              	.LFB20:
 858://MAC/Home/Downloads/getstarted-optiga-trust-m/optiga-trust-m-1/optiga/crypt/optiga_crypt.c **** #endif //OPTIGA_CRYPT_RSA_GENERATE_KEYPAIR_ENABLED
 859://MAC/Home/Downloads/getstarted-optiga-trust-m/optiga-trust-m-1/optiga/crypt/optiga_crypt.c **** 
 860://MAC/Home/Downloads/getstarted-optiga-trust-m/optiga-trust-m-1/optiga/crypt/optiga_crypt.c **** 
 861://MAC/Home/Downloads/getstarted-optiga-trust-m/optiga-trust-m-1/optiga/crypt/optiga_crypt.c **** #ifdef OPTIGA_CRYPT_RSA_SIGN_ENABLED
 862://MAC/Home/Downloads/getstarted-optiga-trust-m/optiga-trust-m-1/optiga/crypt/optiga_crypt.c **** optiga_lib_status_t optiga_crypt_rsa_sign(optiga_crypt_t * me,
 863://MAC/Home/Downloads/getstarted-optiga-trust-m/optiga-trust-m-1/optiga/crypt/optiga_crypt.c ****                                           optiga_rsa_signature_scheme_t signature_scheme,
 864://MAC/Home/Downloads/getstarted-optiga-trust-m/optiga-trust-m-1/optiga/crypt/optiga_crypt.c ****                                           const uint8_t * digest,
 865://MAC/Home/Downloads/getstarted-optiga-trust-m/optiga-trust-m-1/optiga/crypt/optiga_crypt.c ****                                           uint8_t digest_length,
 866://MAC/Home/Downloads/getstarted-optiga-trust-m/optiga-trust-m-1/optiga/crypt/optiga_crypt.c ****                                           optiga_key_id_t private_key,
 867://MAC/Home/Downloads/getstarted-optiga-trust-m/optiga-trust-m-1/optiga/crypt/optiga_crypt.c ****                                           uint8_t * signature,
 868://MAC/Home/Downloads/getstarted-optiga-trust-m/optiga-trust-m-1/optiga/crypt/optiga_crypt.c ****                                           uint16_t * signature_length,
 869://MAC/Home/Downloads/getstarted-optiga-trust-m/optiga-trust-m-1/optiga/crypt/optiga_crypt.c ****                                           uint16_t salt_length)
 870://MAC/Home/Downloads/getstarted-optiga-trust-m/optiga-trust-m-1/optiga/crypt/optiga_crypt.c **** {
 1960              	 .loc 1 870 0
 1961              	 .cfi_startproc
 1962              	.LVL224:
 1963 0000 1FB5     	 push {r0,r1,r2,r3,r4,lr}
 1964              	.LCFI24:
 1965              	 .cfi_def_cfa_offset 24
 1966              	 .cfi_offset 0,-24
 1967              	 .cfi_offset 1,-20
 1968              	 .cfi_offset 2,-16
 1969              	 .cfi_offset 3,-12
 1970              	 .cfi_offset 4,-8
 1971              	 .cfi_offset 14,-4
 1972              	 .loc 1 870 0
 1973 0002 06AC     	 add r4,sp,#24
 1974              	.LVL225:
 1975 0004 2488     	 ldrh r4,[r4]
 1976              	.LVL226:
 871://MAC/Home/Downloads/getstarted-optiga-trust-m/optiga-trust-m-1/optiga/crypt/optiga_crypt.c ****     OPTIGA_CRYPT_LOG_MESSAGE(__FUNCTION__);
 872://MAC/Home/Downloads/getstarted-optiga-trust-m/optiga-trust-m-1/optiga/crypt/optiga_crypt.c ****     return (optiga_crypt_sign(me,
 1977              	 .loc 1 872 0
 1978 0006 0094     	 str r4,[sp]
 1979 0008 079C     	 ldr r4,[sp,#28]
 1980 000a 0194     	 str r4,[sp,#4]
 1981 000c 089C     	 ldr r4,[sp,#32]
 1982 000e 0294     	 str r4,[sp,#8]
 1983 0010 FFF7FEFF 	 bl optiga_crypt_sign.isra.0
 1984              	.LVL227:
 873://MAC/Home/Downloads/getstarted-optiga-trust-m/optiga-trust-m-1/optiga/crypt/optiga_crypt.c ****                              (uint8_t)signature_scheme,
 874://MAC/Home/Downloads/getstarted-optiga-trust-m/optiga-trust-m-1/optiga/crypt/optiga_crypt.c ****                              digest,
 875://MAC/Home/Downloads/getstarted-optiga-trust-m/optiga-trust-m-1/optiga/crypt/optiga_crypt.c ****                              digest_length,
 876://MAC/Home/Downloads/getstarted-optiga-trust-m/optiga-trust-m-1/optiga/crypt/optiga_crypt.c ****                              private_key,
 877://MAC/Home/Downloads/getstarted-optiga-trust-m/optiga-trust-m-1/optiga/crypt/optiga_crypt.c ****                              signature,
 878://MAC/Home/Downloads/getstarted-optiga-trust-m/optiga-trust-m-1/optiga/crypt/optiga_crypt.c ****                              signature_length,
 879://MAC/Home/Downloads/getstarted-optiga-trust-m/optiga-trust-m-1/optiga/crypt/optiga_crypt.c ****                              salt_length));
 880://MAC/Home/Downloads/getstarted-optiga-trust-m/optiga-trust-m-1/optiga/crypt/optiga_crypt.c **** }
 1985              	 .loc 1 880 0
 1986 0014 04B0     	 add sp,sp,#16
 1987              	 
 1988 0016 10BD     	 pop {r4,pc}
 1989              	 .cfi_endproc
 1990              	.LFE20:
 1992              	 .section .text.optiga_crypt_rsa_verify,"ax",%progbits
 1993              	 .align 1
 1994              	 .global optiga_crypt_rsa_verify
 1995              	 .code 16
 1996              	 .thumb_func
 1998              	optiga_crypt_rsa_verify:
 1999              	.LFB21:
 881://MAC/Home/Downloads/getstarted-optiga-trust-m/optiga-trust-m-1/optiga/crypt/optiga_crypt.c **** 
 882://MAC/Home/Downloads/getstarted-optiga-trust-m/optiga-trust-m-1/optiga/crypt/optiga_crypt.c **** #endif //OPTIGA_CRYPT_RSA_SIGN_ENABLED
 883://MAC/Home/Downloads/getstarted-optiga-trust-m/optiga-trust-m-1/optiga/crypt/optiga_crypt.c **** #ifdef OPTIGA_CRYPT_RSA_VERIFY_ENABLED
 884://MAC/Home/Downloads/getstarted-optiga-trust-m/optiga-trust-m-1/optiga/crypt/optiga_crypt.c **** optiga_lib_status_t optiga_crypt_rsa_verify(optiga_crypt_t * me,
 885://MAC/Home/Downloads/getstarted-optiga-trust-m/optiga-trust-m-1/optiga/crypt/optiga_crypt.c ****                                             optiga_rsa_signature_scheme_t signature_scheme,
 886://MAC/Home/Downloads/getstarted-optiga-trust-m/optiga-trust-m-1/optiga/crypt/optiga_crypt.c ****                                             const uint8_t * digest,
 887://MAC/Home/Downloads/getstarted-optiga-trust-m/optiga-trust-m-1/optiga/crypt/optiga_crypt.c ****                                             uint8_t digest_length,
 888://MAC/Home/Downloads/getstarted-optiga-trust-m/optiga-trust-m-1/optiga/crypt/optiga_crypt.c ****                                             const uint8_t * signature,
 889://MAC/Home/Downloads/getstarted-optiga-trust-m/optiga-trust-m-1/optiga/crypt/optiga_crypt.c ****                                             uint16_t signature_length,
 890://MAC/Home/Downloads/getstarted-optiga-trust-m/optiga-trust-m-1/optiga/crypt/optiga_crypt.c ****                                             uint8_t public_key_source_type,
 891://MAC/Home/Downloads/getstarted-optiga-trust-m/optiga-trust-m-1/optiga/crypt/optiga_crypt.c ****                                             const void * public_key,
 892://MAC/Home/Downloads/getstarted-optiga-trust-m/optiga-trust-m-1/optiga/crypt/optiga_crypt.c ****                                             uint16_t salt_length)
 893://MAC/Home/Downloads/getstarted-optiga-trust-m/optiga-trust-m-1/optiga/crypt/optiga_crypt.c **** {
 2000              	 .loc 1 893 0
 2001              	 .cfi_startproc
 2002              	.LVL228:
 2003 0000 7FB5     	 push {r0,r1,r2,r3,r4,r5,r6,lr}
 2004              	.LCFI25:
 2005              	 .cfi_def_cfa_offset 32
 2006              	 .cfi_offset 0,-32
 2007              	 .cfi_offset 1,-28
 2008              	 .cfi_offset 2,-24
 2009              	 .cfi_offset 3,-20
 2010              	 .cfi_offset 4,-16
 2011              	 .cfi_offset 5,-12
 2012              	 .cfi_offset 6,-8
 2013              	 .cfi_offset 14,-4
 2014              	 .loc 1 893 0
 2015 0002 08AC     	 add r4,sp,#32
 2016              	.LVL229:
 2017 0004 40CC     	 ldmia r4!,{r6}
 2018              	.LVL230:
 2019 0006 2588     	 ldrh r5,[r4]
 2020 0008 0AAC     	 add r4,sp,#40
 2021              	.LVL231:
 2022 000a 2478     	 ldrb r4,[r4]
 2023              	.LVL232:
 894://MAC/Home/Downloads/getstarted-optiga-trust-m/optiga-trust-m-1/optiga/crypt/optiga_crypt.c ****     OPTIGA_CRYPT_LOG_MESSAGE(__FUNCTION__);
 895://MAC/Home/Downloads/getstarted-optiga-trust-m/optiga-trust-m-1/optiga/crypt/optiga_crypt.c ****     return (optiga_crypt_verify(me,
 2024              	 .loc 1 895 0
 2025 000c 0096     	 str r6,[sp]
 2026 000e 0294     	 str r4,[sp,#8]
 2027 0010 0B9C     	 ldr r4,[sp,#44]
 2028 0012 0195     	 str r5,[sp,#4]
 2029 0014 0394     	 str r4,[sp,#12]
 2030 0016 FFF7FEFF 	 bl optiga_crypt_verify.isra.1
 2031              	.LVL233:
 896://MAC/Home/Downloads/getstarted-optiga-trust-m/optiga-trust-m-1/optiga/crypt/optiga_crypt.c ****                                 (uint8_t)signature_scheme,
 897://MAC/Home/Downloads/getstarted-optiga-trust-m/optiga-trust-m-1/optiga/crypt/optiga_crypt.c ****                                 digest,
 898://MAC/Home/Downloads/getstarted-optiga-trust-m/optiga-trust-m-1/optiga/crypt/optiga_crypt.c ****                                 digest_length,
 899://MAC/Home/Downloads/getstarted-optiga-trust-m/optiga-trust-m-1/optiga/crypt/optiga_crypt.c ****                                 signature,
 900://MAC/Home/Downloads/getstarted-optiga-trust-m/optiga-trust-m-1/optiga/crypt/optiga_crypt.c ****                                 signature_length,
 901://MAC/Home/Downloads/getstarted-optiga-trust-m/optiga-trust-m-1/optiga/crypt/optiga_crypt.c ****                                 public_key_source_type,
 902://MAC/Home/Downloads/getstarted-optiga-trust-m/optiga-trust-m-1/optiga/crypt/optiga_crypt.c ****                                 public_key,
 903://MAC/Home/Downloads/getstarted-optiga-trust-m/optiga-trust-m-1/optiga/crypt/optiga_crypt.c ****                                 salt_length));
 904://MAC/Home/Downloads/getstarted-optiga-trust-m/optiga-trust-m-1/optiga/crypt/optiga_crypt.c **** }
 2032              	 .loc 1 904 0
 2033 001a 04B0     	 add sp,sp,#16
 2034              	 
 2035 001c 70BD     	 pop {r4,r5,r6,pc}
 2036              	 .cfi_endproc
 2037              	.LFE21:
 2039              	 .section .text.optiga_crypt_rsa_encrypt_message,"ax",%progbits
 2040              	 .align 1
 2041              	 .global optiga_crypt_rsa_encrypt_message
 2042              	 .code 16
 2043              	 .thumb_func
 2045              	optiga_crypt_rsa_encrypt_message:
 2046              	.LFB22:
 905://MAC/Home/Downloads/getstarted-optiga-trust-m/optiga-trust-m-1/optiga/crypt/optiga_crypt.c **** #endif //OPTIGA_CRYPT_RSA_VERIFY_ENABLED
 906://MAC/Home/Downloads/getstarted-optiga-trust-m/optiga-trust-m-1/optiga/crypt/optiga_crypt.c **** 
 907://MAC/Home/Downloads/getstarted-optiga-trust-m/optiga-trust-m-1/optiga/crypt/optiga_crypt.c **** #ifdef OPTIGA_CRYPT_RSA_ENCRYPT_ENABLED
 908://MAC/Home/Downloads/getstarted-optiga-trust-m/optiga-trust-m-1/optiga/crypt/optiga_crypt.c **** optiga_lib_status_t optiga_crypt_rsa_encrypt_message(optiga_crypt_t * me,
 909://MAC/Home/Downloads/getstarted-optiga-trust-m/optiga-trust-m-1/optiga/crypt/optiga_crypt.c ****                                                      optiga_rsa_encryption_scheme_t encryption_sche
 910://MAC/Home/Downloads/getstarted-optiga-trust-m/optiga-trust-m-1/optiga/crypt/optiga_crypt.c ****                                                      const uint8_t * message,
 911://MAC/Home/Downloads/getstarted-optiga-trust-m/optiga-trust-m-1/optiga/crypt/optiga_crypt.c ****                                                      uint16_t message_length,
 912://MAC/Home/Downloads/getstarted-optiga-trust-m/optiga-trust-m-1/optiga/crypt/optiga_crypt.c ****                                                      const uint8_t * label,
 913://MAC/Home/Downloads/getstarted-optiga-trust-m/optiga-trust-m-1/optiga/crypt/optiga_crypt.c ****                                                      uint16_t label_length,
 914://MAC/Home/Downloads/getstarted-optiga-trust-m/optiga-trust-m-1/optiga/crypt/optiga_crypt.c ****                                                      uint8_t public_key_source_type,
 915://MAC/Home/Downloads/getstarted-optiga-trust-m/optiga-trust-m-1/optiga/crypt/optiga_crypt.c ****                                                      const void * public_key,
 916://MAC/Home/Downloads/getstarted-optiga-trust-m/optiga-trust-m-1/optiga/crypt/optiga_crypt.c ****                                                      uint8_t * encrypted_message,
 917://MAC/Home/Downloads/getstarted-optiga-trust-m/optiga-trust-m-1/optiga/crypt/optiga_crypt.c ****                                                      uint16_t * encrypted_message_length)
 918://MAC/Home/Downloads/getstarted-optiga-trust-m/optiga-trust-m-1/optiga/crypt/optiga_crypt.c **** {
 2047              	 .loc 1 918 0
 2048              	 .cfi_startproc
 2049              	.LVL234:
 2050 0000 F0B5     	 push {r4,r5,r6,r7,lr}
 2051              	.LCFI26:
 2052              	 .cfi_def_cfa_offset 20
 2053              	 .cfi_offset 4,-20
 2054              	 .cfi_offset 5,-16
 2055              	 .cfi_offset 6,-12
 2056              	 .cfi_offset 7,-8
 2057              	 .cfi_offset 14,-4
 2058 0002 87B0     	 sub sp,sp,#28
 2059              	.LCFI27:
 2060              	 .cfi_def_cfa_offset 48
 2061              	.LVL235:
 2062              	 .loc 1 918 0
 2063 0004 0EAC     	 add r4,sp,#56
 2064              	.LVL236:
 2065 0006 2778     	 ldrb r7,[r4]
 2066 0008 9C46     	 mov ip,r3
 2067 000a 0F9E     	 ldr r6,[sp,#60]
 2068 000c 109D     	 ldr r5,[sp,#64]
 2069 000e 119C     	 ldr r4,[sp,#68]
 2070              	.LVL237:
 919://MAC/Home/Downloads/getstarted-optiga-trust-m/optiga-trust-m-1/optiga/crypt/optiga_crypt.c **** 
 920://MAC/Home/Downloads/getstarted-optiga-trust-m/optiga-trust-m-1/optiga/crypt/optiga_crypt.c ****     optiga_lib_status_t return_value = OPTIGA_CRYPT_ERROR_INVALID_INPUT;
 921://MAC/Home/Downloads/getstarted-optiga-trust-m/optiga-trust-m-1/optiga/crypt/optiga_crypt.c ****     OPTIGA_CRYPT_LOG_MESSAGE(__FUNCTION__);
 922://MAC/Home/Downloads/getstarted-optiga-trust-m/optiga-trust-m-1/optiga/crypt/optiga_crypt.c ****     do
 923://MAC/Home/Downloads/getstarted-optiga-trust-m/optiga-trust-m-1/optiga/crypt/optiga_crypt.c ****     {
 924://MAC/Home/Downloads/getstarted-optiga-trust-m/optiga-trust-m-1/optiga/crypt/optiga_crypt.c **** #ifdef OPTIGA_LIB_DEBUG_NULL_CHECK
 925://MAC/Home/Downloads/getstarted-optiga-trust-m/optiga-trust-m-1/optiga/crypt/optiga_crypt.c ****         if ((NULL == me) || (NULL == me->my_cmd) || (NULL == message)||
 2071              	 .loc 1 925 0
 2072 0010 0028     	 cmp r0,#0
 2073 0012 14D0     	 beq .L175
 2074              	 .loc 1 925 0 is_stmt 0 discriminator 1
 2075 0014 036A     	 ldr r3,[r0,#32]
 2076              	.LVL238:
 2077 0016 002B     	 cmp r3,#0
 2078 0018 11D0     	 beq .L175
 2079              	 .loc 1 925 0 discriminator 2
 2080 001a 002A     	 cmp r2,#0
 2081 001c 0FD0     	 beq .L175
 2082              	 .loc 1 925 0 discriminator 3
 2083 001e 002E     	 cmp r6,#0
 2084 0020 0DD0     	 beq .L175
 926://MAC/Home/Downloads/getstarted-optiga-trust-m/optiga-trust-m-1/optiga/crypt/optiga_crypt.c ****             (NULL == public_key) || (NULL == encrypted_message) || (NULL == encrypted_message_lengt
 2085              	 .loc 1 926 0 is_stmt 1
 2086 0022 002D     	 cmp r5,#0
 2087 0024 0BD0     	 beq .L175
 2088              	 .loc 1 926 0 is_stmt 0 discriminator 1
 2089 0026 002C     	 cmp r4,#0
 2090 0028 09D0     	 beq .L175
 927://MAC/Home/Downloads/getstarted-optiga-trust-m/optiga-trust-m-1/optiga/crypt/optiga_crypt.c ****         {
 928://MAC/Home/Downloads/getstarted-optiga-trust-m/optiga-trust-m-1/optiga/crypt/optiga_crypt.c ****             break;
 929://MAC/Home/Downloads/getstarted-optiga-trust-m/optiga-trust-m-1/optiga/crypt/optiga_crypt.c ****         }
 930://MAC/Home/Downloads/getstarted-optiga-trust-m/optiga-trust-m-1/optiga/crypt/optiga_crypt.c **** #endif
 931://MAC/Home/Downloads/getstarted-optiga-trust-m/optiga-trust-m-1/optiga/crypt/optiga_crypt.c ****         return_value =  optiga_crypt_rsa_enc_dec(me,
 2091              	 .loc 1 931 0 is_stmt 1
 2092 002a 0394     	 str r4,[sp,#12]
 2093 002c 0124     	 mov r4,#1
 2094 002e 6346     	 mov r3,ip
 2095 0030 0097     	 str r7,[sp]
 2096 0032 0196     	 str r6,[sp,#4]
 2097 0034 0295     	 str r5,[sp,#8]
 2098 0036 0494     	 str r4,[sp,#16]
 2099 0038 FFF7FEFF 	 bl optiga_crypt_rsa_enc_dec.isra.2
 2100              	.LVL239:
 2101 003c 00E0     	 b .L169
 2102              	.LVL240:
 2103              	.L175:
 920://MAC/Home/Downloads/getstarted-optiga-trust-m/optiga-trust-m-1/optiga/crypt/optiga_crypt.c ****     OPTIGA_CRYPT_LOG_MESSAGE(__FUNCTION__);
 2104              	 .loc 1 920 0
 2105 003e 0148     	 ldr r0,.L176
 2106              	.LVL241:
 2107              	.L169:
 932://MAC/Home/Downloads/getstarted-optiga-trust-m/optiga-trust-m-1/optiga/crypt/optiga_crypt.c ****                                                  encryption_scheme,
 933://MAC/Home/Downloads/getstarted-optiga-trust-m/optiga-trust-m-1/optiga/crypt/optiga_crypt.c ****                                                  message,
 934://MAC/Home/Downloads/getstarted-optiga-trust-m/optiga-trust-m-1/optiga/crypt/optiga_crypt.c ****                                                  message_length,
 935://MAC/Home/Downloads/getstarted-optiga-trust-m/optiga-trust-m-1/optiga/crypt/optiga_crypt.c ****                                                  label,
 936://MAC/Home/Downloads/getstarted-optiga-trust-m/optiga-trust-m-1/optiga/crypt/optiga_crypt.c ****                                                  label_length,
 937://MAC/Home/Downloads/getstarted-optiga-trust-m/optiga-trust-m-1/optiga/crypt/optiga_crypt.c ****                                                  public_key_source_type,
 938://MAC/Home/Downloads/getstarted-optiga-trust-m/optiga-trust-m-1/optiga/crypt/optiga_crypt.c ****                                                  public_key,
 939://MAC/Home/Downloads/getstarted-optiga-trust-m/optiga-trust-m-1/optiga/crypt/optiga_crypt.c ****                                                  encrypted_message,
 940://MAC/Home/Downloads/getstarted-optiga-trust-m/optiga-trust-m-1/optiga/crypt/optiga_crypt.c ****                                                  encrypted_message_length,
 941://MAC/Home/Downloads/getstarted-optiga-trust-m/optiga-trust-m-1/optiga/crypt/optiga_crypt.c ****                                                  TRUE);
 942://MAC/Home/Downloads/getstarted-optiga-trust-m/optiga-trust-m-1/optiga/crypt/optiga_crypt.c ****     } while (FALSE);
 943://MAC/Home/Downloads/getstarted-optiga-trust-m/optiga-trust-m-1/optiga/crypt/optiga_crypt.c ****     return (return_value);
 944://MAC/Home/Downloads/getstarted-optiga-trust-m/optiga-trust-m-1/optiga/crypt/optiga_crypt.c **** }
 2108              	 .loc 1 944 0
 2109 0040 07B0     	 add sp,sp,#28
 2110              	 
 2111 0042 F0BD     	 pop {r4,r5,r6,r7,pc}
 2112              	.L177:
 2113              	 .align 2
 2114              	.L176:
 2115 0044 03040000 	 .word 1027
 2116              	 .cfi_endproc
 2117              	.LFE22:
 2119              	 .section .text.optiga_crypt_rsa_encrypt_session,"ax",%progbits
 2120              	 .align 1
 2121              	 .global optiga_crypt_rsa_encrypt_session
 2122              	 .code 16
 2123              	 .thumb_func
 2125              	optiga_crypt_rsa_encrypt_session:
 2126              	.LFB23:
 945://MAC/Home/Downloads/getstarted-optiga-trust-m/optiga-trust-m-1/optiga/crypt/optiga_crypt.c **** 
 946://MAC/Home/Downloads/getstarted-optiga-trust-m/optiga-trust-m-1/optiga/crypt/optiga_crypt.c **** optiga_lib_status_t optiga_crypt_rsa_encrypt_session(optiga_crypt_t * me,
 947://MAC/Home/Downloads/getstarted-optiga-trust-m/optiga-trust-m-1/optiga/crypt/optiga_crypt.c ****                                                      optiga_rsa_encryption_scheme_t encryption_sche
 948://MAC/Home/Downloads/getstarted-optiga-trust-m/optiga-trust-m-1/optiga/crypt/optiga_crypt.c ****                                                      const uint8_t * label,
 949://MAC/Home/Downloads/getstarted-optiga-trust-m/optiga-trust-m-1/optiga/crypt/optiga_crypt.c ****                                                      uint16_t label_length,
 950://MAC/Home/Downloads/getstarted-optiga-trust-m/optiga-trust-m-1/optiga/crypt/optiga_crypt.c ****                                                      uint8_t public_key_source_type,
 951://MAC/Home/Downloads/getstarted-optiga-trust-m/optiga-trust-m-1/optiga/crypt/optiga_crypt.c ****                                                      const void * public_key,
 952://MAC/Home/Downloads/getstarted-optiga-trust-m/optiga-trust-m-1/optiga/crypt/optiga_crypt.c ****                                                      uint8_t * encrypted_message,
 953://MAC/Home/Downloads/getstarted-optiga-trust-m/optiga-trust-m-1/optiga/crypt/optiga_crypt.c ****                                                      uint16_t * encrypted_message_length)
 954://MAC/Home/Downloads/getstarted-optiga-trust-m/optiga-trust-m-1/optiga/crypt/optiga_crypt.c **** {
 2127              	 .loc 1 954 0
 2128              	 .cfi_startproc
 2129              	.LVL242:
 2130 0000 F0B5     	 push {r4,r5,r6,r7,lr}
 2131              	.LCFI28:
 2132              	 .cfi_def_cfa_offset 20
 2133              	 .cfi_offset 4,-20
 2134              	 .cfi_offset 5,-16
 2135              	 .cfi_offset 6,-12
 2136              	 .cfi_offset 7,-8
 2137              	 .cfi_offset 14,-4
 2138 0002 87B0     	 sub sp,sp,#28
 2139              	.LCFI29:
 2140              	 .cfi_def_cfa_offset 48
 2141              	 .loc 1 954 0
 2142 0004 0CAB     	 add r3,sp,#48
 2143              	.LVL243:
 2144 0006 1C78     	 ldrb r4,[r3]
 2145 0008 0D9E     	 ldr r6,[sp,#52]
 2146 000a 0E9D     	 ldr r5,[sp,#56]
 955://MAC/Home/Downloads/getstarted-optiga-trust-m/optiga-trust-m-1/optiga/crypt/optiga_crypt.c ****     optiga_lib_status_t return_value = OPTIGA_CRYPT_ERROR_INVALID_INPUT;
 956://MAC/Home/Downloads/getstarted-optiga-trust-m/optiga-trust-m-1/optiga/crypt/optiga_crypt.c ****     OPTIGA_CRYPT_LOG_MESSAGE(__FUNCTION__);
 957://MAC/Home/Downloads/getstarted-optiga-trust-m/optiga-trust-m-1/optiga/crypt/optiga_crypt.c ****     do
 958://MAC/Home/Downloads/getstarted-optiga-trust-m/optiga-trust-m-1/optiga/crypt/optiga_crypt.c ****     {
 959://MAC/Home/Downloads/getstarted-optiga-trust-m/optiga-trust-m-1/optiga/crypt/optiga_crypt.c **** #ifdef OPTIGA_LIB_DEBUG_NULL_CHECK
 960://MAC/Home/Downloads/getstarted-optiga-trust-m/optiga-trust-m-1/optiga/crypt/optiga_crypt.c ****         if ((NULL == me) || (NULL == me->my_cmd) || (NULL == encrypted_message)|| (NULL == encrypte
 2147              	 .loc 1 960 0
 2148 000c 0028     	 cmp r0,#0
 2149 000e 1AD0     	 beq .L184
 2150              	 .loc 1 960 0 is_stmt 0 discriminator 1
 2151 0010 036A     	 ldr r3,[r0,#32]
 2152              	.LVL244:
 2153 0012 002B     	 cmp r3,#0
 2154 0014 17D0     	 beq .L184
 2155              	 .loc 1 960 0 discriminator 2
 2156 0016 002D     	 cmp r5,#0
 2157 0018 15D0     	 beq .L184
 2158              	 .loc 1 960 0 discriminator 3
 2159 001a 0F9B     	 ldr r3,[sp,#60]
 2160 001c 002B     	 cmp r3,#0
 2161 001e 12D0     	 beq .L184
 2162              	 .loc 1 960 0 discriminator 4
 2163 0020 002E     	 cmp r6,#0
 2164 0022 10D0     	 beq .L184
 961://MAC/Home/Downloads/getstarted-optiga-trust-m/optiga-trust-m-1/optiga/crypt/optiga_crypt.c ****             (NULL == public_key))
 962://MAC/Home/Downloads/getstarted-optiga-trust-m/optiga-trust-m-1/optiga/crypt/optiga_crypt.c ****         {
 963://MAC/Home/Downloads/getstarted-optiga-trust-m/optiga-trust-m-1/optiga/crypt/optiga_crypt.c ****             break;
 964://MAC/Home/Downloads/getstarted-optiga-trust-m/optiga-trust-m-1/optiga/crypt/optiga_crypt.c ****         }
 965://MAC/Home/Downloads/getstarted-optiga-trust-m/optiga-trust-m-1/optiga/crypt/optiga_crypt.c **** #endif
 966://MAC/Home/Downloads/getstarted-optiga-trust-m/optiga-trust-m-1/optiga/crypt/optiga_crypt.c **** #ifdef OPTIGA_COMMS_SHIELDED_CONNECTION
 967://MAC/Home/Downloads/getstarted-optiga-trust-m/optiga-trust-m-1/optiga/crypt/optiga_crypt.c ****         me->protection_level |= OPTIGA_COMMS_COMMAND_PROTECTION;
 2165              	 .loc 1 967 0 is_stmt 1
 2166 0024 071C     	 mov r7,r0
 2167 0026 0122     	 mov r2,#1
 2168              	.LVL245:
 2169 0028 2E37     	 add r7,r7,#46
 2170 002a 3B78     	 ldrb r3,[r7]
 2171 002c 1343     	 orr r3,r2
 2172 002e 3B70     	 strb r3,[r7]
 968://MAC/Home/Downloads/getstarted-optiga-trust-m/optiga-trust-m-1/optiga/crypt/optiga_crypt.c **** #endif //OPTIGA_COMMS_SHIELDED_CONNECTION
 969://MAC/Home/Downloads/getstarted-optiga-trust-m/optiga-trust-m-1/optiga/crypt/optiga_crypt.c ****         return_value =  optiga_crypt_rsa_enc_dec(me,
 2173              	 .loc 1 969 0
 2174 0030 0492     	 str r2,[sp,#16]
 2175 0032 0022     	 mov r2,#0
 2176 0034 0F9B     	 ldr r3,[sp,#60]
 2177 0036 0094     	 str r4,[sp]
 2178 0038 0393     	 str r3,[sp,#12]
 2179 003a 0196     	 str r6,[sp,#4]
 2180 003c 0295     	 str r5,[sp,#8]
 2181 003e 131C     	 mov r3,r2
 2182 0040 FFF7FEFF 	 bl optiga_crypt_rsa_enc_dec.isra.2
 2183              	.LVL246:
 2184 0044 00E0     	 b .L179
 2185              	.LVL247:
 2186              	.L184:
 955://MAC/Home/Downloads/getstarted-optiga-trust-m/optiga-trust-m-1/optiga/crypt/optiga_crypt.c ****     OPTIGA_CRYPT_LOG_MESSAGE(__FUNCTION__);
 2187              	 .loc 1 955 0
 2188 0046 0148     	 ldr r0,.L185
 2189              	.LVL248:
 2190              	.L179:
 970://MAC/Home/Downloads/getstarted-optiga-trust-m/optiga-trust-m-1/optiga/crypt/optiga_crypt.c ****                                                  encryption_scheme,
 971://MAC/Home/Downloads/getstarted-optiga-trust-m/optiga-trust-m-1/optiga/crypt/optiga_crypt.c ****                                                  NULL,
 972://MAC/Home/Downloads/getstarted-optiga-trust-m/optiga-trust-m-1/optiga/crypt/optiga_crypt.c ****                                                  0,
 973://MAC/Home/Downloads/getstarted-optiga-trust-m/optiga-trust-m-1/optiga/crypt/optiga_crypt.c ****                                                  label,
 974://MAC/Home/Downloads/getstarted-optiga-trust-m/optiga-trust-m-1/optiga/crypt/optiga_crypt.c ****                                                  label_length,
 975://MAC/Home/Downloads/getstarted-optiga-trust-m/optiga-trust-m-1/optiga/crypt/optiga_crypt.c ****                                                  public_key_source_type,
 976://MAC/Home/Downloads/getstarted-optiga-trust-m/optiga-trust-m-1/optiga/crypt/optiga_crypt.c ****                                                  public_key,
 977://MAC/Home/Downloads/getstarted-optiga-trust-m/optiga-trust-m-1/optiga/crypt/optiga_crypt.c ****                                                  encrypted_message,
 978://MAC/Home/Downloads/getstarted-optiga-trust-m/optiga-trust-m-1/optiga/crypt/optiga_crypt.c ****                                                  encrypted_message_length,
 979://MAC/Home/Downloads/getstarted-optiga-trust-m/optiga-trust-m-1/optiga/crypt/optiga_crypt.c ****                                                  TRUE);
 980://MAC/Home/Downloads/getstarted-optiga-trust-m/optiga-trust-m-1/optiga/crypt/optiga_crypt.c ****     } while (FALSE);
 981://MAC/Home/Downloads/getstarted-optiga-trust-m/optiga-trust-m-1/optiga/crypt/optiga_crypt.c ****     return (return_value);
 982://MAC/Home/Downloads/getstarted-optiga-trust-m/optiga-trust-m-1/optiga/crypt/optiga_crypt.c **** }
 2191              	 .loc 1 982 0
 2192 0048 07B0     	 add sp,sp,#28
 2193              	 
 2194 004a F0BD     	 pop {r4,r5,r6,r7,pc}
 2195              	.L186:
 2196              	 .align 2
 2197              	.L185:
 2198 004c 03040000 	 .word 1027
 2199              	 .cfi_endproc
 2200              	.LFE23:
 2202              	 .section .text.optiga_crypt_rsa_decrypt_and_export,"ax",%progbits
 2203              	 .align 1
 2204              	 .global optiga_crypt_rsa_decrypt_and_export
 2205              	 .code 16
 2206              	 .thumb_func
 2208              	optiga_crypt_rsa_decrypt_and_export:
 2209              	.LFB24:
 983://MAC/Home/Downloads/getstarted-optiga-trust-m/optiga-trust-m-1/optiga/crypt/optiga_crypt.c **** 
 984://MAC/Home/Downloads/getstarted-optiga-trust-m/optiga-trust-m-1/optiga/crypt/optiga_crypt.c **** #endif //OPTIGA_CRYPT_RSA_ENCRYPT_ENABLED
 985://MAC/Home/Downloads/getstarted-optiga-trust-m/optiga-trust-m-1/optiga/crypt/optiga_crypt.c **** #ifdef OPTIGA_CRYPT_RSA_DECRYPT_ENABLED
 986://MAC/Home/Downloads/getstarted-optiga-trust-m/optiga-trust-m-1/optiga/crypt/optiga_crypt.c **** optiga_lib_status_t optiga_crypt_rsa_decrypt_and_export(optiga_crypt_t * me,
 987://MAC/Home/Downloads/getstarted-optiga-trust-m/optiga-trust-m-1/optiga/crypt/optiga_crypt.c ****                                                         optiga_rsa_encryption_scheme_t encryption_s
 988://MAC/Home/Downloads/getstarted-optiga-trust-m/optiga-trust-m-1/optiga/crypt/optiga_crypt.c ****                                                         const uint8_t * encrypted_message,
 989://MAC/Home/Downloads/getstarted-optiga-trust-m/optiga-trust-m-1/optiga/crypt/optiga_crypt.c ****                                                         uint16_t encrypted_message_length,
 990://MAC/Home/Downloads/getstarted-optiga-trust-m/optiga-trust-m-1/optiga/crypt/optiga_crypt.c ****                                                         const uint8_t * label,
 991://MAC/Home/Downloads/getstarted-optiga-trust-m/optiga-trust-m-1/optiga/crypt/optiga_crypt.c ****                                                         uint16_t label_length,
 992://MAC/Home/Downloads/getstarted-optiga-trust-m/optiga-trust-m-1/optiga/crypt/optiga_crypt.c ****                                                         optiga_key_id_t private_key,
 993://MAC/Home/Downloads/getstarted-optiga-trust-m/optiga-trust-m-1/optiga/crypt/optiga_crypt.c ****                                                         uint8_t * message,
 994://MAC/Home/Downloads/getstarted-optiga-trust-m/optiga-trust-m-1/optiga/crypt/optiga_crypt.c ****                                                         uint16_t * message_length)
 995://MAC/Home/Downloads/getstarted-optiga-trust-m/optiga-trust-m-1/optiga/crypt/optiga_crypt.c **** {
 2210              	 .loc 1 995 0
 2211              	 .cfi_startproc
 2212              	.LVL249:
 2213 0000 F0B5     	 push {r4,r5,r6,r7,lr}
 2214              	.LCFI30:
 2215              	 .cfi_def_cfa_offset 20
 2216              	 .cfi_offset 4,-20
 2217              	 .cfi_offset 5,-16
 2218              	 .cfi_offset 6,-12
 2219              	 .cfi_offset 7,-8
 2220              	 .cfi_offset 14,-4
 2221 0002 89B0     	 sub sp,sp,#36
 2222              	.LCFI31:
 2223              	 .cfi_def_cfa_offset 56
 2224              	.LVL250:
 2225              	 .loc 1 995 0
 2226 0004 10AC     	 add r4,sp,#64
 2227              	.LVL251:
 2228 0006 2788     	 ldrh r7,[r4]
 996://MAC/Home/Downloads/getstarted-optiga-trust-m/optiga-trust-m-1/optiga/crypt/optiga_crypt.c ****     optiga_lib_status_t return_value = OPTIGA_CRYPT_ERROR_INVALID_INPUT;
 997://MAC/Home/Downloads/getstarted-optiga-trust-m/optiga-trust-m-1/optiga/crypt/optiga_crypt.c ****     optiga_key_id_t private_key_id;
 998://MAC/Home/Downloads/getstarted-optiga-trust-m/optiga-trust-m-1/optiga/crypt/optiga_crypt.c ****     OPTIGA_CRYPT_LOG_MESSAGE(__FUNCTION__);
 999://MAC/Home/Downloads/getstarted-optiga-trust-m/optiga-trust-m-1/optiga/crypt/optiga_crypt.c ****     do
1000://MAC/Home/Downloads/getstarted-optiga-trust-m/optiga-trust-m-1/optiga/crypt/optiga_crypt.c ****     {
1001://MAC/Home/Downloads/getstarted-optiga-trust-m/optiga-trust-m-1/optiga/crypt/optiga_crypt.c **** #ifdef OPTIGA_LIB_DEBUG_NULL_CHECK
1002://MAC/Home/Downloads/getstarted-optiga-trust-m/optiga-trust-m-1/optiga/crypt/optiga_crypt.c ****         if ((NULL == me) || (NULL == me->my_cmd) || (NULL == message) || (NULL == message_length)||
 2229              	 .loc 1 1002 0
 2230 0008 0028     	 cmp r0,#0
 2231 000a 1ED0     	 beq .L193
 2232              	 .loc 1 1002 0 is_stmt 0 discriminator 1
 2233 000c 046A     	 ldr r4,[r0,#32]
 2234              	.LVL252:
 2235 000e 002C     	 cmp r4,#0
 2236 0010 1BD0     	 beq .L193
 2237              	 .loc 1 1002 0 discriminator 2
 2238 0012 119C     	 ldr r4,[sp,#68]
 2239 0014 002C     	 cmp r4,#0
 2240 0016 18D0     	 beq .L193
 2241              	 .loc 1 1002 0 discriminator 3
 2242 0018 129C     	 ldr r4,[sp,#72]
 2243 001a 002C     	 cmp r4,#0
 2244 001c 15D0     	 beq .L193
 2245              	 .loc 1 1002 0 discriminator 4
 2246 001e 002A     	 cmp r2,#0
 2247 0020 13D0     	 beq .L193
1003://MAC/Home/Downloads/getstarted-optiga-trust-m/optiga-trust-m-1/optiga/crypt/optiga_crypt.c ****             (NULL == encrypted_message))
1004://MAC/Home/Downloads/getstarted-optiga-trust-m/optiga-trust-m-1/optiga/crypt/optiga_crypt.c ****         {
1005://MAC/Home/Downloads/getstarted-optiga-trust-m/optiga-trust-m-1/optiga/crypt/optiga_crypt.c ****             break;
1006://MAC/Home/Downloads/getstarted-optiga-trust-m/optiga-trust-m-1/optiga/crypt/optiga_crypt.c ****         }
1007://MAC/Home/Downloads/getstarted-optiga-trust-m/optiga-trust-m-1/optiga/crypt/optiga_crypt.c **** #endif
1008://MAC/Home/Downloads/getstarted-optiga-trust-m/optiga-trust-m-1/optiga/crypt/optiga_crypt.c **** #ifdef OPTIGA_COMMS_SHIELDED_CONNECTION
1009://MAC/Home/Downloads/getstarted-optiga-trust-m/optiga-trust-m-1/optiga/crypt/optiga_crypt.c ****         me->protection_level |= OPTIGA_COMMS_RESPONSE_PROTECTION;
 2248              	 .loc 1 1009 0 is_stmt 1
 2249 0022 061C     	 mov r6,r0
 2250 0024 0225     	 mov r5,#2
 2251 0026 2E36     	 add r6,r6,#46
 2252 0028 3478     	 ldrb r4,[r6]
 2253 002a 2C43     	 orr r4,r5
 2254 002c 3470     	 strb r4,[r6]
1010://MAC/Home/Downloads/getstarted-optiga-trust-m/optiga-trust-m-1/optiga/crypt/optiga_crypt.c **** #endif //OPTIGA_COMMS_SHIELDED_CONNECTION
1011://MAC/Home/Downloads/getstarted-optiga-trust-m/optiga-trust-m-1/optiga/crypt/optiga_crypt.c ****         private_key_id = private_key;
 2255              	 .loc 1 1011 0
 2256 002e 1E24     	 mov r4,#30
1012://MAC/Home/Downloads/getstarted-optiga-trust-m/optiga-trust-m-1/optiga/crypt/optiga_crypt.c ****         return_value = optiga_crypt_rsa_enc_dec(me,
 2257              	 .loc 1 1012 0
 2258 0030 0026     	 mov r6,#0
1011://MAC/Home/Downloads/getstarted-optiga-trust-m/optiga-trust-m-1/optiga/crypt/optiga_crypt.c ****         return_value = optiga_crypt_rsa_enc_dec(me,
 2259              	 .loc 1 1011 0
 2260 0032 6C44     	 add r4,r4,sp
 2261 0034 2780     	 strh r7,[r4]
 2262              	 .loc 1 1012 0
 2263 0036 0194     	 str r4,[sp,#4]
 2264 0038 119C     	 ldr r4,[sp,#68]
 2265 003a 0096     	 str r6,[sp]
 2266 003c 0294     	 str r4,[sp,#8]
 2267 003e 129C     	 ldr r4,[sp,#72]
 2268 0040 0496     	 str r6,[sp,#16]
 2269 0042 0394     	 str r4,[sp,#12]
 2270 0044 FFF7FEFF 	 bl optiga_crypt_rsa_enc_dec.isra.2
 2271              	.LVL253:
 2272 0048 00E0     	 b .L188
 2273              	.LVL254:
 2274              	.L193:
 996://MAC/Home/Downloads/getstarted-optiga-trust-m/optiga-trust-m-1/optiga/crypt/optiga_crypt.c ****     optiga_key_id_t private_key_id;
 2275              	 .loc 1 996 0
 2276 004a 0148     	 ldr r0,.L194
 2277              	.LVL255:
 2278              	.L188:
1013://MAC/Home/Downloads/getstarted-optiga-trust-m/optiga-trust-m-1/optiga/crypt/optiga_crypt.c ****                                                 encryption_scheme,
1014://MAC/Home/Downloads/getstarted-optiga-trust-m/optiga-trust-m-1/optiga/crypt/optiga_crypt.c ****                                                 encrypted_message,
1015://MAC/Home/Downloads/getstarted-optiga-trust-m/optiga-trust-m-1/optiga/crypt/optiga_crypt.c ****                                                 encrypted_message_length,
1016://MAC/Home/Downloads/getstarted-optiga-trust-m/optiga-trust-m-1/optiga/crypt/optiga_crypt.c ****                                                 label,
1017://MAC/Home/Downloads/getstarted-optiga-trust-m/optiga-trust-m-1/optiga/crypt/optiga_crypt.c ****                                                 label_length,
1018://MAC/Home/Downloads/getstarted-optiga-trust-m/optiga-trust-m-1/optiga/crypt/optiga_crypt.c ****                                                 0,
1019://MAC/Home/Downloads/getstarted-optiga-trust-m/optiga-trust-m-1/optiga/crypt/optiga_crypt.c ****                                                 (void *)&private_key_id,
1020://MAC/Home/Downloads/getstarted-optiga-trust-m/optiga-trust-m-1/optiga/crypt/optiga_crypt.c ****                                                 message,
1021://MAC/Home/Downloads/getstarted-optiga-trust-m/optiga-trust-m-1/optiga/crypt/optiga_crypt.c ****                                                 message_length,
1022://MAC/Home/Downloads/getstarted-optiga-trust-m/optiga-trust-m-1/optiga/crypt/optiga_crypt.c ****                                                 FALSE);
1023://MAC/Home/Downloads/getstarted-optiga-trust-m/optiga-trust-m-1/optiga/crypt/optiga_crypt.c ****     } while (FALSE);
1024://MAC/Home/Downloads/getstarted-optiga-trust-m/optiga-trust-m-1/optiga/crypt/optiga_crypt.c **** 
1025://MAC/Home/Downloads/getstarted-optiga-trust-m/optiga-trust-m-1/optiga/crypt/optiga_crypt.c ****     return (return_value);
1026://MAC/Home/Downloads/getstarted-optiga-trust-m/optiga-trust-m-1/optiga/crypt/optiga_crypt.c **** }
 2279              	 .loc 1 1026 0
 2280 004c 09B0     	 add sp,sp,#36
 2281              	 
 2282 004e F0BD     	 pop {r4,r5,r6,r7,pc}
 2283              	.L195:
 2284              	 .align 2
 2285              	.L194:
 2286 0050 03040000 	 .word 1027
 2287              	 .cfi_endproc
 2288              	.LFE24:
 2290              	 .section .text.optiga_crypt_rsa_decrypt_and_store,"ax",%progbits
 2291              	 .align 1
 2292              	 .global optiga_crypt_rsa_decrypt_and_store
 2293              	 .code 16
 2294              	 .thumb_func
 2296              	optiga_crypt_rsa_decrypt_and_store:
 2297              	.LFB25:
1027://MAC/Home/Downloads/getstarted-optiga-trust-m/optiga-trust-m-1/optiga/crypt/optiga_crypt.c **** 
1028://MAC/Home/Downloads/getstarted-optiga-trust-m/optiga-trust-m-1/optiga/crypt/optiga_crypt.c **** optiga_lib_status_t optiga_crypt_rsa_decrypt_and_store(optiga_crypt_t * me,
1029://MAC/Home/Downloads/getstarted-optiga-trust-m/optiga-trust-m-1/optiga/crypt/optiga_crypt.c ****                                                        optiga_rsa_encryption_scheme_t encryption_sc
1030://MAC/Home/Downloads/getstarted-optiga-trust-m/optiga-trust-m-1/optiga/crypt/optiga_crypt.c ****                                                        const uint8_t * encrypted_message,
1031://MAC/Home/Downloads/getstarted-optiga-trust-m/optiga-trust-m-1/optiga/crypt/optiga_crypt.c ****                                                        uint16_t encrypted_message_length,
1032://MAC/Home/Downloads/getstarted-optiga-trust-m/optiga-trust-m-1/optiga/crypt/optiga_crypt.c ****                                                        const uint8_t * label,
1033://MAC/Home/Downloads/getstarted-optiga-trust-m/optiga-trust-m-1/optiga/crypt/optiga_crypt.c ****                                                        uint16_t label_length,
1034://MAC/Home/Downloads/getstarted-optiga-trust-m/optiga-trust-m-1/optiga/crypt/optiga_crypt.c ****                                                        optiga_key_id_t private_key)
1035://MAC/Home/Downloads/getstarted-optiga-trust-m/optiga-trust-m-1/optiga/crypt/optiga_crypt.c **** {
 2298              	 .loc 1 1035 0
 2299              	 .cfi_startproc
 2300              	.LVL256:
 2301 0000 30B5     	 push {r4,r5,lr}
 2302              	.LCFI32:
 2303              	 .cfi_def_cfa_offset 12
 2304              	 .cfi_offset 4,-12
 2305              	 .cfi_offset 5,-8
 2306              	 .cfi_offset 14,-4
 2307 0002 89B0     	 sub sp,sp,#36
 2308              	.LCFI33:
 2309              	 .cfi_def_cfa_offset 48
 2310              	.LVL257:
 2311              	 .loc 1 1035 0
 2312 0004 0EAC     	 add r4,sp,#56
 2313              	.LVL258:
 2314 0006 2488     	 ldrh r4,[r4]
 2315              	.LVL259:
1036://MAC/Home/Downloads/getstarted-optiga-trust-m/optiga-trust-m-1/optiga/crypt/optiga_crypt.c ****     optiga_lib_status_t return_value = OPTIGA_CRYPT_ERROR_INVALID_INPUT;
1037://MAC/Home/Downloads/getstarted-optiga-trust-m/optiga-trust-m-1/optiga/crypt/optiga_crypt.c ****     optiga_key_id_t private_key_id;
1038://MAC/Home/Downloads/getstarted-optiga-trust-m/optiga-trust-m-1/optiga/crypt/optiga_crypt.c ****     OPTIGA_CRYPT_LOG_MESSAGE(__FUNCTION__);
1039://MAC/Home/Downloads/getstarted-optiga-trust-m/optiga-trust-m-1/optiga/crypt/optiga_crypt.c **** 
1040://MAC/Home/Downloads/getstarted-optiga-trust-m/optiga-trust-m-1/optiga/crypt/optiga_crypt.c ****     do
1041://MAC/Home/Downloads/getstarted-optiga-trust-m/optiga-trust-m-1/optiga/crypt/optiga_crypt.c ****     {
1042://MAC/Home/Downloads/getstarted-optiga-trust-m/optiga-trust-m-1/optiga/crypt/optiga_crypt.c **** #ifdef OPTIGA_LIB_DEBUG_NULL_CHECK
1043://MAC/Home/Downloads/getstarted-optiga-trust-m/optiga-trust-m-1/optiga/crypt/optiga_crypt.c ****         if ((NULL == me) || (NULL == me->my_cmd) || (NULL == encrypted_message))
 2316              	 .loc 1 1043 0
 2317 0008 0028     	 cmp r0,#0
 2318 000a 10D0     	 beq .L200
 2319              	 .loc 1 1043 0 is_stmt 0 discriminator 1
 2320 000c 056A     	 ldr r5,[r0,#32]
 2321 000e 002D     	 cmp r5,#0
 2322 0010 0DD0     	 beq .L200
 2323              	 .loc 1 1043 0 discriminator 2
 2324 0012 002A     	 cmp r2,#0
 2325 0014 0BD0     	 beq .L200
1044://MAC/Home/Downloads/getstarted-optiga-trust-m/optiga-trust-m-1/optiga/crypt/optiga_crypt.c ****         {
1045://MAC/Home/Downloads/getstarted-optiga-trust-m/optiga-trust-m-1/optiga/crypt/optiga_crypt.c ****            break;
1046://MAC/Home/Downloads/getstarted-optiga-trust-m/optiga-trust-m-1/optiga/crypt/optiga_crypt.c ****         }
1047://MAC/Home/Downloads/getstarted-optiga-trust-m/optiga-trust-m-1/optiga/crypt/optiga_crypt.c **** #endif
1048://MAC/Home/Downloads/getstarted-optiga-trust-m/optiga-trust-m-1/optiga/crypt/optiga_crypt.c ****         private_key_id = private_key;
 2326              	 .loc 1 1048 0 is_stmt 1
 2327 0016 1E25     	 mov r5,#30
 2328 0018 6D44     	 add r5,r5,sp
 2329 001a 2C80     	 strh r4,[r5]
1049://MAC/Home/Downloads/getstarted-optiga-trust-m/optiga-trust-m-1/optiga/crypt/optiga_crypt.c ****         return_value = optiga_crypt_rsa_enc_dec(me,
 2330              	 .loc 1 1049 0
 2331 001c 0024     	 mov r4,#0
 2332 001e 0195     	 str r5,[sp,#4]
 2333 0020 0094     	 str r4,[sp]
 2334 0022 0294     	 str r4,[sp,#8]
 2335 0024 0394     	 str r4,[sp,#12]
 2336 0026 0494     	 str r4,[sp,#16]
 2337 0028 FFF7FEFF 	 bl optiga_crypt_rsa_enc_dec.isra.2
 2338              	.LVL260:
 2339 002c 00E0     	 b .L197
 2340              	.LVL261:
 2341              	.L200:
1036://MAC/Home/Downloads/getstarted-optiga-trust-m/optiga-trust-m-1/optiga/crypt/optiga_crypt.c ****     optiga_lib_status_t return_value = OPTIGA_CRYPT_ERROR_INVALID_INPUT;
 2342              	 .loc 1 1036 0
 2343 002e 0148     	 ldr r0,.L201
 2344              	.LVL262:
 2345              	.L197:
1050://MAC/Home/Downloads/getstarted-optiga-trust-m/optiga-trust-m-1/optiga/crypt/optiga_crypt.c ****                                                 encryption_scheme,
1051://MAC/Home/Downloads/getstarted-optiga-trust-m/optiga-trust-m-1/optiga/crypt/optiga_crypt.c ****                                                 encrypted_message,
1052://MAC/Home/Downloads/getstarted-optiga-trust-m/optiga-trust-m-1/optiga/crypt/optiga_crypt.c ****                                                 encrypted_message_length,
1053://MAC/Home/Downloads/getstarted-optiga-trust-m/optiga-trust-m-1/optiga/crypt/optiga_crypt.c ****                                                 label,
1054://MAC/Home/Downloads/getstarted-optiga-trust-m/optiga-trust-m-1/optiga/crypt/optiga_crypt.c ****                                                 label_length,
1055://MAC/Home/Downloads/getstarted-optiga-trust-m/optiga-trust-m-1/optiga/crypt/optiga_crypt.c ****                                                 0,
1056://MAC/Home/Downloads/getstarted-optiga-trust-m/optiga-trust-m-1/optiga/crypt/optiga_crypt.c ****                                                 (void *)&private_key_id,
1057://MAC/Home/Downloads/getstarted-optiga-trust-m/optiga-trust-m-1/optiga/crypt/optiga_crypt.c ****                                                 NULL,
1058://MAC/Home/Downloads/getstarted-optiga-trust-m/optiga-trust-m-1/optiga/crypt/optiga_crypt.c ****                                                 NULL,
1059://MAC/Home/Downloads/getstarted-optiga-trust-m/optiga-trust-m-1/optiga/crypt/optiga_crypt.c ****                                                 FALSE);
1060://MAC/Home/Downloads/getstarted-optiga-trust-m/optiga-trust-m-1/optiga/crypt/optiga_crypt.c ****     } while (FALSE);
1061://MAC/Home/Downloads/getstarted-optiga-trust-m/optiga-trust-m-1/optiga/crypt/optiga_crypt.c **** 
1062://MAC/Home/Downloads/getstarted-optiga-trust-m/optiga-trust-m-1/optiga/crypt/optiga_crypt.c ****     return (return_value);
1063://MAC/Home/Downloads/getstarted-optiga-trust-m/optiga-trust-m-1/optiga/crypt/optiga_crypt.c **** }
 2346              	 .loc 1 1063 0
 2347 0030 09B0     	 add sp,sp,#36
 2348              	 
 2349 0032 30BD     	 pop {r4,r5,pc}
 2350              	.L202:
 2351              	 .align 2
 2352              	.L201:
 2353 0034 03040000 	 .word 1027
 2354              	 .cfi_endproc
 2355              	.LFE25:
 2357              	 .section .text.optiga_crypt_rsa_generate_pre_master_secret,"ax",%progbits
 2358              	 .align 1
 2359              	 .global optiga_crypt_rsa_generate_pre_master_secret
 2360              	 .code 16
 2361              	 .thumb_func
 2363              	optiga_crypt_rsa_generate_pre_master_secret:
 2364              	.LFB26:
1064://MAC/Home/Downloads/getstarted-optiga-trust-m/optiga-trust-m-1/optiga/crypt/optiga_crypt.c **** #endif //OPTIGA_CRYPT_RSA_DECRYPT_ENABLED
1065://MAC/Home/Downloads/getstarted-optiga-trust-m/optiga-trust-m-1/optiga/crypt/optiga_crypt.c **** #ifdef OPTIGA_CRYPT_RSA_PRE_MASTER_SECRET_ENABLED
1066://MAC/Home/Downloads/getstarted-optiga-trust-m/optiga-trust-m-1/optiga/crypt/optiga_crypt.c **** optiga_lib_status_t optiga_crypt_rsa_generate_pre_master_secret(optiga_crypt_t * me,
1067://MAC/Home/Downloads/getstarted-optiga-trust-m/optiga-trust-m-1/optiga/crypt/optiga_crypt.c ****                                                                 const uint8_t * optional_data,
1068://MAC/Home/Downloads/getstarted-optiga-trust-m/optiga-trust-m-1/optiga/crypt/optiga_crypt.c ****                                                                 uint16_t optional_data_length,
1069://MAC/Home/Downloads/getstarted-optiga-trust-m/optiga-trust-m-1/optiga/crypt/optiga_crypt.c ****                                                                 uint16_t pre_master_secret_length)
1070://MAC/Home/Downloads/getstarted-optiga-trust-m/optiga-trust-m-1/optiga/crypt/optiga_crypt.c **** {
 2365              	 .loc 1 1070 0
 2366              	 .cfi_startproc
 2367              	.LVL263:
 2368 0000 13B5     	 push {r0,r1,r4,lr}
 2369              	.LCFI34:
 2370              	 .cfi_def_cfa_offset 16
 2371              	 .cfi_offset 0,-16
 2372              	 .cfi_offset 1,-12
 2373              	 .cfi_offset 4,-8
 2374              	 .cfi_offset 14,-4
1071://MAC/Home/Downloads/getstarted-optiga-trust-m/optiga-trust-m-1/optiga/crypt/optiga_crypt.c ****     optiga_lib_status_t return_value = OPTIGA_CRYPT_ERROR;
1072://MAC/Home/Downloads/getstarted-optiga-trust-m/optiga-trust-m-1/optiga/crypt/optiga_crypt.c ****     OPTIGA_CRYPT_LOG_MESSAGE(__FUNCTION__);
1073://MAC/Home/Downloads/getstarted-optiga-trust-m/optiga-trust-m-1/optiga/crypt/optiga_crypt.c **** 
1074://MAC/Home/Downloads/getstarted-optiga-trust-m/optiga-trust-m-1/optiga/crypt/optiga_crypt.c ****     do
1075://MAC/Home/Downloads/getstarted-optiga-trust-m/optiga-trust-m-1/optiga/crypt/optiga_crypt.c ****     {
1076://MAC/Home/Downloads/getstarted-optiga-trust-m/optiga-trust-m-1/optiga/crypt/optiga_crypt.c **** #ifdef OPTIGA_LIB_DEBUG_NULL_CHECK
1077://MAC/Home/Downloads/getstarted-optiga-trust-m/optiga-trust-m-1/optiga/crypt/optiga_crypt.c ****         /// Maximum length of shared secret supported by OPTIGA is 48 bytes, minimum is 8 bytes.
1078://MAC/Home/Downloads/getstarted-optiga-trust-m/optiga-trust-m-1/optiga/crypt/optiga_crypt.c ****         if ((NULL == me) || (NULL == me->my_cmd))
 2375              	 .loc 1 1078 0
 2376 0002 0028     	 cmp r0,#0
 2377 0004 10D0     	 beq .L208
 2378              	 .loc 1 1078 0 is_stmt 0 discriminator 1
 2379 0006 046A     	 ldr r4,[r0,#32]
 2380 0008 002C     	 cmp r4,#0
 2381 000a 0DD0     	 beq .L208
1079://MAC/Home/Downloads/getstarted-optiga-trust-m/optiga-trust-m-1/optiga/crypt/optiga_crypt.c ****         {
1080://MAC/Home/Downloads/getstarted-optiga-trust-m/optiga-trust-m-1/optiga/crypt/optiga_crypt.c ****             return_value = OPTIGA_CRYPT_ERROR_INVALID_INPUT;
1081://MAC/Home/Downloads/getstarted-optiga-trust-m/optiga-trust-m-1/optiga/crypt/optiga_crypt.c ****             break;
1082://MAC/Home/Downloads/getstarted-optiga-trust-m/optiga-trust-m-1/optiga/crypt/optiga_crypt.c ****         }
1083://MAC/Home/Downloads/getstarted-optiga-trust-m/optiga-trust-m-1/optiga/crypt/optiga_crypt.c **** #endif
1084://MAC/Home/Downloads/getstarted-optiga-trust-m/optiga-trust-m-1/optiga/crypt/optiga_crypt.c **** 
1085://MAC/Home/Downloads/getstarted-optiga-trust-m/optiga-trust-m-1/optiga/crypt/optiga_crypt.c ****         /// The minimum difference between shared secret length and optional data length should be 
1086://MAC/Home/Downloads/getstarted-optiga-trust-m/optiga-trust-m-1/optiga/crypt/optiga_crypt.c ****         /// since the minimum random length OPTIGA expects is 8 bytes (optional_data_length <= shar
1087://MAC/Home/Downloads/getstarted-optiga-trust-m/optiga-trust-m-1/optiga/crypt/optiga_crypt.c ****         if (((optional_data_length + OPTIGA_CRYPT_MINIMUM_RANDOM_DATA_LENGTH) > pre_master_secret_l
 2382              	 .loc 1 1087 0 is_stmt 1
 2383 000c D41D     	 add r4,r2,#7
 2384 000e 9C42     	 cmp r4,r3
 2385 0010 0ADA     	 bge .L208
 2386              	 .loc 1 1087 0 is_stmt 0 discriminator 1
 2387 0012 282A     	 cmp r2,#40
 2388 0014 08D8     	 bhi .L208
1088://MAC/Home/Downloads/getstarted-optiga-trust-m/optiga-trust-m-1/optiga/crypt/optiga_crypt.c ****             (optional_data_length > OPTIGA_CRYTP_MINIMUM_OPTIONAL_DATA_LENGTH))
1089://MAC/Home/Downloads/getstarted-optiga-trust-m/optiga-trust-m-1/optiga/crypt/optiga_crypt.c ****         {
1090://MAC/Home/Downloads/getstarted-optiga-trust-m/optiga-trust-m-1/optiga/crypt/optiga_crypt.c ****             return_value = OPTIGA_CRYPT_ERROR_INVALID_INPUT;
1091://MAC/Home/Downloads/getstarted-optiga-trust-m/optiga-trust-m-1/optiga/crypt/optiga_crypt.c ****             break;
1092://MAC/Home/Downloads/getstarted-optiga-trust-m/optiga-trust-m-1/optiga/crypt/optiga_crypt.c ****         }
1093://MAC/Home/Downloads/getstarted-optiga-trust-m/optiga-trust-m-1/optiga/crypt/optiga_crypt.c **** 
1094://MAC/Home/Downloads/getstarted-optiga-trust-m/optiga-trust-m-1/optiga/crypt/optiga_crypt.c ****         return_value = optiga_crypt_get_random(me,
 2389              	 .loc 1 1094 0 is_stmt 1
 2390 0016 9B1A     	 sub r3,r3,r2
 2391              	.LVL264:
 2392 0018 0091     	 str r1,[sp]
 2393 001a 0192     	 str r2,[sp,#4]
 2394 001c 9BB2     	 uxth r3,r3
 2395 001e 0421     	 mov r1,#4
 2396              	.LVL265:
 2397 0020 0022     	 mov r2,#0
 2398              	.LVL266:
 2399 0022 FFF7FEFF 	 bl optiga_crypt_get_random
 2400              	.LVL267:
 2401 0026 00E0     	 b .L204
 2402              	.LVL268:
 2403              	.L208:
1080://MAC/Home/Downloads/getstarted-optiga-trust-m/optiga-trust-m-1/optiga/crypt/optiga_crypt.c ****             break;
 2404              	 .loc 1 1080 0
 2405 0028 0048     	 ldr r0,.L209
 2406              	.LVL269:
 2407              	.L204:
1095://MAC/Home/Downloads/getstarted-optiga-trust-m/optiga-trust-m-1/optiga/crypt/optiga_crypt.c ****                                                OPTIGA_CRYTP_RANDOM_PARAM_PRE_MASTER_SECRET,
1096://MAC/Home/Downloads/getstarted-optiga-trust-m/optiga-trust-m-1/optiga/crypt/optiga_crypt.c ****                                                NULL,
1097://MAC/Home/Downloads/getstarted-optiga-trust-m/optiga-trust-m-1/optiga/crypt/optiga_crypt.c ****                                                (pre_master_secret_length - optional_data_length),
1098://MAC/Home/Downloads/getstarted-optiga-trust-m/optiga-trust-m-1/optiga/crypt/optiga_crypt.c ****                                                optional_data,
1099://MAC/Home/Downloads/getstarted-optiga-trust-m/optiga-trust-m-1/optiga/crypt/optiga_crypt.c ****                                                optional_data_length);
1100://MAC/Home/Downloads/getstarted-optiga-trust-m/optiga-trust-m-1/optiga/crypt/optiga_crypt.c ****     } while (FALSE);
1101://MAC/Home/Downloads/getstarted-optiga-trust-m/optiga-trust-m-1/optiga/crypt/optiga_crypt.c **** 
1102://MAC/Home/Downloads/getstarted-optiga-trust-m/optiga-trust-m-1/optiga/crypt/optiga_crypt.c ****     return (return_value);
1103://MAC/Home/Downloads/getstarted-optiga-trust-m/optiga-trust-m-1/optiga/crypt/optiga_crypt.c **** }
 2408              	 .loc 1 1103 0
 2409              	 
 2410 002a 16BD     	 pop {r1,r2,r4,pc}
 2411              	.L210:
 2412              	 .align 2
 2413              	.L209:
 2414 002c 03040000 	 .word 1027
 2415              	 .cfi_endproc
 2416              	.LFE26:
 2418              	 .text
 2419              	.Letext0:
 2420              	 .file 2 "c:\\dave_4-4-2_64bit\\dave-ide-4.4.2-64bit\\eclipse\\arm-gcc-49\\arm-none-eabi\\include\\machine\\_default_types.h"
 2421              	 .file 3 "c:\\dave_4-4-2_64bit\\dave-ide-4.4.2-64bit\\eclipse\\arm-gcc-49\\lib\\gcc\\arm-none-eabi\\4.9.3\\include\\stddef.h"
 2422              	 .file 4 "c:\\dave_4-4-2_64bit\\dave-ide-4.4.2-64bit\\eclipse\\arm-gcc-49\\arm-none-eabi\\include\\stdint.h"
 2423              	 .file 5 "//MAC/Home/Downloads/getstarted-optiga-trust-m/optiga-trust-m-1/optiga/include/optiga/common/optiga_lib_types.h"
 2424              	 .file 6 "//MAC/Home/Downloads/getstarted-optiga-trust-m/optiga-trust-m-1/optiga/include/optiga/common/optiga_lib_common.h"
 2425              	 .file 7 "//MAC/Home/Downloads/getstarted-optiga-trust-m/optiga-trust-m-1/optiga/include/optiga/cmd/optiga_cmd.h"
 2426              	 .file 8 "//MAC/Home/Downloads/getstarted-optiga-trust-m/optiga-trust-m-1/optiga/include/optiga/optiga_crypt.h"
 2427              	 .file 9 "c:\\dave_4-4-2_64bit\\dave-ide-4.4.2-64bit\\eclipse\\arm-gcc-49\\arm-none-eabi\\include\\stdlib.h"
DEFINED SYMBOLS
                            *ABS*:00000000 optiga_crypt.c
    {standard input}:18     .text.optiga_crypt_generic_event_handler:00000000 $t
    {standard input}:22     .text.optiga_crypt_generic_event_handler:00000000 optiga_crypt_generic_event_handler
    {standard input}:54     .text.optiga_crypt_reset_protection_level:00000000 $t
    {standard input}:58     .text.optiga_crypt_reset_protection_level:00000000 optiga_crypt_reset_protection_level
    {standard input}:85     .text.optiga_crypt_get_random:00000000 $t
    {standard input}:89     .text.optiga_crypt_get_random:00000000 optiga_crypt_get_random
    {standard input}:201    .text.optiga_crypt_get_random:00000074 $d
    {standard input}:206    .text.optiga_crypt_generate_keypair:00000000 $t
    {standard input}:210    .text.optiga_crypt_generate_keypair:00000000 optiga_crypt_generate_keypair
    {standard input}:351    .text.optiga_crypt_generate_keypair:00000094 $d
    {standard input}:357    .text.optiga_crypt_sign.isra.0:00000000 $t
    {standard input}:361    .text.optiga_crypt_sign.isra.0:00000000 optiga_crypt_sign.isra.0
    {standard input}:495    .text.optiga_crypt_sign.isra.0:00000098 $d
    {standard input}:501    .text.optiga_crypt_verify.isra.1:00000000 $t
    {standard input}:505    .text.optiga_crypt_verify.isra.1:00000000 optiga_crypt_verify.isra.1
    {standard input}:653    .text.optiga_crypt_verify.isra.1:000000ac $d
    {standard input}:659    .text.optiga_crypt_rsa_enc_dec.isra.2:00000000 $t
    {standard input}:663    .text.optiga_crypt_rsa_enc_dec.isra.2:00000000 optiga_crypt_rsa_enc_dec.isra.2
    {standard input}:812    .text.optiga_crypt_rsa_enc_dec.isra.2:000000a0 $d
    {standard input}:817    .text.optiga_crypt_set_comms_params:00000000 $t
    {standard input}:822    .text.optiga_crypt_set_comms_params:00000000 optiga_crypt_set_comms_params
    {standard input}:852    .text.optiga_crypt_create:00000000 $t
    {standard input}:857    .text.optiga_crypt_create:00000000 optiga_crypt_create
    {standard input}:942    .text.optiga_crypt_create:0000004c $d
    {standard input}:947    .text.optiga_crypt_destroy:00000000 $t
    {standard input}:952    .text.optiga_crypt_destroy:00000000 optiga_crypt_destroy
    {standard input}:1003   .text.optiga_crypt_destroy:00000028 $d
    {standard input}:1009   .text.optiga_crypt_random:00000000 $t
    {standard input}:1014   .text.optiga_crypt_random:00000000 optiga_crypt_random
    {standard input}:1055   .text.optiga_crypt_random:00000020 $d
    {standard input}:1060   .text.optiga_crypt_hash_start:00000000 $t
    {standard input}:1065   .text.optiga_crypt_hash_start:00000000 optiga_crypt_hash_start
    {standard input}:1174   .text.optiga_crypt_hash_start:00000074 $d
    {standard input}:1180   .text.optiga_crypt_hash_update:00000000 $t
    {standard input}:1185   .text.optiga_crypt_hash_update:00000000 optiga_crypt_hash_update
    {standard input}:1325   .text.optiga_crypt_hash_update:00000094 $d
    {standard input}:1331   .text.optiga_crypt_hash_finalize:00000000 $t
    {standard input}:1336   .text.optiga_crypt_hash_finalize:00000000 optiga_crypt_hash_finalize
    {standard input}:1459   .text.optiga_crypt_hash_finalize:00000080 $d
    {standard input}:1465   .text.optiga_crypt_ecc_generate_keypair:00000000 $t
    {standard input}:1470   .text.optiga_crypt_ecc_generate_keypair:00000000 optiga_crypt_ecc_generate_keypair
    {standard input}:1501   .text.optiga_crypt_ecdsa_sign:00000000 $t
    {standard input}:1506   .text.optiga_crypt_ecdsa_sign:00000000 optiga_crypt_ecdsa_sign
    {standard input}:1545   .text.optiga_crypt_ecdsa_verify:00000000 $t
    {standard input}:1550   .text.optiga_crypt_ecdsa_verify:00000000 optiga_crypt_ecdsa_verify
    {standard input}:1596   .text.optiga_crypt_ecdh:00000000 $t
    {standard input}:1601   .text.optiga_crypt_ecdh:00000000 optiga_crypt_ecdh
    {standard input}:1737   .text.optiga_crypt_ecdh:00000090 $d
    {standard input}:1743   .text.optiga_crypt_tls_prf_sha256:00000000 $t
    {standard input}:1748   .text.optiga_crypt_tls_prf_sha256:00000000 optiga_crypt_tls_prf_sha256
    {standard input}:1911   .text.optiga_crypt_tls_prf_sha256:000000b8 $d
    {standard input}:1917   .text.optiga_crypt_rsa_generate_keypair:00000000 $t
    {standard input}:1922   .text.optiga_crypt_rsa_generate_keypair:00000000 optiga_crypt_rsa_generate_keypair
    {standard input}:1953   .text.optiga_crypt_rsa_sign:00000000 $t
    {standard input}:1958   .text.optiga_crypt_rsa_sign:00000000 optiga_crypt_rsa_sign
    {standard input}:1993   .text.optiga_crypt_rsa_verify:00000000 $t
    {standard input}:1998   .text.optiga_crypt_rsa_verify:00000000 optiga_crypt_rsa_verify
    {standard input}:2040   .text.optiga_crypt_rsa_encrypt_message:00000000 $t
    {standard input}:2045   .text.optiga_crypt_rsa_encrypt_message:00000000 optiga_crypt_rsa_encrypt_message
    {standard input}:2115   .text.optiga_crypt_rsa_encrypt_message:00000044 $d
    {standard input}:2120   .text.optiga_crypt_rsa_encrypt_session:00000000 $t
    {standard input}:2125   .text.optiga_crypt_rsa_encrypt_session:00000000 optiga_crypt_rsa_encrypt_session
    {standard input}:2198   .text.optiga_crypt_rsa_encrypt_session:0000004c $d
    {standard input}:2203   .text.optiga_crypt_rsa_decrypt_and_export:00000000 $t
    {standard input}:2208   .text.optiga_crypt_rsa_decrypt_and_export:00000000 optiga_crypt_rsa_decrypt_and_export
    {standard input}:2286   .text.optiga_crypt_rsa_decrypt_and_export:00000050 $d
    {standard input}:2291   .text.optiga_crypt_rsa_decrypt_and_store:00000000 $t
    {standard input}:2296   .text.optiga_crypt_rsa_decrypt_and_store:00000000 optiga_crypt_rsa_decrypt_and_store
    {standard input}:2353   .text.optiga_crypt_rsa_decrypt_and_store:00000034 $d
    {standard input}:2358   .text.optiga_crypt_rsa_generate_pre_master_secret:00000000 $t
    {standard input}:2363   .text.optiga_crypt_rsa_generate_pre_master_secret:00000000 optiga_crypt_rsa_generate_pre_master_secret
    {standard input}:2414   .text.optiga_crypt_rsa_generate_pre_master_secret:0000002c $d
                     .debug_frame:00000010 $d

UNDEFINED SYMBOLS
memset
optiga_cmd_set_shielded_connection_option
optiga_cmd_get_random
optiga_cmd_gen_keypair
optiga_cmd_calc_sign
optiga_cmd_verify_sign
optiga_cmd_encrypt_asym
optiga_cmd_decrypt_asym
calloc
optiga_cmd_create
free
optiga_cmd_destroy
optiga_cmd_calc_hash
optiga_cmd_calc_ssec
optiga_cmd_derive_key
