   1              	 .cpu cortex-m0
   2              	 .fpu softvfp
   3              	 .eabi_attribute 20,1
   4              	 .eabi_attribute 21,1
   5              	 .eabi_attribute 23,3
   6              	 .eabi_attribute 24,1
   7              	 .eabi_attribute 25,1
   8              	 .eabi_attribute 26,1
   9              	 .eabi_attribute 30,4
  10              	 .eabi_attribute 34,0
  11              	 .eabi_attribute 18,4
  12              	 .code 16
  13              	 .file "example_optiga_util_read_data.c"
  14              	 .text
  15              	.Ltext0:
  16              	 .cfi_sections .debug_frame
  17              	 .section .text.optiga_util_callback,"ax",%progbits
  18              	 .align 1
  19              	 .code 16
  20              	 .thumb_func
  22              	optiga_util_callback:
  23              	.LFB0:
  24              	 .file 1 "C:/Workspace/DAVE-4.4.2-64Bit/optiga-trust-m/examples/optiga/example_optiga_util_read_data.c"
   1:C:/Workspace/DAVE-4.4.2-64Bit/optiga-trust-m/examples/optiga\example_optiga_util_read_data.c **** /**
   2:C:/Workspace/DAVE-4.4.2-64Bit/optiga-trust-m/examples/optiga\example_optiga_util_read_data.c **** * \copyright
   3:C:/Workspace/DAVE-4.4.2-64Bit/optiga-trust-m/examples/optiga\example_optiga_util_read_data.c **** * MIT License
   4:C:/Workspace/DAVE-4.4.2-64Bit/optiga-trust-m/examples/optiga\example_optiga_util_read_data.c **** *
   5:C:/Workspace/DAVE-4.4.2-64Bit/optiga-trust-m/examples/optiga\example_optiga_util_read_data.c **** * Copyright (c) 2019 Infineon Technologies AG
   6:C:/Workspace/DAVE-4.4.2-64Bit/optiga-trust-m/examples/optiga\example_optiga_util_read_data.c **** *
   7:C:/Workspace/DAVE-4.4.2-64Bit/optiga-trust-m/examples/optiga\example_optiga_util_read_data.c **** * Permission is hereby granted, free of charge, to any person obtaining a copy
   8:C:/Workspace/DAVE-4.4.2-64Bit/optiga-trust-m/examples/optiga\example_optiga_util_read_data.c **** * of this software and associated documentation files (the "Software"), to deal
   9:C:/Workspace/DAVE-4.4.2-64Bit/optiga-trust-m/examples/optiga\example_optiga_util_read_data.c **** * in the Software without restriction, including without limitation the rights
  10:C:/Workspace/DAVE-4.4.2-64Bit/optiga-trust-m/examples/optiga\example_optiga_util_read_data.c **** * to use, copy, modify, merge, publish, distribute, sublicense, and/or sell
  11:C:/Workspace/DAVE-4.4.2-64Bit/optiga-trust-m/examples/optiga\example_optiga_util_read_data.c **** * copies of the Software, and to permit persons to whom the Software is
  12:C:/Workspace/DAVE-4.4.2-64Bit/optiga-trust-m/examples/optiga\example_optiga_util_read_data.c **** * furnished to do so, subject to the following conditions:
  13:C:/Workspace/DAVE-4.4.2-64Bit/optiga-trust-m/examples/optiga\example_optiga_util_read_data.c **** *
  14:C:/Workspace/DAVE-4.4.2-64Bit/optiga-trust-m/examples/optiga\example_optiga_util_read_data.c **** * The above copyright notice and this permission notice shall be included in all
  15:C:/Workspace/DAVE-4.4.2-64Bit/optiga-trust-m/examples/optiga\example_optiga_util_read_data.c **** * copies or substantial portions of the Software.
  16:C:/Workspace/DAVE-4.4.2-64Bit/optiga-trust-m/examples/optiga\example_optiga_util_read_data.c **** *
  17:C:/Workspace/DAVE-4.4.2-64Bit/optiga-trust-m/examples/optiga\example_optiga_util_read_data.c **** * THE SOFTWARE IS PROVIDED "AS IS", WITHOUT WARRANTY OF ANY KIND, EXPRESS OR
  18:C:/Workspace/DAVE-4.4.2-64Bit/optiga-trust-m/examples/optiga\example_optiga_util_read_data.c **** * IMPLIED, INCLUDING BUT NOT LIMITED TO THE WARRANTIES OF MERCHANTABILITY,
  19:C:/Workspace/DAVE-4.4.2-64Bit/optiga-trust-m/examples/optiga\example_optiga_util_read_data.c **** * FITNESS FOR A PARTICULAR PURPOSE AND NONINFRINGEMENT. IN NO EVENT SHALL THE
  20:C:/Workspace/DAVE-4.4.2-64Bit/optiga-trust-m/examples/optiga\example_optiga_util_read_data.c **** * AUTHORS OR COPYRIGHT HOLDERS BE LIABLE FOR ANY CLAIM, DAMAGES OR OTHER
  21:C:/Workspace/DAVE-4.4.2-64Bit/optiga-trust-m/examples/optiga\example_optiga_util_read_data.c **** * LIABILITY, WHETHER IN AN ACTION OF CONTRACT, TORT OR OTHERWISE, ARISING FROM,
  22:C:/Workspace/DAVE-4.4.2-64Bit/optiga-trust-m/examples/optiga\example_optiga_util_read_data.c **** * OUT OF OR IN CONNECTION WITH THE SOFTWARE OR THE USE OR OTHER DEALINGS IN THE
  23:C:/Workspace/DAVE-4.4.2-64Bit/optiga-trust-m/examples/optiga\example_optiga_util_read_data.c **** * SOFTWARE
  24:C:/Workspace/DAVE-4.4.2-64Bit/optiga-trust-m/examples/optiga\example_optiga_util_read_data.c **** *
  25:C:/Workspace/DAVE-4.4.2-64Bit/optiga-trust-m/examples/optiga\example_optiga_util_read_data.c **** * \endcopyright
  26:C:/Workspace/DAVE-4.4.2-64Bit/optiga-trust-m/examples/optiga\example_optiga_util_read_data.c **** *
  27:C:/Workspace/DAVE-4.4.2-64Bit/optiga-trust-m/examples/optiga\example_optiga_util_read_data.c **** * \author Infineon Technologies AG
  28:C:/Workspace/DAVE-4.4.2-64Bit/optiga-trust-m/examples/optiga\example_optiga_util_read_data.c **** *
  29:C:/Workspace/DAVE-4.4.2-64Bit/optiga-trust-m/examples/optiga\example_optiga_util_read_data.c **** * \file example_optiga_util_read_data.c
  30:C:/Workspace/DAVE-4.4.2-64Bit/optiga-trust-m/examples/optiga\example_optiga_util_read_data.c **** *
  31:C:/Workspace/DAVE-4.4.2-64Bit/optiga-trust-m/examples/optiga\example_optiga_util_read_data.c **** * \brief   This file provides the example for reading data/metadata from OPTIGA using
  32:C:/Workspace/DAVE-4.4.2-64Bit/optiga-trust-m/examples/optiga\example_optiga_util_read_data.c **** *          #optiga_util_read_data and #optiga_util_read_metadata.
  33:C:/Workspace/DAVE-4.4.2-64Bit/optiga-trust-m/examples/optiga\example_optiga_util_read_data.c **** *
  34:C:/Workspace/DAVE-4.4.2-64Bit/optiga-trust-m/examples/optiga\example_optiga_util_read_data.c **** * \ingroup grOptigaExamples
  35:C:/Workspace/DAVE-4.4.2-64Bit/optiga-trust-m/examples/optiga\example_optiga_util_read_data.c **** *
  36:C:/Workspace/DAVE-4.4.2-64Bit/optiga-trust-m/examples/optiga\example_optiga_util_read_data.c **** * @{
  37:C:/Workspace/DAVE-4.4.2-64Bit/optiga-trust-m/examples/optiga\example_optiga_util_read_data.c **** */
  38:C:/Workspace/DAVE-4.4.2-64Bit/optiga-trust-m/examples/optiga\example_optiga_util_read_data.c **** #include "optiga_example.h"
  39:C:/Workspace/DAVE-4.4.2-64Bit/optiga-trust-m/examples/optiga\example_optiga_util_read_data.c **** #include "optiga/optiga_util.h"
  40:C:/Workspace/DAVE-4.4.2-64Bit/optiga-trust-m/examples/optiga\example_optiga_util_read_data.c **** 
  41:C:/Workspace/DAVE-4.4.2-64Bit/optiga-trust-m/examples/optiga\example_optiga_util_read_data.c **** /**
  42:C:/Workspace/DAVE-4.4.2-64Bit/optiga-trust-m/examples/optiga\example_optiga_util_read_data.c ****  * Callback when optiga_util_xxxx operation is completed asynchronously
  43:C:/Workspace/DAVE-4.4.2-64Bit/optiga-trust-m/examples/optiga\example_optiga_util_read_data.c ****  */
  44:C:/Workspace/DAVE-4.4.2-64Bit/optiga-trust-m/examples/optiga\example_optiga_util_read_data.c **** static volatile optiga_lib_status_t optiga_lib_status;
  45:C:/Workspace/DAVE-4.4.2-64Bit/optiga-trust-m/examples/optiga\example_optiga_util_read_data.c **** //lint --e{818} suppress "argument "context" is not used in the sample provided"
  46:C:/Workspace/DAVE-4.4.2-64Bit/optiga-trust-m/examples/optiga\example_optiga_util_read_data.c **** static void optiga_util_callback(void * context, optiga_lib_status_t return_status)
  47:C:/Workspace/DAVE-4.4.2-64Bit/optiga-trust-m/examples/optiga\example_optiga_util_read_data.c **** {
  25              	 .loc 1 47 0
  26              	 .cfi_startproc
  27              	.LVL0:
  48:C:/Workspace/DAVE-4.4.2-64Bit/optiga-trust-m/examples/optiga\example_optiga_util_read_data.c ****     optiga_lib_status = return_status;
  28              	 .loc 1 48 0
  29 0000 014B     	 ldr r3,.L2
  49:C:/Workspace/DAVE-4.4.2-64Bit/optiga-trust-m/examples/optiga\example_optiga_util_read_data.c ****     if (NULL != context)
  50:C:/Workspace/DAVE-4.4.2-64Bit/optiga-trust-m/examples/optiga\example_optiga_util_read_data.c ****     {
  51:C:/Workspace/DAVE-4.4.2-64Bit/optiga-trust-m/examples/optiga\example_optiga_util_read_data.c ****         // callback to upper layer here
  52:C:/Workspace/DAVE-4.4.2-64Bit/optiga-trust-m/examples/optiga\example_optiga_util_read_data.c ****     }
  53:C:/Workspace/DAVE-4.4.2-64Bit/optiga-trust-m/examples/optiga\example_optiga_util_read_data.c **** }
  30              	 .loc 1 53 0
  31              	 
  48:C:/Workspace/DAVE-4.4.2-64Bit/optiga-trust-m/examples/optiga\example_optiga_util_read_data.c ****     optiga_lib_status = return_status;
  32              	 .loc 1 48 0
  33 0002 1980     	 strh r1,[r3]
  34              	 .loc 1 53 0
  35 0004 7047     	 bx lr
  36              	.L3:
  37 0006 C046     	 .align 2
  38              	.L2:
  39 0008 00000000 	 .word .LANCHOR0
  40              	 .cfi_endproc
  41              	.LFE0:
  43              	 .section .text.example_optiga_util_read_data,"ax",%progbits
  44              	 .align 1
  45              	 .global example_optiga_util_read_data
  46              	 .code 16
  47              	 .thumb_func
  49              	example_optiga_util_read_data:
  50              	.LFB1:
  54:C:/Workspace/DAVE-4.4.2-64Bit/optiga-trust-m/examples/optiga\example_optiga_util_read_data.c **** 
  55:C:/Workspace/DAVE-4.4.2-64Bit/optiga-trust-m/examples/optiga\example_optiga_util_read_data.c **** /**
  56:C:/Workspace/DAVE-4.4.2-64Bit/optiga-trust-m/examples/optiga\example_optiga_util_read_data.c ****  * The below example demonstrates read data/metadata functionalities
  57:C:/Workspace/DAVE-4.4.2-64Bit/optiga-trust-m/examples/optiga\example_optiga_util_read_data.c ****  *
  58:C:/Workspace/DAVE-4.4.2-64Bit/optiga-trust-m/examples/optiga\example_optiga_util_read_data.c ****  * Example for #optiga_util_read_data and #optiga_util_read_metadata
  59:C:/Workspace/DAVE-4.4.2-64Bit/optiga-trust-m/examples/optiga\example_optiga_util_read_data.c ****  *
  60:C:/Workspace/DAVE-4.4.2-64Bit/optiga-trust-m/examples/optiga\example_optiga_util_read_data.c ****  */
  61:C:/Workspace/DAVE-4.4.2-64Bit/optiga-trust-m/examples/optiga\example_optiga_util_read_data.c **** void example_optiga_util_read_data(void)
  62:C:/Workspace/DAVE-4.4.2-64Bit/optiga-trust-m/examples/optiga\example_optiga_util_read_data.c **** {
  51              	 .loc 1 62 0
  52              	 .cfi_startproc
  53              	.LVL1:
  54 0000 F0B5     	 push {r4,r5,r6,r7,lr}
  55              	.LCFI0:
  56              	 .cfi_def_cfa_offset 20
  57              	 .cfi_offset 4,-20
  58              	 .cfi_offset 5,-16
  59              	 .cfi_offset 6,-12
  60              	 .cfi_offset 7,-8
  61              	 .cfi_offset 14,-4
  62 0002 304C     	 ldr r4,.L32
  63:C:/Workspace/DAVE-4.4.2-64Bit/optiga-trust-m/examples/optiga\example_optiga_util_read_data.c ****     uint16_t offset, bytes_to_read;
  64:C:/Workspace/DAVE-4.4.2-64Bit/optiga-trust-m/examples/optiga\example_optiga_util_read_data.c ****     uint16_t optiga_oid;
  65:C:/Workspace/DAVE-4.4.2-64Bit/optiga-trust-m/examples/optiga\example_optiga_util_read_data.c ****     uint8_t read_data_buffer[1024];
  66:C:/Workspace/DAVE-4.4.2-64Bit/optiga-trust-m/examples/optiga\example_optiga_util_read_data.c ****     optiga_lib_status_t return_status = 0;
  67:C:/Workspace/DAVE-4.4.2-64Bit/optiga-trust-m/examples/optiga\example_optiga_util_read_data.c ****     optiga_util_t * me = NULL;
  68:C:/Workspace/DAVE-4.4.2-64Bit/optiga-trust-m/examples/optiga\example_optiga_util_read_data.c ****     OPTIGA_EXAMPLE_LOG_MESSAGE(__FUNCTION__);
  63              	 .loc 1 68 0
  64 0004 304E     	 ldr r6,.L32+4
  62:C:/Workspace/DAVE-4.4.2-64Bit/optiga-trust-m/examples/optiga\example_optiga_util_read_data.c ****     uint16_t offset, bytes_to_read;
  65              	 .loc 1 62 0
  66 0006 A544     	 add sp,sp,r4
  67              	.LCFI1:
  68              	 .cfi_def_cfa_offset 1072
  69              	 .loc 1 68 0
  70 0008 304C     	 ldr r4,.L32+8
  71 000a 3148     	 ldr r0,.L32+12
  72 000c 311C     	 mov r1,r6
  73 000e 221C     	 mov r2,r4
  74 0010 FFF7FEFF 	 bl optiga_lib_print_message
  75              	.LVL2:
  69:C:/Workspace/DAVE-4.4.2-64Bit/optiga-trust-m/examples/optiga\example_optiga_util_read_data.c **** 
  70:C:/Workspace/DAVE-4.4.2-64Bit/optiga-trust-m/examples/optiga\example_optiga_util_read_data.c ****     do
  71:C:/Workspace/DAVE-4.4.2-64Bit/optiga-trust-m/examples/optiga\example_optiga_util_read_data.c ****     {
  72:C:/Workspace/DAVE-4.4.2-64Bit/optiga-trust-m/examples/optiga\example_optiga_util_read_data.c ****         /**
  73:C:/Workspace/DAVE-4.4.2-64Bit/optiga-trust-m/examples/optiga\example_optiga_util_read_data.c ****          * 1. Create OPTIGA Util Instance
  74:C:/Workspace/DAVE-4.4.2-64Bit/optiga-trust-m/examples/optiga\example_optiga_util_read_data.c ****          */
  75:C:/Workspace/DAVE-4.4.2-64Bit/optiga-trust-m/examples/optiga\example_optiga_util_read_data.c ****         me = optiga_util_create(0, optiga_util_callback, NULL);
  76              	 .loc 1 75 0
  77 0014 0020     	 mov r0,#0
  78 0016 2F49     	 ldr r1,.L32+16
  79 0018 021C     	 mov r2,r0
  80 001a FFF7FEFF 	 bl optiga_util_create
  81              	.LVL3:
  82 001e 0394     	 str r4,[sp,#12]
  83 0020 051E     	 sub r5,r0,#0
  84              	.LVL4:
  76:C:/Workspace/DAVE-4.4.2-64Bit/optiga-trust-m/examples/optiga\example_optiga_util_read_data.c ****         if (NULL == me)
  85              	 .loc 1 76 0
  86 0022 3CD0     	 beq .L11
  87              	.LVL5:
  77:C:/Workspace/DAVE-4.4.2-64Bit/optiga-trust-m/examples/optiga\example_optiga_util_read_data.c ****         {
  78:C:/Workspace/DAVE-4.4.2-64Bit/optiga-trust-m/examples/optiga\example_optiga_util_read_data.c ****             break;
  79:C:/Workspace/DAVE-4.4.2-64Bit/optiga-trust-m/examples/optiga\example_optiga_util_read_data.c ****         }
  80:C:/Workspace/DAVE-4.4.2-64Bit/optiga-trust-m/examples/optiga\example_optiga_util_read_data.c **** 
  81:C:/Workspace/DAVE-4.4.2-64Bit/optiga-trust-m/examples/optiga\example_optiga_util_read_data.c ****         //Read device end entity certificate from OPTIGA
  82:C:/Workspace/DAVE-4.4.2-64Bit/optiga-trust-m/examples/optiga\example_optiga_util_read_data.c ****         optiga_oid = 0xE0E0;
  83:C:/Workspace/DAVE-4.4.2-64Bit/optiga-trust-m/examples/optiga\example_optiga_util_read_data.c ****         offset = 0x00;
  84:C:/Workspace/DAVE-4.4.2-64Bit/optiga-trust-m/examples/optiga\example_optiga_util_read_data.c ****         bytes_to_read = sizeof(read_data_buffer);
  88              	 .loc 1 84 0
  89 0024 0E27     	 mov r7,#14
  90 0026 02AB     	 add r3,sp,#8
  91 0028 FF18     	 add r7,r7,r3
  92 002a 8023     	 mov r3,#128
  85:C:/Workspace/DAVE-4.4.2-64Bit/optiga-trust-m/examples/optiga\example_optiga_util_read_data.c **** 
  86:C:/Workspace/DAVE-4.4.2-64Bit/optiga-trust-m/examples/optiga\example_optiga_util_read_data.c ****         // OPTIGA Comms Shielded connection settings to enable the protection
  87:C:/Workspace/DAVE-4.4.2-64Bit/optiga-trust-m/examples/optiga\example_optiga_util_read_data.c ****         OPTIGA_UTIL_SET_COMMS_PROTOCOL_VERSION(me, OPTIGA_COMMS_PROTOCOL_VERSION_PRE_SHARED_SECRET)
  93              	 .loc 1 87 0
  94 002c 0221     	 mov r1,#2
  84:C:/Workspace/DAVE-4.4.2-64Bit/optiga-trust-m/examples/optiga\example_optiga_util_read_data.c **** 
  95              	 .loc 1 84 0
  96 002e DB00     	 lsl r3,r3,#3
  97              	 .loc 1 87 0
  98 0030 0122     	 mov r2,#1
  84:C:/Workspace/DAVE-4.4.2-64Bit/optiga-trust-m/examples/optiga\example_optiga_util_read_data.c **** 
  99              	 .loc 1 84 0
 100 0032 3B80     	 strh r3,[r7]
 101              	 .loc 1 87 0
 102 0034 FFF7FEFF 	 bl optiga_util_set_comms_params
 103              	.LVL6:
  88:C:/Workspace/DAVE-4.4.2-64Bit/optiga-trust-m/examples/optiga\example_optiga_util_read_data.c ****         OPTIGA_UTIL_SET_COMMS_PROTECTION_LEVEL(me, OPTIGA_COMMS_RESPONSE_PROTECTION);
 104              	 .loc 1 88 0
 105 0038 281C     	 mov r0,r5
 106 003a 0121     	 mov r1,#1
 107 003c 0222     	 mov r2,#2
 108 003e FFF7FEFF 	 bl optiga_util_set_comms_params
 109              	.LVL7:
  89:C:/Workspace/DAVE-4.4.2-64Bit/optiga-trust-m/examples/optiga\example_optiga_util_read_data.c **** 
  90:C:/Workspace/DAVE-4.4.2-64Bit/optiga-trust-m/examples/optiga\example_optiga_util_read_data.c ****         /**
  91:C:/Workspace/DAVE-4.4.2-64Bit/optiga-trust-m/examples/optiga\example_optiga_util_read_data.c ****          * 2. Read data from a data object (e.g. certificate data object)
  92:C:/Workspace/DAVE-4.4.2-64Bit/optiga-trust-m/examples/optiga\example_optiga_util_read_data.c ****          *    using optiga_util_read_data.
  93:C:/Workspace/DAVE-4.4.2-64Bit/optiga-trust-m/examples/optiga\example_optiga_util_read_data.c ****          */
  94:C:/Workspace/DAVE-4.4.2-64Bit/optiga-trust-m/examples/optiga\example_optiga_util_read_data.c ****         optiga_lib_status = OPTIGA_LIB_BUSY;
 110              	 .loc 1 94 0
 111 0042 0123     	 mov r3,#1
 112 0044 244C     	 ldr r4,.L32+20
  95:C:/Workspace/DAVE-4.4.2-64Bit/optiga-trust-m/examples/optiga\example_optiga_util_read_data.c ****         return_status = optiga_util_read_data(me,
 113              	 .loc 1 95 0
 114 0046 0022     	 mov r2,#0
  94:C:/Workspace/DAVE-4.4.2-64Bit/optiga-trust-m/examples/optiga\example_optiga_util_read_data.c ****         return_status = optiga_util_read_data(me,
 115              	 .loc 1 94 0
 116 0048 2380     	 strh r3,[r4]
 117              	 .loc 1 95 0
 118 004a 281C     	 mov r0,r5
 119 004c 0097     	 str r7,[sp]
 120 004e 2349     	 ldr r1,.L32+24
 121 0050 06AB     	 add r3,sp,#24
 122 0052 FFF7FEFF 	 bl optiga_util_read_data
 123              	.LVL8:
 124 0056 021E     	 sub r2,r0,#0
 125              	.LVL9:
  96:C:/Workspace/DAVE-4.4.2-64Bit/optiga-trust-m/examples/optiga\example_optiga_util_read_data.c ****                                               optiga_oid,
  97:C:/Workspace/DAVE-4.4.2-64Bit/optiga-trust-m/examples/optiga\example_optiga_util_read_data.c ****                                               offset,
  98:C:/Workspace/DAVE-4.4.2-64Bit/optiga-trust-m/examples/optiga\example_optiga_util_read_data.c ****                                               read_data_buffer,
  99:C:/Workspace/DAVE-4.4.2-64Bit/optiga-trust-m/examples/optiga\example_optiga_util_read_data.c ****                                               &bytes_to_read);
 100:C:/Workspace/DAVE-4.4.2-64Bit/optiga-trust-m/examples/optiga\example_optiga_util_read_data.c **** 
 101:C:/Workspace/DAVE-4.4.2-64Bit/optiga-trust-m/examples/optiga\example_optiga_util_read_data.c ****         if (OPTIGA_LIB_SUCCESS != return_status)
 126              	 .loc 1 101 0
 127 0058 1CD1     	 bne .L15
 128              	.L7:
 102:C:/Workspace/DAVE-4.4.2-64Bit/optiga-trust-m/examples/optiga\example_optiga_util_read_data.c ****         {
 103:C:/Workspace/DAVE-4.4.2-64Bit/optiga-trust-m/examples/optiga\example_optiga_util_read_data.c ****             break;
 104:C:/Workspace/DAVE-4.4.2-64Bit/optiga-trust-m/examples/optiga\example_optiga_util_read_data.c ****         }
 105:C:/Workspace/DAVE-4.4.2-64Bit/optiga-trust-m/examples/optiga\example_optiga_util_read_data.c **** 
 106:C:/Workspace/DAVE-4.4.2-64Bit/optiga-trust-m/examples/optiga\example_optiga_util_read_data.c ****         while (OPTIGA_LIB_BUSY == optiga_lib_status)
 129              	 .loc 1 106 0 discriminator 1
 130 005a 2388     	 ldrh r3,[r4]
 131 005c 012B     	 cmp r3,#1
 132 005e FCD0     	 beq .L7
 107:C:/Workspace/DAVE-4.4.2-64Bit/optiga-trust-m/examples/optiga\example_optiga_util_read_data.c ****         {
 108:C:/Workspace/DAVE-4.4.2-64Bit/optiga-trust-m/examples/optiga\example_optiga_util_read_data.c ****             //Wait until the optiga_util_read_data operation is completed
 109:C:/Workspace/DAVE-4.4.2-64Bit/optiga-trust-m/examples/optiga\example_optiga_util_read_data.c ****         }
 110:C:/Workspace/DAVE-4.4.2-64Bit/optiga-trust-m/examples/optiga\example_optiga_util_read_data.c **** 
 111:C:/Workspace/DAVE-4.4.2-64Bit/optiga-trust-m/examples/optiga\example_optiga_util_read_data.c ****         if (OPTIGA_LIB_SUCCESS != optiga_lib_status)
 133              	 .loc 1 111 0
 134 0060 2388     	 ldrh r3,[r4]
 135 0062 002B     	 cmp r3,#0
 136 0064 12D1     	 bne .L30
 112:C:/Workspace/DAVE-4.4.2-64Bit/optiga-trust-m/examples/optiga\example_optiga_util_read_data.c ****         {
 113:C:/Workspace/DAVE-4.4.2-64Bit/optiga-trust-m/examples/optiga\example_optiga_util_read_data.c ****             //Reading the data object failed.
 114:C:/Workspace/DAVE-4.4.2-64Bit/optiga-trust-m/examples/optiga\example_optiga_util_read_data.c ****             return_status = optiga_lib_status;
 115:C:/Workspace/DAVE-4.4.2-64Bit/optiga-trust-m/examples/optiga\example_optiga_util_read_data.c ****             break;
 116:C:/Workspace/DAVE-4.4.2-64Bit/optiga-trust-m/examples/optiga\example_optiga_util_read_data.c ****         }
 117:C:/Workspace/DAVE-4.4.2-64Bit/optiga-trust-m/examples/optiga\example_optiga_util_read_data.c ****         /**
 118:C:/Workspace/DAVE-4.4.2-64Bit/optiga-trust-m/examples/optiga\example_optiga_util_read_data.c ****          * Read metadata of a data object (e.g. certificate data object E0E0)
 119:C:/Workspace/DAVE-4.4.2-64Bit/optiga-trust-m/examples/optiga\example_optiga_util_read_data.c ****          * using optiga_util_read_data.
 120:C:/Workspace/DAVE-4.4.2-64Bit/optiga-trust-m/examples/optiga\example_optiga_util_read_data.c ****          */
 121:C:/Workspace/DAVE-4.4.2-64Bit/optiga-trust-m/examples/optiga\example_optiga_util_read_data.c ****         optiga_oid = 0xE0E0;
 122:C:/Workspace/DAVE-4.4.2-64Bit/optiga-trust-m/examples/optiga\example_optiga_util_read_data.c ****         bytes_to_read = sizeof(read_data_buffer);
 137              	 .loc 1 122 0
 138 0066 8023     	 mov r3,#128
 139 0068 DB00     	 lsl r3,r3,#3
 140 006a 3B80     	 strh r3,[r7]
 123:C:/Workspace/DAVE-4.4.2-64Bit/optiga-trust-m/examples/optiga\example_optiga_util_read_data.c ****         optiga_lib_status = OPTIGA_LIB_BUSY;
 141              	 .loc 1 123 0
 142 006c 0123     	 mov r3,#1
 124:C:/Workspace/DAVE-4.4.2-64Bit/optiga-trust-m/examples/optiga\example_optiga_util_read_data.c ****         return_status = optiga_util_read_metadata(me,
 143              	 .loc 1 124 0
 144 006e 06AA     	 add r2,sp,#24
 123:C:/Workspace/DAVE-4.4.2-64Bit/optiga-trust-m/examples/optiga\example_optiga_util_read_data.c ****         optiga_lib_status = OPTIGA_LIB_BUSY;
 145              	 .loc 1 123 0
 146 0070 2380     	 strh r3,[r4]
 147              	 .loc 1 124 0
 148 0072 281C     	 mov r0,r5
 149              	.LVL10:
 150 0074 1949     	 ldr r1,.L32+24
 151 0076 3B1C     	 mov r3,r7
 152 0078 FFF7FEFF 	 bl optiga_util_read_metadata
 153              	.LVL11:
 154 007c 021E     	 sub r2,r0,#0
 155              	.LVL12:
 125:C:/Workspace/DAVE-4.4.2-64Bit/optiga-trust-m/examples/optiga\example_optiga_util_read_data.c ****                                                   optiga_oid,
 126:C:/Workspace/DAVE-4.4.2-64Bit/optiga-trust-m/examples/optiga\example_optiga_util_read_data.c ****                                                   read_data_buffer,
 127:C:/Workspace/DAVE-4.4.2-64Bit/optiga-trust-m/examples/optiga\example_optiga_util_read_data.c ****                                                   &bytes_to_read);
 128:C:/Workspace/DAVE-4.4.2-64Bit/optiga-trust-m/examples/optiga\example_optiga_util_read_data.c **** 
 129:C:/Workspace/DAVE-4.4.2-64Bit/optiga-trust-m/examples/optiga\example_optiga_util_read_data.c ****         if (OPTIGA_LIB_SUCCESS != return_status)
 156              	 .loc 1 129 0
 157 007e 09D1     	 bne .L15
 158              	.L10:
 130:C:/Workspace/DAVE-4.4.2-64Bit/optiga-trust-m/examples/optiga\example_optiga_util_read_data.c ****         {
 131:C:/Workspace/DAVE-4.4.2-64Bit/optiga-trust-m/examples/optiga\example_optiga_util_read_data.c ****             break;
 132:C:/Workspace/DAVE-4.4.2-64Bit/optiga-trust-m/examples/optiga\example_optiga_util_read_data.c ****         }
 133:C:/Workspace/DAVE-4.4.2-64Bit/optiga-trust-m/examples/optiga\example_optiga_util_read_data.c **** 
 134:C:/Workspace/DAVE-4.4.2-64Bit/optiga-trust-m/examples/optiga\example_optiga_util_read_data.c ****         while (OPTIGA_LIB_BUSY == optiga_lib_status)
 159              	 .loc 1 134 0 discriminator 1
 160 0080 2388     	 ldrh r3,[r4]
 161 0082 012B     	 cmp r3,#1
 162 0084 FCD0     	 beq .L10
 135:C:/Workspace/DAVE-4.4.2-64Bit/optiga-trust-m/examples/optiga\example_optiga_util_read_data.c ****         {
 136:C:/Workspace/DAVE-4.4.2-64Bit/optiga-trust-m/examples/optiga\example_optiga_util_read_data.c ****             //Wait until the optiga_util_read_metadata operation is completed
 137:C:/Workspace/DAVE-4.4.2-64Bit/optiga-trust-m/examples/optiga\example_optiga_util_read_data.c ****         }
 138:C:/Workspace/DAVE-4.4.2-64Bit/optiga-trust-m/examples/optiga\example_optiga_util_read_data.c **** 
 139:C:/Workspace/DAVE-4.4.2-64Bit/optiga-trust-m/examples/optiga\example_optiga_util_read_data.c ****         if (OPTIGA_LIB_SUCCESS != optiga_lib_status)
 163              	 .loc 1 139 0
 164 0086 2388     	 ldrh r3,[r4]
 165 0088 002B     	 cmp r3,#0
 166 008a 08D0     	 beq .L11
 167              	.LVL13:
 168              	.L30:
 140:C:/Workspace/DAVE-4.4.2-64Bit/optiga-trust-m/examples/optiga\example_optiga_util_read_data.c ****         {
 141:C:/Workspace/DAVE-4.4.2-64Bit/optiga-trust-m/examples/optiga\example_optiga_util_read_data.c ****             //Reading metadata data object failed.
 142:C:/Workspace/DAVE-4.4.2-64Bit/optiga-trust-m/examples/optiga\example_optiga_util_read_data.c ****             return_status = optiga_lib_status;
 169              	 .loc 1 142 0
 170 008c 2288     	 ldrh r2,[r4]
 171 008e 92B2     	 uxth r2,r2
 172              	.LVL14:
 143:C:/Workspace/DAVE-4.4.2-64Bit/optiga-trust-m/examples/optiga\example_optiga_util_read_data.c ****             break;
 144:C:/Workspace/DAVE-4.4.2-64Bit/optiga-trust-m/examples/optiga\example_optiga_util_read_data.c ****         }
 145:C:/Workspace/DAVE-4.4.2-64Bit/optiga-trust-m/examples/optiga\example_optiga_util_read_data.c ****         return_status = OPTIGA_LIB_SUCCESS;
 146:C:/Workspace/DAVE-4.4.2-64Bit/optiga-trust-m/examples/optiga\example_optiga_util_read_data.c ****     } while (FALSE);
 147:C:/Workspace/DAVE-4.4.2-64Bit/optiga-trust-m/examples/optiga\example_optiga_util_read_data.c ****     OPTIGA_EXAMPLE_LOG_STATUS(return_status);
 173              	 .loc 1 147 0
 174 0090 002A     	 cmp r2,#0
 175 0092 04D0     	 beq .L11
 176              	.LVL15:
 177              	.L15:
 178              	 .loc 1 147 0 is_stmt 0 discriminator 1
 179 0094 301C     	 mov r0,r6
 180 0096 1249     	 ldr r1,.L32+28
 181 0098 FFF7FEFF 	 bl optiga_lib_print_status
 182              	.LVL16:
 183 009c 06E0     	 b .L12
 184              	.LVL17:
 185              	.L11:
 186              	 .loc 1 147 0 discriminator 2
 187 009e 301C     	 mov r0,r6
 188 00a0 0399     	 ldr r1,[sp,#12]
 189 00a2 0022     	 mov r2,#0
 190 00a4 FFF7FEFF 	 bl optiga_lib_print_status
 191              	.LVL18:
 148:C:/Workspace/DAVE-4.4.2-64Bit/optiga-trust-m/examples/optiga\example_optiga_util_read_data.c **** 
 149:C:/Workspace/DAVE-4.4.2-64Bit/optiga-trust-m/examples/optiga\example_optiga_util_read_data.c ****     if (me)
 192              	 .loc 1 149 0 is_stmt 1 discriminator 2
 193 00a8 002D     	 cmp r5,#0
 194 00aa 08D0     	 beq .L4
 195              	.L12:
 150:C:/Workspace/DAVE-4.4.2-64Bit/optiga-trust-m/examples/optiga\example_optiga_util_read_data.c ****     {
 151:C:/Workspace/DAVE-4.4.2-64Bit/optiga-trust-m/examples/optiga\example_optiga_util_read_data.c ****         //Destroy the instance after the completion of usecase if not required.
 152:C:/Workspace/DAVE-4.4.2-64Bit/optiga-trust-m/examples/optiga\example_optiga_util_read_data.c ****         return_status = optiga_util_destroy(me);
 196              	 .loc 1 152 0
 197 00ac 281C     	 mov r0,r5
 198 00ae FFF7FEFF 	 bl optiga_util_destroy
 199              	.LVL19:
 200 00b2 021E     	 sub r2,r0,#0
 201              	.LVL20:
 153:C:/Workspace/DAVE-4.4.2-64Bit/optiga-trust-m/examples/optiga\example_optiga_util_read_data.c ****         if(OPTIGA_LIB_SUCCESS != return_status)
 202              	 .loc 1 153 0
 203 00b4 03D0     	 beq .L4
 154:C:/Workspace/DAVE-4.4.2-64Bit/optiga-trust-m/examples/optiga\example_optiga_util_read_data.c ****         {
 155:C:/Workspace/DAVE-4.4.2-64Bit/optiga-trust-m/examples/optiga\example_optiga_util_read_data.c ****             //lint --e{774} suppress This is a generic macro
 156:C:/Workspace/DAVE-4.4.2-64Bit/optiga-trust-m/examples/optiga\example_optiga_util_read_data.c ****             OPTIGA_EXAMPLE_LOG_STATUS(return_status);
 204              	 .loc 1 156 0 discriminator 1
 205 00b6 301C     	 mov r0,r6
 206              	.LVL21:
 207 00b8 0949     	 ldr r1,.L32+28
 208 00ba FFF7FEFF 	 bl optiga_lib_print_status
 209              	.LVL22:
 210              	.L4:
 157:C:/Workspace/DAVE-4.4.2-64Bit/optiga-trust-m/examples/optiga\example_optiga_util_read_data.c ****         }
 158:C:/Workspace/DAVE-4.4.2-64Bit/optiga-trust-m/examples/optiga\example_optiga_util_read_data.c ****     }
 159:C:/Workspace/DAVE-4.4.2-64Bit/optiga-trust-m/examples/optiga\example_optiga_util_read_data.c **** 
 160:C:/Workspace/DAVE-4.4.2-64Bit/optiga-trust-m/examples/optiga\example_optiga_util_read_data.c **** }
 211              	 .loc 1 160 0
 212 00be 094B     	 ldr r3,.L32+32
 213 00c0 9D44     	 add sp,sp,r3
 214              	 
 215              	.LVL23:
 216 00c2 F0BD     	 pop {r4,r5,r6,r7,pc}
 217              	.L33:
 218              	 .align 2
 219              	.L32:
 220 00c4 E4FBFFFF 	 .word -1052
 221 00c8 00000000 	 .word .LC2
 222 00cc 15000000 	 .word .LC4
 223 00d0 00000000 	 .word .LANCHOR1
 224 00d4 00000000 	 .word optiga_util_callback
 225 00d8 00000000 	 .word .LANCHOR0
 226 00dc E0E00000 	 .word 57568
 227 00e0 1A000000 	 .word .LC8
 228 00e4 1C040000 	 .word 1052
 229              	 .cfi_endproc
 230              	.LFE1:
 232              	 .section .rodata.__FUNCTION__.5919,"a",%progbits
 233              	 .set .LANCHOR1,.+0
 236              	__FUNCTION__.5919:
 237 0000 6578616D 	 .ascii "example_optiga_util_read_data\000"
 237      706C655F 
 237      6F707469 
 237      67615F75 
 237      74696C5F 
 238              	 .section .rodata.str1.1,"aMS",%progbits,1
 239              	.LC2:
 240 0000 5B6F7074 	 .ascii "[optiga example]  : \000"
 240      69676120 
 240      6578616D 
 240      706C655D 
 240      20203A20 
 241              	.LC4:
 242 0015 1B5B306D 	 .ascii "\033[0m\000"
 242      00
 243              	.LC8:
 244 001a 1B5B3331 	 .ascii "\033[31m\000"
 244      6D00
 245              	 .section .bss.optiga_lib_status,"aw",%nobits
 246              	 .align 1
 247              	 .set .LANCHOR0,.+0
 250              	optiga_lib_status:
 251 0000 0000     	 .space 2
 252              	 .text
 253              	.Letext0:
 254              	 .file 2 "c:\\dave_4-4-2_64bit\\dave-ide-4.4.2-64bit\\eclipse\\arm-gcc-49\\arm-none-eabi\\include\\machine\\_default_types.h"
 255              	 .file 3 "c:\\dave_4-4-2_64bit\\dave-ide-4.4.2-64bit\\eclipse\\arm-gcc-49\\arm-none-eabi\\include\\stdint.h"
 256              	 .file 4 "C:/Workspace/DAVE-4.4.2-64Bit/optiga-trust-m/optiga/include/optiga/common/optiga_lib_types.h"
 257              	 .file 5 "C:/Workspace/DAVE-4.4.2-64Bit/optiga-trust-m/optiga/include/optiga/common/optiga_lib_common.h"
 258              	 .file 6 "C:/Workspace/DAVE-4.4.2-64Bit/optiga-trust-m/optiga/include/optiga/cmd/optiga_cmd.h"
 259              	 .file 7 "C:/Workspace/DAVE-4.4.2-64Bit/optiga-trust-m/optiga/include/optiga/optiga_util.h"
 260              	 .file 8 "C:/Workspace/DAVE-4.4.2-64Bit/optiga-trust-m/optiga/include/optiga/common/optiga_lib_logger.h"