   1              	 .cpu cortex-m0
   2              	 .fpu softvfp
   3              	 .eabi_attribute 20,1
   4              	 .eabi_attribute 21,1
   5              	 .eabi_attribute 23,3
   6              	 .eabi_attribute 24,1
   7              	 .eabi_attribute 25,1
   8              	 .eabi_attribute 26,1
   9              	 .eabi_attribute 30,4
  10              	 .eabi_attribute 34,0
  11              	 .eabi_attribute 18,4
  12              	 .code 16
  13              	 .file "example_pair_host_and_optiga_using_pre_shared_secret.c"
  14              	 .text
  15              	.Ltext0:
  16              	 .cfi_sections .debug_frame
  17              	 .section .text.optiga_lib_callback,"ax",%progbits
  18              	 .align 1
  19              	 .code 16
  20              	 .thumb_func
  22              	optiga_lib_callback:
  23              	.LFB0:
  24              	 .file 1 "C:/Workspace/DAVE-4.4.2-64Bit/optiga-trust-m/examples/optiga/usecases/example_pair_host_and_optiga_using_pre_shared_secret.c"
   1:C:/Workspace/DAVE-4.4.2-64Bit/optiga-trust-m/examples/optiga/usecases\example_pair_host_and_optiga_using_pre_shared_secret.c **** /**
   2:C:/Workspace/DAVE-4.4.2-64Bit/optiga-trust-m/examples/optiga/usecases\example_pair_host_and_optiga_using_pre_shared_secret.c **** * \copyright
   3:C:/Workspace/DAVE-4.4.2-64Bit/optiga-trust-m/examples/optiga/usecases\example_pair_host_and_optiga_using_pre_shared_secret.c **** * MIT License
   4:C:/Workspace/DAVE-4.4.2-64Bit/optiga-trust-m/examples/optiga/usecases\example_pair_host_and_optiga_using_pre_shared_secret.c **** *
   5:C:/Workspace/DAVE-4.4.2-64Bit/optiga-trust-m/examples/optiga/usecases\example_pair_host_and_optiga_using_pre_shared_secret.c **** * Copyright (c) 2019 Infineon Technologies AG
   6:C:/Workspace/DAVE-4.4.2-64Bit/optiga-trust-m/examples/optiga/usecases\example_pair_host_and_optiga_using_pre_shared_secret.c **** *
   7:C:/Workspace/DAVE-4.4.2-64Bit/optiga-trust-m/examples/optiga/usecases\example_pair_host_and_optiga_using_pre_shared_secret.c **** * Permission is hereby granted, free of charge, to any person obtaining a copy
   8:C:/Workspace/DAVE-4.4.2-64Bit/optiga-trust-m/examples/optiga/usecases\example_pair_host_and_optiga_using_pre_shared_secret.c **** * of this software and associated documentation files (the "Software"), to deal
   9:C:/Workspace/DAVE-4.4.2-64Bit/optiga-trust-m/examples/optiga/usecases\example_pair_host_and_optiga_using_pre_shared_secret.c **** * in the Software without restriction, including without limitation the rights
  10:C:/Workspace/DAVE-4.4.2-64Bit/optiga-trust-m/examples/optiga/usecases\example_pair_host_and_optiga_using_pre_shared_secret.c **** * to use, copy, modify, merge, publish, distribute, sublicense, and/or sell
  11:C:/Workspace/DAVE-4.4.2-64Bit/optiga-trust-m/examples/optiga/usecases\example_pair_host_and_optiga_using_pre_shared_secret.c **** * copies of the Software, and to permit persons to whom the Software is
  12:C:/Workspace/DAVE-4.4.2-64Bit/optiga-trust-m/examples/optiga/usecases\example_pair_host_and_optiga_using_pre_shared_secret.c **** * furnished to do so, subject to the following conditions:
  13:C:/Workspace/DAVE-4.4.2-64Bit/optiga-trust-m/examples/optiga/usecases\example_pair_host_and_optiga_using_pre_shared_secret.c **** *
  14:C:/Workspace/DAVE-4.4.2-64Bit/optiga-trust-m/examples/optiga/usecases\example_pair_host_and_optiga_using_pre_shared_secret.c **** * The above copyright notice and this permission notice shall be included in all
  15:C:/Workspace/DAVE-4.4.2-64Bit/optiga-trust-m/examples/optiga/usecases\example_pair_host_and_optiga_using_pre_shared_secret.c **** * copies or substantial portions of the Software.
  16:C:/Workspace/DAVE-4.4.2-64Bit/optiga-trust-m/examples/optiga/usecases\example_pair_host_and_optiga_using_pre_shared_secret.c **** *
  17:C:/Workspace/DAVE-4.4.2-64Bit/optiga-trust-m/examples/optiga/usecases\example_pair_host_and_optiga_using_pre_shared_secret.c **** * THE SOFTWARE IS PROVIDED "AS IS", WITHOUT WARRANTY OF ANY KIND, EXPRESS OR
  18:C:/Workspace/DAVE-4.4.2-64Bit/optiga-trust-m/examples/optiga/usecases\example_pair_host_and_optiga_using_pre_shared_secret.c **** * IMPLIED, INCLUDING BUT NOT LIMITED TO THE WARRANTIES OF MERCHANTABILITY,
  19:C:/Workspace/DAVE-4.4.2-64Bit/optiga-trust-m/examples/optiga/usecases\example_pair_host_and_optiga_using_pre_shared_secret.c **** * FITNESS FOR A PARTICULAR PURPOSE AND NONINFRINGEMENT. IN NO EVENT SHALL THE
  20:C:/Workspace/DAVE-4.4.2-64Bit/optiga-trust-m/examples/optiga/usecases\example_pair_host_and_optiga_using_pre_shared_secret.c **** * AUTHORS OR COPYRIGHT HOLDERS BE LIABLE FOR ANY CLAIM, DAMAGES OR OTHER
  21:C:/Workspace/DAVE-4.4.2-64Bit/optiga-trust-m/examples/optiga/usecases\example_pair_host_and_optiga_using_pre_shared_secret.c **** * LIABILITY, WHETHER IN AN ACTION OF CONTRACT, TORT OR OTHERWISE, ARISING FROM,
  22:C:/Workspace/DAVE-4.4.2-64Bit/optiga-trust-m/examples/optiga/usecases\example_pair_host_and_optiga_using_pre_shared_secret.c **** * OUT OF OR IN CONNECTION WITH THE SOFTWARE OR THE USE OR OTHER DEALINGS IN THE
  23:C:/Workspace/DAVE-4.4.2-64Bit/optiga-trust-m/examples/optiga/usecases\example_pair_host_and_optiga_using_pre_shared_secret.c **** * SOFTWARE
  24:C:/Workspace/DAVE-4.4.2-64Bit/optiga-trust-m/examples/optiga/usecases\example_pair_host_and_optiga_using_pre_shared_secret.c **** *
  25:C:/Workspace/DAVE-4.4.2-64Bit/optiga-trust-m/examples/optiga/usecases\example_pair_host_and_optiga_using_pre_shared_secret.c **** * \endcopyright
  26:C:/Workspace/DAVE-4.4.2-64Bit/optiga-trust-m/examples/optiga/usecases\example_pair_host_and_optiga_using_pre_shared_secret.c **** *
  27:C:/Workspace/DAVE-4.4.2-64Bit/optiga-trust-m/examples/optiga/usecases\example_pair_host_and_optiga_using_pre_shared_secret.c **** * \author Infineon Technologies AG
  28:C:/Workspace/DAVE-4.4.2-64Bit/optiga-trust-m/examples/optiga/usecases\example_pair_host_and_optiga_using_pre_shared_secret.c **** *
  29:C:/Workspace/DAVE-4.4.2-64Bit/optiga-trust-m/examples/optiga/usecases\example_pair_host_and_optiga_using_pre_shared_secret.c **** * \file example_pair_host_and_optiga_using_pre_shared_secret.c
  30:C:/Workspace/DAVE-4.4.2-64Bit/optiga-trust-m/examples/optiga/usecases\example_pair_host_and_optiga_using_pre_shared_secret.c **** *
  31:C:/Workspace/DAVE-4.4.2-64Bit/optiga-trust-m/examples/optiga/usecases\example_pair_host_and_optiga_using_pre_shared_secret.c **** * \brief   This file provides an example for pairing the Host and OPTIGA using a preshared secret.
  32:C:/Workspace/DAVE-4.4.2-64Bit/optiga-trust-m/examples/optiga/usecases\example_pair_host_and_optiga_using_pre_shared_secret.c **** *
  33:C:/Workspace/DAVE-4.4.2-64Bit/optiga-trust-m/examples/optiga/usecases\example_pair_host_and_optiga_using_pre_shared_secret.c **** * \ingroup grUseCases
  34:C:/Workspace/DAVE-4.4.2-64Bit/optiga-trust-m/examples/optiga/usecases\example_pair_host_and_optiga_using_pre_shared_secret.c **** *
  35:C:/Workspace/DAVE-4.4.2-64Bit/optiga-trust-m/examples/optiga/usecases\example_pair_host_and_optiga_using_pre_shared_secret.c **** * @{
  36:C:/Workspace/DAVE-4.4.2-64Bit/optiga-trust-m/examples/optiga/usecases\example_pair_host_and_optiga_using_pre_shared_secret.c **** */
  37:C:/Workspace/DAVE-4.4.2-64Bit/optiga-trust-m/examples/optiga/usecases\example_pair_host_and_optiga_using_pre_shared_secret.c **** 
  38:C:/Workspace/DAVE-4.4.2-64Bit/optiga-trust-m/examples/optiga/usecases\example_pair_host_and_optiga_using_pre_shared_secret.c **** #include "optiga/optiga_util.h"
  39:C:/Workspace/DAVE-4.4.2-64Bit/optiga-trust-m/examples/optiga/usecases\example_pair_host_and_optiga_using_pre_shared_secret.c **** #include "optiga/optiga_crypt.h"
  40:C:/Workspace/DAVE-4.4.2-64Bit/optiga-trust-m/examples/optiga/usecases\example_pair_host_and_optiga_using_pre_shared_secret.c **** 
  41:C:/Workspace/DAVE-4.4.2-64Bit/optiga-trust-m/examples/optiga/usecases\example_pair_host_and_optiga_using_pre_shared_secret.c **** #include "optiga/pal/pal_os_datastore.h"
  42:C:/Workspace/DAVE-4.4.2-64Bit/optiga-trust-m/examples/optiga/usecases\example_pair_host_and_optiga_using_pre_shared_secret.c **** #include "optiga_example.h"
  43:C:/Workspace/DAVE-4.4.2-64Bit/optiga-trust-m/examples/optiga/usecases\example_pair_host_and_optiga_using_pre_shared_secret.c **** 
  44:C:/Workspace/DAVE-4.4.2-64Bit/optiga-trust-m/examples/optiga/usecases\example_pair_host_and_optiga_using_pre_shared_secret.c **** //Currently set to Initialization state. At the real time / customer side this needs to be OPERATIO
  45:C:/Workspace/DAVE-4.4.2-64Bit/optiga-trust-m/examples/optiga/usecases\example_pair_host_and_optiga_using_pre_shared_secret.c **** #define LCSO_STATE_FINAL          0x03
  46:C:/Workspace/DAVE-4.4.2-64Bit/optiga-trust-m/examples/optiga/usecases\example_pair_host_and_optiga_using_pre_shared_secret.c **** 
  47:C:/Workspace/DAVE-4.4.2-64Bit/optiga-trust-m/examples/optiga/usecases\example_pair_host_and_optiga_using_pre_shared_secret.c **** // Value of Operational state
  48:C:/Workspace/DAVE-4.4.2-64Bit/optiga-trust-m/examples/optiga/usecases\example_pair_host_and_optiga_using_pre_shared_secret.c **** #define LCSO_STATE_OPERATIONAL    0x07
  49:C:/Workspace/DAVE-4.4.2-64Bit/optiga-trust-m/examples/optiga/usecases\example_pair_host_and_optiga_using_pre_shared_secret.c **** 
  50:C:/Workspace/DAVE-4.4.2-64Bit/optiga-trust-m/examples/optiga/usecases\example_pair_host_and_optiga_using_pre_shared_secret.c **** /* Platform Binding Shared Secret (0xE140) Metadata to be updated */
  51:C:/Workspace/DAVE-4.4.2-64Bit/optiga-trust-m/examples/optiga/usecases\example_pair_host_and_optiga_using_pre_shared_secret.c **** 
  52:C:/Workspace/DAVE-4.4.2-64Bit/optiga-trust-m/examples/optiga/usecases\example_pair_host_and_optiga_using_pre_shared_secret.c ****     uint8_t platform_binding_shared_secret_metadata_final [] = {
  53:C:/Workspace/DAVE-4.4.2-64Bit/optiga-trust-m/examples/optiga/usecases\example_pair_host_and_optiga_using_pre_shared_secret.c ****         //Metadata to be updated
  54:C:/Workspace/DAVE-4.4.2-64Bit/optiga-trust-m/examples/optiga/usecases\example_pair_host_and_optiga_using_pre_shared_secret.c ****         0x20, 0x17,
  55:C:/Workspace/DAVE-4.4.2-64Bit/optiga-trust-m/examples/optiga/usecases\example_pair_host_and_optiga_using_pre_shared_secret.c **** 		    // LcsO
  56:C:/Workspace/DAVE-4.4.2-64Bit/optiga-trust-m/examples/optiga/usecases\example_pair_host_and_optiga_using_pre_shared_secret.c ****             0xC0, 0x01,
  57:C:/Workspace/DAVE-4.4.2-64Bit/optiga-trust-m/examples/optiga/usecases\example_pair_host_and_optiga_using_pre_shared_secret.c ****                         LCSO_STATE_FINAL,       // Refer Macro to see the value or some more notes
  58:C:/Workspace/DAVE-4.4.2-64Bit/optiga-trust-m/examples/optiga/usecases\example_pair_host_and_optiga_using_pre_shared_secret.c **** 			// Change/Write Access tag
  59:C:/Workspace/DAVE-4.4.2-64Bit/optiga-trust-m/examples/optiga/usecases\example_pair_host_and_optiga_using_pre_shared_secret.c **** 			0xD0, 0x07,
  60:C:/Workspace/DAVE-4.4.2-64Bit/optiga-trust-m/examples/optiga/usecases\example_pair_host_and_optiga_using_pre_shared_secret.c ****                         // This allows updating the binding secret during the runtime using shielde
  61:C:/Workspace/DAVE-4.4.2-64Bit/optiga-trust-m/examples/optiga/usecases\example_pair_host_and_optiga_using_pre_shared_secret.c ****                         // If not required to update the secret over the runtime, set this to NEV a
  62:C:/Workspace/DAVE-4.4.2-64Bit/optiga-trust-m/examples/optiga/usecases\example_pair_host_and_optiga_using_pre_shared_secret.c ****                         // update Metadata length accordingly
  63:C:/Workspace/DAVE-4.4.2-64Bit/optiga-trust-m/examples/optiga/usecases\example_pair_host_and_optiga_using_pre_shared_secret.c ****                         0xE1, 0xFC, LCSO_STATE_OPERATIONAL,   // LcsO < Operational state
  64:C:/Workspace/DAVE-4.4.2-64Bit/optiga-trust-m/examples/optiga/usecases\example_pair_host_and_optiga_using_pre_shared_secret.c **** 						0xFE,
  65:C:/Workspace/DAVE-4.4.2-64Bit/optiga-trust-m/examples/optiga/usecases\example_pair_host_and_optiga_using_pre_shared_secret.c **** 						0x20, 0xE1, 0x40,
  66:C:/Workspace/DAVE-4.4.2-64Bit/optiga-trust-m/examples/optiga/usecases\example_pair_host_and_optiga_using_pre_shared_secret.c **** 			// Read Access tag
  67:C:/Workspace/DAVE-4.4.2-64Bit/optiga-trust-m/examples/optiga/usecases\example_pair_host_and_optiga_using_pre_shared_secret.c **** 			0xD1, 0x03,
  68:C:/Workspace/DAVE-4.4.2-64Bit/optiga-trust-m/examples/optiga/usecases\example_pair_host_and_optiga_using_pre_shared_secret.c ****                         0xE1, 0xFC, LCSO_STATE_OPERATIONAL,   // LcsO < Operational state
  69:C:/Workspace/DAVE-4.4.2-64Bit/optiga-trust-m/examples/optiga/usecases\example_pair_host_and_optiga_using_pre_shared_secret.c ****             // Execute Access tag
  70:C:/Workspace/DAVE-4.4.2-64Bit/optiga-trust-m/examples/optiga/usecases\example_pair_host_and_optiga_using_pre_shared_secret.c **** 			0xD3, 0x01,
  71:C:/Workspace/DAVE-4.4.2-64Bit/optiga-trust-m/examples/optiga/usecases\example_pair_host_and_optiga_using_pre_shared_secret.c ****                         0x00,   // Always
  72:C:/Workspace/DAVE-4.4.2-64Bit/optiga-trust-m/examples/optiga/usecases\example_pair_host_and_optiga_using_pre_shared_secret.c **** 		    // Data object Type
  73:C:/Workspace/DAVE-4.4.2-64Bit/optiga-trust-m/examples/optiga/usecases\example_pair_host_and_optiga_using_pre_shared_secret.c ****             0xE8, 0x01,
  74:C:/Workspace/DAVE-4.4.2-64Bit/optiga-trust-m/examples/optiga/usecases\example_pair_host_and_optiga_using_pre_shared_secret.c ****                         0x22,   // Platform binding secret type
  75:C:/Workspace/DAVE-4.4.2-64Bit/optiga-trust-m/examples/optiga/usecases\example_pair_host_and_optiga_using_pre_shared_secret.c ****     };
  76:C:/Workspace/DAVE-4.4.2-64Bit/optiga-trust-m/examples/optiga/usecases\example_pair_host_and_optiga_using_pre_shared_secret.c **** 
  77:C:/Workspace/DAVE-4.4.2-64Bit/optiga-trust-m/examples/optiga/usecases\example_pair_host_and_optiga_using_pre_shared_secret.c **** /**
  78:C:/Workspace/DAVE-4.4.2-64Bit/optiga-trust-m/examples/optiga/usecases\example_pair_host_and_optiga_using_pre_shared_secret.c ****  * Callback when optiga_util_xxxx/optiga_crypt_xxxx operation is completed asynchronously
  79:C:/Workspace/DAVE-4.4.2-64Bit/optiga-trust-m/examples/optiga/usecases\example_pair_host_and_optiga_using_pre_shared_secret.c ****  */
  80:C:/Workspace/DAVE-4.4.2-64Bit/optiga-trust-m/examples/optiga/usecases\example_pair_host_and_optiga_using_pre_shared_secret.c **** static volatile optiga_lib_status_t optiga_lib_status;
  81:C:/Workspace/DAVE-4.4.2-64Bit/optiga-trust-m/examples/optiga/usecases\example_pair_host_and_optiga_using_pre_shared_secret.c **** //lint --e{818} suppress "argument "context" is not used in the sample provided"
  82:C:/Workspace/DAVE-4.4.2-64Bit/optiga-trust-m/examples/optiga/usecases\example_pair_host_and_optiga_using_pre_shared_secret.c **** static void optiga_lib_callback(void * context, optiga_lib_status_t return_status)
  83:C:/Workspace/DAVE-4.4.2-64Bit/optiga-trust-m/examples/optiga/usecases\example_pair_host_and_optiga_using_pre_shared_secret.c **** {
  25              	 .loc 1 83 0
  26              	 .cfi_startproc
  27              	.LVL0:
  84:C:/Workspace/DAVE-4.4.2-64Bit/optiga-trust-m/examples/optiga/usecases\example_pair_host_and_optiga_using_pre_shared_secret.c ****     optiga_lib_status = return_status;
  28              	 .loc 1 84 0
  29 0000 014B     	 ldr r3,.L2
  85:C:/Workspace/DAVE-4.4.2-64Bit/optiga-trust-m/examples/optiga/usecases\example_pair_host_and_optiga_using_pre_shared_secret.c ****     if (NULL != context)
  86:C:/Workspace/DAVE-4.4.2-64Bit/optiga-trust-m/examples/optiga/usecases\example_pair_host_and_optiga_using_pre_shared_secret.c ****     {
  87:C:/Workspace/DAVE-4.4.2-64Bit/optiga-trust-m/examples/optiga/usecases\example_pair_host_and_optiga_using_pre_shared_secret.c ****         // callback to upper layer here
  88:C:/Workspace/DAVE-4.4.2-64Bit/optiga-trust-m/examples/optiga/usecases\example_pair_host_and_optiga_using_pre_shared_secret.c ****     }
  89:C:/Workspace/DAVE-4.4.2-64Bit/optiga-trust-m/examples/optiga/usecases\example_pair_host_and_optiga_using_pre_shared_secret.c **** }
  30              	 .loc 1 89 0
  31              	 
  84:C:/Workspace/DAVE-4.4.2-64Bit/optiga-trust-m/examples/optiga/usecases\example_pair_host_and_optiga_using_pre_shared_secret.c ****     optiga_lib_status = return_status;
  32              	 .loc 1 84 0
  33 0002 1980     	 strh r1,[r3]
  34              	 .loc 1 89 0
  35 0004 7047     	 bx lr
  36              	.L3:
  37 0006 C046     	 .align 2
  38              	.L2:
  39 0008 00000000 	 .word .LANCHOR0
  40              	 .cfi_endproc
  41              	.LFE0:
  43              	 .section .text.example_pair_host_and_optiga_using_pre_shared_secret,"ax",%progbits
  44              	 .align 1
  45              	 .global example_pair_host_and_optiga_using_pre_shared_secret
  46              	 .code 16
  47              	 .thumb_func
  49              	example_pair_host_and_optiga_using_pre_shared_secret:
  50              	.LFB1:
  90:C:/Workspace/DAVE-4.4.2-64Bit/optiga-trust-m/examples/optiga/usecases\example_pair_host_and_optiga_using_pre_shared_secret.c **** 
  91:C:/Workspace/DAVE-4.4.2-64Bit/optiga-trust-m/examples/optiga/usecases\example_pair_host_and_optiga_using_pre_shared_secret.c **** /**
  92:C:/Workspace/DAVE-4.4.2-64Bit/optiga-trust-m/examples/optiga/usecases\example_pair_host_and_optiga_using_pre_shared_secret.c ****  * The below example demonstrates pairing the Host and OPTIGA using a preshared secret for the firs
  93:C:/Workspace/DAVE-4.4.2-64Bit/optiga-trust-m/examples/optiga/usecases\example_pair_host_and_optiga_using_pre_shared_secret.c ****  *
  94:C:/Workspace/DAVE-4.4.2-64Bit/optiga-trust-m/examples/optiga/usecases\example_pair_host_and_optiga_using_pre_shared_secret.c ****  * Note:
  95:C:/Workspace/DAVE-4.4.2-64Bit/optiga-trust-m/examples/optiga/usecases\example_pair_host_and_optiga_using_pre_shared_secret.c ****  *   1) If the below example is executed once, the LcsO of Platform Binding shared secret is set to
  96:C:/Workspace/DAVE-4.4.2-64Bit/optiga-trust-m/examples/optiga/usecases\example_pair_host_and_optiga_using_pre_shared_secret.c ****  *      The LcsO can't be reverted to previous states.
  97:C:/Workspace/DAVE-4.4.2-64Bit/optiga-trust-m/examples/optiga/usecases\example_pair_host_and_optiga_using_pre_shared_secret.c ****  *
  98:C:/Workspace/DAVE-4.4.2-64Bit/optiga-trust-m/examples/optiga/usecases\example_pair_host_and_optiga_using_pre_shared_secret.c ****  *      Please ensure the access conditions and other required settings in the metadata must be acc
  99:C:/Workspace/DAVE-4.4.2-64Bit/optiga-trust-m/examples/optiga/usecases\example_pair_host_and_optiga_using_pre_shared_secret.c ****  *      before setting the LcsO to Initialization state.
 100:C:/Workspace/DAVE-4.4.2-64Bit/optiga-trust-m/examples/optiga/usecases\example_pair_host_and_optiga_using_pre_shared_secret.c ****  *
 101:C:/Workspace/DAVE-4.4.2-64Bit/optiga-trust-m/examples/optiga/usecases\example_pair_host_and_optiga_using_pre_shared_secret.c ****  *   2) The metadata gets written in this example is just an example. The user must update this to 
 102:C:/Workspace/DAVE-4.4.2-64Bit/optiga-trust-m/examples/optiga/usecases\example_pair_host_and_optiga_using_pre_shared_secret.c ****  *      needs including LcsO state and access conditions
 103:C:/Workspace/DAVE-4.4.2-64Bit/optiga-trust-m/examples/optiga/usecases\example_pair_host_and_optiga_using_pre_shared_secret.c ****  *
 104:C:/Workspace/DAVE-4.4.2-64Bit/optiga-trust-m/examples/optiga/usecases\example_pair_host_and_optiga_using_pre_shared_secret.c ****  * Preconditions: The optiga_util_open_application must be executed before invoking the below examp
 105:C:/Workspace/DAVE-4.4.2-64Bit/optiga-trust-m/examples/optiga/usecases\example_pair_host_and_optiga_using_pre_shared_secret.c ****  *
 106:C:/Workspace/DAVE-4.4.2-64Bit/optiga-trust-m/examples/optiga/usecases\example_pair_host_and_optiga_using_pre_shared_secret.c ****  */
 107:C:/Workspace/DAVE-4.4.2-64Bit/optiga-trust-m/examples/optiga/usecases\example_pair_host_and_optiga_using_pre_shared_secret.c **** void example_pair_host_and_optiga_using_pre_shared_secret(void)
 108:C:/Workspace/DAVE-4.4.2-64Bit/optiga-trust-m/examples/optiga/usecases\example_pair_host_and_optiga_using_pre_shared_secret.c **** {
  51              	 .loc 1 108 0
  52              	 .cfi_startproc
  53              	.LVL1:
  54 0000 F0B5     	 push {r4,r5,r6,r7,lr}
  55              	.LCFI0:
  56              	 .cfi_def_cfa_offset 20
  57              	 .cfi_offset 4,-20
  58              	 .cfi_offset 5,-16
  59              	 .cfi_offset 6,-12
  60              	 .cfi_offset 7,-8
  61              	 .cfi_offset 14,-4
 109:C:/Workspace/DAVE-4.4.2-64Bit/optiga-trust-m/examples/optiga/usecases\example_pair_host_and_optiga_using_pre_shared_secret.c ****     uint16_t bytes_to_read;
 110:C:/Workspace/DAVE-4.4.2-64Bit/optiga-trust-m/examples/optiga/usecases\example_pair_host_and_optiga_using_pre_shared_secret.c ****     uint8_t platform_binding_secret[64];
 111:C:/Workspace/DAVE-4.4.2-64Bit/optiga-trust-m/examples/optiga/usecases\example_pair_host_and_optiga_using_pre_shared_secret.c ****     uint8_t platform_binding_secret_metadata[44];
 112:C:/Workspace/DAVE-4.4.2-64Bit/optiga-trust-m/examples/optiga/usecases\example_pair_host_and_optiga_using_pre_shared_secret.c ****     optiga_lib_status_t return_status = 0;
 113:C:/Workspace/DAVE-4.4.2-64Bit/optiga-trust-m/examples/optiga/usecases\example_pair_host_and_optiga_using_pre_shared_secret.c ****     pal_status_t pal_return_status;
 114:C:/Workspace/DAVE-4.4.2-64Bit/optiga-trust-m/examples/optiga/usecases\example_pair_host_and_optiga_using_pre_shared_secret.c ****     optiga_util_t * me_util = NULL;
 115:C:/Workspace/DAVE-4.4.2-64Bit/optiga-trust-m/examples/optiga/usecases\example_pair_host_and_optiga_using_pre_shared_secret.c ****     optiga_crypt_t * me_crypt = NULL;
 116:C:/Workspace/DAVE-4.4.2-64Bit/optiga-trust-m/examples/optiga/usecases\example_pair_host_and_optiga_using_pre_shared_secret.c **** 
 117:C:/Workspace/DAVE-4.4.2-64Bit/optiga-trust-m/examples/optiga/usecases\example_pair_host_and_optiga_using_pre_shared_secret.c ****     OPTIGA_EXAMPLE_LOG_MESSAGE(__FUNCTION__);
  62              	 .loc 1 117 0
  63 0002 594F     	 ldr r7,.L51
  64 0004 594E     	 ldr r6,.L51+4
 108:C:/Workspace/DAVE-4.4.2-64Bit/optiga-trust-m/examples/optiga/usecases\example_pair_host_and_optiga_using_pre_shared_secret.c ****     uint16_t bytes_to_read;
  65              	 .loc 1 108 0
  66 0006 A1B0     	 sub sp,sp,#132
  67              	.LCFI1:
  68              	 .cfi_def_cfa_offset 152
  69              	 .loc 1 117 0
  70 0008 5948     	 ldr r0,.L51+8
  71 000a 391C     	 mov r1,r7
  72 000c 321C     	 mov r2,r6
  73 000e FFF7FEFF 	 bl optiga_lib_print_message
  74              	.LVL2:
 118:C:/Workspace/DAVE-4.4.2-64Bit/optiga-trust-m/examples/optiga/usecases\example_pair_host_and_optiga_using_pre_shared_secret.c **** 
 119:C:/Workspace/DAVE-4.4.2-64Bit/optiga-trust-m/examples/optiga/usecases\example_pair_host_and_optiga_using_pre_shared_secret.c ****     do
 120:C:/Workspace/DAVE-4.4.2-64Bit/optiga-trust-m/examples/optiga/usecases\example_pair_host_and_optiga_using_pre_shared_secret.c ****     {
 121:C:/Workspace/DAVE-4.4.2-64Bit/optiga-trust-m/examples/optiga/usecases\example_pair_host_and_optiga_using_pre_shared_secret.c ****         /**
 122:C:/Workspace/DAVE-4.4.2-64Bit/optiga-trust-m/examples/optiga/usecases\example_pair_host_and_optiga_using_pre_shared_secret.c ****          * 1. Create OPTIGA Util and Crypt Instances
 123:C:/Workspace/DAVE-4.4.2-64Bit/optiga-trust-m/examples/optiga/usecases\example_pair_host_and_optiga_using_pre_shared_secret.c ****          */
 124:C:/Workspace/DAVE-4.4.2-64Bit/optiga-trust-m/examples/optiga/usecases\example_pair_host_and_optiga_using_pre_shared_secret.c ****         me_util = optiga_util_create(0, optiga_lib_callback, NULL);
  75              	 .loc 1 124 0
  76 0012 0020     	 mov r0,#0
  77 0014 574C     	 ldr r4,.L51+12
  78 0016 021C     	 mov r2,r0
  79 0018 211C     	 mov r1,r4
  80 001a FFF7FEFF 	 bl optiga_util_create
  81              	.LVL3:
  82 001e 0297     	 str r7,[sp,#8]
  83 0020 051E     	 sub r5,r0,#0
  84              	.LVL4:
  85 0022 0396     	 str r6,[sp,#12]
 125:C:/Workspace/DAVE-4.4.2-64Bit/optiga-trust-m/examples/optiga/usecases\example_pair_host_and_optiga_using_pre_shared_secret.c ****         if (NULL == me_util)
  86              	 .loc 1 125 0
  87 0024 00D1     	 bne .LCB56
  88 0026 81E0     	 b .L5
  89              	.LCB56:
 126:C:/Workspace/DAVE-4.4.2-64Bit/optiga-trust-m/examples/optiga/usecases\example_pair_host_and_optiga_using_pre_shared_secret.c ****         {
 127:C:/Workspace/DAVE-4.4.2-64Bit/optiga-trust-m/examples/optiga/usecases\example_pair_host_and_optiga_using_pre_shared_secret.c ****             break;
 128:C:/Workspace/DAVE-4.4.2-64Bit/optiga-trust-m/examples/optiga/usecases\example_pair_host_and_optiga_using_pre_shared_secret.c ****         }
 129:C:/Workspace/DAVE-4.4.2-64Bit/optiga-trust-m/examples/optiga/usecases\example_pair_host_and_optiga_using_pre_shared_secret.c **** 
 130:C:/Workspace/DAVE-4.4.2-64Bit/optiga-trust-m/examples/optiga/usecases\example_pair_host_and_optiga_using_pre_shared_secret.c ****         me_crypt = optiga_crypt_create(0, optiga_lib_callback, NULL);
  90              	 .loc 1 130 0
  91 0028 0020     	 mov r0,#0
  92              	.LVL5:
  93 002a 211C     	 mov r1,r4
  94 002c 021C     	 mov r2,r0
  95 002e FFF7FEFF 	 bl optiga_crypt_create
  96              	.LVL6:
  97 0032 061E     	 sub r6,r0,#0
  98              	.LVL7:
 131:C:/Workspace/DAVE-4.4.2-64Bit/optiga-trust-m/examples/optiga/usecases\example_pair_host_and_optiga_using_pre_shared_secret.c ****         if (NULL == me_crypt)
  99              	 .loc 1 131 0
 100 0034 00D1     	 bne .LCB66
 101 0036 79E0     	 b .L5
 102              	.LCB66:
 132:C:/Workspace/DAVE-4.4.2-64Bit/optiga-trust-m/examples/optiga/usecases\example_pair_host_and_optiga_using_pre_shared_secret.c ****         {
 133:C:/Workspace/DAVE-4.4.2-64Bit/optiga-trust-m/examples/optiga/usecases\example_pair_host_and_optiga_using_pre_shared_secret.c ****             break;
 134:C:/Workspace/DAVE-4.4.2-64Bit/optiga-trust-m/examples/optiga/usecases\example_pair_host_and_optiga_using_pre_shared_secret.c ****         }
 135:C:/Workspace/DAVE-4.4.2-64Bit/optiga-trust-m/examples/optiga/usecases\example_pair_host_and_optiga_using_pre_shared_secret.c **** 
 136:C:/Workspace/DAVE-4.4.2-64Bit/optiga-trust-m/examples/optiga/usecases\example_pair_host_and_optiga_using_pre_shared_secret.c ****         /**
 137:C:/Workspace/DAVE-4.4.2-64Bit/optiga-trust-m/examples/optiga/usecases\example_pair_host_and_optiga_using_pre_shared_secret.c ****          * 2. Initialize the protection level and protocol version for the instances
 138:C:/Workspace/DAVE-4.4.2-64Bit/optiga-trust-m/examples/optiga/usecases\example_pair_host_and_optiga_using_pre_shared_secret.c ****          */
 139:C:/Workspace/DAVE-4.4.2-64Bit/optiga-trust-m/examples/optiga/usecases\example_pair_host_and_optiga_using_pre_shared_secret.c ****         OPTIGA_UTIL_SET_COMMS_PROTECTION_LEVEL(me_util,OPTIGA_COMMS_NO_PROTECTION);
 103              	 .loc 1 139 0
 104 0038 281C     	 mov r0,r5
 105              	.LVL8:
 106 003a 0121     	 mov r1,#1
 107 003c 0022     	 mov r2,#0
 108 003e FFF7FEFF 	 bl optiga_util_set_comms_params
 109              	.LVL9:
 140:C:/Workspace/DAVE-4.4.2-64Bit/optiga-trust-m/examples/optiga/usecases\example_pair_host_and_optiga_using_pre_shared_secret.c ****         OPTIGA_UTIL_SET_COMMS_PROTOCOL_VERSION(me_util,OPTIGA_COMMS_PROTOCOL_VERSION_PRE_SHARED_SEC
 110              	 .loc 1 140 0
 111 0042 281C     	 mov r0,r5
 112 0044 0221     	 mov r1,#2
 113 0046 0122     	 mov r2,#1
 114 0048 FFF7FEFF 	 bl optiga_util_set_comms_params
 115              	.LVL10:
 141:C:/Workspace/DAVE-4.4.2-64Bit/optiga-trust-m/examples/optiga/usecases\example_pair_host_and_optiga_using_pre_shared_secret.c **** 
 142:C:/Workspace/DAVE-4.4.2-64Bit/optiga-trust-m/examples/optiga/usecases\example_pair_host_and_optiga_using_pre_shared_secret.c ****         OPTIGA_CRYPT_SET_COMMS_PROTECTION_LEVEL(me_crypt,OPTIGA_COMMS_NO_PROTECTION);
 116              	 .loc 1 142 0
 117 004c 301C     	 mov r0,r6
 118 004e 0121     	 mov r1,#1
 119 0050 0022     	 mov r2,#0
 120 0052 FFF7FEFF 	 bl optiga_crypt_set_comms_params
 121              	.LVL11:
 143:C:/Workspace/DAVE-4.4.2-64Bit/optiga-trust-m/examples/optiga/usecases\example_pair_host_and_optiga_using_pre_shared_secret.c ****         OPTIGA_CRYPT_SET_COMMS_PROTOCOL_VERSION(me_crypt,OPTIGA_COMMS_PROTOCOL_VERSION_PRE_SHARED_S
 122              	 .loc 1 143 0
 123 0056 301C     	 mov r0,r6
 124 0058 0221     	 mov r1,#2
 125 005a 0122     	 mov r2,#1
 126 005c FFF7FEFF 	 bl optiga_crypt_set_comms_params
 127              	.LVL12:
 144:C:/Workspace/DAVE-4.4.2-64Bit/optiga-trust-m/examples/optiga/usecases\example_pair_host_and_optiga_using_pre_shared_secret.c **** 
 145:C:/Workspace/DAVE-4.4.2-64Bit/optiga-trust-m/examples/optiga/usecases\example_pair_host_and_optiga_using_pre_shared_secret.c ****         /**
 146:C:/Workspace/DAVE-4.4.2-64Bit/optiga-trust-m/examples/optiga/usecases\example_pair_host_and_optiga_using_pre_shared_secret.c ****          * 3. Read Platform Binding Shared secret (0xE140) data object metadata from OPTIGA
 147:C:/Workspace/DAVE-4.4.2-64Bit/optiga-trust-m/examples/optiga/usecases\example_pair_host_and_optiga_using_pre_shared_secret.c ****          *    using optiga_util_read_metadata.
 148:C:/Workspace/DAVE-4.4.2-64Bit/optiga-trust-m/examples/optiga/usecases\example_pair_host_and_optiga_using_pre_shared_secret.c ****          */
 149:C:/Workspace/DAVE-4.4.2-64Bit/optiga-trust-m/examples/optiga/usecases\example_pair_host_and_optiga_using_pre_shared_secret.c ****         bytes_to_read = sizeof(platform_binding_secret_metadata);
 128              	 .loc 1 149 0
 129 0060 0A23     	 mov r3,#10
 130 0062 02AA     	 add r2,sp,#8
 131 0064 9B18     	 add r3,r3,r2
 132 0066 2C22     	 mov r2,#44
 150:C:/Workspace/DAVE-4.4.2-64Bit/optiga-trust-m/examples/optiga/usecases\example_pair_host_and_optiga_using_pre_shared_secret.c ****         optiga_lib_status = OPTIGA_LIB_BUSY;
 133              	 .loc 1 150 0
 134 0068 434C     	 ldr r4,.L51+16
 149:C:/Workspace/DAVE-4.4.2-64Bit/optiga-trust-m/examples/optiga/usecases\example_pair_host_and_optiga_using_pre_shared_secret.c ****         optiga_lib_status = OPTIGA_LIB_BUSY;
 135              	 .loc 1 149 0
 136 006a 1A80     	 strh r2,[r3]
 151:C:/Workspace/DAVE-4.4.2-64Bit/optiga-trust-m/examples/optiga/usecases\example_pair_host_and_optiga_using_pre_shared_secret.c ****         return_status = optiga_util_read_metadata(me_util,
 137              	 .loc 1 151 0
 138 006c 05AF     	 add r7,sp,#20
 150:C:/Workspace/DAVE-4.4.2-64Bit/optiga-trust-m/examples/optiga/usecases\example_pair_host_and_optiga_using_pre_shared_secret.c ****         optiga_lib_status = OPTIGA_LIB_BUSY;
 139              	 .loc 1 150 0
 140 006e 2B3A     	 sub r2,r2,#43
 141 0070 2280     	 strh r2,[r4]
 142              	 .loc 1 151 0
 143 0072 281C     	 mov r0,r5
 144 0074 3A1C     	 mov r2,r7
 145 0076 4149     	 ldr r1,.L51+20
 146 0078 FFF7FEFF 	 bl optiga_util_read_metadata
 147              	.LVL13:
 148 007c 021E     	 sub r2,r0,#0
 149              	.LVL14:
 152:C:/Workspace/DAVE-4.4.2-64Bit/optiga-trust-m/examples/optiga/usecases\example_pair_host_and_optiga_using_pre_shared_secret.c ****                                                   0xE140,
 153:C:/Workspace/DAVE-4.4.2-64Bit/optiga-trust-m/examples/optiga/usecases\example_pair_host_and_optiga_using_pre_shared_secret.c ****                                                   platform_binding_secret_metadata,
 154:C:/Workspace/DAVE-4.4.2-64Bit/optiga-trust-m/examples/optiga/usecases\example_pair_host_and_optiga_using_pre_shared_secret.c ****                                                   &bytes_to_read);
 155:C:/Workspace/DAVE-4.4.2-64Bit/optiga-trust-m/examples/optiga/usecases\example_pair_host_and_optiga_using_pre_shared_secret.c **** 
 156:C:/Workspace/DAVE-4.4.2-64Bit/optiga-trust-m/examples/optiga/usecases\example_pair_host_and_optiga_using_pre_shared_secret.c ****         if (OPTIGA_LIB_SUCCESS != return_status)
 150              	 .loc 1 156 0
 151 007e 50D1     	 bne .L23
 152              	.L7:
 157:C:/Workspace/DAVE-4.4.2-64Bit/optiga-trust-m/examples/optiga/usecases\example_pair_host_and_optiga_using_pre_shared_secret.c ****         {
 158:C:/Workspace/DAVE-4.4.2-64Bit/optiga-trust-m/examples/optiga/usecases\example_pair_host_and_optiga_using_pre_shared_secret.c ****             break;
 159:C:/Workspace/DAVE-4.4.2-64Bit/optiga-trust-m/examples/optiga/usecases\example_pair_host_and_optiga_using_pre_shared_secret.c ****         }
 160:C:/Workspace/DAVE-4.4.2-64Bit/optiga-trust-m/examples/optiga/usecases\example_pair_host_and_optiga_using_pre_shared_secret.c **** 
 161:C:/Workspace/DAVE-4.4.2-64Bit/optiga-trust-m/examples/optiga/usecases\example_pair_host_and_optiga_using_pre_shared_secret.c ****         while (optiga_lib_status == OPTIGA_LIB_BUSY)
 153              	 .loc 1 161 0 discriminator 1
 154 0080 2388     	 ldrh r3,[r4]
 155 0082 012B     	 cmp r3,#1
 156 0084 FCD0     	 beq .L7
 162:C:/Workspace/DAVE-4.4.2-64Bit/optiga-trust-m/examples/optiga/usecases\example_pair_host_and_optiga_using_pre_shared_secret.c ****         {
 163:C:/Workspace/DAVE-4.4.2-64Bit/optiga-trust-m/examples/optiga/usecases\example_pair_host_and_optiga_using_pre_shared_secret.c ****             //Wait until the optiga_util_read_metadata operation is completed
 164:C:/Workspace/DAVE-4.4.2-64Bit/optiga-trust-m/examples/optiga/usecases\example_pair_host_and_optiga_using_pre_shared_secret.c ****         }
 165:C:/Workspace/DAVE-4.4.2-64Bit/optiga-trust-m/examples/optiga/usecases\example_pair_host_and_optiga_using_pre_shared_secret.c **** 
 166:C:/Workspace/DAVE-4.4.2-64Bit/optiga-trust-m/examples/optiga/usecases\example_pair_host_and_optiga_using_pre_shared_secret.c ****         if (OPTIGA_LIB_SUCCESS != optiga_lib_status)
 157              	 .loc 1 166 0
 158 0086 2188     	 ldrh r1,[r4]
 159 0088 89B2     	 uxth r1,r1
 160 008a 0029     	 cmp r1,#0
 161 008c 45D1     	 bne .L49
 167:C:/Workspace/DAVE-4.4.2-64Bit/optiga-trust-m/examples/optiga/usecases\example_pair_host_and_optiga_using_pre_shared_secret.c ****         {
 168:C:/Workspace/DAVE-4.4.2-64Bit/optiga-trust-m/examples/optiga/usecases\example_pair_host_and_optiga_using_pre_shared_secret.c ****             //Reading metadata data object failed.
 169:C:/Workspace/DAVE-4.4.2-64Bit/optiga-trust-m/examples/optiga/usecases\example_pair_host_and_optiga_using_pre_shared_secret.c ****             return_status = optiga_lib_status;
 170:C:/Workspace/DAVE-4.4.2-64Bit/optiga-trust-m/examples/optiga/usecases\example_pair_host_and_optiga_using_pre_shared_secret.c ****             break;
 171:C:/Workspace/DAVE-4.4.2-64Bit/optiga-trust-m/examples/optiga/usecases\example_pair_host_and_optiga_using_pre_shared_secret.c ****         }
 172:C:/Workspace/DAVE-4.4.2-64Bit/optiga-trust-m/examples/optiga/usecases\example_pair_host_and_optiga_using_pre_shared_secret.c **** 
 173:C:/Workspace/DAVE-4.4.2-64Bit/optiga-trust-m/examples/optiga/usecases\example_pair_host_and_optiga_using_pre_shared_secret.c ****         /**
 174:C:/Workspace/DAVE-4.4.2-64Bit/optiga-trust-m/examples/optiga/usecases\example_pair_host_and_optiga_using_pre_shared_secret.c ****          * 4. Validate LcsO in the metadata.
 175:C:/Workspace/DAVE-4.4.2-64Bit/optiga-trust-m/examples/optiga/usecases\example_pair_host_and_optiga_using_pre_shared_secret.c ****          *    Skip the rest of the procedure if LcsO is greater than or equal to operational state(
 176:C:/Workspace/DAVE-4.4.2-64Bit/optiga-trust-m/examples/optiga/usecases\example_pair_host_and_optiga_using_pre_shared_secret.c ****          */
 177:C:/Workspace/DAVE-4.4.2-64Bit/optiga-trust-m/examples/optiga/usecases\example_pair_host_and_optiga_using_pre_shared_secret.c ****         if (platform_binding_secret_metadata[4] >= LCSO_STATE_OPERATIONAL)
 162              	 .loc 1 177 0
 163 008e 3B79     	 ldrb r3,[r7,#4]
 164 0090 062B     	 cmp r3,#6
 165 0092 4CD8     	 bhi .L17
 178:C:/Workspace/DAVE-4.4.2-64Bit/optiga-trust-m/examples/optiga/usecases\example_pair_host_and_optiga_using_pre_shared_secret.c ****         {
 179:C:/Workspace/DAVE-4.4.2-64Bit/optiga-trust-m/examples/optiga/usecases\example_pair_host_and_optiga_using_pre_shared_secret.c ****             // The LcsO is already greater than or equal to operational state
 180:C:/Workspace/DAVE-4.4.2-64Bit/optiga-trust-m/examples/optiga/usecases\example_pair_host_and_optiga_using_pre_shared_secret.c ****             break;
 181:C:/Workspace/DAVE-4.4.2-64Bit/optiga-trust-m/examples/optiga/usecases\example_pair_host_and_optiga_using_pre_shared_secret.c ****         }
 182:C:/Workspace/DAVE-4.4.2-64Bit/optiga-trust-m/examples/optiga/usecases\example_pair_host_and_optiga_using_pre_shared_secret.c **** 
 183:C:/Workspace/DAVE-4.4.2-64Bit/optiga-trust-m/examples/optiga/usecases\example_pair_host_and_optiga_using_pre_shared_secret.c ****         /**
 184:C:/Workspace/DAVE-4.4.2-64Bit/optiga-trust-m/examples/optiga/usecases\example_pair_host_and_optiga_using_pre_shared_secret.c ****          * 5. Generate Random using optiga_crypt_random
 185:C:/Workspace/DAVE-4.4.2-64Bit/optiga-trust-m/examples/optiga/usecases\example_pair_host_and_optiga_using_pre_shared_secret.c ****          *       - Specify the Random type as TRNG
 186:C:/Workspace/DAVE-4.4.2-64Bit/optiga-trust-m/examples/optiga/usecases\example_pair_host_and_optiga_using_pre_shared_secret.c ****          *    a. The recommended size of secret is 64 bytes which is maximum supported.
 187:C:/Workspace/DAVE-4.4.2-64Bit/optiga-trust-m/examples/optiga/usecases\example_pair_host_and_optiga_using_pre_shared_secret.c ****          *       the minimum recommended is 32 bytes.
 188:C:/Workspace/DAVE-4.4.2-64Bit/optiga-trust-m/examples/optiga/usecases\example_pair_host_and_optiga_using_pre_shared_secret.c ****          *    b. If the host platform doesn't support random generation,
 189:C:/Workspace/DAVE-4.4.2-64Bit/optiga-trust-m/examples/optiga/usecases\example_pair_host_and_optiga_using_pre_shared_secret.c ****          *       use OPTIGA to generate the maximum size chosen.
 190:C:/Workspace/DAVE-4.4.2-64Bit/optiga-trust-m/examples/optiga/usecases\example_pair_host_and_optiga_using_pre_shared_secret.c ****          *       else choose the appropriate length of random to be generted by OPTIGA
 191:C:/Workspace/DAVE-4.4.2-64Bit/optiga-trust-m/examples/optiga/usecases\example_pair_host_and_optiga_using_pre_shared_secret.c ****          *
 192:C:/Workspace/DAVE-4.4.2-64Bit/optiga-trust-m/examples/optiga/usecases\example_pair_host_and_optiga_using_pre_shared_secret.c ****          */
 193:C:/Workspace/DAVE-4.4.2-64Bit/optiga-trust-m/examples/optiga/usecases\example_pair_host_and_optiga_using_pre_shared_secret.c ****         optiga_lib_status = OPTIGA_LIB_BUSY;
 166              	 .loc 1 193 0
 167 0094 0123     	 mov r3,#1
 194:C:/Workspace/DAVE-4.4.2-64Bit/optiga-trust-m/examples/optiga/usecases\example_pair_host_and_optiga_using_pre_shared_secret.c ****         return_status = optiga_crypt_random(me_crypt,
 168              	 .loc 1 194 0
 169 0096 10AA     	 add r2,sp,#64
 193:C:/Workspace/DAVE-4.4.2-64Bit/optiga-trust-m/examples/optiga/usecases\example_pair_host_and_optiga_using_pre_shared_secret.c ****         return_status = optiga_crypt_random(me_crypt,
 170              	 .loc 1 193 0
 171 0098 2380     	 strh r3,[r4]
 172              	 .loc 1 194 0
 173 009a 301C     	 mov r0,r6
 174              	.LVL15:
 175 009c 3F33     	 add r3,r3,#63
 176 009e FFF7FEFF 	 bl optiga_crypt_random
 177              	.LVL16:
 178 00a2 021E     	 sub r2,r0,#0
 179              	.LVL17:
 195:C:/Workspace/DAVE-4.4.2-64Bit/optiga-trust-m/examples/optiga/usecases\example_pair_host_and_optiga_using_pre_shared_secret.c ****                                             OPTIGA_RNG_TYPE_TRNG,
 196:C:/Workspace/DAVE-4.4.2-64Bit/optiga-trust-m/examples/optiga/usecases\example_pair_host_and_optiga_using_pre_shared_secret.c ****                                             platform_binding_secret,
 197:C:/Workspace/DAVE-4.4.2-64Bit/optiga-trust-m/examples/optiga/usecases\example_pair_host_and_optiga_using_pre_shared_secret.c ****                                             sizeof(platform_binding_secret));
 198:C:/Workspace/DAVE-4.4.2-64Bit/optiga-trust-m/examples/optiga/usecases\example_pair_host_and_optiga_using_pre_shared_secret.c ****         if (OPTIGA_LIB_SUCCESS != return_status)
 180              	 .loc 1 198 0
 181 00a4 3DD1     	 bne .L23
 182              	.L11:
 199:C:/Workspace/DAVE-4.4.2-64Bit/optiga-trust-m/examples/optiga/usecases\example_pair_host_and_optiga_using_pre_shared_secret.c ****         {
 200:C:/Workspace/DAVE-4.4.2-64Bit/optiga-trust-m/examples/optiga/usecases\example_pair_host_and_optiga_using_pre_shared_secret.c ****             break;
 201:C:/Workspace/DAVE-4.4.2-64Bit/optiga-trust-m/examples/optiga/usecases\example_pair_host_and_optiga_using_pre_shared_secret.c ****         }
 202:C:/Workspace/DAVE-4.4.2-64Bit/optiga-trust-m/examples/optiga/usecases\example_pair_host_and_optiga_using_pre_shared_secret.c **** 
 203:C:/Workspace/DAVE-4.4.2-64Bit/optiga-trust-m/examples/optiga/usecases\example_pair_host_and_optiga_using_pre_shared_secret.c ****         while (optiga_lib_status == OPTIGA_LIB_BUSY)
 183              	 .loc 1 203 0 discriminator 1
 184 00a6 2388     	 ldrh r3,[r4]
 185 00a8 012B     	 cmp r3,#1
 186 00aa FCD0     	 beq .L11
 204:C:/Workspace/DAVE-4.4.2-64Bit/optiga-trust-m/examples/optiga/usecases\example_pair_host_and_optiga_using_pre_shared_secret.c ****         {
 205:C:/Workspace/DAVE-4.4.2-64Bit/optiga-trust-m/examples/optiga/usecases\example_pair_host_and_optiga_using_pre_shared_secret.c ****             //Wait until the optiga_crypt_random operation is completed
 206:C:/Workspace/DAVE-4.4.2-64Bit/optiga-trust-m/examples/optiga/usecases\example_pair_host_and_optiga_using_pre_shared_secret.c ****         }
 207:C:/Workspace/DAVE-4.4.2-64Bit/optiga-trust-m/examples/optiga/usecases\example_pair_host_and_optiga_using_pre_shared_secret.c **** 
 208:C:/Workspace/DAVE-4.4.2-64Bit/optiga-trust-m/examples/optiga/usecases\example_pair_host_and_optiga_using_pre_shared_secret.c ****         if (OPTIGA_LIB_SUCCESS != optiga_lib_status)
 187              	 .loc 1 208 0
 188 00ac 2788     	 ldrh r7,[r4]
 189 00ae BFB2     	 uxth r7,r7
 190 00b0 002F     	 cmp r7,#0
 191 00b2 32D1     	 bne .L49
 209:C:/Workspace/DAVE-4.4.2-64Bit/optiga-trust-m/examples/optiga/usecases\example_pair_host_and_optiga_using_pre_shared_secret.c ****         {
 210:C:/Workspace/DAVE-4.4.2-64Bit/optiga-trust-m/examples/optiga/usecases\example_pair_host_and_optiga_using_pre_shared_secret.c ****             //Generation of random data failed.
 211:C:/Workspace/DAVE-4.4.2-64Bit/optiga-trust-m/examples/optiga/usecases\example_pair_host_and_optiga_using_pre_shared_secret.c ****             return_status = optiga_lib_status;
 212:C:/Workspace/DAVE-4.4.2-64Bit/optiga-trust-m/examples/optiga/usecases\example_pair_host_and_optiga_using_pre_shared_secret.c ****             break;
 213:C:/Workspace/DAVE-4.4.2-64Bit/optiga-trust-m/examples/optiga/usecases\example_pair_host_and_optiga_using_pre_shared_secret.c ****         }
 214:C:/Workspace/DAVE-4.4.2-64Bit/optiga-trust-m/examples/optiga/usecases\example_pair_host_and_optiga_using_pre_shared_secret.c **** 
 215:C:/Workspace/DAVE-4.4.2-64Bit/optiga-trust-m/examples/optiga/usecases\example_pair_host_and_optiga_using_pre_shared_secret.c ****         /**
 216:C:/Workspace/DAVE-4.4.2-64Bit/optiga-trust-m/examples/optiga/usecases\example_pair_host_and_optiga_using_pre_shared_secret.c ****          * 6. Generate random on Host
 217:C:/Workspace/DAVE-4.4.2-64Bit/optiga-trust-m/examples/optiga/usecases\example_pair_host_and_optiga_using_pre_shared_secret.c ****          *    If the host platform doesn't support, skip this step
 218:C:/Workspace/DAVE-4.4.2-64Bit/optiga-trust-m/examples/optiga/usecases\example_pair_host_and_optiga_using_pre_shared_secret.c ****          */
 219:C:/Workspace/DAVE-4.4.2-64Bit/optiga-trust-m/examples/optiga/usecases\example_pair_host_and_optiga_using_pre_shared_secret.c **** 
 220:C:/Workspace/DAVE-4.4.2-64Bit/optiga-trust-m/examples/optiga/usecases\example_pair_host_and_optiga_using_pre_shared_secret.c **** 
 221:C:/Workspace/DAVE-4.4.2-64Bit/optiga-trust-m/examples/optiga/usecases\example_pair_host_and_optiga_using_pre_shared_secret.c ****         /**
 222:C:/Workspace/DAVE-4.4.2-64Bit/optiga-trust-m/examples/optiga/usecases\example_pair_host_and_optiga_using_pre_shared_secret.c ****          * 7. Write random(secret) to OPTIGA platform Binding shared secret data object (0xE140)
 223:C:/Workspace/DAVE-4.4.2-64Bit/optiga-trust-m/examples/optiga/usecases\example_pair_host_and_optiga_using_pre_shared_secret.c ****          */
 224:C:/Workspace/DAVE-4.4.2-64Bit/optiga-trust-m/examples/optiga/usecases\example_pair_host_and_optiga_using_pre_shared_secret.c ****         optiga_lib_status = OPTIGA_LIB_BUSY;
 192              	 .loc 1 224 0
 193 00b4 0121     	 mov r1,#1
 225:C:/Workspace/DAVE-4.4.2-64Bit/optiga-trust-m/examples/optiga/usecases\example_pair_host_and_optiga_using_pre_shared_secret.c ****         OPTIGA_UTIL_SET_COMMS_PROTECTION_LEVEL(me_util,OPTIGA_COMMS_NO_PROTECTION);
 194              	 .loc 1 225 0
 195 00b6 281C     	 mov r0,r5
 196              	.LVL18:
 197 00b8 3A1C     	 mov r2,r7
 198              	.LVL19:
 224:C:/Workspace/DAVE-4.4.2-64Bit/optiga-trust-m/examples/optiga/usecases\example_pair_host_and_optiga_using_pre_shared_secret.c ****         OPTIGA_UTIL_SET_COMMS_PROTECTION_LEVEL(me_util,OPTIGA_COMMS_NO_PROTECTION);
 199              	 .loc 1 224 0
 200 00ba 2180     	 strh r1,[r4]
 201              	 .loc 1 225 0
 202 00bc FFF7FEFF 	 bl optiga_util_set_comms_params
 203              	.LVL20:
 226:C:/Workspace/DAVE-4.4.2-64Bit/optiga-trust-m/examples/optiga/usecases\example_pair_host_and_optiga_using_pre_shared_secret.c ****         return_status = optiga_util_write_data(me_util,
 204              	 .loc 1 226 0
 205 00c0 4022     	 mov r2,#64
 206 00c2 10AB     	 add r3,sp,#64
 207 00c4 0093     	 str r3,[sp]
 208 00c6 0192     	 str r2,[sp,#4]
 209 00c8 281C     	 mov r0,r5
 210 00ca 2C49     	 ldr r1,.L51+20
 211 00cc 3B1C     	 mov r3,r7
 212 00ce FFF7FEFF 	 bl optiga_util_write_data
 213              	.LVL21:
 214 00d2 021E     	 sub r2,r0,#0
 215              	.LVL22:
 227:C:/Workspace/DAVE-4.4.2-64Bit/optiga-trust-m/examples/optiga/usecases\example_pair_host_and_optiga_using_pre_shared_secret.c ****                                                0xE140,
 228:C:/Workspace/DAVE-4.4.2-64Bit/optiga-trust-m/examples/optiga/usecases\example_pair_host_and_optiga_using_pre_shared_secret.c ****                                                OPTIGA_UTIL_ERASE_AND_WRITE,
 229:C:/Workspace/DAVE-4.4.2-64Bit/optiga-trust-m/examples/optiga/usecases\example_pair_host_and_optiga_using_pre_shared_secret.c ****                                                0,
 230:C:/Workspace/DAVE-4.4.2-64Bit/optiga-trust-m/examples/optiga/usecases\example_pair_host_and_optiga_using_pre_shared_secret.c ****                                                platform_binding_secret,
 231:C:/Workspace/DAVE-4.4.2-64Bit/optiga-trust-m/examples/optiga/usecases\example_pair_host_and_optiga_using_pre_shared_secret.c ****                                                sizeof(platform_binding_secret));
 232:C:/Workspace/DAVE-4.4.2-64Bit/optiga-trust-m/examples/optiga/usecases\example_pair_host_and_optiga_using_pre_shared_secret.c ****         if (OPTIGA_LIB_SUCCESS != return_status)
 216              	 .loc 1 232 0
 217 00d4 25D1     	 bne .L23
 218              	.L13:
 233:C:/Workspace/DAVE-4.4.2-64Bit/optiga-trust-m/examples/optiga/usecases\example_pair_host_and_optiga_using_pre_shared_secret.c ****         {
 234:C:/Workspace/DAVE-4.4.2-64Bit/optiga-trust-m/examples/optiga/usecases\example_pair_host_and_optiga_using_pre_shared_secret.c ****             break;
 235:C:/Workspace/DAVE-4.4.2-64Bit/optiga-trust-m/examples/optiga/usecases\example_pair_host_and_optiga_using_pre_shared_secret.c ****         }
 236:C:/Workspace/DAVE-4.4.2-64Bit/optiga-trust-m/examples/optiga/usecases\example_pair_host_and_optiga_using_pre_shared_secret.c **** 
 237:C:/Workspace/DAVE-4.4.2-64Bit/optiga-trust-m/examples/optiga/usecases\example_pair_host_and_optiga_using_pre_shared_secret.c ****         while (optiga_lib_status == OPTIGA_LIB_BUSY)
 219              	 .loc 1 237 0 discriminator 1
 220 00d6 2388     	 ldrh r3,[r4]
 221 00d8 012B     	 cmp r3,#1
 222 00da FCD0     	 beq .L13
 238:C:/Workspace/DAVE-4.4.2-64Bit/optiga-trust-m/examples/optiga/usecases\example_pair_host_and_optiga_using_pre_shared_secret.c ****         {
 239:C:/Workspace/DAVE-4.4.2-64Bit/optiga-trust-m/examples/optiga/usecases\example_pair_host_and_optiga_using_pre_shared_secret.c ****             //Wait until the optiga_util_write_data operation is completed
 240:C:/Workspace/DAVE-4.4.2-64Bit/optiga-trust-m/examples/optiga/usecases\example_pair_host_and_optiga_using_pre_shared_secret.c ****         }
 241:C:/Workspace/DAVE-4.4.2-64Bit/optiga-trust-m/examples/optiga/usecases\example_pair_host_and_optiga_using_pre_shared_secret.c **** 
 242:C:/Workspace/DAVE-4.4.2-64Bit/optiga-trust-m/examples/optiga/usecases\example_pair_host_and_optiga_using_pre_shared_secret.c ****         if (OPTIGA_LIB_SUCCESS != optiga_lib_status)
 223              	 .loc 1 242 0
 224 00dc 2388     	 ldrh r3,[r4]
 225 00de 002B     	 cmp r3,#0
 226 00e0 1BD1     	 bne .L49
 243:C:/Workspace/DAVE-4.4.2-64Bit/optiga-trust-m/examples/optiga/usecases\example_pair_host_and_optiga_using_pre_shared_secret.c ****         {
 244:C:/Workspace/DAVE-4.4.2-64Bit/optiga-trust-m/examples/optiga/usecases\example_pair_host_and_optiga_using_pre_shared_secret.c ****             //writing data to a data object failed.
 245:C:/Workspace/DAVE-4.4.2-64Bit/optiga-trust-m/examples/optiga/usecases\example_pair_host_and_optiga_using_pre_shared_secret.c ****             return_status = optiga_lib_status;
 246:C:/Workspace/DAVE-4.4.2-64Bit/optiga-trust-m/examples/optiga/usecases\example_pair_host_and_optiga_using_pre_shared_secret.c ****             break;
 247:C:/Workspace/DAVE-4.4.2-64Bit/optiga-trust-m/examples/optiga/usecases\example_pair_host_and_optiga_using_pre_shared_secret.c ****         }
 248:C:/Workspace/DAVE-4.4.2-64Bit/optiga-trust-m/examples/optiga/usecases\example_pair_host_and_optiga_using_pre_shared_secret.c **** 
 249:C:/Workspace/DAVE-4.4.2-64Bit/optiga-trust-m/examples/optiga/usecases\example_pair_host_and_optiga_using_pre_shared_secret.c ****         /**
 250:C:/Workspace/DAVE-4.4.2-64Bit/optiga-trust-m/examples/optiga/usecases\example_pair_host_and_optiga_using_pre_shared_secret.c ****          * 8. Write/store the random(secret) on the Host platform
 251:C:/Workspace/DAVE-4.4.2-64Bit/optiga-trust-m/examples/optiga/usecases\example_pair_host_and_optiga_using_pre_shared_secret.c ****          *
 252:C:/Workspace/DAVE-4.4.2-64Bit/optiga-trust-m/examples/optiga/usecases\example_pair_host_and_optiga_using_pre_shared_secret.c ****          */
 253:C:/Workspace/DAVE-4.4.2-64Bit/optiga-trust-m/examples/optiga/usecases\example_pair_host_and_optiga_using_pre_shared_secret.c ****         pal_return_status = pal_os_datastore_write(OPTIGA_PLATFORM_BINDING_SHARED_SECRET_ID,
 227              	 .loc 1 253 0
 228 00e2 4022     	 mov r2,#64
 229 00e4 1120     	 mov r0,#17
 230              	.LVL23:
 231 00e6 10A9     	 add r1,sp,#64
 232 00e8 FFF7FEFF 	 bl pal_os_datastore_write
 233              	.LVL24:
 234 00ec 021E     	 sub r2,r0,#0
 235              	.LVL25:
 254:C:/Workspace/DAVE-4.4.2-64Bit/optiga-trust-m/examples/optiga/usecases\example_pair_host_and_optiga_using_pre_shared_secret.c ****                                                    platform_binding_secret,
 255:C:/Workspace/DAVE-4.4.2-64Bit/optiga-trust-m/examples/optiga/usecases\example_pair_host_and_optiga_using_pre_shared_secret.c ****                                                    sizeof(platform_binding_secret));
 256:C:/Workspace/DAVE-4.4.2-64Bit/optiga-trust-m/examples/optiga/usecases\example_pair_host_and_optiga_using_pre_shared_secret.c **** 
 257:C:/Workspace/DAVE-4.4.2-64Bit/optiga-trust-m/examples/optiga/usecases\example_pair_host_and_optiga_using_pre_shared_secret.c ****         if (PAL_STATUS_SUCCESS != pal_return_status)
 236              	 .loc 1 257 0
 237 00ee 01D0     	 beq .L15
 258:C:/Workspace/DAVE-4.4.2-64Bit/optiga-trust-m/examples/optiga/usecases\example_pair_host_and_optiga_using_pre_shared_secret.c ****         {
 259:C:/Workspace/DAVE-4.4.2-64Bit/optiga-trust-m/examples/optiga/usecases\example_pair_host_and_optiga_using_pre_shared_secret.c ****             //Storing of Pre-shared secret on Host failed.
 260:C:/Workspace/DAVE-4.4.2-64Bit/optiga-trust-m/examples/optiga/usecases\example_pair_host_and_optiga_using_pre_shared_secret.c ****             optiga_lib_status = pal_return_status;
 238              	 .loc 1 260 0
 239 00f0 2080     	 strh r0,[r4]
 261:C:/Workspace/DAVE-4.4.2-64Bit/optiga-trust-m/examples/optiga/usecases\example_pair_host_and_optiga_using_pre_shared_secret.c ****             break;
 240              	 .loc 1 261 0
 241 00f2 1CE0     	 b .L17
 242              	.L15:
 262:C:/Workspace/DAVE-4.4.2-64Bit/optiga-trust-m/examples/optiga/usecases\example_pair_host_and_optiga_using_pre_shared_secret.c ****         }
 263:C:/Workspace/DAVE-4.4.2-64Bit/optiga-trust-m/examples/optiga/usecases\example_pair_host_and_optiga_using_pre_shared_secret.c **** 
 264:C:/Workspace/DAVE-4.4.2-64Bit/optiga-trust-m/examples/optiga/usecases\example_pair_host_and_optiga_using_pre_shared_secret.c **** 
 265:C:/Workspace/DAVE-4.4.2-64Bit/optiga-trust-m/examples/optiga/usecases\example_pair_host_and_optiga_using_pre_shared_secret.c **** 
 266:C:/Workspace/DAVE-4.4.2-64Bit/optiga-trust-m/examples/optiga/usecases\example_pair_host_and_optiga_using_pre_shared_secret.c ****         /**
 267:C:/Workspace/DAVE-4.4.2-64Bit/optiga-trust-m/examples/optiga/usecases\example_pair_host_and_optiga_using_pre_shared_secret.c ****          * 9. Update metadata of OPTIGA Platform Binding shared secret data object (0xE140)
 268:C:/Workspace/DAVE-4.4.2-64Bit/optiga-trust-m/examples/optiga/usecases\example_pair_host_and_optiga_using_pre_shared_secret.c ****          */
 269:C:/Workspace/DAVE-4.4.2-64Bit/optiga-trust-m/examples/optiga/usecases\example_pair_host_and_optiga_using_pre_shared_secret.c ****         optiga_lib_status = OPTIGA_LIB_BUSY;
 243              	 .loc 1 269 0
 244 00f4 0121     	 mov r1,#1
 270:C:/Workspace/DAVE-4.4.2-64Bit/optiga-trust-m/examples/optiga/usecases\example_pair_host_and_optiga_using_pre_shared_secret.c ****         OPTIGA_UTIL_SET_COMMS_PROTECTION_LEVEL(me_util,OPTIGA_COMMS_NO_PROTECTION);
 245              	 .loc 1 270 0
 246 00f6 281C     	 mov r0,r5
 247              	.LVL26:
 269:C:/Workspace/DAVE-4.4.2-64Bit/optiga-trust-m/examples/optiga/usecases\example_pair_host_and_optiga_using_pre_shared_secret.c ****         OPTIGA_UTIL_SET_COMMS_PROTECTION_LEVEL(me_util,OPTIGA_COMMS_NO_PROTECTION);
 248              	 .loc 1 269 0
 249 00f8 2180     	 strh r1,[r4]
 250              	 .loc 1 270 0
 251 00fa FFF7FEFF 	 bl optiga_util_set_comms_params
 252              	.LVL27:
 271:C:/Workspace/DAVE-4.4.2-64Bit/optiga-trust-m/examples/optiga/usecases\example_pair_host_and_optiga_using_pre_shared_secret.c ****         return_status = optiga_util_write_metadata(me_util,
 253              	 .loc 1 271 0
 254 00fe 204A     	 ldr r2,.L51+24
 255 0100 281C     	 mov r0,r5
 256 0102 1E49     	 ldr r1,.L51+20
 257 0104 1923     	 mov r3,#25
 258 0106 FFF7FEFF 	 bl optiga_util_write_metadata
 259              	.LVL28:
 260 010a 021E     	 sub r2,r0,#0
 261              	.LVL29:
 272:C:/Workspace/DAVE-4.4.2-64Bit/optiga-trust-m/examples/optiga/usecases\example_pair_host_and_optiga_using_pre_shared_secret.c ****                                                    0xE140,
 273:C:/Workspace/DAVE-4.4.2-64Bit/optiga-trust-m/examples/optiga/usecases\example_pair_host_and_optiga_using_pre_shared_secret.c ****                                                    platform_binding_shared_secret_metadata_final,
 274:C:/Workspace/DAVE-4.4.2-64Bit/optiga-trust-m/examples/optiga/usecases\example_pair_host_and_optiga_using_pre_shared_secret.c ****                                                    sizeof(platform_binding_shared_secret_metadata_f
 275:C:/Workspace/DAVE-4.4.2-64Bit/optiga-trust-m/examples/optiga/usecases\example_pair_host_and_optiga_using_pre_shared_secret.c **** 
 276:C:/Workspace/DAVE-4.4.2-64Bit/optiga-trust-m/examples/optiga/usecases\example_pair_host_and_optiga_using_pre_shared_secret.c ****         if (OPTIGA_LIB_SUCCESS != return_status)
 262              	 .loc 1 276 0
 263 010c 09D1     	 bne .L23
 264              	.L16:
 277:C:/Workspace/DAVE-4.4.2-64Bit/optiga-trust-m/examples/optiga/usecases\example_pair_host_and_optiga_using_pre_shared_secret.c ****         {
 278:C:/Workspace/DAVE-4.4.2-64Bit/optiga-trust-m/examples/optiga/usecases\example_pair_host_and_optiga_using_pre_shared_secret.c ****             break;
 279:C:/Workspace/DAVE-4.4.2-64Bit/optiga-trust-m/examples/optiga/usecases\example_pair_host_and_optiga_using_pre_shared_secret.c ****         }
 280:C:/Workspace/DAVE-4.4.2-64Bit/optiga-trust-m/examples/optiga/usecases\example_pair_host_and_optiga_using_pre_shared_secret.c **** 
 281:C:/Workspace/DAVE-4.4.2-64Bit/optiga-trust-m/examples/optiga/usecases\example_pair_host_and_optiga_using_pre_shared_secret.c ****         while (optiga_lib_status == OPTIGA_LIB_BUSY)
 265              	 .loc 1 281 0 discriminator 1
 266 010e 2388     	 ldrh r3,[r4]
 267 0110 012B     	 cmp r3,#1
 268 0112 FCD0     	 beq .L16
 282:C:/Workspace/DAVE-4.4.2-64Bit/optiga-trust-m/examples/optiga/usecases\example_pair_host_and_optiga_using_pre_shared_secret.c ****         {
 283:C:/Workspace/DAVE-4.4.2-64Bit/optiga-trust-m/examples/optiga/usecases\example_pair_host_and_optiga_using_pre_shared_secret.c ****             //Wait until the optiga_util_write_metadata operation is completed
 284:C:/Workspace/DAVE-4.4.2-64Bit/optiga-trust-m/examples/optiga/usecases\example_pair_host_and_optiga_using_pre_shared_secret.c ****         }
 285:C:/Workspace/DAVE-4.4.2-64Bit/optiga-trust-m/examples/optiga/usecases\example_pair_host_and_optiga_using_pre_shared_secret.c **** 
 286:C:/Workspace/DAVE-4.4.2-64Bit/optiga-trust-m/examples/optiga/usecases\example_pair_host_and_optiga_using_pre_shared_secret.c ****         if (OPTIGA_LIB_SUCCESS != optiga_lib_status)
 269              	 .loc 1 286 0
 270 0114 2388     	 ldrh r3,[r4]
 271 0116 002B     	 cmp r3,#0
 272 0118 09D0     	 beq .L17
 273              	.LVL30:
 274              	.L49:
 287:C:/Workspace/DAVE-4.4.2-64Bit/optiga-trust-m/examples/optiga/usecases\example_pair_host_and_optiga_using_pre_shared_secret.c ****         {
 288:C:/Workspace/DAVE-4.4.2-64Bit/optiga-trust-m/examples/optiga/usecases\example_pair_host_and_optiga_using_pre_shared_secret.c ****             //writing metadata to a data object failed.
 289:C:/Workspace/DAVE-4.4.2-64Bit/optiga-trust-m/examples/optiga/usecases\example_pair_host_and_optiga_using_pre_shared_secret.c ****             return_status = optiga_lib_status;
 275              	 .loc 1 289 0
 276 011a 2288     	 ldrh r2,[r4]
 277 011c 92B2     	 uxth r2,r2
 278              	.LVL31:
 290:C:/Workspace/DAVE-4.4.2-64Bit/optiga-trust-m/examples/optiga/usecases\example_pair_host_and_optiga_using_pre_shared_secret.c ****             break;
 291:C:/Workspace/DAVE-4.4.2-64Bit/optiga-trust-m/examples/optiga/usecases\example_pair_host_and_optiga_using_pre_shared_secret.c ****         }
 292:C:/Workspace/DAVE-4.4.2-64Bit/optiga-trust-m/examples/optiga/usecases\example_pair_host_and_optiga_using_pre_shared_secret.c **** 
 293:C:/Workspace/DAVE-4.4.2-64Bit/optiga-trust-m/examples/optiga/usecases\example_pair_host_and_optiga_using_pre_shared_secret.c ****         return_status = OPTIGA_LIB_SUCCESS;
 294:C:/Workspace/DAVE-4.4.2-64Bit/optiga-trust-m/examples/optiga/usecases\example_pair_host_and_optiga_using_pre_shared_secret.c **** 
 295:C:/Workspace/DAVE-4.4.2-64Bit/optiga-trust-m/examples/optiga/usecases\example_pair_host_and_optiga_using_pre_shared_secret.c ****     } while(FALSE);
 296:C:/Workspace/DAVE-4.4.2-64Bit/optiga-trust-m/examples/optiga/usecases\example_pair_host_and_optiga_using_pre_shared_secret.c ****     OPTIGA_EXAMPLE_LOG_STATUS(return_status);
 279              	 .loc 1 296 0
 280 011e 002A     	 cmp r2,#0
 281 0120 05D0     	 beq .L17
 282              	.LVL32:
 283              	.L23:
 284              	 .loc 1 296 0 is_stmt 0 discriminator 1
 285 0122 0298     	 ldr r0,[sp,#8]
 286 0124 1749     	 ldr r1,.L51+28
 287 0126 FFF7FEFF 	 bl optiga_lib_print_status
 288              	.LVL33:
 289 012a 07E0     	 b .L18
 290              	.LVL34:
 291              	.L5:
 115:C:/Workspace/DAVE-4.4.2-64Bit/optiga-trust-m/examples/optiga/usecases\example_pair_host_and_optiga_using_pre_shared_secret.c **** 
 292              	 .loc 1 115 0 is_stmt 1
 293 012c 0026     	 mov r6,#0
 294              	.LVL35:
 295              	.L17:
 296              	 .loc 1 296 0 discriminator 2
 297 012e 0298     	 ldr r0,[sp,#8]
 298 0130 0399     	 ldr r1,[sp,#12]
 299 0132 0022     	 mov r2,#0
 300 0134 FFF7FEFF 	 bl optiga_lib_print_status
 301              	.LVL36:
 297:C:/Workspace/DAVE-4.4.2-64Bit/optiga-trust-m/examples/optiga/usecases\example_pair_host_and_optiga_using_pre_shared_secret.c ****     
 298:C:/Workspace/DAVE-4.4.2-64Bit/optiga-trust-m/examples/optiga/usecases\example_pair_host_and_optiga_using_pre_shared_secret.c ****     if(me_util)
 302              	 .loc 1 298 0 discriminator 2
 303 0138 002D     	 cmp r5,#0
 304 013a 08D0     	 beq .L19
 305              	.L18:
 299:C:/Workspace/DAVE-4.4.2-64Bit/optiga-trust-m/examples/optiga/usecases\example_pair_host_and_optiga_using_pre_shared_secret.c ****     {
 300:C:/Workspace/DAVE-4.4.2-64Bit/optiga-trust-m/examples/optiga/usecases\example_pair_host_and_optiga_using_pre_shared_secret.c ****         //Destroy the instance after the completion of usecase if not required.
 301:C:/Workspace/DAVE-4.4.2-64Bit/optiga-trust-m/examples/optiga/usecases\example_pair_host_and_optiga_using_pre_shared_secret.c ****         return_status = optiga_util_destroy(me_util);
 306              	 .loc 1 301 0
 307 013c 281C     	 mov r0,r5
 308 013e FFF7FEFF 	 bl optiga_util_destroy
 309              	.LVL37:
 310 0142 021E     	 sub r2,r0,#0
 311              	.LVL38:
 302:C:/Workspace/DAVE-4.4.2-64Bit/optiga-trust-m/examples/optiga/usecases\example_pair_host_and_optiga_using_pre_shared_secret.c ****         if(OPTIGA_LIB_SUCCESS != return_status)
 312              	 .loc 1 302 0
 313 0144 03D0     	 beq .L19
 303:C:/Workspace/DAVE-4.4.2-64Bit/optiga-trust-m/examples/optiga/usecases\example_pair_host_and_optiga_using_pre_shared_secret.c ****         {
 304:C:/Workspace/DAVE-4.4.2-64Bit/optiga-trust-m/examples/optiga/usecases\example_pair_host_and_optiga_using_pre_shared_secret.c ****             //lint --e{774} suppress This is a generic macro
 305:C:/Workspace/DAVE-4.4.2-64Bit/optiga-trust-m/examples/optiga/usecases\example_pair_host_and_optiga_using_pre_shared_secret.c ****             OPTIGA_EXAMPLE_LOG_STATUS(return_status);
 314              	 .loc 1 305 0 discriminator 1
 315 0146 0298     	 ldr r0,[sp,#8]
 316              	.LVL39:
 317 0148 0E49     	 ldr r1,.L51+28
 318 014a FFF7FEFF 	 bl optiga_lib_print_status
 319              	.LVL40:
 320              	.L19:
 306:C:/Workspace/DAVE-4.4.2-64Bit/optiga-trust-m/examples/optiga/usecases\example_pair_host_and_optiga_using_pre_shared_secret.c ****         }
 307:C:/Workspace/DAVE-4.4.2-64Bit/optiga-trust-m/examples/optiga/usecases\example_pair_host_and_optiga_using_pre_shared_secret.c ****     }
 308:C:/Workspace/DAVE-4.4.2-64Bit/optiga-trust-m/examples/optiga/usecases\example_pair_host_and_optiga_using_pre_shared_secret.c ****     if(me_crypt)
 321              	 .loc 1 308 0
 322 014e 002E     	 cmp r6,#0
 323 0150 08D0     	 beq .L4
 309:C:/Workspace/DAVE-4.4.2-64Bit/optiga-trust-m/examples/optiga/usecases\example_pair_host_and_optiga_using_pre_shared_secret.c ****     {
 310:C:/Workspace/DAVE-4.4.2-64Bit/optiga-trust-m/examples/optiga/usecases\example_pair_host_and_optiga_using_pre_shared_secret.c ****         //Destroy the instance after the completion of usecase if not required.
 311:C:/Workspace/DAVE-4.4.2-64Bit/optiga-trust-m/examples/optiga/usecases\example_pair_host_and_optiga_using_pre_shared_secret.c ****         return_status = optiga_crypt_destroy(me_crypt);
 324              	 .loc 1 311 0
 325 0152 301C     	 mov r0,r6
 326 0154 FFF7FEFF 	 bl optiga_crypt_destroy
 327              	.LVL41:
 328 0158 021E     	 sub r2,r0,#0
 329              	.LVL42:
 312:C:/Workspace/DAVE-4.4.2-64Bit/optiga-trust-m/examples/optiga/usecases\example_pair_host_and_optiga_using_pre_shared_secret.c ****         if(OPTIGA_LIB_SUCCESS != return_status)
 330              	 .loc 1 312 0
 331 015a 03D0     	 beq .L4
 313:C:/Workspace/DAVE-4.4.2-64Bit/optiga-trust-m/examples/optiga/usecases\example_pair_host_and_optiga_using_pre_shared_secret.c ****         {
 314:C:/Workspace/DAVE-4.4.2-64Bit/optiga-trust-m/examples/optiga/usecases\example_pair_host_and_optiga_using_pre_shared_secret.c ****             //lint --e{774} suppress This is a generic macro
 315:C:/Workspace/DAVE-4.4.2-64Bit/optiga-trust-m/examples/optiga/usecases\example_pair_host_and_optiga_using_pre_shared_secret.c ****             OPTIGA_EXAMPLE_LOG_STATUS(return_status);
 332              	 .loc 1 315 0 discriminator 1
 333 015c 0298     	 ldr r0,[sp,#8]
 334              	.LVL43:
 335 015e 0949     	 ldr r1,.L51+28
 336 0160 FFF7FEFF 	 bl optiga_lib_print_status
 337              	.LVL44:
 338              	.L4:
 316:C:/Workspace/DAVE-4.4.2-64Bit/optiga-trust-m/examples/optiga/usecases\example_pair_host_and_optiga_using_pre_shared_secret.c ****         }
 317:C:/Workspace/DAVE-4.4.2-64Bit/optiga-trust-m/examples/optiga/usecases\example_pair_host_and_optiga_using_pre_shared_secret.c ****     }
 318:C:/Workspace/DAVE-4.4.2-64Bit/optiga-trust-m/examples/optiga/usecases\example_pair_host_and_optiga_using_pre_shared_secret.c ****     
 319:C:/Workspace/DAVE-4.4.2-64Bit/optiga-trust-m/examples/optiga/usecases\example_pair_host_and_optiga_using_pre_shared_secret.c **** }
 339              	 .loc 1 319 0
 340 0164 21B0     	 add sp,sp,#132
 341              	 
 342              	.LVL45:
 343              	.LVL46:
 344 0166 F0BD     	 pop {r4,r5,r6,r7,pc}
 345              	.L52:
 346              	 .align 2
 347              	.L51:
 348 0168 00000000 	 .word .LC2
 349 016c 15000000 	 .word .LC4
 350 0170 00000000 	 .word .LANCHOR1
 351 0174 00000000 	 .word optiga_lib_callback
 352 0178 00000000 	 .word .LANCHOR0
 353 017c 40E10000 	 .word 57664
 354 0180 00000000 	 .word .LANCHOR2
 355 0184 1A000000 	 .word .LC9
 356              	 .cfi_endproc
 357              	.LFE1:
 359              	 .global platform_binding_shared_secret_metadata_final
 360              	 .section .rodata.__FUNCTION__.6089,"a",%progbits
 361              	 .set .LANCHOR1,.+0
 364              	__FUNCTION__.6089:
 365 0000 6578616D 	 .ascii "example_pair_host_and_optiga_using_pre_shared_secre"
 365      706C655F 
 365      70616972 
 365      5F686F73 
 365      745F616E 
 366 0033 7400     	 .ascii "t\000"
 367              	 .section .rodata.str1.1,"aMS",%progbits,1
 368              	.LC2:
 369 0000 5B6F7074 	 .ascii "[optiga example]  : \000"
 369      69676120 
 369      6578616D 
 369      706C655D 
 369      20203A20 
 370              	.LC4:
 371 0015 1B5B306D 	 .ascii "\033[0m\000"
 371      00
 372              	.LC9:
 373 001a 1B5B3331 	 .ascii "\033[31m\000"
 373      6D00
 374              	 .section .data.platform_binding_shared_secret_metadata_final,"aw",%progbits
 375              	 .set .LANCHOR2,.+0
 378              	platform_binding_shared_secret_metadata_final:
 379 0000 20       	 .byte 32
 380 0001 17       	 .byte 23
 381 0002 C0       	 .byte -64
 382 0003 01       	 .byte 1
 383 0004 03       	 .byte 3
 384 0005 D0       	 .byte -48
 385 0006 07       	 .byte 7
 386 0007 E1       	 .byte -31
 387 0008 FC       	 .byte -4
 388 0009 07       	 .byte 7
 389 000a FE       	 .byte -2
 390 000b 20       	 .byte 32
 391 000c E1       	 .byte -31
 392 000d 40       	 .byte 64
 393 000e D1       	 .byte -47
 394 000f 03       	 .byte 3
 395 0010 E1       	 .byte -31
 396 0011 FC       	 .byte -4
 397 0012 07       	 .byte 7
 398 0013 D3       	 .byte -45
 399 0014 01       	 .byte 1
 400 0015 00       	 .byte 0
 401 0016 E8       	 .byte -24
 402 0017 01       	 .byte 1
 403 0018 22       	 .byte 34
 404              	 .section .bss.optiga_lib_status,"aw",%nobits
 405              	 .align 1
 406              	 .set .LANCHOR0,.+0
 409              	optiga_lib_status:
 410 0000 0000     	 .space 2
 411              	 .text
 412              	.Letext0:
 413              	 .file 2 "c:\\dave_4-4-2_64bit\\dave-ide-4.4.2-64bit\\eclipse\\arm-gcc-49\\arm-none-eabi\\include\\machine\\_default_types.h"
 414              	 .file 3 "c:\\dave_4-4-2_64bit\\dave-ide-4.4.2-64bit\\eclipse\\arm-gcc-49\\arm-none-eabi\\include\\stdint.h"
 415              	 .file 4 "C:/Workspace/DAVE-4.4.2-64Bit/optiga-trust-m/optiga/include/optiga/common/optiga_lib_types.h"
 416              	 .file 5 "C:/Workspace/DAVE-4.4.2-64Bit/optiga-trust-m/optiga/include/optiga/common/optiga_lib_common.h"
 417              	 .file 6 "C:/Workspace/DAVE-4.4.2-64Bit/optiga-trust-m/optiga/include/optiga/cmd/optiga_cmd.h"
 418              	 .file 7 "C:/Workspace/DAVE-4.4.2-64Bit/optiga-trust-m/optiga/include/optiga/optiga_util.h"
 419              	 .file 8 "C:/Workspace/DAVE-4.4.2-64Bit/optiga-trust-m/optiga/include/optiga/optiga_crypt.h"
 420              	 .file 9 "C:/Workspace/DAVE-4.4.2-64Bit/optiga-trust-m/optiga/include/optiga/pal/pal.h"
 421              	 .file 10 "C:/Workspace/DAVE-4.4.2-64Bit/optiga-trust-m/optiga/include/optiga/common/optiga_lib_logger.h"
 422              	 .file 11 "C:/Workspace/DAVE-4.4.2-64Bit/optiga-trust-m/optiga/include/optiga/pal/pal_os_datastore.h"