   1              	 .cpu cortex-m0
   2              	 .fpu softvfp
   3              	 .eabi_attribute 20,1
   4              	 .eabi_attribute 21,1
   5              	 .eabi_attribute 23,3
   6              	 .eabi_attribute 24,1
   7              	 .eabi_attribute 25,1
   8              	 .eabi_attribute 26,1
   9              	 .eabi_attribute 30,4
  10              	 .eabi_attribute 34,0
  11              	 .eabi_attribute 18,4
  12              	 .code 16
  13              	 .file "example_optiga_crypt_ecdh.c"
  14              	 .text
  15              	.Ltext0:
  16              	 .cfi_sections .debug_frame
  17              	 .section .text.optiga_crypt_callback,"ax",%progbits
  18              	 .align 1
  19              	 .code 16
  20              	 .thumb_func
  22              	optiga_crypt_callback:
  23              	.LFB0:
  24              	 .file 1 "C:/Workspace/DAVE-4.4.2-64Bit/optiga-trust-m/examples/optiga/example_optiga_crypt_ecdh.c"
   1:C:/Workspace/DAVE-4.4.2-64Bit/optiga-trust-m/examples/optiga\example_optiga_crypt_ecdh.c **** /**
   2:C:/Workspace/DAVE-4.4.2-64Bit/optiga-trust-m/examples/optiga\example_optiga_crypt_ecdh.c **** * \copyright
   3:C:/Workspace/DAVE-4.4.2-64Bit/optiga-trust-m/examples/optiga\example_optiga_crypt_ecdh.c **** * MIT License
   4:C:/Workspace/DAVE-4.4.2-64Bit/optiga-trust-m/examples/optiga\example_optiga_crypt_ecdh.c **** *
   5:C:/Workspace/DAVE-4.4.2-64Bit/optiga-trust-m/examples/optiga\example_optiga_crypt_ecdh.c **** * Copyright (c) 2019 Infineon Technologies AG
   6:C:/Workspace/DAVE-4.4.2-64Bit/optiga-trust-m/examples/optiga\example_optiga_crypt_ecdh.c **** *
   7:C:/Workspace/DAVE-4.4.2-64Bit/optiga-trust-m/examples/optiga\example_optiga_crypt_ecdh.c **** * Permission is hereby granted, free of charge, to any person obtaining a copy
   8:C:/Workspace/DAVE-4.4.2-64Bit/optiga-trust-m/examples/optiga\example_optiga_crypt_ecdh.c **** * of this software and associated documentation files (the "Software"), to deal
   9:C:/Workspace/DAVE-4.4.2-64Bit/optiga-trust-m/examples/optiga\example_optiga_crypt_ecdh.c **** * in the Software without restriction, including without limitation the rights
  10:C:/Workspace/DAVE-4.4.2-64Bit/optiga-trust-m/examples/optiga\example_optiga_crypt_ecdh.c **** * to use, copy, modify, merge, publish, distribute, sublicense, and/or sell
  11:C:/Workspace/DAVE-4.4.2-64Bit/optiga-trust-m/examples/optiga\example_optiga_crypt_ecdh.c **** * copies of the Software, and to permit persons to whom the Software is
  12:C:/Workspace/DAVE-4.4.2-64Bit/optiga-trust-m/examples/optiga\example_optiga_crypt_ecdh.c **** * furnished to do so, subject to the following conditions:
  13:C:/Workspace/DAVE-4.4.2-64Bit/optiga-trust-m/examples/optiga\example_optiga_crypt_ecdh.c **** *
  14:C:/Workspace/DAVE-4.4.2-64Bit/optiga-trust-m/examples/optiga\example_optiga_crypt_ecdh.c **** * The above copyright notice and this permission notice shall be included in all
  15:C:/Workspace/DAVE-4.4.2-64Bit/optiga-trust-m/examples/optiga\example_optiga_crypt_ecdh.c **** * copies or substantial portions of the Software.
  16:C:/Workspace/DAVE-4.4.2-64Bit/optiga-trust-m/examples/optiga\example_optiga_crypt_ecdh.c **** *
  17:C:/Workspace/DAVE-4.4.2-64Bit/optiga-trust-m/examples/optiga\example_optiga_crypt_ecdh.c **** * THE SOFTWARE IS PROVIDED "AS IS", WITHOUT WARRANTY OF ANY KIND, EXPRESS OR
  18:C:/Workspace/DAVE-4.4.2-64Bit/optiga-trust-m/examples/optiga\example_optiga_crypt_ecdh.c **** * IMPLIED, INCLUDING BUT NOT LIMITED TO THE WARRANTIES OF MERCHANTABILITY,
  19:C:/Workspace/DAVE-4.4.2-64Bit/optiga-trust-m/examples/optiga\example_optiga_crypt_ecdh.c **** * FITNESS FOR A PARTICULAR PURPOSE AND NONINFRINGEMENT. IN NO EVENT SHALL THE
  20:C:/Workspace/DAVE-4.4.2-64Bit/optiga-trust-m/examples/optiga\example_optiga_crypt_ecdh.c **** * AUTHORS OR COPYRIGHT HOLDERS BE LIABLE FOR ANY CLAIM, DAMAGES OR OTHER
  21:C:/Workspace/DAVE-4.4.2-64Bit/optiga-trust-m/examples/optiga\example_optiga_crypt_ecdh.c **** * LIABILITY, WHETHER IN AN ACTION OF CONTRACT, TORT OR OTHERWISE, ARISING FROM,
  22:C:/Workspace/DAVE-4.4.2-64Bit/optiga-trust-m/examples/optiga\example_optiga_crypt_ecdh.c **** * OUT OF OR IN CONNECTION WITH THE SOFTWARE OR THE USE OR OTHER DEALINGS IN THE
  23:C:/Workspace/DAVE-4.4.2-64Bit/optiga-trust-m/examples/optiga\example_optiga_crypt_ecdh.c **** * SOFTWARE
  24:C:/Workspace/DAVE-4.4.2-64Bit/optiga-trust-m/examples/optiga\example_optiga_crypt_ecdh.c **** *
  25:C:/Workspace/DAVE-4.4.2-64Bit/optiga-trust-m/examples/optiga\example_optiga_crypt_ecdh.c **** * \endcopyright
  26:C:/Workspace/DAVE-4.4.2-64Bit/optiga-trust-m/examples/optiga\example_optiga_crypt_ecdh.c **** *
  27:C:/Workspace/DAVE-4.4.2-64Bit/optiga-trust-m/examples/optiga\example_optiga_crypt_ecdh.c **** * \author Infineon Technologies AG
  28:C:/Workspace/DAVE-4.4.2-64Bit/optiga-trust-m/examples/optiga\example_optiga_crypt_ecdh.c **** *
  29:C:/Workspace/DAVE-4.4.2-64Bit/optiga-trust-m/examples/optiga\example_optiga_crypt_ecdh.c **** * \file example_optiga_crypt_ecdh.c
  30:C:/Workspace/DAVE-4.4.2-64Bit/optiga-trust-m/examples/optiga\example_optiga_crypt_ecdh.c **** *
  31:C:/Workspace/DAVE-4.4.2-64Bit/optiga-trust-m/examples/optiga\example_optiga_crypt_ecdh.c **** * \brief    This file provides the example for ECDH operation using #optiga_crypt_ecdh.
  32:C:/Workspace/DAVE-4.4.2-64Bit/optiga-trust-m/examples/optiga\example_optiga_crypt_ecdh.c **** *
  33:C:/Workspace/DAVE-4.4.2-64Bit/optiga-trust-m/examples/optiga\example_optiga_crypt_ecdh.c **** * \ingroup grOptigaExamples
  34:C:/Workspace/DAVE-4.4.2-64Bit/optiga-trust-m/examples/optiga\example_optiga_crypt_ecdh.c **** *
  35:C:/Workspace/DAVE-4.4.2-64Bit/optiga-trust-m/examples/optiga\example_optiga_crypt_ecdh.c **** * @{
  36:C:/Workspace/DAVE-4.4.2-64Bit/optiga-trust-m/examples/optiga\example_optiga_crypt_ecdh.c **** */
  37:C:/Workspace/DAVE-4.4.2-64Bit/optiga-trust-m/examples/optiga\example_optiga_crypt_ecdh.c **** 
  38:C:/Workspace/DAVE-4.4.2-64Bit/optiga-trust-m/examples/optiga\example_optiga_crypt_ecdh.c **** #include "optiga/optiga_crypt.h"
  39:C:/Workspace/DAVE-4.4.2-64Bit/optiga-trust-m/examples/optiga\example_optiga_crypt_ecdh.c **** #include "optiga_example.h"
  40:C:/Workspace/DAVE-4.4.2-64Bit/optiga-trust-m/examples/optiga\example_optiga_crypt_ecdh.c **** 
  41:C:/Workspace/DAVE-4.4.2-64Bit/optiga-trust-m/examples/optiga\example_optiga_crypt_ecdh.c **** #ifdef OPTIGA_CRYPT_ECDH_ENABLED
  42:C:/Workspace/DAVE-4.4.2-64Bit/optiga-trust-m/examples/optiga\example_optiga_crypt_ecdh.c **** 
  43:C:/Workspace/DAVE-4.4.2-64Bit/optiga-trust-m/examples/optiga\example_optiga_crypt_ecdh.c **** /**
  44:C:/Workspace/DAVE-4.4.2-64Bit/optiga-trust-m/examples/optiga\example_optiga_crypt_ecdh.c ****  * Callback when optiga_crypt_xxxx operation is completed asynchronously
  45:C:/Workspace/DAVE-4.4.2-64Bit/optiga-trust-m/examples/optiga\example_optiga_crypt_ecdh.c ****  */
  46:C:/Workspace/DAVE-4.4.2-64Bit/optiga-trust-m/examples/optiga\example_optiga_crypt_ecdh.c **** static volatile optiga_lib_status_t optiga_lib_status;
  47:C:/Workspace/DAVE-4.4.2-64Bit/optiga-trust-m/examples/optiga\example_optiga_crypt_ecdh.c **** //lint --e{818} suppress "argument "context" is not used in the sample provided"
  48:C:/Workspace/DAVE-4.4.2-64Bit/optiga-trust-m/examples/optiga\example_optiga_crypt_ecdh.c **** static void optiga_crypt_callback(void * context, optiga_lib_status_t return_status)
  49:C:/Workspace/DAVE-4.4.2-64Bit/optiga-trust-m/examples/optiga\example_optiga_crypt_ecdh.c **** {
  25              	 .loc 1 49 0
  26              	 .cfi_startproc
  27              	.LVL0:
  50:C:/Workspace/DAVE-4.4.2-64Bit/optiga-trust-m/examples/optiga\example_optiga_crypt_ecdh.c ****     optiga_lib_status = return_status;
  28              	 .loc 1 50 0
  29 0000 014B     	 ldr r3,.L2
  51:C:/Workspace/DAVE-4.4.2-64Bit/optiga-trust-m/examples/optiga\example_optiga_crypt_ecdh.c ****     if (NULL != context)
  52:C:/Workspace/DAVE-4.4.2-64Bit/optiga-trust-m/examples/optiga\example_optiga_crypt_ecdh.c ****     {
  53:C:/Workspace/DAVE-4.4.2-64Bit/optiga-trust-m/examples/optiga\example_optiga_crypt_ecdh.c ****         // callback to upper layer here
  54:C:/Workspace/DAVE-4.4.2-64Bit/optiga-trust-m/examples/optiga\example_optiga_crypt_ecdh.c ****     }
  55:C:/Workspace/DAVE-4.4.2-64Bit/optiga-trust-m/examples/optiga\example_optiga_crypt_ecdh.c **** }
  30              	 .loc 1 55 0
  31              	 
  50:C:/Workspace/DAVE-4.4.2-64Bit/optiga-trust-m/examples/optiga\example_optiga_crypt_ecdh.c ****     optiga_lib_status = return_status;
  32              	 .loc 1 50 0
  33 0002 1980     	 strh r1,[r3]
  34              	 .loc 1 55 0
  35 0004 7047     	 bx lr
  36              	.L3:
  37 0006 C046     	 .align 2
  38              	.L2:
  39 0008 00000000 	 .word .LANCHOR0
  40              	 .cfi_endproc
  41              	.LFE0:
  43              	 .section .text.example_optiga_crypt_ecdh,"ax",%progbits
  44              	 .align 1
  45              	 .global example_optiga_crypt_ecdh
  46              	 .code 16
  47              	 .thumb_func
  49              	example_optiga_crypt_ecdh:
  50              	.LFB1:
  56:C:/Workspace/DAVE-4.4.2-64Bit/optiga-trust-m/examples/optiga\example_optiga_crypt_ecdh.c **** 
  57:C:/Workspace/DAVE-4.4.2-64Bit/optiga-trust-m/examples/optiga\example_optiga_crypt_ecdh.c **** // Peer public key details for the ECDH operation
  58:C:/Workspace/DAVE-4.4.2-64Bit/optiga-trust-m/examples/optiga\example_optiga_crypt_ecdh.c **** static uint8_t peer_public_key [] =
  59:C:/Workspace/DAVE-4.4.2-64Bit/optiga-trust-m/examples/optiga\example_optiga_crypt_ecdh.c **** {
  60:C:/Workspace/DAVE-4.4.2-64Bit/optiga-trust-m/examples/optiga\example_optiga_crypt_ecdh.c ****     //Bit string format
  61:C:/Workspace/DAVE-4.4.2-64Bit/optiga-trust-m/examples/optiga\example_optiga_crypt_ecdh.c ****     0x03,
  62:C:/Workspace/DAVE-4.4.2-64Bit/optiga-trust-m/examples/optiga\example_optiga_crypt_ecdh.c ****         //Remaining length
  63:C:/Workspace/DAVE-4.4.2-64Bit/optiga-trust-m/examples/optiga\example_optiga_crypt_ecdh.c ****         0x42,
  64:C:/Workspace/DAVE-4.4.2-64Bit/optiga-trust-m/examples/optiga\example_optiga_crypt_ecdh.c ****             //Unused bits
  65:C:/Workspace/DAVE-4.4.2-64Bit/optiga-trust-m/examples/optiga\example_optiga_crypt_ecdh.c ****             0x00,
  66:C:/Workspace/DAVE-4.4.2-64Bit/optiga-trust-m/examples/optiga\example_optiga_crypt_ecdh.c ****             //Compression format
  67:C:/Workspace/DAVE-4.4.2-64Bit/optiga-trust-m/examples/optiga\example_optiga_crypt_ecdh.c ****             0x04,
  68:C:/Workspace/DAVE-4.4.2-64Bit/optiga-trust-m/examples/optiga\example_optiga_crypt_ecdh.c ****             //Public Key
  69:C:/Workspace/DAVE-4.4.2-64Bit/optiga-trust-m/examples/optiga\example_optiga_crypt_ecdh.c ****             0x94, 0x89, 0x2F, 0x09, 0xEA, 0x4E, 0xCA, 0xBC, 0x6A, 0x4E, 0xF2, 0x06, 0x36, 0x26, 0xE
  70:C:/Workspace/DAVE-4.4.2-64Bit/optiga-trust-m/examples/optiga\example_optiga_crypt_ecdh.c ****             0xE0, 0xD5, 0xF9, 0x77, 0xEA, 0xC3, 0xB2, 0x70, 0xAC, 0xE2, 0x19, 0x00, 0xF5, 0xDB, 0x5
  71:C:/Workspace/DAVE-4.4.2-64Bit/optiga-trust-m/examples/optiga\example_optiga_crypt_ecdh.c ****             0x37, 0xBB, 0xBE, 0x46, 0xE4, 0x49, 0x76, 0x38, 0x25, 0xB5, 0xF8, 0x94, 0x74, 0x9E, 0x1
  72:C:/Workspace/DAVE-4.4.2-64Bit/optiga-trust-m/examples/optiga\example_optiga_crypt_ecdh.c ****             0x5A, 0xF1, 0x29, 0xD7, 0x3A, 0xB6, 0x9B, 0x80, 0xAC, 0xC5, 0xE1, 0xC3, 0x10, 0xF2, 0x1
  73:C:/Workspace/DAVE-4.4.2-64Bit/optiga-trust-m/examples/optiga\example_optiga_crypt_ecdh.c **** };
  74:C:/Workspace/DAVE-4.4.2-64Bit/optiga-trust-m/examples/optiga\example_optiga_crypt_ecdh.c **** static public_key_from_host_t peer_public_key_details =
  75:C:/Workspace/DAVE-4.4.2-64Bit/optiga-trust-m/examples/optiga\example_optiga_crypt_ecdh.c **** {
  76:C:/Workspace/DAVE-4.4.2-64Bit/optiga-trust-m/examples/optiga\example_optiga_crypt_ecdh.c ****     (uint8_t *)peer_public_key,
  77:C:/Workspace/DAVE-4.4.2-64Bit/optiga-trust-m/examples/optiga\example_optiga_crypt_ecdh.c ****     sizeof(peer_public_key),
  78:C:/Workspace/DAVE-4.4.2-64Bit/optiga-trust-m/examples/optiga\example_optiga_crypt_ecdh.c ****     (uint8_t)OPTIGA_ECC_CURVE_NIST_P_256,
  79:C:/Workspace/DAVE-4.4.2-64Bit/optiga-trust-m/examples/optiga\example_optiga_crypt_ecdh.c **** };
  80:C:/Workspace/DAVE-4.4.2-64Bit/optiga-trust-m/examples/optiga\example_optiga_crypt_ecdh.c **** 
  81:C:/Workspace/DAVE-4.4.2-64Bit/optiga-trust-m/examples/optiga\example_optiga_crypt_ecdh.c **** /**
  82:C:/Workspace/DAVE-4.4.2-64Bit/optiga-trust-m/examples/optiga\example_optiga_crypt_ecdh.c ****  * The below example demonstrates the generation of
  83:C:/Workspace/DAVE-4.4.2-64Bit/optiga-trust-m/examples/optiga\example_optiga_crypt_ecdh.c ****  * shared secret using #optiga_crypt_ecdh with a session based approach.
  84:C:/Workspace/DAVE-4.4.2-64Bit/optiga-trust-m/examples/optiga\example_optiga_crypt_ecdh.c ****  *
  85:C:/Workspace/DAVE-4.4.2-64Bit/optiga-trust-m/examples/optiga\example_optiga_crypt_ecdh.c ****  */
  86:C:/Workspace/DAVE-4.4.2-64Bit/optiga-trust-m/examples/optiga\example_optiga_crypt_ecdh.c **** void example_optiga_crypt_ecdh(void)
  87:C:/Workspace/DAVE-4.4.2-64Bit/optiga-trust-m/examples/optiga\example_optiga_crypt_ecdh.c **** {
  51              	 .loc 1 87 0
  52              	 .cfi_startproc
  53              	.LVL1:
  54 0000 F0B5     	 push {r4,r5,r6,r7,lr}
  55              	.LCFI0:
  56              	 .cfi_def_cfa_offset 20
  57              	 .cfi_offset 4,-20
  58              	 .cfi_offset 5,-16
  59              	 .cfi_offset 6,-12
  60              	 .cfi_offset 7,-8
  61              	 .cfi_offset 14,-4
  88:C:/Workspace/DAVE-4.4.2-64Bit/optiga-trust-m/examples/optiga\example_optiga_crypt_ecdh.c ****     optiga_lib_status_t return_status = 0;
  89:C:/Workspace/DAVE-4.4.2-64Bit/optiga-trust-m/examples/optiga\example_optiga_crypt_ecdh.c ****     optiga_key_id_t optiga_key_id;
  90:C:/Workspace/DAVE-4.4.2-64Bit/optiga-trust-m/examples/optiga\example_optiga_crypt_ecdh.c **** 
  91:C:/Workspace/DAVE-4.4.2-64Bit/optiga-trust-m/examples/optiga\example_optiga_crypt_ecdh.c ****     //To store the generated public key as part of Generate key pair
  92:C:/Workspace/DAVE-4.4.2-64Bit/optiga-trust-m/examples/optiga\example_optiga_crypt_ecdh.c ****     uint8_t public_key [100];
  93:C:/Workspace/DAVE-4.4.2-64Bit/optiga-trust-m/examples/optiga\example_optiga_crypt_ecdh.c ****     uint16_t public_key_length = sizeof(public_key);
  62              	 .loc 1 93 0
  63 0002 1226     	 mov r6,#18
  87:C:/Workspace/DAVE-4.4.2-64Bit/optiga-trust-m/examples/optiga\example_optiga_crypt_ecdh.c ****     optiga_lib_status_t return_status = 0;
  64              	 .loc 1 87 0
  65 0004 A9B0     	 sub sp,sp,#164
  66              	.LCFI1:
  67              	 .cfi_def_cfa_offset 184
  68              	 .loc 1 93 0
  69 0006 02AB     	 add r3,sp,#8
  70 0008 F618     	 add r6,r6,r3
  71 000a 6423     	 mov r3,#100
  94:C:/Workspace/DAVE-4.4.2-64Bit/optiga-trust-m/examples/optiga\example_optiga_crypt_ecdh.c **** 
  95:C:/Workspace/DAVE-4.4.2-64Bit/optiga-trust-m/examples/optiga\example_optiga_crypt_ecdh.c ****     //To store the generated shared secret as part of ECDH
  96:C:/Workspace/DAVE-4.4.2-64Bit/optiga-trust-m/examples/optiga\example_optiga_crypt_ecdh.c ****     uint8_t shared_secret [32];
  97:C:/Workspace/DAVE-4.4.2-64Bit/optiga-trust-m/examples/optiga\example_optiga_crypt_ecdh.c **** 
  98:C:/Workspace/DAVE-4.4.2-64Bit/optiga-trust-m/examples/optiga\example_optiga_crypt_ecdh.c ****     optiga_crypt_t * me = NULL;
  99:C:/Workspace/DAVE-4.4.2-64Bit/optiga-trust-m/examples/optiga\example_optiga_crypt_ecdh.c ****     OPTIGA_EXAMPLE_LOG_MESSAGE(__FUNCTION__);
  72              	 .loc 1 99 0
  73 000c 344F     	 ldr r7,.L32
  74 000e 354C     	 ldr r4,.L32+4
  75 0010 3548     	 ldr r0,.L32+8
  76 0012 391C     	 mov r1,r7
  77 0014 221C     	 mov r2,r4
  93:C:/Workspace/DAVE-4.4.2-64Bit/optiga-trust-m/examples/optiga\example_optiga_crypt_ecdh.c **** 
  78              	 .loc 1 93 0
  79 0016 3380     	 strh r3,[r6]
  80              	.LVL2:
  81              	 .loc 1 99 0
  82 0018 FFF7FEFF 	 bl optiga_lib_print_message
  83              	.LVL3:
 100:C:/Workspace/DAVE-4.4.2-64Bit/optiga-trust-m/examples/optiga\example_optiga_crypt_ecdh.c **** 
 101:C:/Workspace/DAVE-4.4.2-64Bit/optiga-trust-m/examples/optiga\example_optiga_crypt_ecdh.c ****     do
 102:C:/Workspace/DAVE-4.4.2-64Bit/optiga-trust-m/examples/optiga\example_optiga_crypt_ecdh.c ****     {
 103:C:/Workspace/DAVE-4.4.2-64Bit/optiga-trust-m/examples/optiga\example_optiga_crypt_ecdh.c ****         /**
 104:C:/Workspace/DAVE-4.4.2-64Bit/optiga-trust-m/examples/optiga\example_optiga_crypt_ecdh.c ****          * 1. Create OPTIGA Crypt Instance
 105:C:/Workspace/DAVE-4.4.2-64Bit/optiga-trust-m/examples/optiga\example_optiga_crypt_ecdh.c ****          */
 106:C:/Workspace/DAVE-4.4.2-64Bit/optiga-trust-m/examples/optiga\example_optiga_crypt_ecdh.c ****         me = optiga_crypt_create(0, optiga_crypt_callback, NULL);
  84              	 .loc 1 106 0
  85 001c 0020     	 mov r0,#0
  86 001e 3349     	 ldr r1,.L32+12
  87 0020 021C     	 mov r2,r0
  88 0022 FFF7FEFF 	 bl optiga_crypt_create
  89              	.LVL4:
  90 0026 0497     	 str r7,[sp,#16]
  91 0028 051E     	 sub r5,r0,#0
  92              	.LVL5:
  93 002a 0594     	 str r4,[sp,#20]
 107:C:/Workspace/DAVE-4.4.2-64Bit/optiga-trust-m/examples/optiga\example_optiga_crypt_ecdh.c ****         if (NULL == me)
  94              	 .loc 1 107 0
  95 002c 46D0     	 beq .L11
 108:C:/Workspace/DAVE-4.4.2-64Bit/optiga-trust-m/examples/optiga\example_optiga_crypt_ecdh.c ****         {
 109:C:/Workspace/DAVE-4.4.2-64Bit/optiga-trust-m/examples/optiga\example_optiga_crypt_ecdh.c ****             break;
 110:C:/Workspace/DAVE-4.4.2-64Bit/optiga-trust-m/examples/optiga\example_optiga_crypt_ecdh.c ****         }
 111:C:/Workspace/DAVE-4.4.2-64Bit/optiga-trust-m/examples/optiga\example_optiga_crypt_ecdh.c **** 
 112:C:/Workspace/DAVE-4.4.2-64Bit/optiga-trust-m/examples/optiga\example_optiga_crypt_ecdh.c ****         /**
 113:C:/Workspace/DAVE-4.4.2-64Bit/optiga-trust-m/examples/optiga\example_optiga_crypt_ecdh.c ****          * 2. Generate ECC Key pair - To use the private key with ECDH in the next step
 114:C:/Workspace/DAVE-4.4.2-64Bit/optiga-trust-m/examples/optiga\example_optiga_crypt_ecdh.c ****          *       - Use ECC NIST P 256 Curve
 115:C:/Workspace/DAVE-4.4.2-64Bit/optiga-trust-m/examples/optiga\example_optiga_crypt_ecdh.c ****          *       - Specify the Key Usage as Key Agreement
 116:C:/Workspace/DAVE-4.4.2-64Bit/optiga-trust-m/examples/optiga\example_optiga_crypt_ecdh.c ****          *       - Store the Private key with in OPTIGA Session
 117:C:/Workspace/DAVE-4.4.2-64Bit/optiga-trust-m/examples/optiga\example_optiga_crypt_ecdh.c ****          *       - Export Public Key
 118:C:/Workspace/DAVE-4.4.2-64Bit/optiga-trust-m/examples/optiga\example_optiga_crypt_ecdh.c ****          */
 119:C:/Workspace/DAVE-4.4.2-64Bit/optiga-trust-m/examples/optiga\example_optiga_crypt_ecdh.c ****         optiga_lib_status = OPTIGA_LIB_BUSY;
  96              	 .loc 1 119 0
  97 002e 0124     	 mov r4,#1
  98 0030 2F4B     	 ldr r3,.L32+16
 120:C:/Workspace/DAVE-4.4.2-64Bit/optiga-trust-m/examples/optiga\example_optiga_crypt_ecdh.c ****         optiga_key_id = OPTIGA_KEY_ID_SESSION_BASED;
 121:C:/Workspace/DAVE-4.4.2-64Bit/optiga-trust-m/examples/optiga\example_optiga_crypt_ecdh.c **** 
 122:C:/Workspace/DAVE-4.4.2-64Bit/optiga-trust-m/examples/optiga\example_optiga_crypt_ecdh.c ****         OPTIGA_CRYPT_SET_COMMS_PROTECTION_LEVEL(me, OPTIGA_COMMS_COMMAND_PROTECTION);
  99              	 .loc 1 122 0
 100 0032 211C     	 mov r1,r4
 119:C:/Workspace/DAVE-4.4.2-64Bit/optiga-trust-m/examples/optiga\example_optiga_crypt_ecdh.c ****         optiga_key_id = OPTIGA_KEY_ID_SESSION_BASED;
 101              	 .loc 1 119 0
 102 0034 1C80     	 strh r4,[r3]
 120:C:/Workspace/DAVE-4.4.2-64Bit/optiga-trust-m/examples/optiga\example_optiga_crypt_ecdh.c ****         optiga_key_id = OPTIGA_KEY_ID_SESSION_BASED;
 103              	 .loc 1 120 0
 104 0036 0023     	 mov r3,#0
 105              	 .loc 1 122 0
 106 0038 221C     	 mov r2,r4
 120:C:/Workspace/DAVE-4.4.2-64Bit/optiga-trust-m/examples/optiga\example_optiga_crypt_ecdh.c ****         optiga_key_id = OPTIGA_KEY_ID_SESSION_BASED;
 107              	 .loc 1 120 0
 108 003a 06AF     	 add r7,sp,#24
 109 003c 3B80     	 strh r3,[r7]
 110              	 .loc 1 122 0
 111 003e FFF7FEFF 	 bl optiga_crypt_set_comms_params
 112              	.LVL6:
 123:C:/Workspace/DAVE-4.4.2-64Bit/optiga-trust-m/examples/optiga\example_optiga_crypt_ecdh.c ****         OPTIGA_CRYPT_SET_COMMS_PROTOCOL_VERSION(me, OPTIGA_COMMS_PROTOCOL_VERSION_PRE_SHARED_SECRET
 113              	 .loc 1 123 0
 114 0042 221C     	 mov r2,r4
 115 0044 281C     	 mov r0,r5
 116 0046 0221     	 mov r1,#2
 117 0048 FFF7FEFF 	 bl optiga_crypt_set_comms_params
 118              	.LVL7:
 124:C:/Workspace/DAVE-4.4.2-64Bit/optiga-trust-m/examples/optiga\example_optiga_crypt_ecdh.c ****         return_status = optiga_crypt_ecc_generate_keypair(me,
 119              	 .loc 1 124 0
 120 004c 0FAB     	 add r3,sp,#60
 121 004e 0193     	 str r3,[sp,#4]
 122 0050 2022     	 mov r2,#32
 123 0052 0097     	 str r7,[sp]
 124 0054 0296     	 str r6,[sp,#8]
 125 0056 281C     	 mov r0,r5
 126 0058 0321     	 mov r1,#3
 127 005a 0023     	 mov r3,#0
 128 005c FFF7FEFF 	 bl optiga_crypt_ecc_generate_keypair
 129              	.LVL8:
 130 0060 234C     	 ldr r4,.L32+16
 131 0062 021E     	 sub r2,r0,#0
 132              	.LVL9:
 125:C:/Workspace/DAVE-4.4.2-64Bit/optiga-trust-m/examples/optiga\example_optiga_crypt_ecdh.c ****                                                           OPTIGA_ECC_CURVE_NIST_P_256,
 126:C:/Workspace/DAVE-4.4.2-64Bit/optiga-trust-m/examples/optiga\example_optiga_crypt_ecdh.c ****                                                           (uint8_t)OPTIGA_KEY_USAGE_KEY_AGREEMENT,
 127:C:/Workspace/DAVE-4.4.2-64Bit/optiga-trust-m/examples/optiga\example_optiga_crypt_ecdh.c ****                                                           FALSE,
 128:C:/Workspace/DAVE-4.4.2-64Bit/optiga-trust-m/examples/optiga\example_optiga_crypt_ecdh.c ****                                                           &optiga_key_id,
 129:C:/Workspace/DAVE-4.4.2-64Bit/optiga-trust-m/examples/optiga\example_optiga_crypt_ecdh.c ****                                                           public_key,
 130:C:/Workspace/DAVE-4.4.2-64Bit/optiga-trust-m/examples/optiga\example_optiga_crypt_ecdh.c ****                                                           &public_key_length);
 131:C:/Workspace/DAVE-4.4.2-64Bit/optiga-trust-m/examples/optiga\example_optiga_crypt_ecdh.c ****         if (OPTIGA_LIB_SUCCESS != return_status)
 133              	 .loc 1 131 0
 134 0064 25D1     	 bne .L15
 135              	.L7:
 132:C:/Workspace/DAVE-4.4.2-64Bit/optiga-trust-m/examples/optiga\example_optiga_crypt_ecdh.c ****         {
 133:C:/Workspace/DAVE-4.4.2-64Bit/optiga-trust-m/examples/optiga\example_optiga_crypt_ecdh.c ****             break;
 134:C:/Workspace/DAVE-4.4.2-64Bit/optiga-trust-m/examples/optiga\example_optiga_crypt_ecdh.c ****         }
 135:C:/Workspace/DAVE-4.4.2-64Bit/optiga-trust-m/examples/optiga\example_optiga_crypt_ecdh.c **** 
 136:C:/Workspace/DAVE-4.4.2-64Bit/optiga-trust-m/examples/optiga\example_optiga_crypt_ecdh.c ****         while (OPTIGA_LIB_BUSY == optiga_lib_status)
 136              	 .loc 1 136 0 discriminator 1
 137 0066 2388     	 ldrh r3,[r4]
 138 0068 012B     	 cmp r3,#1
 139 006a FCD0     	 beq .L7
 137:C:/Workspace/DAVE-4.4.2-64Bit/optiga-trust-m/examples/optiga\example_optiga_crypt_ecdh.c ****         {
 138:C:/Workspace/DAVE-4.4.2-64Bit/optiga-trust-m/examples/optiga\example_optiga_crypt_ecdh.c ****             //Wait until the optiga_crypt_ecc_generate_keypair operation is completed
 139:C:/Workspace/DAVE-4.4.2-64Bit/optiga-trust-m/examples/optiga\example_optiga_crypt_ecdh.c ****         }
 140:C:/Workspace/DAVE-4.4.2-64Bit/optiga-trust-m/examples/optiga\example_optiga_crypt_ecdh.c **** 
 141:C:/Workspace/DAVE-4.4.2-64Bit/optiga-trust-m/examples/optiga\example_optiga_crypt_ecdh.c ****         if (OPTIGA_LIB_SUCCESS != optiga_lib_status)
 140              	 .loc 1 141 0
 141 006c 2388     	 ldrh r3,[r4]
 142 006e 002B     	 cmp r3,#0
 143 0070 1BD1     	 bne .L30
 142:C:/Workspace/DAVE-4.4.2-64Bit/optiga-trust-m/examples/optiga\example_optiga_crypt_ecdh.c ****         {
 143:C:/Workspace/DAVE-4.4.2-64Bit/optiga-trust-m/examples/optiga\example_optiga_crypt_ecdh.c ****             return_status = optiga_lib_status;
 144:C:/Workspace/DAVE-4.4.2-64Bit/optiga-trust-m/examples/optiga\example_optiga_crypt_ecdh.c ****             break;
 145:C:/Workspace/DAVE-4.4.2-64Bit/optiga-trust-m/examples/optiga\example_optiga_crypt_ecdh.c ****         }
 146:C:/Workspace/DAVE-4.4.2-64Bit/optiga-trust-m/examples/optiga\example_optiga_crypt_ecdh.c **** 
 147:C:/Workspace/DAVE-4.4.2-64Bit/optiga-trust-m/examples/optiga\example_optiga_crypt_ecdh.c ****         /**
 148:C:/Workspace/DAVE-4.4.2-64Bit/optiga-trust-m/examples/optiga\example_optiga_crypt_ecdh.c ****          * 3. Perform ECDH using the Peer Public key
 149:C:/Workspace/DAVE-4.4.2-64Bit/optiga-trust-m/examples/optiga\example_optiga_crypt_ecdh.c ****          *       - Use ECC NIST P 256 Curve
 150:C:/Workspace/DAVE-4.4.2-64Bit/optiga-trust-m/examples/optiga\example_optiga_crypt_ecdh.c ****          *       - Provide the peer public key details
 151:C:/Workspace/DAVE-4.4.2-64Bit/optiga-trust-m/examples/optiga\example_optiga_crypt_ecdh.c ****          *       - Export the generated shared secret with protected I2C communication
 152:C:/Workspace/DAVE-4.4.2-64Bit/optiga-trust-m/examples/optiga\example_optiga_crypt_ecdh.c ****          */
 153:C:/Workspace/DAVE-4.4.2-64Bit/optiga-trust-m/examples/optiga\example_optiga_crypt_ecdh.c ****         optiga_lib_status = OPTIGA_LIB_BUSY;
 144              	 .loc 1 153 0
 145 0072 0126     	 mov r6,#1
 154:C:/Workspace/DAVE-4.4.2-64Bit/optiga-trust-m/examples/optiga\example_optiga_crypt_ecdh.c ****         OPTIGA_CRYPT_SET_COMMS_PROTECTION_LEVEL(me, OPTIGA_COMMS_COMMAND_PROTECTION);
 146              	 .loc 1 154 0
 147 0074 281C     	 mov r0,r5
 148              	.LVL10:
 149 0076 311C     	 mov r1,r6
 150 0078 321C     	 mov r2,r6
 151              	.LVL11:
 153:C:/Workspace/DAVE-4.4.2-64Bit/optiga-trust-m/examples/optiga\example_optiga_crypt_ecdh.c ****         OPTIGA_CRYPT_SET_COMMS_PROTECTION_LEVEL(me, OPTIGA_COMMS_COMMAND_PROTECTION);
 152              	 .loc 1 153 0
 153 007a 2680     	 strh r6,[r4]
 154              	 .loc 1 154 0
 155 007c FFF7FEFF 	 bl optiga_crypt_set_comms_params
 156              	.LVL12:
 155:C:/Workspace/DAVE-4.4.2-64Bit/optiga-trust-m/examples/optiga\example_optiga_crypt_ecdh.c ****         OPTIGA_CRYPT_SET_COMMS_PROTOCOL_VERSION(me, OPTIGA_COMMS_PROTOCOL_VERSION_PRE_SHARED_SECRET
 157              	 .loc 1 155 0
 158 0080 281C     	 mov r0,r5
 159 0082 0221     	 mov r1,#2
 160 0084 321C     	 mov r2,r6
 161 0086 FFF7FEFF 	 bl optiga_crypt_set_comms_params
 162              	.LVL13:
 156:C:/Workspace/DAVE-4.4.2-64Bit/optiga-trust-m/examples/optiga\example_optiga_crypt_ecdh.c ****         return_status = optiga_crypt_ecdh(me,
 163              	 .loc 1 156 0
 164 008a 07AB     	 add r3,sp,#28
 165 008c 3988     	 ldrh r1,[r7]
 166 008e 194A     	 ldr r2,.L32+20
 167 0090 0093     	 str r3,[sp]
 168 0092 281C     	 mov r0,r5
 169 0094 331C     	 mov r3,r6
 170 0096 FFF7FEFF 	 bl optiga_crypt_ecdh
 171              	.LVL14:
 172 009a 021E     	 sub r2,r0,#0
 173              	.LVL15:
 157:C:/Workspace/DAVE-4.4.2-64Bit/optiga-trust-m/examples/optiga\example_optiga_crypt_ecdh.c ****                                           optiga_key_id,
 158:C:/Workspace/DAVE-4.4.2-64Bit/optiga-trust-m/examples/optiga\example_optiga_crypt_ecdh.c ****                                           &peer_public_key_details,
 159:C:/Workspace/DAVE-4.4.2-64Bit/optiga-trust-m/examples/optiga\example_optiga_crypt_ecdh.c ****                                           TRUE,
 160:C:/Workspace/DAVE-4.4.2-64Bit/optiga-trust-m/examples/optiga\example_optiga_crypt_ecdh.c ****                                           shared_secret);
 161:C:/Workspace/DAVE-4.4.2-64Bit/optiga-trust-m/examples/optiga\example_optiga_crypt_ecdh.c ****         if (OPTIGA_LIB_SUCCESS != return_status)
 174              	 .loc 1 161 0
 175 009c 09D1     	 bne .L15
 176              	.L10:
 162:C:/Workspace/DAVE-4.4.2-64Bit/optiga-trust-m/examples/optiga\example_optiga_crypt_ecdh.c ****         {
 163:C:/Workspace/DAVE-4.4.2-64Bit/optiga-trust-m/examples/optiga\example_optiga_crypt_ecdh.c ****             break;
 164:C:/Workspace/DAVE-4.4.2-64Bit/optiga-trust-m/examples/optiga\example_optiga_crypt_ecdh.c ****         }
 165:C:/Workspace/DAVE-4.4.2-64Bit/optiga-trust-m/examples/optiga\example_optiga_crypt_ecdh.c **** 
 166:C:/Workspace/DAVE-4.4.2-64Bit/optiga-trust-m/examples/optiga\example_optiga_crypt_ecdh.c ****         while (OPTIGA_LIB_BUSY == optiga_lib_status)
 177              	 .loc 1 166 0 discriminator 1
 178 009e 2388     	 ldrh r3,[r4]
 179 00a0 012B     	 cmp r3,#1
 180 00a2 FCD0     	 beq .L10
 167:C:/Workspace/DAVE-4.4.2-64Bit/optiga-trust-m/examples/optiga\example_optiga_crypt_ecdh.c ****         {
 168:C:/Workspace/DAVE-4.4.2-64Bit/optiga-trust-m/examples/optiga\example_optiga_crypt_ecdh.c ****             //Wait until the optiga_crypt_ecdh operation is completed
 169:C:/Workspace/DAVE-4.4.2-64Bit/optiga-trust-m/examples/optiga\example_optiga_crypt_ecdh.c ****         }
 170:C:/Workspace/DAVE-4.4.2-64Bit/optiga-trust-m/examples/optiga\example_optiga_crypt_ecdh.c **** 
 171:C:/Workspace/DAVE-4.4.2-64Bit/optiga-trust-m/examples/optiga\example_optiga_crypt_ecdh.c ****         if (OPTIGA_LIB_SUCCESS != optiga_lib_status)
 181              	 .loc 1 171 0
 182 00a4 2388     	 ldrh r3,[r4]
 183 00a6 002B     	 cmp r3,#0
 184 00a8 08D0     	 beq .L11
 185              	.LVL16:
 186              	.L30:
 172:C:/Workspace/DAVE-4.4.2-64Bit/optiga-trust-m/examples/optiga\example_optiga_crypt_ecdh.c ****         {
 173:C:/Workspace/DAVE-4.4.2-64Bit/optiga-trust-m/examples/optiga\example_optiga_crypt_ecdh.c ****             //ECDH Operation failed.
 174:C:/Workspace/DAVE-4.4.2-64Bit/optiga-trust-m/examples/optiga\example_optiga_crypt_ecdh.c ****             return_status = optiga_lib_status;
 187              	 .loc 1 174 0
 188 00aa 2288     	 ldrh r2,[r4]
 189 00ac 92B2     	 uxth r2,r2
 190              	.LVL17:
 175:C:/Workspace/DAVE-4.4.2-64Bit/optiga-trust-m/examples/optiga\example_optiga_crypt_ecdh.c ****             break;
 176:C:/Workspace/DAVE-4.4.2-64Bit/optiga-trust-m/examples/optiga\example_optiga_crypt_ecdh.c ****         }
 177:C:/Workspace/DAVE-4.4.2-64Bit/optiga-trust-m/examples/optiga\example_optiga_crypt_ecdh.c ****         return_status = OPTIGA_LIB_SUCCESS;
 178:C:/Workspace/DAVE-4.4.2-64Bit/optiga-trust-m/examples/optiga\example_optiga_crypt_ecdh.c ****     } while (FALSE);
 179:C:/Workspace/DAVE-4.4.2-64Bit/optiga-trust-m/examples/optiga\example_optiga_crypt_ecdh.c ****     OPTIGA_EXAMPLE_LOG_STATUS(return_status);
 191              	 .loc 1 179 0
 192 00ae 002A     	 cmp r2,#0
 193 00b0 04D0     	 beq .L11
 194              	.LVL18:
 195              	.L15:
 196              	 .loc 1 179 0 is_stmt 0 discriminator 1
 197 00b2 0498     	 ldr r0,[sp,#16]
 198 00b4 1049     	 ldr r1,.L32+24
 199 00b6 FFF7FEFF 	 bl optiga_lib_print_status
 200              	.LVL19:
 201 00ba 06E0     	 b .L12
 202              	.L11:
 203              	 .loc 1 179 0 discriminator 2
 204 00bc 0498     	 ldr r0,[sp,#16]
 205 00be 0599     	 ldr r1,[sp,#20]
 206 00c0 0022     	 mov r2,#0
 207 00c2 FFF7FEFF 	 bl optiga_lib_print_status
 208              	.LVL20:
 180:C:/Workspace/DAVE-4.4.2-64Bit/optiga-trust-m/examples/optiga\example_optiga_crypt_ecdh.c ****     
 181:C:/Workspace/DAVE-4.4.2-64Bit/optiga-trust-m/examples/optiga\example_optiga_crypt_ecdh.c ****     if (me)
 209              	 .loc 1 181 0 is_stmt 1 discriminator 2
 210 00c6 002D     	 cmp r5,#0
 211 00c8 08D0     	 beq .L4
 212              	.L12:
 182:C:/Workspace/DAVE-4.4.2-64Bit/optiga-trust-m/examples/optiga\example_optiga_crypt_ecdh.c ****     {
 183:C:/Workspace/DAVE-4.4.2-64Bit/optiga-trust-m/examples/optiga\example_optiga_crypt_ecdh.c ****         //Destroy the instance after the completion of usecase if not required.
 184:C:/Workspace/DAVE-4.4.2-64Bit/optiga-trust-m/examples/optiga\example_optiga_crypt_ecdh.c ****         return_status = optiga_crypt_destroy(me);
 213              	 .loc 1 184 0
 214 00ca 281C     	 mov r0,r5
 215 00cc FFF7FEFF 	 bl optiga_crypt_destroy
 216              	.LVL21:
 217 00d0 021E     	 sub r2,r0,#0
 218              	.LVL22:
 185:C:/Workspace/DAVE-4.4.2-64Bit/optiga-trust-m/examples/optiga\example_optiga_crypt_ecdh.c ****         if(OPTIGA_LIB_SUCCESS != return_status)
 219              	 .loc 1 185 0
 220 00d2 03D0     	 beq .L4
 186:C:/Workspace/DAVE-4.4.2-64Bit/optiga-trust-m/examples/optiga\example_optiga_crypt_ecdh.c ****         {
 187:C:/Workspace/DAVE-4.4.2-64Bit/optiga-trust-m/examples/optiga\example_optiga_crypt_ecdh.c ****             //lint --e{774} suppress This is a generic macro
 188:C:/Workspace/DAVE-4.4.2-64Bit/optiga-trust-m/examples/optiga\example_optiga_crypt_ecdh.c ****             OPTIGA_EXAMPLE_LOG_STATUS(return_status);
 221              	 .loc 1 188 0 discriminator 1
 222 00d4 0498     	 ldr r0,[sp,#16]
 223              	.LVL23:
 224 00d6 0849     	 ldr r1,.L32+24
 225 00d8 FFF7FEFF 	 bl optiga_lib_print_status
 226              	.LVL24:
 227              	.L4:
 189:C:/Workspace/DAVE-4.4.2-64Bit/optiga-trust-m/examples/optiga\example_optiga_crypt_ecdh.c ****         }
 190:C:/Workspace/DAVE-4.4.2-64Bit/optiga-trust-m/examples/optiga\example_optiga_crypt_ecdh.c ****     }
 191:C:/Workspace/DAVE-4.4.2-64Bit/optiga-trust-m/examples/optiga\example_optiga_crypt_ecdh.c **** }
 228              	 .loc 1 191 0
 229 00dc 29B0     	 add sp,sp,#164
 230              	 
 231              	.LVL25:
 232 00de F0BD     	 pop {r4,r5,r6,r7,pc}
 233              	.L33:
 234              	 .align 2
 235              	.L32:
 236 00e0 00000000 	 .word .LC2
 237 00e4 15000000 	 .word .LC4
 238 00e8 00000000 	 .word .LANCHOR1
 239 00ec 00000000 	 .word optiga_crypt_callback
 240 00f0 00000000 	 .word .LANCHOR0
 241 00f4 00000000 	 .word .LANCHOR2
 242 00f8 1A000000 	 .word .LC9
 243              	 .cfi_endproc
 244              	.LFE1:
 246              	 .section .data.peer_public_key,"aw",%progbits
 249              	peer_public_key:
 250 0000 03       	 .byte 3
 251 0001 42       	 .byte 66
 252 0002 00       	 .byte 0
 253 0003 04       	 .byte 4
 254 0004 94       	 .byte -108
 255 0005 89       	 .byte -119
 256 0006 2F       	 .byte 47
 257 0007 09       	 .byte 9
 258 0008 EA       	 .byte -22
 259 0009 4E       	 .byte 78
 260 000a CA       	 .byte -54
 261 000b BC       	 .byte -68
 262 000c 6A       	 .byte 106
 263 000d 4E       	 .byte 78
 264 000e F2       	 .byte -14
 265 000f 06       	 .byte 6
 266 0010 36       	 .byte 54
 267 0011 26       	 .byte 38
 268 0012 E0       	 .byte -32
 269 0013 5D       	 .byte 93
 270 0014 E0       	 .byte -32
 271 0015 D5       	 .byte -43
 272 0016 F9       	 .byte -7
 273 0017 77       	 .byte 119
 274 0018 EA       	 .byte -22
 275 0019 C3       	 .byte -61
 276 001a B2       	 .byte -78
 277 001b 70       	 .byte 112
 278 001c AC       	 .byte -84
 279 001d E2       	 .byte -30
 280 001e 19       	 .byte 25
 281 001f 00       	 .byte 0
 282 0020 F5       	 .byte -11
 283 0021 DB       	 .byte -37
 284 0022 56       	 .byte 86
 285 0023 E7       	 .byte -25
 286 0024 37       	 .byte 55
 287 0025 BB       	 .byte -69
 288 0026 BE       	 .byte -66
 289 0027 46       	 .byte 70
 290 0028 E4       	 .byte -28
 291 0029 49       	 .byte 73
 292 002a 76       	 .byte 118
 293 002b 38       	 .byte 56
 294 002c 25       	 .byte 37
 295 002d B5       	 .byte -75
 296 002e F8       	 .byte -8
 297 002f 94       	 .byte -108
 298 0030 74       	 .byte 116
 299 0031 9E       	 .byte -98
 300 0032 1A       	 .byte 26
 301 0033 B6       	 .byte -74
 302 0034 5A       	 .byte 90
 303 0035 F1       	 .byte -15
 304 0036 29       	 .byte 41
 305 0037 D7       	 .byte -41
 306 0038 3A       	 .byte 58
 307 0039 B6       	 .byte -74
 308 003a 9B       	 .byte -101
 309 003b 80       	 .byte -128
 310 003c AC       	 .byte -84
 311 003d C5       	 .byte -59
 312 003e E1       	 .byte -31
 313 003f C3       	 .byte -61
 314 0040 10       	 .byte 16
 315 0041 F2       	 .byte -14
 316 0042 16       	 .byte 22
 317 0043 C6       	 .byte -58
 318              	 .section .rodata.str1.1,"aMS",%progbits,1
 319              	.LC2:
 320 0000 5B6F7074 	 .ascii "[optiga example]  : \000"
 320      69676120 
 320      6578616D 
 320      706C655D 
 320      20203A20 
 321              	.LC4:
 322 0015 1B5B306D 	 .ascii "\033[0m\000"
 322      00
 323              	.LC9:
 324 001a 1B5B3331 	 .ascii "\033[31m\000"
 324      6D00
 325              	 .section .data.peer_public_key_details,"aw",%progbits
 326              	 .align 2
 327              	 .set .LANCHOR2,.+0
 330              	peer_public_key_details:
 331 0000 00000000 	 .word peer_public_key
 332 0004 4400     	 .short 68
 333 0006 03       	 .byte 3
 334 0007 00       	 .space 1
 335              	 .section .bss.optiga_lib_status,"aw",%nobits
 336              	 .align 1
 337              	 .set .LANCHOR0,.+0
 340              	optiga_lib_status:
 341 0000 0000     	 .space 2
 342              	 .section .rodata.__FUNCTION__.6006,"a",%progbits
 343              	 .set .LANCHOR1,.+0
 346              	__FUNCTION__.6006:
 347 0000 6578616D 	 .ascii "example_optiga_crypt_ecdh\000"
 347      706C655F 
 347      6F707469 
 347      67615F63 
 347      72797074 
 348              	 .text
 349              	.Letext0:
 350              	 .file 2 "c:\\dave_4-4-2_64bit\\dave-ide-4.4.2-64bit\\eclipse\\arm-gcc-49\\arm-none-eabi\\include\\machine\\_default_types.h"
 351              	 .file 3 "c:\\dave_4-4-2_64bit\\dave-ide-4.4.2-64bit\\eclipse\\arm-gcc-49\\arm-none-eabi\\include\\stdint.h"
 352              	 .file 4 "C:/Workspace/DAVE-4.4.2-64Bit/optiga-trust-m/optiga/include/optiga/common/optiga_lib_types.h"
 353              	 .file 5 "C:/Workspace/DAVE-4.4.2-64Bit/optiga-trust-m/optiga/include/optiga/common/optiga_lib_common.h"
 354              	 .file 6 "C:/Workspace/DAVE-4.4.2-64Bit/optiga-trust-m/optiga/include/optiga/cmd/optiga_cmd.h"
 355              	 .file 7 "C:/Workspace/DAVE-4.4.2-64Bit/optiga-trust-m/optiga/include/optiga/optiga_crypt.h"
 356              	 .file 8 "C:/Workspace/DAVE-4.4.2-64Bit/optiga-trust-m/optiga/include/optiga/common/optiga_lib_logger.h"