   1              	 .cpu cortex-m0
   2              	 .fpu softvfp
   3              	 .eabi_attribute 20,1
   4              	 .eabi_attribute 21,1
   5              	 .eabi_attribute 23,3
   6              	 .eabi_attribute 24,1
   7              	 .eabi_attribute 25,1
   8              	 .eabi_attribute 26,1
   9              	 .eabi_attribute 30,4
  10              	 .eabi_attribute 34,0
  11              	 .eabi_attribute 18,4
  12              	 .code 16
  13              	 .file "example_optiga_crypt_rsa_verify.c"
  14              	 .text
  15              	.Ltext0:
  16              	 .cfi_sections .debug_frame
  17              	 .section .text.optiga_crypt_callback,"ax",%progbits
  18              	 .align 1
  19              	 .code 16
  20              	 .thumb_func
  22              	optiga_crypt_callback:
  23              	.LFB0:
  24              	 .file 1 "C:/Workspace/DAVE-4.4.2-64Bit/optiga-trust-m/examples/optiga/example_optiga_crypt_rsa_verify.c"
   1:C:/Workspace/DAVE-4.4.2-64Bit/optiga-trust-m/examples/optiga\example_optiga_crypt_rsa_verify.c **** /**
   2:C:/Workspace/DAVE-4.4.2-64Bit/optiga-trust-m/examples/optiga\example_optiga_crypt_rsa_verify.c **** * \copyright
   3:C:/Workspace/DAVE-4.4.2-64Bit/optiga-trust-m/examples/optiga\example_optiga_crypt_rsa_verify.c **** * MIT License
   4:C:/Workspace/DAVE-4.4.2-64Bit/optiga-trust-m/examples/optiga\example_optiga_crypt_rsa_verify.c **** *
   5:C:/Workspace/DAVE-4.4.2-64Bit/optiga-trust-m/examples/optiga\example_optiga_crypt_rsa_verify.c **** * Copyright (c) 2019 Infineon Technologies AG
   6:C:/Workspace/DAVE-4.4.2-64Bit/optiga-trust-m/examples/optiga\example_optiga_crypt_rsa_verify.c **** *
   7:C:/Workspace/DAVE-4.4.2-64Bit/optiga-trust-m/examples/optiga\example_optiga_crypt_rsa_verify.c **** * Permission is hereby granted, free of charge, to any person obtaining a copy
   8:C:/Workspace/DAVE-4.4.2-64Bit/optiga-trust-m/examples/optiga\example_optiga_crypt_rsa_verify.c **** * of this software and associated documentation files (the "Software"), to deal
   9:C:/Workspace/DAVE-4.4.2-64Bit/optiga-trust-m/examples/optiga\example_optiga_crypt_rsa_verify.c **** * in the Software without restriction, including without limitation the rights
  10:C:/Workspace/DAVE-4.4.2-64Bit/optiga-trust-m/examples/optiga\example_optiga_crypt_rsa_verify.c **** * to use, copy, modify, merge, publish, distribute, sublicense, and/or sell
  11:C:/Workspace/DAVE-4.4.2-64Bit/optiga-trust-m/examples/optiga\example_optiga_crypt_rsa_verify.c **** * copies of the Software, and to permit persons to whom the Software is
  12:C:/Workspace/DAVE-4.4.2-64Bit/optiga-trust-m/examples/optiga\example_optiga_crypt_rsa_verify.c **** * furnished to do so, subject to the following conditions:
  13:C:/Workspace/DAVE-4.4.2-64Bit/optiga-trust-m/examples/optiga\example_optiga_crypt_rsa_verify.c **** *
  14:C:/Workspace/DAVE-4.4.2-64Bit/optiga-trust-m/examples/optiga\example_optiga_crypt_rsa_verify.c **** * The above copyright notice and this permission notice shall be included in all
  15:C:/Workspace/DAVE-4.4.2-64Bit/optiga-trust-m/examples/optiga\example_optiga_crypt_rsa_verify.c **** * copies or substantial portions of the Software.
  16:C:/Workspace/DAVE-4.4.2-64Bit/optiga-trust-m/examples/optiga\example_optiga_crypt_rsa_verify.c **** *
  17:C:/Workspace/DAVE-4.4.2-64Bit/optiga-trust-m/examples/optiga\example_optiga_crypt_rsa_verify.c **** * THE SOFTWARE IS PROVIDED "AS IS", WITHOUT WARRANTY OF ANY KIND, EXPRESS OR
  18:C:/Workspace/DAVE-4.4.2-64Bit/optiga-trust-m/examples/optiga\example_optiga_crypt_rsa_verify.c **** * IMPLIED, INCLUDING BUT NOT LIMITED TO THE WARRANTIES OF MERCHANTABILITY,
  19:C:/Workspace/DAVE-4.4.2-64Bit/optiga-trust-m/examples/optiga\example_optiga_crypt_rsa_verify.c **** * FITNESS FOR A PARTICULAR PURPOSE AND NONINFRINGEMENT. IN NO EVENT SHALL THE
  20:C:/Workspace/DAVE-4.4.2-64Bit/optiga-trust-m/examples/optiga\example_optiga_crypt_rsa_verify.c **** * AUTHORS OR COPYRIGHT HOLDERS BE LIABLE FOR ANY CLAIM, DAMAGES OR OTHER
  21:C:/Workspace/DAVE-4.4.2-64Bit/optiga-trust-m/examples/optiga\example_optiga_crypt_rsa_verify.c **** * LIABILITY, WHETHER IN AN ACTION OF CONTRACT, TORT OR OTHERWISE, ARISING FROM,
  22:C:/Workspace/DAVE-4.4.2-64Bit/optiga-trust-m/examples/optiga\example_optiga_crypt_rsa_verify.c **** * OUT OF OR IN CONNECTION WITH THE SOFTWARE OR THE USE OR OTHER DEALINGS IN THE
  23:C:/Workspace/DAVE-4.4.2-64Bit/optiga-trust-m/examples/optiga\example_optiga_crypt_rsa_verify.c **** * SOFTWARE
  24:C:/Workspace/DAVE-4.4.2-64Bit/optiga-trust-m/examples/optiga\example_optiga_crypt_rsa_verify.c **** *
  25:C:/Workspace/DAVE-4.4.2-64Bit/optiga-trust-m/examples/optiga\example_optiga_crypt_rsa_verify.c **** * \endcopyright
  26:C:/Workspace/DAVE-4.4.2-64Bit/optiga-trust-m/examples/optiga\example_optiga_crypt_rsa_verify.c **** *
  27:C:/Workspace/DAVE-4.4.2-64Bit/optiga-trust-m/examples/optiga\example_optiga_crypt_rsa_verify.c **** * \author Infineon Technologies AG
  28:C:/Workspace/DAVE-4.4.2-64Bit/optiga-trust-m/examples/optiga\example_optiga_crypt_rsa_verify.c **** *
  29:C:/Workspace/DAVE-4.4.2-64Bit/optiga-trust-m/examples/optiga\example_optiga_crypt_rsa_verify.c **** * \file example_optiga_crypt_rsa_verify.c
  30:C:/Workspace/DAVE-4.4.2-64Bit/optiga-trust-m/examples/optiga\example_optiga_crypt_rsa_verify.c **** *
  31:C:/Workspace/DAVE-4.4.2-64Bit/optiga-trust-m/examples/optiga\example_optiga_crypt_rsa_verify.c **** * \brief   This file provides the example for RSA verify operation using #optiga_crypt_rsa_verify.
  32:C:/Workspace/DAVE-4.4.2-64Bit/optiga-trust-m/examples/optiga\example_optiga_crypt_rsa_verify.c **** *
  33:C:/Workspace/DAVE-4.4.2-64Bit/optiga-trust-m/examples/optiga\example_optiga_crypt_rsa_verify.c **** * \ingroup grOptigaExamples
  34:C:/Workspace/DAVE-4.4.2-64Bit/optiga-trust-m/examples/optiga\example_optiga_crypt_rsa_verify.c **** *
  35:C:/Workspace/DAVE-4.4.2-64Bit/optiga-trust-m/examples/optiga\example_optiga_crypt_rsa_verify.c **** * @{
  36:C:/Workspace/DAVE-4.4.2-64Bit/optiga-trust-m/examples/optiga\example_optiga_crypt_rsa_verify.c **** */
  37:C:/Workspace/DAVE-4.4.2-64Bit/optiga-trust-m/examples/optiga\example_optiga_crypt_rsa_verify.c **** 
  38:C:/Workspace/DAVE-4.4.2-64Bit/optiga-trust-m/examples/optiga\example_optiga_crypt_rsa_verify.c **** #include "optiga/optiga_crypt.h"
  39:C:/Workspace/DAVE-4.4.2-64Bit/optiga-trust-m/examples/optiga\example_optiga_crypt_rsa_verify.c **** #include "optiga_example.h"
  40:C:/Workspace/DAVE-4.4.2-64Bit/optiga-trust-m/examples/optiga\example_optiga_crypt_rsa_verify.c **** 
  41:C:/Workspace/DAVE-4.4.2-64Bit/optiga-trust-m/examples/optiga\example_optiga_crypt_rsa_verify.c **** #ifdef OPTIGA_CRYPT_RSA_VERIFY_ENABLED
  42:C:/Workspace/DAVE-4.4.2-64Bit/optiga-trust-m/examples/optiga\example_optiga_crypt_rsa_verify.c **** 
  43:C:/Workspace/DAVE-4.4.2-64Bit/optiga-trust-m/examples/optiga\example_optiga_crypt_rsa_verify.c **** /**
  44:C:/Workspace/DAVE-4.4.2-64Bit/optiga-trust-m/examples/optiga\example_optiga_crypt_rsa_verify.c ****  * Callback when optiga_crypt_xxxx operation is completed asynchronously
  45:C:/Workspace/DAVE-4.4.2-64Bit/optiga-trust-m/examples/optiga\example_optiga_crypt_rsa_verify.c ****  */
  46:C:/Workspace/DAVE-4.4.2-64Bit/optiga-trust-m/examples/optiga\example_optiga_crypt_rsa_verify.c **** static volatile optiga_lib_status_t optiga_lib_status;
  47:C:/Workspace/DAVE-4.4.2-64Bit/optiga-trust-m/examples/optiga\example_optiga_crypt_rsa_verify.c **** //lint --e{818} suppress "argument "context" is not used in the sample provided"
  48:C:/Workspace/DAVE-4.4.2-64Bit/optiga-trust-m/examples/optiga\example_optiga_crypt_rsa_verify.c **** static void optiga_crypt_callback(void * context, optiga_lib_status_t return_status)
  49:C:/Workspace/DAVE-4.4.2-64Bit/optiga-trust-m/examples/optiga\example_optiga_crypt_rsa_verify.c **** {
  25              	 .loc 1 49 0
  26              	 .cfi_startproc
  27              	.LVL0:
  50:C:/Workspace/DAVE-4.4.2-64Bit/optiga-trust-m/examples/optiga\example_optiga_crypt_rsa_verify.c ****     optiga_lib_status = return_status;
  28              	 .loc 1 50 0
  29 0000 014B     	 ldr r3,.L2
  51:C:/Workspace/DAVE-4.4.2-64Bit/optiga-trust-m/examples/optiga\example_optiga_crypt_rsa_verify.c ****     if (NULL != context)
  52:C:/Workspace/DAVE-4.4.2-64Bit/optiga-trust-m/examples/optiga\example_optiga_crypt_rsa_verify.c ****     {
  53:C:/Workspace/DAVE-4.4.2-64Bit/optiga-trust-m/examples/optiga\example_optiga_crypt_rsa_verify.c ****         // callback to upper layer here
  54:C:/Workspace/DAVE-4.4.2-64Bit/optiga-trust-m/examples/optiga\example_optiga_crypt_rsa_verify.c ****     }
  55:C:/Workspace/DAVE-4.4.2-64Bit/optiga-trust-m/examples/optiga\example_optiga_crypt_rsa_verify.c **** }
  30              	 .loc 1 55 0
  31              	 
  50:C:/Workspace/DAVE-4.4.2-64Bit/optiga-trust-m/examples/optiga\example_optiga_crypt_rsa_verify.c ****     optiga_lib_status = return_status;
  32              	 .loc 1 50 0
  33 0002 1980     	 strh r1,[r3]
  34              	 .loc 1 55 0
  35 0004 7047     	 bx lr
  36              	.L3:
  37 0006 C046     	 .align 2
  38              	.L2:
  39 0008 00000000 	 .word .LANCHOR0
  40              	 .cfi_endproc
  41              	.LFE0:
  43              	 .section .text.example_optiga_crypt_rsa_verify,"ax",%progbits
  44              	 .align 1
  45              	 .global example_optiga_crypt_rsa_verify
  46              	 .code 16
  47              	 .thumb_func
  49              	example_optiga_crypt_rsa_verify:
  50              	.LFB1:
  56:C:/Workspace/DAVE-4.4.2-64Bit/optiga-trust-m/examples/optiga\example_optiga_crypt_rsa_verify.c **** 
  57:C:/Workspace/DAVE-4.4.2-64Bit/optiga-trust-m/examples/optiga\example_optiga_crypt_rsa_verify.c **** // RSA 1024 public key
  58:C:/Workspace/DAVE-4.4.2-64Bit/optiga-trust-m/examples/optiga\example_optiga_crypt_rsa_verify.c **** static uint8_t public_key [] = {
  59:C:/Workspace/DAVE-4.4.2-64Bit/optiga-trust-m/examples/optiga\example_optiga_crypt_rsa_verify.c ****     //BIT String
  60:C:/Workspace/DAVE-4.4.2-64Bit/optiga-trust-m/examples/optiga\example_optiga_crypt_rsa_verify.c ****     0x03,
  61:C:/Workspace/DAVE-4.4.2-64Bit/optiga-trust-m/examples/optiga\example_optiga_crypt_rsa_verify.c ****         //BIT String Length
  62:C:/Workspace/DAVE-4.4.2-64Bit/optiga-trust-m/examples/optiga\example_optiga_crypt_rsa_verify.c ****         0x81, 0x8E,
  63:C:/Workspace/DAVE-4.4.2-64Bit/optiga-trust-m/examples/optiga\example_optiga_crypt_rsa_verify.c ****         //UnusedBits
  64:C:/Workspace/DAVE-4.4.2-64Bit/optiga-trust-m/examples/optiga\example_optiga_crypt_rsa_verify.c ****         0x00,
  65:C:/Workspace/DAVE-4.4.2-64Bit/optiga-trust-m/examples/optiga\example_optiga_crypt_rsa_verify.c ****         //SEQUENCE
  66:C:/Workspace/DAVE-4.4.2-64Bit/optiga-trust-m/examples/optiga\example_optiga_crypt_rsa_verify.c ****         0x30,
  67:C:/Workspace/DAVE-4.4.2-64Bit/optiga-trust-m/examples/optiga\example_optiga_crypt_rsa_verify.c ****             //Length
  68:C:/Workspace/DAVE-4.4.2-64Bit/optiga-trust-m/examples/optiga\example_optiga_crypt_rsa_verify.c ****             0x81, 0x8A,
  69:C:/Workspace/DAVE-4.4.2-64Bit/optiga-trust-m/examples/optiga\example_optiga_crypt_rsa_verify.c ****             //INTEGER (pub key)
  70:C:/Workspace/DAVE-4.4.2-64Bit/optiga-trust-m/examples/optiga\example_optiga_crypt_rsa_verify.c ****             0x02,
  71:C:/Workspace/DAVE-4.4.2-64Bit/optiga-trust-m/examples/optiga\example_optiga_crypt_rsa_verify.c ****             //Pub key modulus length
  72:C:/Workspace/DAVE-4.4.2-64Bit/optiga-trust-m/examples/optiga\example_optiga_crypt_rsa_verify.c ****             0x81, 0x81,
  73:C:/Workspace/DAVE-4.4.2-64Bit/optiga-trust-m/examples/optiga\example_optiga_crypt_rsa_verify.c ****             //Public key modulus
  74:C:/Workspace/DAVE-4.4.2-64Bit/optiga-trust-m/examples/optiga\example_optiga_crypt_rsa_verify.c ****             0x00,
  75:C:/Workspace/DAVE-4.4.2-64Bit/optiga-trust-m/examples/optiga\example_optiga_crypt_rsa_verify.c ****             0xA1, 0xD4, 0x6F, 0xBA, 0x23, 0x18, 0xF8, 0xDC, 0xEF, 0x16, 0xC2, 0x80, 0x94, 0x8B, 0x1
  76:C:/Workspace/DAVE-4.4.2-64Bit/optiga-trust-m/examples/optiga\example_optiga_crypt_rsa_verify.c ****             0x79, 0x66, 0xB9, 0xB4, 0x72, 0x25, 0xED, 0x29, 0x89, 0xF8, 0xD7, 0x4B, 0x45, 0xBD, 0x3
  77:C:/Workspace/DAVE-4.4.2-64Bit/optiga-trust-m/examples/optiga\example_optiga_crypt_rsa_verify.c ****             0x9C, 0x0A, 0xAB, 0x5A, 0xD0, 0xFF, 0x00, 0x35, 0x53, 0xBA, 0x84, 0x3C, 0x8E, 0x12, 0x7
  78:C:/Workspace/DAVE-4.4.2-64Bit/optiga-trust-m/examples/optiga\example_optiga_crypt_rsa_verify.c ****             0xC5, 0x87, 0x3B, 0xB8, 0x9A, 0x3D, 0xC8, 0x4B, 0x88, 0x3D, 0x25, 0x66, 0x6C, 0xD2, 0x2
  79:C:/Workspace/DAVE-4.4.2-64Bit/optiga-trust-m/examples/optiga\example_optiga_crypt_rsa_verify.c ****             0xAC, 0xD5, 0xB6, 0x75, 0x96, 0x9F, 0x8B, 0xEB, 0xFB, 0xCA, 0xC9, 0x3F, 0xDD, 0x92, 0x7
  80:C:/Workspace/DAVE-4.4.2-64Bit/optiga-trust-m/examples/optiga\example_optiga_crypt_rsa_verify.c ****             0x42, 0xB1, 0x78, 0xB1, 0x0D, 0x1D, 0xFF, 0x93, 0x98, 0xE5, 0x23, 0x16, 0xAA, 0xE0, 0xA
  81:C:/Workspace/DAVE-4.4.2-64Bit/optiga-trust-m/examples/optiga\example_optiga_crypt_rsa_verify.c ****             0xE5, 0x94, 0x65, 0x0B, 0xDC, 0x3C, 0x67, 0x02, 0x41, 0xD4, 0x18, 0x68, 0x45, 0x93, 0xC
  82:C:/Workspace/DAVE-4.4.2-64Bit/optiga-trust-m/examples/optiga\example_optiga_crypt_rsa_verify.c ****             0xA7, 0xB9, 0xDC, 0x4F, 0x20, 0xD2, 0xFD, 0xC6, 0xF6, 0x63, 0x44, 0x07, 0x40, 0x03, 0xE
  83:C:/Workspace/DAVE-4.4.2-64Bit/optiga-trust-m/examples/optiga\example_optiga_crypt_rsa_verify.c ****             //INTEGER (publicExponent)
  84:C:/Workspace/DAVE-4.4.2-64Bit/optiga-trust-m/examples/optiga\example_optiga_crypt_rsa_verify.c ****             0x02,
  85:C:/Workspace/DAVE-4.4.2-64Bit/optiga-trust-m/examples/optiga\example_optiga_crypt_rsa_verify.c ****             //Pub key exponent length
  86:C:/Workspace/DAVE-4.4.2-64Bit/optiga-trust-m/examples/optiga\example_optiga_crypt_rsa_verify.c ****             0x04,
  87:C:/Workspace/DAVE-4.4.2-64Bit/optiga-trust-m/examples/optiga\example_optiga_crypt_rsa_verify.c ****             //Public Exponent
  88:C:/Workspace/DAVE-4.4.2-64Bit/optiga-trust-m/examples/optiga\example_optiga_crypt_rsa_verify.c ****             0x00, 0x01, 0x00, 0x01
  89:C:/Workspace/DAVE-4.4.2-64Bit/optiga-trust-m/examples/optiga\example_optiga_crypt_rsa_verify.c **** };
  90:C:/Workspace/DAVE-4.4.2-64Bit/optiga-trust-m/examples/optiga\example_optiga_crypt_rsa_verify.c **** 
  91:C:/Workspace/DAVE-4.4.2-64Bit/optiga-trust-m/examples/optiga\example_optiga_crypt_rsa_verify.c **** //SHA-256 Digest
  92:C:/Workspace/DAVE-4.4.2-64Bit/optiga-trust-m/examples/optiga\example_optiga_crypt_rsa_verify.c **** static uint8_t digest [] =
  93:C:/Workspace/DAVE-4.4.2-64Bit/optiga-trust-m/examples/optiga\example_optiga_crypt_rsa_verify.c **** {
  94:C:/Workspace/DAVE-4.4.2-64Bit/optiga-trust-m/examples/optiga\example_optiga_crypt_rsa_verify.c ****     0x91, 0x70, 0x02, 0x48, 0x3F, 0xBD, 0x5F, 0xDD, 0xD5, 0x38, 0xEB, 0xDA, 0x9A, 0x5E, 0x1F, 0x46,
  95:C:/Workspace/DAVE-4.4.2-64Bit/optiga-trust-m/examples/optiga\example_optiga_crypt_rsa_verify.c ****     0xFC, 0xAD, 0x8F, 0x1E, 0x2C, 0x75, 0xB0, 0x83, 0xD0, 0x71, 0x2B, 0x80, 0xD4, 0xAA, 0xC6, 0x9B
  96:C:/Workspace/DAVE-4.4.2-64Bit/optiga-trust-m/examples/optiga\example_optiga_crypt_rsa_verify.c **** };
  97:C:/Workspace/DAVE-4.4.2-64Bit/optiga-trust-m/examples/optiga\example_optiga_crypt_rsa_verify.c **** 
  98:C:/Workspace/DAVE-4.4.2-64Bit/optiga-trust-m/examples/optiga\example_optiga_crypt_rsa_verify.c **** // RSA 1024 Signature ( no additional encoding needed )
  99:C:/Workspace/DAVE-4.4.2-64Bit/optiga-trust-m/examples/optiga\example_optiga_crypt_rsa_verify.c **** static uint8_t signature [] =
 100:C:/Workspace/DAVE-4.4.2-64Bit/optiga-trust-m/examples/optiga\example_optiga_crypt_rsa_verify.c **** {
 101:C:/Workspace/DAVE-4.4.2-64Bit/optiga-trust-m/examples/optiga\example_optiga_crypt_rsa_verify.c ****     0x5B, 0xDE, 0x46, 0xE4, 0x35, 0x48, 0xF4, 0x81, 0x45, 0x7C, 0x72, 0x31, 0x54, 0x55, 0xE8, 0x9F,
 102:C:/Workspace/DAVE-4.4.2-64Bit/optiga-trust-m/examples/optiga\example_optiga_crypt_rsa_verify.c ****     0x1D, 0xD0, 0x5D, 0x9D, 0xEC, 0x40, 0xE6, 0x6B, 0x89, 0xF3, 0xBC, 0x52, 0x68, 0xB1, 0xD8, 0x70,
 103:C:/Workspace/DAVE-4.4.2-64Bit/optiga-trust-m/examples/optiga\example_optiga_crypt_rsa_verify.c ****     0x35, 0x05, 0xFC, 0x98, 0xF6, 0x36, 0x99, 0x24, 0x53, 0xF0, 0x17, 0xB8, 0x9B, 0xD4, 0xA0, 0x5F,
 104:C:/Workspace/DAVE-4.4.2-64Bit/optiga-trust-m/examples/optiga\example_optiga_crypt_rsa_verify.c ****     0x12, 0x04, 0x8A, 0xA1, 0xA7, 0x96, 0xE6, 0x33, 0xCA, 0x48, 0x84, 0xD9, 0x00, 0xE4, 0xA3, 0x8E,
 105:C:/Workspace/DAVE-4.4.2-64Bit/optiga-trust-m/examples/optiga\example_optiga_crypt_rsa_verify.c ****     0x2F, 0x6F, 0x3F, 0x6D, 0xE0, 0x1D, 0xF8, 0xEA, 0xE0, 0x95, 0xBA, 0x63, 0x15, 0xED, 0x7B, 0x6A,
 106:C:/Workspace/DAVE-4.4.2-64Bit/optiga-trust-m/examples/optiga\example_optiga_crypt_rsa_verify.c ****     0xB6, 0x6E, 0x20, 0x17, 0xB5, 0x64, 0xDE, 0x49, 0x64, 0x97, 0xCA, 0x5E, 0x4D, 0x84, 0x63, 0xA0,
 107:C:/Workspace/DAVE-4.4.2-64Bit/optiga-trust-m/examples/optiga\example_optiga_crypt_rsa_verify.c ****     0xF1, 0x00, 0x6C, 0xEE, 0x70, 0x89, 0xD5, 0x6E, 0xC5, 0x05, 0x31, 0x0D, 0xAA, 0xB7, 0xBA, 0xA0,
 108:C:/Workspace/DAVE-4.4.2-64Bit/optiga-trust-m/examples/optiga\example_optiga_crypt_rsa_verify.c ****     0xAA, 0xBF, 0x98, 0xE8, 0x39, 0x93, 0x70, 0x07, 0x2D, 0xFF, 0x42, 0xF9, 0xA4, 0x6F, 0x1B, 0x00
 109:C:/Workspace/DAVE-4.4.2-64Bit/optiga-trust-m/examples/optiga\example_optiga_crypt_rsa_verify.c **** };
 110:C:/Workspace/DAVE-4.4.2-64Bit/optiga-trust-m/examples/optiga\example_optiga_crypt_rsa_verify.c **** 
 111:C:/Workspace/DAVE-4.4.2-64Bit/optiga-trust-m/examples/optiga\example_optiga_crypt_rsa_verify.c **** /**
 112:C:/Workspace/DAVE-4.4.2-64Bit/optiga-trust-m/examples/optiga\example_optiga_crypt_rsa_verify.c ****  * The below example demonstrates the verification of signature using
 113:C:/Workspace/DAVE-4.4.2-64Bit/optiga-trust-m/examples/optiga\example_optiga_crypt_rsa_verify.c ****  * the public key provided by host.
 114:C:/Workspace/DAVE-4.4.2-64Bit/optiga-trust-m/examples/optiga\example_optiga_crypt_rsa_verify.c ****  *
 115:C:/Workspace/DAVE-4.4.2-64Bit/optiga-trust-m/examples/optiga\example_optiga_crypt_rsa_verify.c ****  * Example for #optiga_crypt_rsa_verify
 116:C:/Workspace/DAVE-4.4.2-64Bit/optiga-trust-m/examples/optiga\example_optiga_crypt_rsa_verify.c ****  *
 117:C:/Workspace/DAVE-4.4.2-64Bit/optiga-trust-m/examples/optiga\example_optiga_crypt_rsa_verify.c ****  */
 118:C:/Workspace/DAVE-4.4.2-64Bit/optiga-trust-m/examples/optiga\example_optiga_crypt_rsa_verify.c **** void example_optiga_crypt_rsa_verify(void)
 119:C:/Workspace/DAVE-4.4.2-64Bit/optiga-trust-m/examples/optiga\example_optiga_crypt_rsa_verify.c **** {
  51              	 .loc 1 119 0
  52              	 .cfi_startproc
  53 0000 F0B5     	 push {r4,r5,r6,r7,lr}
  54              	.LCFI0:
  55              	 .cfi_def_cfa_offset 20
  56              	 .cfi_offset 4,-20
  57              	 .cfi_offset 5,-16
  58              	 .cfi_offset 6,-12
  59              	 .cfi_offset 7,-8
  60              	 .cfi_offset 14,-4
  61 0002 8BB0     	 sub sp,sp,#44
  62              	.LCFI1:
  63              	 .cfi_def_cfa_offset 64
 120:C:/Workspace/DAVE-4.4.2-64Bit/optiga-trust-m/examples/optiga\example_optiga_crypt_rsa_verify.c ****     public_key_from_host_t public_key_details =
  64              	 .loc 1 120 0
  65 0004 08AF     	 add r7,sp,#32
  66 0006 3A1C     	 mov r2,r7
 121:C:/Workspace/DAVE-4.4.2-64Bit/optiga-trust-m/examples/optiga\example_optiga_crypt_rsa_verify.c ****     {
 122:C:/Workspace/DAVE-4.4.2-64Bit/optiga-trust-m/examples/optiga\example_optiga_crypt_rsa_verify.c ****          public_key,
 123:C:/Workspace/DAVE-4.4.2-64Bit/optiga-trust-m/examples/optiga\example_optiga_crypt_rsa_verify.c ****          sizeof(public_key),
 124:C:/Workspace/DAVE-4.4.2-64Bit/optiga-trust-m/examples/optiga\example_optiga_crypt_rsa_verify.c ****          (uint8_t)OPTIGA_RSA_KEY_1024_BIT_EXPONENTIAL
 125:C:/Workspace/DAVE-4.4.2-64Bit/optiga-trust-m/examples/optiga\example_optiga_crypt_rsa_verify.c ****     };
 126:C:/Workspace/DAVE-4.4.2-64Bit/optiga-trust-m/examples/optiga\example_optiga_crypt_rsa_verify.c **** 
 127:C:/Workspace/DAVE-4.4.2-64Bit/optiga-trust-m/examples/optiga\example_optiga_crypt_rsa_verify.c ****     optiga_lib_status_t return_status = 0;
 128:C:/Workspace/DAVE-4.4.2-64Bit/optiga-trust-m/examples/optiga\example_optiga_crypt_rsa_verify.c ****     optiga_crypt_t * me = NULL;
 129:C:/Workspace/DAVE-4.4.2-64Bit/optiga-trust-m/examples/optiga\example_optiga_crypt_rsa_verify.c ****     OPTIGA_EXAMPLE_LOG_MESSAGE(__FUNCTION__);
  67              	 .loc 1 129 0
  68 0008 214D     	 ldr r5,.L26
 120:C:/Workspace/DAVE-4.4.2-64Bit/optiga-trust-m/examples/optiga\example_optiga_crypt_rsa_verify.c ****     public_key_from_host_t public_key_details =
  69              	 .loc 1 120 0
  70 000a 224B     	 ldr r3,.L26+4
  71              	 .loc 1 129 0
  72 000c 224C     	 ldr r4,.L26+8
 120:C:/Workspace/DAVE-4.4.2-64Bit/optiga-trust-m/examples/optiga\example_optiga_crypt_rsa_verify.c ****     public_key_from_host_t public_key_details =
  73              	 .loc 1 120 0
  74 000e 03CB     	 ldmia r3!,{r0,r1}
  75 0010 03C2     	 stmia r2!,{r0,r1}
  76              	.LVL1:
  77              	 .loc 1 129 0
  78 0012 2248     	 ldr r0,.L26+12
  79 0014 211C     	 mov r1,r4
  80 0016 2A1C     	 mov r2,r5
  81 0018 FFF7FEFF 	 bl optiga_lib_print_message
  82              	.LVL2:
 130:C:/Workspace/DAVE-4.4.2-64Bit/optiga-trust-m/examples/optiga\example_optiga_crypt_rsa_verify.c ****     do
 131:C:/Workspace/DAVE-4.4.2-64Bit/optiga-trust-m/examples/optiga\example_optiga_crypt_rsa_verify.c ****     {
 132:C:/Workspace/DAVE-4.4.2-64Bit/optiga-trust-m/examples/optiga\example_optiga_crypt_rsa_verify.c ****         /**
 133:C:/Workspace/DAVE-4.4.2-64Bit/optiga-trust-m/examples/optiga\example_optiga_crypt_rsa_verify.c ****          * 1. Create OPTIGA Crypt Instance
 134:C:/Workspace/DAVE-4.4.2-64Bit/optiga-trust-m/examples/optiga\example_optiga_crypt_rsa_verify.c ****          */
 135:C:/Workspace/DAVE-4.4.2-64Bit/optiga-trust-m/examples/optiga\example_optiga_crypt_rsa_verify.c ****         me = optiga_crypt_create(0, optiga_crypt_callback, NULL);
  83              	 .loc 1 135 0
  84 001c 0020     	 mov r0,#0
  85 001e 2049     	 ldr r1,.L26+16
  86 0020 021C     	 mov r2,r0
  87 0022 FFF7FEFF 	 bl optiga_crypt_create
  88              	.LVL3:
  89 0026 0795     	 str r5,[sp,#28]
  90 0028 061E     	 sub r6,r0,#0
  91              	.LVL4:
 136:C:/Workspace/DAVE-4.4.2-64Bit/optiga-trust-m/examples/optiga\example_optiga_crypt_rsa_verify.c ****         if (NULL == me)
  92              	 .loc 1 136 0
  93 002a 1FD0     	 beq .L8
 137:C:/Workspace/DAVE-4.4.2-64Bit/optiga-trust-m/examples/optiga\example_optiga_crypt_rsa_verify.c ****         {
 138:C:/Workspace/DAVE-4.4.2-64Bit/optiga-trust-m/examples/optiga\example_optiga_crypt_rsa_verify.c ****             break;
 139:C:/Workspace/DAVE-4.4.2-64Bit/optiga-trust-m/examples/optiga\example_optiga_crypt_rsa_verify.c ****         }
 140:C:/Workspace/DAVE-4.4.2-64Bit/optiga-trust-m/examples/optiga\example_optiga_crypt_rsa_verify.c **** 
 141:C:/Workspace/DAVE-4.4.2-64Bit/optiga-trust-m/examples/optiga\example_optiga_crypt_rsa_verify.c ****         /**
 142:C:/Workspace/DAVE-4.4.2-64Bit/optiga-trust-m/examples/optiga\example_optiga_crypt_rsa_verify.c ****          * 2. Verify RSA signature using public key from host
 143:C:/Workspace/DAVE-4.4.2-64Bit/optiga-trust-m/examples/optiga\example_optiga_crypt_rsa_verify.c ****          */
 144:C:/Workspace/DAVE-4.4.2-64Bit/optiga-trust-m/examples/optiga\example_optiga_crypt_rsa_verify.c ****         optiga_lib_status = OPTIGA_LIB_BUSY;
  94              	 .loc 1 144 0
  95 002c 0121     	 mov r1,#1
 145:C:/Workspace/DAVE-4.4.2-64Bit/optiga-trust-m/examples/optiga\example_optiga_crypt_rsa_verify.c ****         return_status = optiga_crypt_rsa_verify (me,
  96              	 .loc 1 145 0
  97 002e 1D4B     	 ldr r3,.L26+20
 144:C:/Workspace/DAVE-4.4.2-64Bit/optiga-trust-m/examples/optiga\example_optiga_crypt_rsa_verify.c ****         return_status = optiga_crypt_rsa_verify (me,
  98              	 .loc 1 144 0
  99 0030 1D4D     	 ldr r5,.L26+24
 100              	 .loc 1 145 0
 101 0032 1E4A     	 ldr r2,.L26+28
 144:C:/Workspace/DAVE-4.4.2-64Bit/optiga-trust-m/examples/optiga\example_optiga_crypt_rsa_verify.c ****         return_status = optiga_crypt_rsa_verify (me,
 102              	 .loc 1 144 0
 103 0034 2980     	 strh r1,[r5]
 104              	 .loc 1 145 0
 105 0036 0093     	 str r3,[sp]
 106 0038 8023     	 mov r3,#128
 107 003a 0193     	 str r3,[sp,#4]
 108 003c 0023     	 mov r3,#0
 109 003e 0291     	 str r1,[sp,#8]
 110 0040 0493     	 str r3,[sp,#16]
 111 0042 0397     	 str r7,[sp,#12]
 112 0044 2033     	 add r3,r3,#32
 113 0046 FFF7FEFF 	 bl optiga_crypt_rsa_verify
 114              	.LVL5:
 115 004a 021E     	 sub r2,r0,#0
 116              	.LVL6:
 146:C:/Workspace/DAVE-4.4.2-64Bit/optiga-trust-m/examples/optiga\example_optiga_crypt_rsa_verify.c ****                                                  OPTIGA_RSASSA_PKCS1_V15_SHA256,
 147:C:/Workspace/DAVE-4.4.2-64Bit/optiga-trust-m/examples/optiga\example_optiga_crypt_rsa_verify.c ****                                                  digest,
 148:C:/Workspace/DAVE-4.4.2-64Bit/optiga-trust-m/examples/optiga\example_optiga_crypt_rsa_verify.c ****                                                  sizeof(digest),
 149:C:/Workspace/DAVE-4.4.2-64Bit/optiga-trust-m/examples/optiga\example_optiga_crypt_rsa_verify.c ****                                                  signature,
 150:C:/Workspace/DAVE-4.4.2-64Bit/optiga-trust-m/examples/optiga\example_optiga_crypt_rsa_verify.c ****                                                  sizeof(signature),
 151:C:/Workspace/DAVE-4.4.2-64Bit/optiga-trust-m/examples/optiga\example_optiga_crypt_rsa_verify.c ****                                                  OPTIGA_CRYPT_HOST_DATA,
 152:C:/Workspace/DAVE-4.4.2-64Bit/optiga-trust-m/examples/optiga\example_optiga_crypt_rsa_verify.c ****                                                  &public_key_details,
 153:C:/Workspace/DAVE-4.4.2-64Bit/optiga-trust-m/examples/optiga\example_optiga_crypt_rsa_verify.c ****                                                  0x0000);
 154:C:/Workspace/DAVE-4.4.2-64Bit/optiga-trust-m/examples/optiga\example_optiga_crypt_rsa_verify.c **** 
 155:C:/Workspace/DAVE-4.4.2-64Bit/optiga-trust-m/examples/optiga\example_optiga_crypt_rsa_verify.c ****         if (OPTIGA_LIB_SUCCESS != return_status)
 117              	 .loc 1 155 0
 118 004c 09D1     	 bne .L6
 119              	.L7:
 156:C:/Workspace/DAVE-4.4.2-64Bit/optiga-trust-m/examples/optiga\example_optiga_crypt_rsa_verify.c ****         {
 157:C:/Workspace/DAVE-4.4.2-64Bit/optiga-trust-m/examples/optiga\example_optiga_crypt_rsa_verify.c ****             break;
 158:C:/Workspace/DAVE-4.4.2-64Bit/optiga-trust-m/examples/optiga\example_optiga_crypt_rsa_verify.c ****         }
 159:C:/Workspace/DAVE-4.4.2-64Bit/optiga-trust-m/examples/optiga\example_optiga_crypt_rsa_verify.c **** 
 160:C:/Workspace/DAVE-4.4.2-64Bit/optiga-trust-m/examples/optiga\example_optiga_crypt_rsa_verify.c ****         while (OPTIGA_LIB_BUSY == optiga_lib_status)
 120              	 .loc 1 160 0 discriminator 1
 121 004e 2B88     	 ldrh r3,[r5]
 122 0050 012B     	 cmp r3,#1
 123 0052 FCD0     	 beq .L7
 161:C:/Workspace/DAVE-4.4.2-64Bit/optiga-trust-m/examples/optiga\example_optiga_crypt_rsa_verify.c ****         {
 162:C:/Workspace/DAVE-4.4.2-64Bit/optiga-trust-m/examples/optiga\example_optiga_crypt_rsa_verify.c ****             //Wait until the optiga_crypt_rsa_verify operation is completed
 163:C:/Workspace/DAVE-4.4.2-64Bit/optiga-trust-m/examples/optiga\example_optiga_crypt_rsa_verify.c ****         }
 164:C:/Workspace/DAVE-4.4.2-64Bit/optiga-trust-m/examples/optiga\example_optiga_crypt_rsa_verify.c **** 
 165:C:/Workspace/DAVE-4.4.2-64Bit/optiga-trust-m/examples/optiga\example_optiga_crypt_rsa_verify.c ****         if ((OPTIGA_LIB_SUCCESS != optiga_lib_status))
 124              	 .loc 1 165 0
 125 0054 2B88     	 ldrh r3,[r5]
 126 0056 002B     	 cmp r3,#0
 127 0058 08D0     	 beq .L8
 166:C:/Workspace/DAVE-4.4.2-64Bit/optiga-trust-m/examples/optiga\example_optiga_crypt_rsa_verify.c ****         {
 167:C:/Workspace/DAVE-4.4.2-64Bit/optiga-trust-m/examples/optiga\example_optiga_crypt_rsa_verify.c ****             //RSA Signature verification failed.
 168:C:/Workspace/DAVE-4.4.2-64Bit/optiga-trust-m/examples/optiga\example_optiga_crypt_rsa_verify.c ****             return_status = optiga_lib_status;
 128              	 .loc 1 168 0
 129 005a 2A88     	 ldrh r2,[r5]
 130 005c 92B2     	 uxth r2,r2
 131              	.LVL7:
 169:C:/Workspace/DAVE-4.4.2-64Bit/optiga-trust-m/examples/optiga\example_optiga_crypt_rsa_verify.c ****             break;
 170:C:/Workspace/DAVE-4.4.2-64Bit/optiga-trust-m/examples/optiga\example_optiga_crypt_rsa_verify.c ****         }
 171:C:/Workspace/DAVE-4.4.2-64Bit/optiga-trust-m/examples/optiga\example_optiga_crypt_rsa_verify.c ****         return_status = OPTIGA_LIB_SUCCESS;
 172:C:/Workspace/DAVE-4.4.2-64Bit/optiga-trust-m/examples/optiga\example_optiga_crypt_rsa_verify.c ****     } while (FALSE);
 173:C:/Workspace/DAVE-4.4.2-64Bit/optiga-trust-m/examples/optiga\example_optiga_crypt_rsa_verify.c ****     OPTIGA_EXAMPLE_LOG_STATUS(return_status);
 132              	 .loc 1 173 0
 133 005e 002A     	 cmp r2,#0
 134 0060 04D0     	 beq .L8
 135              	.LVL8:
 136              	.L6:
 137              	 .loc 1 173 0 is_stmt 0 discriminator 1
 138 0062 201C     	 mov r0,r4
 139 0064 1249     	 ldr r1,.L26+32
 140 0066 FFF7FEFF 	 bl optiga_lib_print_status
 141              	.LVL9:
 142 006a 06E0     	 b .L9
 143              	.L8:
 144              	 .loc 1 173 0 discriminator 2
 145 006c 201C     	 mov r0,r4
 146 006e 0799     	 ldr r1,[sp,#28]
 147 0070 0022     	 mov r2,#0
 148 0072 FFF7FEFF 	 bl optiga_lib_print_status
 149              	.LVL10:
 174:C:/Workspace/DAVE-4.4.2-64Bit/optiga-trust-m/examples/optiga\example_optiga_crypt_rsa_verify.c ****     
 175:C:/Workspace/DAVE-4.4.2-64Bit/optiga-trust-m/examples/optiga\example_optiga_crypt_rsa_verify.c ****     if (me)
 150              	 .loc 1 175 0 is_stmt 1 discriminator 2
 151 0076 002E     	 cmp r6,#0
 152 0078 08D0     	 beq .L4
 153              	.L9:
 176:C:/Workspace/DAVE-4.4.2-64Bit/optiga-trust-m/examples/optiga\example_optiga_crypt_rsa_verify.c ****     {
 177:C:/Workspace/DAVE-4.4.2-64Bit/optiga-trust-m/examples/optiga\example_optiga_crypt_rsa_verify.c ****         //Destroy the instance after the completion of usecase if not required.
 178:C:/Workspace/DAVE-4.4.2-64Bit/optiga-trust-m/examples/optiga\example_optiga_crypt_rsa_verify.c ****         return_status = optiga_crypt_destroy(me);
 154              	 .loc 1 178 0
 155 007a 301C     	 mov r0,r6
 156 007c FFF7FEFF 	 bl optiga_crypt_destroy
 157              	.LVL11:
 158 0080 021E     	 sub r2,r0,#0
 159              	.LVL12:
 179:C:/Workspace/DAVE-4.4.2-64Bit/optiga-trust-m/examples/optiga\example_optiga_crypt_rsa_verify.c ****         if(OPTIGA_LIB_SUCCESS != return_status)
 160              	 .loc 1 179 0
 161 0082 03D0     	 beq .L4
 180:C:/Workspace/DAVE-4.4.2-64Bit/optiga-trust-m/examples/optiga\example_optiga_crypt_rsa_verify.c ****         {
 181:C:/Workspace/DAVE-4.4.2-64Bit/optiga-trust-m/examples/optiga\example_optiga_crypt_rsa_verify.c ****             //lint --e{774} suppress This is a generic macro
 182:C:/Workspace/DAVE-4.4.2-64Bit/optiga-trust-m/examples/optiga\example_optiga_crypt_rsa_verify.c ****             OPTIGA_EXAMPLE_LOG_STATUS(return_status);
 162              	 .loc 1 182 0 discriminator 1
 163 0084 201C     	 mov r0,r4
 164              	.LVL13:
 165 0086 0A49     	 ldr r1,.L26+32
 166 0088 FFF7FEFF 	 bl optiga_lib_print_status
 167              	.LVL14:
 168              	.L4:
 183:C:/Workspace/DAVE-4.4.2-64Bit/optiga-trust-m/examples/optiga\example_optiga_crypt_rsa_verify.c ****         }
 184:C:/Workspace/DAVE-4.4.2-64Bit/optiga-trust-m/examples/optiga\example_optiga_crypt_rsa_verify.c ****     }
 185:C:/Workspace/DAVE-4.4.2-64Bit/optiga-trust-m/examples/optiga\example_optiga_crypt_rsa_verify.c **** }
 169              	 .loc 1 185 0
 170 008c 0BB0     	 add sp,sp,#44
 171              	 
 172              	.LVL15:
 173 008e F0BD     	 pop {r4,r5,r6,r7,pc}
 174              	.L27:
 175              	 .align 2
 176              	.L26:
 177 0090 15000000 	 .word .LC7
 178 0094 00000000 	 .word .LANCHOR1
 179 0098 00000000 	 .word .LC5
 180 009c 00000000 	 .word .LANCHOR2
 181 00a0 00000000 	 .word optiga_crypt_callback
 182 00a4 00000000 	 .word .LANCHOR4
 183 00a8 00000000 	 .word .LANCHOR0
 184 00ac 00000000 	 .word .LANCHOR3
 185 00b0 1A000000 	 .word .LC13
 186              	 .cfi_endproc
 187              	.LFE1:
 189              	 .section .rodata
 190              	 .align 2
 191              	 .set .LANCHOR1,.+0
 192              	.LC2:
 193 0000 00000000 	 .word public_key
 194 0004 9100     	 .short 145
 195 0006 41       	 .byte 65
 196 0007 00       	 .space 1
 197              	 .section .data.signature,"aw",%progbits
 198              	 .set .LANCHOR4,.+0
 201              	signature:
 202 0000 5B       	 .byte 91
 203 0001 DE       	 .byte -34
 204 0002 46       	 .byte 70
 205 0003 E4       	 .byte -28
 206 0004 35       	 .byte 53
 207 0005 48       	 .byte 72
 208 0006 F4       	 .byte -12
 209 0007 81       	 .byte -127
 210 0008 45       	 .byte 69
 211 0009 7C       	 .byte 124
 212 000a 72       	 .byte 114
 213 000b 31       	 .byte 49
 214 000c 54       	 .byte 84
 215 000d 55       	 .byte 85
 216 000e E8       	 .byte -24
 217 000f 9F       	 .byte -97
 218 0010 1D       	 .byte 29
 219 0011 D0       	 .byte -48
 220 0012 5D       	 .byte 93
 221 0013 9D       	 .byte -99
 222 0014 EC       	 .byte -20
 223 0015 40       	 .byte 64
 224 0016 E6       	 .byte -26
 225 0017 6B       	 .byte 107
 226 0018 89       	 .byte -119
 227 0019 F3       	 .byte -13
 228 001a BC       	 .byte -68
 229 001b 52       	 .byte 82
 230 001c 68       	 .byte 104
 231 001d B1       	 .byte -79
 232 001e D8       	 .byte -40
 233 001f 70       	 .byte 112
 234 0020 35       	 .byte 53
 235 0021 05       	 .byte 5
 236 0022 FC       	 .byte -4
 237 0023 98       	 .byte -104
 238 0024 F6       	 .byte -10
 239 0025 36       	 .byte 54
 240 0026 99       	 .byte -103
 241 0027 24       	 .byte 36
 242 0028 53       	 .byte 83
 243 0029 F0       	 .byte -16
 244 002a 17       	 .byte 23
 245 002b B8       	 .byte -72
 246 002c 9B       	 .byte -101
 247 002d D4       	 .byte -44
 248 002e A0       	 .byte -96
 249 002f 5F       	 .byte 95
 250 0030 12       	 .byte 18
 251 0031 04       	 .byte 4
 252 0032 8A       	 .byte -118
 253 0033 A1       	 .byte -95
 254 0034 A7       	 .byte -89
 255 0035 96       	 .byte -106
 256 0036 E6       	 .byte -26
 257 0037 33       	 .byte 51
 258 0038 CA       	 .byte -54
 259 0039 48       	 .byte 72
 260 003a 84       	 .byte -124
 261 003b D9       	 .byte -39
 262 003c 00       	 .byte 0
 263 003d E4       	 .byte -28
 264 003e A3       	 .byte -93
 265 003f 8E       	 .byte -114
 266 0040 2F       	 .byte 47
 267 0041 6F       	 .byte 111
 268 0042 3F       	 .byte 63
 269 0043 6D       	 .byte 109
 270 0044 E0       	 .byte -32
 271 0045 1D       	 .byte 29
 272 0046 F8       	 .byte -8
 273 0047 EA       	 .byte -22
 274 0048 E0       	 .byte -32
 275 0049 95       	 .byte -107
 276 004a BA       	 .byte -70
 277 004b 63       	 .byte 99
 278 004c 15       	 .byte 21
 279 004d ED       	 .byte -19
 280 004e 7B       	 .byte 123
 281 004f 6A       	 .byte 106
 282 0050 B6       	 .byte -74
 283 0051 6E       	 .byte 110
 284 0052 20       	 .byte 32
 285 0053 17       	 .byte 23
 286 0054 B5       	 .byte -75
 287 0055 64       	 .byte 100
 288 0056 DE       	 .byte -34
 289 0057 49       	 .byte 73
 290 0058 64       	 .byte 100
 291 0059 97       	 .byte -105
 292 005a CA       	 .byte -54
 293 005b 5E       	 .byte 94
 294 005c 4D       	 .byte 77
 295 005d 84       	 .byte -124
 296 005e 63       	 .byte 99
 297 005f A0       	 .byte -96
 298 0060 F1       	 .byte -15
 299 0061 00       	 .byte 0
 300 0062 6C       	 .byte 108
 301 0063 EE       	 .byte -18
 302 0064 70       	 .byte 112
 303 0065 89       	 .byte -119
 304 0066 D5       	 .byte -43
 305 0067 6E       	 .byte 110
 306 0068 C5       	 .byte -59
 307 0069 05       	 .byte 5
 308 006a 31       	 .byte 49
 309 006b 0D       	 .byte 13
 310 006c AA       	 .byte -86
 311 006d B7       	 .byte -73
 312 006e BA       	 .byte -70
 313 006f A0       	 .byte -96
 314 0070 AA       	 .byte -86
 315 0071 BF       	 .byte -65
 316 0072 98       	 .byte -104
 317 0073 E8       	 .byte -24
 318 0074 39       	 .byte 57
 319 0075 93       	 .byte -109
 320 0076 70       	 .byte 112
 321 0077 07       	 .byte 7
 322 0078 2D       	 .byte 45
 323 0079 FF       	 .byte -1
 324 007a 42       	 .byte 66
 325 007b F9       	 .byte -7
 326 007c A4       	 .byte -92
 327 007d 6F       	 .byte 111
 328 007e 1B       	 .byte 27
 329 007f 00       	 .byte 0
 330              	 .section .rodata.str1.1,"aMS",%progbits,1
 331              	.LC5:
 332 0000 5B6F7074 	 .ascii "[optiga example]  : \000"
 332      69676120 
 332      6578616D 
 332      706C655D 
 332      20203A20 
 333              	.LC7:
 334 0015 1B5B306D 	 .ascii "\033[0m\000"
 334      00
 335              	.LC13:
 336 001a 1B5B3331 	 .ascii "\033[31m\000"
 336      6D00
 337              	 .section .rodata.__FUNCTION__.6004,"a",%progbits
 338              	 .set .LANCHOR2,.+0
 341              	__FUNCTION__.6004:
 342 0000 6578616D 	 .ascii "example_optiga_crypt_rsa_verify\000"
 342      706C655F 
 342      6F707469 
 342      67615F63 
 342      72797074 
 343              	 .section .data.public_key,"aw",%progbits
 346              	public_key:
 347 0000 03       	 .byte 3
 348 0001 81       	 .byte -127
 349 0002 8E       	 .byte -114
 350 0003 00       	 .byte 0
 351 0004 30       	 .byte 48
 352 0005 81       	 .byte -127
 353 0006 8A       	 .byte -118
 354 0007 02       	 .byte 2
 355 0008 81       	 .byte -127
 356 0009 81       	 .byte -127
 357 000a 00       	 .byte 0
 358 000b A1       	 .byte -95
 359 000c D4       	 .byte -44
 360 000d 6F       	 .byte 111
 361 000e BA       	 .byte -70
 362 000f 23       	 .byte 35
 363 0010 18       	 .byte 24
 364 0011 F8       	 .byte -8
 365 0012 DC       	 .byte -36
 366 0013 EF       	 .byte -17
 367 0014 16       	 .byte 22
 368 0015 C2       	 .byte -62
 369 0016 80       	 .byte -128
 370 0017 94       	 .byte -108
 371 0018 8B       	 .byte -117
 372 0019 1C       	 .byte 28
 373 001a F2       	 .byte -14
 374 001b 79       	 .byte 121
 375 001c 66       	 .byte 102
 376 001d B9       	 .byte -71
 377 001e B4       	 .byte -76
 378 001f 72       	 .byte 114
 379 0020 25       	 .byte 37
 380 0021 ED       	 .byte -19
 381 0022 29       	 .byte 41
 382 0023 89       	 .byte -119
 383 0024 F8       	 .byte -8
 384 0025 D7       	 .byte -41
 385 0026 4B       	 .byte 75
 386 0027 45       	 .byte 69
 387 0028 BD       	 .byte -67
 388 0029 36       	 .byte 54
 389 002a 04       	 .byte 4
 390 002b 9C       	 .byte -100
 391 002c 0A       	 .byte 10
 392 002d AB       	 .byte -85
 393 002e 5A       	 .byte 90
 394 002f D0       	 .byte -48
 395 0030 FF       	 .byte -1
 396 0031 00       	 .byte 0
 397 0032 35       	 .byte 53
 398 0033 53       	 .byte 83
 399 0034 BA       	 .byte -70
 400 0035 84       	 .byte -124
 401 0036 3C       	 .byte 60
 402 0037 8E       	 .byte -114
 403 0038 12       	 .byte 18
 404 0039 78       	 .byte 120
 405 003a 2F       	 .byte 47
 406 003b C5       	 .byte -59
 407 003c 87       	 .byte -121
 408 003d 3B       	 .byte 59
 409 003e B8       	 .byte -72
 410 003f 9A       	 .byte -102
 411 0040 3D       	 .byte 61
 412 0041 C8       	 .byte -56
 413 0042 4B       	 .byte 75
 414 0043 88       	 .byte -120
 415 0044 3D       	 .byte 61
 416 0045 25       	 .byte 37
 417 0046 66       	 .byte 102
 418 0047 6C       	 .byte 108
 419 0048 D2       	 .byte -46
 420 0049 2B       	 .byte 43
 421 004a F3       	 .byte -13
 422 004b AC       	 .byte -84
 423 004c D5       	 .byte -43
 424 004d B6       	 .byte -74
 425 004e 75       	 .byte 117
 426 004f 96       	 .byte -106
 427 0050 9F       	 .byte -97
 428 0051 8B       	 .byte -117
 429 0052 EB       	 .byte -21
 430 0053 FB       	 .byte -5
 431 0054 CA       	 .byte -54
 432 0055 C9       	 .byte -55
 433 0056 3F       	 .byte 63
 434 0057 DD       	 .byte -35
 435 0058 92       	 .byte -110
 436 0059 7C       	 .byte 124
 437 005a 74       	 .byte 116
 438 005b 42       	 .byte 66
 439 005c B1       	 .byte -79
 440 005d 78       	 .byte 120
 441 005e B1       	 .byte -79
 442 005f 0D       	 .byte 13
 443 0060 1D       	 .byte 29
 444 0061 FF       	 .byte -1
 445 0062 93       	 .byte -109
 446 0063 98       	 .byte -104
 447 0064 E5       	 .byte -27
 448 0065 23       	 .byte 35
 449 0066 16       	 .byte 22
 450 0067 AA       	 .byte -86
 451 0068 E0       	 .byte -32
 452 0069 AF       	 .byte -81
 453 006a 74       	 .byte 116
 454 006b E5       	 .byte -27
 455 006c 94       	 .byte -108
 456 006d 65       	 .byte 101
 457 006e 0B       	 .byte 11
 458 006f DC       	 .byte -36
 459 0070 3C       	 .byte 60
 460 0071 67       	 .byte 103
 461 0072 02       	 .byte 2
 462 0073 41       	 .byte 65
 463 0074 D4       	 .byte -44
 464 0075 18       	 .byte 24
 465 0076 68       	 .byte 104
 466 0077 45       	 .byte 69
 467 0078 93       	 .byte -109
 468 0079 CD       	 .byte -51
 469 007a A1       	 .byte -95
 470 007b A7       	 .byte -89
 471 007c B9       	 .byte -71
 472 007d DC       	 .byte -36
 473 007e 4F       	 .byte 79
 474 007f 20       	 .byte 32
 475 0080 D2       	 .byte -46
 476 0081 FD       	 .byte -3
 477 0082 C6       	 .byte -58
 478 0083 F6       	 .byte -10
 479 0084 63       	 .byte 99
 480 0085 44       	 .byte 68
 481 0086 07       	 .byte 7
 482 0087 40       	 .byte 64
 483 0088 03       	 .byte 3
 484 0089 E2       	 .byte -30
 485 008a 11       	 .byte 17
 486 008b 02       	 .byte 2
 487 008c 04       	 .byte 4
 488 008d 00       	 .byte 0
 489 008e 01       	 .byte 1
 490 008f 00       	 .byte 0
 491 0090 01       	 .byte 1
 492              	 .section .data.digest,"aw",%progbits
 493              	 .set .LANCHOR3,.+0
 496              	digest:
 497 0000 91       	 .byte -111
 498 0001 70       	 .byte 112
 499 0002 02       	 .byte 2
 500 0003 48       	 .byte 72
 501 0004 3F       	 .byte 63
 502 0005 BD       	 .byte -67
 503 0006 5F       	 .byte 95
 504 0007 DD       	 .byte -35
 505 0008 D5       	 .byte -43
 506 0009 38       	 .byte 56
 507 000a EB       	 .byte -21
 508 000b DA       	 .byte -38
 509 000c 9A       	 .byte -102
 510 000d 5E       	 .byte 94
 511 000e 1F       	 .byte 31
 512 000f 46       	 .byte 70
 513 0010 FC       	 .byte -4
 514 0011 AD       	 .byte -83
 515 0012 8F       	 .byte -113
 516 0013 1E       	 .byte 30
 517 0014 2C       	 .byte 44
 518 0015 75       	 .byte 117
 519 0016 B0       	 .byte -80
 520 0017 83       	 .byte -125
 521 0018 D0       	 .byte -48
 522 0019 71       	 .byte 113
 523 001a 2B       	 .byte 43
 524 001b 80       	 .byte -128
 525 001c D4       	 .byte -44
 526 001d AA       	 .byte -86
 527 001e C6       	 .byte -58
 528 001f 9B       	 .byte -101
 529              	 .section .bss.optiga_lib_status,"aw",%nobits
 530              	 .align 1
 531              	 .set .LANCHOR0,.+0
 534              	optiga_lib_status:
 535 0000 0000     	 .space 2
 536              	 .text
 537              	.Letext0:
 538              	 .file 2 "c:\\dave_4-4-2_64bit\\dave-ide-4.4.2-64bit\\eclipse\\arm-gcc-49\\arm-none-eabi\\include\\machine\\_default_types.h"
 539              	 .file 3 "c:\\dave_4-4-2_64bit\\dave-ide-4.4.2-64bit\\eclipse\\arm-gcc-49\\arm-none-eabi\\include\\stdint.h"
 540              	 .file 4 "C:/Workspace/DAVE-4.4.2-64Bit/optiga-trust-m/optiga/include/optiga/common/optiga_lib_types.h"
 541              	 .file 5 "C:/Workspace/DAVE-4.4.2-64Bit/optiga-trust-m/optiga/include/optiga/common/optiga_lib_common.h"
 542              	 .file 6 "C:/Workspace/DAVE-4.4.2-64Bit/optiga-trust-m/optiga/include/optiga/cmd/optiga_cmd.h"
 543              	 .file 7 "C:/Workspace/DAVE-4.4.2-64Bit/optiga-trust-m/optiga/include/optiga/optiga_crypt.h"
 544              	 .file 8 "C:/Workspace/DAVE-4.4.2-64Bit/optiga-trust-m/optiga/include/optiga/common/optiga_lib_logger.h"