   1              	 .cpu cortex-m0
   2              	 .fpu softvfp
   3              	 .eabi_attribute 20,1
   4              	 .eabi_attribute 21,1
   5              	 .eabi_attribute 23,3
   6              	 .eabi_attribute 24,1
   7              	 .eabi_attribute 25,1
   8              	 .eabi_attribute 26,1
   9              	 .eabi_attribute 30,4
  10              	 .eabi_attribute 34,0
  11              	 .eabi_attribute 18,4
  12              	 .code 16
  13              	 .file "example_optiga_hibernate_restore.c"
  14              	 .text
  15              	.Ltext0:
  16              	 .cfi_sections .debug_frame
  17              	 .section .text.optiga_lib_callback,"ax",%progbits
  18              	 .align 1
  19              	 .code 16
  20              	 .thumb_func
  22              	optiga_lib_callback:
  23              	.LFB0:
  24              	 .file 1 "C:/Workspace/DAVE-4.4.2-64Bit/optiga-trust-m/examples/optiga/usecases/example_optiga_hibernate_restore.c"
   1:C:/Workspace/DAVE-4.4.2-64Bit/optiga-trust-m/examples/optiga/usecases\example_optiga_hibernate_restore.c **** /**
   2:C:/Workspace/DAVE-4.4.2-64Bit/optiga-trust-m/examples/optiga/usecases\example_optiga_hibernate_restore.c **** * \copyright
   3:C:/Workspace/DAVE-4.4.2-64Bit/optiga-trust-m/examples/optiga/usecases\example_optiga_hibernate_restore.c **** * MIT License
   4:C:/Workspace/DAVE-4.4.2-64Bit/optiga-trust-m/examples/optiga/usecases\example_optiga_hibernate_restore.c **** *
   5:C:/Workspace/DAVE-4.4.2-64Bit/optiga-trust-m/examples/optiga/usecases\example_optiga_hibernate_restore.c **** * Copyright (c) 2019 Infineon Technologies AG
   6:C:/Workspace/DAVE-4.4.2-64Bit/optiga-trust-m/examples/optiga/usecases\example_optiga_hibernate_restore.c **** *
   7:C:/Workspace/DAVE-4.4.2-64Bit/optiga-trust-m/examples/optiga/usecases\example_optiga_hibernate_restore.c **** * Permission is hereby granted, free of charge, to any person obtaining a copy
   8:C:/Workspace/DAVE-4.4.2-64Bit/optiga-trust-m/examples/optiga/usecases\example_optiga_hibernate_restore.c **** * of this software and associated documentation files (the "Software"), to deal
   9:C:/Workspace/DAVE-4.4.2-64Bit/optiga-trust-m/examples/optiga/usecases\example_optiga_hibernate_restore.c **** * in the Software without restriction, including without limitation the rights
  10:C:/Workspace/DAVE-4.4.2-64Bit/optiga-trust-m/examples/optiga/usecases\example_optiga_hibernate_restore.c **** * to use, copy, modify, merge, publish, distribute, sublicense, and/or sell
  11:C:/Workspace/DAVE-4.4.2-64Bit/optiga-trust-m/examples/optiga/usecases\example_optiga_hibernate_restore.c **** * copies of the Software, and to permit persons to whom the Software is
  12:C:/Workspace/DAVE-4.4.2-64Bit/optiga-trust-m/examples/optiga/usecases\example_optiga_hibernate_restore.c **** * furnished to do so, subject to the following conditions:
  13:C:/Workspace/DAVE-4.4.2-64Bit/optiga-trust-m/examples/optiga/usecases\example_optiga_hibernate_restore.c **** *
  14:C:/Workspace/DAVE-4.4.2-64Bit/optiga-trust-m/examples/optiga/usecases\example_optiga_hibernate_restore.c **** * The above copyright notice and this permission notice shall be included in all
  15:C:/Workspace/DAVE-4.4.2-64Bit/optiga-trust-m/examples/optiga/usecases\example_optiga_hibernate_restore.c **** * copies or substantial portions of the Software.
  16:C:/Workspace/DAVE-4.4.2-64Bit/optiga-trust-m/examples/optiga/usecases\example_optiga_hibernate_restore.c **** *
  17:C:/Workspace/DAVE-4.4.2-64Bit/optiga-trust-m/examples/optiga/usecases\example_optiga_hibernate_restore.c **** * THE SOFTWARE IS PROVIDED "AS IS", WITHOUT WARRANTY OF ANY KIND, EXPRESS OR
  18:C:/Workspace/DAVE-4.4.2-64Bit/optiga-trust-m/examples/optiga/usecases\example_optiga_hibernate_restore.c **** * IMPLIED, INCLUDING BUT NOT LIMITED TO THE WARRANTIES OF MERCHANTABILITY,
  19:C:/Workspace/DAVE-4.4.2-64Bit/optiga-trust-m/examples/optiga/usecases\example_optiga_hibernate_restore.c **** * FITNESS FOR A PARTICULAR PURPOSE AND NONINFRINGEMENT. IN NO EVENT SHALL THE
  20:C:/Workspace/DAVE-4.4.2-64Bit/optiga-trust-m/examples/optiga/usecases\example_optiga_hibernate_restore.c **** * AUTHORS OR COPYRIGHT HOLDERS BE LIABLE FOR ANY CLAIM, DAMAGES OR OTHER
  21:C:/Workspace/DAVE-4.4.2-64Bit/optiga-trust-m/examples/optiga/usecases\example_optiga_hibernate_restore.c **** * LIABILITY, WHETHER IN AN ACTION OF CONTRACT, TORT OR OTHERWISE, ARISING FROM,
  22:C:/Workspace/DAVE-4.4.2-64Bit/optiga-trust-m/examples/optiga/usecases\example_optiga_hibernate_restore.c **** * OUT OF OR IN CONNECTION WITH THE SOFTWARE OR THE USE OR OTHER DEALINGS IN THE
  23:C:/Workspace/DAVE-4.4.2-64Bit/optiga-trust-m/examples/optiga/usecases\example_optiga_hibernate_restore.c **** * SOFTWARE
  24:C:/Workspace/DAVE-4.4.2-64Bit/optiga-trust-m/examples/optiga/usecases\example_optiga_hibernate_restore.c **** *
  25:C:/Workspace/DAVE-4.4.2-64Bit/optiga-trust-m/examples/optiga/usecases\example_optiga_hibernate_restore.c **** * \endcopyright
  26:C:/Workspace/DAVE-4.4.2-64Bit/optiga-trust-m/examples/optiga/usecases\example_optiga_hibernate_restore.c **** *
  27:C:/Workspace/DAVE-4.4.2-64Bit/optiga-trust-m/examples/optiga/usecases\example_optiga_hibernate_restore.c **** * \author Infineon Technologies AG
  28:C:/Workspace/DAVE-4.4.2-64Bit/optiga-trust-m/examples/optiga/usecases\example_optiga_hibernate_restore.c **** *
  29:C:/Workspace/DAVE-4.4.2-64Bit/optiga-trust-m/examples/optiga/usecases\example_optiga_hibernate_restore.c **** * \file example_optiga_hibernate_restore.c
  30:C:/Workspace/DAVE-4.4.2-64Bit/optiga-trust-m/examples/optiga/usecases\example_optiga_hibernate_restore.c **** *
  31:C:/Workspace/DAVE-4.4.2-64Bit/optiga-trust-m/examples/optiga/usecases\example_optiga_hibernate_restore.c **** * \brief   This file provides an example for hibernate and restore functionalities
  32:C:/Workspace/DAVE-4.4.2-64Bit/optiga-trust-m/examples/optiga/usecases\example_optiga_hibernate_restore.c **** *
  33:C:/Workspace/DAVE-4.4.2-64Bit/optiga-trust-m/examples/optiga/usecases\example_optiga_hibernate_restore.c **** * \ingroup grUseCases
  34:C:/Workspace/DAVE-4.4.2-64Bit/optiga-trust-m/examples/optiga/usecases\example_optiga_hibernate_restore.c **** *
  35:C:/Workspace/DAVE-4.4.2-64Bit/optiga-trust-m/examples/optiga/usecases\example_optiga_hibernate_restore.c **** * @{
  36:C:/Workspace/DAVE-4.4.2-64Bit/optiga-trust-m/examples/optiga/usecases\example_optiga_hibernate_restore.c **** */
  37:C:/Workspace/DAVE-4.4.2-64Bit/optiga-trust-m/examples/optiga/usecases\example_optiga_hibernate_restore.c **** 
  38:C:/Workspace/DAVE-4.4.2-64Bit/optiga-trust-m/examples/optiga/usecases\example_optiga_hibernate_restore.c **** #include "optiga/optiga_util.h"
  39:C:/Workspace/DAVE-4.4.2-64Bit/optiga-trust-m/examples/optiga/usecases\example_optiga_hibernate_restore.c **** #include "optiga/optiga_crypt.h"
  40:C:/Workspace/DAVE-4.4.2-64Bit/optiga-trust-m/examples/optiga/usecases\example_optiga_hibernate_restore.c **** #include "optiga/pal/pal_os_timer.h"
  41:C:/Workspace/DAVE-4.4.2-64Bit/optiga-trust-m/examples/optiga/usecases\example_optiga_hibernate_restore.c **** #include "optiga_example.h"
  42:C:/Workspace/DAVE-4.4.2-64Bit/optiga-trust-m/examples/optiga/usecases\example_optiga_hibernate_restore.c **** 
  43:C:/Workspace/DAVE-4.4.2-64Bit/optiga-trust-m/examples/optiga/usecases\example_optiga_hibernate_restore.c **** //lint --e{526} suppress "the function is defined in example_pair_host_and_optiga_using_pre_shared_
  44:C:/Workspace/DAVE-4.4.2-64Bit/optiga-trust-m/examples/optiga/usecases\example_optiga_hibernate_restore.c **** void example_pair_host_and_optiga_using_pre_shared_secret(void);
  45:C:/Workspace/DAVE-4.4.2-64Bit/optiga-trust-m/examples/optiga/usecases\example_optiga_hibernate_restore.c **** /**
  46:C:/Workspace/DAVE-4.4.2-64Bit/optiga-trust-m/examples/optiga/usecases\example_optiga_hibernate_restore.c ****  * Callback when optiga_util_xxxx operation is completed asynchronously
  47:C:/Workspace/DAVE-4.4.2-64Bit/optiga-trust-m/examples/optiga/usecases\example_optiga_hibernate_restore.c ****  */
  48:C:/Workspace/DAVE-4.4.2-64Bit/optiga-trust-m/examples/optiga/usecases\example_optiga_hibernate_restore.c **** static volatile optiga_lib_status_t optiga_lib_status;
  49:C:/Workspace/DAVE-4.4.2-64Bit/optiga-trust-m/examples/optiga/usecases\example_optiga_hibernate_restore.c **** //lint --e{818} suppress "argument "context" is not used in the sample provided"
  50:C:/Workspace/DAVE-4.4.2-64Bit/optiga-trust-m/examples/optiga/usecases\example_optiga_hibernate_restore.c **** static void optiga_lib_callback(void * context, optiga_lib_status_t return_status)
  51:C:/Workspace/DAVE-4.4.2-64Bit/optiga-trust-m/examples/optiga/usecases\example_optiga_hibernate_restore.c **** {
  25              	 .loc 1 51 0
  26              	 .cfi_startproc
  27              	.LVL0:
  52:C:/Workspace/DAVE-4.4.2-64Bit/optiga-trust-m/examples/optiga/usecases\example_optiga_hibernate_restore.c ****     optiga_lib_status = return_status;
  28              	 .loc 1 52 0
  29 0000 014B     	 ldr r3,.L2
  53:C:/Workspace/DAVE-4.4.2-64Bit/optiga-trust-m/examples/optiga/usecases\example_optiga_hibernate_restore.c ****     if (NULL != context)
  54:C:/Workspace/DAVE-4.4.2-64Bit/optiga-trust-m/examples/optiga/usecases\example_optiga_hibernate_restore.c ****     {
  55:C:/Workspace/DAVE-4.4.2-64Bit/optiga-trust-m/examples/optiga/usecases\example_optiga_hibernate_restore.c ****         // callback to upper layer here
  56:C:/Workspace/DAVE-4.4.2-64Bit/optiga-trust-m/examples/optiga/usecases\example_optiga_hibernate_restore.c ****     }
  57:C:/Workspace/DAVE-4.4.2-64Bit/optiga-trust-m/examples/optiga/usecases\example_optiga_hibernate_restore.c **** }
  30              	 .loc 1 57 0
  31              	 
  52:C:/Workspace/DAVE-4.4.2-64Bit/optiga-trust-m/examples/optiga/usecases\example_optiga_hibernate_restore.c ****     optiga_lib_status = return_status;
  32              	 .loc 1 52 0
  33 0002 1980     	 strh r1,[r3]
  34              	 .loc 1 57 0
  35 0004 7047     	 bx lr
  36              	.L3:
  37 0006 C046     	 .align 2
  38              	.L2:
  39 0008 00000000 	 .word .LANCHOR0
  40              	 .cfi_endproc
  41              	.LFE0:
  43              	 .section .text.example_optiga_util_hibernate_restore,"ax",%progbits
  44              	 .align 1
  45              	 .global example_optiga_util_hibernate_restore
  46              	 .code 16
  47              	 .thumb_func
  49              	example_optiga_util_hibernate_restore:
  50              	.LFB1:
  58:C:/Workspace/DAVE-4.4.2-64Bit/optiga-trust-m/examples/optiga/usecases\example_optiga_hibernate_restore.c **** 
  59:C:/Workspace/DAVE-4.4.2-64Bit/optiga-trust-m/examples/optiga/usecases\example_optiga_hibernate_restore.c **** //SHA-256 Digest to be signed
  60:C:/Workspace/DAVE-4.4.2-64Bit/optiga-trust-m/examples/optiga/usecases\example_optiga_hibernate_restore.c **** static uint8_t digest [] =
  61:C:/Workspace/DAVE-4.4.2-64Bit/optiga-trust-m/examples/optiga/usecases\example_optiga_hibernate_restore.c **** {
  62:C:/Workspace/DAVE-4.4.2-64Bit/optiga-trust-m/examples/optiga/usecases\example_optiga_hibernate_restore.c ****     0x61, 0xC7, 0xDE, 0xF9, 0x0F, 0xD5, 0xCD, 0x7A,0x8B, 0x7A, 0x36, 0x41, 0x04, 0xE0, 0x0D, 0x82,
  63:C:/Workspace/DAVE-4.4.2-64Bit/optiga-trust-m/examples/optiga/usecases\example_optiga_hibernate_restore.c ****     0x38, 0x46, 0xBF, 0xB7, 0x70, 0xEE, 0xBF, 0x8F,0x40, 0x25, 0x2E, 0x0A, 0x21, 0x42, 0xAF, 0x9C,
  64:C:/Workspace/DAVE-4.4.2-64Bit/optiga-trust-m/examples/optiga/usecases\example_optiga_hibernate_restore.c **** };
  65:C:/Workspace/DAVE-4.4.2-64Bit/optiga-trust-m/examples/optiga/usecases\example_optiga_hibernate_restore.c **** 
  66:C:/Workspace/DAVE-4.4.2-64Bit/optiga-trust-m/examples/optiga/usecases\example_optiga_hibernate_restore.c **** /**
  67:C:/Workspace/DAVE-4.4.2-64Bit/optiga-trust-m/examples/optiga/usecases\example_optiga_hibernate_restore.c ****  * The below example demonstrates hibernate and restore functionalities
  68:C:/Workspace/DAVE-4.4.2-64Bit/optiga-trust-m/examples/optiga/usecases\example_optiga_hibernate_restore.c ****  *
  69:C:/Workspace/DAVE-4.4.2-64Bit/optiga-trust-m/examples/optiga/usecases\example_optiga_hibernate_restore.c ****  * Example for #optiga_util_open_application and #optiga_util_close_application
  70:C:/Workspace/DAVE-4.4.2-64Bit/optiga-trust-m/examples/optiga/usecases\example_optiga_hibernate_restore.c ****  *
  71:C:/Workspace/DAVE-4.4.2-64Bit/optiga-trust-m/examples/optiga/usecases\example_optiga_hibernate_restore.c ****  */
  72:C:/Workspace/DAVE-4.4.2-64Bit/optiga-trust-m/examples/optiga/usecases\example_optiga_hibernate_restore.c **** void example_optiga_util_hibernate_restore(void)
  73:C:/Workspace/DAVE-4.4.2-64Bit/optiga-trust-m/examples/optiga/usecases\example_optiga_hibernate_restore.c **** {
  51              	 .loc 1 73 0
  52              	 .cfi_startproc
  53              	.LVL1:
  54 0000 F0B5     	 push {r4,r5,r6,r7,lr}
  55              	.LCFI0:
  56              	 .cfi_def_cfa_offset 20
  57              	 .cfi_offset 4,-20
  58              	 .cfi_offset 5,-16
  59              	 .cfi_offset 6,-12
  60              	 .cfi_offset 7,-8
  61              	 .cfi_offset 14,-4
  62 0002 B7B0     	 sub sp,sp,#220
  63              	.LCFI1:
  64              	 .cfi_def_cfa_offset 240
  74:C:/Workspace/DAVE-4.4.2-64Bit/optiga-trust-m/examples/optiga/usecases\example_optiga_hibernate_restore.c ****     optiga_util_t * me_util = NULL;
  75:C:/Workspace/DAVE-4.4.2-64Bit/optiga-trust-m/examples/optiga/usecases\example_optiga_hibernate_restore.c ****     optiga_crypt_t * me_crypt = NULL;
  76:C:/Workspace/DAVE-4.4.2-64Bit/optiga-trust-m/examples/optiga/usecases\example_optiga_hibernate_restore.c ****     // To store the public key generated
  77:C:/Workspace/DAVE-4.4.2-64Bit/optiga-trust-m/examples/optiga/usecases\example_optiga_hibernate_restore.c ****     uint8_t public_key [100];
  78:C:/Workspace/DAVE-4.4.2-64Bit/optiga-trust-m/examples/optiga/usecases\example_optiga_hibernate_restore.c ****     //To store the signature generated
  79:C:/Workspace/DAVE-4.4.2-64Bit/optiga-trust-m/examples/optiga/usecases\example_optiga_hibernate_restore.c ****     uint8_t signature [80];
  80:C:/Workspace/DAVE-4.4.2-64Bit/optiga-trust-m/examples/optiga/usecases\example_optiga_hibernate_restore.c ****     uint16_t signature_length = sizeof(signature);
  65              	 .loc 1 80 0
  66 0004 6A46     	 mov r2,sp
  67 0006 5023     	 mov r3,#80
  81:C:/Workspace/DAVE-4.4.2-64Bit/optiga-trust-m/examples/optiga/usecases\example_optiga_hibernate_restore.c ****     uint16_t bytes_to_read = 1;
  82:C:/Workspace/DAVE-4.4.2-64Bit/optiga-trust-m/examples/optiga/usecases\example_optiga_hibernate_restore.c ****     optiga_key_id_t optiga_key_id;
  83:C:/Workspace/DAVE-4.4.2-64Bit/optiga-trust-m/examples/optiga/usecases\example_optiga_hibernate_restore.c ****     optiga_lib_status_t return_status = 0;
  84:C:/Workspace/DAVE-4.4.2-64Bit/optiga-trust-m/examples/optiga/usecases\example_optiga_hibernate_restore.c ****     uint8_t security_event_counter = 0;
  68              	 .loc 1 84 0
  69 0008 0026     	 mov r6,#0
  80:C:/Workspace/DAVE-4.4.2-64Bit/optiga-trust-m/examples/optiga/usecases\example_optiga_hibernate_restore.c ****     uint16_t bytes_to_read = 1;
  70              	 .loc 1 80 0
  71 000a 9382     	 strh r3,[r2,#20]
  81:C:/Workspace/DAVE-4.4.2-64Bit/optiga-trust-m/examples/optiga/usecases\example_optiga_hibernate_restore.c ****     uint16_t bytes_to_read = 1;
  72              	 .loc 1 81 0
  73 000c 4F3B     	 sub r3,r3,#79
  74 000e D382     	 strh r3,[r2,#22]
  75              	.LVL2:
  85:C:/Workspace/DAVE-4.4.2-64Bit/optiga-trust-m/examples/optiga/usecases\example_optiga_hibernate_restore.c ****     public_key_from_host_t public_key_details;
  86:C:/Workspace/DAVE-4.4.2-64Bit/optiga-trust-m/examples/optiga/usecases\example_optiga_hibernate_restore.c ****     //To store the generated public key as part of Generate key pair
  87:C:/Workspace/DAVE-4.4.2-64Bit/optiga-trust-m/examples/optiga/usecases\example_optiga_hibernate_restore.c ****     uint16_t public_key_length = sizeof(public_key);
  76              	 .loc 1 87 0
  77 0010 1A23     	 mov r3,#26
  84:C:/Workspace/DAVE-4.4.2-64Bit/optiga-trust-m/examples/optiga/usecases\example_optiga_hibernate_restore.c ****     public_key_from_host_t public_key_details;
  78              	 .loc 1 84 0
  79 0012 D674     	 strb r6,[r2,#19]
  80              	 .loc 1 87 0
  81 0014 6422     	 mov r2,#100
  82 0016 6B44     	 add r3,r3,sp
  83 0018 1A80     	 strh r2,[r3]
  88:C:/Workspace/DAVE-4.4.2-64Bit/optiga-trust-m/examples/optiga/usecases\example_optiga_hibernate_restore.c **** 
  89:C:/Workspace/DAVE-4.4.2-64Bit/optiga-trust-m/examples/optiga/usecases\example_optiga_hibernate_restore.c ****     OPTIGA_EXAMPLE_LOG_MESSAGE(__FUNCTION__);
  84              	 .loc 1 89 0
  85 001a 7A48     	 ldr r0,.L68
  86 001c 7A49     	 ldr r1,.L68+4
  87 001e 7B4A     	 ldr r2,.L68+8
  88 0020 FFF7FEFF 	 bl optiga_lib_print_message
  89              	.LVL3:
  90:C:/Workspace/DAVE-4.4.2-64Bit/optiga-trust-m/examples/optiga/usecases\example_optiga_hibernate_restore.c **** 
  91:C:/Workspace/DAVE-4.4.2-64Bit/optiga-trust-m/examples/optiga/usecases\example_optiga_hibernate_restore.c ****     do
  92:C:/Workspace/DAVE-4.4.2-64Bit/optiga-trust-m/examples/optiga/usecases\example_optiga_hibernate_restore.c ****     {
  93:C:/Workspace/DAVE-4.4.2-64Bit/optiga-trust-m/examples/optiga/usecases\example_optiga_hibernate_restore.c ****         //Create an instance of optiga_util and optiga_crypt
  94:C:/Workspace/DAVE-4.4.2-64Bit/optiga-trust-m/examples/optiga/usecases\example_optiga_hibernate_restore.c ****         me_util = optiga_util_create(0, optiga_lib_callback, NULL);
  90              	 .loc 1 94 0
  91 0024 7A4C     	 ldr r4,.L68+12
  92 0026 301C     	 mov r0,r6
  93 0028 211C     	 mov r1,r4
  94 002a 321C     	 mov r2,r6
  95 002c FFF7FEFF 	 bl optiga_util_create
  96              	.LVL4:
  97 0030 071E     	 sub r7,r0,#0
  98              	.LVL5:
  95:C:/Workspace/DAVE-4.4.2-64Bit/optiga-trust-m/examples/optiga/usecases\example_optiga_hibernate_restore.c ****         if (NULL == me_util)
  99              	 .loc 1 95 0
 100 0032 B742     	 cmp r7,r6
 101 0034 00D1     	 bne .LCB67
 102 0036 C7E0     	 b .L5
 103              	.LCB67:
  96:C:/Workspace/DAVE-4.4.2-64Bit/optiga-trust-m/examples/optiga/usecases\example_optiga_hibernate_restore.c ****         {
  97:C:/Workspace/DAVE-4.4.2-64Bit/optiga-trust-m/examples/optiga/usecases\example_optiga_hibernate_restore.c ****             break;
  98:C:/Workspace/DAVE-4.4.2-64Bit/optiga-trust-m/examples/optiga/usecases\example_optiga_hibernate_restore.c ****         }
  99:C:/Workspace/DAVE-4.4.2-64Bit/optiga-trust-m/examples/optiga/usecases\example_optiga_hibernate_restore.c **** 
 100:C:/Workspace/DAVE-4.4.2-64Bit/optiga-trust-m/examples/optiga/usecases\example_optiga_hibernate_restore.c ****         me_crypt = optiga_crypt_create(0, optiga_lib_callback, NULL);
 104              	 .loc 1 100 0
 105 0038 211C     	 mov r1,r4
 106 003a 301C     	 mov r0,r6
 107              	.LVL6:
 108 003c 321C     	 mov r2,r6
 109 003e FFF7FEFF 	 bl optiga_crypt_create
 110              	.LVL7:
 111 0042 041E     	 sub r4,r0,#0
 112              	.LVL8:
 101:C:/Workspace/DAVE-4.4.2-64Bit/optiga-trust-m/examples/optiga/usecases\example_optiga_hibernate_restore.c ****         if (NULL == me_crypt)
 113              	 .loc 1 101 0
 114 0044 B442     	 cmp r4,r6
 115 0046 00D1     	 bne .LCB77
 116 0048 BEE0     	 b .L5
 117              	.LCB77:
 102:C:/Workspace/DAVE-4.4.2-64Bit/optiga-trust-m/examples/optiga/usecases\example_optiga_hibernate_restore.c ****         {
 103:C:/Workspace/DAVE-4.4.2-64Bit/optiga-trust-m/examples/optiga/usecases\example_optiga_hibernate_restore.c ****             break;
 104:C:/Workspace/DAVE-4.4.2-64Bit/optiga-trust-m/examples/optiga/usecases\example_optiga_hibernate_restore.c ****         }
 105:C:/Workspace/DAVE-4.4.2-64Bit/optiga-trust-m/examples/optiga/usecases\example_optiga_hibernate_restore.c **** 
 106:C:/Workspace/DAVE-4.4.2-64Bit/optiga-trust-m/examples/optiga/usecases\example_optiga_hibernate_restore.c ****         /**
 107:C:/Workspace/DAVE-4.4.2-64Bit/optiga-trust-m/examples/optiga/usecases\example_optiga_hibernate_restore.c ****          * 1. Open the application on OPTIGA which is a pre-condition to perform any other operatio
 108:C:/Workspace/DAVE-4.4.2-64Bit/optiga-trust-m/examples/optiga/usecases\example_optiga_hibernate_restore.c ****          *    using optiga_util_open_application
 109:C:/Workspace/DAVE-4.4.2-64Bit/optiga-trust-m/examples/optiga/usecases\example_optiga_hibernate_restore.c ****          */
 110:C:/Workspace/DAVE-4.4.2-64Bit/optiga-trust-m/examples/optiga/usecases\example_optiga_hibernate_restore.c ****         optiga_lib_status = OPTIGA_LIB_BUSY;
 118              	 .loc 1 110 0
 119 004a 0123     	 mov r3,#1
 120 004c 714D     	 ldr r5,.L68+16
 111:C:/Workspace/DAVE-4.4.2-64Bit/optiga-trust-m/examples/optiga/usecases\example_optiga_hibernate_restore.c ****         return_status = optiga_util_open_application(me_util, 0);
 121              	 .loc 1 111 0
 122 004e 381C     	 mov r0,r7
 123              	.LVL9:
 124 0050 311C     	 mov r1,r6
 110:C:/Workspace/DAVE-4.4.2-64Bit/optiga-trust-m/examples/optiga/usecases\example_optiga_hibernate_restore.c ****         return_status = optiga_util_open_application(me_util, 0);
 125              	 .loc 1 110 0
 126 0052 2B80     	 strh r3,[r5]
 127              	 .loc 1 111 0
 128 0054 FFF7FEFF 	 bl optiga_util_open_application
 129              	.LVL10:
 130 0058 021E     	 sub r2,r0,#0
 131              	.LVL11:
 112:C:/Workspace/DAVE-4.4.2-64Bit/optiga-trust-m/examples/optiga/usecases\example_optiga_hibernate_restore.c **** 
 113:C:/Workspace/DAVE-4.4.2-64Bit/optiga-trust-m/examples/optiga/usecases\example_optiga_hibernate_restore.c ****         if (OPTIGA_LIB_SUCCESS != return_status)
 132              	 .loc 1 113 0
 133 005a B242     	 cmp r2,r6
 134 005c 00D0     	 beq .LCB89
 135 005e AEE0     	 b .L32
 136              	.LCB89:
 137              	.L7:
 114:C:/Workspace/DAVE-4.4.2-64Bit/optiga-trust-m/examples/optiga/usecases\example_optiga_hibernate_restore.c ****         {
 115:C:/Workspace/DAVE-4.4.2-64Bit/optiga-trust-m/examples/optiga/usecases\example_optiga_hibernate_restore.c ****             break;
 116:C:/Workspace/DAVE-4.4.2-64Bit/optiga-trust-m/examples/optiga/usecases\example_optiga_hibernate_restore.c ****         }
 117:C:/Workspace/DAVE-4.4.2-64Bit/optiga-trust-m/examples/optiga/usecases\example_optiga_hibernate_restore.c ****         while (optiga_lib_status == OPTIGA_LIB_BUSY)
 138              	 .loc 1 117 0 discriminator 1
 139 0060 2B88     	 ldrh r3,[r5]
 140 0062 012B     	 cmp r3,#1
 141 0064 FCD0     	 beq .L7
 118:C:/Workspace/DAVE-4.4.2-64Bit/optiga-trust-m/examples/optiga/usecases\example_optiga_hibernate_restore.c ****         {
 119:C:/Workspace/DAVE-4.4.2-64Bit/optiga-trust-m/examples/optiga/usecases\example_optiga_hibernate_restore.c ****             //Wait until the optiga_util_open_application is completed
 120:C:/Workspace/DAVE-4.4.2-64Bit/optiga-trust-m/examples/optiga/usecases\example_optiga_hibernate_restore.c ****         }
 121:C:/Workspace/DAVE-4.4.2-64Bit/optiga-trust-m/examples/optiga/usecases\example_optiga_hibernate_restore.c ****         if (OPTIGA_LIB_SUCCESS != optiga_lib_status)
 142              	 .loc 1 121 0
 143 0066 2E88     	 ldrh r6,[r5]
 144 0068 B6B2     	 uxth r6,r6
 145 006a 002E     	 cmp r6,#0
 146 006c 00D0     	 beq .LCB98
 147 006e A2E0     	 b .L65
 148              	.LCB98:
 122:C:/Workspace/DAVE-4.4.2-64Bit/optiga-trust-m/examples/optiga/usecases\example_optiga_hibernate_restore.c ****         {
 123:C:/Workspace/DAVE-4.4.2-64Bit/optiga-trust-m/examples/optiga/usecases\example_optiga_hibernate_restore.c ****             //optiga_util_open_application failed
 124:C:/Workspace/DAVE-4.4.2-64Bit/optiga-trust-m/examples/optiga/usecases\example_optiga_hibernate_restore.c ****             return_status = optiga_lib_status;
 125:C:/Workspace/DAVE-4.4.2-64Bit/optiga-trust-m/examples/optiga/usecases\example_optiga_hibernate_restore.c ****             break;
 126:C:/Workspace/DAVE-4.4.2-64Bit/optiga-trust-m/examples/optiga/usecases\example_optiga_hibernate_restore.c ****         }
 127:C:/Workspace/DAVE-4.4.2-64Bit/optiga-trust-m/examples/optiga/usecases\example_optiga_hibernate_restore.c **** 
 128:C:/Workspace/DAVE-4.4.2-64Bit/optiga-trust-m/examples/optiga/usecases\example_optiga_hibernate_restore.c ****         /**
 129:C:/Workspace/DAVE-4.4.2-64Bit/optiga-trust-m/examples/optiga/usecases\example_optiga_hibernate_restore.c ****          * 2. Pairing the Host and OPTIGA using a pre-shared secret
 130:C:/Workspace/DAVE-4.4.2-64Bit/optiga-trust-m/examples/optiga/usecases\example_optiga_hibernate_restore.c ****          */
 131:C:/Workspace/DAVE-4.4.2-64Bit/optiga-trust-m/examples/optiga/usecases\example_optiga_hibernate_restore.c ****         example_pair_host_and_optiga_using_pre_shared_secret();
 149              	 .loc 1 131 0
 150 0070 FFF7FEFF 	 bl example_pair_host_and_optiga_using_pre_shared_secret
 151              	.LVL12:
 132:C:/Workspace/DAVE-4.4.2-64Bit/optiga-trust-m/examples/optiga/usecases\example_optiga_hibernate_restore.c **** 
 133:C:/Workspace/DAVE-4.4.2-64Bit/optiga-trust-m/examples/optiga/usecases\example_optiga_hibernate_restore.c ****         /**
 134:C:/Workspace/DAVE-4.4.2-64Bit/optiga-trust-m/examples/optiga/usecases\example_optiga_hibernate_restore.c ****          * 3. Generate ECC Key pair
 135:C:/Workspace/DAVE-4.4.2-64Bit/optiga-trust-m/examples/optiga/usecases\example_optiga_hibernate_restore.c ****          *       - Use ECC NIST P 256 Curve
 136:C:/Workspace/DAVE-4.4.2-64Bit/optiga-trust-m/examples/optiga/usecases\example_optiga_hibernate_restore.c ****          *       - Specify the Key Usage (Key Agreement or Sign based on requirement)
 137:C:/Workspace/DAVE-4.4.2-64Bit/optiga-trust-m/examples/optiga/usecases\example_optiga_hibernate_restore.c ****          *       - Store the Private key generated in a Session OID
 138:C:/Workspace/DAVE-4.4.2-64Bit/optiga-trust-m/examples/optiga/usecases\example_optiga_hibernate_restore.c ****          *       - Export Public Key
 139:C:/Workspace/DAVE-4.4.2-64Bit/optiga-trust-m/examples/optiga/usecases\example_optiga_hibernate_restore.c ****          */
 140:C:/Workspace/DAVE-4.4.2-64Bit/optiga-trust-m/examples/optiga/usecases\example_optiga_hibernate_restore.c ****         optiga_lib_status = OPTIGA_LIB_BUSY;
 152              	 .loc 1 140 0
 153 0074 0121     	 mov r1,#1
 141:C:/Workspace/DAVE-4.4.2-64Bit/optiga-trust-m/examples/optiga/usecases\example_optiga_hibernate_restore.c ****         optiga_key_id = OPTIGA_KEY_ID_SESSION_BASED;
 142:C:/Workspace/DAVE-4.4.2-64Bit/optiga-trust-m/examples/optiga/usecases\example_optiga_hibernate_restore.c ****         // OPTIGA Comms Shielded connection settings to enable the protection
 143:C:/Workspace/DAVE-4.4.2-64Bit/optiga-trust-m/examples/optiga/usecases\example_optiga_hibernate_restore.c ****         OPTIGA_CRYPT_SET_COMMS_PROTECTION_LEVEL(me_crypt, OPTIGA_COMMS_RESPONSE_PROTECTION);
 154              	 .loc 1 143 0
 155 0076 201C     	 mov r0,r4
 140:C:/Workspace/DAVE-4.4.2-64Bit/optiga-trust-m/examples/optiga/usecases\example_optiga_hibernate_restore.c ****         optiga_key_id = OPTIGA_KEY_ID_SESSION_BASED;
 156              	 .loc 1 140 0
 157 0078 2980     	 strh r1,[r5]
 158              	 .loc 1 143 0
 159 007a 0222     	 mov r2,#2
 141:C:/Workspace/DAVE-4.4.2-64Bit/optiga-trust-m/examples/optiga/usecases\example_optiga_hibernate_restore.c ****         optiga_key_id = OPTIGA_KEY_ID_SESSION_BASED;
 160              	 .loc 1 141 0
 161 007c 06AD     	 add r5,sp,#24
 162 007e 2E80     	 strh r6,[r5]
 163              	 .loc 1 143 0
 164 0080 FFF7FEFF 	 bl optiga_crypt_set_comms_params
 165              	.LVL13:
 144:C:/Workspace/DAVE-4.4.2-64Bit/optiga-trust-m/examples/optiga/usecases\example_optiga_hibernate_restore.c **** 
 145:C:/Workspace/DAVE-4.4.2-64Bit/optiga-trust-m/examples/optiga/usecases\example_optiga_hibernate_restore.c ****         return_status = optiga_crypt_ecc_generate_keypair(me_crypt,
 166              	 .loc 1 145 0
 167 0084 1DAB     	 add r3,sp,#116
 168 0086 0193     	 str r3,[sp,#4]
 169 0088 1A23     	 mov r3,#26
 170 008a 6B44     	 add r3,r3,sp
 171 008c 0293     	 str r3,[sp,#8]
 172 008e 1022     	 mov r2,#16
 173 0090 0095     	 str r5,[sp]
 174 0092 201C     	 mov r0,r4
 175 0094 0321     	 mov r1,#3
 176 0096 331C     	 mov r3,r6
 177 0098 FFF7FEFF 	 bl optiga_crypt_ecc_generate_keypair
 178              	.LVL14:
 179 009c 021E     	 sub r2,r0,#0
 180              	.LVL15:
 146:C:/Workspace/DAVE-4.4.2-64Bit/optiga-trust-m/examples/optiga/usecases\example_optiga_hibernate_restore.c ****                                                           OPTIGA_ECC_CURVE_NIST_P_256,
 147:C:/Workspace/DAVE-4.4.2-64Bit/optiga-trust-m/examples/optiga/usecases\example_optiga_hibernate_restore.c ****                                                           (uint8_t)OPTIGA_KEY_USAGE_SIGN,
 148:C:/Workspace/DAVE-4.4.2-64Bit/optiga-trust-m/examples/optiga/usecases\example_optiga_hibernate_restore.c ****                                                           FALSE,
 149:C:/Workspace/DAVE-4.4.2-64Bit/optiga-trust-m/examples/optiga/usecases\example_optiga_hibernate_restore.c ****                                                           &optiga_key_id,
 150:C:/Workspace/DAVE-4.4.2-64Bit/optiga-trust-m/examples/optiga/usecases\example_optiga_hibernate_restore.c ****                                                           public_key,
 151:C:/Workspace/DAVE-4.4.2-64Bit/optiga-trust-m/examples/optiga/usecases\example_optiga_hibernate_restore.c ****                                                           &public_key_length);
 152:C:/Workspace/DAVE-4.4.2-64Bit/optiga-trust-m/examples/optiga/usecases\example_optiga_hibernate_restore.c ****         if (OPTIGA_LIB_SUCCESS != return_status)
 181              	 .loc 1 152 0
 182 009e 00D0     	 beq .LCB126
 183 00a0 8DE0     	 b .L32
 184              	.LCB126:
 185              	.L10:
 153:C:/Workspace/DAVE-4.4.2-64Bit/optiga-trust-m/examples/optiga/usecases\example_optiga_hibernate_restore.c ****         {
 154:C:/Workspace/DAVE-4.4.2-64Bit/optiga-trust-m/examples/optiga/usecases\example_optiga_hibernate_restore.c ****             break;
 155:C:/Workspace/DAVE-4.4.2-64Bit/optiga-trust-m/examples/optiga/usecases\example_optiga_hibernate_restore.c ****         }
 156:C:/Workspace/DAVE-4.4.2-64Bit/optiga-trust-m/examples/optiga/usecases\example_optiga_hibernate_restore.c **** 
 157:C:/Workspace/DAVE-4.4.2-64Bit/optiga-trust-m/examples/optiga/usecases\example_optiga_hibernate_restore.c ****         while (OPTIGA_LIB_BUSY == optiga_lib_status)
 186              	 .loc 1 157 0 discriminator 1
 187 00a2 5C4B     	 ldr r3,.L68+16
 188 00a4 1A88     	 ldrh r2,[r3]
 189 00a6 012A     	 cmp r2,#1
 190 00a8 FBD0     	 beq .L10
 158:C:/Workspace/DAVE-4.4.2-64Bit/optiga-trust-m/examples/optiga/usecases\example_optiga_hibernate_restore.c ****         {
 159:C:/Workspace/DAVE-4.4.2-64Bit/optiga-trust-m/examples/optiga/usecases\example_optiga_hibernate_restore.c ****             //Wait until the optiga_crypt_ecc_generate_keypair operation is completed
 160:C:/Workspace/DAVE-4.4.2-64Bit/optiga-trust-m/examples/optiga/usecases\example_optiga_hibernate_restore.c ****         }
 161:C:/Workspace/DAVE-4.4.2-64Bit/optiga-trust-m/examples/optiga/usecases\example_optiga_hibernate_restore.c **** 
 162:C:/Workspace/DAVE-4.4.2-64Bit/optiga-trust-m/examples/optiga/usecases\example_optiga_hibernate_restore.c ****         if (OPTIGA_LIB_SUCCESS != optiga_lib_status)
 191              	 .loc 1 162 0
 192 00aa 1A88     	 ldrh r2,[r3]
 193 00ac 002A     	 cmp r2,#0
 194 00ae 00D0     	 beq .LCB137
 195 00b0 72E0     	 b .L66
 196              	.LCB137:
 197              	.LVL16:
 198              	.L11:
 163:C:/Workspace/DAVE-4.4.2-64Bit/optiga-trust-m/examples/optiga/usecases\example_optiga_hibernate_restore.c ****         {
 164:C:/Workspace/DAVE-4.4.2-64Bit/optiga-trust-m/examples/optiga/usecases\example_optiga_hibernate_restore.c ****             //Key pair generation failed
 165:C:/Workspace/DAVE-4.4.2-64Bit/optiga-trust-m/examples/optiga/usecases\example_optiga_hibernate_restore.c ****             return_status = optiga_lib_status;
 166:C:/Workspace/DAVE-4.4.2-64Bit/optiga-trust-m/examples/optiga/usecases\example_optiga_hibernate_restore.c ****             break;
 167:C:/Workspace/DAVE-4.4.2-64Bit/optiga-trust-m/examples/optiga/usecases\example_optiga_hibernate_restore.c ****         }
 168:C:/Workspace/DAVE-4.4.2-64Bit/optiga-trust-m/examples/optiga/usecases\example_optiga_hibernate_restore.c **** 
 169:C:/Workspace/DAVE-4.4.2-64Bit/optiga-trust-m/examples/optiga/usecases\example_optiga_hibernate_restore.c ****         /**
 170:C:/Workspace/DAVE-4.4.2-64Bit/optiga-trust-m/examples/optiga/usecases\example_optiga_hibernate_restore.c ****          * - The subsequent steps will hibernate OPTIGA and save the session and optiga comms relat
 171:C:/Workspace/DAVE-4.4.2-64Bit/optiga-trust-m/examples/optiga/usecases\example_optiga_hibernate_restore.c ****          * - The session and optiga comms related information are then restored back and crypto ope
 172:C:/Workspace/DAVE-4.4.2-64Bit/optiga-trust-m/examples/optiga/usecases\example_optiga_hibernate_restore.c ****          */
 173:C:/Workspace/DAVE-4.4.2-64Bit/optiga-trust-m/examples/optiga/usecases\example_optiga_hibernate_restore.c **** 
 174:C:/Workspace/DAVE-4.4.2-64Bit/optiga-trust-m/examples/optiga/usecases\example_optiga_hibernate_restore.c ****         /**
 175:C:/Workspace/DAVE-4.4.2-64Bit/optiga-trust-m/examples/optiga/usecases\example_optiga_hibernate_restore.c ****          * 4. To perform the hibernate, Security Event Counter(SEC) must be 0.
 176:C:/Workspace/DAVE-4.4.2-64Bit/optiga-trust-m/examples/optiga/usecases\example_optiga_hibernate_restore.c ****          *    Read SEC data object (0xE0C5) and wait until SEC = 0
 177:C:/Workspace/DAVE-4.4.2-64Bit/optiga-trust-m/examples/optiga/usecases\example_optiga_hibernate_restore.c ****          */
 178:C:/Workspace/DAVE-4.4.2-64Bit/optiga-trust-m/examples/optiga/usecases\example_optiga_hibernate_restore.c ****         do
 179:C:/Workspace/DAVE-4.4.2-64Bit/optiga-trust-m/examples/optiga/usecases\example_optiga_hibernate_restore.c ****         {
 180:C:/Workspace/DAVE-4.4.2-64Bit/optiga-trust-m/examples/optiga/usecases\example_optiga_hibernate_restore.c ****             optiga_lib_status = OPTIGA_LIB_BUSY;
 199              	 .loc 1 180 0
 200 00b2 0123     	 mov r3,#1
 201 00b4 574E     	 ldr r6,.L68+16
 181:C:/Workspace/DAVE-4.4.2-64Bit/optiga-trust-m/examples/optiga/usecases\example_optiga_hibernate_restore.c ****             return_status = optiga_util_read_data(me_util,
 202              	 .loc 1 181 0
 203 00b6 381C     	 mov r0,r7
 180:C:/Workspace/DAVE-4.4.2-64Bit/optiga-trust-m/examples/optiga/usecases\example_optiga_hibernate_restore.c ****             return_status = optiga_util_read_data(me_util,
 204              	 .loc 1 180 0
 205 00b8 3380     	 strh r3,[r6]
 206              	 .loc 1 181 0
 207 00ba 1533     	 add r3,r3,#21
 208 00bc 6B44     	 add r3,r3,sp
 209 00be 0093     	 str r3,[sp]
 210 00c0 1323     	 mov r3,#19
 211 00c2 5549     	 ldr r1,.L68+20
 212 00c4 0022     	 mov r2,#0
 213 00c6 6B44     	 add r3,r3,sp
 214 00c8 FFF7FEFF 	 bl optiga_util_read_data
 215              	.LVL17:
 216 00cc 351C     	 mov r5,r6
 182:C:/Workspace/DAVE-4.4.2-64Bit/optiga-trust-m/examples/optiga/usecases\example_optiga_hibernate_restore.c ****                                                   0xE0C5,
 183:C:/Workspace/DAVE-4.4.2-64Bit/optiga-trust-m/examples/optiga/usecases\example_optiga_hibernate_restore.c ****                                                   0x0000,
 184:C:/Workspace/DAVE-4.4.2-64Bit/optiga-trust-m/examples/optiga/usecases\example_optiga_hibernate_restore.c ****                                                   &security_event_counter,
 185:C:/Workspace/DAVE-4.4.2-64Bit/optiga-trust-m/examples/optiga/usecases\example_optiga_hibernate_restore.c ****                                                   &bytes_to_read);
 186:C:/Workspace/DAVE-4.4.2-64Bit/optiga-trust-m/examples/optiga/usecases\example_optiga_hibernate_restore.c **** 
 187:C:/Workspace/DAVE-4.4.2-64Bit/optiga-trust-m/examples/optiga/usecases\example_optiga_hibernate_restore.c ****             if (OPTIGA_LIB_SUCCESS != return_status)
 217              	 .loc 1 187 0
 218 00ce 0028     	 cmp r0,#0
 219 00d0 0FD1     	 bne .L13
 220              	.L12:
 188:C:/Workspace/DAVE-4.4.2-64Bit/optiga-trust-m/examples/optiga/usecases\example_optiga_hibernate_restore.c ****             {
 189:C:/Workspace/DAVE-4.4.2-64Bit/optiga-trust-m/examples/optiga/usecases\example_optiga_hibernate_restore.c ****                 break;
 190:C:/Workspace/DAVE-4.4.2-64Bit/optiga-trust-m/examples/optiga/usecases\example_optiga_hibernate_restore.c ****             }
 191:C:/Workspace/DAVE-4.4.2-64Bit/optiga-trust-m/examples/optiga/usecases\example_optiga_hibernate_restore.c **** 
 192:C:/Workspace/DAVE-4.4.2-64Bit/optiga-trust-m/examples/optiga/usecases\example_optiga_hibernate_restore.c ****             while (OPTIGA_LIB_BUSY == optiga_lib_status)
 221              	 .loc 1 192 0 discriminator 1
 222 00d2 2B88     	 ldrh r3,[r5]
 223 00d4 012B     	 cmp r3,#1
 224 00d6 FCD0     	 beq .L12
 193:C:/Workspace/DAVE-4.4.2-64Bit/optiga-trust-m/examples/optiga/usecases\example_optiga_hibernate_restore.c ****             {
 194:C:/Workspace/DAVE-4.4.2-64Bit/optiga-trust-m/examples/optiga/usecases\example_optiga_hibernate_restore.c ****                 //Wait until the optiga_util_read_data operation is completed
 195:C:/Workspace/DAVE-4.4.2-64Bit/optiga-trust-m/examples/optiga/usecases\example_optiga_hibernate_restore.c ****             }
 196:C:/Workspace/DAVE-4.4.2-64Bit/optiga-trust-m/examples/optiga/usecases\example_optiga_hibernate_restore.c **** 
 197:C:/Workspace/DAVE-4.4.2-64Bit/optiga-trust-m/examples/optiga/usecases\example_optiga_hibernate_restore.c ****             if (OPTIGA_LIB_SUCCESS != optiga_lib_status)
 225              	 .loc 1 197 0
 226 00d8 3388     	 ldrh r3,[r6]
 227 00da 002B     	 cmp r3,#0
 228 00dc 01D0     	 beq .L14
 198:C:/Workspace/DAVE-4.4.2-64Bit/optiga-trust-m/examples/optiga/usecases\example_optiga_hibernate_restore.c ****             {
 199:C:/Workspace/DAVE-4.4.2-64Bit/optiga-trust-m/examples/optiga/usecases\example_optiga_hibernate_restore.c ****                 //Reading the data object failed.
 200:C:/Workspace/DAVE-4.4.2-64Bit/optiga-trust-m/examples/optiga/usecases\example_optiga_hibernate_restore.c ****                 return_status = optiga_lib_status;
 229              	 .loc 1 200 0
 230 00de 2B88     	 ldrh r3,[r5]
 231              	.LVL18:
 201:C:/Workspace/DAVE-4.4.2-64Bit/optiga-trust-m/examples/optiga/usecases\example_optiga_hibernate_restore.c ****                 break;
 232              	 .loc 1 201 0
 233 00e0 07E0     	 b .L13
 234              	.LVL19:
 235              	.L14:
 202:C:/Workspace/DAVE-4.4.2-64Bit/optiga-trust-m/examples/optiga/usecases\example_optiga_hibernate_restore.c ****             }
 203:C:/Workspace/DAVE-4.4.2-64Bit/optiga-trust-m/examples/optiga/usecases\example_optiga_hibernate_restore.c ****             pal_os_timer_delay_in_milliseconds(1000);
 236              	 .loc 1 203 0
 237 00e2 FA20     	 mov r0,#250
 238              	.LVL20:
 239 00e4 8000     	 lsl r0,r0,#2
 240 00e6 FFF7FEFF 	 bl pal_os_timer_delay_in_milliseconds
 241              	.LVL21:
 204:C:/Workspace/DAVE-4.4.2-64Bit/optiga-trust-m/examples/optiga/usecases\example_optiga_hibernate_restore.c ****         } while (0 != security_event_counter);
 242              	 .loc 1 204 0
 243 00ea 6B46     	 mov r3,sp
 244 00ec DB7C     	 ldrb r3,[r3,#19]
 245 00ee 002B     	 cmp r3,#0
 246 00f0 DFD1     	 bne .L11
 247              	.L13:
 205:C:/Workspace/DAVE-4.4.2-64Bit/optiga-trust-m/examples/optiga/usecases\example_optiga_hibernate_restore.c **** 
 206:C:/Workspace/DAVE-4.4.2-64Bit/optiga-trust-m/examples/optiga/usecases\example_optiga_hibernate_restore.c ****         /**
 207:C:/Workspace/DAVE-4.4.2-64Bit/optiga-trust-m/examples/optiga/usecases\example_optiga_hibernate_restore.c ****          * 5. Hibernate the application on OPTIGA
 208:C:/Workspace/DAVE-4.4.2-64Bit/optiga-trust-m/examples/optiga/usecases\example_optiga_hibernate_restore.c ****          *    using optiga_util_close_application with perform_hibernate parameter as true
 209:C:/Workspace/DAVE-4.4.2-64Bit/optiga-trust-m/examples/optiga/usecases\example_optiga_hibernate_restore.c ****          */
 210:C:/Workspace/DAVE-4.4.2-64Bit/optiga-trust-m/examples/optiga/usecases\example_optiga_hibernate_restore.c ****         optiga_lib_status = OPTIGA_LIB_BUSY;
 248              	 .loc 1 210 0
 249 00f2 0121     	 mov r1,#1
 211:C:/Workspace/DAVE-4.4.2-64Bit/optiga-trust-m/examples/optiga/usecases\example_optiga_hibernate_restore.c ****         return_status = optiga_util_close_application(me_util, 1);
 250              	 .loc 1 211 0
 251 00f4 381C     	 mov r0,r7
 210:C:/Workspace/DAVE-4.4.2-64Bit/optiga-trust-m/examples/optiga/usecases\example_optiga_hibernate_restore.c ****         return_status = optiga_util_close_application(me_util, 1);
 252              	 .loc 1 210 0
 253 00f6 2980     	 strh r1,[r5]
 254              	 .loc 1 211 0
 255 00f8 FFF7FEFF 	 bl optiga_util_close_application
 256              	.LVL22:
 257 00fc 021E     	 sub r2,r0,#0
 258              	.LVL23:
 212:C:/Workspace/DAVE-4.4.2-64Bit/optiga-trust-m/examples/optiga/usecases\example_optiga_hibernate_restore.c **** 
 213:C:/Workspace/DAVE-4.4.2-64Bit/optiga-trust-m/examples/optiga/usecases\example_optiga_hibernate_restore.c ****         if (OPTIGA_LIB_SUCCESS != return_status)
 259              	 .loc 1 213 0
 260 00fe 5ED1     	 bne .L32
 261              	.L16:
 214:C:/Workspace/DAVE-4.4.2-64Bit/optiga-trust-m/examples/optiga/usecases\example_optiga_hibernate_restore.c ****         {
 215:C:/Workspace/DAVE-4.4.2-64Bit/optiga-trust-m/examples/optiga/usecases\example_optiga_hibernate_restore.c ****             break;
 216:C:/Workspace/DAVE-4.4.2-64Bit/optiga-trust-m/examples/optiga/usecases\example_optiga_hibernate_restore.c ****         }
 217:C:/Workspace/DAVE-4.4.2-64Bit/optiga-trust-m/examples/optiga/usecases\example_optiga_hibernate_restore.c **** 
 218:C:/Workspace/DAVE-4.4.2-64Bit/optiga-trust-m/examples/optiga/usecases\example_optiga_hibernate_restore.c ****         while (optiga_lib_status == OPTIGA_LIB_BUSY)
 262              	 .loc 1 218 0 discriminator 1
 263 0100 2B88     	 ldrh r3,[r5]
 264 0102 012B     	 cmp r3,#1
 265 0104 FCD0     	 beq .L16
 219:C:/Workspace/DAVE-4.4.2-64Bit/optiga-trust-m/examples/optiga/usecases\example_optiga_hibernate_restore.c ****         {
 220:C:/Workspace/DAVE-4.4.2-64Bit/optiga-trust-m/examples/optiga/usecases\example_optiga_hibernate_restore.c ****             //Wait until the optiga_util_close_application is completed
 221:C:/Workspace/DAVE-4.4.2-64Bit/optiga-trust-m/examples/optiga/usecases\example_optiga_hibernate_restore.c ****         }
 222:C:/Workspace/DAVE-4.4.2-64Bit/optiga-trust-m/examples/optiga/usecases\example_optiga_hibernate_restore.c **** 
 223:C:/Workspace/DAVE-4.4.2-64Bit/optiga-trust-m/examples/optiga/usecases\example_optiga_hibernate_restore.c ****         if (OPTIGA_LIB_SUCCESS != optiga_lib_status)
 266              	 .loc 1 223 0
 267 0106 2B88     	 ldrh r3,[r5]
 268 0108 002B     	 cmp r3,#0
 269 010a 54D1     	 bne .L65
 224:C:/Workspace/DAVE-4.4.2-64Bit/optiga-trust-m/examples/optiga/usecases\example_optiga_hibernate_restore.c ****         {
 225:C:/Workspace/DAVE-4.4.2-64Bit/optiga-trust-m/examples/optiga/usecases\example_optiga_hibernate_restore.c ****             //optiga_util_close_application failed
 226:C:/Workspace/DAVE-4.4.2-64Bit/optiga-trust-m/examples/optiga/usecases\example_optiga_hibernate_restore.c ****             return_status = optiga_lib_status;
 227:C:/Workspace/DAVE-4.4.2-64Bit/optiga-trust-m/examples/optiga/usecases\example_optiga_hibernate_restore.c ****             break;
 228:C:/Workspace/DAVE-4.4.2-64Bit/optiga-trust-m/examples/optiga/usecases\example_optiga_hibernate_restore.c ****         }
 229:C:/Workspace/DAVE-4.4.2-64Bit/optiga-trust-m/examples/optiga/usecases\example_optiga_hibernate_restore.c **** 
 230:C:/Workspace/DAVE-4.4.2-64Bit/optiga-trust-m/examples/optiga/usecases\example_optiga_hibernate_restore.c ****         /**
 231:C:/Workspace/DAVE-4.4.2-64Bit/optiga-trust-m/examples/optiga/usecases\example_optiga_hibernate_restore.c ****          * 6. Restore the application on OPTIGA
 232:C:/Workspace/DAVE-4.4.2-64Bit/optiga-trust-m/examples/optiga/usecases\example_optiga_hibernate_restore.c ****          *    using optiga_util_open_application with perform_restore parameter as true
 233:C:/Workspace/DAVE-4.4.2-64Bit/optiga-trust-m/examples/optiga/usecases\example_optiga_hibernate_restore.c ****          */
 234:C:/Workspace/DAVE-4.4.2-64Bit/optiga-trust-m/examples/optiga/usecases\example_optiga_hibernate_restore.c ****         optiga_lib_status = OPTIGA_LIB_BUSY;
 270              	 .loc 1 234 0
 271 010c 0121     	 mov r1,#1
 235:C:/Workspace/DAVE-4.4.2-64Bit/optiga-trust-m/examples/optiga/usecases\example_optiga_hibernate_restore.c ****         return_status = optiga_util_open_application(me_util, 1);
 272              	 .loc 1 235 0
 273 010e 381C     	 mov r0,r7
 274              	.LVL24:
 234:C:/Workspace/DAVE-4.4.2-64Bit/optiga-trust-m/examples/optiga/usecases\example_optiga_hibernate_restore.c ****         return_status = optiga_util_open_application(me_util, 1);
 275              	 .loc 1 234 0
 276 0110 2980     	 strh r1,[r5]
 277              	 .loc 1 235 0
 278 0112 FFF7FEFF 	 bl optiga_util_open_application
 279              	.LVL25:
 280 0116 021E     	 sub r2,r0,#0
 281              	.LVL26:
 236:C:/Workspace/DAVE-4.4.2-64Bit/optiga-trust-m/examples/optiga/usecases\example_optiga_hibernate_restore.c **** 
 237:C:/Workspace/DAVE-4.4.2-64Bit/optiga-trust-m/examples/optiga/usecases\example_optiga_hibernate_restore.c ****         if (OPTIGA_LIB_SUCCESS != return_status)
 282              	 .loc 1 237 0
 283 0118 51D1     	 bne .L32
 284              	.L18:
 238:C:/Workspace/DAVE-4.4.2-64Bit/optiga-trust-m/examples/optiga/usecases\example_optiga_hibernate_restore.c ****         {
 239:C:/Workspace/DAVE-4.4.2-64Bit/optiga-trust-m/examples/optiga/usecases\example_optiga_hibernate_restore.c ****             break;
 240:C:/Workspace/DAVE-4.4.2-64Bit/optiga-trust-m/examples/optiga/usecases\example_optiga_hibernate_restore.c ****         }
 241:C:/Workspace/DAVE-4.4.2-64Bit/optiga-trust-m/examples/optiga/usecases\example_optiga_hibernate_restore.c ****         while (OPTIGA_LIB_BUSY == optiga_lib_status)
 285              	 .loc 1 241 0 discriminator 1
 286 011a 2B88     	 ldrh r3,[r5]
 287 011c 012B     	 cmp r3,#1
 288 011e FCD0     	 beq .L18
 242:C:/Workspace/DAVE-4.4.2-64Bit/optiga-trust-m/examples/optiga/usecases\example_optiga_hibernate_restore.c ****         {
 243:C:/Workspace/DAVE-4.4.2-64Bit/optiga-trust-m/examples/optiga/usecases\example_optiga_hibernate_restore.c ****             //Wait until the optiga_util_open_application is completed
 244:C:/Workspace/DAVE-4.4.2-64Bit/optiga-trust-m/examples/optiga/usecases\example_optiga_hibernate_restore.c ****         }
 245:C:/Workspace/DAVE-4.4.2-64Bit/optiga-trust-m/examples/optiga/usecases\example_optiga_hibernate_restore.c ****         if (OPTIGA_LIB_SUCCESS != optiga_lib_status)
 289              	 .loc 1 245 0
 290 0120 2E88     	 ldrh r6,[r5]
 291 0122 B6B2     	 uxth r6,r6
 292 0124 002E     	 cmp r6,#0
 293 0126 46D1     	 bne .L65
 246:C:/Workspace/DAVE-4.4.2-64Bit/optiga-trust-m/examples/optiga/usecases\example_optiga_hibernate_restore.c ****         {
 247:C:/Workspace/DAVE-4.4.2-64Bit/optiga-trust-m/examples/optiga/usecases\example_optiga_hibernate_restore.c ****             //optiga_util_open_application failed
 248:C:/Workspace/DAVE-4.4.2-64Bit/optiga-trust-m/examples/optiga/usecases\example_optiga_hibernate_restore.c ****             return_status = optiga_lib_status;
 249:C:/Workspace/DAVE-4.4.2-64Bit/optiga-trust-m/examples/optiga/usecases\example_optiga_hibernate_restore.c ****             break;
 250:C:/Workspace/DAVE-4.4.2-64Bit/optiga-trust-m/examples/optiga/usecases\example_optiga_hibernate_restore.c ****         }
 251:C:/Workspace/DAVE-4.4.2-64Bit/optiga-trust-m/examples/optiga/usecases\example_optiga_hibernate_restore.c **** 
 252:C:/Workspace/DAVE-4.4.2-64Bit/optiga-trust-m/examples/optiga/usecases\example_optiga_hibernate_restore.c ****         /**
 253:C:/Workspace/DAVE-4.4.2-64Bit/optiga-trust-m/examples/optiga/usecases\example_optiga_hibernate_restore.c ****          * 7. Sign the digest using the session key from Step 3
 254:C:/Workspace/DAVE-4.4.2-64Bit/optiga-trust-m/examples/optiga/usecases\example_optiga_hibernate_restore.c ****          */
 255:C:/Workspace/DAVE-4.4.2-64Bit/optiga-trust-m/examples/optiga/usecases\example_optiga_hibernate_restore.c ****         optiga_lib_status = OPTIGA_LIB_BUSY;
 294              	 .loc 1 255 0
 295 0128 0121     	 mov r1,#1
 256:C:/Workspace/DAVE-4.4.2-64Bit/optiga-trust-m/examples/optiga/usecases\example_optiga_hibernate_restore.c ****         OPTIGA_CRYPT_SET_COMMS_PROTECTION_LEVEL(me_crypt, OPTIGA_COMMS_RESPONSE_PROTECTION);
 296              	 .loc 1 256 0
 297 012a 201C     	 mov r0,r4
 298              	.LVL27:
 299 012c 0222     	 mov r2,#2
 300              	.LVL28:
 255:C:/Workspace/DAVE-4.4.2-64Bit/optiga-trust-m/examples/optiga/usecases\example_optiga_hibernate_restore.c ****         OPTIGA_CRYPT_SET_COMMS_PROTECTION_LEVEL(me_crypt, OPTIGA_COMMS_RESPONSE_PROTECTION);
 301              	 .loc 1 255 0
 302 012e 2980     	 strh r1,[r5]
 303              	 .loc 1 256 0
 304 0130 FFF7FEFF 	 bl optiga_crypt_set_comms_params
 305              	.LVL29:
 257:C:/Workspace/DAVE-4.4.2-64Bit/optiga-trust-m/examples/optiga/usecases\example_optiga_hibernate_restore.c ****         return_status = optiga_crypt_ecdsa_sign(me_crypt,
 306              	 .loc 1 257 0
 307 0134 09AB     	 add r3,sp,#36
 308 0136 0093     	 str r3,[sp]
 309 0138 05AB     	 add r3,sp,#20
 310 013a 0193     	 str r3,[sp,#4]
 311 013c 2022     	 mov r2,#32
 312 013e 201C     	 mov r0,r4
 313 0140 3649     	 ldr r1,.L68+24
 314 0142 331C     	 mov r3,r6
 315 0144 FFF7FEFF 	 bl optiga_crypt_ecdsa_sign
 316              	.LVL30:
 317 0148 021E     	 sub r2,r0,#0
 318              	.LVL31:
 258:C:/Workspace/DAVE-4.4.2-64Bit/optiga-trust-m/examples/optiga/usecases\example_optiga_hibernate_restore.c ****                                                 digest,
 259:C:/Workspace/DAVE-4.4.2-64Bit/optiga-trust-m/examples/optiga/usecases\example_optiga_hibernate_restore.c ****                                                 sizeof(digest),
 260:C:/Workspace/DAVE-4.4.2-64Bit/optiga-trust-m/examples/optiga/usecases\example_optiga_hibernate_restore.c ****                                                 OPTIGA_KEY_ID_SESSION_BASED,
 261:C:/Workspace/DAVE-4.4.2-64Bit/optiga-trust-m/examples/optiga/usecases\example_optiga_hibernate_restore.c ****                                                 signature,
 262:C:/Workspace/DAVE-4.4.2-64Bit/optiga-trust-m/examples/optiga/usecases\example_optiga_hibernate_restore.c ****                                                 &signature_length);
 263:C:/Workspace/DAVE-4.4.2-64Bit/optiga-trust-m/examples/optiga/usecases\example_optiga_hibernate_restore.c **** 
 264:C:/Workspace/DAVE-4.4.2-64Bit/optiga-trust-m/examples/optiga/usecases\example_optiga_hibernate_restore.c ****         if (OPTIGA_LIB_SUCCESS != return_status)
 319              	 .loc 1 264 0
 320 014a 38D1     	 bne .L32
 321              	.L20:
 265:C:/Workspace/DAVE-4.4.2-64Bit/optiga-trust-m/examples/optiga/usecases\example_optiga_hibernate_restore.c ****         {
 266:C:/Workspace/DAVE-4.4.2-64Bit/optiga-trust-m/examples/optiga/usecases\example_optiga_hibernate_restore.c ****             break;
 267:C:/Workspace/DAVE-4.4.2-64Bit/optiga-trust-m/examples/optiga/usecases\example_optiga_hibernate_restore.c ****         }
 268:C:/Workspace/DAVE-4.4.2-64Bit/optiga-trust-m/examples/optiga/usecases\example_optiga_hibernate_restore.c **** 
 269:C:/Workspace/DAVE-4.4.2-64Bit/optiga-trust-m/examples/optiga/usecases\example_optiga_hibernate_restore.c ****         while (OPTIGA_LIB_BUSY == optiga_lib_status)
 322              	 .loc 1 269 0 discriminator 1
 323 014c 2B88     	 ldrh r3,[r5]
 324 014e 012B     	 cmp r3,#1
 325 0150 FCD0     	 beq .L20
 270:C:/Workspace/DAVE-4.4.2-64Bit/optiga-trust-m/examples/optiga/usecases\example_optiga_hibernate_restore.c ****         {
 271:C:/Workspace/DAVE-4.4.2-64Bit/optiga-trust-m/examples/optiga/usecases\example_optiga_hibernate_restore.c ****             //Wait until the optiga_crypt_ecdsa_sign operation is completed
 272:C:/Workspace/DAVE-4.4.2-64Bit/optiga-trust-m/examples/optiga/usecases\example_optiga_hibernate_restore.c ****         }
 273:C:/Workspace/DAVE-4.4.2-64Bit/optiga-trust-m/examples/optiga/usecases\example_optiga_hibernate_restore.c **** 
 274:C:/Workspace/DAVE-4.4.2-64Bit/optiga-trust-m/examples/optiga/usecases\example_optiga_hibernate_restore.c ****         if (OPTIGA_LIB_SUCCESS != optiga_lib_status)
 326              	 .loc 1 274 0
 327 0152 2B88     	 ldrh r3,[r5]
 328 0154 002B     	 cmp r3,#0
 329 0156 2ED1     	 bne .L65
 275:C:/Workspace/DAVE-4.4.2-64Bit/optiga-trust-m/examples/optiga/usecases\example_optiga_hibernate_restore.c ****         {
 276:C:/Workspace/DAVE-4.4.2-64Bit/optiga-trust-m/examples/optiga/usecases\example_optiga_hibernate_restore.c ****             return_status = optiga_lib_status;
 277:C:/Workspace/DAVE-4.4.2-64Bit/optiga-trust-m/examples/optiga/usecases\example_optiga_hibernate_restore.c ****             break;
 278:C:/Workspace/DAVE-4.4.2-64Bit/optiga-trust-m/examples/optiga/usecases\example_optiga_hibernate_restore.c ****         }
 279:C:/Workspace/DAVE-4.4.2-64Bit/optiga-trust-m/examples/optiga/usecases\example_optiga_hibernate_restore.c **** 
 280:C:/Workspace/DAVE-4.4.2-64Bit/optiga-trust-m/examples/optiga/usecases\example_optiga_hibernate_restore.c ****         /**
 281:C:/Workspace/DAVE-4.4.2-64Bit/optiga-trust-m/examples/optiga/usecases\example_optiga_hibernate_restore.c ****          * 8. Verify ECDSA signature using public key from step 2
 282:C:/Workspace/DAVE-4.4.2-64Bit/optiga-trust-m/examples/optiga/usecases\example_optiga_hibernate_restore.c ****          */
 283:C:/Workspace/DAVE-4.4.2-64Bit/optiga-trust-m/examples/optiga/usecases\example_optiga_hibernate_restore.c ****         optiga_lib_status = OPTIGA_LIB_BUSY;
 284:C:/Workspace/DAVE-4.4.2-64Bit/optiga-trust-m/examples/optiga/usecases\example_optiga_hibernate_restore.c ****         public_key_details.public_key = public_key;
 330              	 .loc 1 284 0
 331 0158 1DA9     	 add r1,sp,#116
 332 015a 0791     	 str r1,[sp,#28]
 285:C:/Workspace/DAVE-4.4.2-64Bit/optiga-trust-m/examples/optiga/usecases\example_optiga_hibernate_restore.c ****         public_key_details.length = public_key_length;
 333              	 .loc 1 285 0
 334 015c 6946     	 mov r1,sp
 335 015e 498B     	 ldrh r1,[r1,#26]
 284:C:/Workspace/DAVE-4.4.2-64Bit/optiga-trust-m/examples/optiga/usecases\example_optiga_hibernate_restore.c ****         public_key_details.length = public_key_length;
 336              	 .loc 1 284 0
 337 0160 07AB     	 add r3,sp,#28
 338              	 .loc 1 285 0
 339 0162 9980     	 strh r1,[r3,#4]
 286:C:/Workspace/DAVE-4.4.2-64Bit/optiga-trust-m/examples/optiga/usecases\example_optiga_hibernate_restore.c ****         public_key_details.key_type = (uint8_t)OPTIGA_ECC_CURVE_NIST_P_256;
 340              	 .loc 1 286 0
 341 0164 0321     	 mov r1,#3
 342 0166 9971     	 strb r1,[r3,#6]
 287:C:/Workspace/DAVE-4.4.2-64Bit/optiga-trust-m/examples/optiga/usecases\example_optiga_hibernate_restore.c ****         return_status = optiga_crypt_ecdsa_verify (me_crypt,
 343              	 .loc 1 287 0
 344 0168 6946     	 mov r1,sp
 283:C:/Workspace/DAVE-4.4.2-64Bit/optiga-trust-m/examples/optiga/usecases\example_optiga_hibernate_restore.c ****         public_key_details.public_key = public_key;
 345              	 .loc 1 283 0
 346 016a 0122     	 mov r2,#1
 347              	 .loc 1 287 0
 348 016c 898A     	 ldrh r1,[r1,#20]
 283:C:/Workspace/DAVE-4.4.2-64Bit/optiga-trust-m/examples/optiga/usecases\example_optiga_hibernate_restore.c ****         public_key_details.public_key = public_key;
 349              	 .loc 1 283 0
 350 016e 2A80     	 strh r2,[r5]
 351              	 .loc 1 287 0
 352 0170 201C     	 mov r0,r4
 353              	.LVL32:
 354 0172 0091     	 str r1,[sp]
 355 0174 0192     	 str r2,[sp,#4]
 356 0176 0293     	 str r3,[sp,#8]
 357 0178 1F32     	 add r2,r2,#31
 358 017a 2849     	 ldr r1,.L68+24
 359 017c 09AB     	 add r3,sp,#36
 360 017e FFF7FEFF 	 bl optiga_crypt_ecdsa_verify
 361              	.LVL33:
 362 0182 021E     	 sub r2,r0,#0
 363              	.LVL34:
 288:C:/Workspace/DAVE-4.4.2-64Bit/optiga-trust-m/examples/optiga/usecases\example_optiga_hibernate_restore.c ****                                                    digest,
 289:C:/Workspace/DAVE-4.4.2-64Bit/optiga-trust-m/examples/optiga/usecases\example_optiga_hibernate_restore.c ****                                                    sizeof(digest),
 290:C:/Workspace/DAVE-4.4.2-64Bit/optiga-trust-m/examples/optiga/usecases\example_optiga_hibernate_restore.c ****                                                    signature,
 291:C:/Workspace/DAVE-4.4.2-64Bit/optiga-trust-m/examples/optiga/usecases\example_optiga_hibernate_restore.c ****                                                    signature_length,
 292:C:/Workspace/DAVE-4.4.2-64Bit/optiga-trust-m/examples/optiga/usecases\example_optiga_hibernate_restore.c ****                                                    OPTIGA_CRYPT_HOST_DATA,
 293:C:/Workspace/DAVE-4.4.2-64Bit/optiga-trust-m/examples/optiga/usecases\example_optiga_hibernate_restore.c ****                                                    &public_key_details);
 294:C:/Workspace/DAVE-4.4.2-64Bit/optiga-trust-m/examples/optiga/usecases\example_optiga_hibernate_restore.c **** 
 295:C:/Workspace/DAVE-4.4.2-64Bit/optiga-trust-m/examples/optiga/usecases\example_optiga_hibernate_restore.c ****         if (OPTIGA_LIB_SUCCESS != return_status)
 364              	 .loc 1 295 0
 365 0184 1BD1     	 bne .L32
 366              	.L22:
 296:C:/Workspace/DAVE-4.4.2-64Bit/optiga-trust-m/examples/optiga/usecases\example_optiga_hibernate_restore.c ****         {
 297:C:/Workspace/DAVE-4.4.2-64Bit/optiga-trust-m/examples/optiga/usecases\example_optiga_hibernate_restore.c ****             break;
 298:C:/Workspace/DAVE-4.4.2-64Bit/optiga-trust-m/examples/optiga/usecases\example_optiga_hibernate_restore.c ****         }
 299:C:/Workspace/DAVE-4.4.2-64Bit/optiga-trust-m/examples/optiga/usecases\example_optiga_hibernate_restore.c **** 
 300:C:/Workspace/DAVE-4.4.2-64Bit/optiga-trust-m/examples/optiga/usecases\example_optiga_hibernate_restore.c ****         while (OPTIGA_LIB_BUSY == optiga_lib_status)
 367              	 .loc 1 300 0 discriminator 1
 368 0186 234B     	 ldr r3,.L68+16
 369 0188 1A88     	 ldrh r2,[r3]
 370 018a 1D1C     	 mov r5,r3
 371 018c 012A     	 cmp r2,#1
 372 018e FAD0     	 beq .L22
 301:C:/Workspace/DAVE-4.4.2-64Bit/optiga-trust-m/examples/optiga/usecases\example_optiga_hibernate_restore.c ****         {
 302:C:/Workspace/DAVE-4.4.2-64Bit/optiga-trust-m/examples/optiga/usecases\example_optiga_hibernate_restore.c ****             //Wait until the optiga_crypt_ecdsa_verify operation is completed
 303:C:/Workspace/DAVE-4.4.2-64Bit/optiga-trust-m/examples/optiga/usecases\example_optiga_hibernate_restore.c ****         }
 304:C:/Workspace/DAVE-4.4.2-64Bit/optiga-trust-m/examples/optiga/usecases\example_optiga_hibernate_restore.c **** 
 305:C:/Workspace/DAVE-4.4.2-64Bit/optiga-trust-m/examples/optiga/usecases\example_optiga_hibernate_restore.c ****         if ((OPTIGA_LIB_SUCCESS != optiga_lib_status))
 373              	 .loc 1 305 0
 374 0190 1988     	 ldrh r1,[r3]
 375 0192 89B2     	 uxth r1,r1
 376 0194 0029     	 cmp r1,#0
 377 0196 01D0     	 beq .L23
 378              	.LVL35:
 379              	.L66:
 306:C:/Workspace/DAVE-4.4.2-64Bit/optiga-trust-m/examples/optiga/usecases\example_optiga_hibernate_restore.c ****         {
 307:C:/Workspace/DAVE-4.4.2-64Bit/optiga-trust-m/examples/optiga/usecases\example_optiga_hibernate_restore.c ****             //Signature verification failed.
 308:C:/Workspace/DAVE-4.4.2-64Bit/optiga-trust-m/examples/optiga/usecases\example_optiga_hibernate_restore.c ****             return_status = optiga_lib_status;
 380              	 .loc 1 308 0
 381 0198 1A88     	 ldrh r2,[r3]
 382 019a 0DE0     	 b .L64
 383              	.LVL36:
 384              	.L23:
 309:C:/Workspace/DAVE-4.4.2-64Bit/optiga-trust-m/examples/optiga/usecases\example_optiga_hibernate_restore.c ****             break;
 310:C:/Workspace/DAVE-4.4.2-64Bit/optiga-trust-m/examples/optiga/usecases\example_optiga_hibernate_restore.c ****         }
 311:C:/Workspace/DAVE-4.4.2-64Bit/optiga-trust-m/examples/optiga/usecases\example_optiga_hibernate_restore.c **** 
 312:C:/Workspace/DAVE-4.4.2-64Bit/optiga-trust-m/examples/optiga/usecases\example_optiga_hibernate_restore.c ****         /**
 313:C:/Workspace/DAVE-4.4.2-64Bit/optiga-trust-m/examples/optiga/usecases\example_optiga_hibernate_restore.c ****          * 9. Close the application on OPTIGA without hibernating
 314:C:/Workspace/DAVE-4.4.2-64Bit/optiga-trust-m/examples/optiga/usecases\example_optiga_hibernate_restore.c ****          *    using optiga_util_close_application
 315:C:/Workspace/DAVE-4.4.2-64Bit/optiga-trust-m/examples/optiga/usecases\example_optiga_hibernate_restore.c ****          */
 316:C:/Workspace/DAVE-4.4.2-64Bit/optiga-trust-m/examples/optiga/usecases\example_optiga_hibernate_restore.c ****         optiga_lib_status = OPTIGA_LIB_BUSY;
 385              	 .loc 1 316 0
 386 019c 0123     	 mov r3,#1
 317:C:/Workspace/DAVE-4.4.2-64Bit/optiga-trust-m/examples/optiga/usecases\example_optiga_hibernate_restore.c ****         return_status = optiga_util_close_application(me_util, 0);
 387              	 .loc 1 317 0
 388 019e 381C     	 mov r0,r7
 389              	.LVL37:
 316:C:/Workspace/DAVE-4.4.2-64Bit/optiga-trust-m/examples/optiga/usecases\example_optiga_hibernate_restore.c ****         return_status = optiga_util_close_application(me_util, 0);
 390              	 .loc 1 316 0
 391 01a0 2B80     	 strh r3,[r5]
 392              	 .loc 1 317 0
 393 01a2 FFF7FEFF 	 bl optiga_util_close_application
 394              	.LVL38:
 395 01a6 021E     	 sub r2,r0,#0
 396              	.LVL39:
 318:C:/Workspace/DAVE-4.4.2-64Bit/optiga-trust-m/examples/optiga/usecases\example_optiga_hibernate_restore.c ****         if (OPTIGA_LIB_SUCCESS != return_status)
 397              	 .loc 1 318 0
 398 01a8 09D1     	 bne .L32
 399              	.L24:
 319:C:/Workspace/DAVE-4.4.2-64Bit/optiga-trust-m/examples/optiga/usecases\example_optiga_hibernate_restore.c ****         {
 320:C:/Workspace/DAVE-4.4.2-64Bit/optiga-trust-m/examples/optiga/usecases\example_optiga_hibernate_restore.c ****             break;
 321:C:/Workspace/DAVE-4.4.2-64Bit/optiga-trust-m/examples/optiga/usecases\example_optiga_hibernate_restore.c ****         }
 322:C:/Workspace/DAVE-4.4.2-64Bit/optiga-trust-m/examples/optiga/usecases\example_optiga_hibernate_restore.c **** 
 323:C:/Workspace/DAVE-4.4.2-64Bit/optiga-trust-m/examples/optiga/usecases\example_optiga_hibernate_restore.c ****         while (optiga_lib_status == OPTIGA_LIB_BUSY)
 400              	 .loc 1 323 0 discriminator 1
 401 01aa 2B88     	 ldrh r3,[r5]
 402 01ac 012B     	 cmp r3,#1
 403 01ae FCD0     	 beq .L24
 324:C:/Workspace/DAVE-4.4.2-64Bit/optiga-trust-m/examples/optiga/usecases\example_optiga_hibernate_restore.c ****         {
 325:C:/Workspace/DAVE-4.4.2-64Bit/optiga-trust-m/examples/optiga/usecases\example_optiga_hibernate_restore.c ****             //Wait until the optiga_util_close_application is completed
 326:C:/Workspace/DAVE-4.4.2-64Bit/optiga-trust-m/examples/optiga/usecases\example_optiga_hibernate_restore.c ****         }
 327:C:/Workspace/DAVE-4.4.2-64Bit/optiga-trust-m/examples/optiga/usecases\example_optiga_hibernate_restore.c **** 
 328:C:/Workspace/DAVE-4.4.2-64Bit/optiga-trust-m/examples/optiga/usecases\example_optiga_hibernate_restore.c ****         if (OPTIGA_LIB_SUCCESS != optiga_lib_status)
 404              	 .loc 1 328 0
 405 01b0 2B88     	 ldrh r3,[r5]
 406 01b2 002B     	 cmp r3,#0
 407 01b4 09D0     	 beq .L26
 408              	.LVL40:
 409              	.L65:
 329:C:/Workspace/DAVE-4.4.2-64Bit/optiga-trust-m/examples/optiga/usecases\example_optiga_hibernate_restore.c ****         {
 330:C:/Workspace/DAVE-4.4.2-64Bit/optiga-trust-m/examples/optiga/usecases\example_optiga_hibernate_restore.c ****             //optiga_util_close_application failed
 331:C:/Workspace/DAVE-4.4.2-64Bit/optiga-trust-m/examples/optiga/usecases\example_optiga_hibernate_restore.c ****             return_status = optiga_lib_status;
 410              	 .loc 1 331 0
 411 01b6 2A88     	 ldrh r2,[r5]
 412              	.L64:
 413 01b8 92B2     	 uxth r2,r2
 414              	.LVL41:
 332:C:/Workspace/DAVE-4.4.2-64Bit/optiga-trust-m/examples/optiga/usecases\example_optiga_hibernate_restore.c ****             break;
 333:C:/Workspace/DAVE-4.4.2-64Bit/optiga-trust-m/examples/optiga/usecases\example_optiga_hibernate_restore.c ****         }
 334:C:/Workspace/DAVE-4.4.2-64Bit/optiga-trust-m/examples/optiga/usecases\example_optiga_hibernate_restore.c ****         return_status = OPTIGA_LIB_SUCCESS;
 335:C:/Workspace/DAVE-4.4.2-64Bit/optiga-trust-m/examples/optiga/usecases\example_optiga_hibernate_restore.c **** 
 336:C:/Workspace/DAVE-4.4.2-64Bit/optiga-trust-m/examples/optiga/usecases\example_optiga_hibernate_restore.c ****     } while (FALSE);
 337:C:/Workspace/DAVE-4.4.2-64Bit/optiga-trust-m/examples/optiga/usecases\example_optiga_hibernate_restore.c ****     OPTIGA_EXAMPLE_LOG_STATUS(return_status);
 415              	 .loc 1 337 0
 416 01ba 002A     	 cmp r2,#0
 417 01bc 05D0     	 beq .L26
 418              	.LVL42:
 419              	.L32:
 420              	 .loc 1 337 0 is_stmt 0 discriminator 1
 421 01be 1248     	 ldr r0,.L68+4
 422 01c0 1749     	 ldr r1,.L68+28
 423 01c2 FFF7FEFF 	 bl optiga_lib_print_status
 424              	.LVL43:
 425 01c6 07E0     	 b .L27
 426              	.LVL44:
 427              	.L5:
  75:C:/Workspace/DAVE-4.4.2-64Bit/optiga-trust-m/examples/optiga/usecases\example_optiga_hibernate_restore.c ****     // To store the public key generated
 428              	 .loc 1 75 0 is_stmt 1
 429 01c8 0024     	 mov r4,#0
 430              	.LVL45:
 431              	.L26:
 432              	 .loc 1 337 0 discriminator 2
 433 01ca 0F48     	 ldr r0,.L68+4
 434 01cc 0F49     	 ldr r1,.L68+8
 435 01ce 0022     	 mov r2,#0
 436 01d0 FFF7FEFF 	 bl optiga_lib_print_status
 437              	.LVL46:
 338:C:/Workspace/DAVE-4.4.2-64Bit/optiga-trust-m/examples/optiga/usecases\example_optiga_hibernate_restore.c **** 
 339:C:/Workspace/DAVE-4.4.2-64Bit/optiga-trust-m/examples/optiga/usecases\example_optiga_hibernate_restore.c ****     if (me_util)
 438              	 .loc 1 339 0 discriminator 2
 439 01d4 002F     	 cmp r7,#0
 440 01d6 08D0     	 beq .L28
 441              	.L27:
 340:C:/Workspace/DAVE-4.4.2-64Bit/optiga-trust-m/examples/optiga/usecases\example_optiga_hibernate_restore.c ****     {
 341:C:/Workspace/DAVE-4.4.2-64Bit/optiga-trust-m/examples/optiga/usecases\example_optiga_hibernate_restore.c ****         //Destroy the instance after the completion of usecase if not required.
 342:C:/Workspace/DAVE-4.4.2-64Bit/optiga-trust-m/examples/optiga/usecases\example_optiga_hibernate_restore.c ****         return_status = optiga_util_destroy(me_util);
 442              	 .loc 1 342 0
 443 01d8 381C     	 mov r0,r7
 444 01da FFF7FEFF 	 bl optiga_util_destroy
 445              	.LVL47:
 446 01de 021E     	 sub r2,r0,#0
 447              	.LVL48:
 343:C:/Workspace/DAVE-4.4.2-64Bit/optiga-trust-m/examples/optiga/usecases\example_optiga_hibernate_restore.c ****         if(OPTIGA_LIB_SUCCESS != return_status)
 448              	 .loc 1 343 0
 449 01e0 03D0     	 beq .L28
 344:C:/Workspace/DAVE-4.4.2-64Bit/optiga-trust-m/examples/optiga/usecases\example_optiga_hibernate_restore.c ****         {
 345:C:/Workspace/DAVE-4.4.2-64Bit/optiga-trust-m/examples/optiga/usecases\example_optiga_hibernate_restore.c ****             //lint --e{774} suppress This is a generic macro
 346:C:/Workspace/DAVE-4.4.2-64Bit/optiga-trust-m/examples/optiga/usecases\example_optiga_hibernate_restore.c ****             OPTIGA_EXAMPLE_LOG_STATUS(return_status);
 450              	 .loc 1 346 0 discriminator 1
 451 01e2 0948     	 ldr r0,.L68+4
 452              	.LVL49:
 453 01e4 0E49     	 ldr r1,.L68+28
 454 01e6 FFF7FEFF 	 bl optiga_lib_print_status
 455              	.LVL50:
 456              	.L28:
 347:C:/Workspace/DAVE-4.4.2-64Bit/optiga-trust-m/examples/optiga/usecases\example_optiga_hibernate_restore.c ****         }
 348:C:/Workspace/DAVE-4.4.2-64Bit/optiga-trust-m/examples/optiga/usecases\example_optiga_hibernate_restore.c ****     }
 349:C:/Workspace/DAVE-4.4.2-64Bit/optiga-trust-m/examples/optiga/usecases\example_optiga_hibernate_restore.c **** 
 350:C:/Workspace/DAVE-4.4.2-64Bit/optiga-trust-m/examples/optiga/usecases\example_optiga_hibernate_restore.c ****     if (me_crypt)
 457              	 .loc 1 350 0
 458 01ea 002C     	 cmp r4,#0
 459 01ec 08D0     	 beq .L4
 351:C:/Workspace/DAVE-4.4.2-64Bit/optiga-trust-m/examples/optiga/usecases\example_optiga_hibernate_restore.c ****     {
 352:C:/Workspace/DAVE-4.4.2-64Bit/optiga-trust-m/examples/optiga/usecases\example_optiga_hibernate_restore.c ****         //Destroy the instance after the completion of usecase if not required.
 353:C:/Workspace/DAVE-4.4.2-64Bit/optiga-trust-m/examples/optiga/usecases\example_optiga_hibernate_restore.c ****         return_status = optiga_crypt_destroy(me_crypt);
 460              	 .loc 1 353 0
 461 01ee 201C     	 mov r0,r4
 462 01f0 FFF7FEFF 	 bl optiga_crypt_destroy
 463              	.LVL51:
 464 01f4 021E     	 sub r2,r0,#0
 465              	.LVL52:
 354:C:/Workspace/DAVE-4.4.2-64Bit/optiga-trust-m/examples/optiga/usecases\example_optiga_hibernate_restore.c ****         if(OPTIGA_LIB_SUCCESS != return_status)
 466              	 .loc 1 354 0
 467 01f6 03D0     	 beq .L4
 355:C:/Workspace/DAVE-4.4.2-64Bit/optiga-trust-m/examples/optiga/usecases\example_optiga_hibernate_restore.c ****         {
 356:C:/Workspace/DAVE-4.4.2-64Bit/optiga-trust-m/examples/optiga/usecases\example_optiga_hibernate_restore.c ****             //lint --e{774} suppress This is a generic macro
 357:C:/Workspace/DAVE-4.4.2-64Bit/optiga-trust-m/examples/optiga/usecases\example_optiga_hibernate_restore.c ****             OPTIGA_EXAMPLE_LOG_STATUS(return_status);
 468              	 .loc 1 357 0 discriminator 1
 469 01f8 0348     	 ldr r0,.L68+4
 470              	.LVL53:
 471 01fa 0949     	 ldr r1,.L68+28
 472 01fc FFF7FEFF 	 bl optiga_lib_print_status
 473              	.LVL54:
 474              	.L4:
 358:C:/Workspace/DAVE-4.4.2-64Bit/optiga-trust-m/examples/optiga/usecases\example_optiga_hibernate_restore.c ****         }
 359:C:/Workspace/DAVE-4.4.2-64Bit/optiga-trust-m/examples/optiga/usecases\example_optiga_hibernate_restore.c ****     }
 360:C:/Workspace/DAVE-4.4.2-64Bit/optiga-trust-m/examples/optiga/usecases\example_optiga_hibernate_restore.c **** }
 475              	 .loc 1 360 0
 476 0200 37B0     	 add sp,sp,#220
 477              	 
 478              	.LVL55:
 479              	.LVL56:
 480 0202 F0BD     	 pop {r4,r5,r6,r7,pc}
 481              	.L69:
 482              	 .align 2
 483              	.L68:
 484 0204 00000000 	 .word .LANCHOR1
 485 0208 00000000 	 .word .LC2
 486 020c 15000000 	 .word .LC4
 487 0210 00000000 	 .word optiga_lib_callback
 488 0214 00000000 	 .word .LANCHOR0
 489 0218 C5E00000 	 .word 57541
 490 021c 00000000 	 .word .LANCHOR2
 491 0220 1A000000 	 .word .LC9
 492              	 .cfi_endproc
 493              	.LFE1:
 495              	 .section .rodata.__FUNCTION__.6097,"a",%progbits
 496              	 .set .LANCHOR1,.+0
 499              	__FUNCTION__.6097:
 500 0000 6578616D 	 .ascii "example_optiga_util_hibernate_restore\000"
 500      706C655F 
 500      6F707469 
 500      67615F75 
 500      74696C5F 
 501              	 .section .rodata.str1.1,"aMS",%progbits,1
 502              	.LC2:
 503 0000 5B6F7074 	 .ascii "[optiga example]  : \000"
 503      69676120 
 503      6578616D 
 503      706C655D 
 503      20203A20 
 504              	.LC4:
 505 0015 1B5B306D 	 .ascii "\033[0m\000"
 505      00
 506              	.LC9:
 507 001a 1B5B3331 	 .ascii "\033[31m\000"
 507      6D00
 508              	 .section .data.digest,"aw",%progbits
 509              	 .set .LANCHOR2,.+0
 512              	digest:
 513 0000 61       	 .byte 97
 514 0001 C7       	 .byte -57
 515 0002 DE       	 .byte -34
 516 0003 F9       	 .byte -7
 517 0004 0F       	 .byte 15
 518 0005 D5       	 .byte -43
 519 0006 CD       	 .byte -51
 520 0007 7A       	 .byte 122
 521 0008 8B       	 .byte -117
 522 0009 7A       	 .byte 122
 523 000a 36       	 .byte 54
 524 000b 41       	 .byte 65
 525 000c 04       	 .byte 4
 526 000d E0       	 .byte -32
 527 000e 0D       	 .byte 13
 528 000f 82       	 .byte -126
 529 0010 38       	 .byte 56
 530 0011 46       	 .byte 70
 531 0012 BF       	 .byte -65
 532 0013 B7       	 .byte -73
 533 0014 70       	 .byte 112
 534 0015 EE       	 .byte -18
 535 0016 BF       	 .byte -65
 536 0017 8F       	 .byte -113
 537 0018 40       	 .byte 64
 538 0019 25       	 .byte 37
 539 001a 2E       	 .byte 46
 540 001b 0A       	 .byte 10
 541 001c 21       	 .byte 33
 542 001d 42       	 .byte 66
 543 001e AF       	 .byte -81
 544 001f 9C       	 .byte -100
 545              	 .section .bss.optiga_lib_status,"aw",%nobits
 546              	 .align 1
 547              	 .set .LANCHOR0,.+0
 550              	optiga_lib_status:
 551 0000 0000     	 .space 2
 552              	 .text
 553              	.Letext0:
 554              	 .file 2 "c:\\dave_4-4-2_64bit\\dave-ide-4.4.2-64bit\\eclipse\\arm-gcc-49\\arm-none-eabi\\include\\machine\\_default_types.h"
 555              	 .file 3 "c:\\dave_4-4-2_64bit\\dave-ide-4.4.2-64bit\\eclipse\\arm-gcc-49\\arm-none-eabi\\include\\stdint.h"
 556              	 .file 4 "C:/Workspace/DAVE-4.4.2-64Bit/optiga-trust-m/optiga/include/optiga/common/optiga_lib_types.h"
 557              	 .file 5 "C:/Workspace/DAVE-4.4.2-64Bit/optiga-trust-m/optiga/include/optiga/common/optiga_lib_common.h"
 558              	 .file 6 "C:/Workspace/DAVE-4.4.2-64Bit/optiga-trust-m/optiga/include/optiga/cmd/optiga_cmd.h"
 559              	 .file 7 "C:/Workspace/DAVE-4.4.2-64Bit/optiga-trust-m/optiga/include/optiga/optiga_util.h"
 560              	 .file 8 "C:/Workspace/DAVE-4.4.2-64Bit/optiga-trust-m/optiga/include/optiga/optiga_crypt.h"
 561              	 .file 9 "C:/Workspace/DAVE-4.4.2-64Bit/optiga-trust-m/optiga/include/optiga/common/optiga_lib_logger.h"
 562              	 .file 10 "C:/Workspace/DAVE-4.4.2-64Bit/optiga-trust-m/optiga/include/optiga/pal/pal_os_timer.h"