   1              	 .cpu cortex-m0
   2              	 .fpu softvfp
   3              	 .eabi_attribute 20,1
   4              	 .eabi_attribute 21,1
   5              	 .eabi_attribute 23,3
   6              	 .eabi_attribute 24,1
   7              	 .eabi_attribute 25,1
   8              	 .eabi_attribute 26,1
   9              	 .eabi_attribute 30,4
  10              	 .eabi_attribute 34,0
  11              	 .eabi_attribute 18,4
  12              	 .code 16
  13              	 .file "example_optiga_crypt_hash.c"
  14              	 .text
  15              	.Ltext0:
  16              	 .cfi_sections .debug_frame
  17              	 .section .text.optiga_crypt_callback,"ax",%progbits
  18              	 .align 1
  19              	 .code 16
  20              	 .thumb_func
  22              	optiga_crypt_callback:
  23              	.LFB0:
  24              	 .file 1 "C:/Workspace/DAVE-4.4.2-64Bit/optiga-trust-m/examples/optiga/example_optiga_crypt_hash.c"
   1:C:/Workspace/DAVE-4.4.2-64Bit/optiga-trust-m/examples/optiga\example_optiga_crypt_hash.c **** /**
   2:C:/Workspace/DAVE-4.4.2-64Bit/optiga-trust-m/examples/optiga\example_optiga_crypt_hash.c **** * \copyright
   3:C:/Workspace/DAVE-4.4.2-64Bit/optiga-trust-m/examples/optiga\example_optiga_crypt_hash.c **** * MIT License
   4:C:/Workspace/DAVE-4.4.2-64Bit/optiga-trust-m/examples/optiga\example_optiga_crypt_hash.c **** *
   5:C:/Workspace/DAVE-4.4.2-64Bit/optiga-trust-m/examples/optiga\example_optiga_crypt_hash.c **** * Copyright (c) 2019 Infineon Technologies AG
   6:C:/Workspace/DAVE-4.4.2-64Bit/optiga-trust-m/examples/optiga\example_optiga_crypt_hash.c **** *
   7:C:/Workspace/DAVE-4.4.2-64Bit/optiga-trust-m/examples/optiga\example_optiga_crypt_hash.c **** * Permission is hereby granted, free of charge, to any person obtaining a copy
   8:C:/Workspace/DAVE-4.4.2-64Bit/optiga-trust-m/examples/optiga\example_optiga_crypt_hash.c **** * of this software and associated documentation files (the "Software"), to deal
   9:C:/Workspace/DAVE-4.4.2-64Bit/optiga-trust-m/examples/optiga\example_optiga_crypt_hash.c **** * in the Software without restriction, including without limitation the rights
  10:C:/Workspace/DAVE-4.4.2-64Bit/optiga-trust-m/examples/optiga\example_optiga_crypt_hash.c **** * to use, copy, modify, merge, publish, distribute, sublicense, and/or sell
  11:C:/Workspace/DAVE-4.4.2-64Bit/optiga-trust-m/examples/optiga\example_optiga_crypt_hash.c **** * copies of the Software, and to permit persons to whom the Software is
  12:C:/Workspace/DAVE-4.4.2-64Bit/optiga-trust-m/examples/optiga\example_optiga_crypt_hash.c **** * furnished to do so, subject to the following conditions:
  13:C:/Workspace/DAVE-4.4.2-64Bit/optiga-trust-m/examples/optiga\example_optiga_crypt_hash.c **** *
  14:C:/Workspace/DAVE-4.4.2-64Bit/optiga-trust-m/examples/optiga\example_optiga_crypt_hash.c **** * The above copyright notice and this permission notice shall be included in all
  15:C:/Workspace/DAVE-4.4.2-64Bit/optiga-trust-m/examples/optiga\example_optiga_crypt_hash.c **** * copies or substantial portions of the Software.
  16:C:/Workspace/DAVE-4.4.2-64Bit/optiga-trust-m/examples/optiga\example_optiga_crypt_hash.c **** *
  17:C:/Workspace/DAVE-4.4.2-64Bit/optiga-trust-m/examples/optiga\example_optiga_crypt_hash.c **** * THE SOFTWARE IS PROVIDED "AS IS", WITHOUT WARRANTY OF ANY KIND, EXPRESS OR
  18:C:/Workspace/DAVE-4.4.2-64Bit/optiga-trust-m/examples/optiga\example_optiga_crypt_hash.c **** * IMPLIED, INCLUDING BUT NOT LIMITED TO THE WARRANTIES OF MERCHANTABILITY,
  19:C:/Workspace/DAVE-4.4.2-64Bit/optiga-trust-m/examples/optiga\example_optiga_crypt_hash.c **** * FITNESS FOR A PARTICULAR PURPOSE AND NONINFRINGEMENT. IN NO EVENT SHALL THE
  20:C:/Workspace/DAVE-4.4.2-64Bit/optiga-trust-m/examples/optiga\example_optiga_crypt_hash.c **** * AUTHORS OR COPYRIGHT HOLDERS BE LIABLE FOR ANY CLAIM, DAMAGES OR OTHER
  21:C:/Workspace/DAVE-4.4.2-64Bit/optiga-trust-m/examples/optiga\example_optiga_crypt_hash.c **** * LIABILITY, WHETHER IN AN ACTION OF CONTRACT, TORT OR OTHERWISE, ARISING FROM,
  22:C:/Workspace/DAVE-4.4.2-64Bit/optiga-trust-m/examples/optiga\example_optiga_crypt_hash.c **** * OUT OF OR IN CONNECTION WITH THE SOFTWARE OR THE USE OR OTHER DEALINGS IN THE
  23:C:/Workspace/DAVE-4.4.2-64Bit/optiga-trust-m/examples/optiga\example_optiga_crypt_hash.c **** * SOFTWARE
  24:C:/Workspace/DAVE-4.4.2-64Bit/optiga-trust-m/examples/optiga\example_optiga_crypt_hash.c **** *
  25:C:/Workspace/DAVE-4.4.2-64Bit/optiga-trust-m/examples/optiga\example_optiga_crypt_hash.c **** * \endcopyright
  26:C:/Workspace/DAVE-4.4.2-64Bit/optiga-trust-m/examples/optiga\example_optiga_crypt_hash.c **** *
  27:C:/Workspace/DAVE-4.4.2-64Bit/optiga-trust-m/examples/optiga\example_optiga_crypt_hash.c **** * \author Infineon Technologies AG
  28:C:/Workspace/DAVE-4.4.2-64Bit/optiga-trust-m/examples/optiga\example_optiga_crypt_hash.c **** *
  29:C:/Workspace/DAVE-4.4.2-64Bit/optiga-trust-m/examples/optiga\example_optiga_crypt_hash.c **** * \file example_optiga_crypt_hash.c
  30:C:/Workspace/DAVE-4.4.2-64Bit/optiga-trust-m/examples/optiga\example_optiga_crypt_hash.c **** *
  31:C:/Workspace/DAVE-4.4.2-64Bit/optiga-trust-m/examples/optiga\example_optiga_crypt_hash.c **** * \brief    This file provides the example for hashing operations using
  32:C:/Workspace/DAVE-4.4.2-64Bit/optiga-trust-m/examples/optiga\example_optiga_crypt_hash.c **** *           #optiga_crypt_hash_start, #optiga_crypt_hash_update and
  33:C:/Workspace/DAVE-4.4.2-64Bit/optiga-trust-m/examples/optiga\example_optiga_crypt_hash.c **** *           #optiga_crypt_hash_finalize.
  34:C:/Workspace/DAVE-4.4.2-64Bit/optiga-trust-m/examples/optiga\example_optiga_crypt_hash.c **** *
  35:C:/Workspace/DAVE-4.4.2-64Bit/optiga-trust-m/examples/optiga\example_optiga_crypt_hash.c **** * \ingroup grOptigaExamples
  36:C:/Workspace/DAVE-4.4.2-64Bit/optiga-trust-m/examples/optiga\example_optiga_crypt_hash.c **** *
  37:C:/Workspace/DAVE-4.4.2-64Bit/optiga-trust-m/examples/optiga\example_optiga_crypt_hash.c **** * @{
  38:C:/Workspace/DAVE-4.4.2-64Bit/optiga-trust-m/examples/optiga\example_optiga_crypt_hash.c **** */
  39:C:/Workspace/DAVE-4.4.2-64Bit/optiga-trust-m/examples/optiga\example_optiga_crypt_hash.c **** 
  40:C:/Workspace/DAVE-4.4.2-64Bit/optiga-trust-m/examples/optiga\example_optiga_crypt_hash.c **** #include "optiga/optiga_crypt.h"
  41:C:/Workspace/DAVE-4.4.2-64Bit/optiga-trust-m/examples/optiga\example_optiga_crypt_hash.c **** #include "optiga_example.h"
  42:C:/Workspace/DAVE-4.4.2-64Bit/optiga-trust-m/examples/optiga\example_optiga_crypt_hash.c **** 
  43:C:/Workspace/DAVE-4.4.2-64Bit/optiga-trust-m/examples/optiga\example_optiga_crypt_hash.c **** #ifdef OPTIGA_CRYPT_HASH_ENABLED
  44:C:/Workspace/DAVE-4.4.2-64Bit/optiga-trust-m/examples/optiga\example_optiga_crypt_hash.c **** 
  45:C:/Workspace/DAVE-4.4.2-64Bit/optiga-trust-m/examples/optiga\example_optiga_crypt_hash.c **** /**
  46:C:/Workspace/DAVE-4.4.2-64Bit/optiga-trust-m/examples/optiga\example_optiga_crypt_hash.c ****  * Callback when optiga_crypt_xxxx operation is completed asynchronously
  47:C:/Workspace/DAVE-4.4.2-64Bit/optiga-trust-m/examples/optiga\example_optiga_crypt_hash.c ****  */
  48:C:/Workspace/DAVE-4.4.2-64Bit/optiga-trust-m/examples/optiga\example_optiga_crypt_hash.c **** static volatile optiga_lib_status_t optiga_lib_status;
  49:C:/Workspace/DAVE-4.4.2-64Bit/optiga-trust-m/examples/optiga\example_optiga_crypt_hash.c **** //lint --e{818} suppress "argument "context" is not used in the sample provided"
  50:C:/Workspace/DAVE-4.4.2-64Bit/optiga-trust-m/examples/optiga\example_optiga_crypt_hash.c **** static void optiga_crypt_callback(void * context, optiga_lib_status_t return_status)
  51:C:/Workspace/DAVE-4.4.2-64Bit/optiga-trust-m/examples/optiga\example_optiga_crypt_hash.c **** {
  25              	 .loc 1 51 0
  26              	 .cfi_startproc
  27              	.LVL0:
  52:C:/Workspace/DAVE-4.4.2-64Bit/optiga-trust-m/examples/optiga\example_optiga_crypt_hash.c ****     optiga_lib_status = return_status;
  28              	 .loc 1 52 0
  29 0000 014B     	 ldr r3,.L2
  53:C:/Workspace/DAVE-4.4.2-64Bit/optiga-trust-m/examples/optiga\example_optiga_crypt_hash.c ****     if (NULL != context)
  54:C:/Workspace/DAVE-4.4.2-64Bit/optiga-trust-m/examples/optiga\example_optiga_crypt_hash.c ****     {
  55:C:/Workspace/DAVE-4.4.2-64Bit/optiga-trust-m/examples/optiga\example_optiga_crypt_hash.c ****         // callback to upper layer here
  56:C:/Workspace/DAVE-4.4.2-64Bit/optiga-trust-m/examples/optiga\example_optiga_crypt_hash.c ****     }
  57:C:/Workspace/DAVE-4.4.2-64Bit/optiga-trust-m/examples/optiga\example_optiga_crypt_hash.c **** }
  30              	 .loc 1 57 0
  31              	 
  52:C:/Workspace/DAVE-4.4.2-64Bit/optiga-trust-m/examples/optiga\example_optiga_crypt_hash.c ****     optiga_lib_status = return_status;
  32              	 .loc 1 52 0
  33 0002 1980     	 strh r1,[r3]
  34              	 .loc 1 57 0
  35 0004 7047     	 bx lr
  36              	.L3:
  37 0006 C046     	 .align 2
  38              	.L2:
  39 0008 00000000 	 .word .LANCHOR0
  40              	 .cfi_endproc
  41              	.LFE0:
  43              	 .section .text.example_optiga_crypt_hash,"ax",%progbits
  44              	 .align 1
  45              	 .global example_optiga_crypt_hash
  46              	 .code 16
  47              	 .thumb_func
  49              	example_optiga_crypt_hash:
  50              	.LFB1:
  58:C:/Workspace/DAVE-4.4.2-64Bit/optiga-trust-m/examples/optiga\example_optiga_crypt_hash.c **** 
  59:C:/Workspace/DAVE-4.4.2-64Bit/optiga-trust-m/examples/optiga\example_optiga_crypt_hash.c **** /**
  60:C:/Workspace/DAVE-4.4.2-64Bit/optiga-trust-m/examples/optiga\example_optiga_crypt_hash.c ****  * Prepare the hash context
  61:C:/Workspace/DAVE-4.4.2-64Bit/optiga-trust-m/examples/optiga\example_optiga_crypt_hash.c ****  */
  62:C:/Workspace/DAVE-4.4.2-64Bit/optiga-trust-m/examples/optiga\example_optiga_crypt_hash.c **** #define OPTIGA_HASH_CONTEXT_INIT(hash_context,p_context_buffer,context_buffer_size,hash_type) \
  63:C:/Workspace/DAVE-4.4.2-64Bit/optiga-trust-m/examples/optiga\example_optiga_crypt_hash.c **** {                                                               \
  64:C:/Workspace/DAVE-4.4.2-64Bit/optiga-trust-m/examples/optiga\example_optiga_crypt_hash.c ****     hash_context.context_buffer = p_context_buffer;             \
  65:C:/Workspace/DAVE-4.4.2-64Bit/optiga-trust-m/examples/optiga\example_optiga_crypt_hash.c ****     hash_context.context_buffer_length = context_buffer_size;   \
  66:C:/Workspace/DAVE-4.4.2-64Bit/optiga-trust-m/examples/optiga\example_optiga_crypt_hash.c ****     hash_context.hash_algo = hash_type;                         \
  67:C:/Workspace/DAVE-4.4.2-64Bit/optiga-trust-m/examples/optiga\example_optiga_crypt_hash.c **** }
  68:C:/Workspace/DAVE-4.4.2-64Bit/optiga-trust-m/examples/optiga\example_optiga_crypt_hash.c **** 
  69:C:/Workspace/DAVE-4.4.2-64Bit/optiga-trust-m/examples/optiga\example_optiga_crypt_hash.c **** /**
  70:C:/Workspace/DAVE-4.4.2-64Bit/optiga-trust-m/examples/optiga\example_optiga_crypt_hash.c ****  * The below example demonstrates the generation of digest using
  71:C:/Workspace/DAVE-4.4.2-64Bit/optiga-trust-m/examples/optiga\example_optiga_crypt_hash.c ****  * optiga_crypt_hash_xxxx operations.
  72:C:/Workspace/DAVE-4.4.2-64Bit/optiga-trust-m/examples/optiga\example_optiga_crypt_hash.c ****  *
  73:C:/Workspace/DAVE-4.4.2-64Bit/optiga-trust-m/examples/optiga\example_optiga_crypt_hash.c ****  * Example for #optiga_crypt_hash_start, #optiga_crypt_hash_update,
  74:C:/Workspace/DAVE-4.4.2-64Bit/optiga-trust-m/examples/optiga\example_optiga_crypt_hash.c ****  * #optiga_crypt_hash_finalize
  75:C:/Workspace/DAVE-4.4.2-64Bit/optiga-trust-m/examples/optiga\example_optiga_crypt_hash.c ****  *
  76:C:/Workspace/DAVE-4.4.2-64Bit/optiga-trust-m/examples/optiga\example_optiga_crypt_hash.c ****  */
  77:C:/Workspace/DAVE-4.4.2-64Bit/optiga-trust-m/examples/optiga\example_optiga_crypt_hash.c **** void example_optiga_crypt_hash(void)
  78:C:/Workspace/DAVE-4.4.2-64Bit/optiga-trust-m/examples/optiga\example_optiga_crypt_hash.c **** {
  51              	 .loc 1 78 0
  52              	 .cfi_startproc
  53              	.LVL1:
  54 0000 F0B5     	 push {r4,r5,r6,r7,lr}
  55              	.LCFI0:
  56              	 .cfi_def_cfa_offset 20
  57              	 .cfi_offset 4,-20
  58              	 .cfi_offset 5,-16
  59              	 .cfi_offset 6,-12
  60              	 .cfi_offset 7,-8
  61              	 .cfi_offset 14,-4
  62 0002 B9B0     	 sub sp,sp,#228
  63              	.LCFI1:
  64              	 .cfi_def_cfa_offset 248
  79:C:/Workspace/DAVE-4.4.2-64Bit/optiga-trust-m/examples/optiga\example_optiga_crypt_hash.c ****     optiga_lib_status_t return_status = 0;
  80:C:/Workspace/DAVE-4.4.2-64Bit/optiga-trust-m/examples/optiga\example_optiga_crypt_hash.c **** 
  81:C:/Workspace/DAVE-4.4.2-64Bit/optiga-trust-m/examples/optiga\example_optiga_crypt_hash.c ****     uint8_t hash_context_buffer [130];
  82:C:/Workspace/DAVE-4.4.2-64Bit/optiga-trust-m/examples/optiga\example_optiga_crypt_hash.c ****     optiga_hash_context_t hash_context;
  83:C:/Workspace/DAVE-4.4.2-64Bit/optiga-trust-m/examples/optiga\example_optiga_crypt_hash.c **** 
  84:C:/Workspace/DAVE-4.4.2-64Bit/optiga-trust-m/examples/optiga\example_optiga_crypt_hash.c ****     uint8_t data_to_hash [] = {"OPITGA, Infineon Technologies AG"};
  65              	 .loc 1 84 0
  66 0004 0EAF     	 add r7,sp,#56
  67 0006 3449     	 ldr r1,.L36
  68 0008 2122     	 mov r2,#33
  69 000a 381C     	 mov r0,r7
  70 000c FFF7FEFF 	 bl memcpy
  71              	.LVL2:
  85:C:/Workspace/DAVE-4.4.2-64Bit/optiga-trust-m/examples/optiga\example_optiga_crypt_hash.c ****     hash_data_from_host_t hash_data_host;
  86:C:/Workspace/DAVE-4.4.2-64Bit/optiga-trust-m/examples/optiga\example_optiga_crypt_hash.c **** 
  87:C:/Workspace/DAVE-4.4.2-64Bit/optiga-trust-m/examples/optiga\example_optiga_crypt_hash.c ****     uint8_t digest [32];
  88:C:/Workspace/DAVE-4.4.2-64Bit/optiga-trust-m/examples/optiga\example_optiga_crypt_hash.c **** 
  89:C:/Workspace/DAVE-4.4.2-64Bit/optiga-trust-m/examples/optiga\example_optiga_crypt_hash.c ****     optiga_crypt_t * me = NULL;
  90:C:/Workspace/DAVE-4.4.2-64Bit/optiga-trust-m/examples/optiga\example_optiga_crypt_hash.c ****     OPTIGA_EXAMPLE_LOG_MESSAGE(__FUNCTION__);
  72              	 .loc 1 90 0
  73 0010 324C     	 ldr r4,.L36+4
  74 0012 334D     	 ldr r5,.L36+8
  75 0014 3348     	 ldr r0,.L36+12
  76 0016 291C     	 mov r1,r5
  77 0018 221C     	 mov r2,r4
  78 001a FFF7FEFF 	 bl optiga_lib_print_message
  79              	.LVL3:
  91:C:/Workspace/DAVE-4.4.2-64Bit/optiga-trust-m/examples/optiga\example_optiga_crypt_hash.c **** 
  92:C:/Workspace/DAVE-4.4.2-64Bit/optiga-trust-m/examples/optiga\example_optiga_crypt_hash.c ****     do
  93:C:/Workspace/DAVE-4.4.2-64Bit/optiga-trust-m/examples/optiga\example_optiga_crypt_hash.c ****     {
  94:C:/Workspace/DAVE-4.4.2-64Bit/optiga-trust-m/examples/optiga\example_optiga_crypt_hash.c ****         /**
  95:C:/Workspace/DAVE-4.4.2-64Bit/optiga-trust-m/examples/optiga\example_optiga_crypt_hash.c ****          * 1. Create OPTIGA Crypt Instance
  96:C:/Workspace/DAVE-4.4.2-64Bit/optiga-trust-m/examples/optiga\example_optiga_crypt_hash.c ****          */
  97:C:/Workspace/DAVE-4.4.2-64Bit/optiga-trust-m/examples/optiga\example_optiga_crypt_hash.c ****         me = optiga_crypt_create(0, optiga_crypt_callback, NULL);
  80              	 .loc 1 97 0
  81 001e 0020     	 mov r0,#0
  82 0020 3149     	 ldr r1,.L36+16
  83 0022 021C     	 mov r2,r0
  84 0024 FFF7FEFF 	 bl optiga_crypt_create
  85              	.LVL4:
  86 0028 0194     	 str r4,[sp,#4]
  87 002a 061E     	 sub r6,r0,#0
  88              	.LVL5:
  98:C:/Workspace/DAVE-4.4.2-64Bit/optiga-trust-m/examples/optiga\example_optiga_crypt_hash.c ****         if (NULL == me)
  89              	 .loc 1 98 0
  90 002c 42D0     	 beq .L13
  99:C:/Workspace/DAVE-4.4.2-64Bit/optiga-trust-m/examples/optiga\example_optiga_crypt_hash.c ****         {
 100:C:/Workspace/DAVE-4.4.2-64Bit/optiga-trust-m/examples/optiga\example_optiga_crypt_hash.c ****             break;
 101:C:/Workspace/DAVE-4.4.2-64Bit/optiga-trust-m/examples/optiga\example_optiga_crypt_hash.c ****         }
 102:C:/Workspace/DAVE-4.4.2-64Bit/optiga-trust-m/examples/optiga\example_optiga_crypt_hash.c **** 
 103:C:/Workspace/DAVE-4.4.2-64Bit/optiga-trust-m/examples/optiga\example_optiga_crypt_hash.c ****         /**
 104:C:/Workspace/DAVE-4.4.2-64Bit/optiga-trust-m/examples/optiga\example_optiga_crypt_hash.c ****          * 2. Initialize the Hash context
 105:C:/Workspace/DAVE-4.4.2-64Bit/optiga-trust-m/examples/optiga\example_optiga_crypt_hash.c ****          */
 106:C:/Workspace/DAVE-4.4.2-64Bit/optiga-trust-m/examples/optiga\example_optiga_crypt_hash.c ****         OPTIGA_HASH_CONTEXT_INIT(hash_context,hash_context_buffer,  \
  91              	 .loc 1 106 0
  92 002e 17AB     	 add r3,sp,#92
  93 0030 0293     	 str r3,[sp,#8]
  94 0032 8223     	 mov r3,#130
  95 0034 02AA     	 add r2,sp,#8
  96 0036 9380     	 strh r3,[r2,#4]
 107:C:/Workspace/DAVE-4.4.2-64Bit/optiga-trust-m/examples/optiga\example_optiga_crypt_hash.c ****                                  sizeof(hash_context_buffer),(uint8_t)OPTIGA_HASH_TYPE_SHA_256);
 108:C:/Workspace/DAVE-4.4.2-64Bit/optiga-trust-m/examples/optiga\example_optiga_crypt_hash.c **** 
 109:C:/Workspace/DAVE-4.4.2-64Bit/optiga-trust-m/examples/optiga\example_optiga_crypt_hash.c ****         optiga_lib_status = OPTIGA_LIB_BUSY;
  97              	 .loc 1 109 0
  98 0038 2C4C     	 ldr r4,.L36+20
 106:C:/Workspace/DAVE-4.4.2-64Bit/optiga-trust-m/examples/optiga\example_optiga_crypt_hash.c ****                                  sizeof(hash_context_buffer),(uint8_t)OPTIGA_HASH_TYPE_SHA_256);
  99              	 .loc 1 106 0
 100 003a 6033     	 add r3,r3,#96
 101 003c 9371     	 strb r3,[r2,#6]
 110:C:/Workspace/DAVE-4.4.2-64Bit/optiga-trust-m/examples/optiga\example_optiga_crypt_hash.c **** 
 111:C:/Workspace/DAVE-4.4.2-64Bit/optiga-trust-m/examples/optiga\example_optiga_crypt_hash.c ****         /**
 112:C:/Workspace/DAVE-4.4.2-64Bit/optiga-trust-m/examples/optiga\example_optiga_crypt_hash.c ****          * 3. Initialize the hashing context at OPTIGA
 113:C:/Workspace/DAVE-4.4.2-64Bit/optiga-trust-m/examples/optiga\example_optiga_crypt_hash.c ****          */
 114:C:/Workspace/DAVE-4.4.2-64Bit/optiga-trust-m/examples/optiga\example_optiga_crypt_hash.c ****         return_status = optiga_crypt_hash_start(me, &hash_context);
 102              	 .loc 1 114 0
 103 003e 111C     	 mov r1,r2
 109:C:/Workspace/DAVE-4.4.2-64Bit/optiga-trust-m/examples/optiga\example_optiga_crypt_hash.c **** 
 104              	 .loc 1 109 0
 105 0040 E13B     	 sub r3,r3,#225
 106 0042 2380     	 strh r3,[r4]
 107              	 .loc 1 114 0
 108 0044 FFF7FEFF 	 bl optiga_crypt_hash_start
 109              	.LVL6:
 110 0048 021E     	 sub r2,r0,#0
 111              	.LVL7:
 115:C:/Workspace/DAVE-4.4.2-64Bit/optiga-trust-m/examples/optiga\example_optiga_crypt_hash.c ****         if (OPTIGA_LIB_SUCCESS != return_status)
 112              	 .loc 1 115 0
 113 004a 2ED1     	 bne .L17
 114              	.L7:
 116:C:/Workspace/DAVE-4.4.2-64Bit/optiga-trust-m/examples/optiga\example_optiga_crypt_hash.c ****         {
 117:C:/Workspace/DAVE-4.4.2-64Bit/optiga-trust-m/examples/optiga\example_optiga_crypt_hash.c ****             break;
 118:C:/Workspace/DAVE-4.4.2-64Bit/optiga-trust-m/examples/optiga\example_optiga_crypt_hash.c ****         }
 119:C:/Workspace/DAVE-4.4.2-64Bit/optiga-trust-m/examples/optiga\example_optiga_crypt_hash.c **** 
 120:C:/Workspace/DAVE-4.4.2-64Bit/optiga-trust-m/examples/optiga\example_optiga_crypt_hash.c ****         while (OPTIGA_LIB_BUSY == optiga_lib_status)
 115              	 .loc 1 120 0 discriminator 1
 116 004c 2388     	 ldrh r3,[r4]
 117 004e 012B     	 cmp r3,#1
 118 0050 FCD0     	 beq .L7
 121:C:/Workspace/DAVE-4.4.2-64Bit/optiga-trust-m/examples/optiga\example_optiga_crypt_hash.c ****         {
 122:C:/Workspace/DAVE-4.4.2-64Bit/optiga-trust-m/examples/optiga\example_optiga_crypt_hash.c ****             //Wait until the optiga_crypt_hash_start operation is completed
 123:C:/Workspace/DAVE-4.4.2-64Bit/optiga-trust-m/examples/optiga\example_optiga_crypt_hash.c ****         }
 124:C:/Workspace/DAVE-4.4.2-64Bit/optiga-trust-m/examples/optiga\example_optiga_crypt_hash.c **** 
 125:C:/Workspace/DAVE-4.4.2-64Bit/optiga-trust-m/examples/optiga\example_optiga_crypt_hash.c ****         if (OPTIGA_LIB_SUCCESS != optiga_lib_status)
 119              	 .loc 1 125 0
 120 0052 2388     	 ldrh r3,[r4]
 121 0054 002B     	 cmp r3,#0
 122 0056 24D1     	 bne .L33
 126:C:/Workspace/DAVE-4.4.2-64Bit/optiga-trust-m/examples/optiga\example_optiga_crypt_hash.c ****         {
 127:C:/Workspace/DAVE-4.4.2-64Bit/optiga-trust-m/examples/optiga\example_optiga_crypt_hash.c ****             return_status = optiga_lib_status;
 128:C:/Workspace/DAVE-4.4.2-64Bit/optiga-trust-m/examples/optiga\example_optiga_crypt_hash.c ****             break;
 129:C:/Workspace/DAVE-4.4.2-64Bit/optiga-trust-m/examples/optiga\example_optiga_crypt_hash.c ****         }
 130:C:/Workspace/DAVE-4.4.2-64Bit/optiga-trust-m/examples/optiga\example_optiga_crypt_hash.c **** 
 131:C:/Workspace/DAVE-4.4.2-64Bit/optiga-trust-m/examples/optiga\example_optiga_crypt_hash.c ****         /**
 132:C:/Workspace/DAVE-4.4.2-64Bit/optiga-trust-m/examples/optiga\example_optiga_crypt_hash.c ****          * 4. Continue hashing the data
 133:C:/Workspace/DAVE-4.4.2-64Bit/optiga-trust-m/examples/optiga\example_optiga_crypt_hash.c ****          */
 134:C:/Workspace/DAVE-4.4.2-64Bit/optiga-trust-m/examples/optiga\example_optiga_crypt_hash.c ****         hash_data_host.buffer = data_to_hash;
 135:C:/Workspace/DAVE-4.4.2-64Bit/optiga-trust-m/examples/optiga\example_optiga_crypt_hash.c ****         hash_data_host.length = sizeof(data_to_hash);
 123              	 .loc 1 135 0
 124 0058 2123     	 mov r3,#33
 136:C:/Workspace/DAVE-4.4.2-64Bit/optiga-trust-m/examples/optiga\example_optiga_crypt_hash.c **** 
 137:C:/Workspace/DAVE-4.4.2-64Bit/optiga-trust-m/examples/optiga\example_optiga_crypt_hash.c ****         optiga_lib_status = OPTIGA_LIB_BUSY;
 125              	 .loc 1 137 0
 126 005a 0122     	 mov r2,#1
 135:C:/Workspace/DAVE-4.4.2-64Bit/optiga-trust-m/examples/optiga\example_optiga_crypt_hash.c **** 
 127              	 .loc 1 135 0
 128 005c 0593     	 str r3,[sp,#20]
 138:C:/Workspace/DAVE-4.4.2-64Bit/optiga-trust-m/examples/optiga\example_optiga_crypt_hash.c ****         return_status = optiga_crypt_hash_update(me,
 129              	 .loc 1 138 0
 130 005e 301C     	 mov r0,r6
 131              	.LVL8:
 132 0060 02A9     	 add r1,sp,#8
 133 0062 04AB     	 add r3,sp,#16
 137:C:/Workspace/DAVE-4.4.2-64Bit/optiga-trust-m/examples/optiga\example_optiga_crypt_hash.c ****         return_status = optiga_crypt_hash_update(me,
 134              	 .loc 1 137 0
 135 0064 2280     	 strh r2,[r4]
 134:C:/Workspace/DAVE-4.4.2-64Bit/optiga-trust-m/examples/optiga\example_optiga_crypt_hash.c ****         hash_data_host.length = sizeof(data_to_hash);
 136              	 .loc 1 134 0
 137 0066 0497     	 str r7,[sp,#16]
 138              	 .loc 1 138 0
 139 0068 FFF7FEFF 	 bl optiga_crypt_hash_update
 140              	.LVL9:
 141 006c 021E     	 sub r2,r0,#0
 142              	.LVL10:
 139:C:/Workspace/DAVE-4.4.2-64Bit/optiga-trust-m/examples/optiga\example_optiga_crypt_hash.c ****                                                  &hash_context,
 140:C:/Workspace/DAVE-4.4.2-64Bit/optiga-trust-m/examples/optiga\example_optiga_crypt_hash.c ****                                                  OPTIGA_CRYPT_HOST_DATA,
 141:C:/Workspace/DAVE-4.4.2-64Bit/optiga-trust-m/examples/optiga\example_optiga_crypt_hash.c ****                                                  &hash_data_host);
 142:C:/Workspace/DAVE-4.4.2-64Bit/optiga-trust-m/examples/optiga\example_optiga_crypt_hash.c ****         if (OPTIGA_LIB_SUCCESS != return_status)
 143              	 .loc 1 142 0
 144 006e 1CD1     	 bne .L17
 145              	.L10:
 143:C:/Workspace/DAVE-4.4.2-64Bit/optiga-trust-m/examples/optiga\example_optiga_crypt_hash.c ****         {
 144:C:/Workspace/DAVE-4.4.2-64Bit/optiga-trust-m/examples/optiga\example_optiga_crypt_hash.c ****             break;
 145:C:/Workspace/DAVE-4.4.2-64Bit/optiga-trust-m/examples/optiga\example_optiga_crypt_hash.c ****         }
 146:C:/Workspace/DAVE-4.4.2-64Bit/optiga-trust-m/examples/optiga\example_optiga_crypt_hash.c **** 
 147:C:/Workspace/DAVE-4.4.2-64Bit/optiga-trust-m/examples/optiga\example_optiga_crypt_hash.c ****         while (OPTIGA_LIB_BUSY == optiga_lib_status)
 146              	 .loc 1 147 0 discriminator 1
 147 0070 1E4B     	 ldr r3,.L36+20
 148 0072 1A88     	 ldrh r2,[r3]
 149 0074 1C1C     	 mov r4,r3
 150 0076 012A     	 cmp r2,#1
 151 0078 FAD0     	 beq .L10
 148:C:/Workspace/DAVE-4.4.2-64Bit/optiga-trust-m/examples/optiga\example_optiga_crypt_hash.c ****         {
 149:C:/Workspace/DAVE-4.4.2-64Bit/optiga-trust-m/examples/optiga\example_optiga_crypt_hash.c ****             //Wait until the optiga_crypt_hash_update operation is completed
 150:C:/Workspace/DAVE-4.4.2-64Bit/optiga-trust-m/examples/optiga\example_optiga_crypt_hash.c ****         }
 151:C:/Workspace/DAVE-4.4.2-64Bit/optiga-trust-m/examples/optiga\example_optiga_crypt_hash.c **** 
 152:C:/Workspace/DAVE-4.4.2-64Bit/optiga-trust-m/examples/optiga\example_optiga_crypt_hash.c ****         if (OPTIGA_LIB_SUCCESS != optiga_lib_status)
 152              	 .loc 1 152 0
 153 007a 1A88     	 ldrh r2,[r3]
 154 007c 002A     	 cmp r2,#0
 155 007e 01D0     	 beq .L11
 153:C:/Workspace/DAVE-4.4.2-64Bit/optiga-trust-m/examples/optiga\example_optiga_crypt_hash.c ****         {
 154:C:/Workspace/DAVE-4.4.2-64Bit/optiga-trust-m/examples/optiga\example_optiga_crypt_hash.c ****             return_status = optiga_lib_status;
 156              	 .loc 1 154 0
 157 0080 1A88     	 ldrh r2,[r3]
 158 0082 0FE0     	 b .L34
 159              	.L11:
 155:C:/Workspace/DAVE-4.4.2-64Bit/optiga-trust-m/examples/optiga\example_optiga_crypt_hash.c ****             break;
 156:C:/Workspace/DAVE-4.4.2-64Bit/optiga-trust-m/examples/optiga\example_optiga_crypt_hash.c ****         }
 157:C:/Workspace/DAVE-4.4.2-64Bit/optiga-trust-m/examples/optiga\example_optiga_crypt_hash.c **** 
 158:C:/Workspace/DAVE-4.4.2-64Bit/optiga-trust-m/examples/optiga\example_optiga_crypt_hash.c ****         /**
 159:C:/Workspace/DAVE-4.4.2-64Bit/optiga-trust-m/examples/optiga\example_optiga_crypt_hash.c ****          * 5. Finalize the hash
 160:C:/Workspace/DAVE-4.4.2-64Bit/optiga-trust-m/examples/optiga\example_optiga_crypt_hash.c ****          */
 161:C:/Workspace/DAVE-4.4.2-64Bit/optiga-trust-m/examples/optiga\example_optiga_crypt_hash.c ****         optiga_lib_status = OPTIGA_LIB_BUSY;
 160              	 .loc 1 161 0
 161 0084 0123     	 mov r3,#1
 162:C:/Workspace/DAVE-4.4.2-64Bit/optiga-trust-m/examples/optiga\example_optiga_crypt_hash.c ****         return_status = optiga_crypt_hash_finalize(me,
 162              	 .loc 1 162 0
 163 0086 06AA     	 add r2,sp,#24
 164 0088 301C     	 mov r0,r6
 165              	.LVL11:
 166 008a 02A9     	 add r1,sp,#8
 161:C:/Workspace/DAVE-4.4.2-64Bit/optiga-trust-m/examples/optiga\example_optiga_crypt_hash.c ****         return_status = optiga_crypt_hash_finalize(me,
 167              	 .loc 1 161 0
 168 008c 2380     	 strh r3,[r4]
 169              	 .loc 1 162 0
 170 008e FFF7FEFF 	 bl optiga_crypt_hash_finalize
 171              	.LVL12:
 172 0092 021E     	 sub r2,r0,#0
 173              	.LVL13:
 163:C:/Workspace/DAVE-4.4.2-64Bit/optiga-trust-m/examples/optiga\example_optiga_crypt_hash.c ****                                                    &hash_context,
 164:C:/Workspace/DAVE-4.4.2-64Bit/optiga-trust-m/examples/optiga\example_optiga_crypt_hash.c ****                                                    digest);
 165:C:/Workspace/DAVE-4.4.2-64Bit/optiga-trust-m/examples/optiga\example_optiga_crypt_hash.c **** 
 166:C:/Workspace/DAVE-4.4.2-64Bit/optiga-trust-m/examples/optiga\example_optiga_crypt_hash.c ****         if (OPTIGA_LIB_SUCCESS != return_status)
 174              	 .loc 1 166 0
 175 0094 09D1     	 bne .L17
 176              	.L12:
 167:C:/Workspace/DAVE-4.4.2-64Bit/optiga-trust-m/examples/optiga\example_optiga_crypt_hash.c ****         {
 168:C:/Workspace/DAVE-4.4.2-64Bit/optiga-trust-m/examples/optiga\example_optiga_crypt_hash.c ****             break;
 169:C:/Workspace/DAVE-4.4.2-64Bit/optiga-trust-m/examples/optiga\example_optiga_crypt_hash.c ****         }
 170:C:/Workspace/DAVE-4.4.2-64Bit/optiga-trust-m/examples/optiga\example_optiga_crypt_hash.c **** 
 171:C:/Workspace/DAVE-4.4.2-64Bit/optiga-trust-m/examples/optiga\example_optiga_crypt_hash.c ****         while (OPTIGA_LIB_BUSY == optiga_lib_status)
 177              	 .loc 1 171 0 discriminator 1
 178 0096 2388     	 ldrh r3,[r4]
 179 0098 012B     	 cmp r3,#1
 180 009a FCD0     	 beq .L12
 172:C:/Workspace/DAVE-4.4.2-64Bit/optiga-trust-m/examples/optiga\example_optiga_crypt_hash.c ****         {
 173:C:/Workspace/DAVE-4.4.2-64Bit/optiga-trust-m/examples/optiga\example_optiga_crypt_hash.c ****             //Wait until the optiga_crypt_hash_finalize operation is completed
 174:C:/Workspace/DAVE-4.4.2-64Bit/optiga-trust-m/examples/optiga\example_optiga_crypt_hash.c ****         }
 175:C:/Workspace/DAVE-4.4.2-64Bit/optiga-trust-m/examples/optiga\example_optiga_crypt_hash.c **** 
 176:C:/Workspace/DAVE-4.4.2-64Bit/optiga-trust-m/examples/optiga\example_optiga_crypt_hash.c ****         if (OPTIGA_LIB_SUCCESS != optiga_lib_status)
 181              	 .loc 1 176 0
 182 009c 2388     	 ldrh r3,[r4]
 183 009e 002B     	 cmp r3,#0
 184 00a0 08D0     	 beq .L13
 185              	.LVL14:
 186              	.L33:
 177:C:/Workspace/DAVE-4.4.2-64Bit/optiga-trust-m/examples/optiga\example_optiga_crypt_hash.c ****         {
 178:C:/Workspace/DAVE-4.4.2-64Bit/optiga-trust-m/examples/optiga\example_optiga_crypt_hash.c ****             return_status = optiga_lib_status;
 187              	 .loc 1 178 0
 188 00a2 2288     	 ldrh r2,[r4]
 189              	.L34:
 190 00a4 92B2     	 uxth r2,r2
 191              	.LVL15:
 179:C:/Workspace/DAVE-4.4.2-64Bit/optiga-trust-m/examples/optiga\example_optiga_crypt_hash.c ****             break;
 180:C:/Workspace/DAVE-4.4.2-64Bit/optiga-trust-m/examples/optiga\example_optiga_crypt_hash.c ****         }
 181:C:/Workspace/DAVE-4.4.2-64Bit/optiga-trust-m/examples/optiga\example_optiga_crypt_hash.c ****         return_status = OPTIGA_LIB_SUCCESS;
 182:C:/Workspace/DAVE-4.4.2-64Bit/optiga-trust-m/examples/optiga\example_optiga_crypt_hash.c **** 
 183:C:/Workspace/DAVE-4.4.2-64Bit/optiga-trust-m/examples/optiga\example_optiga_crypt_hash.c ****     } while (FALSE);
 184:C:/Workspace/DAVE-4.4.2-64Bit/optiga-trust-m/examples/optiga\example_optiga_crypt_hash.c ****     OPTIGA_EXAMPLE_LOG_STATUS(return_status);
 192              	 .loc 1 184 0
 193 00a6 002A     	 cmp r2,#0
 194 00a8 04D0     	 beq .L13
 195              	.LVL16:
 196              	.L17:
 197              	 .loc 1 184 0 is_stmt 0 discriminator 1
 198 00aa 281C     	 mov r0,r5
 199 00ac 1049     	 ldr r1,.L36+24
 200 00ae FFF7FEFF 	 bl optiga_lib_print_status
 201              	.LVL17:
 202 00b2 06E0     	 b .L14
 203              	.L13:
 204              	 .loc 1 184 0 discriminator 2
 205 00b4 281C     	 mov r0,r5
 206 00b6 0199     	 ldr r1,[sp,#4]
 207 00b8 0022     	 mov r2,#0
 208 00ba FFF7FEFF 	 bl optiga_lib_print_status
 209              	.LVL18:
 185:C:/Workspace/DAVE-4.4.2-64Bit/optiga-trust-m/examples/optiga\example_optiga_crypt_hash.c ****     
 186:C:/Workspace/DAVE-4.4.2-64Bit/optiga-trust-m/examples/optiga\example_optiga_crypt_hash.c ****     if (me)
 210              	 .loc 1 186 0 is_stmt 1 discriminator 2
 211 00be 002E     	 cmp r6,#0
 212 00c0 08D0     	 beq .L4
 213              	.L14:
 187:C:/Workspace/DAVE-4.4.2-64Bit/optiga-trust-m/examples/optiga\example_optiga_crypt_hash.c ****     {
 188:C:/Workspace/DAVE-4.4.2-64Bit/optiga-trust-m/examples/optiga\example_optiga_crypt_hash.c ****         //Destroy the instance after the completion of usecase if not required.
 189:C:/Workspace/DAVE-4.4.2-64Bit/optiga-trust-m/examples/optiga\example_optiga_crypt_hash.c ****         return_status = optiga_crypt_destroy(me);
 214              	 .loc 1 189 0
 215 00c2 301C     	 mov r0,r6
 216 00c4 FFF7FEFF 	 bl optiga_crypt_destroy
 217              	.LVL19:
 218 00c8 021E     	 sub r2,r0,#0
 219              	.LVL20:
 190:C:/Workspace/DAVE-4.4.2-64Bit/optiga-trust-m/examples/optiga\example_optiga_crypt_hash.c ****         if(OPTIGA_LIB_SUCCESS != return_status)
 220              	 .loc 1 190 0
 221 00ca 03D0     	 beq .L4
 191:C:/Workspace/DAVE-4.4.2-64Bit/optiga-trust-m/examples/optiga\example_optiga_crypt_hash.c ****         {
 192:C:/Workspace/DAVE-4.4.2-64Bit/optiga-trust-m/examples/optiga\example_optiga_crypt_hash.c ****             //lint --e{774} suppress This is a generic macro
 193:C:/Workspace/DAVE-4.4.2-64Bit/optiga-trust-m/examples/optiga\example_optiga_crypt_hash.c ****             OPTIGA_EXAMPLE_LOG_STATUS(return_status);
 222              	 .loc 1 193 0 discriminator 1
 223 00cc 281C     	 mov r0,r5
 224              	.LVL21:
 225 00ce 0849     	 ldr r1,.L36+24
 226 00d0 FFF7FEFF 	 bl optiga_lib_print_status
 227              	.LVL22:
 228              	.L4:
 194:C:/Workspace/DAVE-4.4.2-64Bit/optiga-trust-m/examples/optiga\example_optiga_crypt_hash.c ****         }
 195:C:/Workspace/DAVE-4.4.2-64Bit/optiga-trust-m/examples/optiga\example_optiga_crypt_hash.c ****     }
 196:C:/Workspace/DAVE-4.4.2-64Bit/optiga-trust-m/examples/optiga\example_optiga_crypt_hash.c **** }
 229              	 .loc 1 196 0
 230 00d4 39B0     	 add sp,sp,#228
 231              	 
 232              	.LVL23:
 233 00d6 F0BD     	 pop {r4,r5,r6,r7,pc}
 234              	.L37:
 235              	 .align 2
 236              	.L36:
 237 00d8 20000000 	 .word .LC1
 238 00dc 15000000 	 .word .LC6
 239 00e0 00000000 	 .word .LC4
 240 00e4 00000000 	 .word .LANCHOR1
 241 00e8 00000000 	 .word optiga_crypt_callback
 242 00ec 00000000 	 .word .LANCHOR0
 243 00f0 1A000000 	 .word .LC10
 244              	 .cfi_endproc
 245              	.LFE1:
 247              	 .section .rodata.str1.1,"aMS",%progbits,1
 248              	.LC4:
 249 0000 5B6F7074 	 .ascii "[optiga example]  : \000"
 249      69676120 
 249      6578616D 
 249      706C655D 
 249      20203A20 
 250              	.LC6:
 251 0015 1B5B306D 	 .ascii "\033[0m\000"
 251      00
 252              	.LC10:
 253 001a 1B5B3331 	 .ascii "\033[31m\000"
 253      6D00
 254              	.LC1:
 255 0020 4F504954 	 .ascii "OPITGA, Infineon Technologies AG\000"
 255      47412C20 
 255      496E6669 
 255      6E656F6E 
 255      20546563 
 256              	 .section .bss.optiga_lib_status,"aw",%nobits
 257              	 .align 1
 258              	 .set .LANCHOR0,.+0
 261              	optiga_lib_status:
 262 0000 0000     	 .space 2
 263              	 .section .rodata.__FUNCTION__.6005,"a",%progbits
 264              	 .set .LANCHOR1,.+0
 267              	__FUNCTION__.6005:
 268 0000 6578616D 	 .ascii "example_optiga_crypt_hash\000"
 268      706C655F 
 268      6F707469 
 268      67615F63 
 268      72797074 
 269              	 .text
 270              	.Letext0:
 271              	 .file 2 "c:\\dave_4-4-2_64bit\\dave-ide-4.4.2-64bit\\eclipse\\arm-gcc-49\\arm-none-eabi\\include\\machine\\_default_types.h"
 272              	 .file 3 "c:\\dave_4-4-2_64bit\\dave-ide-4.4.2-64bit\\eclipse\\arm-gcc-49\\arm-none-eabi\\include\\stdint.h"
 273              	 .file 4 "C:/Workspace/DAVE-4.4.2-64Bit/optiga-trust-m/optiga/include/optiga/common/optiga_lib_types.h"
 274              	 .file 5 "C:/Workspace/DAVE-4.4.2-64Bit/optiga-trust-m/optiga/include/optiga/common/optiga_lib_common.h"
 275              	 .file 6 "C:/Workspace/DAVE-4.4.2-64Bit/optiga-trust-m/optiga/include/optiga/cmd/optiga_cmd.h"
 276              	 .file 7 "C:/Workspace/DAVE-4.4.2-64Bit/optiga-trust-m/optiga/include/optiga/optiga_crypt.h"
 277              	 .file 8 "C:/Workspace/DAVE-4.4.2-64Bit/optiga-trust-m/optiga/include/optiga/common/optiga_lib_logger.h"