   1              	 .cpu cortex-m0
   2              	 .fpu softvfp
   3              	 .eabi_attribute 20,1
   4              	 .eabi_attribute 21,1
   5              	 .eabi_attribute 23,3
   6              	 .eabi_attribute 24,1
   7              	 .eabi_attribute 25,1
   8              	 .eabi_attribute 26,1
   9              	 .eabi_attribute 30,4
  10              	 .eabi_attribute 34,0
  11              	 .eabi_attribute 18,4
  12              	 .code 16
  13              	 .file "example_optiga_util_update_count.c"
  14              	 .text
  15              	.Ltext0:
  16              	 .cfi_sections .debug_frame
  17              	 .section .text.optiga_util_callback,"ax",%progbits
  18              	 .align 1
  19              	 .code 16
  20              	 .thumb_func
  22              	optiga_util_callback:
  23              	.LFB0:
  24              	 .file 1 "C:/Workspace/DAVE-4.4.2-64Bit/optiga-trust-m/examples/optiga/example_optiga_util_update_count.c"
   1:C:/Workspace/DAVE-4.4.2-64Bit/optiga-trust-m/examples/optiga\example_optiga_util_update_count.c **** /**
   2:C:/Workspace/DAVE-4.4.2-64Bit/optiga-trust-m/examples/optiga\example_optiga_util_update_count.c **** * \copyright
   3:C:/Workspace/DAVE-4.4.2-64Bit/optiga-trust-m/examples/optiga\example_optiga_util_update_count.c **** * MIT License
   4:C:/Workspace/DAVE-4.4.2-64Bit/optiga-trust-m/examples/optiga\example_optiga_util_update_count.c **** *
   5:C:/Workspace/DAVE-4.4.2-64Bit/optiga-trust-m/examples/optiga\example_optiga_util_update_count.c **** * Copyright (c) 2019 Infineon Technologies AG
   6:C:/Workspace/DAVE-4.4.2-64Bit/optiga-trust-m/examples/optiga\example_optiga_util_update_count.c **** *
   7:C:/Workspace/DAVE-4.4.2-64Bit/optiga-trust-m/examples/optiga\example_optiga_util_update_count.c **** * Permission is hereby granted, free of charge, to any person obtaining a copy
   8:C:/Workspace/DAVE-4.4.2-64Bit/optiga-trust-m/examples/optiga\example_optiga_util_update_count.c **** * of this software and associated documentation files (the "Software"), to deal
   9:C:/Workspace/DAVE-4.4.2-64Bit/optiga-trust-m/examples/optiga\example_optiga_util_update_count.c **** * in the Software without restriction, including without limitation the rights
  10:C:/Workspace/DAVE-4.4.2-64Bit/optiga-trust-m/examples/optiga\example_optiga_util_update_count.c **** * to use, copy, modify, merge, publish, distribute, sublicense, and/or sell
  11:C:/Workspace/DAVE-4.4.2-64Bit/optiga-trust-m/examples/optiga\example_optiga_util_update_count.c **** * copies of the Software, and to permit persons to whom the Software is
  12:C:/Workspace/DAVE-4.4.2-64Bit/optiga-trust-m/examples/optiga\example_optiga_util_update_count.c **** * furnished to do so, subject to the following conditions:
  13:C:/Workspace/DAVE-4.4.2-64Bit/optiga-trust-m/examples/optiga\example_optiga_util_update_count.c **** *
  14:C:/Workspace/DAVE-4.4.2-64Bit/optiga-trust-m/examples/optiga\example_optiga_util_update_count.c **** * The above copyright notice and this permission notice shall be included in all
  15:C:/Workspace/DAVE-4.4.2-64Bit/optiga-trust-m/examples/optiga\example_optiga_util_update_count.c **** * copies or substantial portions of the Software.
  16:C:/Workspace/DAVE-4.4.2-64Bit/optiga-trust-m/examples/optiga\example_optiga_util_update_count.c **** *
  17:C:/Workspace/DAVE-4.4.2-64Bit/optiga-trust-m/examples/optiga\example_optiga_util_update_count.c **** * THE SOFTWARE IS PROVIDED "AS IS", WITHOUT WARRANTY OF ANY KIND, EXPRESS OR
  18:C:/Workspace/DAVE-4.4.2-64Bit/optiga-trust-m/examples/optiga\example_optiga_util_update_count.c **** * IMPLIED, INCLUDING BUT NOT LIMITED TO THE WARRANTIES OF MERCHANTABILITY,
  19:C:/Workspace/DAVE-4.4.2-64Bit/optiga-trust-m/examples/optiga\example_optiga_util_update_count.c **** * FITNESS FOR A PARTICULAR PURPOSE AND NONINFRINGEMENT. IN NO EVENT SHALL THE
  20:C:/Workspace/DAVE-4.4.2-64Bit/optiga-trust-m/examples/optiga\example_optiga_util_update_count.c **** * AUTHORS OR COPYRIGHT HOLDERS BE LIABLE FOR ANY CLAIM, DAMAGES OR OTHER
  21:C:/Workspace/DAVE-4.4.2-64Bit/optiga-trust-m/examples/optiga\example_optiga_util_update_count.c **** * LIABILITY, WHETHER IN AN ACTION OF CONTRACT, TORT OR OTHERWISE, ARISING FROM,
  22:C:/Workspace/DAVE-4.4.2-64Bit/optiga-trust-m/examples/optiga\example_optiga_util_update_count.c **** * OUT OF OR IN CONNECTION WITH THE SOFTWARE OR THE USE OR OTHER DEALINGS IN THE
  23:C:/Workspace/DAVE-4.4.2-64Bit/optiga-trust-m/examples/optiga\example_optiga_util_update_count.c **** * SOFTWARE
  24:C:/Workspace/DAVE-4.4.2-64Bit/optiga-trust-m/examples/optiga\example_optiga_util_update_count.c **** *
  25:C:/Workspace/DAVE-4.4.2-64Bit/optiga-trust-m/examples/optiga\example_optiga_util_update_count.c **** * \endcopyright
  26:C:/Workspace/DAVE-4.4.2-64Bit/optiga-trust-m/examples/optiga\example_optiga_util_update_count.c **** *
  27:C:/Workspace/DAVE-4.4.2-64Bit/optiga-trust-m/examples/optiga\example_optiga_util_update_count.c **** * \author Infineon Technologies AG
  28:C:/Workspace/DAVE-4.4.2-64Bit/optiga-trust-m/examples/optiga\example_optiga_util_update_count.c **** *
  29:C:/Workspace/DAVE-4.4.2-64Bit/optiga-trust-m/examples/optiga\example_optiga_util_update_count.c **** * \file example_optiga_util_update_count.c
  30:C:/Workspace/DAVE-4.4.2-64Bit/optiga-trust-m/examples/optiga\example_optiga_util_update_count.c **** *
  31:C:/Workspace/DAVE-4.4.2-64Bit/optiga-trust-m/examples/optiga\example_optiga_util_update_count.c **** * \brief   This file provides the example to update the counter object value in OPTIGA using
  32:C:/Workspace/DAVE-4.4.2-64Bit/optiga-trust-m/examples/optiga\example_optiga_util_update_count.c **** *          #optiga_util_update_count.
  33:C:/Workspace/DAVE-4.4.2-64Bit/optiga-trust-m/examples/optiga\example_optiga_util_update_count.c **** *
  34:C:/Workspace/DAVE-4.4.2-64Bit/optiga-trust-m/examples/optiga\example_optiga_util_update_count.c **** * \ingroup grOptigaExamples
  35:C:/Workspace/DAVE-4.4.2-64Bit/optiga-trust-m/examples/optiga\example_optiga_util_update_count.c **** *
  36:C:/Workspace/DAVE-4.4.2-64Bit/optiga-trust-m/examples/optiga\example_optiga_util_update_count.c **** * @{
  37:C:/Workspace/DAVE-4.4.2-64Bit/optiga-trust-m/examples/optiga\example_optiga_util_update_count.c **** */
  38:C:/Workspace/DAVE-4.4.2-64Bit/optiga-trust-m/examples/optiga\example_optiga_util_update_count.c **** 
  39:C:/Workspace/DAVE-4.4.2-64Bit/optiga-trust-m/examples/optiga\example_optiga_util_update_count.c **** #include "optiga/optiga_util.h"
  40:C:/Workspace/DAVE-4.4.2-64Bit/optiga-trust-m/examples/optiga\example_optiga_util_update_count.c **** #include "optiga_example.h"
  41:C:/Workspace/DAVE-4.4.2-64Bit/optiga-trust-m/examples/optiga\example_optiga_util_update_count.c **** 
  42:C:/Workspace/DAVE-4.4.2-64Bit/optiga-trust-m/examples/optiga\example_optiga_util_update_count.c **** /**
  43:C:/Workspace/DAVE-4.4.2-64Bit/optiga-trust-m/examples/optiga\example_optiga_util_update_count.c ****  * Initialize the counter object with a threshold value 0x0A
  44:C:/Workspace/DAVE-4.4.2-64Bit/optiga-trust-m/examples/optiga\example_optiga_util_update_count.c ****  */
  45:C:/Workspace/DAVE-4.4.2-64Bit/optiga-trust-m/examples/optiga\example_optiga_util_update_count.c **** static uint8_t initial_counter_object_data [] =
  46:C:/Workspace/DAVE-4.4.2-64Bit/optiga-trust-m/examples/optiga\example_optiga_util_update_count.c **** {
  47:C:/Workspace/DAVE-4.4.2-64Bit/optiga-trust-m/examples/optiga\example_optiga_util_update_count.c ****     //Initial counter value
  48:C:/Workspace/DAVE-4.4.2-64Bit/optiga-trust-m/examples/optiga\example_optiga_util_update_count.c ****     0x00, 0x00, 0x00, 0x00,
  49:C:/Workspace/DAVE-4.4.2-64Bit/optiga-trust-m/examples/optiga\example_optiga_util_update_count.c ****     //Threshold value
  50:C:/Workspace/DAVE-4.4.2-64Bit/optiga-trust-m/examples/optiga\example_optiga_util_update_count.c ****     0x00, 0x00, 0x00, 0x0A,
  51:C:/Workspace/DAVE-4.4.2-64Bit/optiga-trust-m/examples/optiga\example_optiga_util_update_count.c **** };
  52:C:/Workspace/DAVE-4.4.2-64Bit/optiga-trust-m/examples/optiga\example_optiga_util_update_count.c **** /**
  53:C:/Workspace/DAVE-4.4.2-64Bit/optiga-trust-m/examples/optiga\example_optiga_util_update_count.c ****  * Callback when optiga_util_xxxx operation is completed asynchronously
  54:C:/Workspace/DAVE-4.4.2-64Bit/optiga-trust-m/examples/optiga\example_optiga_util_update_count.c ****  */
  55:C:/Workspace/DAVE-4.4.2-64Bit/optiga-trust-m/examples/optiga\example_optiga_util_update_count.c **** static volatile optiga_lib_status_t optiga_lib_status;
  56:C:/Workspace/DAVE-4.4.2-64Bit/optiga-trust-m/examples/optiga\example_optiga_util_update_count.c **** //lint --e{818} suppress "argument "context" is not used in the sample provided"
  57:C:/Workspace/DAVE-4.4.2-64Bit/optiga-trust-m/examples/optiga\example_optiga_util_update_count.c **** static void optiga_util_callback(void * context, optiga_lib_status_t return_status)
  58:C:/Workspace/DAVE-4.4.2-64Bit/optiga-trust-m/examples/optiga\example_optiga_util_update_count.c **** {
  25              	 .loc 1 58 0
  26              	 .cfi_startproc
  27              	.LVL0:
  59:C:/Workspace/DAVE-4.4.2-64Bit/optiga-trust-m/examples/optiga\example_optiga_util_update_count.c ****     optiga_lib_status = return_status;
  28              	 .loc 1 59 0
  29 0000 014B     	 ldr r3,.L2
  60:C:/Workspace/DAVE-4.4.2-64Bit/optiga-trust-m/examples/optiga\example_optiga_util_update_count.c ****     if (NULL != context)
  61:C:/Workspace/DAVE-4.4.2-64Bit/optiga-trust-m/examples/optiga\example_optiga_util_update_count.c ****     {
  62:C:/Workspace/DAVE-4.4.2-64Bit/optiga-trust-m/examples/optiga\example_optiga_util_update_count.c ****         // callback to upper layer here
  63:C:/Workspace/DAVE-4.4.2-64Bit/optiga-trust-m/examples/optiga\example_optiga_util_update_count.c ****     }
  64:C:/Workspace/DAVE-4.4.2-64Bit/optiga-trust-m/examples/optiga\example_optiga_util_update_count.c **** }
  30              	 .loc 1 64 0
  31              	 
  59:C:/Workspace/DAVE-4.4.2-64Bit/optiga-trust-m/examples/optiga\example_optiga_util_update_count.c ****     optiga_lib_status = return_status;
  32              	 .loc 1 59 0
  33 0002 1980     	 strh r1,[r3]
  34              	 .loc 1 64 0
  35 0004 7047     	 bx lr
  36              	.L3:
  37 0006 C046     	 .align 2
  38              	.L2:
  39 0008 00000000 	 .word .LANCHOR0
  40              	 .cfi_endproc
  41              	.LFE0:
  43              	 .section .text.example_optiga_util_update_count,"ax",%progbits
  44              	 .align 1
  45              	 .global example_optiga_util_update_count
  46              	 .code 16
  47              	 .thumb_func
  49              	example_optiga_util_update_count:
  50              	.LFB1:
  65:C:/Workspace/DAVE-4.4.2-64Bit/optiga-trust-m/examples/optiga\example_optiga_util_update_count.c **** 
  66:C:/Workspace/DAVE-4.4.2-64Bit/optiga-trust-m/examples/optiga\example_optiga_util_update_count.c **** /**
  67:C:/Workspace/DAVE-4.4.2-64Bit/optiga-trust-m/examples/optiga\example_optiga_util_update_count.c ****  * The below example demonstrates update counter functionalities
  68:C:/Workspace/DAVE-4.4.2-64Bit/optiga-trust-m/examples/optiga\example_optiga_util_update_count.c ****  *
  69:C:/Workspace/DAVE-4.4.2-64Bit/optiga-trust-m/examples/optiga\example_optiga_util_update_count.c ****  * Example for #optiga_util_update_count
  70:C:/Workspace/DAVE-4.4.2-64Bit/optiga-trust-m/examples/optiga\example_optiga_util_update_count.c ****  *
  71:C:/Workspace/DAVE-4.4.2-64Bit/optiga-trust-m/examples/optiga\example_optiga_util_update_count.c ****  */
  72:C:/Workspace/DAVE-4.4.2-64Bit/optiga-trust-m/examples/optiga\example_optiga_util_update_count.c **** void example_optiga_util_update_count(void)
  73:C:/Workspace/DAVE-4.4.2-64Bit/optiga-trust-m/examples/optiga\example_optiga_util_update_count.c **** {
  51              	 .loc 1 73 0
  52              	 .cfi_startproc
  53              	.LVL1:
  54 0000 F7B5     	 push {r0,r1,r2,r4,r5,r6,r7,lr}
  55              	.LCFI0:
  56              	 .cfi_def_cfa_offset 32
  57              	 .cfi_offset 0,-32
  58              	 .cfi_offset 1,-28
  59              	 .cfi_offset 2,-24
  60              	 .cfi_offset 4,-20
  61              	 .cfi_offset 5,-16
  62              	 .cfi_offset 6,-12
  63              	 .cfi_offset 7,-8
  64              	 .cfi_offset 14,-4
  74:C:/Workspace/DAVE-4.4.2-64Bit/optiga-trust-m/examples/optiga\example_optiga_util_update_count.c ****     uint16_t optiga_counter_oid;
  75:C:/Workspace/DAVE-4.4.2-64Bit/optiga-trust-m/examples/optiga\example_optiga_util_update_count.c ****     uint8_t offset;
  76:C:/Workspace/DAVE-4.4.2-64Bit/optiga-trust-m/examples/optiga\example_optiga_util_update_count.c **** 
  77:C:/Workspace/DAVE-4.4.2-64Bit/optiga-trust-m/examples/optiga\example_optiga_util_update_count.c ****     optiga_lib_status_t return_status = 0;
  78:C:/Workspace/DAVE-4.4.2-64Bit/optiga-trust-m/examples/optiga\example_optiga_util_update_count.c ****     optiga_util_t * me = NULL;
  79:C:/Workspace/DAVE-4.4.2-64Bit/optiga-trust-m/examples/optiga\example_optiga_util_update_count.c ****     OPTIGA_EXAMPLE_LOG_MESSAGE(__FUNCTION__);
  65              	 .loc 1 79 0
  66 0002 254D     	 ldr r5,.L32
  67 0004 254F     	 ldr r7,.L32+4
  68 0006 2648     	 ldr r0,.L32+8
  69 0008 291C     	 mov r1,r5
  70 000a 3A1C     	 mov r2,r7
  71 000c FFF7FEFF 	 bl optiga_lib_print_message
  72              	.LVL2:
  80:C:/Workspace/DAVE-4.4.2-64Bit/optiga-trust-m/examples/optiga\example_optiga_util_update_count.c **** 
  81:C:/Workspace/DAVE-4.4.2-64Bit/optiga-trust-m/examples/optiga\example_optiga_util_update_count.c ****     do
  82:C:/Workspace/DAVE-4.4.2-64Bit/optiga-trust-m/examples/optiga\example_optiga_util_update_count.c ****     {
  83:C:/Workspace/DAVE-4.4.2-64Bit/optiga-trust-m/examples/optiga\example_optiga_util_update_count.c ****         /**
  84:C:/Workspace/DAVE-4.4.2-64Bit/optiga-trust-m/examples/optiga\example_optiga_util_update_count.c ****          * 1. Create OPTIGA Util Instance
  85:C:/Workspace/DAVE-4.4.2-64Bit/optiga-trust-m/examples/optiga\example_optiga_util_update_count.c ****          */
  86:C:/Workspace/DAVE-4.4.2-64Bit/optiga-trust-m/examples/optiga\example_optiga_util_update_count.c ****         me = optiga_util_create(0, optiga_util_callback, NULL);
  73              	 .loc 1 86 0
  74 0010 0020     	 mov r0,#0
  75 0012 2449     	 ldr r1,.L32+12
  76 0014 021C     	 mov r2,r0
  77 0016 FFF7FEFF 	 bl optiga_util_create
  78              	.LVL3:
  79 001a 061E     	 sub r6,r0,#0
  80              	.LVL4:
  87:C:/Workspace/DAVE-4.4.2-64Bit/optiga-trust-m/examples/optiga\example_optiga_util_update_count.c ****         if (NULL == me)
  81              	 .loc 1 87 0
  82 001c 2BD0     	 beq .L11
  83              	.LVL5:
  88:C:/Workspace/DAVE-4.4.2-64Bit/optiga-trust-m/examples/optiga\example_optiga_util_update_count.c ****         {
  89:C:/Workspace/DAVE-4.4.2-64Bit/optiga-trust-m/examples/optiga\example_optiga_util_update_count.c ****             break;
  90:C:/Workspace/DAVE-4.4.2-64Bit/optiga-trust-m/examples/optiga\example_optiga_util_update_count.c ****         }
  91:C:/Workspace/DAVE-4.4.2-64Bit/optiga-trust-m/examples/optiga\example_optiga_util_update_count.c **** 
  92:C:/Workspace/DAVE-4.4.2-64Bit/optiga-trust-m/examples/optiga\example_optiga_util_update_count.c ****         /**
  93:C:/Workspace/DAVE-4.4.2-64Bit/optiga-trust-m/examples/optiga\example_optiga_util_update_count.c ****          * Pre-condition
  94:C:/Workspace/DAVE-4.4.2-64Bit/optiga-trust-m/examples/optiga\example_optiga_util_update_count.c ****          * Any data object can be converted to counter data object by changing metadata as mentione
  95:C:/Workspace/DAVE-4.4.2-64Bit/optiga-trust-m/examples/optiga\example_optiga_util_update_count.c ****          * - As precondition  write access should be always or LCSO < OPERATIONAL
  96:C:/Workspace/DAVE-4.4.2-64Bit/optiga-trust-m/examples/optiga\example_optiga_util_update_count.c ****          * - Write metadata as "0xD0, 0x01, 0x01" using #optiga_util_write_metadata
  97:C:/Workspace/DAVE-4.4.2-64Bit/optiga-trust-m/examples/optiga\example_optiga_util_update_count.c ****         */
  98:C:/Workspace/DAVE-4.4.2-64Bit/optiga-trust-m/examples/optiga\example_optiga_util_update_count.c **** 
  99:C:/Workspace/DAVE-4.4.2-64Bit/optiga-trust-m/examples/optiga\example_optiga_util_update_count.c ****         /**
 100:C:/Workspace/DAVE-4.4.2-64Bit/optiga-trust-m/examples/optiga\example_optiga_util_update_count.c ****          * Write default count and threshold value to counter data object (e.g. E120)
 101:C:/Workspace/DAVE-4.4.2-64Bit/optiga-trust-m/examples/optiga\example_optiga_util_update_count.c ****          * using optiga_util_write_data.
 102:C:/Workspace/DAVE-4.4.2-64Bit/optiga-trust-m/examples/optiga\example_optiga_util_update_count.c ****          *
 103:C:/Workspace/DAVE-4.4.2-64Bit/optiga-trust-m/examples/optiga\example_optiga_util_update_count.c ****          * Use Erase and Write (OPTIGA_UTIL_ERASE_AND_WRITE) option,
 104:C:/Workspace/DAVE-4.4.2-64Bit/optiga-trust-m/examples/optiga\example_optiga_util_update_count.c ****          * in order to correctly update the used length of the object.
 105:C:/Workspace/DAVE-4.4.2-64Bit/optiga-trust-m/examples/optiga\example_optiga_util_update_count.c ****          */
 106:C:/Workspace/DAVE-4.4.2-64Bit/optiga-trust-m/examples/optiga\example_optiga_util_update_count.c ****         optiga_counter_oid = 0xE120;
 107:C:/Workspace/DAVE-4.4.2-64Bit/optiga-trust-m/examples/optiga\example_optiga_util_update_count.c ****         offset = 0x00;
 108:C:/Workspace/DAVE-4.4.2-64Bit/optiga-trust-m/examples/optiga\example_optiga_util_update_count.c ****         optiga_lib_status = OPTIGA_LIB_BUSY;
  84              	 .loc 1 108 0
  85 001e 0123     	 mov r3,#1
  86 0020 214C     	 ldr r4,.L32+16
 109:C:/Workspace/DAVE-4.4.2-64Bit/optiga-trust-m/examples/optiga\example_optiga_util_update_count.c ****         return_status = optiga_util_write_data(me,
  87              	 .loc 1 109 0
  88 0022 4022     	 mov r2,#64
 108:C:/Workspace/DAVE-4.4.2-64Bit/optiga-trust-m/examples/optiga\example_optiga_util_update_count.c ****         return_status = optiga_util_write_data(me,
  89              	 .loc 1 108 0
  90 0024 2380     	 strh r3,[r4]
  91              	 .loc 1 109 0
  92 0026 214B     	 ldr r3,.L32+20
  93 0028 2149     	 ldr r1,.L32+24
  94 002a 0093     	 str r3,[sp]
  95 002c 0823     	 mov r3,#8
  96 002e 0193     	 str r3,[sp,#4]
  97 0030 0023     	 mov r3,#0
  98 0032 FFF7FEFF 	 bl optiga_util_write_data
  99              	.LVL6:
 100 0036 021E     	 sub r2,r0,#0
 101              	.LVL7:
 110:C:/Workspace/DAVE-4.4.2-64Bit/optiga-trust-m/examples/optiga\example_optiga_util_update_count.c ****                                                optiga_counter_oid,
 111:C:/Workspace/DAVE-4.4.2-64Bit/optiga-trust-m/examples/optiga\example_optiga_util_update_count.c ****                                                OPTIGA_UTIL_ERASE_AND_WRITE,
 112:C:/Workspace/DAVE-4.4.2-64Bit/optiga-trust-m/examples/optiga\example_optiga_util_update_count.c ****                                                offset,
 113:C:/Workspace/DAVE-4.4.2-64Bit/optiga-trust-m/examples/optiga\example_optiga_util_update_count.c ****                                                initial_counter_object_data,
 114:C:/Workspace/DAVE-4.4.2-64Bit/optiga-trust-m/examples/optiga\example_optiga_util_update_count.c ****                                                sizeof(initial_counter_object_data));
 115:C:/Workspace/DAVE-4.4.2-64Bit/optiga-trust-m/examples/optiga\example_optiga_util_update_count.c **** 
 116:C:/Workspace/DAVE-4.4.2-64Bit/optiga-trust-m/examples/optiga\example_optiga_util_update_count.c ****         if (OPTIGA_LIB_SUCCESS != return_status)
 102              	 .loc 1 116 0
 103 0038 18D1     	 bne .L15
 104              	.L7:
 117:C:/Workspace/DAVE-4.4.2-64Bit/optiga-trust-m/examples/optiga\example_optiga_util_update_count.c ****         {
 118:C:/Workspace/DAVE-4.4.2-64Bit/optiga-trust-m/examples/optiga\example_optiga_util_update_count.c ****             break;
 119:C:/Workspace/DAVE-4.4.2-64Bit/optiga-trust-m/examples/optiga\example_optiga_util_update_count.c ****         }
 120:C:/Workspace/DAVE-4.4.2-64Bit/optiga-trust-m/examples/optiga\example_optiga_util_update_count.c **** 
 121:C:/Workspace/DAVE-4.4.2-64Bit/optiga-trust-m/examples/optiga\example_optiga_util_update_count.c ****         while (OPTIGA_LIB_BUSY == optiga_lib_status)
 105              	 .loc 1 121 0 discriminator 1
 106 003a 2388     	 ldrh r3,[r4]
 107 003c 012B     	 cmp r3,#1
 108 003e FCD0     	 beq .L7
 122:C:/Workspace/DAVE-4.4.2-64Bit/optiga-trust-m/examples/optiga\example_optiga_util_update_count.c ****         {
 123:C:/Workspace/DAVE-4.4.2-64Bit/optiga-trust-m/examples/optiga\example_optiga_util_update_count.c ****             //Wait until the optiga_util_write_data operation is completed
 124:C:/Workspace/DAVE-4.4.2-64Bit/optiga-trust-m/examples/optiga\example_optiga_util_update_count.c ****         }
 125:C:/Workspace/DAVE-4.4.2-64Bit/optiga-trust-m/examples/optiga\example_optiga_util_update_count.c **** 
 126:C:/Workspace/DAVE-4.4.2-64Bit/optiga-trust-m/examples/optiga\example_optiga_util_update_count.c ****         if (OPTIGA_LIB_SUCCESS != optiga_lib_status)
 109              	 .loc 1 126 0
 110 0040 2388     	 ldrh r3,[r4]
 111 0042 002B     	 cmp r3,#0
 112 0044 0ED1     	 bne .L30
 127:C:/Workspace/DAVE-4.4.2-64Bit/optiga-trust-m/examples/optiga\example_optiga_util_update_count.c ****         {
 128:C:/Workspace/DAVE-4.4.2-64Bit/optiga-trust-m/examples/optiga\example_optiga_util_update_count.c ****             //writing data to a data object failed.
 129:C:/Workspace/DAVE-4.4.2-64Bit/optiga-trust-m/examples/optiga\example_optiga_util_update_count.c ****             return_status = optiga_lib_status;
 130:C:/Workspace/DAVE-4.4.2-64Bit/optiga-trust-m/examples/optiga\example_optiga_util_update_count.c ****             break;
 131:C:/Workspace/DAVE-4.4.2-64Bit/optiga-trust-m/examples/optiga\example_optiga_util_update_count.c ****         }
 132:C:/Workspace/DAVE-4.4.2-64Bit/optiga-trust-m/examples/optiga\example_optiga_util_update_count.c **** 
 133:C:/Workspace/DAVE-4.4.2-64Bit/optiga-trust-m/examples/optiga\example_optiga_util_update_count.c ****         // In this example, the counter is update by 5 and the final count would be 15
 134:C:/Workspace/DAVE-4.4.2-64Bit/optiga-trust-m/examples/optiga\example_optiga_util_update_count.c ****         optiga_lib_status = OPTIGA_LIB_BUSY;
 113              	 .loc 1 134 0
 114 0046 0123     	 mov r3,#1
 135:C:/Workspace/DAVE-4.4.2-64Bit/optiga-trust-m/examples/optiga\example_optiga_util_update_count.c ****         return_status = optiga_util_update_count(me,
 115              	 .loc 1 135 0
 116 0048 0522     	 mov r2,#5
 117 004a 301C     	 mov r0,r6
 118              	.LVL8:
 119 004c 1849     	 ldr r1,.L32+24
 134:C:/Workspace/DAVE-4.4.2-64Bit/optiga-trust-m/examples/optiga\example_optiga_util_update_count.c ****         return_status = optiga_util_update_count(me,
 120              	 .loc 1 134 0
 121 004e 2380     	 strh r3,[r4]
 122              	 .loc 1 135 0
 123 0050 FFF7FEFF 	 bl optiga_util_update_count
 124              	.LVL9:
 125 0054 021E     	 sub r2,r0,#0
 126              	.LVL10:
 136:C:/Workspace/DAVE-4.4.2-64Bit/optiga-trust-m/examples/optiga\example_optiga_util_update_count.c ****                                                  optiga_counter_oid,
 137:C:/Workspace/DAVE-4.4.2-64Bit/optiga-trust-m/examples/optiga\example_optiga_util_update_count.c ****                                                  0x05);
 138:C:/Workspace/DAVE-4.4.2-64Bit/optiga-trust-m/examples/optiga\example_optiga_util_update_count.c **** 
 139:C:/Workspace/DAVE-4.4.2-64Bit/optiga-trust-m/examples/optiga\example_optiga_util_update_count.c ****         if (OPTIGA_LIB_SUCCESS != return_status)
 127              	 .loc 1 139 0
 128 0056 09D1     	 bne .L15
 129              	.L10:
 140:C:/Workspace/DAVE-4.4.2-64Bit/optiga-trust-m/examples/optiga\example_optiga_util_update_count.c ****         {
 141:C:/Workspace/DAVE-4.4.2-64Bit/optiga-trust-m/examples/optiga\example_optiga_util_update_count.c ****             break;
 142:C:/Workspace/DAVE-4.4.2-64Bit/optiga-trust-m/examples/optiga\example_optiga_util_update_count.c ****         }
 143:C:/Workspace/DAVE-4.4.2-64Bit/optiga-trust-m/examples/optiga\example_optiga_util_update_count.c **** 
 144:C:/Workspace/DAVE-4.4.2-64Bit/optiga-trust-m/examples/optiga\example_optiga_util_update_count.c ****         while (OPTIGA_LIB_BUSY == optiga_lib_status)
 130              	 .loc 1 144 0 discriminator 1
 131 0058 2388     	 ldrh r3,[r4]
 132 005a 012B     	 cmp r3,#1
 133 005c FCD0     	 beq .L10
 145:C:/Workspace/DAVE-4.4.2-64Bit/optiga-trust-m/examples/optiga\example_optiga_util_update_count.c ****         {
 146:C:/Workspace/DAVE-4.4.2-64Bit/optiga-trust-m/examples/optiga\example_optiga_util_update_count.c ****             //Wait until the optiga_util_update_count operation is completed
 147:C:/Workspace/DAVE-4.4.2-64Bit/optiga-trust-m/examples/optiga\example_optiga_util_update_count.c ****         }
 148:C:/Workspace/DAVE-4.4.2-64Bit/optiga-trust-m/examples/optiga\example_optiga_util_update_count.c **** 
 149:C:/Workspace/DAVE-4.4.2-64Bit/optiga-trust-m/examples/optiga\example_optiga_util_update_count.c ****         if (OPTIGA_LIB_SUCCESS != optiga_lib_status)
 134              	 .loc 1 149 0
 135 005e 2388     	 ldrh r3,[r4]
 136 0060 002B     	 cmp r3,#0
 137 0062 08D0     	 beq .L11
 138              	.LVL11:
 139              	.L30:
 150:C:/Workspace/DAVE-4.4.2-64Bit/optiga-trust-m/examples/optiga\example_optiga_util_update_count.c ****         {
 151:C:/Workspace/DAVE-4.4.2-64Bit/optiga-trust-m/examples/optiga\example_optiga_util_update_count.c ****             //Updating count of a counter data object failed.
 152:C:/Workspace/DAVE-4.4.2-64Bit/optiga-trust-m/examples/optiga\example_optiga_util_update_count.c ****             return_status = optiga_lib_status;
 140              	 .loc 1 152 0
 141 0064 2288     	 ldrh r2,[r4]
 142 0066 92B2     	 uxth r2,r2
 143              	.LVL12:
 153:C:/Workspace/DAVE-4.4.2-64Bit/optiga-trust-m/examples/optiga\example_optiga_util_update_count.c ****             break;
 154:C:/Workspace/DAVE-4.4.2-64Bit/optiga-trust-m/examples/optiga\example_optiga_util_update_count.c ****         }
 155:C:/Workspace/DAVE-4.4.2-64Bit/optiga-trust-m/examples/optiga\example_optiga_util_update_count.c ****         return_status = OPTIGA_LIB_SUCCESS;
 156:C:/Workspace/DAVE-4.4.2-64Bit/optiga-trust-m/examples/optiga\example_optiga_util_update_count.c ****     } while (FALSE);
 157:C:/Workspace/DAVE-4.4.2-64Bit/optiga-trust-m/examples/optiga\example_optiga_util_update_count.c ****     OPTIGA_EXAMPLE_LOG_STATUS(return_status);
 144              	 .loc 1 157 0
 145 0068 002A     	 cmp r2,#0
 146 006a 04D0     	 beq .L11
 147              	.LVL13:
 148              	.L15:
 149              	 .loc 1 157 0 is_stmt 0 discriminator 1
 150 006c 281C     	 mov r0,r5
 151 006e 1149     	 ldr r1,.L32+28
 152 0070 FFF7FEFF 	 bl optiga_lib_print_status
 153              	.LVL14:
 154 0074 06E0     	 b .L12
 155              	.LVL15:
 156              	.L11:
 157              	 .loc 1 157 0 discriminator 2
 158 0076 281C     	 mov r0,r5
 159 0078 391C     	 mov r1,r7
 160 007a 0022     	 mov r2,#0
 161 007c FFF7FEFF 	 bl optiga_lib_print_status
 162              	.LVL16:
 158:C:/Workspace/DAVE-4.4.2-64Bit/optiga-trust-m/examples/optiga\example_optiga_util_update_count.c ****     
 159:C:/Workspace/DAVE-4.4.2-64Bit/optiga-trust-m/examples/optiga\example_optiga_util_update_count.c ****     if (me)
 163              	 .loc 1 159 0 is_stmt 1 discriminator 2
 164 0080 002E     	 cmp r6,#0
 165 0082 08D0     	 beq .L4
 166              	.L12:
 160:C:/Workspace/DAVE-4.4.2-64Bit/optiga-trust-m/examples/optiga\example_optiga_util_update_count.c ****     {
 161:C:/Workspace/DAVE-4.4.2-64Bit/optiga-trust-m/examples/optiga\example_optiga_util_update_count.c ****         //Destroy the instance after the completion of usecase if not required.
 162:C:/Workspace/DAVE-4.4.2-64Bit/optiga-trust-m/examples/optiga\example_optiga_util_update_count.c ****         return_status = optiga_util_destroy(me);
 167              	 .loc 1 162 0
 168 0084 301C     	 mov r0,r6
 169 0086 FFF7FEFF 	 bl optiga_util_destroy
 170              	.LVL17:
 171 008a 021E     	 sub r2,r0,#0
 172              	.LVL18:
 163:C:/Workspace/DAVE-4.4.2-64Bit/optiga-trust-m/examples/optiga\example_optiga_util_update_count.c ****         if(OPTIGA_LIB_SUCCESS != return_status)
 173              	 .loc 1 163 0
 174 008c 03D0     	 beq .L4
 164:C:/Workspace/DAVE-4.4.2-64Bit/optiga-trust-m/examples/optiga\example_optiga_util_update_count.c ****         {
 165:C:/Workspace/DAVE-4.4.2-64Bit/optiga-trust-m/examples/optiga\example_optiga_util_update_count.c ****             //lint --e{774} suppress This is a generic macro
 166:C:/Workspace/DAVE-4.4.2-64Bit/optiga-trust-m/examples/optiga\example_optiga_util_update_count.c ****             OPTIGA_EXAMPLE_LOG_STATUS(return_status);
 175              	 .loc 1 166 0 discriminator 1
 176 008e 281C     	 mov r0,r5
 177              	.LVL19:
 178 0090 0849     	 ldr r1,.L32+28
 179 0092 FFF7FEFF 	 bl optiga_lib_print_status
 180              	.LVL20:
 181              	.L4:
 167:C:/Workspace/DAVE-4.4.2-64Bit/optiga-trust-m/examples/optiga\example_optiga_util_update_count.c ****         }
 168:C:/Workspace/DAVE-4.4.2-64Bit/optiga-trust-m/examples/optiga\example_optiga_util_update_count.c ****     }
 169:C:/Workspace/DAVE-4.4.2-64Bit/optiga-trust-m/examples/optiga\example_optiga_util_update_count.c **** }
 182              	 .loc 1 169 0
 183              	 
 184              	.LVL21:
 185 0096 F7BD     	 pop {r0,r1,r2,r4,r5,r6,r7,pc}
 186              	.L33:
 187              	 .align 2
 188              	.L32:
 189 0098 00000000 	 .word .LC2
 190 009c 15000000 	 .word .LC4
 191 00a0 00000000 	 .word .LANCHOR1
 192 00a4 00000000 	 .word optiga_util_callback
 193 00a8 00000000 	 .word .LANCHOR0
 194 00ac 00000000 	 .word .LANCHOR2
 195 00b0 20E10000 	 .word 57632
 196 00b4 1A000000 	 .word .LC9
 197              	 .cfi_endproc
 198              	.LFE1:
 200              	 .section .data.initial_counter_object_data,"aw",%progbits
 201              	 .set .LANCHOR2,.+0
 204              	initial_counter_object_data:
 205 0000 00       	 .byte 0
 206 0001 00       	 .byte 0
 207 0002 00       	 .byte 0
 208 0003 00       	 .byte 0
 209 0004 00       	 .byte 0
 210 0005 00       	 .byte 0
 211 0006 00       	 .byte 0
 212 0007 0A       	 .byte 10
 213              	 .section .rodata.__FUNCTION__.5918,"a",%progbits
 214              	 .set .LANCHOR1,.+0
 217              	__FUNCTION__.5918:
 218 0000 6578616D 	 .ascii "example_optiga_util_update_count\000"
 218      706C655F 
 218      6F707469 
 218      67615F75 
 218      74696C5F 
 219              	 .section .rodata.str1.1,"aMS",%progbits,1
 220              	.LC2:
 221 0000 5B6F7074 	 .ascii "[optiga example]  : \000"
 221      69676120 
 221      6578616D 
 221      706C655D 
 221      20203A20 
 222              	.LC4:
 223 0015 1B5B306D 	 .ascii "\033[0m\000"
 223      00
 224              	.LC9:
 225 001a 1B5B3331 	 .ascii "\033[31m\000"
 225      6D00
 226              	 .section .bss.optiga_lib_status,"aw",%nobits
 227              	 .align 1
 228              	 .set .LANCHOR0,.+0
 231              	optiga_lib_status:
 232 0000 0000     	 .space 2
 233              	 .text
 234              	.Letext0:
 235              	 .file 2 "c:\\dave_4-4-2_64bit\\dave-ide-4.4.2-64bit\\eclipse\\arm-gcc-49\\arm-none-eabi\\include\\machine\\_default_types.h"
 236              	 .file 3 "c:\\dave_4-4-2_64bit\\dave-ide-4.4.2-64bit\\eclipse\\arm-gcc-49\\arm-none-eabi\\include\\stdint.h"
 237              	 .file 4 "C:/Workspace/DAVE-4.4.2-64Bit/optiga-trust-m/optiga/include/optiga/common/optiga_lib_types.h"
 238              	 .file 5 "C:/Workspace/DAVE-4.4.2-64Bit/optiga-trust-m/optiga/include/optiga/common/optiga_lib_common.h"
 239              	 .file 6 "C:/Workspace/DAVE-4.4.2-64Bit/optiga-trust-m/optiga/include/optiga/cmd/optiga_cmd.h"
 240              	 .file 7 "C:/Workspace/DAVE-4.4.2-64Bit/optiga-trust-m/optiga/include/optiga/optiga_util.h"
 241              	 .file 8 "C:/Workspace/DAVE-4.4.2-64Bit/optiga-trust-m/optiga/include/optiga/common/optiga_lib_logger.h"