   1              	 .cpu cortex-m0
   2              	 .fpu softvfp
   3              	 .eabi_attribute 20,1
   4              	 .eabi_attribute 21,1
   5              	 .eabi_attribute 23,3
   6              	 .eabi_attribute 24,1
   7              	 .eabi_attribute 25,1
   8              	 .eabi_attribute 26,1
   9              	 .eabi_attribute 30,4
  10              	 .eabi_attribute 34,0
  11              	 .eabi_attribute 18,4
  12              	 .code 16
  13              	 .file "example_optiga_crypt_random.c"
  14              	 .text
  15              	.Ltext0:
  16              	 .cfi_sections .debug_frame
  17              	 .section .text.optiga_crypt_callback,"ax",%progbits
  18              	 .align 1
  19              	 .code 16
  20              	 .thumb_func
  22              	optiga_crypt_callback:
  23              	.LFB0:
  24              	 .file 1 "C:/Workspace/DAVE-4.4.2-64Bit/optiga-trust-m/examples/optiga/example_optiga_crypt_random.c"
   1:C:/Workspace/DAVE-4.4.2-64Bit/optiga-trust-m/examples/optiga\example_optiga_crypt_random.c **** /**
   2:C:/Workspace/DAVE-4.4.2-64Bit/optiga-trust-m/examples/optiga\example_optiga_crypt_random.c **** * \copyright
   3:C:/Workspace/DAVE-4.4.2-64Bit/optiga-trust-m/examples/optiga\example_optiga_crypt_random.c **** * MIT License
   4:C:/Workspace/DAVE-4.4.2-64Bit/optiga-trust-m/examples/optiga\example_optiga_crypt_random.c **** *
   5:C:/Workspace/DAVE-4.4.2-64Bit/optiga-trust-m/examples/optiga\example_optiga_crypt_random.c **** * Copyright (c) 2019 Infineon Technologies AG
   6:C:/Workspace/DAVE-4.4.2-64Bit/optiga-trust-m/examples/optiga\example_optiga_crypt_random.c **** *
   7:C:/Workspace/DAVE-4.4.2-64Bit/optiga-trust-m/examples/optiga\example_optiga_crypt_random.c **** * Permission is hereby granted, free of charge, to any person obtaining a copy
   8:C:/Workspace/DAVE-4.4.2-64Bit/optiga-trust-m/examples/optiga\example_optiga_crypt_random.c **** * of this software and associated documentation files (the "Software"), to deal
   9:C:/Workspace/DAVE-4.4.2-64Bit/optiga-trust-m/examples/optiga\example_optiga_crypt_random.c **** * in the Software without restriction, including without limitation the rights
  10:C:/Workspace/DAVE-4.4.2-64Bit/optiga-trust-m/examples/optiga\example_optiga_crypt_random.c **** * to use, copy, modify, merge, publish, distribute, sublicense, and/or sell
  11:C:/Workspace/DAVE-4.4.2-64Bit/optiga-trust-m/examples/optiga\example_optiga_crypt_random.c **** * copies of the Software, and to permit persons to whom the Software is
  12:C:/Workspace/DAVE-4.4.2-64Bit/optiga-trust-m/examples/optiga\example_optiga_crypt_random.c **** * furnished to do so, subject to the following conditions:
  13:C:/Workspace/DAVE-4.4.2-64Bit/optiga-trust-m/examples/optiga\example_optiga_crypt_random.c **** *
  14:C:/Workspace/DAVE-4.4.2-64Bit/optiga-trust-m/examples/optiga\example_optiga_crypt_random.c **** * The above copyright notice and this permission notice shall be included in all
  15:C:/Workspace/DAVE-4.4.2-64Bit/optiga-trust-m/examples/optiga\example_optiga_crypt_random.c **** * copies or substantial portions of the Software.
  16:C:/Workspace/DAVE-4.4.2-64Bit/optiga-trust-m/examples/optiga\example_optiga_crypt_random.c **** *
  17:C:/Workspace/DAVE-4.4.2-64Bit/optiga-trust-m/examples/optiga\example_optiga_crypt_random.c **** * THE SOFTWARE IS PROVIDED "AS IS", WITHOUT WARRANTY OF ANY KIND, EXPRESS OR
  18:C:/Workspace/DAVE-4.4.2-64Bit/optiga-trust-m/examples/optiga\example_optiga_crypt_random.c **** * IMPLIED, INCLUDING BUT NOT LIMITED TO THE WARRANTIES OF MERCHANTABILITY,
  19:C:/Workspace/DAVE-4.4.2-64Bit/optiga-trust-m/examples/optiga\example_optiga_crypt_random.c **** * FITNESS FOR A PARTICULAR PURPOSE AND NONINFRINGEMENT. IN NO EVENT SHALL THE
  20:C:/Workspace/DAVE-4.4.2-64Bit/optiga-trust-m/examples/optiga\example_optiga_crypt_random.c **** * AUTHORS OR COPYRIGHT HOLDERS BE LIABLE FOR ANY CLAIM, DAMAGES OR OTHER
  21:C:/Workspace/DAVE-4.4.2-64Bit/optiga-trust-m/examples/optiga\example_optiga_crypt_random.c **** * LIABILITY, WHETHER IN AN ACTION OF CONTRACT, TORT OR OTHERWISE, ARISING FROM,
  22:C:/Workspace/DAVE-4.4.2-64Bit/optiga-trust-m/examples/optiga\example_optiga_crypt_random.c **** * OUT OF OR IN CONNECTION WITH THE SOFTWARE OR THE USE OR OTHER DEALINGS IN THE
  23:C:/Workspace/DAVE-4.4.2-64Bit/optiga-trust-m/examples/optiga\example_optiga_crypt_random.c **** * SOFTWARE
  24:C:/Workspace/DAVE-4.4.2-64Bit/optiga-trust-m/examples/optiga\example_optiga_crypt_random.c **** *
  25:C:/Workspace/DAVE-4.4.2-64Bit/optiga-trust-m/examples/optiga\example_optiga_crypt_random.c **** * \endcopyright
  26:C:/Workspace/DAVE-4.4.2-64Bit/optiga-trust-m/examples/optiga\example_optiga_crypt_random.c **** *
  27:C:/Workspace/DAVE-4.4.2-64Bit/optiga-trust-m/examples/optiga\example_optiga_crypt_random.c **** * \author Infineon Technologies AG
  28:C:/Workspace/DAVE-4.4.2-64Bit/optiga-trust-m/examples/optiga\example_optiga_crypt_random.c **** *
  29:C:/Workspace/DAVE-4.4.2-64Bit/optiga-trust-m/examples/optiga\example_optiga_crypt_random.c **** * \file example_optiga_crypt_random.c
  30:C:/Workspace/DAVE-4.4.2-64Bit/optiga-trust-m/examples/optiga\example_optiga_crypt_random.c **** *
  31:C:/Workspace/DAVE-4.4.2-64Bit/optiga-trust-m/examples/optiga\example_optiga_crypt_random.c **** * \brief   This file provides the example for generation of random using
  32:C:/Workspace/DAVE-4.4.2-64Bit/optiga-trust-m/examples/optiga\example_optiga_crypt_random.c **** *          #optiga_crypt_random.
  33:C:/Workspace/DAVE-4.4.2-64Bit/optiga-trust-m/examples/optiga\example_optiga_crypt_random.c **** *
  34:C:/Workspace/DAVE-4.4.2-64Bit/optiga-trust-m/examples/optiga\example_optiga_crypt_random.c **** * \ingroup grOptigaExamples
  35:C:/Workspace/DAVE-4.4.2-64Bit/optiga-trust-m/examples/optiga\example_optiga_crypt_random.c **** *
  36:C:/Workspace/DAVE-4.4.2-64Bit/optiga-trust-m/examples/optiga\example_optiga_crypt_random.c **** * @{
  37:C:/Workspace/DAVE-4.4.2-64Bit/optiga-trust-m/examples/optiga\example_optiga_crypt_random.c **** */
  38:C:/Workspace/DAVE-4.4.2-64Bit/optiga-trust-m/examples/optiga\example_optiga_crypt_random.c **** 
  39:C:/Workspace/DAVE-4.4.2-64Bit/optiga-trust-m/examples/optiga\example_optiga_crypt_random.c **** #include "optiga/optiga_crypt.h"
  40:C:/Workspace/DAVE-4.4.2-64Bit/optiga-trust-m/examples/optiga\example_optiga_crypt_random.c **** #include "optiga_example.h"
  41:C:/Workspace/DAVE-4.4.2-64Bit/optiga-trust-m/examples/optiga\example_optiga_crypt_random.c **** 
  42:C:/Workspace/DAVE-4.4.2-64Bit/optiga-trust-m/examples/optiga\example_optiga_crypt_random.c **** #ifdef OPTIGA_CRYPT_RANDOM_ENABLED
  43:C:/Workspace/DAVE-4.4.2-64Bit/optiga-trust-m/examples/optiga\example_optiga_crypt_random.c **** 
  44:C:/Workspace/DAVE-4.4.2-64Bit/optiga-trust-m/examples/optiga\example_optiga_crypt_random.c **** /**
  45:C:/Workspace/DAVE-4.4.2-64Bit/optiga-trust-m/examples/optiga\example_optiga_crypt_random.c ****  * Callback when optiga_crypt_xxxx operation is completed asynchronously
  46:C:/Workspace/DAVE-4.4.2-64Bit/optiga-trust-m/examples/optiga\example_optiga_crypt_random.c ****  */
  47:C:/Workspace/DAVE-4.4.2-64Bit/optiga-trust-m/examples/optiga\example_optiga_crypt_random.c **** static volatile optiga_lib_status_t optiga_lib_status;
  48:C:/Workspace/DAVE-4.4.2-64Bit/optiga-trust-m/examples/optiga\example_optiga_crypt_random.c **** //lint --e{818} suppress "argument "context" is not used in the sample provided"
  49:C:/Workspace/DAVE-4.4.2-64Bit/optiga-trust-m/examples/optiga\example_optiga_crypt_random.c **** static void optiga_crypt_callback(void * context, optiga_lib_status_t return_status)
  50:C:/Workspace/DAVE-4.4.2-64Bit/optiga-trust-m/examples/optiga\example_optiga_crypt_random.c **** {
  25              	 .loc 1 50 0
  26              	 .cfi_startproc
  27              	.LVL0:
  51:C:/Workspace/DAVE-4.4.2-64Bit/optiga-trust-m/examples/optiga\example_optiga_crypt_random.c ****     optiga_lib_status = return_status;
  28              	 .loc 1 51 0
  29 0000 014B     	 ldr r3,.L2
  52:C:/Workspace/DAVE-4.4.2-64Bit/optiga-trust-m/examples/optiga\example_optiga_crypt_random.c ****     if (NULL != context)
  53:C:/Workspace/DAVE-4.4.2-64Bit/optiga-trust-m/examples/optiga\example_optiga_crypt_random.c ****     {
  54:C:/Workspace/DAVE-4.4.2-64Bit/optiga-trust-m/examples/optiga\example_optiga_crypt_random.c ****         // callback to upper layer here
  55:C:/Workspace/DAVE-4.4.2-64Bit/optiga-trust-m/examples/optiga\example_optiga_crypt_random.c ****     }
  56:C:/Workspace/DAVE-4.4.2-64Bit/optiga-trust-m/examples/optiga\example_optiga_crypt_random.c **** }
  30              	 .loc 1 56 0
  31              	 
  51:C:/Workspace/DAVE-4.4.2-64Bit/optiga-trust-m/examples/optiga\example_optiga_crypt_random.c ****     optiga_lib_status = return_status;
  32              	 .loc 1 51 0
  33 0002 1980     	 strh r1,[r3]
  34              	 .loc 1 56 0
  35 0004 7047     	 bx lr
  36              	.L3:
  37 0006 C046     	 .align 2
  38              	.L2:
  39 0008 00000000 	 .word .LANCHOR0
  40              	 .cfi_endproc
  41              	.LFE0:
  43              	 .section .text.example_optiga_crypt_random,"ax",%progbits
  44              	 .align 1
  45              	 .global example_optiga_crypt_random
  46              	 .code 16
  47              	 .thumb_func
  49              	example_optiga_crypt_random:
  50              	.LFB1:
  57:C:/Workspace/DAVE-4.4.2-64Bit/optiga-trust-m/examples/optiga\example_optiga_crypt_random.c **** 
  58:C:/Workspace/DAVE-4.4.2-64Bit/optiga-trust-m/examples/optiga\example_optiga_crypt_random.c **** /**
  59:C:/Workspace/DAVE-4.4.2-64Bit/optiga-trust-m/examples/optiga\example_optiga_crypt_random.c ****  * The below example demonstrates the generation of random using OPTIGA.
  60:C:/Workspace/DAVE-4.4.2-64Bit/optiga-trust-m/examples/optiga\example_optiga_crypt_random.c ****  *
  61:C:/Workspace/DAVE-4.4.2-64Bit/optiga-trust-m/examples/optiga\example_optiga_crypt_random.c ****  * Example for #optiga_crypt_random
  62:C:/Workspace/DAVE-4.4.2-64Bit/optiga-trust-m/examples/optiga\example_optiga_crypt_random.c ****  *
  63:C:/Workspace/DAVE-4.4.2-64Bit/optiga-trust-m/examples/optiga\example_optiga_crypt_random.c ****  */
  64:C:/Workspace/DAVE-4.4.2-64Bit/optiga-trust-m/examples/optiga\example_optiga_crypt_random.c **** void example_optiga_crypt_random(void)
  65:C:/Workspace/DAVE-4.4.2-64Bit/optiga-trust-m/examples/optiga\example_optiga_crypt_random.c **** {
  51              	 .loc 1 65 0
  52              	 .cfi_startproc
  53              	.LVL1:
  54 0000 F0B5     	 push {r4,r5,r6,r7,lr}
  55              	.LCFI0:
  56              	 .cfi_def_cfa_offset 20
  57              	 .cfi_offset 4,-20
  58              	 .cfi_offset 5,-16
  59              	 .cfi_offset 6,-12
  60              	 .cfi_offset 7,-8
  61              	 .cfi_offset 14,-4
  66:C:/Workspace/DAVE-4.4.2-64Bit/optiga-trust-m/examples/optiga\example_optiga_crypt_random.c ****     uint8_t random_data_buffer [32];
  67:C:/Workspace/DAVE-4.4.2-64Bit/optiga-trust-m/examples/optiga\example_optiga_crypt_random.c ****     optiga_crypt_t * me = NULL;
  68:C:/Workspace/DAVE-4.4.2-64Bit/optiga-trust-m/examples/optiga\example_optiga_crypt_random.c ****     optiga_lib_status_t return_status = 0;
  69:C:/Workspace/DAVE-4.4.2-64Bit/optiga-trust-m/examples/optiga\example_optiga_crypt_random.c ****     OPTIGA_EXAMPLE_LOG_MESSAGE(__FUNCTION__);
  62              	 .loc 1 69 0
  63 0002 204C     	 ldr r4,.L21
  64 0004 204F     	 ldr r7,.L21+4
  65:C:/Workspace/DAVE-4.4.2-64Bit/optiga-trust-m/examples/optiga\example_optiga_crypt_random.c ****     uint8_t random_data_buffer [32];
  65              	 .loc 1 65 0
  66 0006 89B0     	 sub sp,sp,#36
  67              	.LCFI1:
  68              	 .cfi_def_cfa_offset 56
  69              	 .loc 1 69 0
  70 0008 2048     	 ldr r0,.L21+8
  71 000a 211C     	 mov r1,r4
  72 000c 3A1C     	 mov r2,r7
  73 000e FFF7FEFF 	 bl optiga_lib_print_message
  74              	.LVL2:
  70:C:/Workspace/DAVE-4.4.2-64Bit/optiga-trust-m/examples/optiga\example_optiga_crypt_random.c **** 
  71:C:/Workspace/DAVE-4.4.2-64Bit/optiga-trust-m/examples/optiga\example_optiga_crypt_random.c ****     do
  72:C:/Workspace/DAVE-4.4.2-64Bit/optiga-trust-m/examples/optiga\example_optiga_crypt_random.c ****     {
  73:C:/Workspace/DAVE-4.4.2-64Bit/optiga-trust-m/examples/optiga\example_optiga_crypt_random.c ****         /**
  74:C:/Workspace/DAVE-4.4.2-64Bit/optiga-trust-m/examples/optiga\example_optiga_crypt_random.c ****          * 1. Create OPTIGA Crypt Instance
  75:C:/Workspace/DAVE-4.4.2-64Bit/optiga-trust-m/examples/optiga\example_optiga_crypt_random.c ****          *
  76:C:/Workspace/DAVE-4.4.2-64Bit/optiga-trust-m/examples/optiga\example_optiga_crypt_random.c ****          */
  77:C:/Workspace/DAVE-4.4.2-64Bit/optiga-trust-m/examples/optiga\example_optiga_crypt_random.c ****         me = optiga_crypt_create(0, optiga_crypt_callback, NULL);
  75              	 .loc 1 77 0
  76 0012 0020     	 mov r0,#0
  77 0014 1E49     	 ldr r1,.L21+12
  78 0016 021C     	 mov r2,r0
  79 0018 FFF7FEFF 	 bl optiga_crypt_create
  80              	.LVL3:
  81 001c 061E     	 sub r6,r0,#0
  82              	.LVL4:
  78:C:/Workspace/DAVE-4.4.2-64Bit/optiga-trust-m/examples/optiga\example_optiga_crypt_random.c ****         if (NULL == me)
  83              	 .loc 1 78 0
  84 001e 1FD0     	 beq .L9
  79:C:/Workspace/DAVE-4.4.2-64Bit/optiga-trust-m/examples/optiga\example_optiga_crypt_random.c ****         {
  80:C:/Workspace/DAVE-4.4.2-64Bit/optiga-trust-m/examples/optiga\example_optiga_crypt_random.c ****             break;
  81:C:/Workspace/DAVE-4.4.2-64Bit/optiga-trust-m/examples/optiga\example_optiga_crypt_random.c ****         }
  82:C:/Workspace/DAVE-4.4.2-64Bit/optiga-trust-m/examples/optiga\example_optiga_crypt_random.c **** 
  83:C:/Workspace/DAVE-4.4.2-64Bit/optiga-trust-m/examples/optiga\example_optiga_crypt_random.c ****         /**
  84:C:/Workspace/DAVE-4.4.2-64Bit/optiga-trust-m/examples/optiga\example_optiga_crypt_random.c ****          * 2. Generate Random -
  85:C:/Workspace/DAVE-4.4.2-64Bit/optiga-trust-m/examples/optiga\example_optiga_crypt_random.c ****          *       - Specify the Random type as TRNG
  86:C:/Workspace/DAVE-4.4.2-64Bit/optiga-trust-m/examples/optiga\example_optiga_crypt_random.c ****          */
  87:C:/Workspace/DAVE-4.4.2-64Bit/optiga-trust-m/examples/optiga\example_optiga_crypt_random.c ****         optiga_lib_status = OPTIGA_LIB_BUSY;
  85              	 .loc 1 87 0
  86 0020 0123     	 mov r3,#1
  87 0022 1C4D     	 ldr r5,.L21+16
  88:C:/Workspace/DAVE-4.4.2-64Bit/optiga-trust-m/examples/optiga\example_optiga_crypt_random.c **** 
  89:C:/Workspace/DAVE-4.4.2-64Bit/optiga-trust-m/examples/optiga\example_optiga_crypt_random.c ****         return_status = optiga_crypt_random(me,
  88              	 .loc 1 89 0
  89 0024 6A46     	 mov r2,sp
  87:C:/Workspace/DAVE-4.4.2-64Bit/optiga-trust-m/examples/optiga\example_optiga_crypt_random.c **** 
  90              	 .loc 1 87 0
  91 0026 2B80     	 strh r3,[r5]
  92              	 .loc 1 89 0
  93 0028 0021     	 mov r1,#0
  94 002a 1F33     	 add r3,r3,#31
  95 002c FFF7FEFF 	 bl optiga_crypt_random
  96              	.LVL5:
  97 0030 021E     	 sub r2,r0,#0
  98              	.LVL6:
  90:C:/Workspace/DAVE-4.4.2-64Bit/optiga-trust-m/examples/optiga\example_optiga_crypt_random.c ****                                             OPTIGA_RNG_TYPE_TRNG,
  91:C:/Workspace/DAVE-4.4.2-64Bit/optiga-trust-m/examples/optiga\example_optiga_crypt_random.c ****                                             random_data_buffer,
  92:C:/Workspace/DAVE-4.4.2-64Bit/optiga-trust-m/examples/optiga\example_optiga_crypt_random.c ****                                             sizeof(random_data_buffer));
  93:C:/Workspace/DAVE-4.4.2-64Bit/optiga-trust-m/examples/optiga\example_optiga_crypt_random.c **** 
  94:C:/Workspace/DAVE-4.4.2-64Bit/optiga-trust-m/examples/optiga\example_optiga_crypt_random.c ****         if (OPTIGA_LIB_SUCCESS != return_status)
  99              	 .loc 1 94 0
 100 0032 10D1     	 bne .L6
 101              	.L7:
  95:C:/Workspace/DAVE-4.4.2-64Bit/optiga-trust-m/examples/optiga\example_optiga_crypt_random.c ****         {
  96:C:/Workspace/DAVE-4.4.2-64Bit/optiga-trust-m/examples/optiga\example_optiga_crypt_random.c ****             break;
  97:C:/Workspace/DAVE-4.4.2-64Bit/optiga-trust-m/examples/optiga\example_optiga_crypt_random.c ****         }
  98:C:/Workspace/DAVE-4.4.2-64Bit/optiga-trust-m/examples/optiga\example_optiga_crypt_random.c **** 
  99:C:/Workspace/DAVE-4.4.2-64Bit/optiga-trust-m/examples/optiga\example_optiga_crypt_random.c ****         while (OPTIGA_LIB_BUSY == optiga_lib_status)
 102              	 .loc 1 99 0 discriminator 1
 103 0034 2B88     	 ldrh r3,[r5]
 104 0036 012B     	 cmp r3,#1
 105 0038 FCD0     	 beq .L7
 100:C:/Workspace/DAVE-4.4.2-64Bit/optiga-trust-m/examples/optiga\example_optiga_crypt_random.c ****         {
 101:C:/Workspace/DAVE-4.4.2-64Bit/optiga-trust-m/examples/optiga\example_optiga_crypt_random.c ****             //Wait until the optiga_crypt_random operation is completed
 102:C:/Workspace/DAVE-4.4.2-64Bit/optiga-trust-m/examples/optiga\example_optiga_crypt_random.c ****         }
 103:C:/Workspace/DAVE-4.4.2-64Bit/optiga-trust-m/examples/optiga\example_optiga_crypt_random.c **** 
 104:C:/Workspace/DAVE-4.4.2-64Bit/optiga-trust-m/examples/optiga\example_optiga_crypt_random.c ****         if (OPTIGA_LIB_SUCCESS != optiga_lib_status)
 106              	 .loc 1 104 0
 107 003a 2B88     	 ldrh r3,[r5]
 108 003c 002B     	 cmp r3,#0
 109 003e 04D0     	 beq .L8
 105:C:/Workspace/DAVE-4.4.2-64Bit/optiga-trust-m/examples/optiga\example_optiga_crypt_random.c ****         {
 106:C:/Workspace/DAVE-4.4.2-64Bit/optiga-trust-m/examples/optiga\example_optiga_crypt_random.c ****             return_status = optiga_lib_status;
 110              	 .loc 1 106 0
 111 0040 2A88     	 ldrh r2,[r5]
 112 0042 92B2     	 uxth r2,r2
 113              	.LVL7:
 107:C:/Workspace/DAVE-4.4.2-64Bit/optiga-trust-m/examples/optiga\example_optiga_crypt_random.c ****             break;
 108:C:/Workspace/DAVE-4.4.2-64Bit/optiga-trust-m/examples/optiga\example_optiga_crypt_random.c ****         }
 109:C:/Workspace/DAVE-4.4.2-64Bit/optiga-trust-m/examples/optiga\example_optiga_crypt_random.c ****         return_status = OPTIGA_LIB_SUCCESS;
 110:C:/Workspace/DAVE-4.4.2-64Bit/optiga-trust-m/examples/optiga\example_optiga_crypt_random.c **** 
 111:C:/Workspace/DAVE-4.4.2-64Bit/optiga-trust-m/examples/optiga\example_optiga_crypt_random.c ****         OPTIGA_EXAMPLE_LOG_HEX_DATA(random_data_buffer, sizeof(random_data_buffer));
 112:C:/Workspace/DAVE-4.4.2-64Bit/optiga-trust-m/examples/optiga\example_optiga_crypt_random.c **** 
 113:C:/Workspace/DAVE-4.4.2-64Bit/optiga-trust-m/examples/optiga\example_optiga_crypt_random.c ****     } while (FALSE);
 114:C:/Workspace/DAVE-4.4.2-64Bit/optiga-trust-m/examples/optiga\example_optiga_crypt_random.c ****     OPTIGA_EXAMPLE_LOG_STATUS(return_status);
 114              	 .loc 1 114 0
 115 0044 002A     	 cmp r2,#0
 116 0046 06D1     	 bne .L6
 117 0048 0AE0     	 b .L9
 118              	.LVL8:
 119              	.L8:
 111:C:/Workspace/DAVE-4.4.2-64Bit/optiga-trust-m/examples/optiga\example_optiga_crypt_random.c **** 
 120              	 .loc 1 111 0
 121 004a 6846     	 mov r0,sp
 122 004c 2021     	 mov r1,#32
 123 004e 124A     	 ldr r2,.L21+20
 124 0050 FFF7FEFF 	 bl optiga_lib_print_array_hex_format
 125              	.LVL9:
 126 0054 04E0     	 b .L9
 127              	.LVL10:
 128              	.L6:
 129              	 .loc 1 114 0 discriminator 1
 130 0056 201C     	 mov r0,r4
 131 0058 1049     	 ldr r1,.L21+24
 132 005a FFF7FEFF 	 bl optiga_lib_print_status
 133              	.LVL11:
 134 005e 06E0     	 b .L10
 135              	.L9:
 136              	 .loc 1 114 0 is_stmt 0 discriminator 2
 137 0060 201C     	 mov r0,r4
 138 0062 391C     	 mov r1,r7
 139 0064 0022     	 mov r2,#0
 140 0066 FFF7FEFF 	 bl optiga_lib_print_status
 141              	.LVL12:
 115:C:/Workspace/DAVE-4.4.2-64Bit/optiga-trust-m/examples/optiga\example_optiga_crypt_random.c ****     if (me)
 142              	 .loc 1 115 0 is_stmt 1 discriminator 2
 143 006a 002E     	 cmp r6,#0
 144 006c 08D0     	 beq .L4
 145              	.L10:
 116:C:/Workspace/DAVE-4.4.2-64Bit/optiga-trust-m/examples/optiga\example_optiga_crypt_random.c ****     {
 117:C:/Workspace/DAVE-4.4.2-64Bit/optiga-trust-m/examples/optiga\example_optiga_crypt_random.c ****         //Destroy the instance after the completion of usecase if not required.
 118:C:/Workspace/DAVE-4.4.2-64Bit/optiga-trust-m/examples/optiga\example_optiga_crypt_random.c ****         return_status = optiga_crypt_destroy(me);
 146              	 .loc 1 118 0
 147 006e 301C     	 mov r0,r6
 148 0070 FFF7FEFF 	 bl optiga_crypt_destroy
 149              	.LVL13:
 150 0074 021E     	 sub r2,r0,#0
 151              	.LVL14:
 119:C:/Workspace/DAVE-4.4.2-64Bit/optiga-trust-m/examples/optiga\example_optiga_crypt_random.c ****         if(OPTIGA_LIB_SUCCESS != return_status)
 152              	 .loc 1 119 0
 153 0076 03D0     	 beq .L4
 120:C:/Workspace/DAVE-4.4.2-64Bit/optiga-trust-m/examples/optiga\example_optiga_crypt_random.c ****         {
 121:C:/Workspace/DAVE-4.4.2-64Bit/optiga-trust-m/examples/optiga\example_optiga_crypt_random.c ****             //lint --e{774} suppress This is a generic macro
 122:C:/Workspace/DAVE-4.4.2-64Bit/optiga-trust-m/examples/optiga\example_optiga_crypt_random.c ****             OPTIGA_EXAMPLE_LOG_STATUS(return_status);
 154              	 .loc 1 122 0 discriminator 1
 155 0078 201C     	 mov r0,r4
 156              	.LVL15:
 157 007a 0849     	 ldr r1,.L21+24
 158 007c FFF7FEFF 	 bl optiga_lib_print_status
 159              	.LVL16:
 160              	.L4:
 123:C:/Workspace/DAVE-4.4.2-64Bit/optiga-trust-m/examples/optiga\example_optiga_crypt_random.c ****         }
 124:C:/Workspace/DAVE-4.4.2-64Bit/optiga-trust-m/examples/optiga\example_optiga_crypt_random.c ****     }
 125:C:/Workspace/DAVE-4.4.2-64Bit/optiga-trust-m/examples/optiga\example_optiga_crypt_random.c **** }
 161              	 .loc 1 125 0
 162 0080 09B0     	 add sp,sp,#36
 163              	 
 164              	.LVL17:
 165 0082 F0BD     	 pop {r4,r5,r6,r7,pc}
 166              	.L22:
 167              	 .align 2
 168              	.L21:
 169 0084 00000000 	 .word .LC2
 170 0088 15000000 	 .word .LC4
 171 008c 00000000 	 .word .LANCHOR1
 172 0090 00000000 	 .word optiga_crypt_callback
 173 0094 00000000 	 .word .LANCHOR0
 174 0098 1A000000 	 .word .LC8
 175 009c 20000000 	 .word .LC10
 176              	 .cfi_endproc
 177              	.LFE1:
 179              	 .section .rodata.str1.1,"aMS",%progbits,1
 180              	.LC2:
 181 0000 5B6F7074 	 .ascii "[optiga example]  : \000"
 181      69676120 
 181      6578616D 
 181      706C655D 
 181      20203A20 
 182              	.LC4:
 183 0015 1B5B306D 	 .ascii "\033[0m\000"
 183      00
 184              	.LC8:
 185 001a 1B5B3936 	 .ascii "\033[96m\000"
 185      6D00
 186              	.LC10:
 187 0020 1B5B3331 	 .ascii "\033[31m\000"
 187      6D00
 188              	 .section .rodata.__FUNCTION__.6001,"a",%progbits
 189              	 .set .LANCHOR1,.+0
 192              	__FUNCTION__.6001:
 193 0000 6578616D 	 .ascii "example_optiga_crypt_random\000"
 193      706C655F 
 193      6F707469 
 193      67615F63 
 193      72797074 
 194              	 .section .bss.optiga_lib_status,"aw",%nobits
 195              	 .align 1
 196              	 .set .LANCHOR0,.+0
 199              	optiga_lib_status:
 200 0000 0000     	 .space 2
 201              	 .text
 202              	.Letext0:
 203              	 .file 2 "c:\\dave_4-4-2_64bit\\dave-ide-4.4.2-64bit\\eclipse\\arm-gcc-49\\arm-none-eabi\\include\\machine\\_default_types.h"
 204              	 .file 3 "c:\\dave_4-4-2_64bit\\dave-ide-4.4.2-64bit\\eclipse\\arm-gcc-49\\arm-none-eabi\\include\\stdint.h"
 205              	 .file 4 "C:/Workspace/DAVE-4.4.2-64Bit/optiga-trust-m/optiga/include/optiga/common/optiga_lib_types.h"
 206              	 .file 5 "C:/Workspace/DAVE-4.4.2-64Bit/optiga-trust-m/optiga/include/optiga/common/optiga_lib_common.h"
 207              	 .file 6 "C:/Workspace/DAVE-4.4.2-64Bit/optiga-trust-m/optiga/include/optiga/cmd/optiga_cmd.h"
 208              	 .file 7 "C:/Workspace/DAVE-4.4.2-64Bit/optiga-trust-m/optiga/include/optiga/optiga_crypt.h"
 209              	 .file 8 "C:/Workspace/DAVE-4.4.2-64Bit/optiga-trust-m/optiga/include/optiga/common/optiga_lib_logger.h"