   1              	 .cpu cortex-m0
   2              	 .fpu softvfp
   3              	 .eabi_attribute 20,1
   4              	 .eabi_attribute 21,1
   5              	 .eabi_attribute 23,3
   6              	 .eabi_attribute 24,1
   7              	 .eabi_attribute 25,1
   8              	 .eabi_attribute 26,1
   9              	 .eabi_attribute 30,4
  10              	 .eabi_attribute 34,0
  11              	 .eabi_attribute 18,4
  12              	 .code 16
  13              	 .file "example_optiga_crypt_rsa_encrypt_session.c"
  14              	 .text
  15              	.Ltext0:
  16              	 .cfi_sections .debug_frame
  17              	 .section .text.optiga_crypt_callback,"ax",%progbits
  18              	 .align 1
  19              	 .code 16
  20              	 .thumb_func
  22              	optiga_crypt_callback:
  23              	.LFB0:
  24              	 .file 1 "C:/Workspace/DAVE-4.4.2-64Bit/optiga-trust-m/examples/optiga/example_optiga_crypt_rsa_encrypt_session.c"
   1:C:/Workspace/DAVE-4.4.2-64Bit/optiga-trust-m/examples/optiga\example_optiga_crypt_rsa_encrypt_session.c **** /**
   2:C:/Workspace/DAVE-4.4.2-64Bit/optiga-trust-m/examples/optiga\example_optiga_crypt_rsa_encrypt_session.c **** * \copyright
   3:C:/Workspace/DAVE-4.4.2-64Bit/optiga-trust-m/examples/optiga\example_optiga_crypt_rsa_encrypt_session.c **** * MIT License
   4:C:/Workspace/DAVE-4.4.2-64Bit/optiga-trust-m/examples/optiga\example_optiga_crypt_rsa_encrypt_session.c **** *
   5:C:/Workspace/DAVE-4.4.2-64Bit/optiga-trust-m/examples/optiga\example_optiga_crypt_rsa_encrypt_session.c **** * Copyright (c) 2019 Infineon Technologies AG
   6:C:/Workspace/DAVE-4.4.2-64Bit/optiga-trust-m/examples/optiga\example_optiga_crypt_rsa_encrypt_session.c **** *
   7:C:/Workspace/DAVE-4.4.2-64Bit/optiga-trust-m/examples/optiga\example_optiga_crypt_rsa_encrypt_session.c **** * Permission is hereby granted, free of charge, to any person obtaining a copy
   8:C:/Workspace/DAVE-4.4.2-64Bit/optiga-trust-m/examples/optiga\example_optiga_crypt_rsa_encrypt_session.c **** * of this software and associated documentation files (the "Software"), to deal
   9:C:/Workspace/DAVE-4.4.2-64Bit/optiga-trust-m/examples/optiga\example_optiga_crypt_rsa_encrypt_session.c **** * in the Software without restriction, including without limitation the rights
  10:C:/Workspace/DAVE-4.4.2-64Bit/optiga-trust-m/examples/optiga\example_optiga_crypt_rsa_encrypt_session.c **** * to use, copy, modify, merge, publish, distribute, sublicense, and/or sell
  11:C:/Workspace/DAVE-4.4.2-64Bit/optiga-trust-m/examples/optiga\example_optiga_crypt_rsa_encrypt_session.c **** * copies of the Software, and to permit persons to whom the Software is
  12:C:/Workspace/DAVE-4.4.2-64Bit/optiga-trust-m/examples/optiga\example_optiga_crypt_rsa_encrypt_session.c **** * furnished to do so, subject to the following conditions:
  13:C:/Workspace/DAVE-4.4.2-64Bit/optiga-trust-m/examples/optiga\example_optiga_crypt_rsa_encrypt_session.c **** *
  14:C:/Workspace/DAVE-4.4.2-64Bit/optiga-trust-m/examples/optiga\example_optiga_crypt_rsa_encrypt_session.c **** * The above copyright notice and this permission notice shall be included in all
  15:C:/Workspace/DAVE-4.4.2-64Bit/optiga-trust-m/examples/optiga\example_optiga_crypt_rsa_encrypt_session.c **** * copies or substantial portions of the Software.
  16:C:/Workspace/DAVE-4.4.2-64Bit/optiga-trust-m/examples/optiga\example_optiga_crypt_rsa_encrypt_session.c **** *
  17:C:/Workspace/DAVE-4.4.2-64Bit/optiga-trust-m/examples/optiga\example_optiga_crypt_rsa_encrypt_session.c **** * THE SOFTWARE IS PROVIDED "AS IS", WITHOUT WARRANTY OF ANY KIND, EXPRESS OR
  18:C:/Workspace/DAVE-4.4.2-64Bit/optiga-trust-m/examples/optiga\example_optiga_crypt_rsa_encrypt_session.c **** * IMPLIED, INCLUDING BUT NOT LIMITED TO THE WARRANTIES OF MERCHANTABILITY,
  19:C:/Workspace/DAVE-4.4.2-64Bit/optiga-trust-m/examples/optiga\example_optiga_crypt_rsa_encrypt_session.c **** * FITNESS FOR A PARTICULAR PURPOSE AND NONINFRINGEMENT. IN NO EVENT SHALL THE
  20:C:/Workspace/DAVE-4.4.2-64Bit/optiga-trust-m/examples/optiga\example_optiga_crypt_rsa_encrypt_session.c **** * AUTHORS OR COPYRIGHT HOLDERS BE LIABLE FOR ANY CLAIM, DAMAGES OR OTHER
  21:C:/Workspace/DAVE-4.4.2-64Bit/optiga-trust-m/examples/optiga\example_optiga_crypt_rsa_encrypt_session.c **** * LIABILITY, WHETHER IN AN ACTION OF CONTRACT, TORT OR OTHERWISE, ARISING FROM,
  22:C:/Workspace/DAVE-4.4.2-64Bit/optiga-trust-m/examples/optiga\example_optiga_crypt_rsa_encrypt_session.c **** * OUT OF OR IN CONNECTION WITH THE SOFTWARE OR THE USE OR OTHER DEALINGS IN THE
  23:C:/Workspace/DAVE-4.4.2-64Bit/optiga-trust-m/examples/optiga\example_optiga_crypt_rsa_encrypt_session.c **** * SOFTWARE
  24:C:/Workspace/DAVE-4.4.2-64Bit/optiga-trust-m/examples/optiga\example_optiga_crypt_rsa_encrypt_session.c **** *
  25:C:/Workspace/DAVE-4.4.2-64Bit/optiga-trust-m/examples/optiga\example_optiga_crypt_rsa_encrypt_session.c **** * \endcopyright
  26:C:/Workspace/DAVE-4.4.2-64Bit/optiga-trust-m/examples/optiga\example_optiga_crypt_rsa_encrypt_session.c **** *
  27:C:/Workspace/DAVE-4.4.2-64Bit/optiga-trust-m/examples/optiga\example_optiga_crypt_rsa_encrypt_session.c **** * \author Infineon Technologies AG
  28:C:/Workspace/DAVE-4.4.2-64Bit/optiga-trust-m/examples/optiga\example_optiga_crypt_rsa_encrypt_session.c **** *
  29:C:/Workspace/DAVE-4.4.2-64Bit/optiga-trust-m/examples/optiga\example_optiga_crypt_rsa_encrypt_session.c **** * \file example_optiga_crypt_rsa_encrypt_session.c
  30:C:/Workspace/DAVE-4.4.2-64Bit/optiga-trust-m/examples/optiga\example_optiga_crypt_rsa_encrypt_session.c **** *
  31:C:/Workspace/DAVE-4.4.2-64Bit/optiga-trust-m/examples/optiga\example_optiga_crypt_rsa_encrypt_session.c **** * \brief    This file provides the example for RSA Encryption using #optiga_crypt_rsa_encrypt_sessi
  32:C:/Workspace/DAVE-4.4.2-64Bit/optiga-trust-m/examples/optiga\example_optiga_crypt_rsa_encrypt_session.c **** *
  33:C:/Workspace/DAVE-4.4.2-64Bit/optiga-trust-m/examples/optiga\example_optiga_crypt_rsa_encrypt_session.c **** * \ingroup grOptigaExamples
  34:C:/Workspace/DAVE-4.4.2-64Bit/optiga-trust-m/examples/optiga\example_optiga_crypt_rsa_encrypt_session.c **** *
  35:C:/Workspace/DAVE-4.4.2-64Bit/optiga-trust-m/examples/optiga\example_optiga_crypt_rsa_encrypt_session.c **** * @{
  36:C:/Workspace/DAVE-4.4.2-64Bit/optiga-trust-m/examples/optiga\example_optiga_crypt_rsa_encrypt_session.c **** */
  37:C:/Workspace/DAVE-4.4.2-64Bit/optiga-trust-m/examples/optiga\example_optiga_crypt_rsa_encrypt_session.c **** 
  38:C:/Workspace/DAVE-4.4.2-64Bit/optiga-trust-m/examples/optiga\example_optiga_crypt_rsa_encrypt_session.c **** #include "optiga/optiga_crypt.h"
  39:C:/Workspace/DAVE-4.4.2-64Bit/optiga-trust-m/examples/optiga\example_optiga_crypt_rsa_encrypt_session.c **** #include "optiga_example.h"
  40:C:/Workspace/DAVE-4.4.2-64Bit/optiga-trust-m/examples/optiga\example_optiga_crypt_rsa_encrypt_session.c **** 
  41:C:/Workspace/DAVE-4.4.2-64Bit/optiga-trust-m/examples/optiga\example_optiga_crypt_rsa_encrypt_session.c **** #ifdef OPTIGA_CRYPT_RSA_ENCRYPT_ENABLED
  42:C:/Workspace/DAVE-4.4.2-64Bit/optiga-trust-m/examples/optiga\example_optiga_crypt_rsa_encrypt_session.c **** 
  43:C:/Workspace/DAVE-4.4.2-64Bit/optiga-trust-m/examples/optiga\example_optiga_crypt_rsa_encrypt_session.c **** /**
  44:C:/Workspace/DAVE-4.4.2-64Bit/optiga-trust-m/examples/optiga\example_optiga_crypt_rsa_encrypt_session.c ****  * Callback when optiga_crypt_xxxx operation is completed asynchronously
  45:C:/Workspace/DAVE-4.4.2-64Bit/optiga-trust-m/examples/optiga\example_optiga_crypt_rsa_encrypt_session.c ****  */
  46:C:/Workspace/DAVE-4.4.2-64Bit/optiga-trust-m/examples/optiga\example_optiga_crypt_rsa_encrypt_session.c **** static volatile optiga_lib_status_t optiga_lib_status;
  47:C:/Workspace/DAVE-4.4.2-64Bit/optiga-trust-m/examples/optiga\example_optiga_crypt_rsa_encrypt_session.c **** //lint --e{818} suppress "argument "context" is not used in the sample provided"
  48:C:/Workspace/DAVE-4.4.2-64Bit/optiga-trust-m/examples/optiga\example_optiga_crypt_rsa_encrypt_session.c **** static void optiga_crypt_callback(void * context, optiga_lib_status_t return_status)
  49:C:/Workspace/DAVE-4.4.2-64Bit/optiga-trust-m/examples/optiga\example_optiga_crypt_rsa_encrypt_session.c **** {
  25              	 .loc 1 49 0
  26              	 .cfi_startproc
  27              	.LVL0:
  50:C:/Workspace/DAVE-4.4.2-64Bit/optiga-trust-m/examples/optiga\example_optiga_crypt_rsa_encrypt_session.c ****     optiga_lib_status = return_status;
  28              	 .loc 1 50 0
  29 0000 014B     	 ldr r3,.L2
  51:C:/Workspace/DAVE-4.4.2-64Bit/optiga-trust-m/examples/optiga\example_optiga_crypt_rsa_encrypt_session.c ****     if (NULL != context)
  52:C:/Workspace/DAVE-4.4.2-64Bit/optiga-trust-m/examples/optiga\example_optiga_crypt_rsa_encrypt_session.c ****     {
  53:C:/Workspace/DAVE-4.4.2-64Bit/optiga-trust-m/examples/optiga\example_optiga_crypt_rsa_encrypt_session.c ****         // callback to upper layer here
  54:C:/Workspace/DAVE-4.4.2-64Bit/optiga-trust-m/examples/optiga\example_optiga_crypt_rsa_encrypt_session.c ****     }
  55:C:/Workspace/DAVE-4.4.2-64Bit/optiga-trust-m/examples/optiga\example_optiga_crypt_rsa_encrypt_session.c **** }
  30              	 .loc 1 55 0
  31              	 
  50:C:/Workspace/DAVE-4.4.2-64Bit/optiga-trust-m/examples/optiga\example_optiga_crypt_rsa_encrypt_session.c ****     optiga_lib_status = return_status;
  32              	 .loc 1 50 0
  33 0002 1980     	 strh r1,[r3]
  34              	 .loc 1 55 0
  35 0004 7047     	 bx lr
  36              	.L3:
  37 0006 C046     	 .align 2
  38              	.L2:
  39 0008 00000000 	 .word .LANCHOR0
  40              	 .cfi_endproc
  41              	.LFE0:
  43              	 .section .text.example_optiga_crypt_rsa_encrypt_session,"ax",%progbits
  44              	 .align 1
  45              	 .global example_optiga_crypt_rsa_encrypt_session
  46              	 .code 16
  47              	 .thumb_func
  49              	example_optiga_crypt_rsa_encrypt_session:
  50              	.LFB1:
  56:C:/Workspace/DAVE-4.4.2-64Bit/optiga-trust-m/examples/optiga\example_optiga_crypt_rsa_encrypt_session.c **** 
  57:C:/Workspace/DAVE-4.4.2-64Bit/optiga-trust-m/examples/optiga\example_optiga_crypt_rsa_encrypt_session.c **** 
  58:C:/Workspace/DAVE-4.4.2-64Bit/optiga-trust-m/examples/optiga\example_optiga_crypt_rsa_encrypt_session.c **** /**
  59:C:/Workspace/DAVE-4.4.2-64Bit/optiga-trust-m/examples/optiga\example_optiga_crypt_rsa_encrypt_session.c ****  * The below example demonstrates RSA encryption
  60:C:/Workspace/DAVE-4.4.2-64Bit/optiga-trust-m/examples/optiga\example_optiga_crypt_rsa_encrypt_session.c ****  * #optiga_crypt_rsa_encrypt_session where session data is encrypted
  61:C:/Workspace/DAVE-4.4.2-64Bit/optiga-trust-m/examples/optiga\example_optiga_crypt_rsa_encrypt_session.c ****  *
  62:C:/Workspace/DAVE-4.4.2-64Bit/optiga-trust-m/examples/optiga\example_optiga_crypt_rsa_encrypt_session.c ****  */
  63:C:/Workspace/DAVE-4.4.2-64Bit/optiga-trust-m/examples/optiga\example_optiga_crypt_rsa_encrypt_session.c **** void example_optiga_crypt_rsa_encrypt_session(void)
  64:C:/Workspace/DAVE-4.4.2-64Bit/optiga-trust-m/examples/optiga\example_optiga_crypt_rsa_encrypt_session.c **** {
  51              	 .loc 1 64 0
  52              	 .cfi_startproc
  53              	.LVL1:
  54 0000 F0B5     	 push {r4,r5,r6,r7,lr}
  55              	.LCFI0:
  56              	 .cfi_def_cfa_offset 20
  57              	 .cfi_offset 4,-20
  58              	 .cfi_offset 5,-16
  59              	 .cfi_offset 6,-12
  60              	 .cfi_offset 7,-8
  61              	 .cfi_offset 14,-4
  62 0002 CFB0     	 sub sp,sp,#316
  63              	.LCFI1:
  64              	 .cfi_def_cfa_offset 336
  65:C:/Workspace/DAVE-4.4.2-64Bit/optiga-trust-m/examples/optiga\example_optiga_crypt_rsa_encrypt_session.c ****     optiga_lib_status_t return_status = 0;
  66:C:/Workspace/DAVE-4.4.2-64Bit/optiga-trust-m/examples/optiga\example_optiga_crypt_rsa_encrypt_session.c ****     optiga_key_id_t optiga_key_id;
  67:C:/Workspace/DAVE-4.4.2-64Bit/optiga-trust-m/examples/optiga\example_optiga_crypt_rsa_encrypt_session.c ****     optiga_rsa_encryption_scheme_t encryption_scheme;
  68:C:/Workspace/DAVE-4.4.2-64Bit/optiga-trust-m/examples/optiga\example_optiga_crypt_rsa_encrypt_session.c **** 
  69:C:/Workspace/DAVE-4.4.2-64Bit/optiga-trust-m/examples/optiga\example_optiga_crypt_rsa_encrypt_session.c ****     uint8_t public_key [150];
  70:C:/Workspace/DAVE-4.4.2-64Bit/optiga-trust-m/examples/optiga\example_optiga_crypt_rsa_encrypt_session.c ****     uint8_t encrypted_message[128];
  71:C:/Workspace/DAVE-4.4.2-64Bit/optiga-trust-m/examples/optiga\example_optiga_crypt_rsa_encrypt_session.c ****     uint16_t encrypted_message_length = sizeof(encrypted_message);
  65              	 .loc 1 71 0
  66 0004 6A46     	 mov r2,sp
  67 0006 8023     	 mov r3,#128
  68 0008 9382     	 strh r3,[r2,#20]
  72:C:/Workspace/DAVE-4.4.2-64Bit/optiga-trust-m/examples/optiga\example_optiga_crypt_rsa_encrypt_session.c ****     uint16_t public_key_length = sizeof(public_key);
  69              	 .loc 1 72 0
  70 000a 1633     	 add r3,r3,#22
  71 000c D382     	 strh r3,[r2,#22]
  73:C:/Workspace/DAVE-4.4.2-64Bit/optiga-trust-m/examples/optiga\example_optiga_crypt_rsa_encrypt_session.c ****     public_key_from_host_t public_key_from_host;
  74:C:/Workspace/DAVE-4.4.2-64Bit/optiga-trust-m/examples/optiga\example_optiga_crypt_rsa_encrypt_session.c ****     const uint8_t optional_data[2] = {0x01, 0x02};
  72              	 .loc 1 74 0
  73 000e 4149     	 ldr r1,.L36
  74 0010 0222     	 mov r2,#2
  75 0012 04A8     	 add r0,sp,#16
  76 0014 FFF7FEFF 	 bl memcpy
  77              	.LVL2:
  75:C:/Workspace/DAVE-4.4.2-64Bit/optiga-trust-m/examples/optiga\example_optiga_crypt_rsa_encrypt_session.c ****     uint16_t optional_data_length = sizeof(optional_data);
  76:C:/Workspace/DAVE-4.4.2-64Bit/optiga-trust-m/examples/optiga\example_optiga_crypt_rsa_encrypt_session.c **** 
  77:C:/Workspace/DAVE-4.4.2-64Bit/optiga-trust-m/examples/optiga\example_optiga_crypt_rsa_encrypt_session.c ****     optiga_crypt_t * me = NULL;
  78:C:/Workspace/DAVE-4.4.2-64Bit/optiga-trust-m/examples/optiga\example_optiga_crypt_rsa_encrypt_session.c ****     OPTIGA_EXAMPLE_LOG_MESSAGE(__FUNCTION__);
  78              	 .loc 1 78 0
  79 0018 3F4E     	 ldr r6,.L36+4
  80 001a 4048     	 ldr r0,.L36+8
  81 001c 311C     	 mov r1,r6
  82 001e 404A     	 ldr r2,.L36+12
  83 0020 FFF7FEFF 	 bl optiga_lib_print_message
  84              	.LVL3:
  79:C:/Workspace/DAVE-4.4.2-64Bit/optiga-trust-m/examples/optiga\example_optiga_crypt_rsa_encrypt_session.c **** 
  80:C:/Workspace/DAVE-4.4.2-64Bit/optiga-trust-m/examples/optiga\example_optiga_crypt_rsa_encrypt_session.c ****     do
  81:C:/Workspace/DAVE-4.4.2-64Bit/optiga-trust-m/examples/optiga\example_optiga_crypt_rsa_encrypt_session.c ****     {
  82:C:/Workspace/DAVE-4.4.2-64Bit/optiga-trust-m/examples/optiga\example_optiga_crypt_rsa_encrypt_session.c ****         /**
  83:C:/Workspace/DAVE-4.4.2-64Bit/optiga-trust-m/examples/optiga\example_optiga_crypt_rsa_encrypt_session.c ****          * 1. Create OPTIGA Crypt Instance
  84:C:/Workspace/DAVE-4.4.2-64Bit/optiga-trust-m/examples/optiga\example_optiga_crypt_rsa_encrypt_session.c ****          *
  85:C:/Workspace/DAVE-4.4.2-64Bit/optiga-trust-m/examples/optiga\example_optiga_crypt_rsa_encrypt_session.c ****          */
  86:C:/Workspace/DAVE-4.4.2-64Bit/optiga-trust-m/examples/optiga\example_optiga_crypt_rsa_encrypt_session.c ****         me = optiga_crypt_create(0, optiga_crypt_callback, NULL);
  85              	 .loc 1 86 0
  86 0024 0020     	 mov r0,#0
  87 0026 3F49     	 ldr r1,.L36+16
  88 0028 021C     	 mov r2,r0
  89 002a FFF7FEFF 	 bl optiga_crypt_create
  90              	.LVL4:
  91 002e 041E     	 sub r4,r0,#0
  92              	.LVL5:
  87:C:/Workspace/DAVE-4.4.2-64Bit/optiga-trust-m/examples/optiga\example_optiga_crypt_rsa_encrypt_session.c ****         if (NULL == me)
  93              	 .loc 1 87 0
  94 0030 5ED0     	 beq .L13
  88:C:/Workspace/DAVE-4.4.2-64Bit/optiga-trust-m/examples/optiga\example_optiga_crypt_rsa_encrypt_session.c ****         {
  89:C:/Workspace/DAVE-4.4.2-64Bit/optiga-trust-m/examples/optiga\example_optiga_crypt_rsa_encrypt_session.c ****             break;
  90:C:/Workspace/DAVE-4.4.2-64Bit/optiga-trust-m/examples/optiga\example_optiga_crypt_rsa_encrypt_session.c ****         }
  91:C:/Workspace/DAVE-4.4.2-64Bit/optiga-trust-m/examples/optiga\example_optiga_crypt_rsa_encrypt_session.c **** 
  92:C:/Workspace/DAVE-4.4.2-64Bit/optiga-trust-m/examples/optiga\example_optiga_crypt_rsa_encrypt_session.c ****         /**
  93:C:/Workspace/DAVE-4.4.2-64Bit/optiga-trust-m/examples/optiga\example_optiga_crypt_rsa_encrypt_session.c ****          * 2. Generate 1024 bit RSA Key pair
  94:C:/Workspace/DAVE-4.4.2-64Bit/optiga-trust-m/examples/optiga\example_optiga_crypt_rsa_encrypt_session.c ****          */
  95:C:/Workspace/DAVE-4.4.2-64Bit/optiga-trust-m/examples/optiga\example_optiga_crypt_rsa_encrypt_session.c ****         optiga_lib_status = OPTIGA_LIB_BUSY;
  96:C:/Workspace/DAVE-4.4.2-64Bit/optiga-trust-m/examples/optiga\example_optiga_crypt_rsa_encrypt_session.c ****         optiga_key_id = OPTIGA_KEY_ID_E0FC;
  95              	 .loc 1 96 0
  96 0032 1227     	 mov r7,#18
  95:C:/Workspace/DAVE-4.4.2-64Bit/optiga-trust-m/examples/optiga\example_optiga_crypt_rsa_encrypt_session.c ****         optiga_key_id = OPTIGA_KEY_ID_E0FC;
  97              	 .loc 1 95 0
  98 0034 0121     	 mov r1,#1
  99              	 .loc 1 96 0
 100 0036 3C4B     	 ldr r3,.L36+20
  95:C:/Workspace/DAVE-4.4.2-64Bit/optiga-trust-m/examples/optiga\example_optiga_crypt_rsa_encrypt_session.c ****         optiga_key_id = OPTIGA_KEY_ID_E0FC;
 101              	 .loc 1 95 0
 102 0038 3C4D     	 ldr r5,.L36+24
 103              	 .loc 1 96 0
 104 003a 6F44     	 add r7,r7,sp
  97:C:/Workspace/DAVE-4.4.2-64Bit/optiga-trust-m/examples/optiga\example_optiga_crypt_rsa_encrypt_session.c ****         OPTIGA_CRYPT_SET_COMMS_PROTECTION_LEVEL(me, OPTIGA_COMMS_NO_PROTECTION);
 105              	 .loc 1 97 0
 106 003c 0022     	 mov r2,#0
  95:C:/Workspace/DAVE-4.4.2-64Bit/optiga-trust-m/examples/optiga\example_optiga_crypt_rsa_encrypt_session.c ****         optiga_key_id = OPTIGA_KEY_ID_E0FC;
 107              	 .loc 1 95 0
 108 003e 2980     	 strh r1,[r5]
  96:C:/Workspace/DAVE-4.4.2-64Bit/optiga-trust-m/examples/optiga\example_optiga_crypt_rsa_encrypt_session.c ****         OPTIGA_CRYPT_SET_COMMS_PROTECTION_LEVEL(me, OPTIGA_COMMS_NO_PROTECTION);
 109              	 .loc 1 96 0
 110 0040 3B80     	 strh r3,[r7]
 111              	 .loc 1 97 0
 112 0042 FFF7FEFF 	 bl optiga_crypt_set_comms_params
 113              	.LVL6:
  98:C:/Workspace/DAVE-4.4.2-64Bit/optiga-trust-m/examples/optiga\example_optiga_crypt_rsa_encrypt_session.c ****         return_status = optiga_crypt_rsa_generate_keypair(me,
 114              	 .loc 1 98 0
 115 0046 28AB     	 add r3,sp,#160
 116 0048 0193     	 str r3,[sp,#4]
 117 004a 1623     	 mov r3,#22
 118 004c 6B44     	 add r3,r3,sp
 119 004e 0293     	 str r3,[sp,#8]
 120 0050 1022     	 mov r2,#16
 121 0052 0097     	 str r7,[sp]
 122 0054 201C     	 mov r0,r4
 123 0056 4121     	 mov r1,#65
 124 0058 0023     	 mov r3,#0
 125 005a FFF7FEFF 	 bl optiga_crypt_rsa_generate_keypair
 126              	.LVL7:
 127 005e 021E     	 sub r2,r0,#0
 128              	.LVL8:
  99:C:/Workspace/DAVE-4.4.2-64Bit/optiga-trust-m/examples/optiga\example_optiga_crypt_rsa_encrypt_session.c ****                                                           OPTIGA_RSA_KEY_1024_BIT_EXPONENTIAL,
 100:C:/Workspace/DAVE-4.4.2-64Bit/optiga-trust-m/examples/optiga\example_optiga_crypt_rsa_encrypt_session.c ****                                                           (uint8_t)OPTIGA_KEY_USAGE_SIGN,
 101:C:/Workspace/DAVE-4.4.2-64Bit/optiga-trust-m/examples/optiga\example_optiga_crypt_rsa_encrypt_session.c ****                                                           FALSE,
 102:C:/Workspace/DAVE-4.4.2-64Bit/optiga-trust-m/examples/optiga\example_optiga_crypt_rsa_encrypt_session.c ****                                                           &optiga_key_id,
 103:C:/Workspace/DAVE-4.4.2-64Bit/optiga-trust-m/examples/optiga\example_optiga_crypt_rsa_encrypt_session.c ****                                                           public_key,
 104:C:/Workspace/DAVE-4.4.2-64Bit/optiga-trust-m/examples/optiga\example_optiga_crypt_rsa_encrypt_session.c ****                                                           &public_key_length);
 105:C:/Workspace/DAVE-4.4.2-64Bit/optiga-trust-m/examples/optiga\example_optiga_crypt_rsa_encrypt_session.c ****         if (OPTIGA_LIB_SUCCESS != return_status)
 129              	 .loc 1 105 0
 130 0060 41D1     	 bne .L17
 131              	.L7:
 106:C:/Workspace/DAVE-4.4.2-64Bit/optiga-trust-m/examples/optiga\example_optiga_crypt_rsa_encrypt_session.c ****         {
 107:C:/Workspace/DAVE-4.4.2-64Bit/optiga-trust-m/examples/optiga\example_optiga_crypt_rsa_encrypt_session.c ****             break;
 108:C:/Workspace/DAVE-4.4.2-64Bit/optiga-trust-m/examples/optiga\example_optiga_crypt_rsa_encrypt_session.c ****         }
 109:C:/Workspace/DAVE-4.4.2-64Bit/optiga-trust-m/examples/optiga\example_optiga_crypt_rsa_encrypt_session.c **** 
 110:C:/Workspace/DAVE-4.4.2-64Bit/optiga-trust-m/examples/optiga\example_optiga_crypt_rsa_encrypt_session.c ****         while (OPTIGA_LIB_BUSY == optiga_lib_status)
 132              	 .loc 1 110 0 discriminator 1
 133 0062 2B88     	 ldrh r3,[r5]
 134 0064 012B     	 cmp r3,#1
 135 0066 FCD0     	 beq .L7
 111:C:/Workspace/DAVE-4.4.2-64Bit/optiga-trust-m/examples/optiga\example_optiga_crypt_rsa_encrypt_session.c ****         {
 112:C:/Workspace/DAVE-4.4.2-64Bit/optiga-trust-m/examples/optiga\example_optiga_crypt_rsa_encrypt_session.c ****             //Wait until the optiga_crypt_rsa_generate_keypair operation is completed
 113:C:/Workspace/DAVE-4.4.2-64Bit/optiga-trust-m/examples/optiga\example_optiga_crypt_rsa_encrypt_session.c ****         }
 114:C:/Workspace/DAVE-4.4.2-64Bit/optiga-trust-m/examples/optiga\example_optiga_crypt_rsa_encrypt_session.c **** 
 115:C:/Workspace/DAVE-4.4.2-64Bit/optiga-trust-m/examples/optiga\example_optiga_crypt_rsa_encrypt_session.c ****         if (OPTIGA_LIB_SUCCESS != optiga_lib_status)
 136              	 .loc 1 115 0
 137 0068 2B88     	 ldrh r3,[r5]
 138 006a 002B     	 cmp r3,#0
 139 006c 01D0     	 beq .L8
 116:C:/Workspace/DAVE-4.4.2-64Bit/optiga-trust-m/examples/optiga\example_optiga_crypt_rsa_encrypt_session.c ****         {
 117:C:/Workspace/DAVE-4.4.2-64Bit/optiga-trust-m/examples/optiga\example_optiga_crypt_rsa_encrypt_session.c ****             //Key pair generation failed
 118:C:/Workspace/DAVE-4.4.2-64Bit/optiga-trust-m/examples/optiga\example_optiga_crypt_rsa_encrypt_session.c ****             return_status = optiga_lib_status;
 140              	 .loc 1 118 0
 141 006e 2A88     	 ldrh r2,[r5]
 142 0070 36E0     	 b .L33
 143              	.L8:
 119:C:/Workspace/DAVE-4.4.2-64Bit/optiga-trust-m/examples/optiga\example_optiga_crypt_rsa_encrypt_session.c ****             break;
 120:C:/Workspace/DAVE-4.4.2-64Bit/optiga-trust-m/examples/optiga\example_optiga_crypt_rsa_encrypt_session.c ****         }
 121:C:/Workspace/DAVE-4.4.2-64Bit/optiga-trust-m/examples/optiga\example_optiga_crypt_rsa_encrypt_session.c **** 
 122:C:/Workspace/DAVE-4.4.2-64Bit/optiga-trust-m/examples/optiga\example_optiga_crypt_rsa_encrypt_session.c ****         /**
 123:C:/Workspace/DAVE-4.4.2-64Bit/optiga-trust-m/examples/optiga\example_optiga_crypt_rsa_encrypt_session.c ****          * 3. Generate 48 byte RSA Pre master secret in acquired session OID
 124:C:/Workspace/DAVE-4.4.2-64Bit/optiga-trust-m/examples/optiga\example_optiga_crypt_rsa_encrypt_session.c ****          */
 125:C:/Workspace/DAVE-4.4.2-64Bit/optiga-trust-m/examples/optiga\example_optiga_crypt_rsa_encrypt_session.c ****         optiga_lib_status = OPTIGA_LIB_BUSY;
 144              	 .loc 1 125 0
 145 0072 0123     	 mov r3,#1
 126:C:/Workspace/DAVE-4.4.2-64Bit/optiga-trust-m/examples/optiga\example_optiga_crypt_rsa_encrypt_session.c ****         return_status = optiga_crypt_rsa_generate_pre_master_secret(me,
 146              	 .loc 1 126 0
 147 0074 0222     	 mov r2,#2
 125:C:/Workspace/DAVE-4.4.2-64Bit/optiga-trust-m/examples/optiga\example_optiga_crypt_rsa_encrypt_session.c ****         return_status = optiga_crypt_rsa_generate_pre_master_secret(me,
 148              	 .loc 1 125 0
 149 0076 2B80     	 strh r3,[r5]
 150              	 .loc 1 126 0
 151 0078 201C     	 mov r0,r4
 152              	.LVL9:
 153 007a 04A9     	 add r1,sp,#16
 154 007c 2F33     	 add r3,r3,#47
 155 007e FFF7FEFF 	 bl optiga_crypt_rsa_generate_pre_master_secret
 156              	.LVL10:
 157 0082 021E     	 sub r2,r0,#0
 158              	.LVL11:
 127:C:/Workspace/DAVE-4.4.2-64Bit/optiga-trust-m/examples/optiga\example_optiga_crypt_rsa_encrypt_session.c ****                                                                     optional_data,
 128:C:/Workspace/DAVE-4.4.2-64Bit/optiga-trust-m/examples/optiga\example_optiga_crypt_rsa_encrypt_session.c ****                                                                     optional_data_length,
 129:C:/Workspace/DAVE-4.4.2-64Bit/optiga-trust-m/examples/optiga\example_optiga_crypt_rsa_encrypt_session.c ****                                                                     48);
 130:C:/Workspace/DAVE-4.4.2-64Bit/optiga-trust-m/examples/optiga\example_optiga_crypt_rsa_encrypt_session.c **** 
 131:C:/Workspace/DAVE-4.4.2-64Bit/optiga-trust-m/examples/optiga\example_optiga_crypt_rsa_encrypt_session.c ****         if (OPTIGA_LIB_SUCCESS != return_status)
 159              	 .loc 1 131 0
 160 0084 2FD1     	 bne .L17
 161              	.L10:
 132:C:/Workspace/DAVE-4.4.2-64Bit/optiga-trust-m/examples/optiga\example_optiga_crypt_rsa_encrypt_session.c ****         {
 133:C:/Workspace/DAVE-4.4.2-64Bit/optiga-trust-m/examples/optiga\example_optiga_crypt_rsa_encrypt_session.c ****             break;
 134:C:/Workspace/DAVE-4.4.2-64Bit/optiga-trust-m/examples/optiga\example_optiga_crypt_rsa_encrypt_session.c ****         }
 135:C:/Workspace/DAVE-4.4.2-64Bit/optiga-trust-m/examples/optiga\example_optiga_crypt_rsa_encrypt_session.c **** 
 136:C:/Workspace/DAVE-4.4.2-64Bit/optiga-trust-m/examples/optiga\example_optiga_crypt_rsa_encrypt_session.c ****         while (OPTIGA_LIB_BUSY == optiga_lib_status)
 162              	 .loc 1 136 0 discriminator 1
 163 0086 294B     	 ldr r3,.L36+24
 164 0088 1A88     	 ldrh r2,[r3]
 165 008a 012A     	 cmp r2,#1
 166 008c FBD0     	 beq .L10
 137:C:/Workspace/DAVE-4.4.2-64Bit/optiga-trust-m/examples/optiga\example_optiga_crypt_rsa_encrypt_session.c ****         {
 138:C:/Workspace/DAVE-4.4.2-64Bit/optiga-trust-m/examples/optiga\example_optiga_crypt_rsa_encrypt_session.c ****             //Wait until the optiga_crypt_rsa_generate_pre_master_secret operation is completed
 139:C:/Workspace/DAVE-4.4.2-64Bit/optiga-trust-m/examples/optiga\example_optiga_crypt_rsa_encrypt_session.c ****         }
 140:C:/Workspace/DAVE-4.4.2-64Bit/optiga-trust-m/examples/optiga\example_optiga_crypt_rsa_encrypt_session.c **** 
 141:C:/Workspace/DAVE-4.4.2-64Bit/optiga-trust-m/examples/optiga\example_optiga_crypt_rsa_encrypt_session.c ****         if (OPTIGA_LIB_SUCCESS != optiga_lib_status)
 167              	 .loc 1 141 0
 168 008e 1D88     	 ldrh r5,[r3]
 169 0090 ADB2     	 uxth r5,r5
 170 0092 002D     	 cmp r5,#0
 171 0094 23D1     	 bne .L34
 142:C:/Workspace/DAVE-4.4.2-64Bit/optiga-trust-m/examples/optiga\example_optiga_crypt_rsa_encrypt_session.c ****         {
 143:C:/Workspace/DAVE-4.4.2-64Bit/optiga-trust-m/examples/optiga\example_optiga_crypt_rsa_encrypt_session.c ****             return_status = optiga_lib_status;
 144:C:/Workspace/DAVE-4.4.2-64Bit/optiga-trust-m/examples/optiga\example_optiga_crypt_rsa_encrypt_session.c ****             break;
 145:C:/Workspace/DAVE-4.4.2-64Bit/optiga-trust-m/examples/optiga\example_optiga_crypt_rsa_encrypt_session.c ****         }
 146:C:/Workspace/DAVE-4.4.2-64Bit/optiga-trust-m/examples/optiga\example_optiga_crypt_rsa_encrypt_session.c **** 
 147:C:/Workspace/DAVE-4.4.2-64Bit/optiga-trust-m/examples/optiga\example_optiga_crypt_rsa_encrypt_session.c ****         optiga_lib_status = OPTIGA_LIB_BUSY;
 172              	 .loc 1 147 0
 173 0096 0127     	 mov r7,#1
 148:C:/Workspace/DAVE-4.4.2-64Bit/optiga-trust-m/examples/optiga\example_optiga_crypt_rsa_encrypt_session.c **** 
 149:C:/Workspace/DAVE-4.4.2-64Bit/optiga-trust-m/examples/optiga\example_optiga_crypt_rsa_encrypt_session.c ****         /**
 150:C:/Workspace/DAVE-4.4.2-64Bit/optiga-trust-m/examples/optiga\example_optiga_crypt_rsa_encrypt_session.c ****          * 4. Encrypt (RSA) the data in session OID
 151:C:/Workspace/DAVE-4.4.2-64Bit/optiga-trust-m/examples/optiga\example_optiga_crypt_rsa_encrypt_session.c ****          */
 152:C:/Workspace/DAVE-4.4.2-64Bit/optiga-trust-m/examples/optiga\example_optiga_crypt_rsa_encrypt_session.c **** 
 153:C:/Workspace/DAVE-4.4.2-64Bit/optiga-trust-m/examples/optiga\example_optiga_crypt_rsa_encrypt_session.c ****         // OPTIGA Comms Shielded connection settings to enable the protection
 154:C:/Workspace/DAVE-4.4.2-64Bit/optiga-trust-m/examples/optiga\example_optiga_crypt_rsa_encrypt_session.c ****         OPTIGA_CRYPT_SET_COMMS_PROTOCOL_VERSION(me, OPTIGA_COMMS_PROTOCOL_VERSION_PRE_SHARED_SECRET
 174              	 .loc 1 154 0
 175 0098 201C     	 mov r0,r4
 176              	.LVL12:
 177 009a 0221     	 mov r1,#2
 178 009c 3A1C     	 mov r2,r7
 147:C:/Workspace/DAVE-4.4.2-64Bit/optiga-trust-m/examples/optiga\example_optiga_crypt_rsa_encrypt_session.c **** 
 179              	 .loc 1 147 0
 180 009e 1F80     	 strh r7,[r3]
 181              	 .loc 1 154 0
 182 00a0 FFF7FEFF 	 bl optiga_crypt_set_comms_params
 183              	.LVL13:
 155:C:/Workspace/DAVE-4.4.2-64Bit/optiga-trust-m/examples/optiga\example_optiga_crypt_rsa_encrypt_session.c **** 
 156:C:/Workspace/DAVE-4.4.2-64Bit/optiga-trust-m/examples/optiga\example_optiga_crypt_rsa_encrypt_session.c ****         encryption_scheme = OPTIGA_RSAES_PKCS1_V15;
 157:C:/Workspace/DAVE-4.4.2-64Bit/optiga-trust-m/examples/optiga\example_optiga_crypt_rsa_encrypt_session.c ****         public_key_from_host.public_key = public_key;
 184              	 .loc 1 157 0
 185 00a4 28AA     	 add r2,sp,#160
 186 00a6 0692     	 str r2,[sp,#24]
 158:C:/Workspace/DAVE-4.4.2-64Bit/optiga-trust-m/examples/optiga\example_optiga_crypt_rsa_encrypt_session.c ****         public_key_from_host.length = public_key_length;
 187              	 .loc 1 158 0
 188 00a8 6A46     	 mov r2,sp
 189 00aa D28A     	 ldrh r2,[r2,#22]
 157:C:/Workspace/DAVE-4.4.2-64Bit/optiga-trust-m/examples/optiga\example_optiga_crypt_rsa_encrypt_session.c ****         public_key_from_host.length = public_key_length;
 190              	 .loc 1 157 0
 191 00ac 06AB     	 add r3,sp,#24
 192              	 .loc 1 158 0
 193 00ae 9A80     	 strh r2,[r3,#4]
 159:C:/Workspace/DAVE-4.4.2-64Bit/optiga-trust-m/examples/optiga\example_optiga_crypt_rsa_encrypt_session.c ****         public_key_from_host.key_type = (uint8_t)OPTIGA_RSA_KEY_1024_BIT_EXPONENTIAL;
 194              	 .loc 1 159 0
 195 00b0 4122     	 mov r2,#65
 196 00b2 9A71     	 strb r2,[r3,#6]
 160:C:/Workspace/DAVE-4.4.2-64Bit/optiga-trust-m/examples/optiga\example_optiga_crypt_rsa_encrypt_session.c ****         // Default protection level for this API is OPTIGA_COMMS_COMMAND_PROTECTION
 161:C:/Workspace/DAVE-4.4.2-64Bit/optiga-trust-m/examples/optiga\example_optiga_crypt_rsa_encrypt_session.c ****         return_status = optiga_crypt_rsa_encrypt_session(me,
 197              	 .loc 1 161 0
 198 00b4 0193     	 str r3,[sp,#4]
 199 00b6 08AB     	 add r3,sp,#32
 200 00b8 0293     	 str r3,[sp,#8]
 201 00ba 05AB     	 add r3,sp,#20
 202 00bc 0393     	 str r3,[sp,#12]
 203 00be 2A1C     	 mov r2,r5
 204 00c0 0097     	 str r7,[sp]
 205 00c2 201C     	 mov r0,r4
 206 00c4 1121     	 mov r1,#17
 207 00c6 2B1C     	 mov r3,r5
 208 00c8 FFF7FEFF 	 bl optiga_crypt_rsa_encrypt_session
 209              	.LVL14:
 210 00cc 021E     	 sub r2,r0,#0
 211              	.LVL15:
 162:C:/Workspace/DAVE-4.4.2-64Bit/optiga-trust-m/examples/optiga\example_optiga_crypt_rsa_encrypt_session.c ****                                                          encryption_scheme,
 163:C:/Workspace/DAVE-4.4.2-64Bit/optiga-trust-m/examples/optiga\example_optiga_crypt_rsa_encrypt_session.c ****                                                          NULL,
 164:C:/Workspace/DAVE-4.4.2-64Bit/optiga-trust-m/examples/optiga\example_optiga_crypt_rsa_encrypt_session.c ****                                                          0,
 165:C:/Workspace/DAVE-4.4.2-64Bit/optiga-trust-m/examples/optiga\example_optiga_crypt_rsa_encrypt_session.c ****                                                          OPTIGA_CRYPT_HOST_DATA,
 166:C:/Workspace/DAVE-4.4.2-64Bit/optiga-trust-m/examples/optiga\example_optiga_crypt_rsa_encrypt_session.c ****                                                          &public_key_from_host,
 167:C:/Workspace/DAVE-4.4.2-64Bit/optiga-trust-m/examples/optiga\example_optiga_crypt_rsa_encrypt_session.c ****                                                          encrypted_message,
 168:C:/Workspace/DAVE-4.4.2-64Bit/optiga-trust-m/examples/optiga\example_optiga_crypt_rsa_encrypt_session.c ****                                                          &encrypted_message_length);
 169:C:/Workspace/DAVE-4.4.2-64Bit/optiga-trust-m/examples/optiga\example_optiga_crypt_rsa_encrypt_session.c **** 
 170:C:/Workspace/DAVE-4.4.2-64Bit/optiga-trust-m/examples/optiga\example_optiga_crypt_rsa_encrypt_session.c ****         if (OPTIGA_LIB_SUCCESS != return_status)
 212              	 .loc 1 170 0
 213 00ce 0AD1     	 bne .L17
 214              	.L12:
 171:C:/Workspace/DAVE-4.4.2-64Bit/optiga-trust-m/examples/optiga\example_optiga_crypt_rsa_encrypt_session.c ****         {
 172:C:/Workspace/DAVE-4.4.2-64Bit/optiga-trust-m/examples/optiga\example_optiga_crypt_rsa_encrypt_session.c ****             break;
 173:C:/Workspace/DAVE-4.4.2-64Bit/optiga-trust-m/examples/optiga\example_optiga_crypt_rsa_encrypt_session.c ****         }
 174:C:/Workspace/DAVE-4.4.2-64Bit/optiga-trust-m/examples/optiga\example_optiga_crypt_rsa_encrypt_session.c **** 
 175:C:/Workspace/DAVE-4.4.2-64Bit/optiga-trust-m/examples/optiga\example_optiga_crypt_rsa_encrypt_session.c ****         while (OPTIGA_LIB_BUSY == optiga_lib_status)
 215              	 .loc 1 175 0 discriminator 1
 216 00d0 164B     	 ldr r3,.L36+24
 217 00d2 1A88     	 ldrh r2,[r3]
 218 00d4 012A     	 cmp r2,#1
 219 00d6 FBD0     	 beq .L12
 176:C:/Workspace/DAVE-4.4.2-64Bit/optiga-trust-m/examples/optiga\example_optiga_crypt_rsa_encrypt_session.c ****         {
 177:C:/Workspace/DAVE-4.4.2-64Bit/optiga-trust-m/examples/optiga\example_optiga_crypt_rsa_encrypt_session.c ****             //Wait until the optiga_crypt_rsa_encrypt_session operation is completed
 178:C:/Workspace/DAVE-4.4.2-64Bit/optiga-trust-m/examples/optiga\example_optiga_crypt_rsa_encrypt_session.c ****         }
 179:C:/Workspace/DAVE-4.4.2-64Bit/optiga-trust-m/examples/optiga\example_optiga_crypt_rsa_encrypt_session.c **** 
 180:C:/Workspace/DAVE-4.4.2-64Bit/optiga-trust-m/examples/optiga\example_optiga_crypt_rsa_encrypt_session.c ****         if (OPTIGA_LIB_SUCCESS != optiga_lib_status)
 220              	 .loc 1 180 0
 221 00d8 1A88     	 ldrh r2,[r3]
 222 00da 002A     	 cmp r2,#0
 223 00dc 08D0     	 beq .L13
 224              	.LVL16:
 225              	.L34:
 181:C:/Workspace/DAVE-4.4.2-64Bit/optiga-trust-m/examples/optiga\example_optiga_crypt_rsa_encrypt_session.c ****         {
 182:C:/Workspace/DAVE-4.4.2-64Bit/optiga-trust-m/examples/optiga\example_optiga_crypt_rsa_encrypt_session.c ****             //RSA Encryption failed
 183:C:/Workspace/DAVE-4.4.2-64Bit/optiga-trust-m/examples/optiga\example_optiga_crypt_rsa_encrypt_session.c ****             return_status = optiga_lib_status;
 226              	 .loc 1 183 0
 227 00de 1A88     	 ldrh r2,[r3]
 228              	.L33:
 229 00e0 92B2     	 uxth r2,r2
 230              	.LVL17:
 184:C:/Workspace/DAVE-4.4.2-64Bit/optiga-trust-m/examples/optiga\example_optiga_crypt_rsa_encrypt_session.c ****             break;
 185:C:/Workspace/DAVE-4.4.2-64Bit/optiga-trust-m/examples/optiga\example_optiga_crypt_rsa_encrypt_session.c ****         }
 186:C:/Workspace/DAVE-4.4.2-64Bit/optiga-trust-m/examples/optiga\example_optiga_crypt_rsa_encrypt_session.c ****         return_status = OPTIGA_LIB_SUCCESS;
 187:C:/Workspace/DAVE-4.4.2-64Bit/optiga-trust-m/examples/optiga\example_optiga_crypt_rsa_encrypt_session.c **** 
 188:C:/Workspace/DAVE-4.4.2-64Bit/optiga-trust-m/examples/optiga\example_optiga_crypt_rsa_encrypt_session.c ****     } while (FALSE);
 189:C:/Workspace/DAVE-4.4.2-64Bit/optiga-trust-m/examples/optiga\example_optiga_crypt_rsa_encrypt_session.c ****     OPTIGA_EXAMPLE_LOG_STATUS(return_status);
 231              	 .loc 1 189 0
 232 00e2 002A     	 cmp r2,#0
 233 00e4 04D0     	 beq .L13
 234              	.LVL18:
 235              	.L17:
 236              	 .loc 1 189 0 is_stmt 0 discriminator 1
 237 00e6 301C     	 mov r0,r6
 238 00e8 1149     	 ldr r1,.L36+28
 239 00ea FFF7FEFF 	 bl optiga_lib_print_status
 240              	.LVL19:
 241 00ee 06E0     	 b .L14
 242              	.L13:
 243              	 .loc 1 189 0 discriminator 2
 244 00f0 301C     	 mov r0,r6
 245 00f2 0B49     	 ldr r1,.L36+12
 246 00f4 0022     	 mov r2,#0
 247 00f6 FFF7FEFF 	 bl optiga_lib_print_status
 248              	.LVL20:
 190:C:/Workspace/DAVE-4.4.2-64Bit/optiga-trust-m/examples/optiga\example_optiga_crypt_rsa_encrypt_session.c ****     
 191:C:/Workspace/DAVE-4.4.2-64Bit/optiga-trust-m/examples/optiga\example_optiga_crypt_rsa_encrypt_session.c ****     if (me)
 249              	 .loc 1 191 0 is_stmt 1 discriminator 2
 250 00fa 002C     	 cmp r4,#0
 251 00fc 08D0     	 beq .L4
 252              	.L14:
 192:C:/Workspace/DAVE-4.4.2-64Bit/optiga-trust-m/examples/optiga\example_optiga_crypt_rsa_encrypt_session.c ****     {
 193:C:/Workspace/DAVE-4.4.2-64Bit/optiga-trust-m/examples/optiga\example_optiga_crypt_rsa_encrypt_session.c ****         //Destroy the instance after the completion of usecase if not required.
 194:C:/Workspace/DAVE-4.4.2-64Bit/optiga-trust-m/examples/optiga\example_optiga_crypt_rsa_encrypt_session.c ****         return_status = optiga_crypt_destroy(me);
 253              	 .loc 1 194 0
 254 00fe 201C     	 mov r0,r4
 255 0100 FFF7FEFF 	 bl optiga_crypt_destroy
 256              	.LVL21:
 257 0104 021E     	 sub r2,r0,#0
 258              	.LVL22:
 195:C:/Workspace/DAVE-4.4.2-64Bit/optiga-trust-m/examples/optiga\example_optiga_crypt_rsa_encrypt_session.c ****         if(OPTIGA_LIB_SUCCESS != return_status)
 259              	 .loc 1 195 0
 260 0106 03D0     	 beq .L4
 196:C:/Workspace/DAVE-4.4.2-64Bit/optiga-trust-m/examples/optiga\example_optiga_crypt_rsa_encrypt_session.c ****         {
 197:C:/Workspace/DAVE-4.4.2-64Bit/optiga-trust-m/examples/optiga\example_optiga_crypt_rsa_encrypt_session.c ****             //lint --e{774} suppress This is a generic macro
 198:C:/Workspace/DAVE-4.4.2-64Bit/optiga-trust-m/examples/optiga\example_optiga_crypt_rsa_encrypt_session.c ****             OPTIGA_EXAMPLE_LOG_STATUS(return_status);
 261              	 .loc 1 198 0 discriminator 1
 262 0108 301C     	 mov r0,r6
 263              	.LVL23:
 264 010a 0949     	 ldr r1,.L36+28
 265 010c FFF7FEFF 	 bl optiga_lib_print_status
 266              	.LVL24:
 267              	.L4:
 199:C:/Workspace/DAVE-4.4.2-64Bit/optiga-trust-m/examples/optiga\example_optiga_crypt_rsa_encrypt_session.c ****         }
 200:C:/Workspace/DAVE-4.4.2-64Bit/optiga-trust-m/examples/optiga\example_optiga_crypt_rsa_encrypt_session.c ****     }
 201:C:/Workspace/DAVE-4.4.2-64Bit/optiga-trust-m/examples/optiga\example_optiga_crypt_rsa_encrypt_session.c **** }
 268              	 .loc 1 201 0
 269 0110 4FB0     	 add sp,sp,#316
 270              	 
 271              	.LVL25:
 272 0112 F0BD     	 pop {r4,r5,r6,r7,pc}
 273              	.L37:
 274              	 .align 2
 275              	.L36:
 276 0114 00000000 	 .word .LANCHOR1
 277 0118 00000000 	 .word .LC4
 278 011c 00000000 	 .word .LANCHOR2
 279 0120 15000000 	 .word .LC6
 280 0124 00000000 	 .word optiga_crypt_callback
 281 0128 FCE0FFFF 	 .word -7940
 282 012c 00000000 	 .word .LANCHOR0
 283 0130 1A000000 	 .word .LC10
 284              	 .cfi_endproc
 285              	.LFE1:
 287              	 .section .rodata
 288              	 .set .LANCHOR1,.+0
 289              	.LC0:
 290 0000 01       	 .byte 1
 291 0001 02       	 .byte 2
 292              	 .section .rodata.__FUNCTION__.6009,"a",%progbits
 293              	 .set .LANCHOR2,.+0
 296              	__FUNCTION__.6009:
 297 0000 6578616D 	 .ascii "example_optiga_crypt_rsa_encrypt_session\000"
 297      706C655F 
 297      6F707469 
 297      67615F63 
 297      72797074 
 298              	 .section .rodata.str1.1,"aMS",%progbits,1
 299              	.LC4:
 300 0000 5B6F7074 	 .ascii "[optiga example]  : \000"
 300      69676120 
 300      6578616D 
 300      706C655D 
 300      20203A20 
 301              	.LC6:
 302 0015 1B5B306D 	 .ascii "\033[0m\000"
 302      00
 303              	.LC10:
 304 001a 1B5B3331 	 .ascii "\033[31m\000"
 304      6D00
 305              	 .section .bss.optiga_lib_status,"aw",%nobits
 306              	 .align 1
 307              	 .set .LANCHOR0,.+0
 310              	optiga_lib_status:
 311 0000 0000     	 .space 2
 312              	 .text
 313              	.Letext0:
 314              	 .file 2 "c:\\dave_4-4-2_64bit\\dave-ide-4.4.2-64bit\\eclipse\\arm-gcc-49\\arm-none-eabi\\include\\machine\\_default_types.h"
 315              	 .file 3 "c:\\dave_4-4-2_64bit\\dave-ide-4.4.2-64bit\\eclipse\\arm-gcc-49\\arm-none-eabi\\include\\stdint.h"
 316              	 .file 4 "C:/Workspace/DAVE-4.4.2-64Bit/optiga-trust-m/optiga/include/optiga/common/optiga_lib_types.h"
 317              	 .file 5 "C:/Workspace/DAVE-4.4.2-64Bit/optiga-trust-m/optiga/include/optiga/common/optiga_lib_common.h"
 318              	 .file 6 "C:/Workspace/DAVE-4.4.2-64Bit/optiga-trust-m/optiga/include/optiga/cmd/optiga_cmd.h"
 319              	 .file 7 "C:/Workspace/DAVE-4.4.2-64Bit/optiga-trust-m/optiga/include/optiga/optiga_crypt.h"
 320              	 .file 8 "C:/Workspace/DAVE-4.4.2-64Bit/optiga-trust-m/optiga/include/optiga/common/optiga_lib_logger.h"