   1              	 .cpu cortex-m0
   2              	 .fpu softvfp
   3              	 .eabi_attribute 20,1
   4              	 .eabi_attribute 21,1
   5              	 .eabi_attribute 23,3
   6              	 .eabi_attribute 24,1
   7              	 .eabi_attribute 25,1
   8              	 .eabi_attribute 26,1
   9              	 .eabi_attribute 30,4
  10              	 .eabi_attribute 34,0
  11              	 .eabi_attribute 18,4
  12              	 .code 16
  13              	 .file "example_optiga_crypt_rsa_decrypt.c"
  14              	 .text
  15              	.Ltext0:
  16              	 .cfi_sections .debug_frame
  17              	 .section .text.optiga_crypt_callback,"ax",%progbits
  18              	 .align 1
  19              	 .code 16
  20              	 .thumb_func
  22              	optiga_crypt_callback:
  23              	.LFB0:
  24              	 .file 1 "C:/Workspace/DAVE-4.4.2-64Bit/optiga-trust-m/examples/optiga/example_optiga_crypt_rsa_decrypt.c"
   1:C:/Workspace/DAVE-4.4.2-64Bit/optiga-trust-m/examples/optiga\example_optiga_crypt_rsa_decrypt.c **** /**
   2:C:/Workspace/DAVE-4.4.2-64Bit/optiga-trust-m/examples/optiga\example_optiga_crypt_rsa_decrypt.c **** * \copyright
   3:C:/Workspace/DAVE-4.4.2-64Bit/optiga-trust-m/examples/optiga\example_optiga_crypt_rsa_decrypt.c **** * MIT License
   4:C:/Workspace/DAVE-4.4.2-64Bit/optiga-trust-m/examples/optiga\example_optiga_crypt_rsa_decrypt.c **** *
   5:C:/Workspace/DAVE-4.4.2-64Bit/optiga-trust-m/examples/optiga\example_optiga_crypt_rsa_decrypt.c **** * Copyright (c) 2019 Infineon Technologies AG
   6:C:/Workspace/DAVE-4.4.2-64Bit/optiga-trust-m/examples/optiga\example_optiga_crypt_rsa_decrypt.c **** *
   7:C:/Workspace/DAVE-4.4.2-64Bit/optiga-trust-m/examples/optiga\example_optiga_crypt_rsa_decrypt.c **** * Permission is hereby granted, free of charge, to any person obtaining a copy
   8:C:/Workspace/DAVE-4.4.2-64Bit/optiga-trust-m/examples/optiga\example_optiga_crypt_rsa_decrypt.c **** * of this software and associated documentation files (the "Software"), to deal
   9:C:/Workspace/DAVE-4.4.2-64Bit/optiga-trust-m/examples/optiga\example_optiga_crypt_rsa_decrypt.c **** * in the Software without restriction, including without limitation the rights
  10:C:/Workspace/DAVE-4.4.2-64Bit/optiga-trust-m/examples/optiga\example_optiga_crypt_rsa_decrypt.c **** * to use, copy, modify, merge, publish, distribute, sublicense, and/or sell
  11:C:/Workspace/DAVE-4.4.2-64Bit/optiga-trust-m/examples/optiga\example_optiga_crypt_rsa_decrypt.c **** * copies of the Software, and to permit persons to whom the Software is
  12:C:/Workspace/DAVE-4.4.2-64Bit/optiga-trust-m/examples/optiga\example_optiga_crypt_rsa_decrypt.c **** * furnished to do so, subject to the following conditions:
  13:C:/Workspace/DAVE-4.4.2-64Bit/optiga-trust-m/examples/optiga\example_optiga_crypt_rsa_decrypt.c **** *
  14:C:/Workspace/DAVE-4.4.2-64Bit/optiga-trust-m/examples/optiga\example_optiga_crypt_rsa_decrypt.c **** * The above copyright notice and this permission notice shall be included in all
  15:C:/Workspace/DAVE-4.4.2-64Bit/optiga-trust-m/examples/optiga\example_optiga_crypt_rsa_decrypt.c **** * copies or substantial portions of the Software.
  16:C:/Workspace/DAVE-4.4.2-64Bit/optiga-trust-m/examples/optiga\example_optiga_crypt_rsa_decrypt.c **** *
  17:C:/Workspace/DAVE-4.4.2-64Bit/optiga-trust-m/examples/optiga\example_optiga_crypt_rsa_decrypt.c **** * THE SOFTWARE IS PROVIDED "AS IS", WITHOUT WARRANTY OF ANY KIND, EXPRESS OR
  18:C:/Workspace/DAVE-4.4.2-64Bit/optiga-trust-m/examples/optiga\example_optiga_crypt_rsa_decrypt.c **** * IMPLIED, INCLUDING BUT NOT LIMITED TO THE WARRANTIES OF MERCHANTABILITY,
  19:C:/Workspace/DAVE-4.4.2-64Bit/optiga-trust-m/examples/optiga\example_optiga_crypt_rsa_decrypt.c **** * FITNESS FOR A PARTICULAR PURPOSE AND NONINFRINGEMENT. IN NO EVENT SHALL THE
  20:C:/Workspace/DAVE-4.4.2-64Bit/optiga-trust-m/examples/optiga\example_optiga_crypt_rsa_decrypt.c **** * AUTHORS OR COPYRIGHT HOLDERS BE LIABLE FOR ANY CLAIM, DAMAGES OR OTHER
  21:C:/Workspace/DAVE-4.4.2-64Bit/optiga-trust-m/examples/optiga\example_optiga_crypt_rsa_decrypt.c **** * LIABILITY, WHETHER IN AN ACTION OF CONTRACT, TORT OR OTHERWISE, ARISING FROM,
  22:C:/Workspace/DAVE-4.4.2-64Bit/optiga-trust-m/examples/optiga\example_optiga_crypt_rsa_decrypt.c **** * OUT OF OR IN CONNECTION WITH THE SOFTWARE OR THE USE OR OTHER DEALINGS IN THE
  23:C:/Workspace/DAVE-4.4.2-64Bit/optiga-trust-m/examples/optiga\example_optiga_crypt_rsa_decrypt.c **** * SOFTWARE
  24:C:/Workspace/DAVE-4.4.2-64Bit/optiga-trust-m/examples/optiga\example_optiga_crypt_rsa_decrypt.c **** *
  25:C:/Workspace/DAVE-4.4.2-64Bit/optiga-trust-m/examples/optiga\example_optiga_crypt_rsa_decrypt.c **** * \endcopyright
  26:C:/Workspace/DAVE-4.4.2-64Bit/optiga-trust-m/examples/optiga\example_optiga_crypt_rsa_decrypt.c **** *
  27:C:/Workspace/DAVE-4.4.2-64Bit/optiga-trust-m/examples/optiga\example_optiga_crypt_rsa_decrypt.c **** * \author Infineon Technologies AG
  28:C:/Workspace/DAVE-4.4.2-64Bit/optiga-trust-m/examples/optiga\example_optiga_crypt_rsa_decrypt.c **** *
  29:C:/Workspace/DAVE-4.4.2-64Bit/optiga-trust-m/examples/optiga\example_optiga_crypt_rsa_decrypt.c **** * \file example_optiga_crypt_rsa_decrypt.c
  30:C:/Workspace/DAVE-4.4.2-64Bit/optiga-trust-m/examples/optiga\example_optiga_crypt_rsa_decrypt.c **** *
  31:C:/Workspace/DAVE-4.4.2-64Bit/optiga-trust-m/examples/optiga\example_optiga_crypt_rsa_decrypt.c **** * \brief   This file provides the example for RSA decrypt functionality
  32:C:/Workspace/DAVE-4.4.2-64Bit/optiga-trust-m/examples/optiga\example_optiga_crypt_rsa_decrypt.c **** *          example_optiga_crypt_rsa_decrypt_and_export and example_optiga_crypt_rsa_decrypt_and_sto
  33:C:/Workspace/DAVE-4.4.2-64Bit/optiga-trust-m/examples/optiga\example_optiga_crypt_rsa_decrypt.c **** *
  34:C:/Workspace/DAVE-4.4.2-64Bit/optiga-trust-m/examples/optiga\example_optiga_crypt_rsa_decrypt.c **** * \ingroup grOptigaExamples
  35:C:/Workspace/DAVE-4.4.2-64Bit/optiga-trust-m/examples/optiga\example_optiga_crypt_rsa_decrypt.c **** *
  36:C:/Workspace/DAVE-4.4.2-64Bit/optiga-trust-m/examples/optiga\example_optiga_crypt_rsa_decrypt.c **** * @{
  37:C:/Workspace/DAVE-4.4.2-64Bit/optiga-trust-m/examples/optiga\example_optiga_crypt_rsa_decrypt.c **** */
  38:C:/Workspace/DAVE-4.4.2-64Bit/optiga-trust-m/examples/optiga\example_optiga_crypt_rsa_decrypt.c **** 
  39:C:/Workspace/DAVE-4.4.2-64Bit/optiga-trust-m/examples/optiga\example_optiga_crypt_rsa_decrypt.c **** #include "optiga/optiga_crypt.h"
  40:C:/Workspace/DAVE-4.4.2-64Bit/optiga-trust-m/examples/optiga\example_optiga_crypt_rsa_decrypt.c **** #include "optiga_example.h"
  41:C:/Workspace/DAVE-4.4.2-64Bit/optiga-trust-m/examples/optiga\example_optiga_crypt_rsa_decrypt.c **** 
  42:C:/Workspace/DAVE-4.4.2-64Bit/optiga-trust-m/examples/optiga\example_optiga_crypt_rsa_decrypt.c **** #ifdef OPTIGA_CRYPT_RSA_DECRYPT_ENABLED
  43:C:/Workspace/DAVE-4.4.2-64Bit/optiga-trust-m/examples/optiga\example_optiga_crypt_rsa_decrypt.c **** 
  44:C:/Workspace/DAVE-4.4.2-64Bit/optiga-trust-m/examples/optiga\example_optiga_crypt_rsa_decrypt.c **** /**
  45:C:/Workspace/DAVE-4.4.2-64Bit/optiga-trust-m/examples/optiga\example_optiga_crypt_rsa_decrypt.c ****  * Callback when optiga_crypt_xxxx operation is completed asynchronously
  46:C:/Workspace/DAVE-4.4.2-64Bit/optiga-trust-m/examples/optiga\example_optiga_crypt_rsa_decrypt.c ****  */
  47:C:/Workspace/DAVE-4.4.2-64Bit/optiga-trust-m/examples/optiga\example_optiga_crypt_rsa_decrypt.c **** static volatile optiga_lib_status_t optiga_lib_status;
  48:C:/Workspace/DAVE-4.4.2-64Bit/optiga-trust-m/examples/optiga\example_optiga_crypt_rsa_decrypt.c **** //lint --e{818} suppress "argument "context" is not used in the sample provided"
  49:C:/Workspace/DAVE-4.4.2-64Bit/optiga-trust-m/examples/optiga\example_optiga_crypt_rsa_decrypt.c **** static void optiga_crypt_callback(void * context, optiga_lib_status_t return_status)
  50:C:/Workspace/DAVE-4.4.2-64Bit/optiga-trust-m/examples/optiga\example_optiga_crypt_rsa_decrypt.c **** {
  25              	 .loc 1 50 0
  26              	 .cfi_startproc
  27              	.LVL0:
  51:C:/Workspace/DAVE-4.4.2-64Bit/optiga-trust-m/examples/optiga\example_optiga_crypt_rsa_decrypt.c ****     optiga_lib_status = return_status;
  28              	 .loc 1 51 0
  29 0000 014B     	 ldr r3,.L2
  52:C:/Workspace/DAVE-4.4.2-64Bit/optiga-trust-m/examples/optiga\example_optiga_crypt_rsa_decrypt.c ****     if (NULL != context)
  53:C:/Workspace/DAVE-4.4.2-64Bit/optiga-trust-m/examples/optiga\example_optiga_crypt_rsa_decrypt.c ****     {
  54:C:/Workspace/DAVE-4.4.2-64Bit/optiga-trust-m/examples/optiga\example_optiga_crypt_rsa_decrypt.c ****         // callback to upper layer here
  55:C:/Workspace/DAVE-4.4.2-64Bit/optiga-trust-m/examples/optiga\example_optiga_crypt_rsa_decrypt.c ****     }
  56:C:/Workspace/DAVE-4.4.2-64Bit/optiga-trust-m/examples/optiga\example_optiga_crypt_rsa_decrypt.c **** }
  30              	 .loc 1 56 0
  31              	 
  51:C:/Workspace/DAVE-4.4.2-64Bit/optiga-trust-m/examples/optiga\example_optiga_crypt_rsa_decrypt.c ****     optiga_lib_status = return_status;
  32              	 .loc 1 51 0
  33 0002 1980     	 strh r1,[r3]
  34              	 .loc 1 56 0
  35 0004 7047     	 bx lr
  36              	.L3:
  37 0006 C046     	 .align 2
  38              	.L2:
  39 0008 00000000 	 .word .LANCHOR0
  40              	 .cfi_endproc
  41              	.LFE0:
  43              	 .section .text.example_optiga_crypt_rsa_decrypt_and_export,"ax",%progbits
  44              	 .align 1
  45              	 .global example_optiga_crypt_rsa_decrypt_and_export
  46              	 .code 16
  47              	 .thumb_func
  49              	example_optiga_crypt_rsa_decrypt_and_export:
  50              	.LFB1:
  57:C:/Workspace/DAVE-4.4.2-64Bit/optiga-trust-m/examples/optiga\example_optiga_crypt_rsa_decrypt.c **** 
  58:C:/Workspace/DAVE-4.4.2-64Bit/optiga-trust-m/examples/optiga\example_optiga_crypt_rsa_decrypt.c **** /**
  59:C:/Workspace/DAVE-4.4.2-64Bit/optiga-trust-m/examples/optiga\example_optiga_crypt_rsa_decrypt.c ****  * The below example demonstrates RSA decryption
  60:C:/Workspace/DAVE-4.4.2-64Bit/optiga-trust-m/examples/optiga\example_optiga_crypt_rsa_decrypt.c ****  * #optiga_crypt_rsa_decrypt_and_export where message is provided by user
  61:C:/Workspace/DAVE-4.4.2-64Bit/optiga-trust-m/examples/optiga\example_optiga_crypt_rsa_decrypt.c ****  *
  62:C:/Workspace/DAVE-4.4.2-64Bit/optiga-trust-m/examples/optiga\example_optiga_crypt_rsa_decrypt.c ****  */
  63:C:/Workspace/DAVE-4.4.2-64Bit/optiga-trust-m/examples/optiga\example_optiga_crypt_rsa_decrypt.c **** void example_optiga_crypt_rsa_decrypt_and_export(void)
  64:C:/Workspace/DAVE-4.4.2-64Bit/optiga-trust-m/examples/optiga\example_optiga_crypt_rsa_decrypt.c **** {
  51              	 .loc 1 64 0
  52              	 .cfi_startproc
  53              	.LVL1:
  54 0000 FFB5     	 push {r0,r1,r2,r3,r4,r5,r6,r7,lr}
  55              	.LCFI0:
  56              	 .cfi_def_cfa_offset 36
  57              	 .cfi_offset 0,-36
  58              	 .cfi_offset 1,-32
  59              	 .cfi_offset 2,-28
  60              	 .cfi_offset 3,-24
  61              	 .cfi_offset 4,-20
  62              	 .cfi_offset 5,-16
  63              	 .cfi_offset 6,-12
  64              	 .cfi_offset 7,-8
  65              	 .cfi_offset 14,-4
  66 0002 FFB0     	 sub sp,sp,#508
  67              	.LCFI1:
  68              	 .cfi_def_cfa_offset 544
  65:C:/Workspace/DAVE-4.4.2-64Bit/optiga-trust-m/examples/optiga\example_optiga_crypt_rsa_decrypt.c ****     optiga_lib_status_t return_status = 0;
  66:C:/Workspace/DAVE-4.4.2-64Bit/optiga-trust-m/examples/optiga\example_optiga_crypt_rsa_decrypt.c ****     optiga_key_id_t optiga_key_id;
  67:C:/Workspace/DAVE-4.4.2-64Bit/optiga-trust-m/examples/optiga\example_optiga_crypt_rsa_decrypt.c ****     optiga_rsa_encryption_scheme_t encryption_scheme;
  68:C:/Workspace/DAVE-4.4.2-64Bit/optiga-trust-m/examples/optiga\example_optiga_crypt_rsa_decrypt.c ****     public_key_from_host_t public_key_from_host;
  69:C:/Workspace/DAVE-4.4.2-64Bit/optiga-trust-m/examples/optiga\example_optiga_crypt_rsa_decrypt.c ****     uint8_t encrypted_message[128];
  70:C:/Workspace/DAVE-4.4.2-64Bit/optiga-trust-m/examples/optiga\example_optiga_crypt_rsa_decrypt.c ****     uint8_t message[] = {"RSA PKCS1_v1.5 Encryption of user message"};
  69              	 .loc 1 70 0
  70 0004 4A49     	 ldr r1,.L35
  71 0006 2A22     	 mov r2,#42
  72 0008 0BA8     	 add r0,sp,#44
  73 000a FFF7FEFF 	 bl memcpy
  74              	.LVL2:
  71:C:/Workspace/DAVE-4.4.2-64Bit/optiga-trust-m/examples/optiga\example_optiga_crypt_rsa_decrypt.c ****     uint16_t message_length = sizeof(message);
  72:C:/Workspace/DAVE-4.4.2-64Bit/optiga-trust-m/examples/optiga\example_optiga_crypt_rsa_decrypt.c ****     uint16_t encrypted_message_length = sizeof(encrypted_message);
  75              	 .loc 1 72 0
  76 000e 6A46     	 mov r2,sp
  77 0010 8023     	 mov r3,#128
  73:C:/Workspace/DAVE-4.4.2-64Bit/optiga-trust-m/examples/optiga\example_optiga_crypt_rsa_decrypt.c ****     uint8_t public_key [150];
  74:C:/Workspace/DAVE-4.4.2-64Bit/optiga-trust-m/examples/optiga\example_optiga_crypt_rsa_decrypt.c ****     uint8_t decrypted_message[150];
  75:C:/Workspace/DAVE-4.4.2-64Bit/optiga-trust-m/examples/optiga\example_optiga_crypt_rsa_decrypt.c ****     uint16_t decrypted_message_length = sizeof(decrypted_message);
  76:C:/Workspace/DAVE-4.4.2-64Bit/optiga-trust-m/examples/optiga\example_optiga_crypt_rsa_decrypt.c ****     uint16_t public_key_length = sizeof(public_key);
  78              	 .loc 1 76 0
  79 0012 2226     	 mov r6,#34
  72:C:/Workspace/DAVE-4.4.2-64Bit/optiga-trust-m/examples/optiga\example_optiga_crypt_rsa_decrypt.c ****     uint8_t public_key [150];
  80              	 .loc 1 72 0
  81 0014 D383     	 strh r3,[r2,#30]
  75:C:/Workspace/DAVE-4.4.2-64Bit/optiga-trust-m/examples/optiga\example_optiga_crypt_rsa_decrypt.c ****     uint16_t public_key_length = sizeof(public_key);
  82              	 .loc 1 75 0
  83 0016 1633     	 add r3,r3,#22
  84 0018 1384     	 strh r3,[r2,#32]
  77:C:/Workspace/DAVE-4.4.2-64Bit/optiga-trust-m/examples/optiga\example_optiga_crypt_rsa_decrypt.c **** 
  78:C:/Workspace/DAVE-4.4.2-64Bit/optiga-trust-m/examples/optiga\example_optiga_crypt_rsa_decrypt.c ****     optiga_crypt_t * me = NULL;
  79:C:/Workspace/DAVE-4.4.2-64Bit/optiga-trust-m/examples/optiga\example_optiga_crypt_rsa_decrypt.c ****     OPTIGA_EXAMPLE_LOG_MESSAGE(__FUNCTION__);
  85              	 .loc 1 79 0
  86 001a 4648     	 ldr r0,.L35+4
  87 001c 4649     	 ldr r1,.L35+8
  88 001e 474A     	 ldr r2,.L35+12
  76:C:/Workspace/DAVE-4.4.2-64Bit/optiga-trust-m/examples/optiga\example_optiga_crypt_rsa_decrypt.c **** 
  89              	 .loc 1 76 0
  90 0020 6E44     	 add r6,r6,sp
  91 0022 3380     	 strh r3,[r6]
  92              	.LVL3:
  93              	 .loc 1 79 0
  94 0024 FFF7FEFF 	 bl optiga_lib_print_message
  95              	.LVL4:
  80:C:/Workspace/DAVE-4.4.2-64Bit/optiga-trust-m/examples/optiga\example_optiga_crypt_rsa_decrypt.c **** 
  81:C:/Workspace/DAVE-4.4.2-64Bit/optiga-trust-m/examples/optiga\example_optiga_crypt_rsa_decrypt.c ****     do
  82:C:/Workspace/DAVE-4.4.2-64Bit/optiga-trust-m/examples/optiga\example_optiga_crypt_rsa_decrypt.c ****     {
  83:C:/Workspace/DAVE-4.4.2-64Bit/optiga-trust-m/examples/optiga\example_optiga_crypt_rsa_decrypt.c ****         /**
  84:C:/Workspace/DAVE-4.4.2-64Bit/optiga-trust-m/examples/optiga\example_optiga_crypt_rsa_decrypt.c ****          * 1. Create OPTIGA Crypt Instance
  85:C:/Workspace/DAVE-4.4.2-64Bit/optiga-trust-m/examples/optiga\example_optiga_crypt_rsa_decrypt.c ****          *
  86:C:/Workspace/DAVE-4.4.2-64Bit/optiga-trust-m/examples/optiga\example_optiga_crypt_rsa_decrypt.c ****          */
  87:C:/Workspace/DAVE-4.4.2-64Bit/optiga-trust-m/examples/optiga\example_optiga_crypt_rsa_decrypt.c ****         me = optiga_crypt_create(0, optiga_crypt_callback, NULL);
  96              	 .loc 1 87 0
  97 0028 0020     	 mov r0,#0
  98 002a 4549     	 ldr r1,.L35+16
  99 002c 021C     	 mov r2,r0
 100 002e FFF7FEFF 	 bl optiga_crypt_create
 101              	.LVL5:
 102 0032 041E     	 sub r4,r0,#0
 103              	.LVL6:
  88:C:/Workspace/DAVE-4.4.2-64Bit/optiga-trust-m/examples/optiga\example_optiga_crypt_rsa_decrypt.c ****         if (NULL == me)
 104              	 .loc 1 88 0
 105 0034 69D0     	 beq .L13
  89:C:/Workspace/DAVE-4.4.2-64Bit/optiga-trust-m/examples/optiga\example_optiga_crypt_rsa_decrypt.c ****         {
  90:C:/Workspace/DAVE-4.4.2-64Bit/optiga-trust-m/examples/optiga\example_optiga_crypt_rsa_decrypt.c ****             break;
  91:C:/Workspace/DAVE-4.4.2-64Bit/optiga-trust-m/examples/optiga\example_optiga_crypt_rsa_decrypt.c ****         }
  92:C:/Workspace/DAVE-4.4.2-64Bit/optiga-trust-m/examples/optiga\example_optiga_crypt_rsa_decrypt.c **** 
  93:C:/Workspace/DAVE-4.4.2-64Bit/optiga-trust-m/examples/optiga\example_optiga_crypt_rsa_decrypt.c ****         /**
  94:C:/Workspace/DAVE-4.4.2-64Bit/optiga-trust-m/examples/optiga\example_optiga_crypt_rsa_decrypt.c ****          * 2. Generate RSA Key pair
  95:C:/Workspace/DAVE-4.4.2-64Bit/optiga-trust-m/examples/optiga\example_optiga_crypt_rsa_decrypt.c ****          *       - Use 1024 or 2048 bit RSA key
  96:C:/Workspace/DAVE-4.4.2-64Bit/optiga-trust-m/examples/optiga\example_optiga_crypt_rsa_decrypt.c ****          *       - Specify the Key Usage
  97:C:/Workspace/DAVE-4.4.2-64Bit/optiga-trust-m/examples/optiga\example_optiga_crypt_rsa_decrypt.c ****          *       - Store the Private key in OPTIGA Key store
  98:C:/Workspace/DAVE-4.4.2-64Bit/optiga-trust-m/examples/optiga\example_optiga_crypt_rsa_decrypt.c ****          *       - Export Public Key
  99:C:/Workspace/DAVE-4.4.2-64Bit/optiga-trust-m/examples/optiga\example_optiga_crypt_rsa_decrypt.c ****          */
 100:C:/Workspace/DAVE-4.4.2-64Bit/optiga-trust-m/examples/optiga\example_optiga_crypt_rsa_decrypt.c ****         optiga_lib_status = OPTIGA_LIB_BUSY;
 106              	 .loc 1 100 0
 107 0036 0123     	 mov r3,#1
 108 0038 424D     	 ldr r5,.L35+20
 101:C:/Workspace/DAVE-4.4.2-64Bit/optiga-trust-m/examples/optiga\example_optiga_crypt_rsa_decrypt.c ****         optiga_key_id = OPTIGA_KEY_ID_E0FC;
 109              	 .loc 1 101 0
 110 003a 434A     	 ldr r2,.L35+24
 100:C:/Workspace/DAVE-4.4.2-64Bit/optiga-trust-m/examples/optiga\example_optiga_crypt_rsa_decrypt.c ****         optiga_key_id = OPTIGA_KEY_ID_E0FC;
 111              	 .loc 1 100 0
 112 003c 2B80     	 strh r3,[r5]
 102:C:/Workspace/DAVE-4.4.2-64Bit/optiga-trust-m/examples/optiga\example_optiga_crypt_rsa_decrypt.c ****         return_status = optiga_crypt_rsa_generate_keypair(me,
 113              	 .loc 1 102 0
 114 003e 36AF     	 add r7,sp,#216
 101:C:/Workspace/DAVE-4.4.2-64Bit/optiga-trust-m/examples/optiga\example_optiga_crypt_rsa_decrypt.c ****         optiga_key_id = OPTIGA_KEY_ID_E0FC;
 115              	 .loc 1 101 0
 116 0040 07AB     	 add r3,sp,#28
 117 0042 1A80     	 strh r2,[r3]
 118              	 .loc 1 102 0
 119 0044 4121     	 mov r1,#65
 120 0046 0093     	 str r3,[sp]
 121 0048 0222     	 mov r2,#2
 122 004a 0197     	 str r7,[sp,#4]
 123 004c 0296     	 str r6,[sp,#8]
 124 004e 0023     	 mov r3,#0
 125 0050 FFF7FEFF 	 bl optiga_crypt_rsa_generate_keypair
 126              	.LVL7:
 127 0054 021E     	 sub r2,r0,#0
 128              	.LVL8:
 103:C:/Workspace/DAVE-4.4.2-64Bit/optiga-trust-m/examples/optiga\example_optiga_crypt_rsa_decrypt.c ****                                                           OPTIGA_RSA_KEY_1024_BIT_EXPONENTIAL,
 104:C:/Workspace/DAVE-4.4.2-64Bit/optiga-trust-m/examples/optiga\example_optiga_crypt_rsa_decrypt.c ****                                                           (uint8_t)OPTIGA_KEY_USAGE_ENCRYPTION,
 105:C:/Workspace/DAVE-4.4.2-64Bit/optiga-trust-m/examples/optiga\example_optiga_crypt_rsa_decrypt.c ****                                                           FALSE,
 106:C:/Workspace/DAVE-4.4.2-64Bit/optiga-trust-m/examples/optiga\example_optiga_crypt_rsa_decrypt.c ****                                                           &optiga_key_id,
 107:C:/Workspace/DAVE-4.4.2-64Bit/optiga-trust-m/examples/optiga\example_optiga_crypt_rsa_decrypt.c ****                                                           public_key,
 108:C:/Workspace/DAVE-4.4.2-64Bit/optiga-trust-m/examples/optiga\example_optiga_crypt_rsa_decrypt.c ****                                                           &public_key_length);
 109:C:/Workspace/DAVE-4.4.2-64Bit/optiga-trust-m/examples/optiga\example_optiga_crypt_rsa_decrypt.c ****         if (OPTIGA_LIB_SUCCESS != return_status)
 129              	 .loc 1 109 0
 130 0056 53D1     	 bne .L17
 131              	.L7:
 110:C:/Workspace/DAVE-4.4.2-64Bit/optiga-trust-m/examples/optiga\example_optiga_crypt_rsa_decrypt.c ****         {
 111:C:/Workspace/DAVE-4.4.2-64Bit/optiga-trust-m/examples/optiga\example_optiga_crypt_rsa_decrypt.c ****             break;
 112:C:/Workspace/DAVE-4.4.2-64Bit/optiga-trust-m/examples/optiga\example_optiga_crypt_rsa_decrypt.c ****         }
 113:C:/Workspace/DAVE-4.4.2-64Bit/optiga-trust-m/examples/optiga\example_optiga_crypt_rsa_decrypt.c **** 
 114:C:/Workspace/DAVE-4.4.2-64Bit/optiga-trust-m/examples/optiga\example_optiga_crypt_rsa_decrypt.c ****         while (OPTIGA_LIB_BUSY == optiga_lib_status)
 132              	 .loc 1 114 0 discriminator 1
 133 0058 2B88     	 ldrh r3,[r5]
 134 005a 012B     	 cmp r3,#1
 135 005c FCD0     	 beq .L7
 115:C:/Workspace/DAVE-4.4.2-64Bit/optiga-trust-m/examples/optiga\example_optiga_crypt_rsa_decrypt.c ****         {
 116:C:/Workspace/DAVE-4.4.2-64Bit/optiga-trust-m/examples/optiga\example_optiga_crypt_rsa_decrypt.c ****             //Wait until the optiga_crypt_rsa_generate_keypair operation is completed
 117:C:/Workspace/DAVE-4.4.2-64Bit/optiga-trust-m/examples/optiga\example_optiga_crypt_rsa_decrypt.c ****         }
 118:C:/Workspace/DAVE-4.4.2-64Bit/optiga-trust-m/examples/optiga\example_optiga_crypt_rsa_decrypt.c **** 
 119:C:/Workspace/DAVE-4.4.2-64Bit/optiga-trust-m/examples/optiga\example_optiga_crypt_rsa_decrypt.c ****         if (OPTIGA_LIB_SUCCESS != optiga_lib_status)
 136              	 .loc 1 119 0
 137 005e 2B88     	 ldrh r3,[r5]
 138 0060 9BB2     	 uxth r3,r3
 139 0062 002B     	 cmp r3,#0
 140 0064 01D0     	 beq .L8
 120:C:/Workspace/DAVE-4.4.2-64Bit/optiga-trust-m/examples/optiga\example_optiga_crypt_rsa_decrypt.c ****         {
 121:C:/Workspace/DAVE-4.4.2-64Bit/optiga-trust-m/examples/optiga\example_optiga_crypt_rsa_decrypt.c ****             //Key pair generation failed
 122:C:/Workspace/DAVE-4.4.2-64Bit/optiga-trust-m/examples/optiga\example_optiga_crypt_rsa_decrypt.c ****             return_status = optiga_lib_status;
 141              	 .loc 1 122 0
 142 0066 2A88     	 ldrh r2,[r5]
 143 0068 47E0     	 b .L33
 144              	.L8:
 145              	.LVL9:
 123:C:/Workspace/DAVE-4.4.2-64Bit/optiga-trust-m/examples/optiga\example_optiga_crypt_rsa_decrypt.c ****             break;
 124:C:/Workspace/DAVE-4.4.2-64Bit/optiga-trust-m/examples/optiga\example_optiga_crypt_rsa_decrypt.c ****         }
 125:C:/Workspace/DAVE-4.4.2-64Bit/optiga-trust-m/examples/optiga\example_optiga_crypt_rsa_decrypt.c ****         /**
 126:C:/Workspace/DAVE-4.4.2-64Bit/optiga-trust-m/examples/optiga\example_optiga_crypt_rsa_decrypt.c ****          * 3. RSA encryption
 127:C:/Workspace/DAVE-4.4.2-64Bit/optiga-trust-m/examples/optiga\example_optiga_crypt_rsa_decrypt.c ****          */
 128:C:/Workspace/DAVE-4.4.2-64Bit/optiga-trust-m/examples/optiga\example_optiga_crypt_rsa_decrypt.c ****         encryption_scheme = OPTIGA_RSAES_PKCS1_V15;
 129:C:/Workspace/DAVE-4.4.2-64Bit/optiga-trust-m/examples/optiga\example_optiga_crypt_rsa_decrypt.c ****         public_key_from_host.public_key = public_key;
 130:C:/Workspace/DAVE-4.4.2-64Bit/optiga-trust-m/examples/optiga\example_optiga_crypt_rsa_decrypt.c ****         public_key_from_host.length = public_key_length;
 146              	 .loc 1 130 0
 147 006a 3188     	 ldrh r1,[r6]
 129:C:/Workspace/DAVE-4.4.2-64Bit/optiga-trust-m/examples/optiga\example_optiga_crypt_rsa_decrypt.c ****         public_key_from_host.length = public_key_length;
 148              	 .loc 1 129 0
 149 006c 09AA     	 add r2,sp,#36
 150              	 .loc 1 130 0
 151 006e 9180     	 strh r1,[r2,#4]
 131:C:/Workspace/DAVE-4.4.2-64Bit/optiga-trust-m/examples/optiga\example_optiga_crypt_rsa_decrypt.c ****         public_key_from_host.key_type = (uint8_t)OPTIGA_RSA_KEY_1024_BIT_EXPONENTIAL;
 152              	 .loc 1 131 0
 153 0070 4121     	 mov r1,#65
 154 0072 9171     	 strb r1,[r2,#6]
 132:C:/Workspace/DAVE-4.4.2-64Bit/optiga-trust-m/examples/optiga\example_optiga_crypt_rsa_decrypt.c ****         optiga_lib_status = OPTIGA_LIB_BUSY;
 155              	 .loc 1 132 0
 156 0074 4039     	 sub r1,r1,#64
 157 0076 2980     	 strh r1,[r5]
 133:C:/Workspace/DAVE-4.4.2-64Bit/optiga-trust-m/examples/optiga\example_optiga_crypt_rsa_decrypt.c **** 
 134:C:/Workspace/DAVE-4.4.2-64Bit/optiga-trust-m/examples/optiga\example_optiga_crypt_rsa_decrypt.c ****         return_status = optiga_crypt_rsa_encrypt_message(me,
 158              	 .loc 1 134 0
 159 0078 0093     	 str r3,[sp]
 160 007a 0193     	 str r3,[sp,#4]
 161 007c 1E23     	 mov r3,#30
 162 007e 16AE     	 add r6,sp,#88
 163 0080 6B44     	 add r3,r3,sp
 164 0082 0291     	 str r1,[sp,#8]
 165 0084 0392     	 str r2,[sp,#12]
 166 0086 0593     	 str r3,[sp,#20]
 167 0088 0BAA     	 add r2,sp,#44
 168 008a 0496     	 str r6,[sp,#16]
 169 008c 201C     	 mov r0,r4
 170              	.LVL10:
 171 008e 1031     	 add r1,r1,#16
 172 0090 2A23     	 mov r3,#42
 129:C:/Workspace/DAVE-4.4.2-64Bit/optiga-trust-m/examples/optiga\example_optiga_crypt_rsa_decrypt.c ****         public_key_from_host.length = public_key_length;
 173              	 .loc 1 129 0
 174 0092 0997     	 str r7,[sp,#36]
 175              	 .loc 1 134 0
 176 0094 FFF7FEFF 	 bl optiga_crypt_rsa_encrypt_message
 177              	.LVL11:
 178 0098 021E     	 sub r2,r0,#0
 179              	.LVL12:
 135:C:/Workspace/DAVE-4.4.2-64Bit/optiga-trust-m/examples/optiga\example_optiga_crypt_rsa_decrypt.c ****                                                          encryption_scheme,
 136:C:/Workspace/DAVE-4.4.2-64Bit/optiga-trust-m/examples/optiga\example_optiga_crypt_rsa_decrypt.c ****                                                          message,
 137:C:/Workspace/DAVE-4.4.2-64Bit/optiga-trust-m/examples/optiga\example_optiga_crypt_rsa_decrypt.c ****                                                          message_length,
 138:C:/Workspace/DAVE-4.4.2-64Bit/optiga-trust-m/examples/optiga\example_optiga_crypt_rsa_decrypt.c ****                                                          NULL,
 139:C:/Workspace/DAVE-4.4.2-64Bit/optiga-trust-m/examples/optiga\example_optiga_crypt_rsa_decrypt.c ****                                                          0,
 140:C:/Workspace/DAVE-4.4.2-64Bit/optiga-trust-m/examples/optiga\example_optiga_crypt_rsa_decrypt.c ****                                                          OPTIGA_CRYPT_HOST_DATA,
 141:C:/Workspace/DAVE-4.4.2-64Bit/optiga-trust-m/examples/optiga\example_optiga_crypt_rsa_decrypt.c ****                                                          &public_key_from_host,
 142:C:/Workspace/DAVE-4.4.2-64Bit/optiga-trust-m/examples/optiga\example_optiga_crypt_rsa_decrypt.c ****                                                          encrypted_message,
 143:C:/Workspace/DAVE-4.4.2-64Bit/optiga-trust-m/examples/optiga\example_optiga_crypt_rsa_decrypt.c ****                                                          &encrypted_message_length);
 144:C:/Workspace/DAVE-4.4.2-64Bit/optiga-trust-m/examples/optiga\example_optiga_crypt_rsa_decrypt.c **** 
 145:C:/Workspace/DAVE-4.4.2-64Bit/optiga-trust-m/examples/optiga\example_optiga_crypt_rsa_decrypt.c ****         if (OPTIGA_LIB_SUCCESS != return_status)
 180              	 .loc 1 145 0
 181 009a 31D1     	 bne .L17
 182              	.L10:
 146:C:/Workspace/DAVE-4.4.2-64Bit/optiga-trust-m/examples/optiga\example_optiga_crypt_rsa_decrypt.c ****         {
 147:C:/Workspace/DAVE-4.4.2-64Bit/optiga-trust-m/examples/optiga\example_optiga_crypt_rsa_decrypt.c ****             break;
 148:C:/Workspace/DAVE-4.4.2-64Bit/optiga-trust-m/examples/optiga\example_optiga_crypt_rsa_decrypt.c ****         }
 149:C:/Workspace/DAVE-4.4.2-64Bit/optiga-trust-m/examples/optiga\example_optiga_crypt_rsa_decrypt.c **** 
 150:C:/Workspace/DAVE-4.4.2-64Bit/optiga-trust-m/examples/optiga\example_optiga_crypt_rsa_decrypt.c ****         while (OPTIGA_LIB_BUSY == optiga_lib_status)
 183              	 .loc 1 150 0 discriminator 1
 184 009c 294B     	 ldr r3,.L35+20
 185 009e 1A88     	 ldrh r2,[r3]
 186 00a0 1F1C     	 mov r7,r3
 187 00a2 012A     	 cmp r2,#1
 188 00a4 FAD0     	 beq .L10
 151:C:/Workspace/DAVE-4.4.2-64Bit/optiga-trust-m/examples/optiga\example_optiga_crypt_rsa_decrypt.c ****         {
 152:C:/Workspace/DAVE-4.4.2-64Bit/optiga-trust-m/examples/optiga\example_optiga_crypt_rsa_decrypt.c ****             //Wait until the optiga_crypt_rsa_encrypt_message operation is completed
 153:C:/Workspace/DAVE-4.4.2-64Bit/optiga-trust-m/examples/optiga\example_optiga_crypt_rsa_decrypt.c ****         }
 154:C:/Workspace/DAVE-4.4.2-64Bit/optiga-trust-m/examples/optiga\example_optiga_crypt_rsa_decrypt.c **** 
 155:C:/Workspace/DAVE-4.4.2-64Bit/optiga-trust-m/examples/optiga\example_optiga_crypt_rsa_decrypt.c ****         if (OPTIGA_LIB_SUCCESS != optiga_lib_status)
 189              	 .loc 1 155 0
 190 00a6 1D88     	 ldrh r5,[r3]
 191 00a8 ADB2     	 uxth r5,r5
 192 00aa 002D     	 cmp r5,#0
 193 00ac 01D0     	 beq .L11
 156:C:/Workspace/DAVE-4.4.2-64Bit/optiga-trust-m/examples/optiga\example_optiga_crypt_rsa_decrypt.c ****         {
 157:C:/Workspace/DAVE-4.4.2-64Bit/optiga-trust-m/examples/optiga\example_optiga_crypt_rsa_decrypt.c ****             //Encryption failed
 158:C:/Workspace/DAVE-4.4.2-64Bit/optiga-trust-m/examples/optiga\example_optiga_crypt_rsa_decrypt.c ****             return_status = optiga_lib_status;
 194              	 .loc 1 158 0
 195 00ae 1A88     	 ldrh r2,[r3]
 196 00b0 23E0     	 b .L33
 197              	.L11:
 159:C:/Workspace/DAVE-4.4.2-64Bit/optiga-trust-m/examples/optiga\example_optiga_crypt_rsa_decrypt.c ****             break;
 160:C:/Workspace/DAVE-4.4.2-64Bit/optiga-trust-m/examples/optiga\example_optiga_crypt_rsa_decrypt.c ****         }
 161:C:/Workspace/DAVE-4.4.2-64Bit/optiga-trust-m/examples/optiga\example_optiga_crypt_rsa_decrypt.c ****         /**
 162:C:/Workspace/DAVE-4.4.2-64Bit/optiga-trust-m/examples/optiga\example_optiga_crypt_rsa_decrypt.c ****          * 4. RSA decryption
 163:C:/Workspace/DAVE-4.4.2-64Bit/optiga-trust-m/examples/optiga\example_optiga_crypt_rsa_decrypt.c ****          */
 164:C:/Workspace/DAVE-4.4.2-64Bit/optiga-trust-m/examples/optiga\example_optiga_crypt_rsa_decrypt.c ****         // OPTIGA Comms Shielded connection settings to enable the protection
 165:C:/Workspace/DAVE-4.4.2-64Bit/optiga-trust-m/examples/optiga\example_optiga_crypt_rsa_decrypt.c ****         OPTIGA_CRYPT_SET_COMMS_PROTOCOL_VERSION(me, OPTIGA_COMMS_PROTOCOL_VERSION_PRE_SHARED_SECRET
 198              	 .loc 1 165 0
 199 00b2 201C     	 mov r0,r4
 200              	.LVL13:
 201 00b4 0221     	 mov r1,#2
 202 00b6 0122     	 mov r2,#1
 203 00b8 FFF7FEFF 	 bl optiga_crypt_set_comms_params
 204              	.LVL14:
 166:C:/Workspace/DAVE-4.4.2-64Bit/optiga-trust-m/examples/optiga\example_optiga_crypt_rsa_decrypt.c ****         OPTIGA_CRYPT_SET_COMMS_PROTECTION_LEVEL(me, OPTIGA_COMMS_RESPONSE_PROTECTION);
 205              	 .loc 1 166 0
 206 00bc 201C     	 mov r0,r4
 207 00be 0121     	 mov r1,#1
 208 00c0 0222     	 mov r2,#2
 209 00c2 FFF7FEFF 	 bl optiga_crypt_set_comms_params
 210              	.LVL15:
 167:C:/Workspace/DAVE-4.4.2-64Bit/optiga-trust-m/examples/optiga\example_optiga_crypt_rsa_decrypt.c **** 
 168:C:/Workspace/DAVE-4.4.2-64Bit/optiga-trust-m/examples/optiga\example_optiga_crypt_rsa_decrypt.c ****         optiga_lib_status = OPTIGA_LIB_BUSY;
 211              	 .loc 1 168 0
 212 00c6 0123     	 mov r3,#1
 213 00c8 3B80     	 strh r3,[r7]
 169:C:/Workspace/DAVE-4.4.2-64Bit/optiga-trust-m/examples/optiga\example_optiga_crypt_rsa_decrypt.c ****         encryption_scheme = OPTIGA_RSAES_PKCS1_V15;
 170:C:/Workspace/DAVE-4.4.2-64Bit/optiga-trust-m/examples/optiga\example_optiga_crypt_rsa_decrypt.c ****         return_status = optiga_crypt_rsa_decrypt_and_export(me,
 214              	 .loc 1 170 0
 215 00ca 0095     	 str r5,[sp]
 216 00cc 0195     	 str r5,[sp,#4]
 217 00ce 07AB     	 add r3,sp,#28
 218 00d0 1B88     	 ldrh r3,[r3]
 219 00d2 321C     	 mov r2,r6
 220 00d4 0293     	 str r3,[sp,#8]
 221 00d6 5CAB     	 add r3,sp,#368
 222 00d8 0393     	 str r3,[sp,#12]
 223 00da 08AB     	 add r3,sp,#32
 224 00dc 0493     	 str r3,[sp,#16]
 225 00de 201C     	 mov r0,r4
 226 00e0 1121     	 mov r1,#17
 227 00e2 8023     	 mov r3,#128
 228 00e4 FFF7FEFF 	 bl optiga_crypt_rsa_decrypt_and_export
 229              	.LVL16:
 230 00e8 021E     	 sub r2,r0,#0
 231              	.LVL17:
 171:C:/Workspace/DAVE-4.4.2-64Bit/optiga-trust-m/examples/optiga\example_optiga_crypt_rsa_decrypt.c ****                                                             encryption_scheme,
 172:C:/Workspace/DAVE-4.4.2-64Bit/optiga-trust-m/examples/optiga\example_optiga_crypt_rsa_decrypt.c ****                                                             encrypted_message,
 173:C:/Workspace/DAVE-4.4.2-64Bit/optiga-trust-m/examples/optiga\example_optiga_crypt_rsa_decrypt.c ****                                                             sizeof(encrypted_message),
 174:C:/Workspace/DAVE-4.4.2-64Bit/optiga-trust-m/examples/optiga\example_optiga_crypt_rsa_decrypt.c ****                                                             NULL,
 175:C:/Workspace/DAVE-4.4.2-64Bit/optiga-trust-m/examples/optiga\example_optiga_crypt_rsa_decrypt.c ****                                                             0,
 176:C:/Workspace/DAVE-4.4.2-64Bit/optiga-trust-m/examples/optiga\example_optiga_crypt_rsa_decrypt.c ****                                                             optiga_key_id,
 177:C:/Workspace/DAVE-4.4.2-64Bit/optiga-trust-m/examples/optiga\example_optiga_crypt_rsa_decrypt.c ****                                                             decrypted_message,
 178:C:/Workspace/DAVE-4.4.2-64Bit/optiga-trust-m/examples/optiga\example_optiga_crypt_rsa_decrypt.c ****                                                             &decrypted_message_length);
 179:C:/Workspace/DAVE-4.4.2-64Bit/optiga-trust-m/examples/optiga\example_optiga_crypt_rsa_decrypt.c **** 
 180:C:/Workspace/DAVE-4.4.2-64Bit/optiga-trust-m/examples/optiga\example_optiga_crypt_rsa_decrypt.c ****         if (OPTIGA_LIB_SUCCESS != return_status)
 232              	 .loc 1 180 0
 233 00ea 09D1     	 bne .L17
 234              	.L12:
 181:C:/Workspace/DAVE-4.4.2-64Bit/optiga-trust-m/examples/optiga\example_optiga_crypt_rsa_decrypt.c ****         {
 182:C:/Workspace/DAVE-4.4.2-64Bit/optiga-trust-m/examples/optiga\example_optiga_crypt_rsa_decrypt.c ****             break;
 183:C:/Workspace/DAVE-4.4.2-64Bit/optiga-trust-m/examples/optiga\example_optiga_crypt_rsa_decrypt.c ****         }
 184:C:/Workspace/DAVE-4.4.2-64Bit/optiga-trust-m/examples/optiga\example_optiga_crypt_rsa_decrypt.c **** 
 185:C:/Workspace/DAVE-4.4.2-64Bit/optiga-trust-m/examples/optiga\example_optiga_crypt_rsa_decrypt.c ****         while (OPTIGA_LIB_BUSY == optiga_lib_status)
 235              	 .loc 1 185 0 discriminator 1
 236 00ec 3B88     	 ldrh r3,[r7]
 237 00ee 012B     	 cmp r3,#1
 238 00f0 FCD0     	 beq .L12
 186:C:/Workspace/DAVE-4.4.2-64Bit/optiga-trust-m/examples/optiga\example_optiga_crypt_rsa_decrypt.c ****         {
 187:C:/Workspace/DAVE-4.4.2-64Bit/optiga-trust-m/examples/optiga\example_optiga_crypt_rsa_decrypt.c ****             //Wait until the optiga_crypt_rsa_decrypt_and_export operation is completed
 188:C:/Workspace/DAVE-4.4.2-64Bit/optiga-trust-m/examples/optiga\example_optiga_crypt_rsa_decrypt.c ****         }
 189:C:/Workspace/DAVE-4.4.2-64Bit/optiga-trust-m/examples/optiga\example_optiga_crypt_rsa_decrypt.c **** 
 190:C:/Workspace/DAVE-4.4.2-64Bit/optiga-trust-m/examples/optiga\example_optiga_crypt_rsa_decrypt.c ****         if (OPTIGA_LIB_SUCCESS != optiga_lib_status)
 239              	 .loc 1 190 0
 240 00f2 3B88     	 ldrh r3,[r7]
 241 00f4 002B     	 cmp r3,#0
 242 00f6 08D0     	 beq .L13
 191:C:/Workspace/DAVE-4.4.2-64Bit/optiga-trust-m/examples/optiga\example_optiga_crypt_rsa_decrypt.c ****         {
 192:C:/Workspace/DAVE-4.4.2-64Bit/optiga-trust-m/examples/optiga\example_optiga_crypt_rsa_decrypt.c ****             //RSA Decryption failed
 193:C:/Workspace/DAVE-4.4.2-64Bit/optiga-trust-m/examples/optiga\example_optiga_crypt_rsa_decrypt.c ****             return_status = optiga_lib_status;
 243              	 .loc 1 193 0
 244 00f8 3A88     	 ldrh r2,[r7]
 245              	.LVL18:
 246              	.L33:
 247 00fa 92B2     	 uxth r2,r2
 248              	.LVL19:
 194:C:/Workspace/DAVE-4.4.2-64Bit/optiga-trust-m/examples/optiga\example_optiga_crypt_rsa_decrypt.c ****             break;
 195:C:/Workspace/DAVE-4.4.2-64Bit/optiga-trust-m/examples/optiga\example_optiga_crypt_rsa_decrypt.c ****         }
 196:C:/Workspace/DAVE-4.4.2-64Bit/optiga-trust-m/examples/optiga\example_optiga_crypt_rsa_decrypt.c ****         return_status = OPTIGA_LIB_SUCCESS;
 197:C:/Workspace/DAVE-4.4.2-64Bit/optiga-trust-m/examples/optiga\example_optiga_crypt_rsa_decrypt.c **** 
 198:C:/Workspace/DAVE-4.4.2-64Bit/optiga-trust-m/examples/optiga\example_optiga_crypt_rsa_decrypt.c ****     } while (FALSE);
 199:C:/Workspace/DAVE-4.4.2-64Bit/optiga-trust-m/examples/optiga\example_optiga_crypt_rsa_decrypt.c ****     OPTIGA_EXAMPLE_LOG_STATUS(return_status);
 249              	 .loc 1 199 0
 250 00fc 002A     	 cmp r2,#0
 251 00fe 04D0     	 beq .L13
 252              	.LVL20:
 253              	.L17:
 254              	 .loc 1 199 0 is_stmt 0 discriminator 1
 255 0100 0D48     	 ldr r0,.L35+8
 256 0102 1249     	 ldr r1,.L35+28
 257 0104 FFF7FEFF 	 bl optiga_lib_print_status
 258              	.LVL21:
 259 0108 06E0     	 b .L14
 260              	.L13:
 261              	 .loc 1 199 0 discriminator 2
 262 010a 0B48     	 ldr r0,.L35+8
 263 010c 0B49     	 ldr r1,.L35+12
 264 010e 0022     	 mov r2,#0
 265 0110 FFF7FEFF 	 bl optiga_lib_print_status
 266              	.LVL22:
 200:C:/Workspace/DAVE-4.4.2-64Bit/optiga-trust-m/examples/optiga\example_optiga_crypt_rsa_decrypt.c ****     if (me)
 267              	 .loc 1 200 0 is_stmt 1 discriminator 2
 268 0114 002C     	 cmp r4,#0
 269 0116 08D0     	 beq .L4
 270              	.L14:
 201:C:/Workspace/DAVE-4.4.2-64Bit/optiga-trust-m/examples/optiga\example_optiga_crypt_rsa_decrypt.c ****     {
 202:C:/Workspace/DAVE-4.4.2-64Bit/optiga-trust-m/examples/optiga\example_optiga_crypt_rsa_decrypt.c ****         //Destroy the instance after the completion of usecase if not required.
 203:C:/Workspace/DAVE-4.4.2-64Bit/optiga-trust-m/examples/optiga\example_optiga_crypt_rsa_decrypt.c ****         return_status = optiga_crypt_destroy(me);
 271              	 .loc 1 203 0
 272 0118 201C     	 mov r0,r4
 273 011a FFF7FEFF 	 bl optiga_crypt_destroy
 274              	.LVL23:
 275 011e 021E     	 sub r2,r0,#0
 276              	.LVL24:
 204:C:/Workspace/DAVE-4.4.2-64Bit/optiga-trust-m/examples/optiga\example_optiga_crypt_rsa_decrypt.c ****         if(OPTIGA_LIB_SUCCESS != return_status)
 277              	 .loc 1 204 0
 278 0120 03D0     	 beq .L4
 205:C:/Workspace/DAVE-4.4.2-64Bit/optiga-trust-m/examples/optiga\example_optiga_crypt_rsa_decrypt.c ****         {
 206:C:/Workspace/DAVE-4.4.2-64Bit/optiga-trust-m/examples/optiga\example_optiga_crypt_rsa_decrypt.c ****             //lint --e{774} suppress This is a generic macro
 207:C:/Workspace/DAVE-4.4.2-64Bit/optiga-trust-m/examples/optiga\example_optiga_crypt_rsa_decrypt.c ****             OPTIGA_EXAMPLE_LOG_STATUS(return_status);
 279              	 .loc 1 207 0 discriminator 1
 280 0122 0548     	 ldr r0,.L35+8
 281              	.LVL25:
 282 0124 0949     	 ldr r1,.L35+28
 283 0126 FFF7FEFF 	 bl optiga_lib_print_status
 284              	.LVL26:
 285              	.L4:
 208:C:/Workspace/DAVE-4.4.2-64Bit/optiga-trust-m/examples/optiga\example_optiga_crypt_rsa_decrypt.c ****         }
 209:C:/Workspace/DAVE-4.4.2-64Bit/optiga-trust-m/examples/optiga\example_optiga_crypt_rsa_decrypt.c ****     }
 210:C:/Workspace/DAVE-4.4.2-64Bit/optiga-trust-m/examples/optiga\example_optiga_crypt_rsa_decrypt.c **** }
 286              	 .loc 1 210 0
 287 012a 7FB0     	 add sp,sp,#508
 288              	 
 289              	.LVL27:
 290 012c FFBD     	 pop {r0,r1,r2,r3,r4,r5,r6,r7,pc}
 291              	.L36:
 292 012e C046     	 .align 2
 293              	.L35:
 294 0130 20000000 	 .word .LC2
 295 0134 00000000 	 .word .LANCHOR1
 296 0138 00000000 	 .word .LC5
 297 013c 15000000 	 .word .LC7
 298 0140 00000000 	 .word optiga_crypt_callback
 299 0144 00000000 	 .word .LANCHOR0
 300 0148 FCE0FFFF 	 .word -7940
 301 014c 1A000000 	 .word .LC11
 302              	 .cfi_endproc
 303              	.LFE1:
 305              	 .section .text.example_optiga_crypt_rsa_decrypt_and_store,"ax",%progbits
 306              	 .align 1
 307              	 .global example_optiga_crypt_rsa_decrypt_and_store
 308              	 .code 16
 309              	 .thumb_func
 311              	example_optiga_crypt_rsa_decrypt_and_store:
 312              	.LFB2:
 211:C:/Workspace/DAVE-4.4.2-64Bit/optiga-trust-m/examples/optiga\example_optiga_crypt_rsa_decrypt.c **** 
 212:C:/Workspace/DAVE-4.4.2-64Bit/optiga-trust-m/examples/optiga\example_optiga_crypt_rsa_decrypt.c **** /**
 213:C:/Workspace/DAVE-4.4.2-64Bit/optiga-trust-m/examples/optiga\example_optiga_crypt_rsa_decrypt.c ****  * The below example demonstrates RSA decryption
 214:C:/Workspace/DAVE-4.4.2-64Bit/optiga-trust-m/examples/optiga\example_optiga_crypt_rsa_decrypt.c ****  * #optiga_crypt_rsa_decrypt_and_store where decrypted message get stored in session context
 215:C:/Workspace/DAVE-4.4.2-64Bit/optiga-trust-m/examples/optiga\example_optiga_crypt_rsa_decrypt.c ****  *
 216:C:/Workspace/DAVE-4.4.2-64Bit/optiga-trust-m/examples/optiga\example_optiga_crypt_rsa_decrypt.c ****  */
 217:C:/Workspace/DAVE-4.4.2-64Bit/optiga-trust-m/examples/optiga\example_optiga_crypt_rsa_decrypt.c **** void example_optiga_crypt_rsa_decrypt_and_store(void)
 218:C:/Workspace/DAVE-4.4.2-64Bit/optiga-trust-m/examples/optiga\example_optiga_crypt_rsa_decrypt.c **** {
 313              	 .loc 1 218 0
 314              	 .cfi_startproc
 315              	.LVL28:
 316 0000 F0B5     	 push {r4,r5,r6,r7,lr}
 317              	.LCFI2:
 318              	 .cfi_def_cfa_offset 20
 319              	 .cfi_offset 4,-20
 320              	 .cfi_offset 5,-16
 321              	 .cfi_offset 6,-12
 322              	 .cfi_offset 7,-8
 323              	 .cfi_offset 14,-4
 324 0002 CFB0     	 sub sp,sp,#316
 325              	.LCFI3:
 326              	 .cfi_def_cfa_offset 336
 219:C:/Workspace/DAVE-4.4.2-64Bit/optiga-trust-m/examples/optiga\example_optiga_crypt_rsa_decrypt.c ****     optiga_lib_status_t return_status = 0;
 220:C:/Workspace/DAVE-4.4.2-64Bit/optiga-trust-m/examples/optiga\example_optiga_crypt_rsa_decrypt.c ****     optiga_key_id_t optiga_key_id;
 221:C:/Workspace/DAVE-4.4.2-64Bit/optiga-trust-m/examples/optiga\example_optiga_crypt_rsa_decrypt.c ****     optiga_rsa_encryption_scheme_t encryption_scheme;
 222:C:/Workspace/DAVE-4.4.2-64Bit/optiga-trust-m/examples/optiga\example_optiga_crypt_rsa_decrypt.c ****     public_key_from_host_t public_key_from_host;
 223:C:/Workspace/DAVE-4.4.2-64Bit/optiga-trust-m/examples/optiga\example_optiga_crypt_rsa_decrypt.c ****     uint8_t encrypted_message[128];
 224:C:/Workspace/DAVE-4.4.2-64Bit/optiga-trust-m/examples/optiga\example_optiga_crypt_rsa_decrypt.c ****     uint16_t encrypted_message_length = sizeof(encrypted_message);
 327              	 .loc 1 224 0
 328 0004 6A46     	 mov r2,sp
 329 0006 8023     	 mov r3,#128
 330 0008 9382     	 strh r3,[r2,#20]
 225:C:/Workspace/DAVE-4.4.2-64Bit/optiga-trust-m/examples/optiga\example_optiga_crypt_rsa_decrypt.c ****     uint8_t public_key [150];
 226:C:/Workspace/DAVE-4.4.2-64Bit/optiga-trust-m/examples/optiga\example_optiga_crypt_rsa_decrypt.c ****     uint16_t public_key_length = sizeof(public_key);
 331              	 .loc 1 226 0
 332 000a 1633     	 add r3,r3,#22
 333 000c D382     	 strh r3,[r2,#22]
 227:C:/Workspace/DAVE-4.4.2-64Bit/optiga-trust-m/examples/optiga\example_optiga_crypt_rsa_decrypt.c ****     const uint8_t optional_data[] = {0x01, 0x02};
 334              	 .loc 1 227 0
 335 000e 4F49     	 ldr r1,.L71
 336 0010 0222     	 mov r2,#2
 337 0012 04A8     	 add r0,sp,#16
 338 0014 FFF7FEFF 	 bl memcpy
 339              	.LVL29:
 228:C:/Workspace/DAVE-4.4.2-64Bit/optiga-trust-m/examples/optiga\example_optiga_crypt_rsa_decrypt.c **** 
 229:C:/Workspace/DAVE-4.4.2-64Bit/optiga-trust-m/examples/optiga\example_optiga_crypt_rsa_decrypt.c ****     optiga_crypt_t * me = NULL;
 230:C:/Workspace/DAVE-4.4.2-64Bit/optiga-trust-m/examples/optiga\example_optiga_crypt_rsa_decrypt.c ****     OPTIGA_EXAMPLE_LOG_MESSAGE(__FUNCTION__);
 340              	 .loc 1 230 0
 341 0018 4D4D     	 ldr r5,.L71+4
 342 001a 4E48     	 ldr r0,.L71+8
 343 001c 291C     	 mov r1,r5
 344 001e 4E4A     	 ldr r2,.L71+12
 345 0020 FFF7FEFF 	 bl optiga_lib_print_message
 346              	.LVL30:
 231:C:/Workspace/DAVE-4.4.2-64Bit/optiga-trust-m/examples/optiga\example_optiga_crypt_rsa_decrypt.c **** 
 232:C:/Workspace/DAVE-4.4.2-64Bit/optiga-trust-m/examples/optiga\example_optiga_crypt_rsa_decrypt.c ****     do
 233:C:/Workspace/DAVE-4.4.2-64Bit/optiga-trust-m/examples/optiga\example_optiga_crypt_rsa_decrypt.c ****     {
 234:C:/Workspace/DAVE-4.4.2-64Bit/optiga-trust-m/examples/optiga\example_optiga_crypt_rsa_decrypt.c ****         /**
 235:C:/Workspace/DAVE-4.4.2-64Bit/optiga-trust-m/examples/optiga\example_optiga_crypt_rsa_decrypt.c ****          * 1. Create OPTIGA Crypt Instance
 236:C:/Workspace/DAVE-4.4.2-64Bit/optiga-trust-m/examples/optiga\example_optiga_crypt_rsa_decrypt.c ****          *
 237:C:/Workspace/DAVE-4.4.2-64Bit/optiga-trust-m/examples/optiga\example_optiga_crypt_rsa_decrypt.c ****          */
 238:C:/Workspace/DAVE-4.4.2-64Bit/optiga-trust-m/examples/optiga\example_optiga_crypt_rsa_decrypt.c ****         me = optiga_crypt_create(0, optiga_crypt_callback, NULL);
 347              	 .loc 1 238 0
 348 0024 0020     	 mov r0,#0
 349 0026 4D49     	 ldr r1,.L71+16
 350 0028 021C     	 mov r2,r0
 351 002a FFF7FEFF 	 bl optiga_crypt_create
 352              	.LVL31:
 353 002e 041E     	 sub r4,r0,#0
 354              	.LVL32:
 239:C:/Workspace/DAVE-4.4.2-64Bit/optiga-trust-m/examples/optiga\example_optiga_crypt_rsa_decrypt.c ****         if (NULL == me)
 355              	 .loc 1 239 0
 356 0030 00D1     	 bne .LCB312
 357 0032 78E0     	 b .L48
 358              	.LCB312:
 240:C:/Workspace/DAVE-4.4.2-64Bit/optiga-trust-m/examples/optiga\example_optiga_crypt_rsa_decrypt.c ****         {
 241:C:/Workspace/DAVE-4.4.2-64Bit/optiga-trust-m/examples/optiga\example_optiga_crypt_rsa_decrypt.c ****             break;
 242:C:/Workspace/DAVE-4.4.2-64Bit/optiga-trust-m/examples/optiga\example_optiga_crypt_rsa_decrypt.c ****         }
 243:C:/Workspace/DAVE-4.4.2-64Bit/optiga-trust-m/examples/optiga\example_optiga_crypt_rsa_decrypt.c **** 
 244:C:/Workspace/DAVE-4.4.2-64Bit/optiga-trust-m/examples/optiga\example_optiga_crypt_rsa_decrypt.c ****         /**
 245:C:/Workspace/DAVE-4.4.2-64Bit/optiga-trust-m/examples/optiga\example_optiga_crypt_rsa_decrypt.c ****          * 2. Generate RSA Key pair
 246:C:/Workspace/DAVE-4.4.2-64Bit/optiga-trust-m/examples/optiga\example_optiga_crypt_rsa_decrypt.c ****          *       - Use 1024 or 2048 bit RSA key
 247:C:/Workspace/DAVE-4.4.2-64Bit/optiga-trust-m/examples/optiga\example_optiga_crypt_rsa_decrypt.c ****          *       - Specify the Key Usage
 248:C:/Workspace/DAVE-4.4.2-64Bit/optiga-trust-m/examples/optiga\example_optiga_crypt_rsa_decrypt.c ****          *       - Store the Private key in OPTIGA Key store
 249:C:/Workspace/DAVE-4.4.2-64Bit/optiga-trust-m/examples/optiga\example_optiga_crypt_rsa_decrypt.c ****          *       - Export Public Key
 250:C:/Workspace/DAVE-4.4.2-64Bit/optiga-trust-m/examples/optiga\example_optiga_crypt_rsa_decrypt.c ****          */
 251:C:/Workspace/DAVE-4.4.2-64Bit/optiga-trust-m/examples/optiga\example_optiga_crypt_rsa_decrypt.c ****         optiga_lib_status = OPTIGA_LIB_BUSY;
 359              	 .loc 1 251 0
 360 0034 0123     	 mov r3,#1
 252:C:/Workspace/DAVE-4.4.2-64Bit/optiga-trust-m/examples/optiga\example_optiga_crypt_rsa_decrypt.c ****         optiga_key_id = OPTIGA_KEY_ID_E0FC;
 361              	 .loc 1 252 0
 362 0036 6A46     	 mov r2,sp
 251:C:/Workspace/DAVE-4.4.2-64Bit/optiga-trust-m/examples/optiga\example_optiga_crypt_rsa_decrypt.c ****         optiga_key_id = OPTIGA_KEY_ID_E0FC;
 363              	 .loc 1 251 0
 364 0038 494E     	 ldr r6,.L71+20
 253:C:/Workspace/DAVE-4.4.2-64Bit/optiga-trust-m/examples/optiga\example_optiga_crypt_rsa_decrypt.c ****         return_status = optiga_crypt_rsa_generate_keypair(me,
 365              	 .loc 1 253 0
 366 003a 4121     	 mov r1,#65
 251:C:/Workspace/DAVE-4.4.2-64Bit/optiga-trust-m/examples/optiga\example_optiga_crypt_rsa_decrypt.c ****         optiga_key_id = OPTIGA_KEY_ID_E0FC;
 367              	 .loc 1 251 0
 368 003c 3380     	 strh r3,[r6]
 252:C:/Workspace/DAVE-4.4.2-64Bit/optiga-trust-m/examples/optiga\example_optiga_crypt_rsa_decrypt.c ****         optiga_key_id = OPTIGA_KEY_ID_E0FC;
 369              	 .loc 1 252 0
 370 003e 494B     	 ldr r3,.L71+24
 371 0040 5382     	 strh r3,[r2,#18]
 372              	 .loc 1 253 0
 373 0042 1223     	 mov r3,#18
 374 0044 6B44     	 add r3,r3,sp
 375 0046 0093     	 str r3,[sp]
 376 0048 28AB     	 add r3,sp,#160
 377 004a 0193     	 str r3,[sp,#4]
 378 004c 1623     	 mov r3,#22
 379 004e 6B44     	 add r3,r3,sp
 380 0050 0293     	 str r3,[sp,#8]
 381 0052 0222     	 mov r2,#2
 382 0054 0023     	 mov r3,#0
 383 0056 FFF7FEFF 	 bl optiga_crypt_rsa_generate_keypair
 384              	.LVL33:
 385 005a 021E     	 sub r2,r0,#0
 386              	.LVL34:
 254:C:/Workspace/DAVE-4.4.2-64Bit/optiga-trust-m/examples/optiga\example_optiga_crypt_rsa_decrypt.c ****                                                           OPTIGA_RSA_KEY_1024_BIT_EXPONENTIAL,
 255:C:/Workspace/DAVE-4.4.2-64Bit/optiga-trust-m/examples/optiga\example_optiga_crypt_rsa_decrypt.c ****                                                           (uint8_t)OPTIGA_KEY_USAGE_ENCRYPTION,
 256:C:/Workspace/DAVE-4.4.2-64Bit/optiga-trust-m/examples/optiga\example_optiga_crypt_rsa_decrypt.c ****                                                           FALSE,
 257:C:/Workspace/DAVE-4.4.2-64Bit/optiga-trust-m/examples/optiga\example_optiga_crypt_rsa_decrypt.c ****                                                           &optiga_key_id,
 258:C:/Workspace/DAVE-4.4.2-64Bit/optiga-trust-m/examples/optiga\example_optiga_crypt_rsa_decrypt.c ****                                                           public_key,
 259:C:/Workspace/DAVE-4.4.2-64Bit/optiga-trust-m/examples/optiga\example_optiga_crypt_rsa_decrypt.c ****                                                           &public_key_length);
 260:C:/Workspace/DAVE-4.4.2-64Bit/optiga-trust-m/examples/optiga\example_optiga_crypt_rsa_decrypt.c ****         if (OPTIGA_LIB_SUCCESS != return_status)
 387              	 .loc 1 260 0
 388 005c 5ED1     	 bne .L52
 389              	.L40:
 261:C:/Workspace/DAVE-4.4.2-64Bit/optiga-trust-m/examples/optiga\example_optiga_crypt_rsa_decrypt.c ****         {
 262:C:/Workspace/DAVE-4.4.2-64Bit/optiga-trust-m/examples/optiga\example_optiga_crypt_rsa_decrypt.c ****             break;
 263:C:/Workspace/DAVE-4.4.2-64Bit/optiga-trust-m/examples/optiga\example_optiga_crypt_rsa_decrypt.c ****         }
 264:C:/Workspace/DAVE-4.4.2-64Bit/optiga-trust-m/examples/optiga\example_optiga_crypt_rsa_decrypt.c **** 
 265:C:/Workspace/DAVE-4.4.2-64Bit/optiga-trust-m/examples/optiga\example_optiga_crypt_rsa_decrypt.c ****         while (OPTIGA_LIB_BUSY == optiga_lib_status)
 390              	 .loc 1 265 0 discriminator 1
 391 005e 3388     	 ldrh r3,[r6]
 392 0060 012B     	 cmp r3,#1
 393 0062 FCD0     	 beq .L40
 266:C:/Workspace/DAVE-4.4.2-64Bit/optiga-trust-m/examples/optiga\example_optiga_crypt_rsa_decrypt.c ****         {
 267:C:/Workspace/DAVE-4.4.2-64Bit/optiga-trust-m/examples/optiga\example_optiga_crypt_rsa_decrypt.c ****             //Wait until the optiga_crypt_rsa_generate_keypair operation is completed
 268:C:/Workspace/DAVE-4.4.2-64Bit/optiga-trust-m/examples/optiga\example_optiga_crypt_rsa_decrypt.c ****         }
 269:C:/Workspace/DAVE-4.4.2-64Bit/optiga-trust-m/examples/optiga\example_optiga_crypt_rsa_decrypt.c **** 
 270:C:/Workspace/DAVE-4.4.2-64Bit/optiga-trust-m/examples/optiga\example_optiga_crypt_rsa_decrypt.c ****         if (OPTIGA_LIB_SUCCESS != optiga_lib_status)
 394              	 .loc 1 270 0
 395 0064 3388     	 ldrh r3,[r6]
 396 0066 002B     	 cmp r3,#0
 397 0068 01D0     	 beq .L41
 271:C:/Workspace/DAVE-4.4.2-64Bit/optiga-trust-m/examples/optiga\example_optiga_crypt_rsa_decrypt.c ****         {
 272:C:/Workspace/DAVE-4.4.2-64Bit/optiga-trust-m/examples/optiga\example_optiga_crypt_rsa_decrypt.c ****             //Key pair generation failed
 273:C:/Workspace/DAVE-4.4.2-64Bit/optiga-trust-m/examples/optiga\example_optiga_crypt_rsa_decrypt.c ****             return_status = optiga_lib_status;
 398              	 .loc 1 273 0
 399 006a 3288     	 ldrh r2,[r6]
 400 006c 53E0     	 b .L69
 401              	.L41:
 274:C:/Workspace/DAVE-4.4.2-64Bit/optiga-trust-m/examples/optiga\example_optiga_crypt_rsa_decrypt.c ****             break;
 275:C:/Workspace/DAVE-4.4.2-64Bit/optiga-trust-m/examples/optiga\example_optiga_crypt_rsa_decrypt.c ****         }
 276:C:/Workspace/DAVE-4.4.2-64Bit/optiga-trust-m/examples/optiga\example_optiga_crypt_rsa_decrypt.c ****         /**
 277:C:/Workspace/DAVE-4.4.2-64Bit/optiga-trust-m/examples/optiga\example_optiga_crypt_rsa_decrypt.c ****          * 3. Generate 0x46 byte RSA Pre master secret which is stored in acquired session OID
 278:C:/Workspace/DAVE-4.4.2-64Bit/optiga-trust-m/examples/optiga\example_optiga_crypt_rsa_decrypt.c ****          */
 279:C:/Workspace/DAVE-4.4.2-64Bit/optiga-trust-m/examples/optiga\example_optiga_crypt_rsa_decrypt.c ****         optiga_lib_status = OPTIGA_LIB_BUSY;
 402              	 .loc 1 279 0
 403 006e 0123     	 mov r3,#1
 280:C:/Workspace/DAVE-4.4.2-64Bit/optiga-trust-m/examples/optiga\example_optiga_crypt_rsa_decrypt.c ****         return_status = optiga_crypt_rsa_generate_pre_master_secret(me,
 404              	 .loc 1 280 0
 405 0070 0222     	 mov r2,#2
 279:C:/Workspace/DAVE-4.4.2-64Bit/optiga-trust-m/examples/optiga\example_optiga_crypt_rsa_decrypt.c ****         return_status = optiga_crypt_rsa_generate_pre_master_secret(me,
 406              	 .loc 1 279 0
 407 0072 3380     	 strh r3,[r6]
 408              	 .loc 1 280 0
 409 0074 201C     	 mov r0,r4
 410              	.LVL35:
 411 0076 04A9     	 add r1,sp,#16
 412 0078 1D33     	 add r3,r3,#29
 413 007a FFF7FEFF 	 bl optiga_crypt_rsa_generate_pre_master_secret
 414              	.LVL36:
 415 007e 021E     	 sub r2,r0,#0
 416              	.LVL37:
 281:C:/Workspace/DAVE-4.4.2-64Bit/optiga-trust-m/examples/optiga\example_optiga_crypt_rsa_decrypt.c ****                                                                     optional_data,
 282:C:/Workspace/DAVE-4.4.2-64Bit/optiga-trust-m/examples/optiga\example_optiga_crypt_rsa_decrypt.c ****                                                                     sizeof(optional_data),
 283:C:/Workspace/DAVE-4.4.2-64Bit/optiga-trust-m/examples/optiga\example_optiga_crypt_rsa_decrypt.c ****                                                                     30);
 284:C:/Workspace/DAVE-4.4.2-64Bit/optiga-trust-m/examples/optiga\example_optiga_crypt_rsa_decrypt.c **** 
 285:C:/Workspace/DAVE-4.4.2-64Bit/optiga-trust-m/examples/optiga\example_optiga_crypt_rsa_decrypt.c ****         if (OPTIGA_LIB_SUCCESS != return_status)
 417              	 .loc 1 285 0
 418 0080 4CD1     	 bne .L52
 419              	.L43:
 286:C:/Workspace/DAVE-4.4.2-64Bit/optiga-trust-m/examples/optiga\example_optiga_crypt_rsa_decrypt.c ****         {
 287:C:/Workspace/DAVE-4.4.2-64Bit/optiga-trust-m/examples/optiga\example_optiga_crypt_rsa_decrypt.c ****             break;
 288:C:/Workspace/DAVE-4.4.2-64Bit/optiga-trust-m/examples/optiga\example_optiga_crypt_rsa_decrypt.c ****         }
 289:C:/Workspace/DAVE-4.4.2-64Bit/optiga-trust-m/examples/optiga\example_optiga_crypt_rsa_decrypt.c **** 
 290:C:/Workspace/DAVE-4.4.2-64Bit/optiga-trust-m/examples/optiga\example_optiga_crypt_rsa_decrypt.c ****         while (OPTIGA_LIB_BUSY == optiga_lib_status)
 420              	 .loc 1 290 0 discriminator 1
 421 0082 374B     	 ldr r3,.L71+20
 422 0084 1A88     	 ldrh r2,[r3]
 423 0086 012A     	 cmp r2,#1
 424 0088 FBD0     	 beq .L43
 291:C:/Workspace/DAVE-4.4.2-64Bit/optiga-trust-m/examples/optiga\example_optiga_crypt_rsa_decrypt.c ****         {
 292:C:/Workspace/DAVE-4.4.2-64Bit/optiga-trust-m/examples/optiga\example_optiga_crypt_rsa_decrypt.c ****             //Wait until the optiga_crypt_random operation is completed
 293:C:/Workspace/DAVE-4.4.2-64Bit/optiga-trust-m/examples/optiga\example_optiga_crypt_rsa_decrypt.c ****         }
 294:C:/Workspace/DAVE-4.4.2-64Bit/optiga-trust-m/examples/optiga\example_optiga_crypt_rsa_decrypt.c **** 
 295:C:/Workspace/DAVE-4.4.2-64Bit/optiga-trust-m/examples/optiga\example_optiga_crypt_rsa_decrypt.c ****         if (OPTIGA_LIB_SUCCESS != optiga_lib_status)
 425              	 .loc 1 295 0
 426 008a 1E88     	 ldrh r6,[r3]
 427 008c B6B2     	 uxth r6,r6
 428 008e 002E     	 cmp r6,#0
 429 0090 40D1     	 bne .L70
 296:C:/Workspace/DAVE-4.4.2-64Bit/optiga-trust-m/examples/optiga\example_optiga_crypt_rsa_decrypt.c ****         {
 297:C:/Workspace/DAVE-4.4.2-64Bit/optiga-trust-m/examples/optiga\example_optiga_crypt_rsa_decrypt.c ****             return_status = optiga_lib_status;
 298:C:/Workspace/DAVE-4.4.2-64Bit/optiga-trust-m/examples/optiga\example_optiga_crypt_rsa_decrypt.c ****             break;
 299:C:/Workspace/DAVE-4.4.2-64Bit/optiga-trust-m/examples/optiga\example_optiga_crypt_rsa_decrypt.c ****         }
 300:C:/Workspace/DAVE-4.4.2-64Bit/optiga-trust-m/examples/optiga\example_optiga_crypt_rsa_decrypt.c **** 
 301:C:/Workspace/DAVE-4.4.2-64Bit/optiga-trust-m/examples/optiga\example_optiga_crypt_rsa_decrypt.c ****         optiga_lib_status = OPTIGA_LIB_BUSY;
 430              	 .loc 1 301 0
 431 0092 0127     	 mov r7,#1
 302:C:/Workspace/DAVE-4.4.2-64Bit/optiga-trust-m/examples/optiga\example_optiga_crypt_rsa_decrypt.c **** 
 303:C:/Workspace/DAVE-4.4.2-64Bit/optiga-trust-m/examples/optiga\example_optiga_crypt_rsa_decrypt.c ****         /**
 304:C:/Workspace/DAVE-4.4.2-64Bit/optiga-trust-m/examples/optiga\example_optiga_crypt_rsa_decrypt.c ****          * 4. Encrypt(RSA) the data stored in session OID
 305:C:/Workspace/DAVE-4.4.2-64Bit/optiga-trust-m/examples/optiga\example_optiga_crypt_rsa_decrypt.c ****          */
 306:C:/Workspace/DAVE-4.4.2-64Bit/optiga-trust-m/examples/optiga\example_optiga_crypt_rsa_decrypt.c **** 
 307:C:/Workspace/DAVE-4.4.2-64Bit/optiga-trust-m/examples/optiga\example_optiga_crypt_rsa_decrypt.c ****         // OPTIGA Comms Shielded connection settings to enable the protection
 308:C:/Workspace/DAVE-4.4.2-64Bit/optiga-trust-m/examples/optiga\example_optiga_crypt_rsa_decrypt.c ****         OPTIGA_CRYPT_SET_COMMS_PROTOCOL_VERSION(me, OPTIGA_COMMS_PROTOCOL_VERSION_PRE_SHARED_SECRET
 432              	 .loc 1 308 0
 433 0094 201C     	 mov r0,r4
 434              	.LVL38:
 435 0096 3A1C     	 mov r2,r7
 436 0098 0221     	 mov r1,#2
 301:C:/Workspace/DAVE-4.4.2-64Bit/optiga-trust-m/examples/optiga\example_optiga_crypt_rsa_decrypt.c **** 
 437              	 .loc 1 301 0
 438 009a 1F80     	 strh r7,[r3]
 439              	 .loc 1 308 0
 440 009c FFF7FEFF 	 bl optiga_crypt_set_comms_params
 441              	.LVL39:
 309:C:/Workspace/DAVE-4.4.2-64Bit/optiga-trust-m/examples/optiga\example_optiga_crypt_rsa_decrypt.c ****         OPTIGA_CRYPT_SET_COMMS_PROTECTION_LEVEL(me, OPTIGA_COMMS_COMMAND_PROTECTION);
 442              	 .loc 1 309 0
 443 00a0 391C     	 mov r1,r7
 444 00a2 3A1C     	 mov r2,r7
 445 00a4 201C     	 mov r0,r4
 446 00a6 FFF7FEFF 	 bl optiga_crypt_set_comms_params
 447              	.LVL40:
 310:C:/Workspace/DAVE-4.4.2-64Bit/optiga-trust-m/examples/optiga\example_optiga_crypt_rsa_decrypt.c **** 
 311:C:/Workspace/DAVE-4.4.2-64Bit/optiga-trust-m/examples/optiga\example_optiga_crypt_rsa_decrypt.c ****         encryption_scheme = OPTIGA_RSAES_PKCS1_V15;
 312:C:/Workspace/DAVE-4.4.2-64Bit/optiga-trust-m/examples/optiga\example_optiga_crypt_rsa_decrypt.c ****         public_key_from_host.public_key = public_key;
 448              	 .loc 1 312 0
 449 00aa 28AA     	 add r2,sp,#160
 450 00ac 0692     	 str r2,[sp,#24]
 313:C:/Workspace/DAVE-4.4.2-64Bit/optiga-trust-m/examples/optiga\example_optiga_crypt_rsa_decrypt.c ****         public_key_from_host.length = public_key_length;
 451              	 .loc 1 313 0
 452 00ae 6A46     	 mov r2,sp
 453 00b0 D28A     	 ldrh r2,[r2,#22]
 312:C:/Workspace/DAVE-4.4.2-64Bit/optiga-trust-m/examples/optiga\example_optiga_crypt_rsa_decrypt.c ****         public_key_from_host.length = public_key_length;
 454              	 .loc 1 312 0
 455 00b2 06AB     	 add r3,sp,#24
 456              	 .loc 1 313 0
 457 00b4 9A80     	 strh r2,[r3,#4]
 314:C:/Workspace/DAVE-4.4.2-64Bit/optiga-trust-m/examples/optiga\example_optiga_crypt_rsa_decrypt.c ****         public_key_from_host.key_type = (uint8_t)OPTIGA_RSA_KEY_1024_BIT_EXPONENTIAL;
 458              	 .loc 1 314 0
 459 00b6 4122     	 mov r2,#65
 460 00b8 9A71     	 strb r2,[r3,#6]
 315:C:/Workspace/DAVE-4.4.2-64Bit/optiga-trust-m/examples/optiga\example_optiga_crypt_rsa_decrypt.c **** 
 316:C:/Workspace/DAVE-4.4.2-64Bit/optiga-trust-m/examples/optiga\example_optiga_crypt_rsa_decrypt.c ****         return_status = optiga_crypt_rsa_encrypt_session(me,
 461              	 .loc 1 316 0
 462 00ba 0097     	 str r7,[sp]
 463 00bc 0193     	 str r3,[sp,#4]
 464 00be 08AF     	 add r7,sp,#32
 465 00c0 05AB     	 add r3,sp,#20
 466 00c2 0393     	 str r3,[sp,#12]
 467 00c4 321C     	 mov r2,r6
 468 00c6 0297     	 str r7,[sp,#8]
 469 00c8 201C     	 mov r0,r4
 470 00ca 1121     	 mov r1,#17
 471 00cc 331C     	 mov r3,r6
 472 00ce FFF7FEFF 	 bl optiga_crypt_rsa_encrypt_session
 473              	.LVL41:
 474 00d2 021E     	 sub r2,r0,#0
 475              	.LVL42:
 317:C:/Workspace/DAVE-4.4.2-64Bit/optiga-trust-m/examples/optiga\example_optiga_crypt_rsa_decrypt.c ****                                                          encryption_scheme,
 318:C:/Workspace/DAVE-4.4.2-64Bit/optiga-trust-m/examples/optiga\example_optiga_crypt_rsa_decrypt.c ****                                                          NULL,
 319:C:/Workspace/DAVE-4.4.2-64Bit/optiga-trust-m/examples/optiga\example_optiga_crypt_rsa_decrypt.c ****                                                          0,
 320:C:/Workspace/DAVE-4.4.2-64Bit/optiga-trust-m/examples/optiga\example_optiga_crypt_rsa_decrypt.c ****                                                          OPTIGA_CRYPT_HOST_DATA,
 321:C:/Workspace/DAVE-4.4.2-64Bit/optiga-trust-m/examples/optiga\example_optiga_crypt_rsa_decrypt.c ****                                                          &public_key_from_host,
 322:C:/Workspace/DAVE-4.4.2-64Bit/optiga-trust-m/examples/optiga\example_optiga_crypt_rsa_decrypt.c ****                                                          encrypted_message,
 323:C:/Workspace/DAVE-4.4.2-64Bit/optiga-trust-m/examples/optiga\example_optiga_crypt_rsa_decrypt.c ****                                                          &encrypted_message_length);
 324:C:/Workspace/DAVE-4.4.2-64Bit/optiga-trust-m/examples/optiga\example_optiga_crypt_rsa_decrypt.c **** 
 325:C:/Workspace/DAVE-4.4.2-64Bit/optiga-trust-m/examples/optiga\example_optiga_crypt_rsa_decrypt.c ****         if (OPTIGA_LIB_SUCCESS != return_status)
 476              	 .loc 1 325 0
 477 00d4 22D1     	 bne .L52
 478              	.L45:
 326:C:/Workspace/DAVE-4.4.2-64Bit/optiga-trust-m/examples/optiga\example_optiga_crypt_rsa_decrypt.c ****         {
 327:C:/Workspace/DAVE-4.4.2-64Bit/optiga-trust-m/examples/optiga\example_optiga_crypt_rsa_decrypt.c ****             break;
 328:C:/Workspace/DAVE-4.4.2-64Bit/optiga-trust-m/examples/optiga\example_optiga_crypt_rsa_decrypt.c ****         }
 329:C:/Workspace/DAVE-4.4.2-64Bit/optiga-trust-m/examples/optiga\example_optiga_crypt_rsa_decrypt.c **** 
 330:C:/Workspace/DAVE-4.4.2-64Bit/optiga-trust-m/examples/optiga\example_optiga_crypt_rsa_decrypt.c ****         while (OPTIGA_LIB_BUSY == optiga_lib_status)
 479              	 .loc 1 330 0 discriminator 1
 480 00d6 224B     	 ldr r3,.L71+20
 481 00d8 1A88     	 ldrh r2,[r3]
 482 00da 012A     	 cmp r2,#1
 483 00dc FBD0     	 beq .L45
 331:C:/Workspace/DAVE-4.4.2-64Bit/optiga-trust-m/examples/optiga\example_optiga_crypt_rsa_decrypt.c ****         {
 332:C:/Workspace/DAVE-4.4.2-64Bit/optiga-trust-m/examples/optiga\example_optiga_crypt_rsa_decrypt.c ****             //Wait until the optiga_crypt_rsa_encrypt_session operation is completed
 333:C:/Workspace/DAVE-4.4.2-64Bit/optiga-trust-m/examples/optiga\example_optiga_crypt_rsa_decrypt.c ****         }
 334:C:/Workspace/DAVE-4.4.2-64Bit/optiga-trust-m/examples/optiga\example_optiga_crypt_rsa_decrypt.c **** 
 335:C:/Workspace/DAVE-4.4.2-64Bit/optiga-trust-m/examples/optiga\example_optiga_crypt_rsa_decrypt.c ****         if (OPTIGA_LIB_SUCCESS != optiga_lib_status)
 484              	 .loc 1 335 0
 485 00de 1A88     	 ldrh r2,[r3]
 486 00e0 92B2     	 uxth r2,r2
 487 00e2 002A     	 cmp r2,#0
 488 00e4 16D1     	 bne .L70
 336:C:/Workspace/DAVE-4.4.2-64Bit/optiga-trust-m/examples/optiga\example_optiga_crypt_rsa_decrypt.c ****         {
 337:C:/Workspace/DAVE-4.4.2-64Bit/optiga-trust-m/examples/optiga\example_optiga_crypt_rsa_decrypt.c ****             //Encryption failed
 338:C:/Workspace/DAVE-4.4.2-64Bit/optiga-trust-m/examples/optiga\example_optiga_crypt_rsa_decrypt.c ****             return_status = optiga_lib_status;
 339:C:/Workspace/DAVE-4.4.2-64Bit/optiga-trust-m/examples/optiga\example_optiga_crypt_rsa_decrypt.c ****             break;
 340:C:/Workspace/DAVE-4.4.2-64Bit/optiga-trust-m/examples/optiga\example_optiga_crypt_rsa_decrypt.c ****         }
 341:C:/Workspace/DAVE-4.4.2-64Bit/optiga-trust-m/examples/optiga\example_optiga_crypt_rsa_decrypt.c ****         /**
 342:C:/Workspace/DAVE-4.4.2-64Bit/optiga-trust-m/examples/optiga\example_optiga_crypt_rsa_decrypt.c ****          * 5. RSA decryption
 343:C:/Workspace/DAVE-4.4.2-64Bit/optiga-trust-m/examples/optiga\example_optiga_crypt_rsa_decrypt.c ****          */
 344:C:/Workspace/DAVE-4.4.2-64Bit/optiga-trust-m/examples/optiga\example_optiga_crypt_rsa_decrypt.c ****         optiga_lib_status = OPTIGA_LIB_BUSY;
 489              	 .loc 1 344 0
 490 00e6 0121     	 mov r1,#1
 491 00e8 1980     	 strh r1,[r3]
 345:C:/Workspace/DAVE-4.4.2-64Bit/optiga-trust-m/examples/optiga\example_optiga_crypt_rsa_decrypt.c ****         encryption_scheme = OPTIGA_RSAES_PKCS1_V15;
 346:C:/Workspace/DAVE-4.4.2-64Bit/optiga-trust-m/examples/optiga\example_optiga_crypt_rsa_decrypt.c ****         return_status = optiga_crypt_rsa_decrypt_and_store(me,
 492              	 .loc 1 346 0
 493 00ea 6B46     	 mov r3,sp
 494 00ec 9B8A     	 ldrh r3,[r3,#20]
 495 00ee 0092     	 str r2,[sp]
 496 00f0 0192     	 str r2,[sp,#4]
 497 00f2 6A46     	 mov r2,sp
 498 00f4 528A     	 ldrh r2,[r2,#18]
 499 00f6 201C     	 mov r0,r4
 500              	.LVL43:
 501 00f8 0292     	 str r2,[sp,#8]
 502 00fa 1031     	 add r1,r1,#16
 503 00fc 3A1C     	 mov r2,r7
 504 00fe FFF7FEFF 	 bl optiga_crypt_rsa_decrypt_and_store
 505              	.LVL44:
 506 0102 021E     	 sub r2,r0,#0
 507              	.LVL45:
 347:C:/Workspace/DAVE-4.4.2-64Bit/optiga-trust-m/examples/optiga\example_optiga_crypt_rsa_decrypt.c ****                                                            encryption_scheme,
 348:C:/Workspace/DAVE-4.4.2-64Bit/optiga-trust-m/examples/optiga\example_optiga_crypt_rsa_decrypt.c ****                                                            encrypted_message,
 349:C:/Workspace/DAVE-4.4.2-64Bit/optiga-trust-m/examples/optiga\example_optiga_crypt_rsa_decrypt.c ****                                                            encrypted_message_length,
 350:C:/Workspace/DAVE-4.4.2-64Bit/optiga-trust-m/examples/optiga\example_optiga_crypt_rsa_decrypt.c ****                                                            NULL,
 351:C:/Workspace/DAVE-4.4.2-64Bit/optiga-trust-m/examples/optiga\example_optiga_crypt_rsa_decrypt.c ****                                                            0,
 352:C:/Workspace/DAVE-4.4.2-64Bit/optiga-trust-m/examples/optiga\example_optiga_crypt_rsa_decrypt.c ****                                                            optiga_key_id);
 353:C:/Workspace/DAVE-4.4.2-64Bit/optiga-trust-m/examples/optiga\example_optiga_crypt_rsa_decrypt.c ****         if (OPTIGA_LIB_SUCCESS != return_status)
 508              	 .loc 1 353 0
 509 0104 0AD1     	 bne .L52
 510              	.L47:
 354:C:/Workspace/DAVE-4.4.2-64Bit/optiga-trust-m/examples/optiga\example_optiga_crypt_rsa_decrypt.c ****         {
 355:C:/Workspace/DAVE-4.4.2-64Bit/optiga-trust-m/examples/optiga\example_optiga_crypt_rsa_decrypt.c ****             break;
 356:C:/Workspace/DAVE-4.4.2-64Bit/optiga-trust-m/examples/optiga\example_optiga_crypt_rsa_decrypt.c ****         }
 357:C:/Workspace/DAVE-4.4.2-64Bit/optiga-trust-m/examples/optiga\example_optiga_crypt_rsa_decrypt.c **** 
 358:C:/Workspace/DAVE-4.4.2-64Bit/optiga-trust-m/examples/optiga\example_optiga_crypt_rsa_decrypt.c ****         while (OPTIGA_LIB_BUSY == optiga_lib_status)
 511              	 .loc 1 358 0 discriminator 1
 512 0106 164B     	 ldr r3,.L71+20
 513 0108 1A88     	 ldrh r2,[r3]
 514 010a 012A     	 cmp r2,#1
 515 010c FBD0     	 beq .L47
 359:C:/Workspace/DAVE-4.4.2-64Bit/optiga-trust-m/examples/optiga\example_optiga_crypt_rsa_decrypt.c ****         {
 360:C:/Workspace/DAVE-4.4.2-64Bit/optiga-trust-m/examples/optiga\example_optiga_crypt_rsa_decrypt.c ****             //Wait until the optiga_crypt_rsa_decrypt_and_store operation is completed
 361:C:/Workspace/DAVE-4.4.2-64Bit/optiga-trust-m/examples/optiga\example_optiga_crypt_rsa_decrypt.c ****         }
 362:C:/Workspace/DAVE-4.4.2-64Bit/optiga-trust-m/examples/optiga\example_optiga_crypt_rsa_decrypt.c **** 
 363:C:/Workspace/DAVE-4.4.2-64Bit/optiga-trust-m/examples/optiga\example_optiga_crypt_rsa_decrypt.c ****         if (OPTIGA_LIB_SUCCESS != optiga_lib_status)
 516              	 .loc 1 363 0
 517 010e 1A88     	 ldrh r2,[r3]
 518 0110 002A     	 cmp r2,#0
 519 0112 08D0     	 beq .L48
 520              	.LVL46:
 521              	.L70:
 364:C:/Workspace/DAVE-4.4.2-64Bit/optiga-trust-m/examples/optiga\example_optiga_crypt_rsa_decrypt.c ****         {
 365:C:/Workspace/DAVE-4.4.2-64Bit/optiga-trust-m/examples/optiga\example_optiga_crypt_rsa_decrypt.c ****             //RSA Decryption failed
 366:C:/Workspace/DAVE-4.4.2-64Bit/optiga-trust-m/examples/optiga\example_optiga_crypt_rsa_decrypt.c ****             return_status = optiga_lib_status;
 522              	 .loc 1 366 0
 523 0114 1A88     	 ldrh r2,[r3]
 524              	.L69:
 525 0116 92B2     	 uxth r2,r2
 526              	.LVL47:
 367:C:/Workspace/DAVE-4.4.2-64Bit/optiga-trust-m/examples/optiga\example_optiga_crypt_rsa_decrypt.c ****             break;
 368:C:/Workspace/DAVE-4.4.2-64Bit/optiga-trust-m/examples/optiga\example_optiga_crypt_rsa_decrypt.c ****         }
 369:C:/Workspace/DAVE-4.4.2-64Bit/optiga-trust-m/examples/optiga\example_optiga_crypt_rsa_decrypt.c **** 
 370:C:/Workspace/DAVE-4.4.2-64Bit/optiga-trust-m/examples/optiga\example_optiga_crypt_rsa_decrypt.c ****         return_status = OPTIGA_LIB_SUCCESS;
 371:C:/Workspace/DAVE-4.4.2-64Bit/optiga-trust-m/examples/optiga\example_optiga_crypt_rsa_decrypt.c **** 
 372:C:/Workspace/DAVE-4.4.2-64Bit/optiga-trust-m/examples/optiga\example_optiga_crypt_rsa_decrypt.c ****     } while (FALSE);
 373:C:/Workspace/DAVE-4.4.2-64Bit/optiga-trust-m/examples/optiga\example_optiga_crypt_rsa_decrypt.c ****     OPTIGA_EXAMPLE_LOG_STATUS(return_status);
 527              	 .loc 1 373 0
 528 0118 002A     	 cmp r2,#0
 529 011a 04D0     	 beq .L48
 530              	.LVL48:
 531              	.L52:
 532              	 .loc 1 373 0 is_stmt 0 discriminator 1
 533 011c 281C     	 mov r0,r5
 534 011e 1249     	 ldr r1,.L71+28
 535 0120 FFF7FEFF 	 bl optiga_lib_print_status
 536              	.LVL49:
 537 0124 06E0     	 b .L49
 538              	.L48:
 539              	 .loc 1 373 0 discriminator 2
 540 0126 281C     	 mov r0,r5
 541 0128 0B49     	 ldr r1,.L71+12
 542 012a 0022     	 mov r2,#0
 543 012c FFF7FEFF 	 bl optiga_lib_print_status
 544              	.LVL50:
 374:C:/Workspace/DAVE-4.4.2-64Bit/optiga-trust-m/examples/optiga\example_optiga_crypt_rsa_decrypt.c ****     
 375:C:/Workspace/DAVE-4.4.2-64Bit/optiga-trust-m/examples/optiga\example_optiga_crypt_rsa_decrypt.c ****     if (me)
 545              	 .loc 1 375 0 is_stmt 1 discriminator 2
 546 0130 002C     	 cmp r4,#0
 547 0132 08D0     	 beq .L37
 548              	.L49:
 376:C:/Workspace/DAVE-4.4.2-64Bit/optiga-trust-m/examples/optiga\example_optiga_crypt_rsa_decrypt.c ****     {
 377:C:/Workspace/DAVE-4.4.2-64Bit/optiga-trust-m/examples/optiga\example_optiga_crypt_rsa_decrypt.c ****         //Destroy the instance after the completion of usecase if not required.
 378:C:/Workspace/DAVE-4.4.2-64Bit/optiga-trust-m/examples/optiga\example_optiga_crypt_rsa_decrypt.c ****         return_status = optiga_crypt_destroy(me);
 549              	 .loc 1 378 0
 550 0134 201C     	 mov r0,r4
 551 0136 FFF7FEFF 	 bl optiga_crypt_destroy
 552              	.LVL51:
 553 013a 021E     	 sub r2,r0,#0
 554              	.LVL52:
 379:C:/Workspace/DAVE-4.4.2-64Bit/optiga-trust-m/examples/optiga\example_optiga_crypt_rsa_decrypt.c ****         if(OPTIGA_LIB_SUCCESS != return_status)
 555              	 .loc 1 379 0
 556 013c 03D0     	 beq .L37
 380:C:/Workspace/DAVE-4.4.2-64Bit/optiga-trust-m/examples/optiga\example_optiga_crypt_rsa_decrypt.c ****         {
 381:C:/Workspace/DAVE-4.4.2-64Bit/optiga-trust-m/examples/optiga\example_optiga_crypt_rsa_decrypt.c ****             //lint --e{774} suppress This is a generic macro
 382:C:/Workspace/DAVE-4.4.2-64Bit/optiga-trust-m/examples/optiga\example_optiga_crypt_rsa_decrypt.c ****             OPTIGA_EXAMPLE_LOG_STATUS(return_status);
 557              	 .loc 1 382 0 discriminator 1
 558 013e 281C     	 mov r0,r5
 559              	.LVL53:
 560 0140 0949     	 ldr r1,.L71+28
 561 0142 FFF7FEFF 	 bl optiga_lib_print_status
 562              	.LVL54:
 563              	.L37:
 383:C:/Workspace/DAVE-4.4.2-64Bit/optiga-trust-m/examples/optiga\example_optiga_crypt_rsa_decrypt.c ****         }
 384:C:/Workspace/DAVE-4.4.2-64Bit/optiga-trust-m/examples/optiga\example_optiga_crypt_rsa_decrypt.c ****     }
 385:C:/Workspace/DAVE-4.4.2-64Bit/optiga-trust-m/examples/optiga\example_optiga_crypt_rsa_decrypt.c **** }
 564              	 .loc 1 385 0
 565 0146 4FB0     	 add sp,sp,#316
 566              	 
 567              	.LVL55:
 568 0148 F0BD     	 pop {r4,r5,r6,r7,pc}
 569              	.L72:
 570 014a C046     	 .align 2
 571              	.L71:
 572 014c 00000000 	 .word .LANCHOR2
 573 0150 00000000 	 .word .LC5
 574 0154 00000000 	 .word .LANCHOR3
 575 0158 15000000 	 .word .LC7
 576 015c 00000000 	 .word optiga_crypt_callback
 577 0160 00000000 	 .word .LANCHOR0
 578 0164 FCE0FFFF 	 .word -7940
 579 0168 1A000000 	 .word .LC11
 580              	 .cfi_endproc
 581              	.LFE2:
 583              	 .section .rodata
 584              	 .set .LANCHOR2,.+0
 585              	.LC0:
 586 0000 01       	 .byte 1
 587 0001 02       	 .byte 2
 588              	 .section .rodata.__FUNCTION__.6035,"a",%progbits
 589              	 .set .LANCHOR3,.+0
 592              	__FUNCTION__.6035:
 593 0000 6578616D 	 .ascii "example_optiga_crypt_rsa_decrypt_and_store\000"
 593      706C655F 
 593      6F707469 
 593      67615F63 
 593      72797074 
 594              	 .section .rodata.str1.1,"aMS",%progbits,1
 595              	.LC5:
 596 0000 5B6F7074 	 .ascii "[optiga example]  : \000"
 596      69676120 
 596      6578616D 
 596      706C655D 
 596      20203A20 
 597              	.LC7:
 598 0015 1B5B306D 	 .ascii "\033[0m\000"
 598      00
 599              	.LC11:
 600 001a 1B5B3331 	 .ascii "\033[31m\000"
 600      6D00
 601              	.LC2:
 602 0020 52534120 	 .ascii "RSA PKCS1_v1.5 Encryption of user message\000"
 602      504B4353 
 602      315F7631 
 602      2E352045 
 602      6E637279 
 603              	 .section .bss.optiga_lib_status,"aw",%nobits
 604              	 .align 1
 605              	 .set .LANCHOR0,.+0
 608              	optiga_lib_status:
 609 0000 0000     	 .space 2
 610              	 .section .rodata.__FUNCTION__.6011,"a",%progbits
 611              	 .set .LANCHOR1,.+0
 614              	__FUNCTION__.6011:
 615 0000 6578616D 	 .ascii "example_optiga_crypt_rsa_decrypt_and_export\000"
 615      706C655F 
 615      6F707469 
 615      67615F63 
 615      72797074 
 616              	 .text
 617              	.Letext0:
 618              	 .file 2 "c:\\dave_4-4-2_64bit\\dave-ide-4.4.2-64bit\\eclipse\\arm-gcc-49\\arm-none-eabi\\include\\machine\\_default_types.h"
 619              	 .file 3 "c:\\dave_4-4-2_64bit\\dave-ide-4.4.2-64bit\\eclipse\\arm-gcc-49\\arm-none-eabi\\include\\stdint.h"
 620              	 .file 4 "C:/Workspace/DAVE-4.4.2-64Bit/optiga-trust-m/optiga/include/optiga/common/optiga_lib_types.h"
 621              	 .file 5 "C:/Workspace/DAVE-4.4.2-64Bit/optiga-trust-m/optiga/include/optiga/common/optiga_lib_common.h"
 622              	 .file 6 "C:/Workspace/DAVE-4.4.2-64Bit/optiga-trust-m/optiga/include/optiga/cmd/optiga_cmd.h"
 623              	 .file 7 "C:/Workspace/DAVE-4.4.2-64Bit/optiga-trust-m/optiga/include/optiga/optiga_crypt.h"
 624              	 .file 8 "C:/Workspace/DAVE-4.4.2-64Bit/optiga-trust-m/optiga/include/optiga/common/optiga_lib_logger.h"