   1              	 .cpu cortex-m0
   2              	 .fpu softvfp
   3              	 .eabi_attribute 20,1
   4              	 .eabi_attribute 21,1
   5              	 .eabi_attribute 23,3
   6              	 .eabi_attribute 24,1
   7              	 .eabi_attribute 25,1
   8              	 .eabi_attribute 26,1
   9              	 .eabi_attribute 30,4
  10              	 .eabi_attribute 34,0
  11              	 .eabi_attribute 18,4
  12              	 .code 16
  13              	 .file "example_optiga_crypt_rsa_encrypt_message.c"
  14              	 .text
  15              	.Ltext0:
  16              	 .cfi_sections .debug_frame
  17              	 .section .text.optiga_crypt_callback,"ax",%progbits
  18              	 .align 1
  19              	 .code 16
  20              	 .thumb_func
  22              	optiga_crypt_callback:
  23              	.LFB0:
  24              	 .file 1 "C:/Workspace/DAVE-4.4.2-64Bit/optiga-trust-m/examples/optiga/example_optiga_crypt_rsa_encrypt_message.c"
   1:C:/Workspace/DAVE-4.4.2-64Bit/optiga-trust-m/examples/optiga\example_optiga_crypt_rsa_encrypt_message.c **** /**
   2:C:/Workspace/DAVE-4.4.2-64Bit/optiga-trust-m/examples/optiga\example_optiga_crypt_rsa_encrypt_message.c **** * \copyright
   3:C:/Workspace/DAVE-4.4.2-64Bit/optiga-trust-m/examples/optiga\example_optiga_crypt_rsa_encrypt_message.c **** * MIT License
   4:C:/Workspace/DAVE-4.4.2-64Bit/optiga-trust-m/examples/optiga\example_optiga_crypt_rsa_encrypt_message.c **** *
   5:C:/Workspace/DAVE-4.4.2-64Bit/optiga-trust-m/examples/optiga\example_optiga_crypt_rsa_encrypt_message.c **** * Copyright (c) 2019 Infineon Technologies AG
   6:C:/Workspace/DAVE-4.4.2-64Bit/optiga-trust-m/examples/optiga\example_optiga_crypt_rsa_encrypt_message.c **** *
   7:C:/Workspace/DAVE-4.4.2-64Bit/optiga-trust-m/examples/optiga\example_optiga_crypt_rsa_encrypt_message.c **** * Permission is hereby granted, free of charge, to any person obtaining a copy
   8:C:/Workspace/DAVE-4.4.2-64Bit/optiga-trust-m/examples/optiga\example_optiga_crypt_rsa_encrypt_message.c **** * of this software and associated documentation files (the "Software"), to deal
   9:C:/Workspace/DAVE-4.4.2-64Bit/optiga-trust-m/examples/optiga\example_optiga_crypt_rsa_encrypt_message.c **** * in the Software without restriction, including without limitation the rights
  10:C:/Workspace/DAVE-4.4.2-64Bit/optiga-trust-m/examples/optiga\example_optiga_crypt_rsa_encrypt_message.c **** * to use, copy, modify, merge, publish, distribute, sublicense, and/or sell
  11:C:/Workspace/DAVE-4.4.2-64Bit/optiga-trust-m/examples/optiga\example_optiga_crypt_rsa_encrypt_message.c **** * copies of the Software, and to permit persons to whom the Software is
  12:C:/Workspace/DAVE-4.4.2-64Bit/optiga-trust-m/examples/optiga\example_optiga_crypt_rsa_encrypt_message.c **** * furnished to do so, subject to the following conditions:
  13:C:/Workspace/DAVE-4.4.2-64Bit/optiga-trust-m/examples/optiga\example_optiga_crypt_rsa_encrypt_message.c **** *
  14:C:/Workspace/DAVE-4.4.2-64Bit/optiga-trust-m/examples/optiga\example_optiga_crypt_rsa_encrypt_message.c **** * The above copyright notice and this permission notice shall be included in all
  15:C:/Workspace/DAVE-4.4.2-64Bit/optiga-trust-m/examples/optiga\example_optiga_crypt_rsa_encrypt_message.c **** * copies or substantial portions of the Software.
  16:C:/Workspace/DAVE-4.4.2-64Bit/optiga-trust-m/examples/optiga\example_optiga_crypt_rsa_encrypt_message.c **** *
  17:C:/Workspace/DAVE-4.4.2-64Bit/optiga-trust-m/examples/optiga\example_optiga_crypt_rsa_encrypt_message.c **** * THE SOFTWARE IS PROVIDED "AS IS", WITHOUT WARRANTY OF ANY KIND, EXPRESS OR
  18:C:/Workspace/DAVE-4.4.2-64Bit/optiga-trust-m/examples/optiga\example_optiga_crypt_rsa_encrypt_message.c **** * IMPLIED, INCLUDING BUT NOT LIMITED TO THE WARRANTIES OF MERCHANTABILITY,
  19:C:/Workspace/DAVE-4.4.2-64Bit/optiga-trust-m/examples/optiga\example_optiga_crypt_rsa_encrypt_message.c **** * FITNESS FOR A PARTICULAR PURPOSE AND NONINFRINGEMENT. IN NO EVENT SHALL THE
  20:C:/Workspace/DAVE-4.4.2-64Bit/optiga-trust-m/examples/optiga\example_optiga_crypt_rsa_encrypt_message.c **** * AUTHORS OR COPYRIGHT HOLDERS BE LIABLE FOR ANY CLAIM, DAMAGES OR OTHER
  21:C:/Workspace/DAVE-4.4.2-64Bit/optiga-trust-m/examples/optiga\example_optiga_crypt_rsa_encrypt_message.c **** * LIABILITY, WHETHER IN AN ACTION OF CONTRACT, TORT OR OTHERWISE, ARISING FROM,
  22:C:/Workspace/DAVE-4.4.2-64Bit/optiga-trust-m/examples/optiga\example_optiga_crypt_rsa_encrypt_message.c **** * OUT OF OR IN CONNECTION WITH THE SOFTWARE OR THE USE OR OTHER DEALINGS IN THE
  23:C:/Workspace/DAVE-4.4.2-64Bit/optiga-trust-m/examples/optiga\example_optiga_crypt_rsa_encrypt_message.c **** * SOFTWARE
  24:C:/Workspace/DAVE-4.4.2-64Bit/optiga-trust-m/examples/optiga\example_optiga_crypt_rsa_encrypt_message.c **** *
  25:C:/Workspace/DAVE-4.4.2-64Bit/optiga-trust-m/examples/optiga\example_optiga_crypt_rsa_encrypt_message.c **** * \endcopyright
  26:C:/Workspace/DAVE-4.4.2-64Bit/optiga-trust-m/examples/optiga\example_optiga_crypt_rsa_encrypt_message.c **** *
  27:C:/Workspace/DAVE-4.4.2-64Bit/optiga-trust-m/examples/optiga\example_optiga_crypt_rsa_encrypt_message.c **** * \author Infineon Technologies AG
  28:C:/Workspace/DAVE-4.4.2-64Bit/optiga-trust-m/examples/optiga\example_optiga_crypt_rsa_encrypt_message.c **** *
  29:C:/Workspace/DAVE-4.4.2-64Bit/optiga-trust-m/examples/optiga\example_optiga_crypt_rsa_encrypt_message.c **** * \file example_optiga_crypt_rsa_encrypt_message.c
  30:C:/Workspace/DAVE-4.4.2-64Bit/optiga-trust-m/examples/optiga\example_optiga_crypt_rsa_encrypt_message.c **** *
  31:C:/Workspace/DAVE-4.4.2-64Bit/optiga-trust-m/examples/optiga\example_optiga_crypt_rsa_encrypt_message.c **** * \brief    This file provides the example for RSA Encryption using #optiga_crypt_rsa_encrypt_messa
  32:C:/Workspace/DAVE-4.4.2-64Bit/optiga-trust-m/examples/optiga\example_optiga_crypt_rsa_encrypt_message.c **** *
  33:C:/Workspace/DAVE-4.4.2-64Bit/optiga-trust-m/examples/optiga\example_optiga_crypt_rsa_encrypt_message.c **** * \ingroup grOptigaExamples
  34:C:/Workspace/DAVE-4.4.2-64Bit/optiga-trust-m/examples/optiga\example_optiga_crypt_rsa_encrypt_message.c **** *
  35:C:/Workspace/DAVE-4.4.2-64Bit/optiga-trust-m/examples/optiga\example_optiga_crypt_rsa_encrypt_message.c **** * @{
  36:C:/Workspace/DAVE-4.4.2-64Bit/optiga-trust-m/examples/optiga\example_optiga_crypt_rsa_encrypt_message.c **** */
  37:C:/Workspace/DAVE-4.4.2-64Bit/optiga-trust-m/examples/optiga\example_optiga_crypt_rsa_encrypt_message.c **** 
  38:C:/Workspace/DAVE-4.4.2-64Bit/optiga-trust-m/examples/optiga\example_optiga_crypt_rsa_encrypt_message.c **** #include "optiga/optiga_crypt.h"
  39:C:/Workspace/DAVE-4.4.2-64Bit/optiga-trust-m/examples/optiga\example_optiga_crypt_rsa_encrypt_message.c **** #include "optiga_example.h"
  40:C:/Workspace/DAVE-4.4.2-64Bit/optiga-trust-m/examples/optiga\example_optiga_crypt_rsa_encrypt_message.c **** 
  41:C:/Workspace/DAVE-4.4.2-64Bit/optiga-trust-m/examples/optiga\example_optiga_crypt_rsa_encrypt_message.c **** #ifdef OPTIGA_CRYPT_RSA_ENCRYPT_ENABLED
  42:C:/Workspace/DAVE-4.4.2-64Bit/optiga-trust-m/examples/optiga\example_optiga_crypt_rsa_encrypt_message.c **** 
  43:C:/Workspace/DAVE-4.4.2-64Bit/optiga-trust-m/examples/optiga\example_optiga_crypt_rsa_encrypt_message.c **** /**
  44:C:/Workspace/DAVE-4.4.2-64Bit/optiga-trust-m/examples/optiga\example_optiga_crypt_rsa_encrypt_message.c ****  * Callback when optiga_crypt_xxxx operation is completed asynchronously
  45:C:/Workspace/DAVE-4.4.2-64Bit/optiga-trust-m/examples/optiga\example_optiga_crypt_rsa_encrypt_message.c ****  */
  46:C:/Workspace/DAVE-4.4.2-64Bit/optiga-trust-m/examples/optiga\example_optiga_crypt_rsa_encrypt_message.c **** static volatile optiga_lib_status_t optiga_lib_status;
  47:C:/Workspace/DAVE-4.4.2-64Bit/optiga-trust-m/examples/optiga\example_optiga_crypt_rsa_encrypt_message.c **** //lint --e{818} suppress "argument "context" is not used in the sample provided"
  48:C:/Workspace/DAVE-4.4.2-64Bit/optiga-trust-m/examples/optiga\example_optiga_crypt_rsa_encrypt_message.c **** static void optiga_crypt_callback(void * context, optiga_lib_status_t return_status)
  49:C:/Workspace/DAVE-4.4.2-64Bit/optiga-trust-m/examples/optiga\example_optiga_crypt_rsa_encrypt_message.c **** {
  25              	 .loc 1 49 0
  26              	 .cfi_startproc
  27              	.LVL0:
  50:C:/Workspace/DAVE-4.4.2-64Bit/optiga-trust-m/examples/optiga\example_optiga_crypt_rsa_encrypt_message.c ****     optiga_lib_status = return_status;
  28              	 .loc 1 50 0
  29 0000 014B     	 ldr r3,.L2
  51:C:/Workspace/DAVE-4.4.2-64Bit/optiga-trust-m/examples/optiga\example_optiga_crypt_rsa_encrypt_message.c ****     if (NULL != context)
  52:C:/Workspace/DAVE-4.4.2-64Bit/optiga-trust-m/examples/optiga\example_optiga_crypt_rsa_encrypt_message.c ****     {
  53:C:/Workspace/DAVE-4.4.2-64Bit/optiga-trust-m/examples/optiga\example_optiga_crypt_rsa_encrypt_message.c ****         // callback to upper layer here
  54:C:/Workspace/DAVE-4.4.2-64Bit/optiga-trust-m/examples/optiga\example_optiga_crypt_rsa_encrypt_message.c ****     }
  55:C:/Workspace/DAVE-4.4.2-64Bit/optiga-trust-m/examples/optiga\example_optiga_crypt_rsa_encrypt_message.c **** }
  30              	 .loc 1 55 0
  31              	 
  50:C:/Workspace/DAVE-4.4.2-64Bit/optiga-trust-m/examples/optiga\example_optiga_crypt_rsa_encrypt_message.c ****     optiga_lib_status = return_status;
  32              	 .loc 1 50 0
  33 0002 1980     	 strh r1,[r3]
  34              	 .loc 1 55 0
  35 0004 7047     	 bx lr
  36              	.L3:
  37 0006 C046     	 .align 2
  38              	.L2:
  39 0008 00000000 	 .word .LANCHOR0
  40              	 .cfi_endproc
  41              	.LFE0:
  43              	 .section .text.example_optiga_crypt_rsa_encrypt_message,"ax",%progbits
  44              	 .align 1
  45              	 .global example_optiga_crypt_rsa_encrypt_message
  46              	 .code 16
  47              	 .thumb_func
  49              	example_optiga_crypt_rsa_encrypt_message:
  50              	.LFB1:
  56:C:/Workspace/DAVE-4.4.2-64Bit/optiga-trust-m/examples/optiga\example_optiga_crypt_rsa_encrypt_message.c **** 
  57:C:/Workspace/DAVE-4.4.2-64Bit/optiga-trust-m/examples/optiga\example_optiga_crypt_rsa_encrypt_message.c **** static uint8_t public_key [] = {
  58:C:/Workspace/DAVE-4.4.2-64Bit/optiga-trust-m/examples/optiga\example_optiga_crypt_rsa_encrypt_message.c ****     //BIT String
  59:C:/Workspace/DAVE-4.4.2-64Bit/optiga-trust-m/examples/optiga\example_optiga_crypt_rsa_encrypt_message.c ****     0x03,
  60:C:/Workspace/DAVE-4.4.2-64Bit/optiga-trust-m/examples/optiga\example_optiga_crypt_rsa_encrypt_message.c ****         //BIT String Length
  61:C:/Workspace/DAVE-4.4.2-64Bit/optiga-trust-m/examples/optiga\example_optiga_crypt_rsa_encrypt_message.c ****         0x81, 0x8E,
  62:C:/Workspace/DAVE-4.4.2-64Bit/optiga-trust-m/examples/optiga\example_optiga_crypt_rsa_encrypt_message.c ****             //UnusedBits
  63:C:/Workspace/DAVE-4.4.2-64Bit/optiga-trust-m/examples/optiga\example_optiga_crypt_rsa_encrypt_message.c ****             0x00,
  64:C:/Workspace/DAVE-4.4.2-64Bit/optiga-trust-m/examples/optiga\example_optiga_crypt_rsa_encrypt_message.c ****             //SEQUENCE
  65:C:/Workspace/DAVE-4.4.2-64Bit/optiga-trust-m/examples/optiga\example_optiga_crypt_rsa_encrypt_message.c ****             0x30,
  66:C:/Workspace/DAVE-4.4.2-64Bit/optiga-trust-m/examples/optiga\example_optiga_crypt_rsa_encrypt_message.c ****                 //Length
  67:C:/Workspace/DAVE-4.4.2-64Bit/optiga-trust-m/examples/optiga\example_optiga_crypt_rsa_encrypt_message.c ****                 0x81, 0x8A,
  68:C:/Workspace/DAVE-4.4.2-64Bit/optiga-trust-m/examples/optiga\example_optiga_crypt_rsa_encrypt_message.c ****                 //INTEGER (pub key)
  69:C:/Workspace/DAVE-4.4.2-64Bit/optiga-trust-m/examples/optiga\example_optiga_crypt_rsa_encrypt_message.c ****                 0x02,
  70:C:/Workspace/DAVE-4.4.2-64Bit/optiga-trust-m/examples/optiga\example_optiga_crypt_rsa_encrypt_message.c ****                 //Pub key modulus length
  71:C:/Workspace/DAVE-4.4.2-64Bit/optiga-trust-m/examples/optiga\example_optiga_crypt_rsa_encrypt_message.c ****                 0x81, 0x81,
  72:C:/Workspace/DAVE-4.4.2-64Bit/optiga-trust-m/examples/optiga\example_optiga_crypt_rsa_encrypt_message.c ****                     //Public key modulus
  73:C:/Workspace/DAVE-4.4.2-64Bit/optiga-trust-m/examples/optiga\example_optiga_crypt_rsa_encrypt_message.c ****                     0x00,
  74:C:/Workspace/DAVE-4.4.2-64Bit/optiga-trust-m/examples/optiga\example_optiga_crypt_rsa_encrypt_message.c ****                     0xA1, 0xD4, 0x6F, 0xBA, 0x23, 0x18, 0xF8, 0xDC,
  75:C:/Workspace/DAVE-4.4.2-64Bit/optiga-trust-m/examples/optiga\example_optiga_crypt_rsa_encrypt_message.c ****                     0xEF, 0x16, 0xC2, 0x80, 0x94, 0x8B, 0x1C, 0xF2,
  76:C:/Workspace/DAVE-4.4.2-64Bit/optiga-trust-m/examples/optiga\example_optiga_crypt_rsa_encrypt_message.c ****                     0x79, 0x66, 0xB9, 0xB4, 0x72, 0x25, 0xED, 0x29,
  77:C:/Workspace/DAVE-4.4.2-64Bit/optiga-trust-m/examples/optiga\example_optiga_crypt_rsa_encrypt_message.c ****                     0x89, 0xF8, 0xD7, 0x4B, 0x45, 0xBD, 0x36, 0x04,
  78:C:/Workspace/DAVE-4.4.2-64Bit/optiga-trust-m/examples/optiga\example_optiga_crypt_rsa_encrypt_message.c ****                     0x9C, 0x0A, 0xAB, 0x5A, 0xD0, 0xFF, 0x00, 0x35,
  79:C:/Workspace/DAVE-4.4.2-64Bit/optiga-trust-m/examples/optiga\example_optiga_crypt_rsa_encrypt_message.c ****                     0x53, 0xBA, 0x84, 0x3C, 0x8E, 0x12, 0x78, 0x2F,
  80:C:/Workspace/DAVE-4.4.2-64Bit/optiga-trust-m/examples/optiga\example_optiga_crypt_rsa_encrypt_message.c ****                     0xC5, 0x87, 0x3B, 0xB8, 0x9A, 0x3D, 0xC8, 0x4B,
  81:C:/Workspace/DAVE-4.4.2-64Bit/optiga-trust-m/examples/optiga\example_optiga_crypt_rsa_encrypt_message.c ****                     0x88, 0x3D, 0x25, 0x66, 0x6C, 0xD2, 0x2B, 0xF3,
  82:C:/Workspace/DAVE-4.4.2-64Bit/optiga-trust-m/examples/optiga\example_optiga_crypt_rsa_encrypt_message.c ****                     0xAC, 0xD5, 0xB6, 0x75, 0x96, 0x9F, 0x8B, 0xEB,
  83:C:/Workspace/DAVE-4.4.2-64Bit/optiga-trust-m/examples/optiga\example_optiga_crypt_rsa_encrypt_message.c ****                     0xFB, 0xCA, 0xC9, 0x3F, 0xDD, 0x92, 0x7C, 0x74,
  84:C:/Workspace/DAVE-4.4.2-64Bit/optiga-trust-m/examples/optiga\example_optiga_crypt_rsa_encrypt_message.c ****                     0x42, 0xB1, 0x78, 0xB1, 0x0D, 0x1D, 0xFF, 0x93,
  85:C:/Workspace/DAVE-4.4.2-64Bit/optiga-trust-m/examples/optiga\example_optiga_crypt_rsa_encrypt_message.c ****                     0x98, 0xE5, 0x23, 0x16, 0xAA, 0xE0, 0xAF, 0x74,
  86:C:/Workspace/DAVE-4.4.2-64Bit/optiga-trust-m/examples/optiga\example_optiga_crypt_rsa_encrypt_message.c ****                     0xE5, 0x94, 0x65, 0x0B, 0xDC, 0x3C, 0x67, 0x02,
  87:C:/Workspace/DAVE-4.4.2-64Bit/optiga-trust-m/examples/optiga\example_optiga_crypt_rsa_encrypt_message.c ****                     0x41, 0xD4, 0x18, 0x68, 0x45, 0x93, 0xCD, 0xA1,
  88:C:/Workspace/DAVE-4.4.2-64Bit/optiga-trust-m/examples/optiga\example_optiga_crypt_rsa_encrypt_message.c ****                     0xA7, 0xB9, 0xDC, 0x4F, 0x20, 0xD2, 0xFD, 0xC6,
  89:C:/Workspace/DAVE-4.4.2-64Bit/optiga-trust-m/examples/optiga\example_optiga_crypt_rsa_encrypt_message.c ****                     0xF6, 0x63, 0x44, 0x07, 0x40, 0x03, 0xE2, 0x11,
  90:C:/Workspace/DAVE-4.4.2-64Bit/optiga-trust-m/examples/optiga\example_optiga_crypt_rsa_encrypt_message.c ****                 //INTEGER (publicExponent)
  91:C:/Workspace/DAVE-4.4.2-64Bit/optiga-trust-m/examples/optiga\example_optiga_crypt_rsa_encrypt_message.c ****                 0x02,
  92:C:/Workspace/DAVE-4.4.2-64Bit/optiga-trust-m/examples/optiga\example_optiga_crypt_rsa_encrypt_message.c ****                     //Pub key exponent length
  93:C:/Workspace/DAVE-4.4.2-64Bit/optiga-trust-m/examples/optiga\example_optiga_crypt_rsa_encrypt_message.c ****                     0x04,
  94:C:/Workspace/DAVE-4.4.2-64Bit/optiga-trust-m/examples/optiga\example_optiga_crypt_rsa_encrypt_message.c ****                     //Public Exponent
  95:C:/Workspace/DAVE-4.4.2-64Bit/optiga-trust-m/examples/optiga\example_optiga_crypt_rsa_encrypt_message.c ****                     0x00, 0x01, 0x00, 0x01
  96:C:/Workspace/DAVE-4.4.2-64Bit/optiga-trust-m/examples/optiga\example_optiga_crypt_rsa_encrypt_message.c **** };
  97:C:/Workspace/DAVE-4.4.2-64Bit/optiga-trust-m/examples/optiga\example_optiga_crypt_rsa_encrypt_message.c **** 
  98:C:/Workspace/DAVE-4.4.2-64Bit/optiga-trust-m/examples/optiga\example_optiga_crypt_rsa_encrypt_message.c **** 
  99:C:/Workspace/DAVE-4.4.2-64Bit/optiga-trust-m/examples/optiga\example_optiga_crypt_rsa_encrypt_message.c **** uint8_t message[] = {"RSA PKCS1_v1.5 Encryption of user message"};
 100:C:/Workspace/DAVE-4.4.2-64Bit/optiga-trust-m/examples/optiga\example_optiga_crypt_rsa_encrypt_message.c **** 
 101:C:/Workspace/DAVE-4.4.2-64Bit/optiga-trust-m/examples/optiga\example_optiga_crypt_rsa_encrypt_message.c **** /**
 102:C:/Workspace/DAVE-4.4.2-64Bit/optiga-trust-m/examples/optiga\example_optiga_crypt_rsa_encrypt_message.c ****  * The below example demonstrates RSA encryption
 103:C:/Workspace/DAVE-4.4.2-64Bit/optiga-trust-m/examples/optiga\example_optiga_crypt_rsa_encrypt_message.c ****  * #optiga_crypt_rsa_encrypt_message where message is provided by user
 104:C:/Workspace/DAVE-4.4.2-64Bit/optiga-trust-m/examples/optiga\example_optiga_crypt_rsa_encrypt_message.c ****  *
 105:C:/Workspace/DAVE-4.4.2-64Bit/optiga-trust-m/examples/optiga\example_optiga_crypt_rsa_encrypt_message.c ****  */
 106:C:/Workspace/DAVE-4.4.2-64Bit/optiga-trust-m/examples/optiga\example_optiga_crypt_rsa_encrypt_message.c **** void example_optiga_crypt_rsa_encrypt_message(void)
 107:C:/Workspace/DAVE-4.4.2-64Bit/optiga-trust-m/examples/optiga\example_optiga_crypt_rsa_encrypt_message.c **** {
  51              	 .loc 1 107 0
  52              	 .cfi_startproc
  53              	.LVL1:
  54 0000 F0B5     	 push {r4,r5,r6,r7,lr}
  55              	.LCFI0:
  56              	 .cfi_def_cfa_offset 20
  57              	 .cfi_offset 4,-20
  58              	 .cfi_offset 5,-16
  59              	 .cfi_offset 6,-12
  60              	 .cfi_offset 7,-8
  61              	 .cfi_offset 14,-4
 108:C:/Workspace/DAVE-4.4.2-64Bit/optiga-trust-m/examples/optiga\example_optiga_crypt_rsa_encrypt_message.c ****     optiga_lib_status_t return_status = 0;
 109:C:/Workspace/DAVE-4.4.2-64Bit/optiga-trust-m/examples/optiga\example_optiga_crypt_rsa_encrypt_message.c ****     optiga_rsa_encryption_scheme_t encryption_scheme;
 110:C:/Workspace/DAVE-4.4.2-64Bit/optiga-trust-m/examples/optiga\example_optiga_crypt_rsa_encrypt_message.c ****     uint8_t encrypted_message[128];
 111:C:/Workspace/DAVE-4.4.2-64Bit/optiga-trust-m/examples/optiga\example_optiga_crypt_rsa_encrypt_message.c ****     uint16_t encrypted_message_length = sizeof(encrypted_message);
  62              	 .loc 1 111 0
  63 0002 1E27     	 mov r7,#30
 107:C:/Workspace/DAVE-4.4.2-64Bit/optiga-trust-m/examples/optiga\example_optiga_crypt_rsa_encrypt_message.c ****     optiga_lib_status_t return_status = 0;
  64              	 .loc 1 107 0
  65 0004 ADB0     	 sub sp,sp,#180
  66              	.LCFI1:
  67              	 .cfi_def_cfa_offset 200
  68              	 .loc 1 111 0
  69 0006 02AB     	 add r3,sp,#8
  70 0008 FF18     	 add r7,r7,r3
  71 000a 8023     	 mov r3,#128
 112:C:/Workspace/DAVE-4.4.2-64Bit/optiga-trust-m/examples/optiga\example_optiga_crypt_rsa_encrypt_message.c ****     public_key_from_host_t public_key_from_host;
 113:C:/Workspace/DAVE-4.4.2-64Bit/optiga-trust-m/examples/optiga\example_optiga_crypt_rsa_encrypt_message.c **** 
 114:C:/Workspace/DAVE-4.4.2-64Bit/optiga-trust-m/examples/optiga\example_optiga_crypt_rsa_encrypt_message.c ****     optiga_crypt_t * me = NULL;
 115:C:/Workspace/DAVE-4.4.2-64Bit/optiga-trust-m/examples/optiga\example_optiga_crypt_rsa_encrypt_message.c ****     OPTIGA_EXAMPLE_LOG_MESSAGE(__FUNCTION__);
  72              	 .loc 1 115 0
  73 000c 244D     	 ldr r5,.L26
  74 000e 254C     	 ldr r4,.L26+4
  75 0010 2548     	 ldr r0,.L26+8
  76 0012 211C     	 mov r1,r4
  77 0014 2A1C     	 mov r2,r5
 111:C:/Workspace/DAVE-4.4.2-64Bit/optiga-trust-m/examples/optiga\example_optiga_crypt_rsa_encrypt_message.c ****     public_key_from_host_t public_key_from_host;
  78              	 .loc 1 111 0
  79 0016 3B80     	 strh r3,[r7]
  80              	.LVL2:
  81              	 .loc 1 115 0
  82 0018 FFF7FEFF 	 bl optiga_lib_print_message
  83              	.LVL3:
 116:C:/Workspace/DAVE-4.4.2-64Bit/optiga-trust-m/examples/optiga\example_optiga_crypt_rsa_encrypt_message.c **** 
 117:C:/Workspace/DAVE-4.4.2-64Bit/optiga-trust-m/examples/optiga\example_optiga_crypt_rsa_encrypt_message.c ****     do
 118:C:/Workspace/DAVE-4.4.2-64Bit/optiga-trust-m/examples/optiga\example_optiga_crypt_rsa_encrypt_message.c ****     {
 119:C:/Workspace/DAVE-4.4.2-64Bit/optiga-trust-m/examples/optiga\example_optiga_crypt_rsa_encrypt_message.c ****         /**
 120:C:/Workspace/DAVE-4.4.2-64Bit/optiga-trust-m/examples/optiga\example_optiga_crypt_rsa_encrypt_message.c ****          * 1. Create OPTIGA Crypt Instance
 121:C:/Workspace/DAVE-4.4.2-64Bit/optiga-trust-m/examples/optiga\example_optiga_crypt_rsa_encrypt_message.c ****          *
 122:C:/Workspace/DAVE-4.4.2-64Bit/optiga-trust-m/examples/optiga\example_optiga_crypt_rsa_encrypt_message.c ****          */
 123:C:/Workspace/DAVE-4.4.2-64Bit/optiga-trust-m/examples/optiga\example_optiga_crypt_rsa_encrypt_message.c ****         me = optiga_crypt_create(0, optiga_crypt_callback, NULL);
  84              	 .loc 1 123 0
  85 001c 0020     	 mov r0,#0
  86 001e 2349     	 ldr r1,.L26+12
  87 0020 021C     	 mov r2,r0
  88 0022 FFF7FEFF 	 bl optiga_crypt_create
  89              	.LVL4:
  90 0026 0795     	 str r5,[sp,#28]
  91 0028 061E     	 sub r6,r0,#0
  92              	.LVL5:
 124:C:/Workspace/DAVE-4.4.2-64Bit/optiga-trust-m/examples/optiga\example_optiga_crypt_rsa_encrypt_message.c ****         if (NULL == me)
  93              	 .loc 1 124 0
  94 002a 27D0     	 beq .L8
  95              	.LVL6:
 125:C:/Workspace/DAVE-4.4.2-64Bit/optiga-trust-m/examples/optiga\example_optiga_crypt_rsa_encrypt_message.c ****         {
 126:C:/Workspace/DAVE-4.4.2-64Bit/optiga-trust-m/examples/optiga\example_optiga_crypt_rsa_encrypt_message.c ****             break;
 127:C:/Workspace/DAVE-4.4.2-64Bit/optiga-trust-m/examples/optiga\example_optiga_crypt_rsa_encrypt_message.c ****         }
 128:C:/Workspace/DAVE-4.4.2-64Bit/optiga-trust-m/examples/optiga\example_optiga_crypt_rsa_encrypt_message.c **** 
 129:C:/Workspace/DAVE-4.4.2-64Bit/optiga-trust-m/examples/optiga\example_optiga_crypt_rsa_encrypt_message.c ****         /**
 130:C:/Workspace/DAVE-4.4.2-64Bit/optiga-trust-m/examples/optiga\example_optiga_crypt_rsa_encrypt_message.c ****          * 2. RSA encryption
 131:C:/Workspace/DAVE-4.4.2-64Bit/optiga-trust-m/examples/optiga\example_optiga_crypt_rsa_encrypt_message.c ****          */
 132:C:/Workspace/DAVE-4.4.2-64Bit/optiga-trust-m/examples/optiga\example_optiga_crypt_rsa_encrypt_message.c ****         encryption_scheme = OPTIGA_RSAES_PKCS1_V15;
 133:C:/Workspace/DAVE-4.4.2-64Bit/optiga-trust-m/examples/optiga\example_optiga_crypt_rsa_encrypt_message.c ****         public_key_from_host.public_key = public_key;
  96              	 .loc 1 133 0
  97 002c 204A     	 ldr r2,.L26+16
 134:C:/Workspace/DAVE-4.4.2-64Bit/optiga-trust-m/examples/optiga\example_optiga_crypt_rsa_encrypt_message.c ****         public_key_from_host.length = sizeof(public_key);
 135:C:/Workspace/DAVE-4.4.2-64Bit/optiga-trust-m/examples/optiga\example_optiga_crypt_rsa_encrypt_message.c ****         public_key_from_host.key_type = (uint8_t)OPTIGA_RSA_KEY_1024_BIT_EXPONENTIAL;
 136:C:/Workspace/DAVE-4.4.2-64Bit/optiga-trust-m/examples/optiga\example_optiga_crypt_rsa_encrypt_message.c ****         optiga_lib_status = OPTIGA_LIB_BUSY;
 137:C:/Workspace/DAVE-4.4.2-64Bit/optiga-trust-m/examples/optiga\example_optiga_crypt_rsa_encrypt_message.c ****         return_status = optiga_crypt_rsa_encrypt_message(me,
  98              	 .loc 1 137 0
  99 002e 0021     	 mov r1,#0
 133:C:/Workspace/DAVE-4.4.2-64Bit/optiga-trust-m/examples/optiga\example_optiga_crypt_rsa_encrypt_message.c ****         public_key_from_host.length = sizeof(public_key);
 100              	 .loc 1 133 0
 101 0030 0A92     	 str r2,[sp,#40]
 134:C:/Workspace/DAVE-4.4.2-64Bit/optiga-trust-m/examples/optiga\example_optiga_crypt_rsa_encrypt_message.c ****         public_key_from_host.length = sizeof(public_key);
 102              	 .loc 1 134 0
 103 0032 9122     	 mov r2,#145
 133:C:/Workspace/DAVE-4.4.2-64Bit/optiga-trust-m/examples/optiga\example_optiga_crypt_rsa_encrypt_message.c ****         public_key_from_host.length = sizeof(public_key);
 104              	 .loc 1 133 0
 105 0034 0AAB     	 add r3,sp,#40
 134:C:/Workspace/DAVE-4.4.2-64Bit/optiga-trust-m/examples/optiga\example_optiga_crypt_rsa_encrypt_message.c ****         public_key_from_host.length = sizeof(public_key);
 106              	 .loc 1 134 0
 107 0036 9A80     	 strh r2,[r3,#4]
 136:C:/Workspace/DAVE-4.4.2-64Bit/optiga-trust-m/examples/optiga\example_optiga_crypt_rsa_encrypt_message.c ****         return_status = optiga_crypt_rsa_encrypt_message(me,
 108              	 .loc 1 136 0
 109 0038 1E4D     	 ldr r5,.L26+20
 135:C:/Workspace/DAVE-4.4.2-64Bit/optiga-trust-m/examples/optiga\example_optiga_crypt_rsa_encrypt_message.c ****         optiga_lib_status = OPTIGA_LIB_BUSY;
 110              	 .loc 1 135 0
 111 003a 503A     	 sub r2,r2,#80
 112 003c 9A71     	 strb r2,[r3,#6]
 136:C:/Workspace/DAVE-4.4.2-64Bit/optiga-trust-m/examples/optiga\example_optiga_crypt_rsa_encrypt_message.c ****         return_status = optiga_crypt_rsa_encrypt_message(me,
 113              	 .loc 1 136 0
 114 003e 403A     	 sub r2,r2,#64
 115 0040 2A80     	 strh r2,[r5]
 116              	 .loc 1 137 0
 117 0042 0393     	 str r3,[sp,#12]
 118 0044 0CAB     	 add r3,sp,#48
 119 0046 0091     	 str r1,[sp]
 120 0048 0191     	 str r1,[sp,#4]
 121 004a 0292     	 str r2,[sp,#8]
 122 004c 0493     	 str r3,[sp,#16]
 123 004e 1A4A     	 ldr r2,.L26+24
 124 0050 0597     	 str r7,[sp,#20]
 125 0052 1131     	 add r1,r1,#17
 126 0054 2A23     	 mov r3,#42
 127 0056 FFF7FEFF 	 bl optiga_crypt_rsa_encrypt_message
 128              	.LVL7:
 129 005a 021E     	 sub r2,r0,#0
 130              	.LVL8:
 138:C:/Workspace/DAVE-4.4.2-64Bit/optiga-trust-m/examples/optiga\example_optiga_crypt_rsa_encrypt_message.c ****                                                             encryption_scheme,
 139:C:/Workspace/DAVE-4.4.2-64Bit/optiga-trust-m/examples/optiga\example_optiga_crypt_rsa_encrypt_message.c ****                                                             message,
 140:C:/Workspace/DAVE-4.4.2-64Bit/optiga-trust-m/examples/optiga\example_optiga_crypt_rsa_encrypt_message.c ****                                                             sizeof(message),
 141:C:/Workspace/DAVE-4.4.2-64Bit/optiga-trust-m/examples/optiga\example_optiga_crypt_rsa_encrypt_message.c ****                                                             NULL,
 142:C:/Workspace/DAVE-4.4.2-64Bit/optiga-trust-m/examples/optiga\example_optiga_crypt_rsa_encrypt_message.c ****                                                             0,
 143:C:/Workspace/DAVE-4.4.2-64Bit/optiga-trust-m/examples/optiga\example_optiga_crypt_rsa_encrypt_message.c ****                                                             OPTIGA_CRYPT_HOST_DATA,
 144:C:/Workspace/DAVE-4.4.2-64Bit/optiga-trust-m/examples/optiga\example_optiga_crypt_rsa_encrypt_message.c ****                                                             &public_key_from_host,
 145:C:/Workspace/DAVE-4.4.2-64Bit/optiga-trust-m/examples/optiga\example_optiga_crypt_rsa_encrypt_message.c ****                                                             encrypted_message,
 146:C:/Workspace/DAVE-4.4.2-64Bit/optiga-trust-m/examples/optiga\example_optiga_crypt_rsa_encrypt_message.c ****                                                             &encrypted_message_length);
 147:C:/Workspace/DAVE-4.4.2-64Bit/optiga-trust-m/examples/optiga\example_optiga_crypt_rsa_encrypt_message.c **** 
 148:C:/Workspace/DAVE-4.4.2-64Bit/optiga-trust-m/examples/optiga\example_optiga_crypt_rsa_encrypt_message.c ****         if (OPTIGA_LIB_SUCCESS != return_status)
 131              	 .loc 1 148 0
 132 005c 09D1     	 bne .L6
 133              	.L7:
 149:C:/Workspace/DAVE-4.4.2-64Bit/optiga-trust-m/examples/optiga\example_optiga_crypt_rsa_encrypt_message.c ****         {
 150:C:/Workspace/DAVE-4.4.2-64Bit/optiga-trust-m/examples/optiga\example_optiga_crypt_rsa_encrypt_message.c ****             break;
 151:C:/Workspace/DAVE-4.4.2-64Bit/optiga-trust-m/examples/optiga\example_optiga_crypt_rsa_encrypt_message.c ****         }
 152:C:/Workspace/DAVE-4.4.2-64Bit/optiga-trust-m/examples/optiga\example_optiga_crypt_rsa_encrypt_message.c **** 
 153:C:/Workspace/DAVE-4.4.2-64Bit/optiga-trust-m/examples/optiga\example_optiga_crypt_rsa_encrypt_message.c ****         while (OPTIGA_LIB_BUSY == optiga_lib_status)
 134              	 .loc 1 153 0 discriminator 1
 135 005e 2B88     	 ldrh r3,[r5]
 136 0060 012B     	 cmp r3,#1
 137 0062 FCD0     	 beq .L7
 154:C:/Workspace/DAVE-4.4.2-64Bit/optiga-trust-m/examples/optiga\example_optiga_crypt_rsa_encrypt_message.c ****         {
 155:C:/Workspace/DAVE-4.4.2-64Bit/optiga-trust-m/examples/optiga\example_optiga_crypt_rsa_encrypt_message.c ****             //Wait until the optiga_crypt_rsa_encrypt_message operation is completed
 156:C:/Workspace/DAVE-4.4.2-64Bit/optiga-trust-m/examples/optiga\example_optiga_crypt_rsa_encrypt_message.c ****         }
 157:C:/Workspace/DAVE-4.4.2-64Bit/optiga-trust-m/examples/optiga\example_optiga_crypt_rsa_encrypt_message.c **** 
 158:C:/Workspace/DAVE-4.4.2-64Bit/optiga-trust-m/examples/optiga\example_optiga_crypt_rsa_encrypt_message.c ****         if (OPTIGA_LIB_SUCCESS != optiga_lib_status)
 138              	 .loc 1 158 0
 139 0064 2B88     	 ldrh r3,[r5]
 140 0066 002B     	 cmp r3,#0
 141 0068 08D0     	 beq .L8
 159:C:/Workspace/DAVE-4.4.2-64Bit/optiga-trust-m/examples/optiga\example_optiga_crypt_rsa_encrypt_message.c ****         {
 160:C:/Workspace/DAVE-4.4.2-64Bit/optiga-trust-m/examples/optiga\example_optiga_crypt_rsa_encrypt_message.c ****             //RSA Encryption failed
 161:C:/Workspace/DAVE-4.4.2-64Bit/optiga-trust-m/examples/optiga\example_optiga_crypt_rsa_encrypt_message.c ****             return_status = optiga_lib_status;
 142              	 .loc 1 161 0
 143 006a 2A88     	 ldrh r2,[r5]
 144 006c 92B2     	 uxth r2,r2
 145              	.LVL9:
 162:C:/Workspace/DAVE-4.4.2-64Bit/optiga-trust-m/examples/optiga\example_optiga_crypt_rsa_encrypt_message.c ****             break;
 163:C:/Workspace/DAVE-4.4.2-64Bit/optiga-trust-m/examples/optiga\example_optiga_crypt_rsa_encrypt_message.c ****         }
 164:C:/Workspace/DAVE-4.4.2-64Bit/optiga-trust-m/examples/optiga\example_optiga_crypt_rsa_encrypt_message.c ****         return_status = OPTIGA_LIB_SUCCESS;
 165:C:/Workspace/DAVE-4.4.2-64Bit/optiga-trust-m/examples/optiga\example_optiga_crypt_rsa_encrypt_message.c **** 
 166:C:/Workspace/DAVE-4.4.2-64Bit/optiga-trust-m/examples/optiga\example_optiga_crypt_rsa_encrypt_message.c ****     } while (FALSE);
 167:C:/Workspace/DAVE-4.4.2-64Bit/optiga-trust-m/examples/optiga\example_optiga_crypt_rsa_encrypt_message.c ****     OPTIGA_EXAMPLE_LOG_STATUS(return_status);
 146              	 .loc 1 167 0
 147 006e 002A     	 cmp r2,#0
 148 0070 04D0     	 beq .L8
 149              	.LVL10:
 150              	.L6:
 151              	 .loc 1 167 0 is_stmt 0 discriminator 1
 152 0072 201C     	 mov r0,r4
 153 0074 1149     	 ldr r1,.L26+28
 154 0076 FFF7FEFF 	 bl optiga_lib_print_status
 155              	.LVL11:
 156 007a 06E0     	 b .L9
 157              	.LVL12:
 158              	.L8:
 159              	 .loc 1 167 0 discriminator 2
 160 007c 201C     	 mov r0,r4
 161 007e 0799     	 ldr r1,[sp,#28]
 162 0080 0022     	 mov r2,#0
 163 0082 FFF7FEFF 	 bl optiga_lib_print_status
 164              	.LVL13:
 168:C:/Workspace/DAVE-4.4.2-64Bit/optiga-trust-m/examples/optiga\example_optiga_crypt_rsa_encrypt_message.c ****     
 169:C:/Workspace/DAVE-4.4.2-64Bit/optiga-trust-m/examples/optiga\example_optiga_crypt_rsa_encrypt_message.c ****     if (me)
 165              	 .loc 1 169 0 is_stmt 1 discriminator 2
 166 0086 002E     	 cmp r6,#0
 167 0088 08D0     	 beq .L4
 168              	.L9:
 170:C:/Workspace/DAVE-4.4.2-64Bit/optiga-trust-m/examples/optiga\example_optiga_crypt_rsa_encrypt_message.c ****     {
 171:C:/Workspace/DAVE-4.4.2-64Bit/optiga-trust-m/examples/optiga\example_optiga_crypt_rsa_encrypt_message.c ****         //Destroy the instance after the completion of usecase if not required.
 172:C:/Workspace/DAVE-4.4.2-64Bit/optiga-trust-m/examples/optiga\example_optiga_crypt_rsa_encrypt_message.c ****         return_status = optiga_crypt_destroy(me);
 169              	 .loc 1 172 0
 170 008a 301C     	 mov r0,r6
 171 008c FFF7FEFF 	 bl optiga_crypt_destroy
 172              	.LVL14:
 173 0090 021E     	 sub r2,r0,#0
 174              	.LVL15:
 173:C:/Workspace/DAVE-4.4.2-64Bit/optiga-trust-m/examples/optiga\example_optiga_crypt_rsa_encrypt_message.c ****         if(OPTIGA_LIB_SUCCESS != return_status)
 175              	 .loc 1 173 0
 176 0092 03D0     	 beq .L4
 174:C:/Workspace/DAVE-4.4.2-64Bit/optiga-trust-m/examples/optiga\example_optiga_crypt_rsa_encrypt_message.c ****         {
 175:C:/Workspace/DAVE-4.4.2-64Bit/optiga-trust-m/examples/optiga\example_optiga_crypt_rsa_encrypt_message.c ****             //lint --e{774} suppress This is a generic macro
 176:C:/Workspace/DAVE-4.4.2-64Bit/optiga-trust-m/examples/optiga\example_optiga_crypt_rsa_encrypt_message.c ****             OPTIGA_EXAMPLE_LOG_STATUS(return_status);
 177              	 .loc 1 176 0 discriminator 1
 178 0094 201C     	 mov r0,r4
 179              	.LVL16:
 180 0096 0949     	 ldr r1,.L26+28
 181 0098 FFF7FEFF 	 bl optiga_lib_print_status
 182              	.LVL17:
 183              	.L4:
 177:C:/Workspace/DAVE-4.4.2-64Bit/optiga-trust-m/examples/optiga\example_optiga_crypt_rsa_encrypt_message.c ****         }
 178:C:/Workspace/DAVE-4.4.2-64Bit/optiga-trust-m/examples/optiga\example_optiga_crypt_rsa_encrypt_message.c ****     }
 179:C:/Workspace/DAVE-4.4.2-64Bit/optiga-trust-m/examples/optiga\example_optiga_crypt_rsa_encrypt_message.c **** }
 184              	 .loc 1 179 0
 185 009c 2DB0     	 add sp,sp,#180
 186              	 
 187              	.LVL18:
 188 009e F0BD     	 pop {r4,r5,r6,r7,pc}
 189              	.L27:
 190              	 .align 2
 191              	.L26:
 192 00a0 15000000 	 .word .LC4
 193 00a4 00000000 	 .word .LC2
 194 00a8 00000000 	 .word .LANCHOR1
 195 00ac 00000000 	 .word optiga_crypt_callback
 196 00b0 00000000 	 .word .LANCHOR2
 197 00b4 00000000 	 .word .LANCHOR0
 198 00b8 00000000 	 .word .LANCHOR3
 199 00bc 1A000000 	 .word .LC10
 200              	 .cfi_endproc
 201              	.LFE1:
 203              	 .global message
 204              	 .section .data.message,"aw",%progbits
 205              	 .set .LANCHOR3,.+0
 208              	message:
 209 0000 52534120 	 .ascii "RSA PKCS1_v1.5 Encryption of user message\000"
 209      504B4353 
 209      315F7631 
 209      2E352045 
 209      6E637279 
 210              	 .section .rodata.str1.1,"aMS",%progbits,1
 211              	.LC2:
 212 0000 5B6F7074 	 .ascii "[optiga example]  : \000"
 212      69676120 
 212      6578616D 
 212      706C655D 
 212      20203A20 
 213              	.LC4:
 214 0015 1B5B306D 	 .ascii "\033[0m\000"
 214      00
 215              	.LC10:
 216 001a 1B5B3331 	 .ascii "\033[31m\000"
 216      6D00
 217              	 .section .data.public_key,"aw",%progbits
 218              	 .set .LANCHOR2,.+0
 221              	public_key:
 222 0000 03       	 .byte 3
 223 0001 81       	 .byte -127
 224 0002 8E       	 .byte -114
 225 0003 00       	 .byte 0
 226 0004 30       	 .byte 48
 227 0005 81       	 .byte -127
 228 0006 8A       	 .byte -118
 229 0007 02       	 .byte 2
 230 0008 81       	 .byte -127
 231 0009 81       	 .byte -127
 232 000a 00       	 .byte 0
 233 000b A1       	 .byte -95
 234 000c D4       	 .byte -44
 235 000d 6F       	 .byte 111
 236 000e BA       	 .byte -70
 237 000f 23       	 .byte 35
 238 0010 18       	 .byte 24
 239 0011 F8       	 .byte -8
 240 0012 DC       	 .byte -36
 241 0013 EF       	 .byte -17
 242 0014 16       	 .byte 22
 243 0015 C2       	 .byte -62
 244 0016 80       	 .byte -128
 245 0017 94       	 .byte -108
 246 0018 8B       	 .byte -117
 247 0019 1C       	 .byte 28
 248 001a F2       	 .byte -14
 249 001b 79       	 .byte 121
 250 001c 66       	 .byte 102
 251 001d B9       	 .byte -71
 252 001e B4       	 .byte -76
 253 001f 72       	 .byte 114
 254 0020 25       	 .byte 37
 255 0021 ED       	 .byte -19
 256 0022 29       	 .byte 41
 257 0023 89       	 .byte -119
 258 0024 F8       	 .byte -8
 259 0025 D7       	 .byte -41
 260 0026 4B       	 .byte 75
 261 0027 45       	 .byte 69
 262 0028 BD       	 .byte -67
 263 0029 36       	 .byte 54
 264 002a 04       	 .byte 4
 265 002b 9C       	 .byte -100
 266 002c 0A       	 .byte 10
 267 002d AB       	 .byte -85
 268 002e 5A       	 .byte 90
 269 002f D0       	 .byte -48
 270 0030 FF       	 .byte -1
 271 0031 00       	 .byte 0
 272 0032 35       	 .byte 53
 273 0033 53       	 .byte 83
 274 0034 BA       	 .byte -70
 275 0035 84       	 .byte -124
 276 0036 3C       	 .byte 60
 277 0037 8E       	 .byte -114
 278 0038 12       	 .byte 18
 279 0039 78       	 .byte 120
 280 003a 2F       	 .byte 47
 281 003b C5       	 .byte -59
 282 003c 87       	 .byte -121
 283 003d 3B       	 .byte 59
 284 003e B8       	 .byte -72
 285 003f 9A       	 .byte -102
 286 0040 3D       	 .byte 61
 287 0041 C8       	 .byte -56
 288 0042 4B       	 .byte 75
 289 0043 88       	 .byte -120
 290 0044 3D       	 .byte 61
 291 0045 25       	 .byte 37
 292 0046 66       	 .byte 102
 293 0047 6C       	 .byte 108
 294 0048 D2       	 .byte -46
 295 0049 2B       	 .byte 43
 296 004a F3       	 .byte -13
 297 004b AC       	 .byte -84
 298 004c D5       	 .byte -43
 299 004d B6       	 .byte -74
 300 004e 75       	 .byte 117
 301 004f 96       	 .byte -106
 302 0050 9F       	 .byte -97
 303 0051 8B       	 .byte -117
 304 0052 EB       	 .byte -21
 305 0053 FB       	 .byte -5
 306 0054 CA       	 .byte -54
 307 0055 C9       	 .byte -55
 308 0056 3F       	 .byte 63
 309 0057 DD       	 .byte -35
 310 0058 92       	 .byte -110
 311 0059 7C       	 .byte 124
 312 005a 74       	 .byte 116
 313 005b 42       	 .byte 66
 314 005c B1       	 .byte -79
 315 005d 78       	 .byte 120
 316 005e B1       	 .byte -79
 317 005f 0D       	 .byte 13
 318 0060 1D       	 .byte 29
 319 0061 FF       	 .byte -1
 320 0062 93       	 .byte -109
 321 0063 98       	 .byte -104
 322 0064 E5       	 .byte -27
 323 0065 23       	 .byte 35
 324 0066 16       	 .byte 22
 325 0067 AA       	 .byte -86
 326 0068 E0       	 .byte -32
 327 0069 AF       	 .byte -81
 328 006a 74       	 .byte 116
 329 006b E5       	 .byte -27
 330 006c 94       	 .byte -108
 331 006d 65       	 .byte 101
 332 006e 0B       	 .byte 11
 333 006f DC       	 .byte -36
 334 0070 3C       	 .byte 60
 335 0071 67       	 .byte 103
 336 0072 02       	 .byte 2
 337 0073 41       	 .byte 65
 338 0074 D4       	 .byte -44
 339 0075 18       	 .byte 24
 340 0076 68       	 .byte 104
 341 0077 45       	 .byte 69
 342 0078 93       	 .byte -109
 343 0079 CD       	 .byte -51
 344 007a A1       	 .byte -95
 345 007b A7       	 .byte -89
 346 007c B9       	 .byte -71
 347 007d DC       	 .byte -36
 348 007e 4F       	 .byte 79
 349 007f 20       	 .byte 32
 350 0080 D2       	 .byte -46
 351 0081 FD       	 .byte -3
 352 0082 C6       	 .byte -58
 353 0083 F6       	 .byte -10
 354 0084 63       	 .byte 99
 355 0085 44       	 .byte 68
 356 0086 07       	 .byte 7
 357 0087 40       	 .byte 64
 358 0088 03       	 .byte 3
 359 0089 E2       	 .byte -30
 360 008a 11       	 .byte 17
 361 008b 02       	 .byte 2
 362 008c 04       	 .byte 4
 363 008d 00       	 .byte 0
 364 008e 01       	 .byte 1
 365 008f 00       	 .byte 0
 366 0090 01       	 .byte 1
 367              	 .section .bss.optiga_lib_status,"aw",%nobits
 368              	 .align 1
 369              	 .set .LANCHOR0,.+0
 372              	optiga_lib_status:
 373 0000 0000     	 .space 2
 374              	 .section .rodata.__FUNCTION__.6006,"a",%progbits
 375              	 .set .LANCHOR1,.+0
 378              	__FUNCTION__.6006:
 379 0000 6578616D 	 .ascii "example_optiga_crypt_rsa_encrypt_message\000"
 379      706C655F 
 379      6F707469 
 379      67615F63 
 379      72797074 
 380              	 .text
 381              	.Letext0:
 382              	 .file 2 "c:\\dave_4-4-2_64bit\\dave-ide-4.4.2-64bit\\eclipse\\arm-gcc-49\\arm-none-eabi\\include\\machine\\_default_types.h"
 383              	 .file 3 "c:\\dave_4-4-2_64bit\\dave-ide-4.4.2-64bit\\eclipse\\arm-gcc-49\\arm-none-eabi\\include\\stdint.h"
 384              	 .file 4 "C:/Workspace/DAVE-4.4.2-64Bit/optiga-trust-m/optiga/include/optiga/common/optiga_lib_types.h"
 385              	 .file 5 "C:/Workspace/DAVE-4.4.2-64Bit/optiga-trust-m/optiga/include/optiga/common/optiga_lib_common.h"
 386              	 .file 6 "C:/Workspace/DAVE-4.4.2-64Bit/optiga-trust-m/optiga/include/optiga/cmd/optiga_cmd.h"
 387              	 .file 7 "C:/Workspace/DAVE-4.4.2-64Bit/optiga-trust-m/optiga/include/optiga/optiga_crypt.h"
 388              	 .file 8 "C:/Workspace/DAVE-4.4.2-64Bit/optiga-trust-m/optiga/include/optiga/common/optiga_lib_logger.h"