   1              	 .cpu cortex-m0
   2              	 .fpu softvfp
   3              	 .eabi_attribute 20,1
   4              	 .eabi_attribute 21,1
   5              	 .eabi_attribute 23,3
   6              	 .eabi_attribute 24,1
   7              	 .eabi_attribute 25,1
   8              	 .eabi_attribute 26,1
   9              	 .eabi_attribute 30,4
  10              	 .eabi_attribute 34,0
  11              	 .eabi_attribute 18,4
  12              	 .code 16
  13              	 .file "example_optiga_util_read_uid.c"
  14              	 .text
  15              	.Ltext0:
  16              	 .cfi_sections .debug_frame
  17              	 .section .text.optiga_util_callback,"ax",%progbits
  18              	 .align 1
  19              	 .code 16
  20              	 .thumb_func
  22              	optiga_util_callback:
  23              	.LFB0:
  24              	 .file 1 "C:/Workspace/DAVE-4.4.2-64Bit/optiga-trust-m/examples/optiga/example_optiga_util_read_uid.c"
   1:C:/Workspace/DAVE-4.4.2-64Bit/optiga-trust-m/examples/optiga\example_optiga_util_read_uid.c **** /**
   2:C:/Workspace/DAVE-4.4.2-64Bit/optiga-trust-m/examples/optiga\example_optiga_util_read_uid.c **** * \copyright
   3:C:/Workspace/DAVE-4.4.2-64Bit/optiga-trust-m/examples/optiga\example_optiga_util_read_uid.c **** * MIT License
   4:C:/Workspace/DAVE-4.4.2-64Bit/optiga-trust-m/examples/optiga\example_optiga_util_read_uid.c **** *
   5:C:/Workspace/DAVE-4.4.2-64Bit/optiga-trust-m/examples/optiga\example_optiga_util_read_uid.c **** * Copyright (c) 2019 Infineon Technologies AG
   6:C:/Workspace/DAVE-4.4.2-64Bit/optiga-trust-m/examples/optiga\example_optiga_util_read_uid.c **** *
   7:C:/Workspace/DAVE-4.4.2-64Bit/optiga-trust-m/examples/optiga\example_optiga_util_read_uid.c **** * Permission is hereby granted, free of charge, to any person obtaining a copy
   8:C:/Workspace/DAVE-4.4.2-64Bit/optiga-trust-m/examples/optiga\example_optiga_util_read_uid.c **** * of this software and associated documentation files (the "Software"), to deal
   9:C:/Workspace/DAVE-4.4.2-64Bit/optiga-trust-m/examples/optiga\example_optiga_util_read_uid.c **** * in the Software without restriction, including without limitation the rights
  10:C:/Workspace/DAVE-4.4.2-64Bit/optiga-trust-m/examples/optiga\example_optiga_util_read_uid.c **** * to use, copy, modify, merge, publish, distribute, sublicense, and/or sell
  11:C:/Workspace/DAVE-4.4.2-64Bit/optiga-trust-m/examples/optiga\example_optiga_util_read_uid.c **** * copies of the Software, and to permit persons to whom the Software is
  12:C:/Workspace/DAVE-4.4.2-64Bit/optiga-trust-m/examples/optiga\example_optiga_util_read_uid.c **** * furnished to do so, subject to the following conditions:
  13:C:/Workspace/DAVE-4.4.2-64Bit/optiga-trust-m/examples/optiga\example_optiga_util_read_uid.c **** *
  14:C:/Workspace/DAVE-4.4.2-64Bit/optiga-trust-m/examples/optiga\example_optiga_util_read_uid.c **** * The above copyright notice and this permission notice shall be included in all
  15:C:/Workspace/DAVE-4.4.2-64Bit/optiga-trust-m/examples/optiga\example_optiga_util_read_uid.c **** * copies or substantial portions of the Software.
  16:C:/Workspace/DAVE-4.4.2-64Bit/optiga-trust-m/examples/optiga\example_optiga_util_read_uid.c **** *
  17:C:/Workspace/DAVE-4.4.2-64Bit/optiga-trust-m/examples/optiga\example_optiga_util_read_uid.c **** * THE SOFTWARE IS PROVIDED "AS IS", WITHOUT WARRANTY OF ANY KIND, EXPRESS OR
  18:C:/Workspace/DAVE-4.4.2-64Bit/optiga-trust-m/examples/optiga\example_optiga_util_read_uid.c **** * IMPLIED, INCLUDING BUT NOT LIMITED TO THE WARRANTIES OF MERCHANTABILITY,
  19:C:/Workspace/DAVE-4.4.2-64Bit/optiga-trust-m/examples/optiga\example_optiga_util_read_uid.c **** * FITNESS FOR A PARTICULAR PURPOSE AND NONINFRINGEMENT. IN NO EVENT SHALL THE
  20:C:/Workspace/DAVE-4.4.2-64Bit/optiga-trust-m/examples/optiga\example_optiga_util_read_uid.c **** * AUTHORS OR COPYRIGHT HOLDERS BE LIABLE FOR ANY CLAIM, DAMAGES OR OTHER
  21:C:/Workspace/DAVE-4.4.2-64Bit/optiga-trust-m/examples/optiga\example_optiga_util_read_uid.c **** * LIABILITY, WHETHER IN AN ACTION OF CONTRACT, TORT OR OTHERWISE, ARISING FROM,
  22:C:/Workspace/DAVE-4.4.2-64Bit/optiga-trust-m/examples/optiga\example_optiga_util_read_uid.c **** * OUT OF OR IN CONNECTION WITH THE SOFTWARE OR THE USE OR OTHER DEALINGS IN THE
  23:C:/Workspace/DAVE-4.4.2-64Bit/optiga-trust-m/examples/optiga\example_optiga_util_read_uid.c **** * SOFTWARE
  24:C:/Workspace/DAVE-4.4.2-64Bit/optiga-trust-m/examples/optiga\example_optiga_util_read_uid.c **** *
  25:C:/Workspace/DAVE-4.4.2-64Bit/optiga-trust-m/examples/optiga\example_optiga_util_read_uid.c **** * \endcopyright
  26:C:/Workspace/DAVE-4.4.2-64Bit/optiga-trust-m/examples/optiga\example_optiga_util_read_uid.c **** *
  27:C:/Workspace/DAVE-4.4.2-64Bit/optiga-trust-m/examples/optiga\example_optiga_util_read_uid.c **** * \author Infineon Technologies AG
  28:C:/Workspace/DAVE-4.4.2-64Bit/optiga-trust-m/examples/optiga\example_optiga_util_read_uid.c **** *
  29:C:/Workspace/DAVE-4.4.2-64Bit/optiga-trust-m/examples/optiga\example_optiga_util_read_uid.c **** * \file example_optiga_util_read_uid.c
  30:C:/Workspace/DAVE-4.4.2-64Bit/optiga-trust-m/examples/optiga\example_optiga_util_read_uid.c **** *
  31:C:/Workspace/DAVE-4.4.2-64Bit/optiga-trust-m/examples/optiga\example_optiga_util_read_uid.c **** * \brief   This file provides the example for reading uid from OPTIGA using
  32:C:/Workspace/DAVE-4.4.2-64Bit/optiga-trust-m/examples/optiga\example_optiga_util_read_uid.c **** *          #optiga_util_read_data.
  33:C:/Workspace/DAVE-4.4.2-64Bit/optiga-trust-m/examples/optiga\example_optiga_util_read_uid.c **** *
  34:C:/Workspace/DAVE-4.4.2-64Bit/optiga-trust-m/examples/optiga\example_optiga_util_read_uid.c **** * \ingroup grOptigaExamples
  35:C:/Workspace/DAVE-4.4.2-64Bit/optiga-trust-m/examples/optiga\example_optiga_util_read_uid.c **** *
  36:C:/Workspace/DAVE-4.4.2-64Bit/optiga-trust-m/examples/optiga\example_optiga_util_read_uid.c **** * @{
  37:C:/Workspace/DAVE-4.4.2-64Bit/optiga-trust-m/examples/optiga\example_optiga_util_read_uid.c **** */
  38:C:/Workspace/DAVE-4.4.2-64Bit/optiga-trust-m/examples/optiga\example_optiga_util_read_uid.c **** 
  39:C:/Workspace/DAVE-4.4.2-64Bit/optiga-trust-m/examples/optiga\example_optiga_util_read_uid.c **** #include "optiga/optiga_util.h"
  40:C:/Workspace/DAVE-4.4.2-64Bit/optiga-trust-m/examples/optiga\example_optiga_util_read_uid.c **** 
  41:C:/Workspace/DAVE-4.4.2-64Bit/optiga-trust-m/examples/optiga\example_optiga_util_read_uid.c **** #ifdef OPTIGA_MINI_SHELL
  42:C:/Workspace/DAVE-4.4.2-64Bit/optiga-trust-m/examples/optiga\example_optiga_util_read_uid.c **** #include "optiga/common/optiga_lib_logger.h"
  43:C:/Workspace/DAVE-4.4.2-64Bit/optiga-trust-m/examples/optiga\example_optiga_util_read_uid.c **** #endif
  44:C:/Workspace/DAVE-4.4.2-64Bit/optiga-trust-m/examples/optiga\example_optiga_util_read_uid.c **** 
  45:C:/Workspace/DAVE-4.4.2-64Bit/optiga-trust-m/examples/optiga\example_optiga_util_read_uid.c **** extern void example_log_execution_status(const char_t* function, uint8_t status);
  46:C:/Workspace/DAVE-4.4.2-64Bit/optiga-trust-m/examples/optiga\example_optiga_util_read_uid.c **** extern void example_log_function_name(const char_t* function);
  47:C:/Workspace/DAVE-4.4.2-64Bit/optiga-trust-m/examples/optiga\example_optiga_util_read_uid.c **** /**
  48:C:/Workspace/DAVE-4.4.2-64Bit/optiga-trust-m/examples/optiga\example_optiga_util_read_uid.c ****  * Callback when optiga_util_xxxx operation is completed asynchronously
  49:C:/Workspace/DAVE-4.4.2-64Bit/optiga-trust-m/examples/optiga\example_optiga_util_read_uid.c ****  */
  50:C:/Workspace/DAVE-4.4.2-64Bit/optiga-trust-m/examples/optiga\example_optiga_util_read_uid.c **** static volatile optiga_lib_status_t optiga_lib_status;
  51:C:/Workspace/DAVE-4.4.2-64Bit/optiga-trust-m/examples/optiga\example_optiga_util_read_uid.c **** //lint --e{818} suppress "argument "context" is not used in the sample provided"
  52:C:/Workspace/DAVE-4.4.2-64Bit/optiga-trust-m/examples/optiga\example_optiga_util_read_uid.c **** static void optiga_util_callback(void * context, optiga_lib_status_t return_status)
  53:C:/Workspace/DAVE-4.4.2-64Bit/optiga-trust-m/examples/optiga\example_optiga_util_read_uid.c **** {
  25              	 .loc 1 53 0
  26              	 .cfi_startproc
  27              	.LVL0:
  54:C:/Workspace/DAVE-4.4.2-64Bit/optiga-trust-m/examples/optiga\example_optiga_util_read_uid.c ****     optiga_lib_status = return_status;
  28              	 .loc 1 54 0
  29 0000 014B     	 ldr r3,.L2
  55:C:/Workspace/DAVE-4.4.2-64Bit/optiga-trust-m/examples/optiga\example_optiga_util_read_uid.c ****     if (NULL != context)
  56:C:/Workspace/DAVE-4.4.2-64Bit/optiga-trust-m/examples/optiga\example_optiga_util_read_uid.c ****     {
  57:C:/Workspace/DAVE-4.4.2-64Bit/optiga-trust-m/examples/optiga\example_optiga_util_read_uid.c ****         // callback to upper layer here
  58:C:/Workspace/DAVE-4.4.2-64Bit/optiga-trust-m/examples/optiga\example_optiga_util_read_uid.c ****     }
  59:C:/Workspace/DAVE-4.4.2-64Bit/optiga-trust-m/examples/optiga\example_optiga_util_read_uid.c **** }
  30              	 .loc 1 59 0
  31              	 
  54:C:/Workspace/DAVE-4.4.2-64Bit/optiga-trust-m/examples/optiga\example_optiga_util_read_uid.c ****     optiga_lib_status = return_status;
  32              	 .loc 1 54 0
  33 0002 1980     	 strh r1,[r3]
  34              	 .loc 1 59 0
  35 0004 7047     	 bx lr
  36              	.L3:
  37 0006 C046     	 .align 2
  38              	.L2:
  39 0008 00000000 	 .word .LANCHOR0
  40              	 .cfi_endproc
  41              	.LFE0:
  43              	 .section .text.example_optiga_util_read_uid,"ax",%progbits
  44              	 .align 1
  45              	 .global example_optiga_util_read_uid
  46              	 .code 16
  47              	 .thumb_func
  49              	example_optiga_util_read_uid:
  50              	.LFB1:
  60:C:/Workspace/DAVE-4.4.2-64Bit/optiga-trust-m/examples/optiga\example_optiga_util_read_uid.c **** 
  61:C:/Workspace/DAVE-4.4.2-64Bit/optiga-trust-m/examples/optiga\example_optiga_util_read_uid.c **** 
  62:C:/Workspace/DAVE-4.4.2-64Bit/optiga-trust-m/examples/optiga\example_optiga_util_read_uid.c **** /**
  63:C:/Workspace/DAVE-4.4.2-64Bit/optiga-trust-m/examples/optiga\example_optiga_util_read_uid.c ****  * The below example demonstrates read data/metadata functionalities
  64:C:/Workspace/DAVE-4.4.2-64Bit/optiga-trust-m/examples/optiga\example_optiga_util_read_uid.c ****  *
  65:C:/Workspace/DAVE-4.4.2-64Bit/optiga-trust-m/examples/optiga\example_optiga_util_read_uid.c ****  * Example for #optiga_util_read_data and #optiga_util_read_metadata
  66:C:/Workspace/DAVE-4.4.2-64Bit/optiga-trust-m/examples/optiga\example_optiga_util_read_uid.c ****  *
  67:C:/Workspace/DAVE-4.4.2-64Bit/optiga-trust-m/examples/optiga\example_optiga_util_read_uid.c ****  */
  68:C:/Workspace/DAVE-4.4.2-64Bit/optiga-trust-m/examples/optiga\example_optiga_util_read_uid.c **** void example_optiga_util_read_uid(void)
  69:C:/Workspace/DAVE-4.4.2-64Bit/optiga-trust-m/examples/optiga\example_optiga_util_read_uid.c **** {
  51              	 .loc 1 69 0
  52              	 .cfi_startproc
  53              	.LVL1:
  54 0000 70B5     	 push {r4,r5,r6,lr}
  55              	.LCFI0:
  56              	 .cfi_def_cfa_offset 16
  57              	 .cfi_offset 4,-16
  58              	 .cfi_offset 5,-12
  59              	 .cfi_offset 6,-8
  60              	 .cfi_offset 14,-4
  61 0002 1E4C     	 ldr r4,.L13
  70:C:/Workspace/DAVE-4.4.2-64Bit/optiga-trust-m/examples/optiga\example_optiga_util_read_uid.c ****     uint16_t offset, bytes_to_read;
  71:C:/Workspace/DAVE-4.4.2-64Bit/optiga-trust-m/examples/optiga\example_optiga_util_read_uid.c ****     uint16_t optiga_oid;
  72:C:/Workspace/DAVE-4.4.2-64Bit/optiga-trust-m/examples/optiga\example_optiga_util_read_uid.c ****     uint8_t read_data_buffer[1024];
  73:C:/Workspace/DAVE-4.4.2-64Bit/optiga-trust-m/examples/optiga\example_optiga_util_read_uid.c ****     optiga_lib_status_t return_status;
  74:C:/Workspace/DAVE-4.4.2-64Bit/optiga-trust-m/examples/optiga\example_optiga_util_read_uid.c ****     optiga_util_t * me = NULL;
  75:C:/Workspace/DAVE-4.4.2-64Bit/optiga-trust-m/examples/optiga\example_optiga_util_read_uid.c ****     uint8_t logging_status = 0;
  76:C:/Workspace/DAVE-4.4.2-64Bit/optiga-trust-m/examples/optiga\example_optiga_util_read_uid.c ****     example_log_function_name(__FUNCTION__);
  62              	 .loc 1 76 0
  63 0004 1E4E     	 ldr r6,.L13+4
  69:C:/Workspace/DAVE-4.4.2-64Bit/optiga-trust-m/examples/optiga\example_optiga_util_read_uid.c ****     uint16_t offset, bytes_to_read;
  64              	 .loc 1 69 0
  65 0006 A544     	 add sp,sp,r4
  66              	.LCFI1:
  67              	 .cfi_def_cfa_offset 1056
  68              	 .loc 1 76 0
  69 0008 301C     	 mov r0,r6
  70 000a FFF7FEFF 	 bl example_log_function_name
  71              	.LVL2:
  77:C:/Workspace/DAVE-4.4.2-64Bit/optiga-trust-m/examples/optiga\example_optiga_util_read_uid.c **** 
  78:C:/Workspace/DAVE-4.4.2-64Bit/optiga-trust-m/examples/optiga\example_optiga_util_read_uid.c ****     do
  79:C:/Workspace/DAVE-4.4.2-64Bit/optiga-trust-m/examples/optiga\example_optiga_util_read_uid.c ****     {
  80:C:/Workspace/DAVE-4.4.2-64Bit/optiga-trust-m/examples/optiga\example_optiga_util_read_uid.c ****     	/**
  81:C:/Workspace/DAVE-4.4.2-64Bit/optiga-trust-m/examples/optiga\example_optiga_util_read_uid.c **** 		 * 1. Create OPTIGA Util Instance
  82:C:/Workspace/DAVE-4.4.2-64Bit/optiga-trust-m/examples/optiga\example_optiga_util_read_uid.c **** 		 */
  83:C:/Workspace/DAVE-4.4.2-64Bit/optiga-trust-m/examples/optiga\example_optiga_util_read_uid.c **** 		me = optiga_util_create(0, optiga_util_callback, NULL);
  72              	 .loc 1 83 0
  73 000e 0020     	 mov r0,#0
  74 0010 1C49     	 ldr r1,.L13+8
  75 0012 021C     	 mov r2,r0
  76 0014 FFF7FEFF 	 bl optiga_util_create
  77              	.LVL3:
  78 0018 051C     	 mov r5,r0
  79              	.LVL4:
  75:C:/Workspace/DAVE-4.4.2-64Bit/optiga-trust-m/examples/optiga\example_optiga_util_read_uid.c ****     example_log_function_name(__FUNCTION__);
  80              	 .loc 1 75 0
  81 001a 041E     	 sub r4,r0,#0
  84:C:/Workspace/DAVE-4.4.2-64Bit/optiga-trust-m/examples/optiga\example_optiga_util_read_uid.c **** 		if (NULL == me)
  82              	 .loc 1 84 0
  83 001c 26D0     	 beq .L5
  84              	.LVL5:
  85:C:/Workspace/DAVE-4.4.2-64Bit/optiga-trust-m/examples/optiga\example_optiga_util_read_uid.c **** 		{
  86:C:/Workspace/DAVE-4.4.2-64Bit/optiga-trust-m/examples/optiga\example_optiga_util_read_uid.c **** 			break;
  87:C:/Workspace/DAVE-4.4.2-64Bit/optiga-trust-m/examples/optiga\example_optiga_util_read_uid.c **** 		}
  88:C:/Workspace/DAVE-4.4.2-64Bit/optiga-trust-m/examples/optiga\example_optiga_util_read_uid.c **** 
  89:C:/Workspace/DAVE-4.4.2-64Bit/optiga-trust-m/examples/optiga\example_optiga_util_read_uid.c **** 		//Read device end entity certificate from OPTIGA
  90:C:/Workspace/DAVE-4.4.2-64Bit/optiga-trust-m/examples/optiga\example_optiga_util_read_uid.c **** 		optiga_oid = 0xE0C2;
  91:C:/Workspace/DAVE-4.4.2-64Bit/optiga-trust-m/examples/optiga\example_optiga_util_read_uid.c **** 		offset = 0x00;
  92:C:/Workspace/DAVE-4.4.2-64Bit/optiga-trust-m/examples/optiga\example_optiga_util_read_uid.c **** 		bytes_to_read = sizeof(read_data_buffer);
  85              	 .loc 1 92 0
  86 001e 8023     	 mov r3,#128
  87 0020 6A46     	 mov r2,sp
  88 0022 DB00     	 lsl r3,r3,#3
  89 0024 D381     	 strh r3,[r2,#14]
  93:C:/Workspace/DAVE-4.4.2-64Bit/optiga-trust-m/examples/optiga\example_optiga_util_read_uid.c **** 
  94:C:/Workspace/DAVE-4.4.2-64Bit/optiga-trust-m/examples/optiga\example_optiga_util_read_uid.c **** 		// OPTIGA Comms Shielded connection settings to enable the protection
  95:C:/Workspace/DAVE-4.4.2-64Bit/optiga-trust-m/examples/optiga\example_optiga_util_read_uid.c **** 		OPTIGA_UTIL_SET_COMMS_PROTOCOL_VERSION(me, OPTIGA_COMMS_PROTOCOL_VERSION_PRE_SHARED_SECRET);
  90              	 .loc 1 95 0
  91 0026 0221     	 mov r1,#2
  92 0028 0122     	 mov r2,#1
  93 002a FFF7FEFF 	 bl optiga_util_set_comms_params
  94              	.LVL6:
  96:C:/Workspace/DAVE-4.4.2-64Bit/optiga-trust-m/examples/optiga\example_optiga_util_read_uid.c **** 		OPTIGA_UTIL_SET_COMMS_PROTECTION_LEVEL(me, OPTIGA_COMMS_RESPONSE_PROTECTION);
  95              	 .loc 1 96 0
  96 002e 281C     	 mov r0,r5
  97 0030 0121     	 mov r1,#1
  98 0032 0222     	 mov r2,#2
  99 0034 FFF7FEFF 	 bl optiga_util_set_comms_params
 100              	.LVL7:
  97:C:/Workspace/DAVE-4.4.2-64Bit/optiga-trust-m/examples/optiga\example_optiga_util_read_uid.c **** 
  98:C:/Workspace/DAVE-4.4.2-64Bit/optiga-trust-m/examples/optiga\example_optiga_util_read_uid.c **** 		/**
  99:C:/Workspace/DAVE-4.4.2-64Bit/optiga-trust-m/examples/optiga\example_optiga_util_read_uid.c **** 		 * 2. Read data from a data object (e.g. certificate data object)
 100:C:/Workspace/DAVE-4.4.2-64Bit/optiga-trust-m/examples/optiga\example_optiga_util_read_uid.c **** 		 *    using optiga_util_read_data.
 101:C:/Workspace/DAVE-4.4.2-64Bit/optiga-trust-m/examples/optiga\example_optiga_util_read_uid.c **** 		 */
 102:C:/Workspace/DAVE-4.4.2-64Bit/optiga-trust-m/examples/optiga\example_optiga_util_read_uid.c **** 		optiga_lib_status = OPTIGA_LIB_BUSY;
 101              	 .loc 1 102 0
 102 0038 0123     	 mov r3,#1
 103 003a 134C     	 ldr r4,.L13+12
 104              	.LVL8:
 103:C:/Workspace/DAVE-4.4.2-64Bit/optiga-trust-m/examples/optiga\example_optiga_util_read_uid.c **** 		return_status = optiga_util_read_data(me,
 105              	 .loc 1 103 0
 106 003c 281C     	 mov r0,r5
 102:C:/Workspace/DAVE-4.4.2-64Bit/optiga-trust-m/examples/optiga\example_optiga_util_read_uid.c **** 		return_status = optiga_util_read_data(me,
 107              	 .loc 1 102 0
 108 003e 2380     	 strh r3,[r4]
 109              	 .loc 1 103 0
 110 0040 0D33     	 add r3,r3,#13
 111 0042 6B44     	 add r3,r3,sp
 112 0044 0093     	 str r3,[sp]
 113 0046 1149     	 ldr r1,.L13+16
 114 0048 04AB     	 add r3,sp,#16
 115 004a 0022     	 mov r2,#0
 116 004c FFF7FEFF 	 bl optiga_util_read_data
 117              	.LVL9:
 118 0050 231C     	 mov r3,r4
  75:C:/Workspace/DAVE-4.4.2-64Bit/optiga-trust-m/examples/optiga\example_optiga_util_read_uid.c ****     example_log_function_name(__FUNCTION__);
 119              	 .loc 1 75 0
 120 0052 0024     	 mov r4,#0
 104:C:/Workspace/DAVE-4.4.2-64Bit/optiga-trust-m/examples/optiga\example_optiga_util_read_uid.c **** 											  optiga_oid,
 105:C:/Workspace/DAVE-4.4.2-64Bit/optiga-trust-m/examples/optiga\example_optiga_util_read_uid.c **** 											  offset,
 106:C:/Workspace/DAVE-4.4.2-64Bit/optiga-trust-m/examples/optiga\example_optiga_util_read_uid.c **** 											  read_data_buffer,
 107:C:/Workspace/DAVE-4.4.2-64Bit/optiga-trust-m/examples/optiga\example_optiga_util_read_uid.c **** 											  &bytes_to_read);
 108:C:/Workspace/DAVE-4.4.2-64Bit/optiga-trust-m/examples/optiga\example_optiga_util_read_uid.c **** 
 109:C:/Workspace/DAVE-4.4.2-64Bit/optiga-trust-m/examples/optiga\example_optiga_util_read_uid.c **** 		if (OPTIGA_LIB_SUCCESS != return_status)
 121              	 .loc 1 109 0
 122 0054 A042     	 cmp r0,r4
 123 0056 06D1     	 bne .L6
 124              	.L7:
 110:C:/Workspace/DAVE-4.4.2-64Bit/optiga-trust-m/examples/optiga\example_optiga_util_read_uid.c **** 		{
 111:C:/Workspace/DAVE-4.4.2-64Bit/optiga-trust-m/examples/optiga\example_optiga_util_read_uid.c **** 			break;
 112:C:/Workspace/DAVE-4.4.2-64Bit/optiga-trust-m/examples/optiga\example_optiga_util_read_uid.c **** 		}
 113:C:/Workspace/DAVE-4.4.2-64Bit/optiga-trust-m/examples/optiga\example_optiga_util_read_uid.c **** 
 114:C:/Workspace/DAVE-4.4.2-64Bit/optiga-trust-m/examples/optiga\example_optiga_util_read_uid.c **** 		while (OPTIGA_LIB_BUSY == optiga_lib_status)
 125              	 .loc 1 114 0 discriminator 1
 126 0058 1A88     	 ldrh r2,[r3]
 127 005a 012A     	 cmp r2,#1
 128 005c FCD0     	 beq .L7
 115:C:/Workspace/DAVE-4.4.2-64Bit/optiga-trust-m/examples/optiga\example_optiga_util_read_uid.c **** 		{
 116:C:/Workspace/DAVE-4.4.2-64Bit/optiga-trust-m/examples/optiga\example_optiga_util_read_uid.c **** 			//Wait until the optiga_util_read_data operation is completed
 117:C:/Workspace/DAVE-4.4.2-64Bit/optiga-trust-m/examples/optiga\example_optiga_util_read_uid.c **** 		}
 118:C:/Workspace/DAVE-4.4.2-64Bit/optiga-trust-m/examples/optiga\example_optiga_util_read_uid.c **** 
 119:C:/Workspace/DAVE-4.4.2-64Bit/optiga-trust-m/examples/optiga\example_optiga_util_read_uid.c **** 		if (OPTIGA_LIB_SUCCESS != optiga_lib_status)
 129              	 .loc 1 119 0
 130 005e 1C88     	 ldrh r4,[r3]
 131 0060 6342     	 neg r3,r4
 132 0062 5C41     	 adc r4,r4,r3
 120:C:/Workspace/DAVE-4.4.2-64Bit/optiga-trust-m/examples/optiga\example_optiga_util_read_uid.c **** 		{
 121:C:/Workspace/DAVE-4.4.2-64Bit/optiga-trust-m/examples/optiga\example_optiga_util_read_uid.c **** 			//Reading the data object failed.
 122:C:/Workspace/DAVE-4.4.2-64Bit/optiga-trust-m/examples/optiga\example_optiga_util_read_uid.c **** 			break;
 123:C:/Workspace/DAVE-4.4.2-64Bit/optiga-trust-m/examples/optiga\example_optiga_util_read_uid.c **** 		}
 124:C:/Workspace/DAVE-4.4.2-64Bit/optiga-trust-m/examples/optiga\example_optiga_util_read_uid.c **** 
 125:C:/Workspace/DAVE-4.4.2-64Bit/optiga-trust-m/examples/optiga\example_optiga_util_read_uid.c **** 		logging_status = 1;
 133              	 .loc 1 125 0
 134 0064 E4B2     	 uxtb r4,r4
 135              	.L6:
 136              	.LVL10:
 126:C:/Workspace/DAVE-4.4.2-64Bit/optiga-trust-m/examples/optiga\example_optiga_util_read_uid.c **** 
 127:C:/Workspace/DAVE-4.4.2-64Bit/optiga-trust-m/examples/optiga\example_optiga_util_read_uid.c **** 		#ifdef OPTIGA_MINI_SHELL
 128:C:/Workspace/DAVE-4.4.2-64Bit/optiga-trust-m/examples/optiga\example_optiga_util_read_uid.c **** 		        optiga_lib_print_string_with_newline("OPTIGA Trust Read Unique Identifier (UID):");
 129:C:/Workspace/DAVE-4.4.2-64Bit/optiga-trust-m/examples/optiga\example_optiga_util_read_uid.c **** 		        optiga_lib_print_hex_dump(read_data_buffer, bytes_to_read);
 130:C:/Workspace/DAVE-4.4.2-64Bit/optiga-trust-m/examples/optiga\example_optiga_util_read_uid.c **** 		        optiga_lib_print_string_with_newline("\n");
 131:C:/Workspace/DAVE-4.4.2-64Bit/optiga-trust-m/examples/optiga\example_optiga_util_read_uid.c **** 
 132:C:/Workspace/DAVE-4.4.2-64Bit/optiga-trust-m/examples/optiga\example_optiga_util_read_uid.c **** 		        //optiga_lib_print_string_with_newline("Read device end entity certificate from OPTIGA:")
 133:C:/Workspace/DAVE-4.4.2-64Bit/optiga-trust-m/examples/optiga\example_optiga_util_read_uid.c **** 		        optiga_lib_print_string_with_newline("CIM Identifier:");
 134:C:/Workspace/DAVE-4.4.2-64Bit/optiga-trust-m/examples/optiga\example_optiga_util_read_uid.c **** 		        optiga_lib_print_hex_dump(&read_data_buffer[0], 1);
 135:C:/Workspace/DAVE-4.4.2-64Bit/optiga-trust-m/examples/optiga\example_optiga_util_read_uid.c **** 
 136:C:/Workspace/DAVE-4.4.2-64Bit/optiga-trust-m/examples/optiga\example_optiga_util_read_uid.c **** 		        optiga_lib_print_string_with_newline("Platform Identifier:");
 137:C:/Workspace/DAVE-4.4.2-64Bit/optiga-trust-m/examples/optiga\example_optiga_util_read_uid.c **** 		        optiga_lib_print_hex_dump(&read_data_buffer[1], 1);
 138:C:/Workspace/DAVE-4.4.2-64Bit/optiga-trust-m/examples/optiga\example_optiga_util_read_uid.c **** 
 139:C:/Workspace/DAVE-4.4.2-64Bit/optiga-trust-m/examples/optiga\example_optiga_util_read_uid.c **** 		        optiga_lib_print_string_with_newline("Model identifier:");
 140:C:/Workspace/DAVE-4.4.2-64Bit/optiga-trust-m/examples/optiga\example_optiga_util_read_uid.c **** 		        optiga_lib_print_hex_dump(&read_data_buffer[2], 1);
 141:C:/Workspace/DAVE-4.4.2-64Bit/optiga-trust-m/examples/optiga\example_optiga_util_read_uid.c **** 
 142:C:/Workspace/DAVE-4.4.2-64Bit/optiga-trust-m/examples/optiga\example_optiga_util_read_uid.c **** 		        optiga_lib_print_string_with_newline("ID of ROM mask:");
 143:C:/Workspace/DAVE-4.4.2-64Bit/optiga-trust-m/examples/optiga\example_optiga_util_read_uid.c **** 		        optiga_lib_print_hex_dump(&read_data_buffer[3], 2);
 144:C:/Workspace/DAVE-4.4.2-64Bit/optiga-trust-m/examples/optiga\example_optiga_util_read_uid.c **** 
 145:C:/Workspace/DAVE-4.4.2-64Bit/optiga-trust-m/examples/optiga\example_optiga_util_read_uid.c **** 		        optiga_lib_print_string_with_newline("Chip type:");
 146:C:/Workspace/DAVE-4.4.2-64Bit/optiga-trust-m/examples/optiga\example_optiga_util_read_uid.c **** 				optiga_lib_print_hex_dump(&read_data_buffer[5], 6);
 147:C:/Workspace/DAVE-4.4.2-64Bit/optiga-trust-m/examples/optiga\example_optiga_util_read_uid.c **** 
 148:C:/Workspace/DAVE-4.4.2-64Bit/optiga-trust-m/examples/optiga\example_optiga_util_read_uid.c **** 				optiga_lib_print_string_with_newline("Batch number:");
 149:C:/Workspace/DAVE-4.4.2-64Bit/optiga-trust-m/examples/optiga\example_optiga_util_read_uid.c **** 				optiga_lib_print_hex_dump(&read_data_buffer[11], 6);
 150:C:/Workspace/DAVE-4.4.2-64Bit/optiga-trust-m/examples/optiga\example_optiga_util_read_uid.c **** 
 151:C:/Workspace/DAVE-4.4.2-64Bit/optiga-trust-m/examples/optiga\example_optiga_util_read_uid.c **** 				optiga_lib_print_string_with_newline("Wafer Position:");
 152:C:/Workspace/DAVE-4.4.2-64Bit/optiga-trust-m/examples/optiga\example_optiga_util_read_uid.c **** 				optiga_lib_print_hex_dump(&read_data_buffer[17], 4);
 153:C:/Workspace/DAVE-4.4.2-64Bit/optiga-trust-m/examples/optiga\example_optiga_util_read_uid.c **** 
 154:C:/Workspace/DAVE-4.4.2-64Bit/optiga-trust-m/examples/optiga\example_optiga_util_read_uid.c **** 				optiga_lib_print_string_with_newline("Firmware Identifier:");
 155:C:/Workspace/DAVE-4.4.2-64Bit/optiga-trust-m/examples/optiga\example_optiga_util_read_uid.c **** 				optiga_lib_print_hex_dump(&read_data_buffer[21], 4);
 156:C:/Workspace/DAVE-4.4.2-64Bit/optiga-trust-m/examples/optiga\example_optiga_util_read_uid.c **** 
 157:C:/Workspace/DAVE-4.4.2-64Bit/optiga-trust-m/examples/optiga\example_optiga_util_read_uid.c **** 				optiga_lib_print_string_with_newline("ESW build number, BCD coded:");
 158:C:/Workspace/DAVE-4.4.2-64Bit/optiga-trust-m/examples/optiga\example_optiga_util_read_uid.c **** 				optiga_lib_print_hex_dump(&read_data_buffer[25], 2);
 159:C:/Workspace/DAVE-4.4.2-64Bit/optiga-trust-m/examples/optiga\example_optiga_util_read_uid.c **** 		#endif
 160:C:/Workspace/DAVE-4.4.2-64Bit/optiga-trust-m/examples/optiga\example_optiga_util_read_uid.c ****     }while(0);
 161:C:/Workspace/DAVE-4.4.2-64Bit/optiga-trust-m/examples/optiga\example_optiga_util_read_uid.c **** 
 162:C:/Workspace/DAVE-4.4.2-64Bit/optiga-trust-m/examples/optiga\example_optiga_util_read_uid.c ****     if (me)
 163:C:/Workspace/DAVE-4.4.2-64Bit/optiga-trust-m/examples/optiga\example_optiga_util_read_uid.c **** 	{
 164:C:/Workspace/DAVE-4.4.2-64Bit/optiga-trust-m/examples/optiga\example_optiga_util_read_uid.c **** 		//Destroy the instance after the completion of usecase if not required.
 165:C:/Workspace/DAVE-4.4.2-64Bit/optiga-trust-m/examples/optiga\example_optiga_util_read_uid.c **** 		return_status = optiga_util_destroy(me);
 137              	 .loc 1 165 0
 138 0066 281C     	 mov r0,r5
 139              	.LVL11:
 140 0068 FFF7FEFF 	 bl optiga_util_destroy
 141              	.LVL12:
 142              	.L5:
 166:C:/Workspace/DAVE-4.4.2-64Bit/optiga-trust-m/examples/optiga\example_optiga_util_read_uid.c **** 	}
 167:C:/Workspace/DAVE-4.4.2-64Bit/optiga-trust-m/examples/optiga\example_optiga_util_read_uid.c **** 	example_log_execution_status(__FUNCTION__,logging_status);
 143              	 .loc 1 167 0
 144 006c 301C     	 mov r0,r6
 145 006e 211C     	 mov r1,r4
 146 0070 FFF7FEFF 	 bl example_log_execution_status
 147              	.LVL13:
 168:C:/Workspace/DAVE-4.4.2-64Bit/optiga-trust-m/examples/optiga\example_optiga_util_read_uid.c **** }
 148              	 .loc 1 168 0
 149 0074 8223     	 mov r3,#130
 150 0076 DB00     	 lsl r3,r3,#3
 151 0078 9D44     	 add sp,sp,r3
 152              	 
 153              	.LVL14:
 154 007a 70BD     	 pop {r4,r5,r6,pc}
 155              	.L14:
 156              	 .align 2
 157              	.L13:
 158 007c F0FBFFFF 	 .word -1040
 159 0080 00000000 	 .word .LANCHOR1
 160 0084 00000000 	 .word optiga_util_callback
 161 0088 00000000 	 .word .LANCHOR0
 162 008c C2E00000 	 .word 57538
 163              	 .cfi_endproc
 164              	.LFE1:
 166              	 .section .rodata.__FUNCTION__.5909,"a",%progbits
 167              	 .set .LANCHOR1,.+0
 170              	__FUNCTION__.5909:
 171 0000 6578616D 	 .ascii "example_optiga_util_read_uid\000"
 171      706C655F 
 171      6F707469 
 171      67615F75 
 171      74696C5F 
 172              	 .section .bss.optiga_lib_status,"aw",%nobits
 173              	 .align 1
 174              	 .set .LANCHOR0,.+0
 177              	optiga_lib_status:
 178 0000 0000     	 .space 2
 179              	 .text
 180              	.Letext0:
 181              	 .file 2 "c:\\dave_4-4-2_64bit\\dave-ide-4.4.2-64bit\\eclipse\\arm-gcc-49\\arm-none-eabi\\include\\machine\\_default_types.h"
 182              	 .file 3 "c:\\dave_4-4-2_64bit\\dave-ide-4.4.2-64bit\\eclipse\\arm-gcc-49\\arm-none-eabi\\include\\stdint.h"
 183              	 .file 4 "C:/Workspace/DAVE-4.4.2-64Bit/optiga-trust-m/optiga/include/optiga/common/optiga_lib_types.h"
 184              	 .file 5 "C:/Workspace/DAVE-4.4.2-64Bit/optiga-trust-m/optiga/include/optiga/common/optiga_lib_common.h"
 185              	 .file 6 "C:/Workspace/DAVE-4.4.2-64Bit/optiga-trust-m/optiga/include/optiga/cmd/optiga_cmd.h"
 186              	 .file 7 "C:/Workspace/DAVE-4.4.2-64Bit/optiga-trust-m/optiga/include/optiga/optiga_util.h"