   1              	 .cpu cortex-m0
   2              	 .fpu softvfp
   3              	 .eabi_attribute 20,1
   4              	 .eabi_attribute 21,1
   5              	 .eabi_attribute 23,3
   6              	 .eabi_attribute 24,1
   7              	 .eabi_attribute 25,1
   8              	 .eabi_attribute 26,1
   9              	 .eabi_attribute 30,4
  10              	 .eabi_attribute 34,0
  11              	 .eabi_attribute 18,4
  12              	 .code 16
  13              	 .file "ifx_i2c_physical_layer.c"
  14              	 .text
  15              	.Ltext0:
  16              	 .cfi_sections .debug_frame
  17              	 .section .text.ifx_i2c_pl_pal_slave_addr_event_handler,"ax",%progbits
  18              	 .align 1
  19              	 .code 16
  20              	 .thumb_func
  22              	ifx_i2c_pl_pal_slave_addr_event_handler:
  23              	.LFB14:
  24              	 .file 1 "//MAC/Home/Downloads/getstarted-optiga-trust-m/optiga-trust-m-1/optiga/comms/ifx_i2c/ifx_i2c_physical_layer.c"
   1://MAC/Home/Downloads/getstarted-optiga-trust-m/optiga-trust-m-1/optiga/comms/ifx_i2c/ifx_i2c_physical_layer.c **** /**
   2://MAC/Home/Downloads/getstarted-optiga-trust-m/optiga-trust-m-1/optiga/comms/ifx_i2c/ifx_i2c_physical_layer.c **** * \copyright
   3://MAC/Home/Downloads/getstarted-optiga-trust-m/optiga-trust-m-1/optiga/comms/ifx_i2c/ifx_i2c_physical_layer.c **** * MIT License
   4://MAC/Home/Downloads/getstarted-optiga-trust-m/optiga-trust-m-1/optiga/comms/ifx_i2c/ifx_i2c_physical_layer.c **** *
   5://MAC/Home/Downloads/getstarted-optiga-trust-m/optiga-trust-m-1/optiga/comms/ifx_i2c/ifx_i2c_physical_layer.c **** * Copyright (c) 2019 Infineon Technologies AG
   6://MAC/Home/Downloads/getstarted-optiga-trust-m/optiga-trust-m-1/optiga/comms/ifx_i2c/ifx_i2c_physical_layer.c **** *
   7://MAC/Home/Downloads/getstarted-optiga-trust-m/optiga-trust-m-1/optiga/comms/ifx_i2c/ifx_i2c_physical_layer.c **** * Permission is hereby granted, free of charge, to any person obtaining a copy
   8://MAC/Home/Downloads/getstarted-optiga-trust-m/optiga-trust-m-1/optiga/comms/ifx_i2c/ifx_i2c_physical_layer.c **** * of this software and associated documentation files (the "Software"), to deal
   9://MAC/Home/Downloads/getstarted-optiga-trust-m/optiga-trust-m-1/optiga/comms/ifx_i2c/ifx_i2c_physical_layer.c **** * in the Software without restriction, including without limitation the rights
  10://MAC/Home/Downloads/getstarted-optiga-trust-m/optiga-trust-m-1/optiga/comms/ifx_i2c/ifx_i2c_physical_layer.c **** * to use, copy, modify, merge, publish, distribute, sublicense, and/or sell
  11://MAC/Home/Downloads/getstarted-optiga-trust-m/optiga-trust-m-1/optiga/comms/ifx_i2c/ifx_i2c_physical_layer.c **** * copies of the Software, and to permit persons to whom the Software is
  12://MAC/Home/Downloads/getstarted-optiga-trust-m/optiga-trust-m-1/optiga/comms/ifx_i2c/ifx_i2c_physical_layer.c **** * furnished to do so, subject to the following conditions:
  13://MAC/Home/Downloads/getstarted-optiga-trust-m/optiga-trust-m-1/optiga/comms/ifx_i2c/ifx_i2c_physical_layer.c **** *
  14://MAC/Home/Downloads/getstarted-optiga-trust-m/optiga-trust-m-1/optiga/comms/ifx_i2c/ifx_i2c_physical_layer.c **** * The above copyright notice and this permission notice shall be included in all
  15://MAC/Home/Downloads/getstarted-optiga-trust-m/optiga-trust-m-1/optiga/comms/ifx_i2c/ifx_i2c_physical_layer.c **** * copies or substantial portions of the Software.
  16://MAC/Home/Downloads/getstarted-optiga-trust-m/optiga-trust-m-1/optiga/comms/ifx_i2c/ifx_i2c_physical_layer.c **** *
  17://MAC/Home/Downloads/getstarted-optiga-trust-m/optiga-trust-m-1/optiga/comms/ifx_i2c/ifx_i2c_physical_layer.c **** * THE SOFTWARE IS PROVIDED "AS IS", WITHOUT WARRANTY OF ANY KIND, EXPRESS OR
  18://MAC/Home/Downloads/getstarted-optiga-trust-m/optiga-trust-m-1/optiga/comms/ifx_i2c/ifx_i2c_physical_layer.c **** * IMPLIED, INCLUDING BUT NOT LIMITED TO THE WARRANTIES OF MERCHANTABILITY,
  19://MAC/Home/Downloads/getstarted-optiga-trust-m/optiga-trust-m-1/optiga/comms/ifx_i2c/ifx_i2c_physical_layer.c **** * FITNESS FOR A PARTICULAR PURPOSE AND NONINFRINGEMENT. IN NO EVENT SHALL THE
  20://MAC/Home/Downloads/getstarted-optiga-trust-m/optiga-trust-m-1/optiga/comms/ifx_i2c/ifx_i2c_physical_layer.c **** * AUTHORS OR COPYRIGHT HOLDERS BE LIABLE FOR ANY CLAIM, DAMAGES OR OTHER
  21://MAC/Home/Downloads/getstarted-optiga-trust-m/optiga-trust-m-1/optiga/comms/ifx_i2c/ifx_i2c_physical_layer.c **** * LIABILITY, WHETHER IN AN ACTION OF CONTRACT, TORT OR OTHERWISE, ARISING FROM,
  22://MAC/Home/Downloads/getstarted-optiga-trust-m/optiga-trust-m-1/optiga/comms/ifx_i2c/ifx_i2c_physical_layer.c **** * OUT OF OR IN CONNECTION WITH THE SOFTWARE OR THE USE OR OTHER DEALINGS IN THE
  23://MAC/Home/Downloads/getstarted-optiga-trust-m/optiga-trust-m-1/optiga/comms/ifx_i2c/ifx_i2c_physical_layer.c **** * SOFTWARE
  24://MAC/Home/Downloads/getstarted-optiga-trust-m/optiga-trust-m-1/optiga/comms/ifx_i2c/ifx_i2c_physical_layer.c **** *
  25://MAC/Home/Downloads/getstarted-optiga-trust-m/optiga-trust-m-1/optiga/comms/ifx_i2c/ifx_i2c_physical_layer.c **** * \endcopyright
  26://MAC/Home/Downloads/getstarted-optiga-trust-m/optiga-trust-m-1/optiga/comms/ifx_i2c/ifx_i2c_physical_layer.c **** *
  27://MAC/Home/Downloads/getstarted-optiga-trust-m/optiga-trust-m-1/optiga/comms/ifx_i2c/ifx_i2c_physical_layer.c **** * \author Infineon Technologies AG
  28://MAC/Home/Downloads/getstarted-optiga-trust-m/optiga-trust-m-1/optiga/comms/ifx_i2c/ifx_i2c_physical_layer.c **** *
  29://MAC/Home/Downloads/getstarted-optiga-trust-m/optiga-trust-m-1/optiga/comms/ifx_i2c/ifx_i2c_physical_layer.c **** * \file ifx_i2c_physical_layer.c
  30://MAC/Home/Downloads/getstarted-optiga-trust-m/optiga-trust-m-1/optiga/comms/ifx_i2c/ifx_i2c_physical_layer.c **** *
  31://MAC/Home/Downloads/getstarted-optiga-trust-m/optiga-trust-m-1/optiga/comms/ifx_i2c/ifx_i2c_physical_layer.c **** * \brief   This file implements the APIs for physical layer of the Infineon I2C Protocol Stack libr
  32://MAC/Home/Downloads/getstarted-optiga-trust-m/optiga-trust-m-1/optiga/comms/ifx_i2c/ifx_i2c_physical_layer.c **** *
  33://MAC/Home/Downloads/getstarted-optiga-trust-m/optiga-trust-m-1/optiga/comms/ifx_i2c/ifx_i2c_physical_layer.c **** * \ingroup  grIFXI2C
  34://MAC/Home/Downloads/getstarted-optiga-trust-m/optiga-trust-m-1/optiga/comms/ifx_i2c/ifx_i2c_physical_layer.c **** *
  35://MAC/Home/Downloads/getstarted-optiga-trust-m/optiga-trust-m-1/optiga/comms/ifx_i2c/ifx_i2c_physical_layer.c **** * @{
  36://MAC/Home/Downloads/getstarted-optiga-trust-m/optiga-trust-m-1/optiga/comms/ifx_i2c/ifx_i2c_physical_layer.c **** */
  37://MAC/Home/Downloads/getstarted-optiga-trust-m/optiga-trust-m-1/optiga/comms/ifx_i2c/ifx_i2c_physical_layer.c **** 
  38://MAC/Home/Downloads/getstarted-optiga-trust-m/optiga-trust-m-1/optiga/comms/ifx_i2c/ifx_i2c_physical_layer.c **** #include "optiga/ifx_i2c/ifx_i2c_physical_layer.h"
  39://MAC/Home/Downloads/getstarted-optiga-trust-m/optiga-trust-m-1/optiga/comms/ifx_i2c/ifx_i2c_physical_layer.c **** #include "optiga/pal/pal_os_event.h"
  40://MAC/Home/Downloads/getstarted-optiga-trust-m/optiga-trust-m-1/optiga/comms/ifx_i2c/ifx_i2c_physical_layer.c **** 
  41://MAC/Home/Downloads/getstarted-optiga-trust-m/optiga-trust-m-1/optiga/comms/ifx_i2c/ifx_i2c_physical_layer.c **** /// @cond hidden
  42://MAC/Home/Downloads/getstarted-optiga-trust-m/optiga-trust-m-1/optiga/comms/ifx_i2c/ifx_i2c_physical_layer.c **** 
  43://MAC/Home/Downloads/getstarted-optiga-trust-m/optiga-trust-m-1/optiga/comms/ifx_i2c/ifx_i2c_physical_layer.c **** // Physical Layer Register addresses
  44://MAC/Home/Downloads/getstarted-optiga-trust-m/optiga-trust-m-1/optiga/comms/ifx_i2c/ifx_i2c_physical_layer.c **** #define PL_REG_DATA                     (0x80)
  45://MAC/Home/Downloads/getstarted-optiga-trust-m/optiga-trust-m-1/optiga/comms/ifx_i2c/ifx_i2c_physical_layer.c **** #define PL_REG_DATA_REG_LEN             (0x81)
  46://MAC/Home/Downloads/getstarted-optiga-trust-m/optiga-trust-m-1/optiga/comms/ifx_i2c/ifx_i2c_physical_layer.c **** #define PL_REG_I2C_STATE                (0x82)
  47://MAC/Home/Downloads/getstarted-optiga-trust-m/optiga-trust-m-1/optiga/comms/ifx_i2c/ifx_i2c_physical_layer.c **** #define PL_REG_BASE_ADDR                (0x83)
  48://MAC/Home/Downloads/getstarted-optiga-trust-m/optiga-trust-m-1/optiga/comms/ifx_i2c/ifx_i2c_physical_layer.c **** #define PL_REG_MAX_SCL_FREQU            (0x84)
  49://MAC/Home/Downloads/getstarted-optiga-trust-m/optiga-trust-m-1/optiga/comms/ifx_i2c/ifx_i2c_physical_layer.c **** #define PL_REG_SOFT_RESET               (0x88)
  50://MAC/Home/Downloads/getstarted-optiga-trust-m/optiga-trust-m-1/optiga/comms/ifx_i2c/ifx_i2c_physical_layer.c **** #define PL_REG_I2C_MODE                 (0x89)
  51://MAC/Home/Downloads/getstarted-optiga-trust-m/optiga-trust-m-1/optiga/comms/ifx_i2c/ifx_i2c_physical_layer.c **** 
  52://MAC/Home/Downloads/getstarted-optiga-trust-m/optiga-trust-m-1/optiga/comms/ifx_i2c/ifx_i2c_physical_layer.c **** // Physical Layer Register lengths
  53://MAC/Home/Downloads/getstarted-optiga-trust-m/optiga-trust-m-1/optiga/comms/ifx_i2c/ifx_i2c_physical_layer.c **** #define PL_REG_LEN_I2C_STATE            (4U)
  54://MAC/Home/Downloads/getstarted-optiga-trust-m/optiga-trust-m-1/optiga/comms/ifx_i2c/ifx_i2c_physical_layer.c **** #define PL_REG_LEN_MAX_SCL_FREQU        (4U)
  55://MAC/Home/Downloads/getstarted-optiga-trust-m/optiga-trust-m-1/optiga/comms/ifx_i2c/ifx_i2c_physical_layer.c **** #define PL_REG_LEN_I2C_MODE             (2U)
  56://MAC/Home/Downloads/getstarted-optiga-trust-m/optiga-trust-m-1/optiga/comms/ifx_i2c/ifx_i2c_physical_layer.c **** #define PL_REG_LEN_DATA_REG_LEN         (2U)
  57://MAC/Home/Downloads/getstarted-optiga-trust-m/optiga-trust-m-1/optiga/comms/ifx_i2c/ifx_i2c_physical_layer.c **** #define PL_REG_LEN_SOFT_RESET           (2U)
  58://MAC/Home/Downloads/getstarted-optiga-trust-m/optiga-trust-m-1/optiga/comms/ifx_i2c/ifx_i2c_physical_layer.c **** #define PL_REG_LEN_BASE_ADDR            (2U)
  59://MAC/Home/Downloads/getstarted-optiga-trust-m/optiga-trust-m-1/optiga/comms/ifx_i2c/ifx_i2c_physical_layer.c **** 
  60://MAC/Home/Downloads/getstarted-optiga-trust-m/optiga-trust-m-1/optiga/comms/ifx_i2c/ifx_i2c_physical_layer.c **** // Physical Layer State Register masks
  61://MAC/Home/Downloads/getstarted-optiga-trust-m/optiga-trust-m-1/optiga/comms/ifx_i2c/ifx_i2c_physical_layer.c **** #define PL_REG_I2C_STATE_RESPONSE_READY (0x40)
  62://MAC/Home/Downloads/getstarted-optiga-trust-m/optiga-trust-m-1/optiga/comms/ifx_i2c/ifx_i2c_physical_layer.c **** #define PL_REG_I2C_STATE_SOFT_RESET     (0x08)
  63://MAC/Home/Downloads/getstarted-optiga-trust-m/optiga-trust-m-1/optiga/comms/ifx_i2c/ifx_i2c_physical_layer.c **** 
  64://MAC/Home/Downloads/getstarted-optiga-trust-m/optiga-trust-m-1/optiga/comms/ifx_i2c/ifx_i2c_physical_layer.c **** // Physical Layer low level interface constants
  65://MAC/Home/Downloads/getstarted-optiga-trust-m/optiga-trust-m-1/optiga/comms/ifx_i2c/ifx_i2c_physical_layer.c **** #define PL_ACTION_READ_REGISTER         (0x01)
  66://MAC/Home/Downloads/getstarted-optiga-trust-m/optiga-trust-m-1/optiga/comms/ifx_i2c/ifx_i2c_physical_layer.c **** #define PL_ACTION_WRITE_REGISTER        (0x02)
  67://MAC/Home/Downloads/getstarted-optiga-trust-m/optiga-trust-m-1/optiga/comms/ifx_i2c/ifx_i2c_physical_layer.c **** #define PL_I2C_CMD_WRITE                (0x01)
  68://MAC/Home/Downloads/getstarted-optiga-trust-m/optiga-trust-m-1/optiga/comms/ifx_i2c/ifx_i2c_physical_layer.c **** #define PL_I2C_CMD_READ                 (0x02)
  69://MAC/Home/Downloads/getstarted-optiga-trust-m/optiga-trust-m-1/optiga/comms/ifx_i2c/ifx_i2c_physical_layer.c **** 
  70://MAC/Home/Downloads/getstarted-optiga-trust-m/optiga-trust-m-1/optiga/comms/ifx_i2c/ifx_i2c_physical_layer.c **** // Physical Layer high level interface constants
  71://MAC/Home/Downloads/getstarted-optiga-trust-m/optiga-trust-m-1/optiga/comms/ifx_i2c/ifx_i2c_physical_layer.c **** #define PL_ACTION_WRITE_FRAME           (0x01)
  72://MAC/Home/Downloads/getstarted-optiga-trust-m/optiga-trust-m-1/optiga/comms/ifx_i2c/ifx_i2c_physical_layer.c **** #define PL_ACTION_READ_FRAME            (0x02)
  73://MAC/Home/Downloads/getstarted-optiga-trust-m/optiga-trust-m-1/optiga/comms/ifx_i2c/ifx_i2c_physical_layer.c **** #define PL_STATE_UNINIT                 (0x00)
  74://MAC/Home/Downloads/getstarted-optiga-trust-m/optiga-trust-m-1/optiga/comms/ifx_i2c/ifx_i2c_physical_layer.c **** #define PL_STATE_INIT                   (0x01)
  75://MAC/Home/Downloads/getstarted-optiga-trust-m/optiga-trust-m-1/optiga/comms/ifx_i2c/ifx_i2c_physical_layer.c **** #define PL_STATE_READY                  (0x02)
  76://MAC/Home/Downloads/getstarted-optiga-trust-m/optiga-trust-m-1/optiga/comms/ifx_i2c/ifx_i2c_physical_layer.c **** #define PL_STATE_DATA_AVAILABLE         (0x03)
  77://MAC/Home/Downloads/getstarted-optiga-trust-m/optiga-trust-m-1/optiga/comms/ifx_i2c/ifx_i2c_physical_layer.c **** #define PL_STATE_RXTX                   (0x04)
  78://MAC/Home/Downloads/getstarted-optiga-trust-m/optiga-trust-m-1/optiga/comms/ifx_i2c/ifx_i2c_physical_layer.c **** #define PL_STATE_SOFT_RESET             (0x05)
  79://MAC/Home/Downloads/getstarted-optiga-trust-m/optiga-trust-m-1/optiga/comms/ifx_i2c/ifx_i2c_physical_layer.c **** 
  80://MAC/Home/Downloads/getstarted-optiga-trust-m/optiga-trust-m-1/optiga/comms/ifx_i2c/ifx_i2c_physical_layer.c **** //Physical Layer negotiation constants
  81://MAC/Home/Downloads/getstarted-optiga-trust-m/optiga-trust-m-1/optiga/comms/ifx_i2c/ifx_i2c_physical_layer.c **** #define PL_INIT_SET_DATA_REG_LEN        (0x11)
  82://MAC/Home/Downloads/getstarted-optiga-trust-m/optiga-trust-m-1/optiga/comms/ifx_i2c/ifx_i2c_physical_layer.c **** #define PL_INIT_GET_DATA_REG_LEN        (0x22)
  83://MAC/Home/Downloads/getstarted-optiga-trust-m/optiga-trust-m-1/optiga/comms/ifx_i2c/ifx_i2c_physical_layer.c **** #define PL_INIT_GET_FREQ_REG            (0x33)
  84://MAC/Home/Downloads/getstarted-optiga-trust-m/optiga-trust-m-1/optiga/comms/ifx_i2c/ifx_i2c_physical_layer.c **** #define PL_INIT_SET_FREQ_REG            (0x44)
  85://MAC/Home/Downloads/getstarted-optiga-trust-m/optiga-trust-m-1/optiga/comms/ifx_i2c/ifx_i2c_physical_layer.c **** #define PL_INIT_READ_FREQ               (0x55)
  86://MAC/Home/Downloads/getstarted-optiga-trust-m/optiga-trust-m-1/optiga/comms/ifx_i2c/ifx_i2c_physical_layer.c **** #define PL_INIT_VERIFY_FREQ             (0x66)
  87://MAC/Home/Downloads/getstarted-optiga-trust-m/optiga-trust-m-1/optiga/comms/ifx_i2c/ifx_i2c_physical_layer.c **** #define PL_INIT_AGREE_FREQ              (0x77)
  88://MAC/Home/Downloads/getstarted-optiga-trust-m/optiga-trust-m-1/optiga/comms/ifx_i2c/ifx_i2c_physical_layer.c **** #define PL_INIT_VERIFY_DATA_REG         (0x88)
  89://MAC/Home/Downloads/getstarted-optiga-trust-m/optiga-trust-m-1/optiga/comms/ifx_i2c/ifx_i2c_physical_layer.c **** #define PL_INIT_GET_STATUS_REG          (0x99)
  90://MAC/Home/Downloads/getstarted-optiga-trust-m/optiga-trust-m-1/optiga/comms/ifx_i2c/ifx_i2c_physical_layer.c **** #define PL_INIT_DONE                    (0xAA)
  91://MAC/Home/Downloads/getstarted-optiga-trust-m/optiga-trust-m-1/optiga/comms/ifx_i2c/ifx_i2c_physical_layer.c **** #define PL_INIT_SET_FREQ_DEFAULT        (0xBB)
  92://MAC/Home/Downloads/getstarted-optiga-trust-m/optiga-trust-m-1/optiga/comms/ifx_i2c/ifx_i2c_physical_layer.c **** 
  93://MAC/Home/Downloads/getstarted-optiga-trust-m/optiga-trust-m-1/optiga/comms/ifx_i2c/ifx_i2c_physical_layer.c **** //Physical layer soft reset states
  94://MAC/Home/Downloads/getstarted-optiga-trust-m/optiga-trust-m-1/optiga/comms/ifx_i2c/ifx_i2c_physical_layer.c **** #define PL_RESET_INIT                   (0xA1)
  95://MAC/Home/Downloads/getstarted-optiga-trust-m/optiga-trust-m-1/optiga/comms/ifx_i2c/ifx_i2c_physical_layer.c **** #define PL_RESET_WRITE                  (0xA2)
  96://MAC/Home/Downloads/getstarted-optiga-trust-m/optiga-trust-m-1/optiga/comms/ifx_i2c/ifx_i2c_physical_layer.c **** #define PL_RESET_STARTUP                (0xA3)
  97://MAC/Home/Downloads/getstarted-optiga-trust-m/optiga-trust-m-1/optiga/comms/ifx_i2c/ifx_i2c_physical_layer.c **** 
  98://MAC/Home/Downloads/getstarted-optiga-trust-m/optiga-trust-m-1/optiga/comms/ifx_i2c/ifx_i2c_physical_layer.c **** #define PL_REG_I2C_MODE_PERSISTANT      (0x80)
  99://MAC/Home/Downloads/getstarted-optiga-trust-m/optiga-trust-m-1/optiga/comms/ifx_i2c/ifx_i2c_physical_layer.c **** #define PL_REG_I2C_MODE_SM_FM           (0x03)
 100://MAC/Home/Downloads/getstarted-optiga-trust-m/optiga-trust-m-1/optiga/comms/ifx_i2c/ifx_i2c_physical_layer.c **** #define PL_REG_I2C_MODE_FM_PLUS         (0x04)
 101://MAC/Home/Downloads/getstarted-optiga-trust-m/optiga-trust-m-1/optiga/comms/ifx_i2c/ifx_i2c_physical_layer.c **** #define PL_SM_FM_MAX_FREQUENCY          (0x190)
 102://MAC/Home/Downloads/getstarted-optiga-trust-m/optiga-trust-m-1/optiga/comms/ifx_i2c/ifx_i2c_physical_layer.c **** #define PL_DEFAULT_FREQUENCY            (0x64)
 103://MAC/Home/Downloads/getstarted-optiga-trust-m/optiga-trust-m-1/optiga/comms/ifx_i2c/ifx_i2c_physical_layer.c **** #define PL_REG_BASE_ADDR_PERSISTANT     (0x80)
 104://MAC/Home/Downloads/getstarted-optiga-trust-m/optiga-trust-m-1/optiga/comms/ifx_i2c/ifx_i2c_physical_layer.c **** #define PL_REG_BASE_ADDR_VOLATILE       (0x00)
 105://MAC/Home/Downloads/getstarted-optiga-trust-m/optiga-trust-m-1/optiga/comms/ifx_i2c/ifx_i2c_physical_layer.c **** 
 106://MAC/Home/Downloads/getstarted-optiga-trust-m/optiga-trust-m-1/optiga/comms/ifx_i2c/ifx_i2c_physical_layer.c **** // Physical Layer Base Address Register mask
 107://MAC/Home/Downloads/getstarted-optiga-trust-m/optiga-trust-m-1/optiga/comms/ifx_i2c/ifx_i2c_physical_layer.c **** #define PL_REG_I2C_BASE_ADDRESS_MASK    (0x7F)
 108://MAC/Home/Downloads/getstarted-optiga-trust-m/optiga-trust-m-1/optiga/comms/ifx_i2c/ifx_i2c_physical_layer.c **** 
 109://MAC/Home/Downloads/getstarted-optiga-trust-m/optiga-trust-m-1/optiga/comms/ifx_i2c/ifx_i2c_physical_layer.c **** // Setup debug log statements
 110://MAC/Home/Downloads/getstarted-optiga-trust-m/optiga-trust-m-1/optiga/comms/ifx_i2c/ifx_i2c_physical_layer.c **** #if IFX_I2C_LOG_PL == 1
 111://MAC/Home/Downloads/getstarted-optiga-trust-m/optiga-trust-m-1/optiga/comms/ifx_i2c/ifx_i2c_physical_layer.c **** #define LOG_PL IFX_I2C_LOG
 112://MAC/Home/Downloads/getstarted-optiga-trust-m/optiga-trust-m-1/optiga/comms/ifx_i2c/ifx_i2c_physical_layer.c **** #else
 113://MAC/Home/Downloads/getstarted-optiga-trust-m/optiga-trust-m-1/optiga/comms/ifx_i2c/ifx_i2c_physical_layer.c **** #define LOG_PL(...) //printf(__VA_ARGS__)
 114://MAC/Home/Downloads/getstarted-optiga-trust-m/optiga-trust-m-1/optiga/comms/ifx_i2c/ifx_i2c_physical_layer.c **** #endif
 115://MAC/Home/Downloads/getstarted-optiga-trust-m/optiga-trust-m-1/optiga/comms/ifx_i2c/ifx_i2c_physical_layer.c **** 
 116://MAC/Home/Downloads/getstarted-optiga-trust-m/optiga-trust-m-1/optiga/comms/ifx_i2c/ifx_i2c_physical_layer.c **** _STATIC_H optiga_lib_status_t g_pal_event_status;
 117://MAC/Home/Downloads/getstarted-optiga-trust-m/optiga-trust-m-1/optiga/comms/ifx_i2c/ifx_i2c_physical_layer.c **** 
 118://MAC/Home/Downloads/getstarted-optiga-trust-m/optiga-trust-m-1/optiga/comms/ifx_i2c/ifx_i2c_physical_layer.c **** 
 119://MAC/Home/Downloads/getstarted-optiga-trust-m/optiga-trust-m-1/optiga/comms/ifx_i2c/ifx_i2c_physical_layer.c **** /// Physical Layer low level interface function
 120://MAC/Home/Downloads/getstarted-optiga-trust-m/optiga-trust-m-1/optiga/comms/ifx_i2c/ifx_i2c_physical_layer.c **** _STATIC_H void ifx_i2c_pl_read_register(ifx_i2c_context_t * p_ctx, uint8_t reg_addr, uint16_t reg_l
 121://MAC/Home/Downloads/getstarted-optiga-trust-m/optiga-trust-m-1/optiga/comms/ifx_i2c/ifx_i2c_physical_layer.c **** /// Physical Layer low level interface function
 122://MAC/Home/Downloads/getstarted-optiga-trust-m/optiga-trust-m-1/optiga/comms/ifx_i2c/ifx_i2c_physical_layer.c **** _STATIC_H void ifx_i2c_pl_write_register(ifx_i2c_context_t * p_ctx,
 123://MAC/Home/Downloads/getstarted-optiga-trust-m/optiga-trust-m-1/optiga/comms/ifx_i2c/ifx_i2c_physical_layer.c ****                                          uint8_t reg_addr,
 124://MAC/Home/Downloads/getstarted-optiga-trust-m/optiga-trust-m-1/optiga/comms/ifx_i2c/ifx_i2c_physical_layer.c ****                                          uint16_t reg_len,
 125://MAC/Home/Downloads/getstarted-optiga-trust-m/optiga-trust-m-1/optiga/comms/ifx_i2c/ifx_i2c_physical_layer.c ****                                          const uint8_t * p_content);
 126://MAC/Home/Downloads/getstarted-optiga-trust-m/optiga-trust-m-1/optiga/comms/ifx_i2c/ifx_i2c_physical_layer.c **** /// Physical Layer high level interface timer callback (Status register polling)
 127://MAC/Home/Downloads/getstarted-optiga-trust-m/optiga-trust-m-1/optiga/comms/ifx_i2c/ifx_i2c_physical_layer.c **** _STATIC_H void ifx_i2c_pl_status_poll_callback(void * p_ctx);
 128://MAC/Home/Downloads/getstarted-optiga-trust-m/optiga-trust-m-1/optiga/comms/ifx_i2c/ifx_i2c_physical_layer.c **** /// Physical Layer intermediate state machine (Negotiation with slave)
 129://MAC/Home/Downloads/getstarted-optiga-trust-m/optiga-trust-m-1/optiga/comms/ifx_i2c/ifx_i2c_physical_layer.c **** _STATIC_H void ifx_i2c_pl_negotiation_event_handler(void * p_input_ctx);
 130://MAC/Home/Downloads/getstarted-optiga-trust-m/optiga-trust-m-1/optiga/comms/ifx_i2c/ifx_i2c_physical_layer.c **** /// Physical Layer intermediate state machine(Set bit rate)
 131://MAC/Home/Downloads/getstarted-optiga-trust-m/optiga-trust-m-1/optiga/comms/ifx_i2c/ifx_i2c_physical_layer.c **** _STATIC_H optiga_lib_status_t ifx_i2c_pl_set_bit_rate(ifx_i2c_context_t * p_ctx, uint16_t bitrate);
 132://MAC/Home/Downloads/getstarted-optiga-trust-m/optiga-trust-m-1/optiga/comms/ifx_i2c/ifx_i2c_physical_layer.c **** /// Physical Layer intermediate state machine (soft reset)
 133://MAC/Home/Downloads/getstarted-optiga-trust-m/optiga-trust-m-1/optiga/comms/ifx_i2c/ifx_i2c_physical_layer.c **** _STATIC_H void ifx_i2c_pl_soft_reset(ifx_i2c_context_t * p_ctx);
 134://MAC/Home/Downloads/getstarted-optiga-trust-m/optiga-trust-m-1/optiga/comms/ifx_i2c/ifx_i2c_physical_layer.c **** /// Physical Layer high level interface state machine (read/write frames)
 135://MAC/Home/Downloads/getstarted-optiga-trust-m/optiga-trust-m-1/optiga/comms/ifx_i2c/ifx_i2c_physical_layer.c **** _STATIC_H void ifx_i2c_pl_frame_event_handler(ifx_i2c_context_t * p_ctx, optiga_lib_status_t event)
 136://MAC/Home/Downloads/getstarted-optiga-trust-m/optiga-trust-m-1/optiga/comms/ifx_i2c/ifx_i2c_physical_layer.c **** /// Physical Layer low level interface timer callback (I2C Nack/Busy polling)
 137://MAC/Home/Downloads/getstarted-optiga-trust-m/optiga-trust-m-1/optiga/comms/ifx_i2c/ifx_i2c_physical_layer.c **** _STATIC_H void ifx_i2c_pal_poll_callback(void * p_ctx);
 138://MAC/Home/Downloads/getstarted-optiga-trust-m/optiga-trust-m-1/optiga/comms/ifx_i2c/ifx_i2c_physical_layer.c **** /// Physical Layer low level guard time callback
 139://MAC/Home/Downloads/getstarted-optiga-trust-m/optiga-trust-m-1/optiga/comms/ifx_i2c/ifx_i2c_physical_layer.c **** _STATIC_H void ifx_i2c_pl_guard_time_callback(void * p_ctx);
 140://MAC/Home/Downloads/getstarted-optiga-trust-m/optiga-trust-m-1/optiga/comms/ifx_i2c/ifx_i2c_physical_layer.c **** /// Physical Layer low level interface state machine (read/write registers)
 141://MAC/Home/Downloads/getstarted-optiga-trust-m/optiga-trust-m-1/optiga/comms/ifx_i2c/ifx_i2c_physical_layer.c **** _STATIC_H void ifx_i2c_pl_pal_event_handler(void * p_ctx, optiga_lib_status_t event);
 142://MAC/Home/Downloads/getstarted-optiga-trust-m/optiga-trust-m-1/optiga/comms/ifx_i2c/ifx_i2c_physical_layer.c **** /// Physical layer low level event handler for set slave address
 143://MAC/Home/Downloads/getstarted-optiga-trust-m/optiga-trust-m-1/optiga/comms/ifx_i2c/ifx_i2c_physical_layer.c **** _STATIC_H void ifx_i2c_pl_pal_slave_addr_event_handler(void * p_input_ctx, optiga_lib_status_t even
 144://MAC/Home/Downloads/getstarted-optiga-trust-m/optiga-trust-m-1/optiga/comms/ifx_i2c/ifx_i2c_physical_layer.c **** 
 145://MAC/Home/Downloads/getstarted-optiga-trust-m/optiga-trust-m-1/optiga/comms/ifx_i2c/ifx_i2c_physical_layer.c **** /// @endcond
 146://MAC/Home/Downloads/getstarted-optiga-trust-m/optiga-trust-m-1/optiga/comms/ifx_i2c/ifx_i2c_physical_layer.c **** 
 147://MAC/Home/Downloads/getstarted-optiga-trust-m/optiga-trust-m-1/optiga/comms/ifx_i2c/ifx_i2c_physical_layer.c **** optiga_lib_status_t ifx_i2c_pl_init(ifx_i2c_context_t * p_ctx, ifx_i2c_event_handler_t handler)
 148://MAC/Home/Downloads/getstarted-optiga-trust-m/optiga-trust-m-1/optiga/comms/ifx_i2c/ifx_i2c_physical_layer.c **** {
 149://MAC/Home/Downloads/getstarted-optiga-trust-m/optiga-trust-m-1/optiga/comms/ifx_i2c/ifx_i2c_physical_layer.c ****     LOG_PL("[IFX-PL]: Init\n");
 150://MAC/Home/Downloads/getstarted-optiga-trust-m/optiga-trust-m-1/optiga/comms/ifx_i2c/ifx_i2c_physical_layer.c **** 
 151://MAC/Home/Downloads/getstarted-optiga-trust-m/optiga-trust-m-1/optiga/comms/ifx_i2c/ifx_i2c_physical_layer.c ****     p_ctx->pl.upper_layer_event_handler = handler;
 152://MAC/Home/Downloads/getstarted-optiga-trust-m/optiga-trust-m-1/optiga/comms/ifx_i2c/ifx_i2c_physical_layer.c ****     p_ctx->pl.frame_state = PL_STATE_UNINIT;
 153://MAC/Home/Downloads/getstarted-optiga-trust-m/optiga-trust-m-1/optiga/comms/ifx_i2c/ifx_i2c_physical_layer.c ****     p_ctx->pl.negotiate_state = PL_INIT_SET_FREQ_DEFAULT;
 154://MAC/Home/Downloads/getstarted-optiga-trust-m/optiga-trust-m-1/optiga/comms/ifx_i2c/ifx_i2c_physical_layer.c ****     p_ctx->p_pal_i2c_ctx->slave_address = p_ctx->slave_address;
 155://MAC/Home/Downloads/getstarted-optiga-trust-m/optiga-trust-m-1/optiga/comms/ifx_i2c/ifx_i2c_physical_layer.c ****     p_ctx->p_pal_i2c_ctx->upper_layer_event_handler = ifx_i2c_pl_pal_event_handler;
 156://MAC/Home/Downloads/getstarted-optiga-trust-m/optiga-trust-m-1/optiga/comms/ifx_i2c/ifx_i2c_physical_layer.c ****     p_ctx->pl.retry_counter = PL_POLLING_MAX_CNT;
 157://MAC/Home/Downloads/getstarted-optiga-trust-m/optiga-trust-m-1/optiga/comms/ifx_i2c/ifx_i2c_physical_layer.c ****     if (TRUE == p_ctx->do_pal_init)
 158://MAC/Home/Downloads/getstarted-optiga-trust-m/optiga-trust-m-1/optiga/comms/ifx_i2c/ifx_i2c_physical_layer.c ****     {
 159://MAC/Home/Downloads/getstarted-optiga-trust-m/optiga-trust-m-1/optiga/comms/ifx_i2c/ifx_i2c_physical_layer.c ****         // Initialize I2C driver
 160://MAC/Home/Downloads/getstarted-optiga-trust-m/optiga-trust-m-1/optiga/comms/ifx_i2c/ifx_i2c_physical_layer.c ****         if (PAL_STATUS_SUCCESS != pal_i2c_init(p_ctx->p_pal_i2c_ctx))
 161://MAC/Home/Downloads/getstarted-optiga-trust-m/optiga-trust-m-1/optiga/comms/ifx_i2c/ifx_i2c_physical_layer.c ****         {
 162://MAC/Home/Downloads/getstarted-optiga-trust-m/optiga-trust-m-1/optiga/comms/ifx_i2c/ifx_i2c_physical_layer.c ****             return (IFX_I2C_STACK_ERROR);
 163://MAC/Home/Downloads/getstarted-optiga-trust-m/optiga-trust-m-1/optiga/comms/ifx_i2c/ifx_i2c_physical_layer.c ****         }
 164://MAC/Home/Downloads/getstarted-optiga-trust-m/optiga-trust-m-1/optiga/comms/ifx_i2c/ifx_i2c_physical_layer.c ****     }
 165://MAC/Home/Downloads/getstarted-optiga-trust-m/optiga-trust-m-1/optiga/comms/ifx_i2c/ifx_i2c_physical_layer.c ****     // Set Physical Layer internal state
 166://MAC/Home/Downloads/getstarted-optiga-trust-m/optiga-trust-m-1/optiga/comms/ifx_i2c/ifx_i2c_physical_layer.c ****     if ((uint8_t)TRUE == p_ctx->pl.request_soft_reset)
 167://MAC/Home/Downloads/getstarted-optiga-trust-m/optiga-trust-m-1/optiga/comms/ifx_i2c/ifx_i2c_physical_layer.c ****     {
 168://MAC/Home/Downloads/getstarted-optiga-trust-m/optiga-trust-m-1/optiga/comms/ifx_i2c/ifx_i2c_physical_layer.c ****         //Set the soft reset request to initial state to read register
 169://MAC/Home/Downloads/getstarted-optiga-trust-m/optiga-trust-m-1/optiga/comms/ifx_i2c/ifx_i2c_physical_layer.c ****         p_ctx->pl.request_soft_reset = PL_INIT_GET_STATUS_REG;
 170://MAC/Home/Downloads/getstarted-optiga-trust-m/optiga-trust-m-1/optiga/comms/ifx_i2c/ifx_i2c_physical_layer.c ****         p_ctx->pl.frame_state = PL_STATE_SOFT_RESET;
 171://MAC/Home/Downloads/getstarted-optiga-trust-m/optiga-trust-m-1/optiga/comms/ifx_i2c/ifx_i2c_physical_layer.c ****     }
 172://MAC/Home/Downloads/getstarted-optiga-trust-m/optiga-trust-m-1/optiga/comms/ifx_i2c/ifx_i2c_physical_layer.c ****     else
 173://MAC/Home/Downloads/getstarted-optiga-trust-m/optiga-trust-m-1/optiga/comms/ifx_i2c/ifx_i2c_physical_layer.c ****     {
 174://MAC/Home/Downloads/getstarted-optiga-trust-m/optiga-trust-m-1/optiga/comms/ifx_i2c/ifx_i2c_physical_layer.c ****         p_ctx->pl.frame_state = PL_STATE_INIT;
 175://MAC/Home/Downloads/getstarted-optiga-trust-m/optiga-trust-m-1/optiga/comms/ifx_i2c/ifx_i2c_physical_layer.c ****     }
 176://MAC/Home/Downloads/getstarted-optiga-trust-m/optiga-trust-m-1/optiga/comms/ifx_i2c/ifx_i2c_physical_layer.c **** 
 177://MAC/Home/Downloads/getstarted-optiga-trust-m/optiga-trust-m-1/optiga/comms/ifx_i2c/ifx_i2c_physical_layer.c ****     ifx_i2c_pl_frame_event_handler(p_ctx, IFX_I2C_STACK_SUCCESS);
 178://MAC/Home/Downloads/getstarted-optiga-trust-m/optiga-trust-m-1/optiga/comms/ifx_i2c/ifx_i2c_physical_layer.c **** 
 179://MAC/Home/Downloads/getstarted-optiga-trust-m/optiga-trust-m-1/optiga/comms/ifx_i2c/ifx_i2c_physical_layer.c ****     return (IFX_I2C_STACK_SUCCESS);
 180://MAC/Home/Downloads/getstarted-optiga-trust-m/optiga-trust-m-1/optiga/comms/ifx_i2c/ifx_i2c_physical_layer.c **** }
 181://MAC/Home/Downloads/getstarted-optiga-trust-m/optiga-trust-m-1/optiga/comms/ifx_i2c/ifx_i2c_physical_layer.c **** 
 182://MAC/Home/Downloads/getstarted-optiga-trust-m/optiga-trust-m-1/optiga/comms/ifx_i2c/ifx_i2c_physical_layer.c **** optiga_lib_status_t ifx_i2c_pl_send_frame(ifx_i2c_context_t * p_ctx, uint8_t * p_frame, uint16_t fr
 183://MAC/Home/Downloads/getstarted-optiga-trust-m/optiga-trust-m-1/optiga/comms/ifx_i2c/ifx_i2c_physical_layer.c **** {
 184://MAC/Home/Downloads/getstarted-optiga-trust-m/optiga-trust-m-1/optiga/comms/ifx_i2c/ifx_i2c_physical_layer.c ****     // Physical Layer must be idle, set requested action
 185://MAC/Home/Downloads/getstarted-optiga-trust-m/optiga-trust-m-1/optiga/comms/ifx_i2c/ifx_i2c_physical_layer.c ****     if ((PL_STATE_INIT != p_ctx->pl.frame_state) && (PL_STATE_READY != p_ctx->pl.frame_state))
 186://MAC/Home/Downloads/getstarted-optiga-trust-m/optiga-trust-m-1/optiga/comms/ifx_i2c/ifx_i2c_physical_layer.c ****     {
 187://MAC/Home/Downloads/getstarted-optiga-trust-m/optiga-trust-m-1/optiga/comms/ifx_i2c/ifx_i2c_physical_layer.c ****         return (IFX_I2C_STACK_ERROR);
 188://MAC/Home/Downloads/getstarted-optiga-trust-m/optiga-trust-m-1/optiga/comms/ifx_i2c/ifx_i2c_physical_layer.c ****     }
 189://MAC/Home/Downloads/getstarted-optiga-trust-m/optiga-trust-m-1/optiga/comms/ifx_i2c/ifx_i2c_physical_layer.c ****     p_ctx->pl.frame_action = PL_ACTION_WRITE_FRAME;
 190://MAC/Home/Downloads/getstarted-optiga-trust-m/optiga-trust-m-1/optiga/comms/ifx_i2c/ifx_i2c_physical_layer.c **** 
 191://MAC/Home/Downloads/getstarted-optiga-trust-m/optiga-trust-m-1/optiga/comms/ifx_i2c/ifx_i2c_physical_layer.c ****     // Store reference to frame for sending it later
 192://MAC/Home/Downloads/getstarted-optiga-trust-m/optiga-trust-m-1/optiga/comms/ifx_i2c/ifx_i2c_physical_layer.c ****     p_ctx->pl.p_tx_frame   = p_frame;
 193://MAC/Home/Downloads/getstarted-optiga-trust-m/optiga-trust-m-1/optiga/comms/ifx_i2c/ifx_i2c_physical_layer.c ****     p_ctx->pl.tx_frame_len = frame_len;
 194://MAC/Home/Downloads/getstarted-optiga-trust-m/optiga-trust-m-1/optiga/comms/ifx_i2c/ifx_i2c_physical_layer.c **** 
 195://MAC/Home/Downloads/getstarted-optiga-trust-m/optiga-trust-m-1/optiga/comms/ifx_i2c/ifx_i2c_physical_layer.c ****     ifx_i2c_pl_frame_event_handler(p_ctx, IFX_I2C_STACK_SUCCESS);
 196://MAC/Home/Downloads/getstarted-optiga-trust-m/optiga-trust-m-1/optiga/comms/ifx_i2c/ifx_i2c_physical_layer.c ****     return (IFX_I2C_STACK_SUCCESS);
 197://MAC/Home/Downloads/getstarted-optiga-trust-m/optiga-trust-m-1/optiga/comms/ifx_i2c/ifx_i2c_physical_layer.c **** }
 198://MAC/Home/Downloads/getstarted-optiga-trust-m/optiga-trust-m-1/optiga/comms/ifx_i2c/ifx_i2c_physical_layer.c **** 
 199://MAC/Home/Downloads/getstarted-optiga-trust-m/optiga-trust-m-1/optiga/comms/ifx_i2c/ifx_i2c_physical_layer.c **** optiga_lib_status_t ifx_i2c_pl_receive_frame(ifx_i2c_context_t * p_ctx)
 200://MAC/Home/Downloads/getstarted-optiga-trust-m/optiga-trust-m-1/optiga/comms/ifx_i2c/ifx_i2c_physical_layer.c **** {
 201://MAC/Home/Downloads/getstarted-optiga-trust-m/optiga-trust-m-1/optiga/comms/ifx_i2c/ifx_i2c_physical_layer.c ****     // Physical Layer must be idle, set requested action
 202://MAC/Home/Downloads/getstarted-optiga-trust-m/optiga-trust-m-1/optiga/comms/ifx_i2c/ifx_i2c_physical_layer.c ****     if ((PL_STATE_INIT != p_ctx->pl.frame_state) && (PL_STATE_READY != p_ctx->pl.frame_state))
 203://MAC/Home/Downloads/getstarted-optiga-trust-m/optiga-trust-m-1/optiga/comms/ifx_i2c/ifx_i2c_physical_layer.c ****     {
 204://MAC/Home/Downloads/getstarted-optiga-trust-m/optiga-trust-m-1/optiga/comms/ifx_i2c/ifx_i2c_physical_layer.c ****         return (IFX_I2C_STACK_ERROR);
 205://MAC/Home/Downloads/getstarted-optiga-trust-m/optiga-trust-m-1/optiga/comms/ifx_i2c/ifx_i2c_physical_layer.c ****     }
 206://MAC/Home/Downloads/getstarted-optiga-trust-m/optiga-trust-m-1/optiga/comms/ifx_i2c/ifx_i2c_physical_layer.c ****     p_ctx->pl.frame_action = PL_ACTION_READ_FRAME;
 207://MAC/Home/Downloads/getstarted-optiga-trust-m/optiga-trust-m-1/optiga/comms/ifx_i2c/ifx_i2c_physical_layer.c **** 
 208://MAC/Home/Downloads/getstarted-optiga-trust-m/optiga-trust-m-1/optiga/comms/ifx_i2c/ifx_i2c_physical_layer.c ****     ifx_i2c_pl_frame_event_handler(p_ctx, IFX_I2C_STACK_SUCCESS);
 209://MAC/Home/Downloads/getstarted-optiga-trust-m/optiga-trust-m-1/optiga/comms/ifx_i2c/ifx_i2c_physical_layer.c ****     return (IFX_I2C_STACK_SUCCESS);
 210://MAC/Home/Downloads/getstarted-optiga-trust-m/optiga-trust-m-1/optiga/comms/ifx_i2c/ifx_i2c_physical_layer.c **** }
 211://MAC/Home/Downloads/getstarted-optiga-trust-m/optiga-trust-m-1/optiga/comms/ifx_i2c/ifx_i2c_physical_layer.c **** 
 212://MAC/Home/Downloads/getstarted-optiga-trust-m/optiga-trust-m-1/optiga/comms/ifx_i2c/ifx_i2c_physical_layer.c **** optiga_lib_status_t ifx_i2c_pl_write_slave_address(ifx_i2c_context_t * p_ctx, uint8_t slave_address
 213://MAC/Home/Downloads/getstarted-optiga-trust-m/optiga-trust-m-1/optiga/comms/ifx_i2c/ifx_i2c_physical_layer.c **** {
 214://MAC/Home/Downloads/getstarted-optiga-trust-m/optiga-trust-m-1/optiga/comms/ifx_i2c/ifx_i2c_physical_layer.c ****     optiga_lib_status_t status = IFX_I2C_STACK_ERROR;
 215://MAC/Home/Downloads/getstarted-optiga-trust-m/optiga-trust-m-1/optiga/comms/ifx_i2c/ifx_i2c_physical_layer.c ****     upper_layer_callback_t * p_temp_upper_layer_event_handler;
 216://MAC/Home/Downloads/getstarted-optiga-trust-m/optiga-trust-m-1/optiga/comms/ifx_i2c/ifx_i2c_physical_layer.c **** 
 217://MAC/Home/Downloads/getstarted-optiga-trust-m/optiga-trust-m-1/optiga/comms/ifx_i2c/ifx_i2c_physical_layer.c ****     /// @cond hidden
 218://MAC/Home/Downloads/getstarted-optiga-trust-m/optiga-trust-m-1/optiga/comms/ifx_i2c/ifx_i2c_physical_layer.c ****     #define PAL_WRITE_INIT_STATUS       (0x00FF)
 219://MAC/Home/Downloads/getstarted-optiga-trust-m/optiga-trust-m-1/optiga/comms/ifx_i2c/ifx_i2c_physical_layer.c ****     #define ADDRESS_OFFSET              (0x02)
 220://MAC/Home/Downloads/getstarted-optiga-trust-m/optiga-trust-m-1/optiga/comms/ifx_i2c/ifx_i2c_physical_layer.c ****     #define BASE_ADDRESS_REG_OFFSET     (0x00)
 221://MAC/Home/Downloads/getstarted-optiga-trust-m/optiga-trust-m-1/optiga/comms/ifx_i2c/ifx_i2c_physical_layer.c ****     #define MODE_OFFSET                 (0x01)
 222://MAC/Home/Downloads/getstarted-optiga-trust-m/optiga-trust-m-1/optiga/comms/ifx_i2c/ifx_i2c_physical_layer.c ****     #define POLLING_INTERVAL            (0x01)
 223://MAC/Home/Downloads/getstarted-optiga-trust-m/optiga-trust-m-1/optiga/comms/ifx_i2c/ifx_i2c_physical_layer.c ****     #define DELAY_FOR_COMPLETION        (0x0A)
 224://MAC/Home/Downloads/getstarted-optiga-trust-m/optiga-trust-m-1/optiga/comms/ifx_i2c/ifx_i2c_physical_layer.c ****     /// @endcond
 225://MAC/Home/Downloads/getstarted-optiga-trust-m/optiga-trust-m-1/optiga/comms/ifx_i2c/ifx_i2c_physical_layer.c **** 
 226://MAC/Home/Downloads/getstarted-optiga-trust-m/optiga-trust-m-1/optiga/comms/ifx_i2c/ifx_i2c_physical_layer.c ****     //lint --e{611} suppress "void* function pointer is type casted to upper_layer_callback_t type"
 227://MAC/Home/Downloads/getstarted-optiga-trust-m/optiga-trust-m-1/optiga/comms/ifx_i2c/ifx_i2c_physical_layer.c ****     //ifx i2c wrapper api for setting slave address in synchronous. hence the event handler is back
 228://MAC/Home/Downloads/getstarted-optiga-trust-m/optiga-trust-m-1/optiga/comms/ifx_i2c/ifx_i2c_physical_layer.c ****     p_temp_upper_layer_event_handler = (upper_layer_callback_t * )(p_ctx->p_pal_i2c_ctx->upper_laye
 229://MAC/Home/Downloads/getstarted-optiga-trust-m/optiga-trust-m-1/optiga/comms/ifx_i2c/ifx_i2c_physical_layer.c ****     //since the lower level APIs are asynchronous, a temporary event handler for set slave address 
 230://MAC/Home/Downloads/getstarted-optiga-trust-m/optiga-trust-m-1/optiga/comms/ifx_i2c/ifx_i2c_physical_layer.c ****     p_ctx->p_pal_i2c_ctx->upper_layer_event_handler = ifx_i2c_pl_pal_slave_addr_event_handler;
 231://MAC/Home/Downloads/getstarted-optiga-trust-m/optiga-trust-m-1/optiga/comms/ifx_i2c/ifx_i2c_physical_layer.c **** 
 232://MAC/Home/Downloads/getstarted-optiga-trust-m/optiga-trust-m-1/optiga/comms/ifx_i2c/ifx_i2c_physical_layer.c ****     p_ctx->pl.buffer[BASE_ADDRESS_REG_OFFSET] = PL_REG_BASE_ADDR;
 233://MAC/Home/Downloads/getstarted-optiga-trust-m/optiga-trust-m-1/optiga/comms/ifx_i2c/ifx_i2c_physical_layer.c ****     p_ctx->pl.buffer[MODE_OFFSET] = PL_REG_BASE_ADDR_VOLATILE;
 234://MAC/Home/Downloads/getstarted-optiga-trust-m/optiga-trust-m-1/optiga/comms/ifx_i2c/ifx_i2c_physical_layer.c ****     //supported base addresses are 0x00 - 0x7F. Hence 8th bit is ignored
 235://MAC/Home/Downloads/getstarted-optiga-trust-m/optiga-trust-m-1/optiga/comms/ifx_i2c/ifx_i2c_physical_layer.c ****     p_ctx->pl.buffer[ADDRESS_OFFSET] = slave_address & PL_REG_I2C_BASE_ADDRESS_MASK;
 236://MAC/Home/Downloads/getstarted-optiga-trust-m/optiga-trust-m-1/optiga/comms/ifx_i2c/ifx_i2c_physical_layer.c ****     p_ctx->pl.buffer_tx_len = 1 + PL_REG_LEN_BASE_ADDR;
 237://MAC/Home/Downloads/getstarted-optiga-trust-m/optiga-trust-m-1/optiga/comms/ifx_i2c/ifx_i2c_physical_layer.c **** 
 238://MAC/Home/Downloads/getstarted-optiga-trust-m/optiga-trust-m-1/optiga/comms/ifx_i2c/ifx_i2c_physical_layer.c ****     if (PL_REG_BASE_ADDR_VOLATILE != persistent)
 239://MAC/Home/Downloads/getstarted-optiga-trust-m/optiga-trust-m-1/optiga/comms/ifx_i2c/ifx_i2c_physical_layer.c ****     {
 240://MAC/Home/Downloads/getstarted-optiga-trust-m/optiga-trust-m-1/optiga/comms/ifx_i2c/ifx_i2c_physical_layer.c ****         p_ctx->pl.buffer[MODE_OFFSET] = PL_REG_BASE_ADDR_PERSISTANT;
 241://MAC/Home/Downloads/getstarted-optiga-trust-m/optiga-trust-m-1/optiga/comms/ifx_i2c/ifx_i2c_physical_layer.c ****     }
 242://MAC/Home/Downloads/getstarted-optiga-trust-m/optiga-trust-m-1/optiga/comms/ifx_i2c/ifx_i2c_physical_layer.c **** 
 243://MAC/Home/Downloads/getstarted-optiga-trust-m/optiga-trust-m-1/optiga/comms/ifx_i2c/ifx_i2c_physical_layer.c ****     p_ctx->pl.retry_counter   = PL_POLLING_MAX_CNT;
 244://MAC/Home/Downloads/getstarted-optiga-trust-m/optiga-trust-m-1/optiga/comms/ifx_i2c/ifx_i2c_physical_layer.c **** 
 245://MAC/Home/Downloads/getstarted-optiga-trust-m/optiga-trust-m-1/optiga/comms/ifx_i2c/ifx_i2c_physical_layer.c ****     while (0 != p_ctx->pl.retry_counter)
 246://MAC/Home/Downloads/getstarted-optiga-trust-m/optiga-trust-m-1/optiga/comms/ifx_i2c/ifx_i2c_physical_layer.c ****     {
 247://MAC/Home/Downloads/getstarted-optiga-trust-m/optiga-trust-m-1/optiga/comms/ifx_i2c/ifx_i2c_physical_layer.c ****         g_pal_event_status = PAL_WRITE_INIT_STATUS;
 248://MAC/Home/Downloads/getstarted-optiga-trust-m/optiga-trust-m-1/optiga/comms/ifx_i2c/ifx_i2c_physical_layer.c **** 
 249://MAC/Home/Downloads/getstarted-optiga-trust-m/optiga-trust-m-1/optiga/comms/ifx_i2c/ifx_i2c_physical_layer.c ****         //lint --e{534} suppress "Error handling is not required so return value is not checked"
 250://MAC/Home/Downloads/getstarted-optiga-trust-m/optiga-trust-m-1/optiga/comms/ifx_i2c/ifx_i2c_physical_layer.c ****         pal_i2c_write(p_ctx->p_pal_i2c_ctx, p_ctx->pl.buffer, p_ctx->pl.buffer_tx_len);
 251://MAC/Home/Downloads/getstarted-optiga-trust-m/optiga-trust-m-1/optiga/comms/ifx_i2c/ifx_i2c_physical_layer.c ****         while (PAL_WRITE_INIT_STATUS == g_pal_event_status){};
 252://MAC/Home/Downloads/getstarted-optiga-trust-m/optiga-trust-m-1/optiga/comms/ifx_i2c/ifx_i2c_physical_layer.c ****         if (PAL_I2C_EVENT_SUCCESS == g_pal_event_status)
 253://MAC/Home/Downloads/getstarted-optiga-trust-m/optiga-trust-m-1/optiga/comms/ifx_i2c/ifx_i2c_physical_layer.c ****         {
 254://MAC/Home/Downloads/getstarted-optiga-trust-m/optiga-trust-m-1/optiga/comms/ifx_i2c/ifx_i2c_physical_layer.c ****             break;
 255://MAC/Home/Downloads/getstarted-optiga-trust-m/optiga-trust-m-1/optiga/comms/ifx_i2c/ifx_i2c_physical_layer.c ****         }
 256://MAC/Home/Downloads/getstarted-optiga-trust-m/optiga-trust-m-1/optiga/comms/ifx_i2c/ifx_i2c_physical_layer.c ****         p_ctx->pl.retry_counter--;
 257://MAC/Home/Downloads/getstarted-optiga-trust-m/optiga-trust-m-1/optiga/comms/ifx_i2c/ifx_i2c_physical_layer.c ****         pal_os_timer_delay_in_milliseconds(POLLING_INTERVAL);
 258://MAC/Home/Downloads/getstarted-optiga-trust-m/optiga-trust-m-1/optiga/comms/ifx_i2c/ifx_i2c_physical_layer.c ****     }
 259://MAC/Home/Downloads/getstarted-optiga-trust-m/optiga-trust-m-1/optiga/comms/ifx_i2c/ifx_i2c_physical_layer.c **** 
 260://MAC/Home/Downloads/getstarted-optiga-trust-m/optiga-trust-m-1/optiga/comms/ifx_i2c/ifx_i2c_physical_layer.c ****     if (PAL_I2C_EVENT_SUCCESS == g_pal_event_status)
 261://MAC/Home/Downloads/getstarted-optiga-trust-m/optiga-trust-m-1/optiga/comms/ifx_i2c/ifx_i2c_physical_layer.c ****     {
 262://MAC/Home/Downloads/getstarted-optiga-trust-m/optiga-trust-m-1/optiga/comms/ifx_i2c/ifx_i2c_physical_layer.c ****         p_ctx->p_pal_i2c_ctx->slave_address = p_ctx->pl.buffer[ADDRESS_OFFSET];
 263://MAC/Home/Downloads/getstarted-optiga-trust-m/optiga-trust-m-1/optiga/comms/ifx_i2c/ifx_i2c_physical_layer.c ****         if (PL_REG_BASE_ADDR_VOLATILE != persistent)
 264://MAC/Home/Downloads/getstarted-optiga-trust-m/optiga-trust-m-1/optiga/comms/ifx_i2c/ifx_i2c_physical_layer.c ****         {
 265://MAC/Home/Downloads/getstarted-optiga-trust-m/optiga-trust-m-1/optiga/comms/ifx_i2c/ifx_i2c_physical_layer.c ****             p_ctx->slave_address = p_ctx->pl.buffer[ADDRESS_OFFSET];
 266://MAC/Home/Downloads/getstarted-optiga-trust-m/optiga-trust-m-1/optiga/comms/ifx_i2c/ifx_i2c_physical_layer.c ****         }
 267://MAC/Home/Downloads/getstarted-optiga-trust-m/optiga-trust-m-1/optiga/comms/ifx_i2c/ifx_i2c_physical_layer.c ****         pal_os_timer_delay_in_milliseconds(DELAY_FOR_COMPLETION);
 268://MAC/Home/Downloads/getstarted-optiga-trust-m/optiga-trust-m-1/optiga/comms/ifx_i2c/ifx_i2c_physical_layer.c ****         status = IFX_I2C_STACK_SUCCESS;
 269://MAC/Home/Downloads/getstarted-optiga-trust-m/optiga-trust-m-1/optiga/comms/ifx_i2c/ifx_i2c_physical_layer.c ****     }
 270://MAC/Home/Downloads/getstarted-optiga-trust-m/optiga-trust-m-1/optiga/comms/ifx_i2c/ifx_i2c_physical_layer.c ****     //restoring the backed up event handler
 271://MAC/Home/Downloads/getstarted-optiga-trust-m/optiga-trust-m-1/optiga/comms/ifx_i2c/ifx_i2c_physical_layer.c ****     p_ctx->p_pal_i2c_ctx->upper_layer_event_handler = p_temp_upper_layer_event_handler;
 272://MAC/Home/Downloads/getstarted-optiga-trust-m/optiga-trust-m-1/optiga/comms/ifx_i2c/ifx_i2c_physical_layer.c **** 
 273://MAC/Home/Downloads/getstarted-optiga-trust-m/optiga-trust-m-1/optiga/comms/ifx_i2c/ifx_i2c_physical_layer.c ****     /// @cond hidden
 274://MAC/Home/Downloads/getstarted-optiga-trust-m/optiga-trust-m-1/optiga/comms/ifx_i2c/ifx_i2c_physical_layer.c ****     #undef PAL_WRITE_INIT_STATUS
 275://MAC/Home/Downloads/getstarted-optiga-trust-m/optiga-trust-m-1/optiga/comms/ifx_i2c/ifx_i2c_physical_layer.c ****     #undef ADDRESS_OFFSET
 276://MAC/Home/Downloads/getstarted-optiga-trust-m/optiga-trust-m-1/optiga/comms/ifx_i2c/ifx_i2c_physical_layer.c ****     #undef BASE_ADDRESS_REG_OFFSET
 277://MAC/Home/Downloads/getstarted-optiga-trust-m/optiga-trust-m-1/optiga/comms/ifx_i2c/ifx_i2c_physical_layer.c ****     #undef MODE_OFFSET
 278://MAC/Home/Downloads/getstarted-optiga-trust-m/optiga-trust-m-1/optiga/comms/ifx_i2c/ifx_i2c_physical_layer.c ****     #undef POLLING_INTERVAL
 279://MAC/Home/Downloads/getstarted-optiga-trust-m/optiga-trust-m-1/optiga/comms/ifx_i2c/ifx_i2c_physical_layer.c ****     #undef DELAY_FOR_COMPLETION
 280://MAC/Home/Downloads/getstarted-optiga-trust-m/optiga-trust-m-1/optiga/comms/ifx_i2c/ifx_i2c_physical_layer.c ****     /// @endcond
 281://MAC/Home/Downloads/getstarted-optiga-trust-m/optiga-trust-m-1/optiga/comms/ifx_i2c/ifx_i2c_physical_layer.c **** 
 282://MAC/Home/Downloads/getstarted-optiga-trust-m/optiga-trust-m-1/optiga/comms/ifx_i2c/ifx_i2c_physical_layer.c ****     return (status);
 283://MAC/Home/Downloads/getstarted-optiga-trust-m/optiga-trust-m-1/optiga/comms/ifx_i2c/ifx_i2c_physical_layer.c **** }
 284://MAC/Home/Downloads/getstarted-optiga-trust-m/optiga-trust-m-1/optiga/comms/ifx_i2c/ifx_i2c_physical_layer.c **** 
 285://MAC/Home/Downloads/getstarted-optiga-trust-m/optiga-trust-m-1/optiga/comms/ifx_i2c/ifx_i2c_physical_layer.c **** _STATIC_H void ifx_i2c_pl_read_register(ifx_i2c_context_t * p_ctx, uint8_t reg_addr, uint16_t reg_l
 286://MAC/Home/Downloads/getstarted-optiga-trust-m/optiga-trust-m-1/optiga/comms/ifx_i2c/ifx_i2c_physical_layer.c **** {
 287://MAC/Home/Downloads/getstarted-optiga-trust-m/optiga-trust-m-1/optiga/comms/ifx_i2c/ifx_i2c_physical_layer.c ****     LOG_PL("[IFX-PL]: Read register %x len %d\n", reg_addr, reg_len);
 288://MAC/Home/Downloads/getstarted-optiga-trust-m/optiga-trust-m-1/optiga/comms/ifx_i2c/ifx_i2c_physical_layer.c **** 
 289://MAC/Home/Downloads/getstarted-optiga-trust-m/optiga-trust-m-1/optiga/comms/ifx_i2c/ifx_i2c_physical_layer.c ****     // Prepare transmit buffer to write register address
 290://MAC/Home/Downloads/getstarted-optiga-trust-m/optiga-trust-m-1/optiga/comms/ifx_i2c/ifx_i2c_physical_layer.c ****     p_ctx->pl.buffer[0]     = reg_addr;
 291://MAC/Home/Downloads/getstarted-optiga-trust-m/optiga-trust-m-1/optiga/comms/ifx_i2c/ifx_i2c_physical_layer.c ****     p_ctx->pl.buffer_tx_len = 1;
 292://MAC/Home/Downloads/getstarted-optiga-trust-m/optiga-trust-m-1/optiga/comms/ifx_i2c/ifx_i2c_physical_layer.c **** 
 293://MAC/Home/Downloads/getstarted-optiga-trust-m/optiga-trust-m-1/optiga/comms/ifx_i2c/ifx_i2c_physical_layer.c ****     // Set low level interface variables and start transmission
 294://MAC/Home/Downloads/getstarted-optiga-trust-m/optiga-trust-m-1/optiga/comms/ifx_i2c/ifx_i2c_physical_layer.c ****     p_ctx->pl.buffer_rx_len   = reg_len;
 295://MAC/Home/Downloads/getstarted-optiga-trust-m/optiga-trust-m-1/optiga/comms/ifx_i2c/ifx_i2c_physical_layer.c ****     p_ctx->pl.register_action = PL_ACTION_READ_REGISTER;
 296://MAC/Home/Downloads/getstarted-optiga-trust-m/optiga-trust-m-1/optiga/comms/ifx_i2c/ifx_i2c_physical_layer.c ****     p_ctx->pl.retry_counter   = PL_POLLING_MAX_CNT;
 297://MAC/Home/Downloads/getstarted-optiga-trust-m/optiga-trust-m-1/optiga/comms/ifx_i2c/ifx_i2c_physical_layer.c ****     p_ctx->pl.i2c_cmd         = PL_I2C_CMD_WRITE;
 298://MAC/Home/Downloads/getstarted-optiga-trust-m/optiga-trust-m-1/optiga/comms/ifx_i2c/ifx_i2c_physical_layer.c **** 
 299://MAC/Home/Downloads/getstarted-optiga-trust-m/optiga-trust-m-1/optiga/comms/ifx_i2c/ifx_i2c_physical_layer.c ****     //lint --e{534} suppress "This is the last statement of asynchronous function hence return valu
 300://MAC/Home/Downloads/getstarted-optiga-trust-m/optiga-trust-m-1/optiga/comms/ifx_i2c/ifx_i2c_physical_layer.c ****     pal_i2c_write(p_ctx->p_pal_i2c_ctx, p_ctx->pl.buffer, p_ctx->pl.buffer_tx_len);
 301://MAC/Home/Downloads/getstarted-optiga-trust-m/optiga-trust-m-1/optiga/comms/ifx_i2c/ifx_i2c_physical_layer.c **** }
 302://MAC/Home/Downloads/getstarted-optiga-trust-m/optiga-trust-m-1/optiga/comms/ifx_i2c/ifx_i2c_physical_layer.c **** 
 303://MAC/Home/Downloads/getstarted-optiga-trust-m/optiga-trust-m-1/optiga/comms/ifx_i2c/ifx_i2c_physical_layer.c **** 
 304://MAC/Home/Downloads/getstarted-optiga-trust-m/optiga-trust-m-1/optiga/comms/ifx_i2c/ifx_i2c_physical_layer.c **** _STATIC_H void ifx_i2c_pl_write_register(ifx_i2c_context_t * p_ctx,
 305://MAC/Home/Downloads/getstarted-optiga-trust-m/optiga-trust-m-1/optiga/comms/ifx_i2c/ifx_i2c_physical_layer.c ****                                          uint8_t reg_addr,
 306://MAC/Home/Downloads/getstarted-optiga-trust-m/optiga-trust-m-1/optiga/comms/ifx_i2c/ifx_i2c_physical_layer.c ****                                          uint16_t reg_len,
 307://MAC/Home/Downloads/getstarted-optiga-trust-m/optiga-trust-m-1/optiga/comms/ifx_i2c/ifx_i2c_physical_layer.c ****                                          const uint8_t * p_content)
 308://MAC/Home/Downloads/getstarted-optiga-trust-m/optiga-trust-m-1/optiga/comms/ifx_i2c/ifx_i2c_physical_layer.c **** {
 309://MAC/Home/Downloads/getstarted-optiga-trust-m/optiga-trust-m-1/optiga/comms/ifx_i2c/ifx_i2c_physical_layer.c ****     LOG_PL("[IFX-PL]: Write register %x len %d\n", reg_addr, reg_len);
 310://MAC/Home/Downloads/getstarted-optiga-trust-m/optiga-trust-m-1/optiga/comms/ifx_i2c/ifx_i2c_physical_layer.c **** 
 311://MAC/Home/Downloads/getstarted-optiga-trust-m/optiga-trust-m-1/optiga/comms/ifx_i2c/ifx_i2c_physical_layer.c ****     // Prepare transmit buffer to write register address and content
 312://MAC/Home/Downloads/getstarted-optiga-trust-m/optiga-trust-m-1/optiga/comms/ifx_i2c/ifx_i2c_physical_layer.c ****     p_ctx->pl.buffer[0] = reg_addr;
 313://MAC/Home/Downloads/getstarted-optiga-trust-m/optiga-trust-m-1/optiga/comms/ifx_i2c/ifx_i2c_physical_layer.c ****     memcpy(p_ctx->pl.buffer + 1, p_content, reg_len);
 314://MAC/Home/Downloads/getstarted-optiga-trust-m/optiga-trust-m-1/optiga/comms/ifx_i2c/ifx_i2c_physical_layer.c ****     p_ctx->pl.buffer_tx_len = 1 + reg_len;
 315://MAC/Home/Downloads/getstarted-optiga-trust-m/optiga-trust-m-1/optiga/comms/ifx_i2c/ifx_i2c_physical_layer.c **** 
 316://MAC/Home/Downloads/getstarted-optiga-trust-m/optiga-trust-m-1/optiga/comms/ifx_i2c/ifx_i2c_physical_layer.c ****     // Set Physical Layer low level interface variables and start transmission
 317://MAC/Home/Downloads/getstarted-optiga-trust-m/optiga-trust-m-1/optiga/comms/ifx_i2c/ifx_i2c_physical_layer.c ****     p_ctx->pl.register_action = PL_ACTION_WRITE_REGISTER;
 318://MAC/Home/Downloads/getstarted-optiga-trust-m/optiga-trust-m-1/optiga/comms/ifx_i2c/ifx_i2c_physical_layer.c ****     p_ctx->pl.retry_counter   = PL_POLLING_MAX_CNT;
 319://MAC/Home/Downloads/getstarted-optiga-trust-m/optiga-trust-m-1/optiga/comms/ifx_i2c/ifx_i2c_physical_layer.c ****     p_ctx->pl.i2c_cmd         = PL_I2C_CMD_WRITE;
 320://MAC/Home/Downloads/getstarted-optiga-trust-m/optiga-trust-m-1/optiga/comms/ifx_i2c/ifx_i2c_physical_layer.c ****     //lint --e{534} suppress "This is the last statement of asynchronous function hence return valu
 321://MAC/Home/Downloads/getstarted-optiga-trust-m/optiga-trust-m-1/optiga/comms/ifx_i2c/ifx_i2c_physical_layer.c ****     pal_i2c_write(p_ctx->p_pal_i2c_ctx, p_ctx->pl.buffer, p_ctx->pl.buffer_tx_len);
 322://MAC/Home/Downloads/getstarted-optiga-trust-m/optiga-trust-m-1/optiga/comms/ifx_i2c/ifx_i2c_physical_layer.c **** }
 323://MAC/Home/Downloads/getstarted-optiga-trust-m/optiga-trust-m-1/optiga/comms/ifx_i2c/ifx_i2c_physical_layer.c **** 
 324://MAC/Home/Downloads/getstarted-optiga-trust-m/optiga-trust-m-1/optiga/comms/ifx_i2c/ifx_i2c_physical_layer.c **** 
 325://MAC/Home/Downloads/getstarted-optiga-trust-m/optiga-trust-m-1/optiga/comms/ifx_i2c/ifx_i2c_physical_layer.c **** _STATIC_H void ifx_i2c_pl_status_poll_callback(void * p_ctx)
 326://MAC/Home/Downloads/getstarted-optiga-trust-m/optiga-trust-m-1/optiga/comms/ifx_i2c/ifx_i2c_physical_layer.c **** {
 327://MAC/Home/Downloads/getstarted-optiga-trust-m/optiga-trust-m-1/optiga/comms/ifx_i2c/ifx_i2c_physical_layer.c ****     LOG_PL("[IFX-PL]: Status poll Timer elapsed  -> Read STATUS register\n");
 328://MAC/Home/Downloads/getstarted-optiga-trust-m/optiga-trust-m-1/optiga/comms/ifx_i2c/ifx_i2c_physical_layer.c ****     ifx_i2c_pl_read_register((ifx_i2c_context_t * )p_ctx, PL_REG_I2C_STATE, PL_REG_LEN_I2C_STATE);
 329://MAC/Home/Downloads/getstarted-optiga-trust-m/optiga-trust-m-1/optiga/comms/ifx_i2c/ifx_i2c_physical_layer.c **** }
 330://MAC/Home/Downloads/getstarted-optiga-trust-m/optiga-trust-m-1/optiga/comms/ifx_i2c/ifx_i2c_physical_layer.c **** 
 331://MAC/Home/Downloads/getstarted-optiga-trust-m/optiga-trust-m-1/optiga/comms/ifx_i2c/ifx_i2c_physical_layer.c **** _STATIC_H optiga_lib_status_t ifx_i2c_pl_set_bit_rate(ifx_i2c_context_t * p_ctx, uint16_t bitrate)
 332://MAC/Home/Downloads/getstarted-optiga-trust-m/optiga-trust-m-1/optiga/comms/ifx_i2c/ifx_i2c_physical_layer.c **** {
 333://MAC/Home/Downloads/getstarted-optiga-trust-m/optiga-trust-m-1/optiga/comms/ifx_i2c/ifx_i2c_physical_layer.c ****     optiga_lib_status_t status;
 334://MAC/Home/Downloads/getstarted-optiga-trust-m/optiga-trust-m-1/optiga/comms/ifx_i2c/ifx_i2c_physical_layer.c ****     void* p_pal_ctx_upper_layer_handler;
 335://MAC/Home/Downloads/getstarted-optiga-trust-m/optiga-trust-m-1/optiga/comms/ifx_i2c/ifx_i2c_physical_layer.c ****     // Save upper layer context in pal
 336://MAC/Home/Downloads/getstarted-optiga-trust-m/optiga-trust-m-1/optiga/comms/ifx_i2c/ifx_i2c_physical_layer.c ****     p_pal_ctx_upper_layer_handler = p_ctx->p_pal_i2c_ctx->upper_layer_event_handler;
 337://MAC/Home/Downloads/getstarted-optiga-trust-m/optiga-trust-m-1/optiga/comms/ifx_i2c/ifx_i2c_physical_layer.c ****     // Pass context as NULL to avoid callback invocation
 338://MAC/Home/Downloads/getstarted-optiga-trust-m/optiga-trust-m-1/optiga/comms/ifx_i2c/ifx_i2c_physical_layer.c ****     p_ctx->p_pal_i2c_ctx->upper_layer_event_handler  = NULL;
 339://MAC/Home/Downloads/getstarted-optiga-trust-m/optiga-trust-m-1/optiga/comms/ifx_i2c/ifx_i2c_physical_layer.c ****     status = pal_i2c_set_bitrate(p_ctx->p_pal_i2c_ctx , bitrate);
 340://MAC/Home/Downloads/getstarted-optiga-trust-m/optiga-trust-m-1/optiga/comms/ifx_i2c/ifx_i2c_physical_layer.c ****     // Restore callback
 341://MAC/Home/Downloads/getstarted-optiga-trust-m/optiga-trust-m-1/optiga/comms/ifx_i2c/ifx_i2c_physical_layer.c ****     p_ctx->p_pal_i2c_ctx->upper_layer_event_handler  = p_pal_ctx_upper_layer_handler;
 342://MAC/Home/Downloads/getstarted-optiga-trust-m/optiga-trust-m-1/optiga/comms/ifx_i2c/ifx_i2c_physical_layer.c ****     if (PAL_I2C_EVENT_SUCCESS != status)
 343://MAC/Home/Downloads/getstarted-optiga-trust-m/optiga-trust-m-1/optiga/comms/ifx_i2c/ifx_i2c_physical_layer.c ****     {
 344://MAC/Home/Downloads/getstarted-optiga-trust-m/optiga-trust-m-1/optiga/comms/ifx_i2c/ifx_i2c_physical_layer.c ****         if (0 != (p_ctx->pl.retry_counter--))
 345://MAC/Home/Downloads/getstarted-optiga-trust-m/optiga-trust-m-1/optiga/comms/ifx_i2c/ifx_i2c_physical_layer.c ****         {
 346://MAC/Home/Downloads/getstarted-optiga-trust-m/optiga-trust-m-1/optiga/comms/ifx_i2c/ifx_i2c_physical_layer.c ****             LOG_PL("[IFX-PL]: Set bit rate failed, Retry setting.\n");
 347://MAC/Home/Downloads/getstarted-optiga-trust-m/optiga-trust-m-1/optiga/comms/ifx_i2c/ifx_i2c_physical_layer.c ****             pal_os_event_register_callback_oneshot( p_ctx->pal_os_event_ctx,
 348://MAC/Home/Downloads/getstarted-optiga-trust-m/optiga-trust-m-1/optiga/comms/ifx_i2c/ifx_i2c_physical_layer.c ****                                                     ifx_i2c_pl_negotiation_event_handler,
 349://MAC/Home/Downloads/getstarted-optiga-trust-m/optiga-trust-m-1/optiga/comms/ifx_i2c/ifx_i2c_physical_layer.c ****                                                    ((void * )p_ctx),
 350://MAC/Home/Downloads/getstarted-optiga-trust-m/optiga-trust-m-1/optiga/comms/ifx_i2c/ifx_i2c_physical_layer.c ****                                                    PL_POLLING_INVERVAL_US);
 351://MAC/Home/Downloads/getstarted-optiga-trust-m/optiga-trust-m-1/optiga/comms/ifx_i2c/ifx_i2c_physical_layer.c ****             status = IFX_I2C_STACK_BUSY;
 352://MAC/Home/Downloads/getstarted-optiga-trust-m/optiga-trust-m-1/optiga/comms/ifx_i2c/ifx_i2c_physical_layer.c ****         }
 353://MAC/Home/Downloads/getstarted-optiga-trust-m/optiga-trust-m-1/optiga/comms/ifx_i2c/ifx_i2c_physical_layer.c ****         else
 354://MAC/Home/Downloads/getstarted-optiga-trust-m/optiga-trust-m-1/optiga/comms/ifx_i2c/ifx_i2c_physical_layer.c ****         {
 355://MAC/Home/Downloads/getstarted-optiga-trust-m/optiga-trust-m-1/optiga/comms/ifx_i2c/ifx_i2c_physical_layer.c ****            status = IFX_I2C_STACK_ERROR;
 356://MAC/Home/Downloads/getstarted-optiga-trust-m/optiga-trust-m-1/optiga/comms/ifx_i2c/ifx_i2c_physical_layer.c ****         }
 357://MAC/Home/Downloads/getstarted-optiga-trust-m/optiga-trust-m-1/optiga/comms/ifx_i2c/ifx_i2c_physical_layer.c ****     }
 358://MAC/Home/Downloads/getstarted-optiga-trust-m/optiga-trust-m-1/optiga/comms/ifx_i2c/ifx_i2c_physical_layer.c ****     else
 359://MAC/Home/Downloads/getstarted-optiga-trust-m/optiga-trust-m-1/optiga/comms/ifx_i2c/ifx_i2c_physical_layer.c ****     {
 360://MAC/Home/Downloads/getstarted-optiga-trust-m/optiga-trust-m-1/optiga/comms/ifx_i2c/ifx_i2c_physical_layer.c ****         status = IFX_I2C_STACK_SUCCESS;
 361://MAC/Home/Downloads/getstarted-optiga-trust-m/optiga-trust-m-1/optiga/comms/ifx_i2c/ifx_i2c_physical_layer.c ****     }
 362://MAC/Home/Downloads/getstarted-optiga-trust-m/optiga-trust-m-1/optiga/comms/ifx_i2c/ifx_i2c_physical_layer.c **** 
 363://MAC/Home/Downloads/getstarted-optiga-trust-m/optiga-trust-m-1/optiga/comms/ifx_i2c/ifx_i2c_physical_layer.c ****     return (status);
 364://MAC/Home/Downloads/getstarted-optiga-trust-m/optiga-trust-m-1/optiga/comms/ifx_i2c/ifx_i2c_physical_layer.c **** 
 365://MAC/Home/Downloads/getstarted-optiga-trust-m/optiga-trust-m-1/optiga/comms/ifx_i2c/ifx_i2c_physical_layer.c **** }
 366://MAC/Home/Downloads/getstarted-optiga-trust-m/optiga-trust-m-1/optiga/comms/ifx_i2c/ifx_i2c_physical_layer.c **** _STATIC_H void ifx_i2c_pl_negotiation_event_handler(void * p_input_ctx)
 367://MAC/Home/Downloads/getstarted-optiga-trust-m/optiga-trust-m-1/optiga/comms/ifx_i2c/ifx_i2c_physical_layer.c **** {
 368://MAC/Home/Downloads/getstarted-optiga-trust-m/optiga-trust-m-1/optiga/comms/ifx_i2c/ifx_i2c_physical_layer.c ****     optiga_lib_status_t event = (uint8_t)IFX_I2C_STACK_ERROR;
 369://MAC/Home/Downloads/getstarted-optiga-trust-m/optiga-trust-m-1/optiga/comms/ifx_i2c/ifx_i2c_physical_layer.c ****     uint8_t continue_negotiation;
 370://MAC/Home/Downloads/getstarted-optiga-trust-m/optiga-trust-m-1/optiga/comms/ifx_i2c/ifx_i2c_physical_layer.c ****     ifx_i2c_context_t * p_ctx = (ifx_i2c_context_t * )p_input_ctx;
 371://MAC/Home/Downloads/getstarted-optiga-trust-m/optiga-trust-m-1/optiga/comms/ifx_i2c/ifx_i2c_physical_layer.c ****     uint8_t i2c_mode_value[2];
 372://MAC/Home/Downloads/getstarted-optiga-trust-m/optiga-trust-m-1/optiga/comms/ifx_i2c/ifx_i2c_physical_layer.c ****     uint8_t max_frame_size[2] = { (uint8_t)(p_ctx->frame_size >> 8), (uint8_t)(p_ctx->frame_size) }
 373://MAC/Home/Downloads/getstarted-optiga-trust-m/optiga-trust-m-1/optiga/comms/ifx_i2c/ifx_i2c_physical_layer.c ****     uint16_t buffer_len = 0;
 374://MAC/Home/Downloads/getstarted-optiga-trust-m/optiga-trust-m-1/optiga/comms/ifx_i2c/ifx_i2c_physical_layer.c ****     uint16_t slave_frequency;
 375://MAC/Home/Downloads/getstarted-optiga-trust-m/optiga-trust-m-1/optiga/comms/ifx_i2c/ifx_i2c_physical_layer.c ****     uint16_t slave_frame_len;
 376://MAC/Home/Downloads/getstarted-optiga-trust-m/optiga-trust-m-1/optiga/comms/ifx_i2c/ifx_i2c_physical_layer.c ****     uint8_t* p_buffer = NULL;
 377://MAC/Home/Downloads/getstarted-optiga-trust-m/optiga-trust-m-1/optiga/comms/ifx_i2c/ifx_i2c_physical_layer.c **** 
 378://MAC/Home/Downloads/getstarted-optiga-trust-m/optiga-trust-m-1/optiga/comms/ifx_i2c/ifx_i2c_physical_layer.c ****     do
 379://MAC/Home/Downloads/getstarted-optiga-trust-m/optiga-trust-m-1/optiga/comms/ifx_i2c/ifx_i2c_physical_layer.c ****     {
 380://MAC/Home/Downloads/getstarted-optiga-trust-m/optiga-trust-m-1/optiga/comms/ifx_i2c/ifx_i2c_physical_layer.c ****         continue_negotiation = FALSE;
 381://MAC/Home/Downloads/getstarted-optiga-trust-m/optiga-trust-m-1/optiga/comms/ifx_i2c/ifx_i2c_physical_layer.c ****         LOG_PL("[IFX-PL]: Negotiation started\n");
 382://MAC/Home/Downloads/getstarted-optiga-trust-m/optiga-trust-m-1/optiga/comms/ifx_i2c/ifx_i2c_physical_layer.c ****         switch (p_ctx->pl.negotiate_state)
 383://MAC/Home/Downloads/getstarted-optiga-trust-m/optiga-trust-m-1/optiga/comms/ifx_i2c/ifx_i2c_physical_layer.c ****         {
 384://MAC/Home/Downloads/getstarted-optiga-trust-m/optiga-trust-m-1/optiga/comms/ifx_i2c/ifx_i2c_physical_layer.c ****             // Set initial frequency to PL_DEFAULT_FREQUENCY to be able to negotiate with slave
 385://MAC/Home/Downloads/getstarted-optiga-trust-m/optiga-trust-m-1/optiga/comms/ifx_i2c/ifx_i2c_physical_layer.c ****             case PL_INIT_SET_FREQ_DEFAULT:
 386://MAC/Home/Downloads/getstarted-optiga-trust-m/optiga-trust-m-1/optiga/comms/ifx_i2c/ifx_i2c_physical_layer.c ****             {
 387://MAC/Home/Downloads/getstarted-optiga-trust-m/optiga-trust-m-1/optiga/comms/ifx_i2c/ifx_i2c_physical_layer.c ****                 // Default frequency set to master
 388://MAC/Home/Downloads/getstarted-optiga-trust-m/optiga-trust-m-1/optiga/comms/ifx_i2c/ifx_i2c_physical_layer.c ****                 event = ifx_i2c_pl_set_bit_rate(p_input_ctx, PL_DEFAULT_FREQUENCY);
 389://MAC/Home/Downloads/getstarted-optiga-trust-m/optiga-trust-m-1/optiga/comms/ifx_i2c/ifx_i2c_physical_layer.c ****                 if (IFX_I2C_STACK_SUCCESS == event)
 390://MAC/Home/Downloads/getstarted-optiga-trust-m/optiga-trust-m-1/optiga/comms/ifx_i2c/ifx_i2c_physical_layer.c ****                 {
 391://MAC/Home/Downloads/getstarted-optiga-trust-m/optiga-trust-m-1/optiga/comms/ifx_i2c/ifx_i2c_physical_layer.c ****                     p_ctx->pl.negotiate_state = PL_INIT_GET_FREQ_REG;
 392://MAC/Home/Downloads/getstarted-optiga-trust-m/optiga-trust-m-1/optiga/comms/ifx_i2c/ifx_i2c_physical_layer.c ****                     continue_negotiation = TRUE;
 393://MAC/Home/Downloads/getstarted-optiga-trust-m/optiga-trust-m-1/optiga/comms/ifx_i2c/ifx_i2c_physical_layer.c ****                 }
 394://MAC/Home/Downloads/getstarted-optiga-trust-m/optiga-trust-m-1/optiga/comms/ifx_i2c/ifx_i2c_physical_layer.c ****                 else if (IFX_I2C_STACK_ERROR == event)
 395://MAC/Home/Downloads/getstarted-optiga-trust-m/optiga-trust-m-1/optiga/comms/ifx_i2c/ifx_i2c_physical_layer.c ****                 {
 396://MAC/Home/Downloads/getstarted-optiga-trust-m/optiga-trust-m-1/optiga/comms/ifx_i2c/ifx_i2c_physical_layer.c ****                     p_ctx->pl.negotiate_state = PL_INIT_DONE;
 397://MAC/Home/Downloads/getstarted-optiga-trust-m/optiga-trust-m-1/optiga/comms/ifx_i2c/ifx_i2c_physical_layer.c ****                     p_buffer = NULL;
 398://MAC/Home/Downloads/getstarted-optiga-trust-m/optiga-trust-m-1/optiga/comms/ifx_i2c/ifx_i2c_physical_layer.c ****                     buffer_len = 0;
 399://MAC/Home/Downloads/getstarted-optiga-trust-m/optiga-trust-m-1/optiga/comms/ifx_i2c/ifx_i2c_physical_layer.c ****                     pal_os_event_register_callback_oneshot(p_ctx->pal_os_event_ctx,(register_callba
 400://MAC/Home/Downloads/getstarted-optiga-trust-m/optiga-trust-m-1/optiga/comms/ifx_i2c/ifx_i2c_physical_layer.c ****                                                            (void * )p_ctx,
 401://MAC/Home/Downloads/getstarted-optiga-trust-m/optiga-trust-m-1/optiga/comms/ifx_i2c/ifx_i2c_physical_layer.c ****                                                            STARTUP_TIME_MSEC);
 402://MAC/Home/Downloads/getstarted-optiga-trust-m/optiga-trust-m-1/optiga/comms/ifx_i2c/ifx_i2c_physical_layer.c ****                 }
 403://MAC/Home/Downloads/getstarted-optiga-trust-m/optiga-trust-m-1/optiga/comms/ifx_i2c/ifx_i2c_physical_layer.c ****             }
 404://MAC/Home/Downloads/getstarted-optiga-trust-m/optiga-trust-m-1/optiga/comms/ifx_i2c/ifx_i2c_physical_layer.c ****             break;
 405://MAC/Home/Downloads/getstarted-optiga-trust-m/optiga-trust-m-1/optiga/comms/ifx_i2c/ifx_i2c_physical_layer.c ****             // Read the current Max frequency supported by slave
 406://MAC/Home/Downloads/getstarted-optiga-trust-m/optiga-trust-m-1/optiga/comms/ifx_i2c/ifx_i2c_physical_layer.c ****             case PL_INIT_GET_FREQ_REG:
 407://MAC/Home/Downloads/getstarted-optiga-trust-m/optiga-trust-m-1/optiga/comms/ifx_i2c/ifx_i2c_physical_layer.c ****             {
 408://MAC/Home/Downloads/getstarted-optiga-trust-m/optiga-trust-m-1/optiga/comms/ifx_i2c/ifx_i2c_physical_layer.c ****                 p_ctx->pl.negotiate_state = PL_INIT_SET_FREQ_REG;
 409://MAC/Home/Downloads/getstarted-optiga-trust-m/optiga-trust-m-1/optiga/comms/ifx_i2c/ifx_i2c_physical_layer.c ****                 ifx_i2c_pl_read_register(p_ctx, PL_REG_MAX_SCL_FREQU, PL_REG_LEN_MAX_SCL_FREQU);
 410://MAC/Home/Downloads/getstarted-optiga-trust-m/optiga-trust-m-1/optiga/comms/ifx_i2c/ifx_i2c_physical_layer.c ****             }
 411://MAC/Home/Downloads/getstarted-optiga-trust-m/optiga-trust-m-1/optiga/comms/ifx_i2c/ifx_i2c_physical_layer.c ****             break;
 412://MAC/Home/Downloads/getstarted-optiga-trust-m/optiga-trust-m-1/optiga/comms/ifx_i2c/ifx_i2c_physical_layer.c ****             // Set the I2C mode register
 413://MAC/Home/Downloads/getstarted-optiga-trust-m/optiga-trust-m-1/optiga/comms/ifx_i2c/ifx_i2c_physical_layer.c ****             case PL_INIT_SET_FREQ_REG:
 414://MAC/Home/Downloads/getstarted-optiga-trust-m/optiga-trust-m-1/optiga/comms/ifx_i2c/ifx_i2c_physical_layer.c ****             {
 415://MAC/Home/Downloads/getstarted-optiga-trust-m/optiga-trust-m-1/optiga/comms/ifx_i2c/ifx_i2c_physical_layer.c ****                 slave_frequency = (p_ctx->pl.buffer[2] << 8) | p_ctx->pl.buffer[3];
 416://MAC/Home/Downloads/getstarted-optiga-trust-m/optiga-trust-m-1/optiga/comms/ifx_i2c/ifx_i2c_physical_layer.c **** 
 417://MAC/Home/Downloads/getstarted-optiga-trust-m/optiga-trust-m-1/optiga/comms/ifx_i2c/ifx_i2c_physical_layer.c ****                 i2c_mode_value[0] = PL_REG_I2C_MODE_PERSISTANT;
 418://MAC/Home/Downloads/getstarted-optiga-trust-m/optiga-trust-m-1/optiga/comms/ifx_i2c/ifx_i2c_physical_layer.c ****                 if ((p_ctx->frequency > PL_SM_FM_MAX_FREQUENCY) && (slave_frequency <= PL_SM_FM_MAX
 419://MAC/Home/Downloads/getstarted-optiga-trust-m/optiga-trust-m-1/optiga/comms/ifx_i2c/ifx_i2c_physical_layer.c ****                 {
 420://MAC/Home/Downloads/getstarted-optiga-trust-m/optiga-trust-m-1/optiga/comms/ifx_i2c/ifx_i2c_physical_layer.c ****                     //Change to FM+ mode if slave's current supported frequency is below user's req
 421://MAC/Home/Downloads/getstarted-optiga-trust-m/optiga-trust-m-1/optiga/comms/ifx_i2c/ifx_i2c_physical_layer.c ****                     i2c_mode_value[1] = PL_REG_I2C_MODE_FM_PLUS;
 422://MAC/Home/Downloads/getstarted-optiga-trust-m/optiga-trust-m-1/optiga/comms/ifx_i2c/ifx_i2c_physical_layer.c ****                     p_ctx->pl.negotiate_state = PL_INIT_READ_FREQ;
 423://MAC/Home/Downloads/getstarted-optiga-trust-m/optiga-trust-m-1/optiga/comms/ifx_i2c/ifx_i2c_physical_layer.c ****                     ifx_i2c_pl_write_register(p_ctx, PL_REG_I2C_MODE, PL_REG_LEN_I2C_MODE, i2c_mode
 424://MAC/Home/Downloads/getstarted-optiga-trust-m/optiga-trust-m-1/optiga/comms/ifx_i2c/ifx_i2c_physical_layer.c ****                 }
 425://MAC/Home/Downloads/getstarted-optiga-trust-m/optiga-trust-m-1/optiga/comms/ifx_i2c/ifx_i2c_physical_layer.c ****                 else if ((p_ctx->frequency <= PL_SM_FM_MAX_FREQUENCY) && (slave_frequency > PL_SM_F
 426://MAC/Home/Downloads/getstarted-optiga-trust-m/optiga-trust-m-1/optiga/comms/ifx_i2c/ifx_i2c_physical_layer.c ****                 {
 427://MAC/Home/Downloads/getstarted-optiga-trust-m/optiga-trust-m-1/optiga/comms/ifx_i2c/ifx_i2c_physical_layer.c ****                     //Change to SM&FM mode if slave's current supported frequency is above user's r
 428://MAC/Home/Downloads/getstarted-optiga-trust-m/optiga-trust-m-1/optiga/comms/ifx_i2c/ifx_i2c_physical_layer.c ****                     i2c_mode_value[1] = PL_REG_I2C_MODE_SM_FM;
 429://MAC/Home/Downloads/getstarted-optiga-trust-m/optiga-trust-m-1/optiga/comms/ifx_i2c/ifx_i2c_physical_layer.c ****                     p_ctx->pl.negotiate_state = PL_INIT_READ_FREQ;
 430://MAC/Home/Downloads/getstarted-optiga-trust-m/optiga-trust-m-1/optiga/comms/ifx_i2c/ifx_i2c_physical_layer.c ****                     ifx_i2c_pl_write_register(p_ctx, PL_REG_I2C_MODE, PL_REG_LEN_I2C_MODE, i2c_mode
 431://MAC/Home/Downloads/getstarted-optiga-trust-m/optiga-trust-m-1/optiga/comms/ifx_i2c/ifx_i2c_physical_layer.c ****                 }
 432://MAC/Home/Downloads/getstarted-optiga-trust-m/optiga-trust-m-1/optiga/comms/ifx_i2c/ifx_i2c_physical_layer.c ****                 else
 433://MAC/Home/Downloads/getstarted-optiga-trust-m/optiga-trust-m-1/optiga/comms/ifx_i2c/ifx_i2c_physical_layer.c ****                 {
 434://MAC/Home/Downloads/getstarted-optiga-trust-m/optiga-trust-m-1/optiga/comms/ifx_i2c/ifx_i2c_physical_layer.c ****                     p_ctx->pl.negotiate_state = PL_INIT_VERIFY_FREQ;
 435://MAC/Home/Downloads/getstarted-optiga-trust-m/optiga-trust-m-1/optiga/comms/ifx_i2c/ifx_i2c_physical_layer.c ****                     continue_negotiation = TRUE;
 436://MAC/Home/Downloads/getstarted-optiga-trust-m/optiga-trust-m-1/optiga/comms/ifx_i2c/ifx_i2c_physical_layer.c ****                 }
 437://MAC/Home/Downloads/getstarted-optiga-trust-m/optiga-trust-m-1/optiga/comms/ifx_i2c/ifx_i2c_physical_layer.c ****             }
 438://MAC/Home/Downloads/getstarted-optiga-trust-m/optiga-trust-m-1/optiga/comms/ifx_i2c/ifx_i2c_physical_layer.c ****             break;
 439://MAC/Home/Downloads/getstarted-optiga-trust-m/optiga-trust-m-1/optiga/comms/ifx_i2c/ifx_i2c_physical_layer.c ****             // After setting I2C mode register, read the slave's supported frequency
 440://MAC/Home/Downloads/getstarted-optiga-trust-m/optiga-trust-m-1/optiga/comms/ifx_i2c/ifx_i2c_physical_layer.c ****             case PL_INIT_READ_FREQ:
 441://MAC/Home/Downloads/getstarted-optiga-trust-m/optiga-trust-m-1/optiga/comms/ifx_i2c/ifx_i2c_physical_layer.c ****             {
 442://MAC/Home/Downloads/getstarted-optiga-trust-m/optiga-trust-m-1/optiga/comms/ifx_i2c/ifx_i2c_physical_layer.c ****                 p_ctx->pl.negotiate_state = PL_INIT_VERIFY_FREQ;
 443://MAC/Home/Downloads/getstarted-optiga-trust-m/optiga-trust-m-1/optiga/comms/ifx_i2c/ifx_i2c_physical_layer.c ****                 ifx_i2c_pl_read_register(p_ctx, PL_REG_MAX_SCL_FREQU, PL_REG_LEN_MAX_SCL_FREQU);
 444://MAC/Home/Downloads/getstarted-optiga-trust-m/optiga-trust-m-1/optiga/comms/ifx_i2c/ifx_i2c_physical_layer.c ****             }
 445://MAC/Home/Downloads/getstarted-optiga-trust-m/optiga-trust-m-1/optiga/comms/ifx_i2c/ifx_i2c_physical_layer.c ****             break;
 446://MAC/Home/Downloads/getstarted-optiga-trust-m/optiga-trust-m-1/optiga/comms/ifx_i2c/ifx_i2c_physical_layer.c ****             // Verify the requested frequency and slave's supported frequency
 447://MAC/Home/Downloads/getstarted-optiga-trust-m/optiga-trust-m-1/optiga/comms/ifx_i2c/ifx_i2c_physical_layer.c ****             case PL_INIT_VERIFY_FREQ:
 448://MAC/Home/Downloads/getstarted-optiga-trust-m/optiga-trust-m-1/optiga/comms/ifx_i2c/ifx_i2c_physical_layer.c ****             {
 449://MAC/Home/Downloads/getstarted-optiga-trust-m/optiga-trust-m-1/optiga/comms/ifx_i2c/ifx_i2c_physical_layer.c ****                 slave_frequency = (p_ctx->pl.buffer[2] << 8) | p_ctx->pl.buffer[3];
 450://MAC/Home/Downloads/getstarted-optiga-trust-m/optiga-trust-m-1/optiga/comms/ifx_i2c/ifx_i2c_physical_layer.c ****                 if (p_ctx->frequency > slave_frequency)
 451://MAC/Home/Downloads/getstarted-optiga-trust-m/optiga-trust-m-1/optiga/comms/ifx_i2c/ifx_i2c_physical_layer.c ****                 {
 452://MAC/Home/Downloads/getstarted-optiga-trust-m/optiga-trust-m-1/optiga/comms/ifx_i2c/ifx_i2c_physical_layer.c ****                     LOG_PL("[IFX-PL]: Unexpected frequency in MAX_SCL_FREQU\n");
 453://MAC/Home/Downloads/getstarted-optiga-trust-m/optiga-trust-m-1/optiga/comms/ifx_i2c/ifx_i2c_physical_layer.c ****                     p_buffer = NULL;
 454://MAC/Home/Downloads/getstarted-optiga-trust-m/optiga-trust-m-1/optiga/comms/ifx_i2c/ifx_i2c_physical_layer.c ****                     buffer_len = 0;
 455://MAC/Home/Downloads/getstarted-optiga-trust-m/optiga-trust-m-1/optiga/comms/ifx_i2c/ifx_i2c_physical_layer.c ****                     p_ctx->pl.negotiate_state = PL_INIT_DONE;
 456://MAC/Home/Downloads/getstarted-optiga-trust-m/optiga-trust-m-1/optiga/comms/ifx_i2c/ifx_i2c_physical_layer.c ****                 }
 457://MAC/Home/Downloads/getstarted-optiga-trust-m/optiga-trust-m-1/optiga/comms/ifx_i2c/ifx_i2c_physical_layer.c ****                 else
 458://MAC/Home/Downloads/getstarted-optiga-trust-m/optiga-trust-m-1/optiga/comms/ifx_i2c/ifx_i2c_physical_layer.c ****                 {
 459://MAC/Home/Downloads/getstarted-optiga-trust-m/optiga-trust-m-1/optiga/comms/ifx_i2c/ifx_i2c_physical_layer.c ****                     p_ctx->pl.negotiate_state = PL_INIT_AGREE_FREQ;
 460://MAC/Home/Downloads/getstarted-optiga-trust-m/optiga-trust-m-1/optiga/comms/ifx_i2c/ifx_i2c_physical_layer.c ****                 }
 461://MAC/Home/Downloads/getstarted-optiga-trust-m/optiga-trust-m-1/optiga/comms/ifx_i2c/ifx_i2c_physical_layer.c ****                 continue_negotiation = TRUE;
 462://MAC/Home/Downloads/getstarted-optiga-trust-m/optiga-trust-m-1/optiga/comms/ifx_i2c/ifx_i2c_physical_layer.c ****             }
 463://MAC/Home/Downloads/getstarted-optiga-trust-m/optiga-trust-m-1/optiga/comms/ifx_i2c/ifx_i2c_physical_layer.c ****             break;
 464://MAC/Home/Downloads/getstarted-optiga-trust-m/optiga-trust-m-1/optiga/comms/ifx_i2c/ifx_i2c_physical_layer.c ****             // Frequency negotiated, Set frequency at master
 465://MAC/Home/Downloads/getstarted-optiga-trust-m/optiga-trust-m-1/optiga/comms/ifx_i2c/ifx_i2c_physical_layer.c ****             case PL_INIT_AGREE_FREQ:
 466://MAC/Home/Downloads/getstarted-optiga-trust-m/optiga-trust-m-1/optiga/comms/ifx_i2c/ifx_i2c_physical_layer.c ****             {
 467://MAC/Home/Downloads/getstarted-optiga-trust-m/optiga-trust-m-1/optiga/comms/ifx_i2c/ifx_i2c_physical_layer.c ****                 // Frequency negotiation between master and slave is complete
 468://MAC/Home/Downloads/getstarted-optiga-trust-m/optiga-trust-m-1/optiga/comms/ifx_i2c/ifx_i2c_physical_layer.c ****                 event = ifx_i2c_pl_set_bit_rate(p_input_ctx, p_ctx->frequency);
 469://MAC/Home/Downloads/getstarted-optiga-trust-m/optiga-trust-m-1/optiga/comms/ifx_i2c/ifx_i2c_physical_layer.c ****                 if (IFX_I2C_STACK_SUCCESS == event)
 470://MAC/Home/Downloads/getstarted-optiga-trust-m/optiga-trust-m-1/optiga/comms/ifx_i2c/ifx_i2c_physical_layer.c ****                 {
 471://MAC/Home/Downloads/getstarted-optiga-trust-m/optiga-trust-m-1/optiga/comms/ifx_i2c/ifx_i2c_physical_layer.c ****                     p_ctx->pl.negotiate_state = PL_INIT_SET_DATA_REG_LEN;
 472://MAC/Home/Downloads/getstarted-optiga-trust-m/optiga-trust-m-1/optiga/comms/ifx_i2c/ifx_i2c_physical_layer.c ****                     continue_negotiation = TRUE;
 473://MAC/Home/Downloads/getstarted-optiga-trust-m/optiga-trust-m-1/optiga/comms/ifx_i2c/ifx_i2c_physical_layer.c ****                 }
 474://MAC/Home/Downloads/getstarted-optiga-trust-m/optiga-trust-m-1/optiga/comms/ifx_i2c/ifx_i2c_physical_layer.c ****                 else if (IFX_I2C_STACK_ERROR == event)
 475://MAC/Home/Downloads/getstarted-optiga-trust-m/optiga-trust-m-1/optiga/comms/ifx_i2c/ifx_i2c_physical_layer.c ****                 {
 476://MAC/Home/Downloads/getstarted-optiga-trust-m/optiga-trust-m-1/optiga/comms/ifx_i2c/ifx_i2c_physical_layer.c ****                     p_ctx->pl.negotiate_state = PL_INIT_DONE;
 477://MAC/Home/Downloads/getstarted-optiga-trust-m/optiga-trust-m-1/optiga/comms/ifx_i2c/ifx_i2c_physical_layer.c ****                     p_buffer = NULL;
 478://MAC/Home/Downloads/getstarted-optiga-trust-m/optiga-trust-m-1/optiga/comms/ifx_i2c/ifx_i2c_physical_layer.c ****                     buffer_len = 0;
 479://MAC/Home/Downloads/getstarted-optiga-trust-m/optiga-trust-m-1/optiga/comms/ifx_i2c/ifx_i2c_physical_layer.c ****                 }
 480://MAC/Home/Downloads/getstarted-optiga-trust-m/optiga-trust-m-1/optiga/comms/ifx_i2c/ifx_i2c_physical_layer.c ****             }
 481://MAC/Home/Downloads/getstarted-optiga-trust-m/optiga-trust-m-1/optiga/comms/ifx_i2c/ifx_i2c_physical_layer.c ****             break;
 482://MAC/Home/Downloads/getstarted-optiga-trust-m/optiga-trust-m-1/optiga/comms/ifx_i2c/ifx_i2c_physical_layer.c ****             // Start frame length negotiation by writing the requested frame length
 483://MAC/Home/Downloads/getstarted-optiga-trust-m/optiga-trust-m-1/optiga/comms/ifx_i2c/ifx_i2c_physical_layer.c ****             case PL_INIT_SET_DATA_REG_LEN:
 484://MAC/Home/Downloads/getstarted-optiga-trust-m/optiga-trust-m-1/optiga/comms/ifx_i2c/ifx_i2c_physical_layer.c ****             {
 485://MAC/Home/Downloads/getstarted-optiga-trust-m/optiga-trust-m-1/optiga/comms/ifx_i2c/ifx_i2c_physical_layer.c ****                 p_ctx->pl.negotiate_state = PL_INIT_GET_DATA_REG_LEN;
 486://MAC/Home/Downloads/getstarted-optiga-trust-m/optiga-trust-m-1/optiga/comms/ifx_i2c/ifx_i2c_physical_layer.c ****                 ifx_i2c_pl_write_register(p_ctx, PL_REG_DATA_REG_LEN, sizeof(max_frame_size), max_f
 487://MAC/Home/Downloads/getstarted-optiga-trust-m/optiga-trust-m-1/optiga/comms/ifx_i2c/ifx_i2c_physical_layer.c ****             }
 488://MAC/Home/Downloads/getstarted-optiga-trust-m/optiga-trust-m-1/optiga/comms/ifx_i2c/ifx_i2c_physical_layer.c ****             break;
 489://MAC/Home/Downloads/getstarted-optiga-trust-m/optiga-trust-m-1/optiga/comms/ifx_i2c/ifx_i2c_physical_layer.c ****             // Read the frame length to verify
 490://MAC/Home/Downloads/getstarted-optiga-trust-m/optiga-trust-m-1/optiga/comms/ifx_i2c/ifx_i2c_physical_layer.c ****             case PL_INIT_GET_DATA_REG_LEN:
 491://MAC/Home/Downloads/getstarted-optiga-trust-m/optiga-trust-m-1/optiga/comms/ifx_i2c/ifx_i2c_physical_layer.c ****             {
 492://MAC/Home/Downloads/getstarted-optiga-trust-m/optiga-trust-m-1/optiga/comms/ifx_i2c/ifx_i2c_physical_layer.c ****                 p_ctx->pl.negotiate_state = PL_INIT_VERIFY_DATA_REG;
 493://MAC/Home/Downloads/getstarted-optiga-trust-m/optiga-trust-m-1/optiga/comms/ifx_i2c/ifx_i2c_physical_layer.c ****                 ifx_i2c_pl_read_register(p_ctx, PL_REG_DATA_REG_LEN, PL_REG_LEN_DATA_REG_LEN);
 494://MAC/Home/Downloads/getstarted-optiga-trust-m/optiga-trust-m-1/optiga/comms/ifx_i2c/ifx_i2c_physical_layer.c ****             }
 495://MAC/Home/Downloads/getstarted-optiga-trust-m/optiga-trust-m-1/optiga/comms/ifx_i2c/ifx_i2c_physical_layer.c ****             break;
 496://MAC/Home/Downloads/getstarted-optiga-trust-m/optiga-trust-m-1/optiga/comms/ifx_i2c/ifx_i2c_physical_layer.c ****             // Check is slave accepted the new frame length
 497://MAC/Home/Downloads/getstarted-optiga-trust-m/optiga-trust-m-1/optiga/comms/ifx_i2c/ifx_i2c_physical_layer.c ****             case PL_INIT_VERIFY_DATA_REG:
 498://MAC/Home/Downloads/getstarted-optiga-trust-m/optiga-trust-m-1/optiga/comms/ifx_i2c/ifx_i2c_physical_layer.c ****             {
 499://MAC/Home/Downloads/getstarted-optiga-trust-m/optiga-trust-m-1/optiga/comms/ifx_i2c/ifx_i2c_physical_layer.c ****                 p_ctx->pl.negotiate_state = PL_INIT_DONE;
 500://MAC/Home/Downloads/getstarted-optiga-trust-m/optiga-trust-m-1/optiga/comms/ifx_i2c/ifx_i2c_physical_layer.c ****                 slave_frame_len = (p_ctx->pl.buffer[0] << 8) | p_ctx->pl.buffer[1];
 501://MAC/Home/Downloads/getstarted-optiga-trust-m/optiga-trust-m-1/optiga/comms/ifx_i2c/ifx_i2c_physical_layer.c ****                 // Error if slave's frame length is more than requested frame length
 502://MAC/Home/Downloads/getstarted-optiga-trust-m/optiga-trust-m-1/optiga/comms/ifx_i2c/ifx_i2c_physical_layer.c ****                 if (p_ctx->frame_size >= slave_frame_len)
 503://MAC/Home/Downloads/getstarted-optiga-trust-m/optiga-trust-m-1/optiga/comms/ifx_i2c/ifx_i2c_physical_layer.c ****                 {
 504://MAC/Home/Downloads/getstarted-optiga-trust-m/optiga-trust-m-1/optiga/comms/ifx_i2c/ifx_i2c_physical_layer.c ****                     p_ctx->frame_size = slave_frame_len;
 505://MAC/Home/Downloads/getstarted-optiga-trust-m/optiga-trust-m-1/optiga/comms/ifx_i2c/ifx_i2c_physical_layer.c ****                     event = IFX_I2C_STACK_SUCCESS;
 506://MAC/Home/Downloads/getstarted-optiga-trust-m/optiga-trust-m-1/optiga/comms/ifx_i2c/ifx_i2c_physical_layer.c ****                 }
 507://MAC/Home/Downloads/getstarted-optiga-trust-m/optiga-trust-m-1/optiga/comms/ifx_i2c/ifx_i2c_physical_layer.c ****                 p_buffer = NULL;
 508://MAC/Home/Downloads/getstarted-optiga-trust-m/optiga-trust-m-1/optiga/comms/ifx_i2c/ifx_i2c_physical_layer.c ****                 buffer_len = 0;
 509://MAC/Home/Downloads/getstarted-optiga-trust-m/optiga-trust-m-1/optiga/comms/ifx_i2c/ifx_i2c_physical_layer.c ****                 continue_negotiation = TRUE;
 510://MAC/Home/Downloads/getstarted-optiga-trust-m/optiga-trust-m-1/optiga/comms/ifx_i2c/ifx_i2c_physical_layer.c ****             }
 511://MAC/Home/Downloads/getstarted-optiga-trust-m/optiga-trust-m-1/optiga/comms/ifx_i2c/ifx_i2c_physical_layer.c ****             break;
 512://MAC/Home/Downloads/getstarted-optiga-trust-m/optiga-trust-m-1/optiga/comms/ifx_i2c/ifx_i2c_physical_layer.c ****             case PL_INIT_DONE:
 513://MAC/Home/Downloads/getstarted-optiga-trust-m/optiga-trust-m-1/optiga/comms/ifx_i2c/ifx_i2c_physical_layer.c ****             {
 514://MAC/Home/Downloads/getstarted-optiga-trust-m/optiga-trust-m-1/optiga/comms/ifx_i2c/ifx_i2c_physical_layer.c ****                 if (IFX_I2C_STACK_SUCCESS == event)
 515://MAC/Home/Downloads/getstarted-optiga-trust-m/optiga-trust-m-1/optiga/comms/ifx_i2c/ifx_i2c_physical_layer.c ****                 {
 516://MAC/Home/Downloads/getstarted-optiga-trust-m/optiga-trust-m-1/optiga/comms/ifx_i2c/ifx_i2c_physical_layer.c ****                     p_ctx->pl.frame_state = PL_STATE_READY;
 517://MAC/Home/Downloads/getstarted-optiga-trust-m/optiga-trust-m-1/optiga/comms/ifx_i2c/ifx_i2c_physical_layer.c ****                 }
 518://MAC/Home/Downloads/getstarted-optiga-trust-m/optiga-trust-m-1/optiga/comms/ifx_i2c/ifx_i2c_physical_layer.c ****                 else
 519://MAC/Home/Downloads/getstarted-optiga-trust-m/optiga-trust-m-1/optiga/comms/ifx_i2c/ifx_i2c_physical_layer.c ****                 {
 520://MAC/Home/Downloads/getstarted-optiga-trust-m/optiga-trust-m-1/optiga/comms/ifx_i2c/ifx_i2c_physical_layer.c ****                     p_ctx->pl.frame_state = PL_STATE_UNINIT;
 521://MAC/Home/Downloads/getstarted-optiga-trust-m/optiga-trust-m-1/optiga/comms/ifx_i2c/ifx_i2c_physical_layer.c ****                 }
 522://MAC/Home/Downloads/getstarted-optiga-trust-m/optiga-trust-m-1/optiga/comms/ifx_i2c/ifx_i2c_physical_layer.c ****                 // Negotiation between master and slave is complete
 523://MAC/Home/Downloads/getstarted-optiga-trust-m/optiga-trust-m-1/optiga/comms/ifx_i2c/ifx_i2c_physical_layer.c ****                 p_ctx->pl.upper_layer_event_handler(p_ctx,event, p_buffer, buffer_len);
 524://MAC/Home/Downloads/getstarted-optiga-trust-m/optiga-trust-m-1/optiga/comms/ifx_i2c/ifx_i2c_physical_layer.c ****             }
 525://MAC/Home/Downloads/getstarted-optiga-trust-m/optiga-trust-m-1/optiga/comms/ifx_i2c/ifx_i2c_physical_layer.c ****             break;
 526://MAC/Home/Downloads/getstarted-optiga-trust-m/optiga-trust-m-1/optiga/comms/ifx_i2c/ifx_i2c_physical_layer.c ****             default:
 527://MAC/Home/Downloads/getstarted-optiga-trust-m/optiga-trust-m-1/optiga/comms/ifx_i2c/ifx_i2c_physical_layer.c ****                 break;
 528://MAC/Home/Downloads/getstarted-optiga-trust-m/optiga-trust-m-1/optiga/comms/ifx_i2c/ifx_i2c_physical_layer.c ****         }
 529://MAC/Home/Downloads/getstarted-optiga-trust-m/optiga-trust-m-1/optiga/comms/ifx_i2c/ifx_i2c_physical_layer.c ****     } while (FALSE != continue_negotiation);
 530://MAC/Home/Downloads/getstarted-optiga-trust-m/optiga-trust-m-1/optiga/comms/ifx_i2c/ifx_i2c_physical_layer.c **** }
 531://MAC/Home/Downloads/getstarted-optiga-trust-m/optiga-trust-m-1/optiga/comms/ifx_i2c/ifx_i2c_physical_layer.c **** 
 532://MAC/Home/Downloads/getstarted-optiga-trust-m/optiga-trust-m-1/optiga/comms/ifx_i2c/ifx_i2c_physical_layer.c **** 
 533://MAC/Home/Downloads/getstarted-optiga-trust-m/optiga-trust-m-1/optiga/comms/ifx_i2c/ifx_i2c_physical_layer.c **** _STATIC_H void ifx_i2c_pl_frame_event_handler(ifx_i2c_context_t * p_ctx, optiga_lib_status_t event)
 534://MAC/Home/Downloads/getstarted-optiga-trust-m/optiga-trust-m-1/optiga/comms/ifx_i2c/ifx_i2c_physical_layer.c **** {
 535://MAC/Home/Downloads/getstarted-optiga-trust-m/optiga-trust-m-1/optiga/comms/ifx_i2c/ifx_i2c_physical_layer.c ****     uint32_t time_stamp_diff;
 536://MAC/Home/Downloads/getstarted-optiga-trust-m/optiga-trust-m-1/optiga/comms/ifx_i2c/ifx_i2c_physical_layer.c ****     uint32_t current_time;
 537://MAC/Home/Downloads/getstarted-optiga-trust-m/optiga-trust-m-1/optiga/comms/ifx_i2c/ifx_i2c_physical_layer.c ****     uint16_t frame_size;
 538://MAC/Home/Downloads/getstarted-optiga-trust-m/optiga-trust-m-1/optiga/comms/ifx_i2c/ifx_i2c_physical_layer.c ****     if (IFX_I2C_STACK_SUCCESS != event)
 539://MAC/Home/Downloads/getstarted-optiga-trust-m/optiga-trust-m-1/optiga/comms/ifx_i2c/ifx_i2c_physical_layer.c ****     {
 540://MAC/Home/Downloads/getstarted-optiga-trust-m/optiga-trust-m-1/optiga/comms/ifx_i2c/ifx_i2c_physical_layer.c ****         p_ctx->pl.frame_state = PL_STATE_READY;
 541://MAC/Home/Downloads/getstarted-optiga-trust-m/optiga-trust-m-1/optiga/comms/ifx_i2c/ifx_i2c_physical_layer.c ****         // I2C read or write failed, report to upper layer
 542://MAC/Home/Downloads/getstarted-optiga-trust-m/optiga-trust-m-1/optiga/comms/ifx_i2c/ifx_i2c_physical_layer.c ****         p_ctx->pl.upper_layer_event_handler(p_ctx, event, 0, 0);
 543://MAC/Home/Downloads/getstarted-optiga-trust-m/optiga-trust-m-1/optiga/comms/ifx_i2c/ifx_i2c_physical_layer.c ****     }
 544://MAC/Home/Downloads/getstarted-optiga-trust-m/optiga-trust-m-1/optiga/comms/ifx_i2c/ifx_i2c_physical_layer.c ****     else
 545://MAC/Home/Downloads/getstarted-optiga-trust-m/optiga-trust-m-1/optiga/comms/ifx_i2c/ifx_i2c_physical_layer.c ****     {
 546://MAC/Home/Downloads/getstarted-optiga-trust-m/optiga-trust-m-1/optiga/comms/ifx_i2c/ifx_i2c_physical_layer.c ****         switch (p_ctx->pl.frame_state)
 547://MAC/Home/Downloads/getstarted-optiga-trust-m/optiga-trust-m-1/optiga/comms/ifx_i2c/ifx_i2c_physical_layer.c ****         {
 548://MAC/Home/Downloads/getstarted-optiga-trust-m/optiga-trust-m-1/optiga/comms/ifx_i2c/ifx_i2c_physical_layer.c ****             // Perform soft reset
 549://MAC/Home/Downloads/getstarted-optiga-trust-m/optiga-trust-m-1/optiga/comms/ifx_i2c/ifx_i2c_physical_layer.c ****             case PL_STATE_SOFT_RESET:
 550://MAC/Home/Downloads/getstarted-optiga-trust-m/optiga-trust-m-1/optiga/comms/ifx_i2c/ifx_i2c_physical_layer.c ****             {
 551://MAC/Home/Downloads/getstarted-optiga-trust-m/optiga-trust-m-1/optiga/comms/ifx_i2c/ifx_i2c_physical_layer.c ****                 ifx_i2c_pl_soft_reset(p_ctx);
 552://MAC/Home/Downloads/getstarted-optiga-trust-m/optiga-trust-m-1/optiga/comms/ifx_i2c/ifx_i2c_physical_layer.c ****             }
 553://MAC/Home/Downloads/getstarted-optiga-trust-m/optiga-trust-m-1/optiga/comms/ifx_i2c/ifx_i2c_physical_layer.c ****             break;
 554://MAC/Home/Downloads/getstarted-optiga-trust-m/optiga-trust-m-1/optiga/comms/ifx_i2c/ifx_i2c_physical_layer.c ****             // Negotiate frame and frequency with slave
 555://MAC/Home/Downloads/getstarted-optiga-trust-m/optiga-trust-m-1/optiga/comms/ifx_i2c/ifx_i2c_physical_layer.c ****             case PL_STATE_INIT:
 556://MAC/Home/Downloads/getstarted-optiga-trust-m/optiga-trust-m-1/optiga/comms/ifx_i2c/ifx_i2c_physical_layer.c ****             {
 557://MAC/Home/Downloads/getstarted-optiga-trust-m/optiga-trust-m-1/optiga/comms/ifx_i2c/ifx_i2c_physical_layer.c ****                 ifx_i2c_pl_negotiation_event_handler(p_ctx);
 558://MAC/Home/Downloads/getstarted-optiga-trust-m/optiga-trust-m-1/optiga/comms/ifx_i2c/ifx_i2c_physical_layer.c ****             }
 559://MAC/Home/Downloads/getstarted-optiga-trust-m/optiga-trust-m-1/optiga/comms/ifx_i2c/ifx_i2c_physical_layer.c ****             break;
 560://MAC/Home/Downloads/getstarted-optiga-trust-m/optiga-trust-m-1/optiga/comms/ifx_i2c/ifx_i2c_physical_layer.c ****             // Check status of slave data
 561://MAC/Home/Downloads/getstarted-optiga-trust-m/optiga-trust-m-1/optiga/comms/ifx_i2c/ifx_i2c_physical_layer.c ****             case PL_STATE_READY:
 562://MAC/Home/Downloads/getstarted-optiga-trust-m/optiga-trust-m-1/optiga/comms/ifx_i2c/ifx_i2c_physical_layer.c ****             {
 563://MAC/Home/Downloads/getstarted-optiga-trust-m/optiga-trust-m-1/optiga/comms/ifx_i2c/ifx_i2c_physical_layer.c ****                 // Start polling status register
 564://MAC/Home/Downloads/getstarted-optiga-trust-m/optiga-trust-m-1/optiga/comms/ifx_i2c/ifx_i2c_physical_layer.c ****                 p_ctx->pl.frame_state            = PL_STATE_DATA_AVAILABLE;
 565://MAC/Home/Downloads/getstarted-optiga-trust-m/optiga-trust-m-1/optiga/comms/ifx_i2c/ifx_i2c_physical_layer.c ****                 if (PL_ACTION_READ_FRAME == p_ctx->pl.frame_action)
 566://MAC/Home/Downloads/getstarted-optiga-trust-m/optiga-trust-m-1/optiga/comms/ifx_i2c/ifx_i2c_physical_layer.c ****                 {
 567://MAC/Home/Downloads/getstarted-optiga-trust-m/optiga-trust-m-1/optiga/comms/ifx_i2c/ifx_i2c_physical_layer.c ****                     ifx_i2c_pl_read_register(p_ctx, PL_REG_I2C_STATE, PL_REG_LEN_I2C_STATE);
 568://MAC/Home/Downloads/getstarted-optiga-trust-m/optiga-trust-m-1/optiga/comms/ifx_i2c/ifx_i2c_physical_layer.c ****                     break;
 569://MAC/Home/Downloads/getstarted-optiga-trust-m/optiga-trust-m-1/optiga/comms/ifx_i2c/ifx_i2c_physical_layer.c ****                 }
 570://MAC/Home/Downloads/getstarted-optiga-trust-m/optiga-trust-m-1/optiga/comms/ifx_i2c/ifx_i2c_physical_layer.c ****             }
 571://MAC/Home/Downloads/getstarted-optiga-trust-m/optiga-trust-m-1/optiga/comms/ifx_i2c/ifx_i2c_physical_layer.c ****             //lint -fallthrough "For write frame, polling of i2c status register is skipped"
 572://MAC/Home/Downloads/getstarted-optiga-trust-m/optiga-trust-m-1/optiga/comms/ifx_i2c/ifx_i2c_physical_layer.c ****             // Do read/write frame
 573://MAC/Home/Downloads/getstarted-optiga-trust-m/optiga-trust-m-1/optiga/comms/ifx_i2c/ifx_i2c_physical_layer.c ****             case PL_STATE_DATA_AVAILABLE:
 574://MAC/Home/Downloads/getstarted-optiga-trust-m/optiga-trust-m-1/optiga/comms/ifx_i2c/ifx_i2c_physical_layer.c ****             {
 575://MAC/Home/Downloads/getstarted-optiga-trust-m/optiga-trust-m-1/optiga/comms/ifx_i2c/ifx_i2c_physical_layer.c ****                 // Read frame, if response is ready. Ignore busy flag
 576://MAC/Home/Downloads/getstarted-optiga-trust-m/optiga-trust-m-1/optiga/comms/ifx_i2c/ifx_i2c_physical_layer.c ****                 if ((PL_ACTION_READ_FRAME == p_ctx->pl.frame_action)
 577://MAC/Home/Downloads/getstarted-optiga-trust-m/optiga-trust-m-1/optiga/comms/ifx_i2c/ifx_i2c_physical_layer.c ****                 && (0 != (p_ctx->pl.buffer[0] & PL_REG_I2C_STATE_RESPONSE_READY)))
 578://MAC/Home/Downloads/getstarted-optiga-trust-m/optiga-trust-m-1/optiga/comms/ifx_i2c/ifx_i2c_physical_layer.c ****                 {
 579://MAC/Home/Downloads/getstarted-optiga-trust-m/optiga-trust-m-1/optiga/comms/ifx_i2c/ifx_i2c_physical_layer.c ****                     frame_size = (p_ctx->pl.buffer[2] << 8) | p_ctx->pl.buffer[3];
 580://MAC/Home/Downloads/getstarted-optiga-trust-m/optiga-trust-m-1/optiga/comms/ifx_i2c/ifx_i2c_physical_layer.c ****                     if ((frame_size > 0) && (frame_size <= p_ctx->frame_size))
 581://MAC/Home/Downloads/getstarted-optiga-trust-m/optiga-trust-m-1/optiga/comms/ifx_i2c/ifx_i2c_physical_layer.c ****                     {
 582://MAC/Home/Downloads/getstarted-optiga-trust-m/optiga-trust-m-1/optiga/comms/ifx_i2c/ifx_i2c_physical_layer.c ****                         p_ctx->pl.frame_state = PL_STATE_RXTX;
 583://MAC/Home/Downloads/getstarted-optiga-trust-m/optiga-trust-m-1/optiga/comms/ifx_i2c/ifx_i2c_physical_layer.c ****                         ifx_i2c_pl_read_register(p_ctx,PL_REG_DATA, frame_size);
 584://MAC/Home/Downloads/getstarted-optiga-trust-m/optiga-trust-m-1/optiga/comms/ifx_i2c/ifx_i2c_physical_layer.c ****                     }
 585://MAC/Home/Downloads/getstarted-optiga-trust-m/optiga-trust-m-1/optiga/comms/ifx_i2c/ifx_i2c_physical_layer.c ****                     else
 586://MAC/Home/Downloads/getstarted-optiga-trust-m/optiga-trust-m-1/optiga/comms/ifx_i2c/ifx_i2c_physical_layer.c ****                     {
 587://MAC/Home/Downloads/getstarted-optiga-trust-m/optiga-trust-m-1/optiga/comms/ifx_i2c/ifx_i2c_physical_layer.c ****                         current_time = pal_os_timer_get_time_in_milliseconds();
 588://MAC/Home/Downloads/getstarted-optiga-trust-m/optiga-trust-m-1/optiga/comms/ifx_i2c/ifx_i2c_physical_layer.c ****                         time_stamp_diff = (current_time - p_ctx->dl.frame_start_time);
 589://MAC/Home/Downloads/getstarted-optiga-trust-m/optiga-trust-m-1/optiga/comms/ifx_i2c/ifx_i2c_physical_layer.c ****                         if (p_ctx->dl.frame_start_time > current_time)
 590://MAC/Home/Downloads/getstarted-optiga-trust-m/optiga-trust-m-1/optiga/comms/ifx_i2c/ifx_i2c_physical_layer.c ****                         {
 591://MAC/Home/Downloads/getstarted-optiga-trust-m/optiga-trust-m-1/optiga/comms/ifx_i2c/ifx_i2c_physical_layer.c ****                             time_stamp_diff = (0xFFFFFFFF + (current_time -
 592://MAC/Home/Downloads/getstarted-optiga-trust-m/optiga-trust-m-1/optiga/comms/ifx_i2c/ifx_i2c_physical_layer.c ****                                                p_ctx->dl.frame_start_time)) + 0x01;
 593://MAC/Home/Downloads/getstarted-optiga-trust-m/optiga-trust-m-1/optiga/comms/ifx_i2c/ifx_i2c_physical_layer.c ****                         }
 594://MAC/Home/Downloads/getstarted-optiga-trust-m/optiga-trust-m-1/optiga/comms/ifx_i2c/ifx_i2c_physical_layer.c ****                         // Continue polling STATUS register if retry limit is not reached
 595://MAC/Home/Downloads/getstarted-optiga-trust-m/optiga-trust-m-1/optiga/comms/ifx_i2c/ifx_i2c_physical_layer.c ****                         if (time_stamp_diff < p_ctx->dl.data_poll_timeout)
 596://MAC/Home/Downloads/getstarted-optiga-trust-m/optiga-trust-m-1/optiga/comms/ifx_i2c/ifx_i2c_physical_layer.c ****                         {
 597://MAC/Home/Downloads/getstarted-optiga-trust-m/optiga-trust-m-1/optiga/comms/ifx_i2c/ifx_i2c_physical_layer.c ****                             pal_os_event_register_callback_oneshot(p_ctx->pal_os_event_ctx,
 598://MAC/Home/Downloads/getstarted-optiga-trust-m/optiga-trust-m-1/optiga/comms/ifx_i2c/ifx_i2c_physical_layer.c ****                                                                     ifx_i2c_pl_status_poll_callback
 599://MAC/Home/Downloads/getstarted-optiga-trust-m/optiga-trust-m-1/optiga/comms/ifx_i2c/ifx_i2c_physical_layer.c ****                                                                    (void * )p_ctx,
 600://MAC/Home/Downloads/getstarted-optiga-trust-m/optiga-trust-m-1/optiga/comms/ifx_i2c/ifx_i2c_physical_layer.c ****                                                                    PL_DATA_POLLING_INVERVAL_US);
 601://MAC/Home/Downloads/getstarted-optiga-trust-m/optiga-trust-m-1/optiga/comms/ifx_i2c/ifx_i2c_physical_layer.c ****                         }
 602://MAC/Home/Downloads/getstarted-optiga-trust-m/optiga-trust-m-1/optiga/comms/ifx_i2c/ifx_i2c_physical_layer.c ****                         else
 603://MAC/Home/Downloads/getstarted-optiga-trust-m/optiga-trust-m-1/optiga/comms/ifx_i2c/ifx_i2c_physical_layer.c ****                         {
 604://MAC/Home/Downloads/getstarted-optiga-trust-m/optiga-trust-m-1/optiga/comms/ifx_i2c/ifx_i2c_physical_layer.c ****                             p_ctx->pl.frame_state = PL_STATE_READY;
 605://MAC/Home/Downloads/getstarted-optiga-trust-m/optiga-trust-m-1/optiga/comms/ifx_i2c/ifx_i2c_physical_layer.c ****                             p_ctx->pl.upper_layer_event_handler(p_ctx, IFX_I2C_STACK_ERROR, 0, 0);
 606://MAC/Home/Downloads/getstarted-optiga-trust-m/optiga-trust-m-1/optiga/comms/ifx_i2c/ifx_i2c_physical_layer.c ****                         }
 607://MAC/Home/Downloads/getstarted-optiga-trust-m/optiga-trust-m-1/optiga/comms/ifx_i2c/ifx_i2c_physical_layer.c ****                     }
 608://MAC/Home/Downloads/getstarted-optiga-trust-m/optiga-trust-m-1/optiga/comms/ifx_i2c/ifx_i2c_physical_layer.c ****                 }
 609://MAC/Home/Downloads/getstarted-optiga-trust-m/optiga-trust-m-1/optiga/comms/ifx_i2c/ifx_i2c_physical_layer.c ****                 // Write frame is slave is not busy
 610://MAC/Home/Downloads/getstarted-optiga-trust-m/optiga-trust-m-1/optiga/comms/ifx_i2c/ifx_i2c_physical_layer.c ****                 else if (PL_ACTION_WRITE_FRAME == p_ctx->pl.frame_action)
 611://MAC/Home/Downloads/getstarted-optiga-trust-m/optiga-trust-m-1/optiga/comms/ifx_i2c/ifx_i2c_physical_layer.c ****                 {
 612://MAC/Home/Downloads/getstarted-optiga-trust-m/optiga-trust-m-1/optiga/comms/ifx_i2c/ifx_i2c_physical_layer.c ****                     // Write frame if device is not busy, otherwise wait and poll STATUS again late
 613://MAC/Home/Downloads/getstarted-optiga-trust-m/optiga-trust-m-1/optiga/comms/ifx_i2c/ifx_i2c_physical_layer.c ****                     p_ctx->pl.frame_state = PL_STATE_RXTX;
 614://MAC/Home/Downloads/getstarted-optiga-trust-m/optiga-trust-m-1/optiga/comms/ifx_i2c/ifx_i2c_physical_layer.c ****                     ifx_i2c_pl_write_register(p_ctx,
 615://MAC/Home/Downloads/getstarted-optiga-trust-m/optiga-trust-m-1/optiga/comms/ifx_i2c/ifx_i2c_physical_layer.c ****                                               PL_REG_DATA,
 616://MAC/Home/Downloads/getstarted-optiga-trust-m/optiga-trust-m-1/optiga/comms/ifx_i2c/ifx_i2c_physical_layer.c ****                                               p_ctx->pl.tx_frame_len,
 617://MAC/Home/Downloads/getstarted-optiga-trust-m/optiga-trust-m-1/optiga/comms/ifx_i2c/ifx_i2c_physical_layer.c ****                                               (uint8_t * )p_ctx->pl.p_tx_frame);
 618://MAC/Home/Downloads/getstarted-optiga-trust-m/optiga-trust-m-1/optiga/comms/ifx_i2c/ifx_i2c_physical_layer.c ****                 }
 619://MAC/Home/Downloads/getstarted-optiga-trust-m/optiga-trust-m-1/optiga/comms/ifx_i2c/ifx_i2c_physical_layer.c ****                 // Continue checking the slave status register
 620://MAC/Home/Downloads/getstarted-optiga-trust-m/optiga-trust-m-1/optiga/comms/ifx_i2c/ifx_i2c_physical_layer.c ****                 else
 621://MAC/Home/Downloads/getstarted-optiga-trust-m/optiga-trust-m-1/optiga/comms/ifx_i2c/ifx_i2c_physical_layer.c ****                 {
 622://MAC/Home/Downloads/getstarted-optiga-trust-m/optiga-trust-m-1/optiga/comms/ifx_i2c/ifx_i2c_physical_layer.c ****                     current_time = pal_os_timer_get_time_in_milliseconds();
 623://MAC/Home/Downloads/getstarted-optiga-trust-m/optiga-trust-m-1/optiga/comms/ifx_i2c/ifx_i2c_physical_layer.c ****                     time_stamp_diff = (current_time - p_ctx->dl.frame_start_time);
 624://MAC/Home/Downloads/getstarted-optiga-trust-m/optiga-trust-m-1/optiga/comms/ifx_i2c/ifx_i2c_physical_layer.c ****                     if (p_ctx->dl.frame_start_time > current_time)
 625://MAC/Home/Downloads/getstarted-optiga-trust-m/optiga-trust-m-1/optiga/comms/ifx_i2c/ifx_i2c_physical_layer.c ****                     {
 626://MAC/Home/Downloads/getstarted-optiga-trust-m/optiga-trust-m-1/optiga/comms/ifx_i2c/ifx_i2c_physical_layer.c ****                         time_stamp_diff = (0xFFFFFFFF + (current_time -
 627://MAC/Home/Downloads/getstarted-optiga-trust-m/optiga-trust-m-1/optiga/comms/ifx_i2c/ifx_i2c_physical_layer.c ****                                            p_ctx->dl.frame_start_time)) + 0x01;
 628://MAC/Home/Downloads/getstarted-optiga-trust-m/optiga-trust-m-1/optiga/comms/ifx_i2c/ifx_i2c_physical_layer.c ****                     }
 629://MAC/Home/Downloads/getstarted-optiga-trust-m/optiga-trust-m-1/optiga/comms/ifx_i2c/ifx_i2c_physical_layer.c ****                     // Continue polling STATUS register if retry limit is not reached
 630://MAC/Home/Downloads/getstarted-optiga-trust-m/optiga-trust-m-1/optiga/comms/ifx_i2c/ifx_i2c_physical_layer.c ****                     if (time_stamp_diff < p_ctx->dl.data_poll_timeout)
 631://MAC/Home/Downloads/getstarted-optiga-trust-m/optiga-trust-m-1/optiga/comms/ifx_i2c/ifx_i2c_physical_layer.c ****                     {
 632://MAC/Home/Downloads/getstarted-optiga-trust-m/optiga-trust-m-1/optiga/comms/ifx_i2c/ifx_i2c_physical_layer.c ****                         pal_os_event_register_callback_oneshot(p_ctx->pal_os_event_ctx,
 633://MAC/Home/Downloads/getstarted-optiga-trust-m/optiga-trust-m-1/optiga/comms/ifx_i2c/ifx_i2c_physical_layer.c ****                                                                ifx_i2c_pl_status_poll_callback,
 634://MAC/Home/Downloads/getstarted-optiga-trust-m/optiga-trust-m-1/optiga/comms/ifx_i2c/ifx_i2c_physical_layer.c ****                                                                (void * )p_ctx,
 635://MAC/Home/Downloads/getstarted-optiga-trust-m/optiga-trust-m-1/optiga/comms/ifx_i2c/ifx_i2c_physical_layer.c ****                                                                PL_DATA_POLLING_INVERVAL_US);
 636://MAC/Home/Downloads/getstarted-optiga-trust-m/optiga-trust-m-1/optiga/comms/ifx_i2c/ifx_i2c_physical_layer.c ****                     }
 637://MAC/Home/Downloads/getstarted-optiga-trust-m/optiga-trust-m-1/optiga/comms/ifx_i2c/ifx_i2c_physical_layer.c ****                     else
 638://MAC/Home/Downloads/getstarted-optiga-trust-m/optiga-trust-m-1/optiga/comms/ifx_i2c/ifx_i2c_physical_layer.c ****                     {
 639://MAC/Home/Downloads/getstarted-optiga-trust-m/optiga-trust-m-1/optiga/comms/ifx_i2c/ifx_i2c_physical_layer.c ****                         p_ctx->pl.frame_state = PL_STATE_READY;
 640://MAC/Home/Downloads/getstarted-optiga-trust-m/optiga-trust-m-1/optiga/comms/ifx_i2c/ifx_i2c_physical_layer.c ****                         p_ctx->pl.upper_layer_event_handler(p_ctx, IFX_I2C_STACK_ERROR, 0, 0);
 641://MAC/Home/Downloads/getstarted-optiga-trust-m/optiga-trust-m-1/optiga/comms/ifx_i2c/ifx_i2c_physical_layer.c ****                     }
 642://MAC/Home/Downloads/getstarted-optiga-trust-m/optiga-trust-m-1/optiga/comms/ifx_i2c/ifx_i2c_physical_layer.c ****                 }
 643://MAC/Home/Downloads/getstarted-optiga-trust-m/optiga-trust-m-1/optiga/comms/ifx_i2c/ifx_i2c_physical_layer.c ****             }
 644://MAC/Home/Downloads/getstarted-optiga-trust-m/optiga-trust-m-1/optiga/comms/ifx_i2c/ifx_i2c_physical_layer.c ****             break;
 645://MAC/Home/Downloads/getstarted-optiga-trust-m/optiga-trust-m-1/optiga/comms/ifx_i2c/ifx_i2c_physical_layer.c ****             // Frame reading is complete
 646://MAC/Home/Downloads/getstarted-optiga-trust-m/optiga-trust-m-1/optiga/comms/ifx_i2c/ifx_i2c_physical_layer.c ****             case PL_STATE_RXTX:
 647://MAC/Home/Downloads/getstarted-optiga-trust-m/optiga-trust-m-1/optiga/comms/ifx_i2c/ifx_i2c_physical_layer.c ****             {
 648://MAC/Home/Downloads/getstarted-optiga-trust-m/optiga-trust-m-1/optiga/comms/ifx_i2c/ifx_i2c_physical_layer.c ****                 // Writing/reading of frame to/from DATA register complete
 649://MAC/Home/Downloads/getstarted-optiga-trust-m/optiga-trust-m-1/optiga/comms/ifx_i2c/ifx_i2c_physical_layer.c ****                 p_ctx->pl.frame_state = PL_STATE_READY;
 650://MAC/Home/Downloads/getstarted-optiga-trust-m/optiga-trust-m-1/optiga/comms/ifx_i2c/ifx_i2c_physical_layer.c ****                 p_ctx->pl.upper_layer_event_handler(p_ctx,IFX_I2C_STACK_SUCCESS,
 651://MAC/Home/Downloads/getstarted-optiga-trust-m/optiga-trust-m-1/optiga/comms/ifx_i2c/ifx_i2c_physical_layer.c ****                                                     p_ctx->pl.buffer,
 652://MAC/Home/Downloads/getstarted-optiga-trust-m/optiga-trust-m-1/optiga/comms/ifx_i2c/ifx_i2c_physical_layer.c ****                                                     p_ctx->pl.buffer_rx_len);
 653://MAC/Home/Downloads/getstarted-optiga-trust-m/optiga-trust-m-1/optiga/comms/ifx_i2c/ifx_i2c_physical_layer.c ****             }
 654://MAC/Home/Downloads/getstarted-optiga-trust-m/optiga-trust-m-1/optiga/comms/ifx_i2c/ifx_i2c_physical_layer.c ****             break;
 655://MAC/Home/Downloads/getstarted-optiga-trust-m/optiga-trust-m-1/optiga/comms/ifx_i2c/ifx_i2c_physical_layer.c ****             default:
 656://MAC/Home/Downloads/getstarted-optiga-trust-m/optiga-trust-m-1/optiga/comms/ifx_i2c/ifx_i2c_physical_layer.c ****             {
 657://MAC/Home/Downloads/getstarted-optiga-trust-m/optiga-trust-m-1/optiga/comms/ifx_i2c/ifx_i2c_physical_layer.c ****                 // Default condition occurred
 658://MAC/Home/Downloads/getstarted-optiga-trust-m/optiga-trust-m-1/optiga/comms/ifx_i2c/ifx_i2c_physical_layer.c ****                 p_ctx->pl.frame_state = PL_STATE_INIT;
 659://MAC/Home/Downloads/getstarted-optiga-trust-m/optiga-trust-m-1/optiga/comms/ifx_i2c/ifx_i2c_physical_layer.c ****                 p_ctx->pl.upper_layer_event_handler(p_ctx, IFX_I2C_STACK_ERROR, 0, 0);
 660://MAC/Home/Downloads/getstarted-optiga-trust-m/optiga-trust-m-1/optiga/comms/ifx_i2c/ifx_i2c_physical_layer.c ****             }
 661://MAC/Home/Downloads/getstarted-optiga-trust-m/optiga-trust-m-1/optiga/comms/ifx_i2c/ifx_i2c_physical_layer.c ****             break;
 662://MAC/Home/Downloads/getstarted-optiga-trust-m/optiga-trust-m-1/optiga/comms/ifx_i2c/ifx_i2c_physical_layer.c ****         }
 663://MAC/Home/Downloads/getstarted-optiga-trust-m/optiga-trust-m-1/optiga/comms/ifx_i2c/ifx_i2c_physical_layer.c ****     }
 664://MAC/Home/Downloads/getstarted-optiga-trust-m/optiga-trust-m-1/optiga/comms/ifx_i2c/ifx_i2c_physical_layer.c **** }
 665://MAC/Home/Downloads/getstarted-optiga-trust-m/optiga-trust-m-1/optiga/comms/ifx_i2c/ifx_i2c_physical_layer.c **** 
 666://MAC/Home/Downloads/getstarted-optiga-trust-m/optiga-trust-m-1/optiga/comms/ifx_i2c/ifx_i2c_physical_layer.c **** _STATIC_H void ifx_i2c_pal_poll_callback(void * p_ctx)
 667://MAC/Home/Downloads/getstarted-optiga-trust-m/optiga-trust-m-1/optiga/comms/ifx_i2c/ifx_i2c_physical_layer.c **** {
 668://MAC/Home/Downloads/getstarted-optiga-trust-m/optiga-trust-m-1/optiga/comms/ifx_i2c/ifx_i2c_physical_layer.c ****     ifx_i2c_context_t * p_local_ctx = (ifx_i2c_context_t * )p_ctx;
 669://MAC/Home/Downloads/getstarted-optiga-trust-m/optiga-trust-m-1/optiga/comms/ifx_i2c/ifx_i2c_physical_layer.c ****     if (PL_I2C_CMD_WRITE == p_local_ctx->pl.i2c_cmd)
 670://MAC/Home/Downloads/getstarted-optiga-trust-m/optiga-trust-m-1/optiga/comms/ifx_i2c/ifx_i2c_physical_layer.c ****     {
 671://MAC/Home/Downloads/getstarted-optiga-trust-m/optiga-trust-m-1/optiga/comms/ifx_i2c/ifx_i2c_physical_layer.c ****         LOG_PL("[IFX-PL]: Poll Timer elapsed -> Restart TX\n");
 672://MAC/Home/Downloads/getstarted-optiga-trust-m/optiga-trust-m-1/optiga/comms/ifx_i2c/ifx_i2c_physical_layer.c ****         //lint --e{534} suppress "This is the last statement of asynchronous function hence return 
 673://MAC/Home/Downloads/getstarted-optiga-trust-m/optiga-trust-m-1/optiga/comms/ifx_i2c/ifx_i2c_physical_layer.c ****         pal_i2c_write(p_local_ctx->p_pal_i2c_ctx, p_local_ctx->pl.buffer, p_local_ctx->pl.buffer_tx
 674://MAC/Home/Downloads/getstarted-optiga-trust-m/optiga-trust-m-1/optiga/comms/ifx_i2c/ifx_i2c_physical_layer.c ****     }
 675://MAC/Home/Downloads/getstarted-optiga-trust-m/optiga-trust-m-1/optiga/comms/ifx_i2c/ifx_i2c_physical_layer.c ****     else if (PL_I2C_CMD_READ == p_local_ctx->pl.i2c_cmd)
 676://MAC/Home/Downloads/getstarted-optiga-trust-m/optiga-trust-m-1/optiga/comms/ifx_i2c/ifx_i2c_physical_layer.c ****     {
 677://MAC/Home/Downloads/getstarted-optiga-trust-m/optiga-trust-m-1/optiga/comms/ifx_i2c/ifx_i2c_physical_layer.c ****         LOG_PL("[IFX-PL]: Poll Timer elapsed  -> Restart Read Register -> Start TX\n");
 678://MAC/Home/Downloads/getstarted-optiga-trust-m/optiga-trust-m-1/optiga/comms/ifx_i2c/ifx_i2c_physical_layer.c ****         //lint --e{534} suppress "This is the last statement of asynchronous function hence return 
 679://MAC/Home/Downloads/getstarted-optiga-trust-m/optiga-trust-m-1/optiga/comms/ifx_i2c/ifx_i2c_physical_layer.c ****         pal_i2c_read(p_local_ctx->p_pal_i2c_ctx, p_local_ctx->pl.buffer, p_local_ctx->pl.buffer_rx_
 680://MAC/Home/Downloads/getstarted-optiga-trust-m/optiga-trust-m-1/optiga/comms/ifx_i2c/ifx_i2c_physical_layer.c ****     }
 681://MAC/Home/Downloads/getstarted-optiga-trust-m/optiga-trust-m-1/optiga/comms/ifx_i2c/ifx_i2c_physical_layer.c **** }
 682://MAC/Home/Downloads/getstarted-optiga-trust-m/optiga-trust-m-1/optiga/comms/ifx_i2c/ifx_i2c_physical_layer.c **** 
 683://MAC/Home/Downloads/getstarted-optiga-trust-m/optiga-trust-m-1/optiga/comms/ifx_i2c/ifx_i2c_physical_layer.c **** 
 684://MAC/Home/Downloads/getstarted-optiga-trust-m/optiga-trust-m-1/optiga/comms/ifx_i2c/ifx_i2c_physical_layer.c **** _STATIC_H void ifx_i2c_pl_guard_time_callback(void * p_ctx)
 685://MAC/Home/Downloads/getstarted-optiga-trust-m/optiga-trust-m-1/optiga/comms/ifx_i2c/ifx_i2c_physical_layer.c **** {
 686://MAC/Home/Downloads/getstarted-optiga-trust-m/optiga-trust-m-1/optiga/comms/ifx_i2c/ifx_i2c_physical_layer.c ****     ifx_i2c_context_t * p_local_ctx = (ifx_i2c_context_t * )p_ctx;
 687://MAC/Home/Downloads/getstarted-optiga-trust-m/optiga-trust-m-1/optiga/comms/ifx_i2c/ifx_i2c_physical_layer.c ****     if (PL_ACTION_READ_REGISTER == p_local_ctx->pl.register_action)
 688://MAC/Home/Downloads/getstarted-optiga-trust-m/optiga-trust-m-1/optiga/comms/ifx_i2c/ifx_i2c_physical_layer.c ****     {
 689://MAC/Home/Downloads/getstarted-optiga-trust-m/optiga-trust-m-1/optiga/comms/ifx_i2c/ifx_i2c_physical_layer.c ****         if (PL_I2C_CMD_WRITE == p_local_ctx->pl.i2c_cmd)
 690://MAC/Home/Downloads/getstarted-optiga-trust-m/optiga-trust-m-1/optiga/comms/ifx_i2c/ifx_i2c_physical_layer.c ****         {
 691://MAC/Home/Downloads/getstarted-optiga-trust-m/optiga-trust-m-1/optiga/comms/ifx_i2c/ifx_i2c_physical_layer.c ****             LOG_PL("[IFX-PL]: GT done-> Start RX\n");
 692://MAC/Home/Downloads/getstarted-optiga-trust-m/optiga-trust-m-1/optiga/comms/ifx_i2c/ifx_i2c_physical_layer.c ****             p_local_ctx->pl.i2c_cmd = PL_I2C_CMD_READ;
 693://MAC/Home/Downloads/getstarted-optiga-trust-m/optiga-trust-m-1/optiga/comms/ifx_i2c/ifx_i2c_physical_layer.c ****             //lint --e{534} suppress "This is the last statement of asynchronous function hence ret
 694://MAC/Home/Downloads/getstarted-optiga-trust-m/optiga-trust-m-1/optiga/comms/ifx_i2c/ifx_i2c_physical_layer.c ****             pal_i2c_read(p_local_ctx->p_pal_i2c_ctx, p_local_ctx->pl.buffer, p_local_ctx->pl.buffer
 695://MAC/Home/Downloads/getstarted-optiga-trust-m/optiga-trust-m-1/optiga/comms/ifx_i2c/ifx_i2c_physical_layer.c ****         }
 696://MAC/Home/Downloads/getstarted-optiga-trust-m/optiga-trust-m-1/optiga/comms/ifx_i2c/ifx_i2c_physical_layer.c ****         else if (PL_I2C_CMD_READ == p_local_ctx->pl.i2c_cmd)
 697://MAC/Home/Downloads/getstarted-optiga-trust-m/optiga-trust-m-1/optiga/comms/ifx_i2c/ifx_i2c_physical_layer.c ****         {
 698://MAC/Home/Downloads/getstarted-optiga-trust-m/optiga-trust-m-1/optiga/comms/ifx_i2c/ifx_i2c_physical_layer.c ****             LOG_PL("[IFX-PL]: GT done -> REG is read\n");
 699://MAC/Home/Downloads/getstarted-optiga-trust-m/optiga-trust-m-1/optiga/comms/ifx_i2c/ifx_i2c_physical_layer.c ****             ifx_i2c_pl_frame_event_handler(p_local_ctx,IFX_I2C_STACK_SUCCESS);
 700://MAC/Home/Downloads/getstarted-optiga-trust-m/optiga-trust-m-1/optiga/comms/ifx_i2c/ifx_i2c_physical_layer.c ****         }
 701://MAC/Home/Downloads/getstarted-optiga-trust-m/optiga-trust-m-1/optiga/comms/ifx_i2c/ifx_i2c_physical_layer.c ****     }
 702://MAC/Home/Downloads/getstarted-optiga-trust-m/optiga-trust-m-1/optiga/comms/ifx_i2c/ifx_i2c_physical_layer.c ****     else if (PL_ACTION_WRITE_REGISTER == p_local_ctx->pl.register_action)
 703://MAC/Home/Downloads/getstarted-optiga-trust-m/optiga-trust-m-1/optiga/comms/ifx_i2c/ifx_i2c_physical_layer.c ****     {
 704://MAC/Home/Downloads/getstarted-optiga-trust-m/optiga-trust-m-1/optiga/comms/ifx_i2c/ifx_i2c_physical_layer.c ****         LOG_PL("[IFX-PL]: GT done -> REG written\n");
 705://MAC/Home/Downloads/getstarted-optiga-trust-m/optiga-trust-m-1/optiga/comms/ifx_i2c/ifx_i2c_physical_layer.c ****         ifx_i2c_pl_frame_event_handler(p_local_ctx,IFX_I2C_STACK_SUCCESS);
 706://MAC/Home/Downloads/getstarted-optiga-trust-m/optiga-trust-m-1/optiga/comms/ifx_i2c/ifx_i2c_physical_layer.c ****     }
 707://MAC/Home/Downloads/getstarted-optiga-trust-m/optiga-trust-m-1/optiga/comms/ifx_i2c/ifx_i2c_physical_layer.c **** }
 708://MAC/Home/Downloads/getstarted-optiga-trust-m/optiga-trust-m-1/optiga/comms/ifx_i2c/ifx_i2c_physical_layer.c **** 
 709://MAC/Home/Downloads/getstarted-optiga-trust-m/optiga-trust-m-1/optiga/comms/ifx_i2c/ifx_i2c_physical_layer.c **** _STATIC_H void ifx_i2c_pl_pal_event_handler(void * p_ctx, optiga_lib_status_t event)
 710://MAC/Home/Downloads/getstarted-optiga-trust-m/optiga-trust-m-1/optiga/comms/ifx_i2c/ifx_i2c_physical_layer.c **** {
 711://MAC/Home/Downloads/getstarted-optiga-trust-m/optiga-trust-m-1/optiga/comms/ifx_i2c/ifx_i2c_physical_layer.c ****     ifx_i2c_context_t * p_local_ctx = (ifx_i2c_context_t * )p_ctx;
 712://MAC/Home/Downloads/getstarted-optiga-trust-m/optiga-trust-m-1/optiga/comms/ifx_i2c/ifx_i2c_physical_layer.c ****     switch (event)
 713://MAC/Home/Downloads/getstarted-optiga-trust-m/optiga-trust-m-1/optiga/comms/ifx_i2c/ifx_i2c_physical_layer.c ****     {
 714://MAC/Home/Downloads/getstarted-optiga-trust-m/optiga-trust-m-1/optiga/comms/ifx_i2c/ifx_i2c_physical_layer.c ****         case PAL_I2C_EVENT_ERROR:
 715://MAC/Home/Downloads/getstarted-optiga-trust-m/optiga-trust-m-1/optiga/comms/ifx_i2c/ifx_i2c_physical_layer.c ****         case PAL_I2C_EVENT_BUSY:
 716://MAC/Home/Downloads/getstarted-optiga-trust-m/optiga-trust-m-1/optiga/comms/ifx_i2c/ifx_i2c_physical_layer.c ****             // Error event usually occurs when the device is in sleep mode and needs time to wake u
 717://MAC/Home/Downloads/getstarted-optiga-trust-m/optiga-trust-m-1/optiga/comms/ifx_i2c/ifx_i2c_physical_layer.c ****             if (p_local_ctx->pl.retry_counter--)
 718://MAC/Home/Downloads/getstarted-optiga-trust-m/optiga-trust-m-1/optiga/comms/ifx_i2c/ifx_i2c_physical_layer.c ****             {
 719://MAC/Home/Downloads/getstarted-optiga-trust-m/optiga-trust-m-1/optiga/comms/ifx_i2c/ifx_i2c_physical_layer.c ****                 LOG_PL("[IFX-PL]: PAL Error -> Continue polling\n");
 720://MAC/Home/Downloads/getstarted-optiga-trust-m/optiga-trust-m-1/optiga/comms/ifx_i2c/ifx_i2c_physical_layer.c ****                 pal_os_event_register_callback_oneshot(p_local_ctx->pal_os_event_ctx,
 721://MAC/Home/Downloads/getstarted-optiga-trust-m/optiga-trust-m-1/optiga/comms/ifx_i2c/ifx_i2c_physical_layer.c ****                                                         ifx_i2c_pal_poll_callback, p_local_ctx, PL_
 722://MAC/Home/Downloads/getstarted-optiga-trust-m/optiga-trust-m-1/optiga/comms/ifx_i2c/ifx_i2c_physical_layer.c ****             }
 723://MAC/Home/Downloads/getstarted-optiga-trust-m/optiga-trust-m-1/optiga/comms/ifx_i2c/ifx_i2c_physical_layer.c ****             else
 724://MAC/Home/Downloads/getstarted-optiga-trust-m/optiga-trust-m-1/optiga/comms/ifx_i2c/ifx_i2c_physical_layer.c ****             {
 725://MAC/Home/Downloads/getstarted-optiga-trust-m/optiga-trust-m-1/optiga/comms/ifx_i2c/ifx_i2c_physical_layer.c ****                 LOG_PL("[IFX-PL]: PAL Error -> Stop\n");
 726://MAC/Home/Downloads/getstarted-optiga-trust-m/optiga-trust-m-1/optiga/comms/ifx_i2c/ifx_i2c_physical_layer.c ****                 ifx_i2c_pl_frame_event_handler(p_local_ctx, IFX_I2C_FATAL_ERROR);
 727://MAC/Home/Downloads/getstarted-optiga-trust-m/optiga-trust-m-1/optiga/comms/ifx_i2c/ifx_i2c_physical_layer.c ****             }
 728://MAC/Home/Downloads/getstarted-optiga-trust-m/optiga-trust-m-1/optiga/comms/ifx_i2c/ifx_i2c_physical_layer.c ****             break;
 729://MAC/Home/Downloads/getstarted-optiga-trust-m/optiga-trust-m-1/optiga/comms/ifx_i2c/ifx_i2c_physical_layer.c **** 
 730://MAC/Home/Downloads/getstarted-optiga-trust-m/optiga-trust-m-1/optiga/comms/ifx_i2c/ifx_i2c_physical_layer.c ****         case PAL_I2C_EVENT_SUCCESS:
 731://MAC/Home/Downloads/getstarted-optiga-trust-m/optiga-trust-m-1/optiga/comms/ifx_i2c/ifx_i2c_physical_layer.c ****             LOG_PL("[IFX-PL]: PAL Success -> Wait Guard Time\n");
 732://MAC/Home/Downloads/getstarted-optiga-trust-m/optiga-trust-m-1/optiga/comms/ifx_i2c/ifx_i2c_physical_layer.c ****             pal_os_event_register_callback_oneshot(p_local_ctx->pal_os_event_ctx, ifx_i2c_pl_guard_
 733://MAC/Home/Downloads/getstarted-optiga-trust-m/optiga-trust-m-1/optiga/comms/ifx_i2c/ifx_i2c_physical_layer.c ****                                                     p_local_ctx,PL_GUARD_TIME_INTERVAL_US);
 734://MAC/Home/Downloads/getstarted-optiga-trust-m/optiga-trust-m-1/optiga/comms/ifx_i2c/ifx_i2c_physical_layer.c ****             break;
 735://MAC/Home/Downloads/getstarted-optiga-trust-m/optiga-trust-m-1/optiga/comms/ifx_i2c/ifx_i2c_physical_layer.c ****         default:
 736://MAC/Home/Downloads/getstarted-optiga-trust-m/optiga-trust-m-1/optiga/comms/ifx_i2c/ifx_i2c_physical_layer.c ****             break;
 737://MAC/Home/Downloads/getstarted-optiga-trust-m/optiga-trust-m-1/optiga/comms/ifx_i2c/ifx_i2c_physical_layer.c ****     }
 738://MAC/Home/Downloads/getstarted-optiga-trust-m/optiga-trust-m-1/optiga/comms/ifx_i2c/ifx_i2c_physical_layer.c **** }
 739://MAC/Home/Downloads/getstarted-optiga-trust-m/optiga-trust-m-1/optiga/comms/ifx_i2c/ifx_i2c_physical_layer.c **** 
 740://MAC/Home/Downloads/getstarted-optiga-trust-m/optiga-trust-m-1/optiga/comms/ifx_i2c/ifx_i2c_physical_layer.c **** 
 741://MAC/Home/Downloads/getstarted-optiga-trust-m/optiga-trust-m-1/optiga/comms/ifx_i2c/ifx_i2c_physical_layer.c **** _STATIC_H void ifx_i2c_pl_soft_reset(ifx_i2c_context_t * p_ctx)
 742://MAC/Home/Downloads/getstarted-optiga-trust-m/optiga-trust-m-1/optiga/comms/ifx_i2c/ifx_i2c_physical_layer.c **** {
 743://MAC/Home/Downloads/getstarted-optiga-trust-m/optiga-trust-m-1/optiga/comms/ifx_i2c/ifx_i2c_physical_layer.c ****     uint8_t i2c_mode_value[2] = {0};
 744://MAC/Home/Downloads/getstarted-optiga-trust-m/optiga-trust-m-1/optiga/comms/ifx_i2c/ifx_i2c_physical_layer.c ****     switch (p_ctx->pl.request_soft_reset)
 745://MAC/Home/Downloads/getstarted-optiga-trust-m/optiga-trust-m-1/optiga/comms/ifx_i2c/ifx_i2c_physical_layer.c ****     {
 746://MAC/Home/Downloads/getstarted-optiga-trust-m/optiga-trust-m-1/optiga/comms/ifx_i2c/ifx_i2c_physical_layer.c ****         case PL_INIT_GET_STATUS_REG:
 747://MAC/Home/Downloads/getstarted-optiga-trust-m/optiga-trust-m-1/optiga/comms/ifx_i2c/ifx_i2c_physical_layer.c ****         {
 748://MAC/Home/Downloads/getstarted-optiga-trust-m/optiga-trust-m-1/optiga/comms/ifx_i2c/ifx_i2c_physical_layer.c ****             p_ctx->pl.request_soft_reset = PL_RESET_WRITE;
 749://MAC/Home/Downloads/getstarted-optiga-trust-m/optiga-trust-m-1/optiga/comms/ifx_i2c/ifx_i2c_physical_layer.c ****             //Read the status register to check if soft reset is supported
 750://MAC/Home/Downloads/getstarted-optiga-trust-m/optiga-trust-m-1/optiga/comms/ifx_i2c/ifx_i2c_physical_layer.c ****             ifx_i2c_pl_read_register(p_ctx, PL_REG_I2C_STATE, PL_REG_LEN_I2C_STATE);
 751://MAC/Home/Downloads/getstarted-optiga-trust-m/optiga-trust-m-1/optiga/comms/ifx_i2c/ifx_i2c_physical_layer.c ****             break;
 752://MAC/Home/Downloads/getstarted-optiga-trust-m/optiga-trust-m-1/optiga/comms/ifx_i2c/ifx_i2c_physical_layer.c ****         }
 753://MAC/Home/Downloads/getstarted-optiga-trust-m/optiga-trust-m-1/optiga/comms/ifx_i2c/ifx_i2c_physical_layer.c ****         case PL_RESET_WRITE:
 754://MAC/Home/Downloads/getstarted-optiga-trust-m/optiga-trust-m-1/optiga/comms/ifx_i2c/ifx_i2c_physical_layer.c ****         {
 755://MAC/Home/Downloads/getstarted-optiga-trust-m/optiga-trust-m-1/optiga/comms/ifx_i2c/ifx_i2c_physical_layer.c ****             //Mask for soft reset bit(5th bit) from the 1st byte of status register
 756://MAC/Home/Downloads/getstarted-optiga-trust-m/optiga-trust-m-1/optiga/comms/ifx_i2c/ifx_i2c_physical_layer.c ****             p_ctx->pl.buffer[0] &= PL_REG_I2C_STATE_SOFT_RESET;
 757://MAC/Home/Downloads/getstarted-optiga-trust-m/optiga-trust-m-1/optiga/comms/ifx_i2c/ifx_i2c_physical_layer.c ****             if (PL_REG_I2C_STATE_SOFT_RESET == p_ctx->pl.buffer[0])
 758://MAC/Home/Downloads/getstarted-optiga-trust-m/optiga-trust-m-1/optiga/comms/ifx_i2c/ifx_i2c_physical_layer.c ****             {
 759://MAC/Home/Downloads/getstarted-optiga-trust-m/optiga-trust-m-1/optiga/comms/ifx_i2c/ifx_i2c_physical_layer.c ****                 p_ctx->pl.request_soft_reset = PL_RESET_STARTUP;
 760://MAC/Home/Downloads/getstarted-optiga-trust-m/optiga-trust-m-1/optiga/comms/ifx_i2c/ifx_i2c_physical_layer.c ****                 //Write 88 register with 0 value
 761://MAC/Home/Downloads/getstarted-optiga-trust-m/optiga-trust-m-1/optiga/comms/ifx_i2c/ifx_i2c_physical_layer.c ****                 ifx_i2c_pl_write_register(p_ctx, PL_REG_SOFT_RESET, PL_REG_LEN_SOFT_RESET, i2c_mode
 762://MAC/Home/Downloads/getstarted-optiga-trust-m/optiga-trust-m-1/optiga/comms/ifx_i2c/ifx_i2c_physical_layer.c ****             }
 763://MAC/Home/Downloads/getstarted-optiga-trust-m/optiga-trust-m-1/optiga/comms/ifx_i2c/ifx_i2c_physical_layer.c ****             else
 764://MAC/Home/Downloads/getstarted-optiga-trust-m/optiga-trust-m-1/optiga/comms/ifx_i2c/ifx_i2c_physical_layer.c ****             {
 765://MAC/Home/Downloads/getstarted-optiga-trust-m/optiga-trust-m-1/optiga/comms/ifx_i2c/ifx_i2c_physical_layer.c ****                 //Soft reset is not supported by the slave
 766://MAC/Home/Downloads/getstarted-optiga-trust-m/optiga-trust-m-1/optiga/comms/ifx_i2c/ifx_i2c_physical_layer.c ****                 p_ctx->pl.frame_state = PL_STATE_UNINIT;
 767://MAC/Home/Downloads/getstarted-optiga-trust-m/optiga-trust-m-1/optiga/comms/ifx_i2c/ifx_i2c_physical_layer.c ****                 ifx_i2c_pl_frame_event_handler(p_ctx, IFX_I2C_STACK_ERROR);
 768://MAC/Home/Downloads/getstarted-optiga-trust-m/optiga-trust-m-1/optiga/comms/ifx_i2c/ifx_i2c_physical_layer.c ****             }
 769://MAC/Home/Downloads/getstarted-optiga-trust-m/optiga-trust-m-1/optiga/comms/ifx_i2c/ifx_i2c_physical_layer.c ****             break;
 770://MAC/Home/Downloads/getstarted-optiga-trust-m/optiga-trust-m-1/optiga/comms/ifx_i2c/ifx_i2c_physical_layer.c ****         }
 771://MAC/Home/Downloads/getstarted-optiga-trust-m/optiga-trust-m-1/optiga/comms/ifx_i2c/ifx_i2c_physical_layer.c ****         case PL_RESET_STARTUP:
 772://MAC/Home/Downloads/getstarted-optiga-trust-m/optiga-trust-m-1/optiga/comms/ifx_i2c/ifx_i2c_physical_layer.c ****         {
 773://MAC/Home/Downloads/getstarted-optiga-trust-m/optiga-trust-m-1/optiga/comms/ifx_i2c/ifx_i2c_physical_layer.c ****             p_ctx->pl.request_soft_reset= PL_RESET_INIT;
 774://MAC/Home/Downloads/getstarted-optiga-trust-m/optiga-trust-m-1/optiga/comms/ifx_i2c/ifx_i2c_physical_layer.c ****             pal_os_event_register_callback_oneshot(p_ctx->pal_os_event_ctx,(register_callback)ifx_i
 775://MAC/Home/Downloads/getstarted-optiga-trust-m/optiga-trust-m-1/optiga/comms/ifx_i2c/ifx_i2c_physical_layer.c ****                                                    (void * )p_ctx,
 776://MAC/Home/Downloads/getstarted-optiga-trust-m/optiga-trust-m-1/optiga/comms/ifx_i2c/ifx_i2c_physical_layer.c ****                                                    STARTUP_TIME_MSEC);
 777://MAC/Home/Downloads/getstarted-optiga-trust-m/optiga-trust-m-1/optiga/comms/ifx_i2c/ifx_i2c_physical_layer.c ****             break;
 778://MAC/Home/Downloads/getstarted-optiga-trust-m/optiga-trust-m-1/optiga/comms/ifx_i2c/ifx_i2c_physical_layer.c ****         }
 779://MAC/Home/Downloads/getstarted-optiga-trust-m/optiga-trust-m-1/optiga/comms/ifx_i2c/ifx_i2c_physical_layer.c ****         case PL_RESET_INIT:
 780://MAC/Home/Downloads/getstarted-optiga-trust-m/optiga-trust-m-1/optiga/comms/ifx_i2c/ifx_i2c_physical_layer.c ****         {
 781://MAC/Home/Downloads/getstarted-optiga-trust-m/optiga-trust-m-1/optiga/comms/ifx_i2c/ifx_i2c_physical_layer.c ****             p_ctx->pl.frame_state = PL_STATE_INIT;
 782://MAC/Home/Downloads/getstarted-optiga-trust-m/optiga-trust-m-1/optiga/comms/ifx_i2c/ifx_i2c_physical_layer.c ****             ifx_i2c_pl_frame_event_handler(p_ctx, IFX_I2C_STACK_SUCCESS);
 783://MAC/Home/Downloads/getstarted-optiga-trust-m/optiga-trust-m-1/optiga/comms/ifx_i2c/ifx_i2c_physical_layer.c ****             break;
 784://MAC/Home/Downloads/getstarted-optiga-trust-m/optiga-trust-m-1/optiga/comms/ifx_i2c/ifx_i2c_physical_layer.c ****         }
 785://MAC/Home/Downloads/getstarted-optiga-trust-m/optiga-trust-m-1/optiga/comms/ifx_i2c/ifx_i2c_physical_layer.c ****         default:
 786://MAC/Home/Downloads/getstarted-optiga-trust-m/optiga-trust-m-1/optiga/comms/ifx_i2c/ifx_i2c_physical_layer.c ****             break;
 787://MAC/Home/Downloads/getstarted-optiga-trust-m/optiga-trust-m-1/optiga/comms/ifx_i2c/ifx_i2c_physical_layer.c ****     }
 788://MAC/Home/Downloads/getstarted-optiga-trust-m/optiga-trust-m-1/optiga/comms/ifx_i2c/ifx_i2c_physical_layer.c **** }
 789://MAC/Home/Downloads/getstarted-optiga-trust-m/optiga-trust-m-1/optiga/comms/ifx_i2c/ifx_i2c_physical_layer.c **** 
 790://MAC/Home/Downloads/getstarted-optiga-trust-m/optiga-trust-m-1/optiga/comms/ifx_i2c/ifx_i2c_physical_layer.c **** //lint --e{715} suppress "This is used for synchromous implementation, hence p_ctx not used"
 791://MAC/Home/Downloads/getstarted-optiga-trust-m/optiga-trust-m-1/optiga/comms/ifx_i2c/ifx_i2c_physical_layer.c **** //lint --e{818} suppress "This is ignored as upper layer handler function prototype requires this a
 792://MAC/Home/Downloads/getstarted-optiga-trust-m/optiga-trust-m-1/optiga/comms/ifx_i2c/ifx_i2c_physical_layer.c **** _STATIC_H void ifx_i2c_pl_pal_slave_addr_event_handler(void * p_ctx, optiga_lib_status_t event)
 793://MAC/Home/Downloads/getstarted-optiga-trust-m/optiga-trust-m-1/optiga/comms/ifx_i2c/ifx_i2c_physical_layer.c **** {
  25              	 .loc 1 793 0
  26              	 .cfi_startproc
  27              	.LVL0:
 794://MAC/Home/Downloads/getstarted-optiga-trust-m/optiga-trust-m-1/optiga/comms/ifx_i2c/ifx_i2c_physical_layer.c ****     g_pal_event_status = event;
  28              	 .loc 1 794 0
  29 0000 014B     	 ldr r3,.L2
 795://MAC/Home/Downloads/getstarted-optiga-trust-m/optiga-trust-m-1/optiga/comms/ifx_i2c/ifx_i2c_physical_layer.c **** }
  30              	 .loc 1 795 0
  31              	 
 794://MAC/Home/Downloads/getstarted-optiga-trust-m/optiga-trust-m-1/optiga/comms/ifx_i2c/ifx_i2c_physical_layer.c ****     g_pal_event_status = event;
  32              	 .loc 1 794 0
  33 0002 1980     	 strh r1,[r3]
  34              	 .loc 1 795 0
  35 0004 7047     	 bx lr
  36              	.L3:
  37 0006 C046     	 .align 2
  38              	.L2:
  39 0008 00000000 	 .word .LANCHOR0
  40              	 .cfi_endproc
  41              	.LFE14:
  43              	 .section .text.ifx_i2c_pl_read_register,"ax",%progbits
  44              	 .align 1
  45              	 .code 16
  46              	 .thumb_func
  48              	ifx_i2c_pl_read_register:
  49              	.LFB4:
 286://MAC/Home/Downloads/getstarted-optiga-trust-m/optiga-trust-m-1/optiga/comms/ifx_i2c/ifx_i2c_physical_layer.c ****     LOG_PL("[IFX-PL]: Read register %x len %d\n", reg_addr, reg_len);
  50              	 .loc 1 286 0
  51              	 .cfi_startproc
  52              	.LVL1:
  53 0000 0B1C     	 mov r3,r1
 290://MAC/Home/Downloads/getstarted-optiga-trust-m/optiga-trust-m-1/optiga/comms/ifx_i2c/ifx_i2c_physical_layer.c ****     p_ctx->pl.buffer_tx_len = 1;
  54              	 .loc 1 290 0
  55 0002 011C     	 mov r1,r0
  56              	.LVL2:
 286://MAC/Home/Downloads/getstarted-optiga-trust-m/optiga-trust-m-1/optiga/comms/ifx_i2c/ifx_i2c_physical_layer.c ****     LOG_PL("[IFX-PL]: Read register %x len %d\n", reg_addr, reg_len);
  57              	 .loc 1 286 0
  58 0004 10B5     	 push {r4,lr}
  59              	.LCFI0:
  60              	 .cfi_def_cfa_offset 8
  61              	 .cfi_offset 4,-8
  62              	 .cfi_offset 14,-4
 290://MAC/Home/Downloads/getstarted-optiga-trust-m/optiga-trust-m-1/optiga/comms/ifx_i2c/ifx_i2c_physical_layer.c ****     p_ctx->pl.buffer_tx_len = 1;
  63              	 .loc 1 290 0
  64 0006 8031     	 add r1,r1,#128
 291://MAC/Home/Downloads/getstarted-optiga-trust-m/optiga-trust-m-1/optiga/comms/ifx_i2c/ifx_i2c_physical_layer.c **** 
  65              	 .loc 1 291 0
  66 0008 CB24     	 mov r4,#203
 290://MAC/Home/Downloads/getstarted-optiga-trust-m/optiga-trust-m-1/optiga/comms/ifx_i2c/ifx_i2c_physical_layer.c ****     p_ctx->pl.buffer_tx_len = 1;
  67              	 .loc 1 290 0
  68 000a 0B70     	 strb r3,[r1]
 291://MAC/Home/Downloads/getstarted-optiga-trust-m/optiga-trust-m-1/optiga/comms/ifx_i2c/ifx_i2c_physical_layer.c **** 
  69              	 .loc 1 291 0
  70 000c 0123     	 mov r3,#1
  71 000e 6400     	 lsl r4,r4,#1
  72 0010 0353     	 strh r3,[r0,r4]
 294://MAC/Home/Downloads/getstarted-optiga-trust-m/optiga-trust-m-1/optiga/comms/ifx_i2c/ifx_i2c_physical_layer.c ****     p_ctx->pl.register_action = PL_ACTION_READ_REGISTER;
  73              	 .loc 1 294 0
  74 0012 0234     	 add r4,r4,#2
  75 0014 0253     	 strh r2,[r0,r4]
 295://MAC/Home/Downloads/getstarted-optiga-trust-m/optiga-trust-m-1/optiga/comms/ifx_i2c/ifx_i2c_physical_layer.c ****     p_ctx->pl.retry_counter   = PL_POLLING_MAX_CNT;
  76              	 .loc 1 295 0
  77 0016 CD22     	 mov r2,#205
  78              	.LVL3:
  79 0018 5200     	 lsl r2,r2,#1
  80 001a 8354     	 strb r3,[r0,r2]
 296://MAC/Home/Downloads/getstarted-optiga-trust-m/optiga-trust-m-1/optiga/comms/ifx_i2c/ifx_i2c_physical_layer.c ****     p_ctx->pl.i2c_cmd         = PL_I2C_CMD_WRITE;
  81              	 .loc 1 296 0
  82 001c D03C     	 sub r4,r4,#208
  83              	.LVL4:
  84 001e 0232     	 add r2,r2,#2
  85 0020 8452     	 strh r4,[r0,r2]
 297://MAC/Home/Downloads/getstarted-optiga-trust-m/optiga-trust-m-1/optiga/comms/ifx_i2c/ifx_i2c_physical_layer.c **** 
  86              	 .loc 1 297 0
  87 0022 9C22     	 mov r2,#156
  88 0024 FF32     	 add r2,r2,#255
  89 0026 8354     	 strb r3,[r0,r2]
 300://MAC/Home/Downloads/getstarted-optiga-trust-m/optiga-trust-m-1/optiga/comms/ifx_i2c/ifx_i2c_physical_layer.c **** }
  90              	 .loc 1 300 0
  91 0028 1A1C     	 mov r2,r3
  92 002a 0069     	 ldr r0,[r0,#16]
  93              	.LVL5:
  94 002c FFF7FEFF 	 bl pal_i2c_write
  95              	.LVL6:
 301://MAC/Home/Downloads/getstarted-optiga-trust-m/optiga-trust-m-1/optiga/comms/ifx_i2c/ifx_i2c_physical_layer.c **** 
  96              	 .loc 1 301 0
  97              	 
  98 0030 10BD     	 pop {r4,pc}
  99              	 .cfi_endproc
 100              	.LFE4:
 102              	 .section .text.ifx_i2c_pl_status_poll_callback,"ax",%progbits
 103              	 .align 1
 104              	 .code 16
 105              	 .thumb_func
 107              	ifx_i2c_pl_status_poll_callback:
 108              	.LFB6:
 326://MAC/Home/Downloads/getstarted-optiga-trust-m/optiga-trust-m-1/optiga/comms/ifx_i2c/ifx_i2c_physical_layer.c ****     LOG_PL("[IFX-PL]: Status poll Timer elapsed  -> Read STATUS register\n");
 109              	 .loc 1 326 0
 110              	 .cfi_startproc
 111              	.LVL7:
 112 0000 08B5     	 push {r3,lr}
 113              	.LCFI1:
 114              	 .cfi_def_cfa_offset 8
 115              	 .cfi_offset 3,-8
 116              	 .cfi_offset 14,-4
 328://MAC/Home/Downloads/getstarted-optiga-trust-m/optiga-trust-m-1/optiga/comms/ifx_i2c/ifx_i2c_physical_layer.c **** }
 117              	 .loc 1 328 0
 118 0002 8221     	 mov r1,#130
 119 0004 0422     	 mov r2,#4
 120 0006 FFF7FEFF 	 bl ifx_i2c_pl_read_register
 121              	.LVL8:
 329://MAC/Home/Downloads/getstarted-optiga-trust-m/optiga-trust-m-1/optiga/comms/ifx_i2c/ifx_i2c_physical_layer.c **** 
 122              	 .loc 1 329 0
 123              	 
 124 000a 08BD     	 pop {r3,pc}
 125              	 .cfi_endproc
 126              	.LFE6:
 128              	 .section .text.ifx_i2c_pl_write_register,"ax",%progbits
 129              	 .align 1
 130              	 .code 16
 131              	 .thumb_func
 133              	ifx_i2c_pl_write_register:
 134              	.LFB5:
 308://MAC/Home/Downloads/getstarted-optiga-trust-m/optiga-trust-m-1/optiga/comms/ifx_i2c/ifx_i2c_physical_layer.c ****     LOG_PL("[IFX-PL]: Write register %x len %d\n", reg_addr, reg_len);
 135              	 .loc 1 308 0
 136              	 .cfi_startproc
 137              	.LVL9:
 138 0000 70B5     	 push {r4,r5,r6,lr}
 139              	.LCFI2:
 140              	 .cfi_def_cfa_offset 16
 141              	 .cfi_offset 4,-16
 142              	 .cfi_offset 5,-12
 143              	 .cfi_offset 6,-8
 144              	 .cfi_offset 14,-4
 312://MAC/Home/Downloads/getstarted-optiga-trust-m/optiga-trust-m-1/optiga/comms/ifx_i2c/ifx_i2c_physical_layer.c ****     memcpy(p_ctx->pl.buffer + 1, p_content, reg_len);
 145              	 .loc 1 312 0
 146 0002 061C     	 mov r6,r0
 147 0004 8036     	 add r6,r6,#128
 308://MAC/Home/Downloads/getstarted-optiga-trust-m/optiga-trust-m-1/optiga/comms/ifx_i2c/ifx_i2c_physical_layer.c ****     LOG_PL("[IFX-PL]: Write register %x len %d\n", reg_addr, reg_len);
 148              	 .loc 1 308 0
 149 0006 051C     	 mov r5,r0
 312://MAC/Home/Downloads/getstarted-optiga-trust-m/optiga-trust-m-1/optiga/comms/ifx_i2c/ifx_i2c_physical_layer.c ****     memcpy(p_ctx->pl.buffer + 1, p_content, reg_len);
 150              	 .loc 1 312 0
 151 0008 3170     	 strb r1,[r6]
 308://MAC/Home/Downloads/getstarted-optiga-trust-m/optiga-trust-m-1/optiga/comms/ifx_i2c/ifx_i2c_physical_layer.c ****     LOG_PL("[IFX-PL]: Write register %x len %d\n", reg_addr, reg_len);
 152              	 .loc 1 308 0
 153 000a 141C     	 mov r4,r2
 313://MAC/Home/Downloads/getstarted-optiga-trust-m/optiga-trust-m-1/optiga/comms/ifx_i2c/ifx_i2c_physical_layer.c ****     p_ctx->pl.buffer_tx_len = 1 + reg_len;
 154              	 .loc 1 313 0
 155 000c 191C     	 mov r1,r3
 156              	.LVL10:
 157 000e 8130     	 add r0,r0,#129
 158              	.LVL11:
 159 0010 FFF7FEFF 	 bl memcpy
 160              	.LVL12:
 314://MAC/Home/Downloads/getstarted-optiga-trust-m/optiga-trust-m-1/optiga/comms/ifx_i2c/ifx_i2c_physical_layer.c **** 
 161              	 .loc 1 314 0
 162 0014 CB23     	 mov r3,#203
 317://MAC/Home/Downloads/getstarted-optiga-trust-m/optiga-trust-m-1/optiga/comms/ifx_i2c/ifx_i2c_physical_layer.c ****     p_ctx->pl.retry_counter   = PL_POLLING_MAX_CNT;
 163              	 .loc 1 317 0
 164 0016 0221     	 mov r1,#2
 314://MAC/Home/Downloads/getstarted-optiga-trust-m/optiga-trust-m-1/optiga/comms/ifx_i2c/ifx_i2c_physical_layer.c **** 
 165              	 .loc 1 314 0
 166 0018 0134     	 add r4,r4,#1
 167 001a A2B2     	 uxth r2,r4
 168 001c 5B00     	 lsl r3,r3,#1
 169 001e EA52     	 strh r2,[r5,r3]
 317://MAC/Home/Downloads/getstarted-optiga-trust-m/optiga-trust-m-1/optiga/comms/ifx_i2c/ifx_i2c_physical_layer.c ****     p_ctx->pl.retry_counter   = PL_POLLING_MAX_CNT;
 170              	 .loc 1 317 0
 171 0020 0433     	 add r3,r3,#4
 172 0022 E954     	 strb r1,[r5,r3]
 318://MAC/Home/Downloads/getstarted-optiga-trust-m/optiga-trust-m-1/optiga/comms/ifx_i2c/ifx_i2c_physical_layer.c ****     p_ctx->pl.i2c_cmd         = PL_I2C_CMD_WRITE;
 173              	 .loc 1 318 0
 174 0024 C631     	 add r1,r1,#198
 175 0026 0233     	 add r3,r3,#2
 176 0028 E952     	 strh r1,[r5,r3]
 319://MAC/Home/Downloads/getstarted-optiga-trust-m/optiga-trust-m-1/optiga/comms/ifx_i2c/ifx_i2c_physical_layer.c ****     //lint --e{534} suppress "This is the last statement of asynchronous function hence return valu
 177              	 .loc 1 319 0
 178 002a 9C23     	 mov r3,#156
 179 002c C739     	 sub r1,r1,#199
 180 002e FF33     	 add r3,r3,#255
 181 0030 E954     	 strb r1,[r5,r3]
 321://MAC/Home/Downloads/getstarted-optiga-trust-m/optiga-trust-m-1/optiga/comms/ifx_i2c/ifx_i2c_physical_layer.c **** }
 182              	 .loc 1 321 0
 183 0032 2869     	 ldr r0,[r5,#16]
 184 0034 311C     	 mov r1,r6
 185 0036 FFF7FEFF 	 bl pal_i2c_write
 186              	.LVL13:
 322://MAC/Home/Downloads/getstarted-optiga-trust-m/optiga-trust-m-1/optiga/comms/ifx_i2c/ifx_i2c_physical_layer.c **** 
 187              	 .loc 1 322 0
 188              	 
 189              	.LVL14:
 190              	.LVL15:
 191 003a 70BD     	 pop {r4,r5,r6,pc}
 192              	 .cfi_endproc
 193              	.LFE5:
 195              	 .section .text.ifx_i2c_pal_poll_callback,"ax",%progbits
 196              	 .align 1
 197              	 .code 16
 198              	 .thumb_func
 200              	ifx_i2c_pal_poll_callback:
 201              	.LFB10:
 667://MAC/Home/Downloads/getstarted-optiga-trust-m/optiga-trust-m-1/optiga/comms/ifx_i2c/ifx_i2c_physical_layer.c ****     ifx_i2c_context_t * p_local_ctx = (ifx_i2c_context_t * )p_ctx;
 202              	 .loc 1 667 0
 203              	 .cfi_startproc
 204              	.LVL16:
 205 0000 08B5     	 push {r3,lr}
 206              	.LCFI3:
 207              	 .cfi_def_cfa_offset 8
 208              	 .cfi_offset 3,-8
 209              	 .cfi_offset 14,-4
 669://MAC/Home/Downloads/getstarted-optiga-trust-m/optiga-trust-m-1/optiga/comms/ifx_i2c/ifx_i2c_physical_layer.c ****     {
 210              	 .loc 1 669 0
 211 0002 9C23     	 mov r3,#156
 212 0004 FF33     	 add r3,r3,#255
 213 0006 C35C     	 ldrb r3,[r0,r3]
 214 0008 012B     	 cmp r3,#1
 215 000a 08D1     	 bne .L8
 216              	.LVL17:
 217              	.LBB4:
 218              	.LBB5:
 673://MAC/Home/Downloads/getstarted-optiga-trust-m/optiga-trust-m-1/optiga/comms/ifx_i2c/ifx_i2c_physical_layer.c ****     }
 219              	 .loc 1 673 0
 220 000c 011C     	 mov r1,r0
 221 000e 9633     	 add r3,r3,#150
 222 0010 FF33     	 add r3,r3,#255
 223 0012 C25A     	 ldrh r2,[r0,r3]
 224 0014 8031     	 add r1,r1,#128
 225 0016 0069     	 ldr r0,[r0,#16]
 226              	.LVL18:
 227 0018 FFF7FEFF 	 bl pal_i2c_write
 228              	.LVL19:
 229 001c 09E0     	 b .L7
 230              	.LVL20:
 231              	.L8:
 232              	.LBE5:
 233              	.LBE4:
 675://MAC/Home/Downloads/getstarted-optiga-trust-m/optiga-trust-m-1/optiga/comms/ifx_i2c/ifx_i2c_physical_layer.c ****     {
 234              	 .loc 1 675 0
 235 001e 022B     	 cmp r3,#2
 236 0020 07D1     	 bne .L7
 679://MAC/Home/Downloads/getstarted-optiga-trust-m/optiga-trust-m-1/optiga/comms/ifx_i2c/ifx_i2c_physical_layer.c ****     }
 237              	 .loc 1 679 0
 238 0022 011C     	 mov r1,r0
 239 0024 9733     	 add r3,r3,#151
 240 0026 FF33     	 add r3,r3,#255
 241 0028 C25A     	 ldrh r2,[r0,r3]
 242 002a 8031     	 add r1,r1,#128
 243 002c 0069     	 ldr r0,[r0,#16]
 244              	.LVL21:
 245 002e FFF7FEFF 	 bl pal_i2c_read
 246              	.LVL22:
 247              	.L7:
 681://MAC/Home/Downloads/getstarted-optiga-trust-m/optiga-trust-m-1/optiga/comms/ifx_i2c/ifx_i2c_physical_layer.c **** 
 248              	 .loc 1 681 0
 249              	 
 250 0032 08BD     	 pop {r3,pc}
 251              	 .cfi_endproc
 252              	.LFE10:
 254              	 .section .text.ifx_i2c_pl_set_bit_rate,"ax",%progbits
 255              	 .align 1
 256              	 .code 16
 257              	 .thumb_func
 259              	ifx_i2c_pl_set_bit_rate:
 260              	.LFB7:
 332://MAC/Home/Downloads/getstarted-optiga-trust-m/optiga-trust-m-1/optiga/comms/ifx_i2c/ifx_i2c_physical_layer.c ****     optiga_lib_status_t status;
 261              	 .loc 1 332 0
 262              	 .cfi_startproc
 263              	.LVL23:
 264 0000 38B5     	 push {r3,r4,r5,lr}
 265              	.LCFI4:
 266              	 .cfi_def_cfa_offset 16
 267              	 .cfi_offset 3,-16
 268              	 .cfi_offset 4,-12
 269              	 .cfi_offset 5,-8
 270              	 .cfi_offset 14,-4
 338://MAC/Home/Downloads/getstarted-optiga-trust-m/optiga-trust-m-1/optiga/comms/ifx_i2c/ifx_i2c_physical_layer.c ****     status = pal_i2c_set_bitrate(p_ctx->p_pal_i2c_ctx , bitrate);
 271              	 .loc 1 338 0
 272 0002 0023     	 mov r3,#0
 332://MAC/Home/Downloads/getstarted-optiga-trust-m/optiga-trust-m-1/optiga/comms/ifx_i2c/ifx_i2c_physical_layer.c ****     optiga_lib_status_t status;
 273              	 .loc 1 332 0
 274 0004 041C     	 mov r4,r0
 336://MAC/Home/Downloads/getstarted-optiga-trust-m/optiga-trust-m-1/optiga/comms/ifx_i2c/ifx_i2c_physical_layer.c ****     // Pass context as NULL to avoid callback invocation
 275              	 .loc 1 336 0
 276 0006 0069     	 ldr r0,[r0,#16]
 277              	.LVL24:
 278 0008 C568     	 ldr r5,[r0,#12]
 279              	.LVL25:
 338://MAC/Home/Downloads/getstarted-optiga-trust-m/optiga-trust-m-1/optiga/comms/ifx_i2c/ifx_i2c_physical_layer.c ****     status = pal_i2c_set_bitrate(p_ctx->p_pal_i2c_ctx , bitrate);
 280              	 .loc 1 338 0
 281 000a C360     	 str r3,[r0,#12]
 339://MAC/Home/Downloads/getstarted-optiga-trust-m/optiga-trust-m-1/optiga/comms/ifx_i2c/ifx_i2c_physical_layer.c ****     // Restore callback
 282              	 .loc 1 339 0
 283 000c FFF7FEFF 	 bl pal_i2c_set_bitrate
 284              	.LVL26:
 341://MAC/Home/Downloads/getstarted-optiga-trust-m/optiga-trust-m-1/optiga/comms/ifx_i2c/ifx_i2c_physical_layer.c ****     if (PAL_I2C_EVENT_SUCCESS != status)
 285              	 .loc 1 341 0
 286 0010 2369     	 ldr r3,[r4,#16]
 287 0012 DD60     	 str r5,[r3,#12]
 342://MAC/Home/Downloads/getstarted-optiga-trust-m/optiga-trust-m-1/optiga/comms/ifx_i2c/ifx_i2c_physical_layer.c ****     {
 288              	 .loc 1 342 0
 289 0014 0028     	 cmp r0,#0
 290 0016 12D0     	 beq .L12
 344://MAC/Home/Downloads/getstarted-optiga-trust-m/optiga-trust-m-1/optiga/comms/ifx_i2c/ifx_i2c_physical_layer.c ****         {
 291              	 .loc 1 344 0
 292 0018 CE22     	 mov r2,#206
 293 001a 5200     	 lsl r2,r2,#1
 294 001c A35A     	 ldrh r3,[r4,r2]
 295 001e 591E     	 sub r1,r3,#1
 296 0020 A152     	 strh r1,[r4,r2]
 297 0022 002B     	 cmp r3,#0
 298 0024 09D0     	 beq .L13
 299              	.LVL27:
 300              	.LBB8:
 301              	.LBB9:
 347://MAC/Home/Downloads/getstarted-optiga-trust-m/optiga-trust-m-1/optiga/comms/ifx_i2c/ifx_i2c_physical_layer.c ****                                                     ifx_i2c_pl_negotiation_event_handler,
 302              	 .loc 1 347 0
 303 0026 9A23     	 mov r3,#154
 304 0028 DB00     	 lsl r3,r3,#3
 305 002a E058     	 ldr r0,[r4,r3]
 306              	.LVL28:
 307 002c 0449     	 ldr r1,.L17
 308 002e 221C     	 mov r2,r4
 309 0030 E83B     	 sub r3,r3,#232
 310 0032 FFF7FEFF 	 bl pal_os_event_register_callback_oneshot
 311              	.LVL29:
 312 0036 0120     	 mov r0,#1
 313 0038 01E0     	 b .L12
 314              	.LVL30:
 315              	.L13:
 316              	.LBE9:
 317              	.LBE8:
 355://MAC/Home/Downloads/getstarted-optiga-trust-m/optiga-trust-m-1/optiga/comms/ifx_i2c/ifx_i2c_physical_layer.c ****         }
 318              	 .loc 1 355 0
 319 003a 8120     	 mov r0,#129
 320              	.LVL31:
 321 003c 4000     	 lsl r0,r0,#1
 322              	.L12:
 323              	.LVL32:
 365://MAC/Home/Downloads/getstarted-optiga-trust-m/optiga-trust-m-1/optiga/comms/ifx_i2c/ifx_i2c_physical_layer.c **** _STATIC_H void ifx_i2c_pl_negotiation_event_handler(void * p_input_ctx)
 324              	 .loc 1 365 0
 325              	 
 326              	.LVL33:
 327              	.LVL34:
 328 003e 38BD     	 pop {r3,r4,r5,pc}
 329              	.L18:
 330              	 .align 2
 331              	.L17:
 332 0040 00000000 	 .word ifx_i2c_pl_negotiation_event_handler
 333              	 .cfi_endproc
 334              	.LFE7:
 336              	 .section .text.ifx_i2c_pl_negotiation_event_handler,"ax",%progbits
 337              	 .align 1
 338              	 .code 16
 339              	 .thumb_func
 341              	ifx_i2c_pl_negotiation_event_handler:
 342              	.LFB8:
 367://MAC/Home/Downloads/getstarted-optiga-trust-m/optiga-trust-m-1/optiga/comms/ifx_i2c/ifx_i2c_physical_layer.c ****     optiga_lib_status_t event = (uint8_t)IFX_I2C_STACK_ERROR;
 343              	 .loc 1 367 0
 344              	 .cfi_startproc
 345              	.LVL35:
 346 0000 73B5     	 push {r0,r1,r4,r5,r6,lr}
 347              	.LCFI5:
 348              	 .cfi_def_cfa_offset 24
 349              	 .cfi_offset 0,-24
 350              	 .cfi_offset 1,-20
 351              	 .cfi_offset 4,-16
 352              	 .cfi_offset 5,-12
 353              	 .cfi_offset 6,-8
 354              	 .cfi_offset 14,-4
 367://MAC/Home/Downloads/getstarted-optiga-trust-m/optiga-trust-m-1/optiga/comms/ifx_i2c/ifx_i2c_physical_layer.c ****     optiga_lib_status_t event = (uint8_t)IFX_I2C_STACK_ERROR;
 355              	 .loc 1 367 0
 356 0002 041C     	 mov r4,r0
 368://MAC/Home/Downloads/getstarted-optiga-trust-m/optiga-trust-m-1/optiga/comms/ifx_i2c/ifx_i2c_physical_layer.c ****     uint8_t continue_negotiation;
 357              	 .loc 1 368 0
 358 0004 0221     	 mov r1,#2
 372://MAC/Home/Downloads/getstarted-optiga-trust-m/optiga-trust-m-1/optiga/comms/ifx_i2c/ifx_i2c_physical_layer.c ****     uint16_t buffer_len = 0;
 359              	 .loc 1 372 0
 360 0006 8388     	 ldrh r3,[r0,#4]
 361 0008 01AE     	 add r6,sp,#4
 362 000a 1A0A     	 lsr r2,r3,#8
 363 000c 3270     	 strb r2,[r6]
 364 000e 7370     	 strb r3,[r6,#1]
 365              	.LVL36:
 366              	.L44:
 382://MAC/Home/Downloads/getstarted-optiga-trust-m/optiga-trust-m-1/optiga/comms/ifx_i2c/ifx_i2c_physical_layer.c ****         {
 367              	 .loc 1 382 0
 368 0010 D625     	 mov r5,#214
 369 0012 6D00     	 lsl r5,r5,#1
 370 0014 635D     	 ldrb r3,[r4,r5]
 371 0016 552B     	 cmp r3,#85
 372 0018 64D0     	 beq .L21
 373 001a 12D8     	 bhi .L22
 374 001c 222B     	 cmp r3,#34
 375 001e 00D1     	 bne .LCB338
 376 0020 8AE0     	 b .L23
 377              	.LCB338:
 378 0022 09D8     	 bhi .L24
 379 0024 112B     	 cmp r3,#17
 380 0026 00D0     	 beq .LCB342
 381 0028 ABE0     	 b .L19
 382              	.LCB342:
 485://MAC/Home/Downloads/getstarted-optiga-trust-m/optiga-trust-m-1/optiga/comms/ifx_i2c/ifx_i2c_physical_layer.c ****                 ifx_i2c_pl_write_register(p_ctx, PL_REG_DATA_REG_LEN, sizeof(max_frame_size), max_f
 383              	 .loc 1 485 0
 384 002a 2223     	 mov r3,#34
 486://MAC/Home/Downloads/getstarted-optiga-trust-m/optiga-trust-m-1/optiga/comms/ifx_i2c/ifx_i2c_physical_layer.c ****             }
 385              	 .loc 1 486 0
 386 002c 201C     	 mov r0,r4
 485://MAC/Home/Downloads/getstarted-optiga-trust-m/optiga-trust-m-1/optiga/comms/ifx_i2c/ifx_i2c_physical_layer.c ****                 ifx_i2c_pl_write_register(p_ctx, PL_REG_DATA_REG_LEN, sizeof(max_frame_size), max_f
 387              	 .loc 1 485 0
 388 002e 6355     	 strb r3,[r4,r5]
 486://MAC/Home/Downloads/getstarted-optiga-trust-m/optiga-trust-m-1/optiga/comms/ifx_i2c/ifx_i2c_physical_layer.c ****             }
 389              	 .loc 1 486 0
 390 0030 8121     	 mov r1,#129
 391              	.LVL37:
 392 0032 0222     	 mov r2,#2
 393 0034 331C     	 mov r3,r6
 394 0036 7CE0     	 b .L49
 395              	.LVL38:
 396              	.L24:
 382://MAC/Home/Downloads/getstarted-optiga-trust-m/optiga-trust-m-1/optiga/comms/ifx_i2c/ifx_i2c_physical_layer.c ****         {
 397              	 .loc 1 382 0
 398 0038 332B     	 cmp r3,#51
 399 003a 29D0     	 beq .L26
 400 003c 442B     	 cmp r3,#68
 401 003e 29D0     	 beq .L27
 402 0040 9FE0     	 b .L19
 403              	.L22:
 404 0042 882B     	 cmp r3,#136
 405 0044 00D1     	 bne .LCB364
 406 0046 7DE0     	 b .L28
 407              	.LCB364:
 408 0048 04D8     	 bhi .L29
 409 004a 662B     	 cmp r3,#102
 410 004c 52D0     	 beq .L30
 411 004e 772B     	 cmp r3,#119
 412 0050 5FD0     	 beq .L31
 413 0052 96E0     	 b .L19
 414              	.L29:
 415 0054 AA2B     	 cmp r3,#170
 416 0056 00D1     	 bne .LCB376
 417 0058 85E0     	 b .L32
 418              	.LCB376:
 419 005a BB2B     	 cmp r3,#187
 420 005c 00D0     	 beq .LCB378
 421 005e 90E0     	 b .L19
 422              	.LCB378:
 388://MAC/Home/Downloads/getstarted-optiga-trust-m/optiga-trust-m-1/optiga/comms/ifx_i2c/ifx_i2c_physical_layer.c ****                 if (IFX_I2C_STACK_SUCCESS == event)
 423              	 .loc 1 388 0
 424 0060 6421     	 mov r1,#100
 425              	.LVL39:
 426 0062 201C     	 mov r0,r4
 427 0064 FFF7FEFF 	 bl ifx_i2c_pl_set_bit_rate
 428              	.LVL40:
 429 0068 011E     	 sub r1,r0,#0
 430              	.LVL41:
 389://MAC/Home/Downloads/getstarted-optiga-trust-m/optiga-trust-m-1/optiga/comms/ifx_i2c/ifx_i2c_physical_layer.c ****                 {
 431              	 .loc 1 389 0
 432 006a 01D1     	 bne .L34
 391://MAC/Home/Downloads/getstarted-optiga-trust-m/optiga-trust-m-1/optiga/comms/ifx_i2c/ifx_i2c_physical_layer.c ****                     continue_negotiation = TRUE;
 433              	 .loc 1 391 0
 434 006c 3323     	 mov r3,#51
 435 006e 57E0     	 b .L45
 436              	.L34:
 394://MAC/Home/Downloads/getstarted-optiga-trust-m/optiga-trust-m-1/optiga/comms/ifx_i2c/ifx_i2c_physical_layer.c ****                 {
 437              	 .loc 1 394 0
 438 0070 8123     	 mov r3,#129
 439 0072 5B00     	 lsl r3,r3,#1
 440 0074 9842     	 cmp r0,r3
 441 0076 00D0     	 beq .LCB396
 442 0078 83E0     	 b .L19
 443              	.LCB396:
 396://MAC/Home/Downloads/getstarted-optiga-trust-m/optiga-trust-m-1/optiga/comms/ifx_i2c/ifx_i2c_physical_layer.c ****                     p_buffer = NULL;
 444              	 .loc 1 396 0
 445 007a 583B     	 sub r3,r3,#88
 446 007c 6355     	 strb r3,[r4,r5]
 399://MAC/Home/Downloads/getstarted-optiga-trust-m/optiga-trust-m-1/optiga/comms/ifx_i2c/ifx_i2c_physical_layer.c ****                                                            (void * )p_ctx,
 447              	 .loc 1 399 0
 448 007e 9A23     	 mov r3,#154
 449 0080 DB00     	 lsl r3,r3,#3
 450 0082 E058     	 ldr r0,[r4,r3]
 451              	.LVL42:
 452 0084 3F49     	 ldr r1,.L51
 453              	.LVL43:
 454 0086 221C     	 mov r2,r4
 455 0088 3F4B     	 ldr r3,.L51+4
 456 008a FFF7FEFF 	 bl pal_os_event_register_callback_oneshot
 457              	.LVL44:
 458 008e 78E0     	 b .L19
 459              	.LVL45:
 460              	.L26:
 408://MAC/Home/Downloads/getstarted-optiga-trust-m/optiga-trust-m-1/optiga/comms/ifx_i2c/ifx_i2c_physical_layer.c ****                 ifx_i2c_pl_read_register(p_ctx, PL_REG_MAX_SCL_FREQU, PL_REG_LEN_MAX_SCL_FREQU);
 461              	 .loc 1 408 0
 462 0090 4423     	 mov r3,#68
 463 0092 28E0     	 b .L47
 464              	.L27:
 415://MAC/Home/Downloads/getstarted-optiga-trust-m/optiga-trust-m-1/optiga/comms/ifx_i2c/ifx_i2c_physical_layer.c **** 
 465              	 .loc 1 415 0
 466 0094 231C     	 mov r3,r4
 467 0096 221C     	 mov r2,r4
 468 0098 8233     	 add r3,r3,#130
 469 009a 1B78     	 ldrb r3,[r3]
 470 009c 8332     	 add r2,r2,#131
 471 009e 1278     	 ldrb r2,[r2]
 472 00a0 1B02     	 lsl r3,r3,#8
 417://MAC/Home/Downloads/getstarted-optiga-trust-m/optiga-trust-m-1/optiga/comms/ifx_i2c/ifx_i2c_physical_layer.c ****                 if ((p_ctx->frequency > PL_SM_FM_MAX_FREQUENCY) && (slave_frequency <= PL_SM_FM_MAX
 473              	 .loc 1 417 0
 474 00a2 6846     	 mov r0,sp
 415://MAC/Home/Downloads/getstarted-optiga-trust-m/optiga-trust-m-1/optiga/comms/ifx_i2c/ifx_i2c_physical_layer.c **** 
 475              	 .loc 1 415 0
 476 00a4 1343     	 orr r3,r2
 477              	.LVL46:
 417://MAC/Home/Downloads/getstarted-optiga-trust-m/optiga-trust-m-1/optiga/comms/ifx_i2c/ifx_i2c_physical_layer.c ****                 if ((p_ctx->frequency > PL_SM_FM_MAX_FREQUENCY) && (slave_frequency <= PL_SM_FM_MAX
 478              	 .loc 1 417 0
 479 00a6 8022     	 mov r2,#128
 480 00a8 0270     	 strb r2,[r0]
 418://MAC/Home/Downloads/getstarted-optiga-trust-m/optiga-trust-m-1/optiga/comms/ifx_i2c/ifx_i2c_physical_layer.c ****                 {
 481              	 .loc 1 418 0
 482 00aa 6088     	 ldrh r0,[r4,#2]
 483 00ac 1132     	 add r2,r2,#17
 484 00ae FF32     	 add r2,r2,#255
 485 00b0 9042     	 cmp r0,r2
 486 00b2 06D9     	 bls .L37
 418://MAC/Home/Downloads/getstarted-optiga-trust-m/optiga-trust-m-1/optiga/comms/ifx_i2c/ifx_i2c_physical_layer.c ****                 {
 487              	 .loc 1 418 0 is_stmt 0 discriminator 1
 488 00b4 9342     	 cmp r3,r2
 489 00b6 10D8     	 bhi .L38
 421://MAC/Home/Downloads/getstarted-optiga-trust-m/optiga-trust-m-1/optiga/comms/ifx_i2c/ifx_i2c_physical_layer.c ****                     p_ctx->pl.negotiate_state = PL_INIT_READ_FREQ;
 490              	 .loc 1 421 0 is_stmt 1
 491 00b8 0423     	 mov r3,#4
 492              	.LVL47:
 493 00ba 6A46     	 mov r2,sp
 494 00bc 5370     	 strb r3,[r2,#1]
 422://MAC/Home/Downloads/getstarted-optiga-trust-m/optiga-trust-m-1/optiga/comms/ifx_i2c/ifx_i2c_physical_layer.c ****                     ifx_i2c_pl_write_register(p_ctx, PL_REG_I2C_MODE, PL_REG_LEN_I2C_MODE, i2c_mode
 495              	 .loc 1 422 0
 496 00be 5133     	 add r3,r3,#81
 497 00c0 05E0     	 b .L50
 498              	.LVL48:
 499              	.L37:
 425://MAC/Home/Downloads/getstarted-optiga-trust-m/optiga-trust-m-1/optiga/comms/ifx_i2c/ifx_i2c_physical_layer.c ****                 {
 500              	 .loc 1 425 0 discriminator 1
 501 00c2 9342     	 cmp r3,r2
 502 00c4 09D9     	 bls .L38
 428://MAC/Home/Downloads/getstarted-optiga-trust-m/optiga-trust-m-1/optiga/comms/ifx_i2c/ifx_i2c_physical_layer.c ****                     p_ctx->pl.negotiate_state = PL_INIT_READ_FREQ;
 503              	 .loc 1 428 0
 504 00c6 0323     	 mov r3,#3
 505              	.LVL49:
 506 00c8 6A46     	 mov r2,sp
 507 00ca 5370     	 strb r3,[r2,#1]
 429://MAC/Home/Downloads/getstarted-optiga-trust-m/optiga-trust-m-1/optiga/comms/ifx_i2c/ifx_i2c_physical_layer.c ****                     ifx_i2c_pl_write_register(p_ctx, PL_REG_I2C_MODE, PL_REG_LEN_I2C_MODE, i2c_mode
 508              	 .loc 1 429 0
 509 00cc 5233     	 add r3,r3,#82
 510              	.L50:
 511 00ce 6355     	 strb r3,[r4,r5]
 430://MAC/Home/Downloads/getstarted-optiga-trust-m/optiga-trust-m-1/optiga/comms/ifx_i2c/ifx_i2c_physical_layer.c ****                 }
 512              	 .loc 1 430 0
 513 00d0 201C     	 mov r0,r4
 514 00d2 8921     	 mov r1,#137
 515              	.LVL50:
 516 00d4 0222     	 mov r2,#2
 517 00d6 6B46     	 mov r3,sp
 518 00d8 2BE0     	 b .L49
 519              	.LVL51:
 520              	.L38:
 434://MAC/Home/Downloads/getstarted-optiga-trust-m/optiga-trust-m-1/optiga/comms/ifx_i2c/ifx_i2c_physical_layer.c ****                     continue_negotiation = TRUE;
 521              	 .loc 1 434 0
 522 00da D623     	 mov r3,#214
 523              	.LVL52:
 524 00dc 6622     	 mov r2,#102
 525 00de 5B00     	 lsl r3,r3,#1
 526 00e0 E254     	 strb r2,[r4,r3]
 527              	.LVL53:
 528 00e2 95E7     	 b .L44
 529              	.LVL54:
 530              	.L21:
 442://MAC/Home/Downloads/getstarted-optiga-trust-m/optiga-trust-m-1/optiga/comms/ifx_i2c/ifx_i2c_physical_layer.c ****                 ifx_i2c_pl_read_register(p_ctx, PL_REG_MAX_SCL_FREQU, PL_REG_LEN_MAX_SCL_FREQU);
 531              	 .loc 1 442 0
 532 00e4 6623     	 mov r3,#102
 533              	.L47:
 443://MAC/Home/Downloads/getstarted-optiga-trust-m/optiga-trust-m-1/optiga/comms/ifx_i2c/ifx_i2c_physical_layer.c ****             }
 534              	 .loc 1 443 0
 535 00e6 201C     	 mov r0,r4
 536 00e8 8421     	 mov r1,#132
 537              	.LVL55:
 538 00ea 0422     	 mov r2,#4
 442://MAC/Home/Downloads/getstarted-optiga-trust-m/optiga-trust-m-1/optiga/comms/ifx_i2c/ifx_i2c_physical_layer.c ****                 ifx_i2c_pl_read_register(p_ctx, PL_REG_MAX_SCL_FREQU, PL_REG_LEN_MAX_SCL_FREQU);
 539              	 .loc 1 442 0
 540 00ec 6355     	 strb r3,[r4,r5]
 541              	.LVL56:
 542              	.L48:
 443://MAC/Home/Downloads/getstarted-optiga-trust-m/optiga-trust-m-1/optiga/comms/ifx_i2c/ifx_i2c_physical_layer.c ****             }
 543              	 .loc 1 443 0
 544 00ee FFF7FEFF 	 bl ifx_i2c_pl_read_register
 545              	.LVL57:
 445://MAC/Home/Downloads/getstarted-optiga-trust-m/optiga-trust-m-1/optiga/comms/ifx_i2c/ifx_i2c_physical_layer.c ****             // Verify the requested frequency and slave's supported frequency
 546              	 .loc 1 445 0
 547 00f2 46E0     	 b .L19
 548              	.LVL58:
 549              	.L30:
 449://MAC/Home/Downloads/getstarted-optiga-trust-m/optiga-trust-m-1/optiga/comms/ifx_i2c/ifx_i2c_physical_layer.c ****                 if (p_ctx->frequency > slave_frequency)
 550              	 .loc 1 449 0
 551 00f4 231C     	 mov r3,r4
 552 00f6 221C     	 mov r2,r4
 553 00f8 8233     	 add r3,r3,#130
 554              	.LVL59:
 555 00fa 8332     	 add r2,r2,#131
 556              	.LVL60:
 557 00fc 1B78     	 ldrb r3,[r3]
 558              	.LVL61:
 559 00fe 1078     	 ldrb r0,[r2]
 450://MAC/Home/Downloads/getstarted-optiga-trust-m/optiga-trust-m-1/optiga/comms/ifx_i2c/ifx_i2c_physical_layer.c ****                 {
 560              	 .loc 1 450 0
 561 0100 6288     	 ldrh r2,[r4,#2]
 562              	.LVL62:
 449://MAC/Home/Downloads/getstarted-optiga-trust-m/optiga-trust-m-1/optiga/comms/ifx_i2c/ifx_i2c_physical_layer.c ****                 if (p_ctx->frequency > slave_frequency)
 563              	 .loc 1 449 0
 564 0102 1B02     	 lsl r3,r3,#8
 450://MAC/Home/Downloads/getstarted-optiga-trust-m/optiga-trust-m-1/optiga/comms/ifx_i2c/ifx_i2c_physical_layer.c ****                 {
 565              	 .loc 1 450 0
 566 0104 0343     	 orr r3,r0
 567 0106 9A42     	 cmp r2,r3
 568 0108 01D9     	 bls .L39
 455://MAC/Home/Downloads/getstarted-optiga-trust-m/optiga-trust-m-1/optiga/comms/ifx_i2c/ifx_i2c_physical_layer.c ****                 }
 569              	 .loc 1 455 0
 570 010a AA23     	 mov r3,#170
 571 010c 08E0     	 b .L45
 572              	.L39:
 459://MAC/Home/Downloads/getstarted-optiga-trust-m/optiga-trust-m-1/optiga/comms/ifx_i2c/ifx_i2c_physical_layer.c ****                 }
 573              	 .loc 1 459 0
 574 010e 7723     	 mov r3,#119
 575 0110 06E0     	 b .L45
 576              	.LVL63:
 577              	.L31:
 468://MAC/Home/Downloads/getstarted-optiga-trust-m/optiga-trust-m-1/optiga/comms/ifx_i2c/ifx_i2c_physical_layer.c ****                 if (IFX_I2C_STACK_SUCCESS == event)
 578              	 .loc 1 468 0
 579 0112 6188     	 ldrh r1,[r4,#2]
 580              	.LVL64:
 581 0114 201C     	 mov r0,r4
 582 0116 FFF7FEFF 	 bl ifx_i2c_pl_set_bit_rate
 583              	.LVL65:
 584 011a 011E     	 sub r1,r0,#0
 585              	.LVL66:
 469://MAC/Home/Downloads/getstarted-optiga-trust-m/optiga-trust-m-1/optiga/comms/ifx_i2c/ifx_i2c_physical_layer.c ****                 {
 586              	 .loc 1 469 0
 587 011c 02D1     	 bne .L40
 471://MAC/Home/Downloads/getstarted-optiga-trust-m/optiga-trust-m-1/optiga/comms/ifx_i2c/ifx_i2c_physical_layer.c ****                     continue_negotiation = TRUE;
 588              	 .loc 1 471 0
 589 011e 1123     	 mov r3,#17
 590              	.LVL67:
 591              	.L45:
 592 0120 6355     	 strb r3,[r4,r5]
 593              	.LVL68:
 594 0122 75E7     	 b .L44
 595              	.LVL69:
 596              	.L40:
 474://MAC/Home/Downloads/getstarted-optiga-trust-m/optiga-trust-m-1/optiga/comms/ifx_i2c/ifx_i2c_physical_layer.c ****                 {
 597              	 .loc 1 474 0
 598 0124 8123     	 mov r3,#129
 599 0126 5B00     	 lsl r3,r3,#1
 600 0128 9842     	 cmp r0,r3
 601 012a 2AD1     	 bne .L19
 476://MAC/Home/Downloads/getstarted-optiga-trust-m/optiga-trust-m-1/optiga/comms/ifx_i2c/ifx_i2c_physical_layer.c ****                     p_buffer = NULL;
 602              	 .loc 1 476 0
 603 012c 583B     	 sub r3,r3,#88
 604 012e 6355     	 strb r3,[r4,r5]
 605 0130 27E0     	 b .L19
 606              	.LVL70:
 607              	.L49:
 486://MAC/Home/Downloads/getstarted-optiga-trust-m/optiga-trust-m-1/optiga/comms/ifx_i2c/ifx_i2c_physical_layer.c ****             }
 608              	 .loc 1 486 0
 609 0132 FFF7FEFF 	 bl ifx_i2c_pl_write_register
 610              	.LVL71:
 488://MAC/Home/Downloads/getstarted-optiga-trust-m/optiga-trust-m-1/optiga/comms/ifx_i2c/ifx_i2c_physical_layer.c ****             // Read the frame length to verify
 611              	 .loc 1 488 0
 612 0136 24E0     	 b .L19
 613              	.LVL72:
 614              	.L23:
 492://MAC/Home/Downloads/getstarted-optiga-trust-m/optiga-trust-m-1/optiga/comms/ifx_i2c/ifx_i2c_physical_layer.c ****                 ifx_i2c_pl_read_register(p_ctx, PL_REG_DATA_REG_LEN, PL_REG_LEN_DATA_REG_LEN);
 615              	 .loc 1 492 0
 616 0138 8823     	 mov r3,#136
 493://MAC/Home/Downloads/getstarted-optiga-trust-m/optiga-trust-m-1/optiga/comms/ifx_i2c/ifx_i2c_physical_layer.c ****             }
 617              	 .loc 1 493 0
 618 013a 201C     	 mov r0,r4
 492://MAC/Home/Downloads/getstarted-optiga-trust-m/optiga-trust-m-1/optiga/comms/ifx_i2c/ifx_i2c_physical_layer.c ****                 ifx_i2c_pl_read_register(p_ctx, PL_REG_DATA_REG_LEN, PL_REG_LEN_DATA_REG_LEN);
 619              	 .loc 1 492 0
 620 013c 6355     	 strb r3,[r4,r5]
 493://MAC/Home/Downloads/getstarted-optiga-trust-m/optiga-trust-m-1/optiga/comms/ifx_i2c/ifx_i2c_physical_layer.c ****             }
 621              	 .loc 1 493 0
 622 013e 8121     	 mov r1,#129
 623              	.LVL73:
 624 0140 0222     	 mov r2,#2
 625 0142 D4E7     	 b .L48
 626              	.LVL74:
 627              	.L28:
 499://MAC/Home/Downloads/getstarted-optiga-trust-m/optiga-trust-m-1/optiga/comms/ifx_i2c/ifx_i2c_physical_layer.c ****                 slave_frame_len = (p_ctx->pl.buffer[0] << 8) | p_ctx->pl.buffer[1];
 628              	 .loc 1 499 0
 629 0144 AA23     	 mov r3,#170
 630 0146 6355     	 strb r3,[r4,r5]
 500://MAC/Home/Downloads/getstarted-optiga-trust-m/optiga-trust-m-1/optiga/comms/ifx_i2c/ifx_i2c_physical_layer.c ****                 // Error if slave's frame length is more than requested frame length
 631              	 .loc 1 500 0
 632 0148 231C     	 mov r3,r4
 633 014a 221C     	 mov r2,r4
 634 014c 8033     	 add r3,r3,#128
 635 014e 1B78     	 ldrb r3,[r3]
 636 0150 8132     	 add r2,r2,#129
 637 0152 1278     	 ldrb r2,[r2]
 638 0154 1B02     	 lsl r3,r3,#8
 639 0156 1343     	 orr r3,r2
 640              	.LVL75:
 502://MAC/Home/Downloads/getstarted-optiga-trust-m/optiga-trust-m-1/optiga/comms/ifx_i2c/ifx_i2c_physical_layer.c ****                 {
 641              	 .loc 1 502 0
 642 0158 A288     	 ldrh r2,[r4,#4]
 643 015a 9A42     	 cmp r2,r3
 644 015c 00D2     	 bcs .LCB620
 645 015e 57E7     	 b .L44
 646              	.LCB620:
 504://MAC/Home/Downloads/getstarted-optiga-trust-m/optiga-trust-m-1/optiga/comms/ifx_i2c/ifx_i2c_physical_layer.c ****                     event = IFX_I2C_STACK_SUCCESS;
 647              	 .loc 1 504 0
 648 0160 A380     	 strh r3,[r4,#4]
 649              	.LVL76:
 505://MAC/Home/Downloads/getstarted-optiga-trust-m/optiga-trust-m-1/optiga/comms/ifx_i2c/ifx_i2c_physical_layer.c ****                 }
 650              	 .loc 1 505 0
 651 0162 0021     	 mov r1,#0
 652              	.LVL77:
 653 0164 54E7     	 b .L44
 654              	.LVL78:
 655              	.L32:
 656 0166 A023     	 mov r3,#160
 516://MAC/Home/Downloads/getstarted-optiga-trust-m/optiga-trust-m-1/optiga/comms/ifx_i2c/ifx_i2c_physical_layer.c ****                 }
 657              	 .loc 1 516 0
 658 0168 0222     	 mov r2,#2
 659 016a FF33     	 add r3,r3,#255
 514://MAC/Home/Downloads/getstarted-optiga-trust-m/optiga-trust-m-1/optiga/comms/ifx_i2c/ifx_i2c_physical_layer.c ****                 {
 660              	 .loc 1 514 0
 661 016c 0029     	 cmp r1,#0
 662 016e 00D0     	 beq .L46
 520://MAC/Home/Downloads/getstarted-optiga-trust-m/optiga-trust-m-1/optiga/comms/ifx_i2c/ifx_i2c_physical_layer.c ****                 }
 663              	 .loc 1 520 0
 664 0170 0022     	 mov r2,#0
 665              	.L46:
 666 0172 E254     	 strb r2,[r4,r3]
 523://MAC/Home/Downloads/getstarted-optiga-trust-m/optiga-trust-m-1/optiga/comms/ifx_i2c/ifx_i2c_physical_layer.c ****             }
 667              	 .loc 1 523 0
 668 0174 D423     	 mov r3,#212
 669 0176 0022     	 mov r2,#0
 670 0178 5B00     	 lsl r3,r3,#1
 671 017a E558     	 ldr r5,[r4,r3]
 672 017c 201C     	 mov r0,r4
 673 017e 131C     	 mov r3,r2
 674 0180 A847     	 blx r5
 675              	.LVL79:
 676              	.L19:
 530://MAC/Home/Downloads/getstarted-optiga-trust-m/optiga-trust-m-1/optiga/comms/ifx_i2c/ifx_i2c_physical_layer.c **** 
 677              	 .loc 1 530 0
 678              	 
 679              	.LVL80:
 680 0182 73BD     	 pop {r0,r1,r4,r5,r6,pc}
 681              	.L52:
 682              	 .align 2
 683              	.L51:
 684 0184 00000000 	 .word ifx_i2c_pl_negotiation_event_handler
 685 0188 E02E0000 	 .word 12000
 686              	 .cfi_endproc
 687              	.LFE8:
 689              	 .section .text.ifx_i2c_pl_frame_event_handler,"ax",%progbits
 690              	 .align 1
 691              	 .code 16
 692              	 .thumb_func
 694              	ifx_i2c_pl_frame_event_handler:
 695              	.LFB9:
 534://MAC/Home/Downloads/getstarted-optiga-trust-m/optiga-trust-m-1/optiga/comms/ifx_i2c/ifx_i2c_physical_layer.c ****     uint32_t time_stamp_diff;
 696              	 .loc 1 534 0
 697              	 .cfi_startproc
 698              	.LVL81:
 699 0000 38B5     	 push {r3,r4,r5,lr}
 700              	.LCFI6:
 701              	 .cfi_def_cfa_offset 16
 702              	 .cfi_offset 3,-16
 703              	 .cfi_offset 4,-12
 704              	 .cfi_offset 5,-8
 705              	 .cfi_offset 14,-4
 706 0002 A025     	 mov r5,#160
 534://MAC/Home/Downloads/getstarted-optiga-trust-m/optiga-trust-m-1/optiga/comms/ifx_i2c/ifx_i2c_physical_layer.c ****     uint32_t time_stamp_diff;
 707              	 .loc 1 534 0
 708 0004 041C     	 mov r4,r0
 709 0006 0B1C     	 mov r3,r1
 710 0008 FF35     	 add r5,r5,#255
 538://MAC/Home/Downloads/getstarted-optiga-trust-m/optiga-trust-m-1/optiga/comms/ifx_i2c/ifx_i2c_physical_layer.c ****     {
 711              	 .loc 1 538 0
 712 000a 0029     	 cmp r1,#0
 713 000c 05D0     	 beq .L54
 540://MAC/Home/Downloads/getstarted-optiga-trust-m/optiga-trust-m-1/optiga/comms/ifx_i2c/ifx_i2c_physical_layer.c ****         // I2C read or write failed, report to upper layer
 714              	 .loc 1 540 0
 715 000e 0222     	 mov r2,#2
 716 0010 4255     	 strb r2,[r0,r5]
 542://MAC/Home/Downloads/getstarted-optiga-trust-m/optiga-trust-m-1/optiga/comms/ifx_i2c/ifx_i2c_physical_layer.c ****     }
 717              	 .loc 1 542 0
 718 0012 A732     	 add r2,r2,#167
 719 0014 FF32     	 add r2,r2,#255
 720 0016 8558     	 ldr r5,[r0,r2]
 721 0018 5DE0     	 b .L77
 722              	.L54:
 546://MAC/Home/Downloads/getstarted-optiga-trust-m/optiga-trust-m-1/optiga/comms/ifx_i2c/ifx_i2c_physical_layer.c ****         {
 723              	 .loc 1 546 0
 724 001a 405D     	 ldrb r0,[r0,r5]
 725              	.LVL82:
 726 001c 0138     	 sub r0,r0,#1
 727 001e 0428     	 cmp r0,#4
 728 0020 69D8     	 bhi .L56
 729 0022 FFF7FEFF 	 bl __gnu_thumb1_case_uqi
 730              	.L58:
 731 0026 07       	 .byte (.L57-.L58)/2
 732 0027 0B       	 .byte (.L59-.L58)/2
 733 0028 16       	 .byte (.L60-.L58)/2
 734 0029 5B       	 .byte (.L61-.L58)/2
 735 002a 03       	 .byte (.L62-.L58)/2
 736 002b 00       	 .p2align 1
 737              	.L62:
 551://MAC/Home/Downloads/getstarted-optiga-trust-m/optiga-trust-m-1/optiga/comms/ifx_i2c/ifx_i2c_physical_layer.c ****             }
 738              	 .loc 1 551 0
 739 002c 201C     	 mov r0,r4
 740 002e FFF7FEFF 	 bl ifx_i2c_pl_soft_reset
 741              	.LVL83:
 553://MAC/Home/Downloads/getstarted-optiga-trust-m/optiga-trust-m-1/optiga/comms/ifx_i2c/ifx_i2c_physical_layer.c ****             // Negotiate frame and frequency with slave
 742              	 .loc 1 553 0
 743 0032 6AE0     	 b .L53
 744              	.LVL84:
 745              	.L57:
 557://MAC/Home/Downloads/getstarted-optiga-trust-m/optiga-trust-m-1/optiga/comms/ifx_i2c/ifx_i2c_physical_layer.c ****             }
 746              	 .loc 1 557 0
 747 0034 201C     	 mov r0,r4
 748 0036 FFF7FEFF 	 bl ifx_i2c_pl_negotiation_event_handler
 749              	.LVL85:
 559://MAC/Home/Downloads/getstarted-optiga-trust-m/optiga-trust-m-1/optiga/comms/ifx_i2c/ifx_i2c_physical_layer.c ****             // Check status of slave data
 750              	 .loc 1 559 0
 751 003a 66E0     	 b .L53
 752              	.LVL86:
 753              	.L59:
 564://MAC/Home/Downloads/getstarted-optiga-trust-m/optiga-trust-m-1/optiga/comms/ifx_i2c/ifx_i2c_physical_layer.c ****                 if (PL_ACTION_READ_FRAME == p_ctx->pl.frame_action)
 754              	 .loc 1 564 0
 755 003c 0323     	 mov r3,#3
 756 003e 6355     	 strb r3,[r4,r5]
 565://MAC/Home/Downloads/getstarted-optiga-trust-m/optiga-trust-m-1/optiga/comms/ifx_i2c/ifx_i2c_physical_layer.c ****                 {
 757              	 .loc 1 565 0
 758 0040 9C33     	 add r3,r3,#156
 759 0042 FF33     	 add r3,r3,#255
 760 0044 E35C     	 ldrb r3,[r4,r3]
 761 0046 022B     	 cmp r3,#2
 762 0048 03D1     	 bne .L60
 567://MAC/Home/Downloads/getstarted-optiga-trust-m/optiga-trust-m-1/optiga/comms/ifx_i2c/ifx_i2c_physical_layer.c ****                     break;
 763              	 .loc 1 567 0
 764 004a 201C     	 mov r0,r4
 765 004c 8221     	 mov r1,#130
 766              	.LVL87:
 767 004e 0422     	 mov r2,#4
 768 0050 18E0     	 b .L75
 769              	.LVL88:
 770              	.L60:
 576://MAC/Home/Downloads/getstarted-optiga-trust-m/optiga-trust-m-1/optiga/comms/ifx_i2c/ifx_i2c_physical_layer.c ****                 && (0 != (p_ctx->pl.buffer[0] & PL_REG_I2C_STATE_RESPONSE_READY)))
 771              	 .loc 1 576 0
 772 0052 CF23     	 mov r3,#207
 773 0054 5B00     	 lsl r3,r3,#1
 774 0056 E35C     	 ldrb r3,[r4,r3]
 775 0058 022B     	 cmp r3,#2
 776 005a 16D1     	 bne .L63
 577://MAC/Home/Downloads/getstarted-optiga-trust-m/optiga-trust-m-1/optiga/comms/ifx_i2c/ifx_i2c_physical_layer.c ****                 {
 777              	 .loc 1 577 0
 778 005c 231C     	 mov r3,r4
 779 005e 8033     	 add r3,r3,#128
 780 0060 1B78     	 ldrb r3,[r3]
 781 0062 5B06     	 lsl r3,r3,#25
 782 0064 1FD5     	 bpl .L64
 579://MAC/Home/Downloads/getstarted-optiga-trust-m/optiga-trust-m-1/optiga/comms/ifx_i2c/ifx_i2c_physical_layer.c ****                     if ((frame_size > 0) && (frame_size <= p_ctx->frame_size))
 783              	 .loc 1 579 0
 784 0066 231C     	 mov r3,r4
 785 0068 8233     	 add r3,r3,#130
 786 006a 1A78     	 ldrb r2,[r3]
 787 006c 0133     	 add r3,r3,#1
 788 006e 1B78     	 ldrb r3,[r3]
 789 0070 1202     	 lsl r2,r2,#8
 790 0072 1A43     	 orr r2,r3
 791              	.LVL89:
 580://MAC/Home/Downloads/getstarted-optiga-trust-m/optiga-trust-m-1/optiga/comms/ifx_i2c/ifx_i2c_physical_layer.c ****                     {
 792              	 .loc 1 580 0
 793 0074 17D0     	 beq .L64
 580://MAC/Home/Downloads/getstarted-optiga-trust-m/optiga-trust-m-1/optiga/comms/ifx_i2c/ifx_i2c_physical_layer.c ****                     {
 794              	 .loc 1 580 0 is_stmt 0 discriminator 1
 795 0076 A388     	 ldrh r3,[r4,#4]
 796 0078 9342     	 cmp r3,r2
 797 007a 14D3     	 bcc .L64
 582://MAC/Home/Downloads/getstarted-optiga-trust-m/optiga-trust-m-1/optiga/comms/ifx_i2c/ifx_i2c_physical_layer.c ****                         ifx_i2c_pl_read_register(p_ctx,PL_REG_DATA, frame_size);
 798              	 .loc 1 582 0 is_stmt 1
 799 007c 0423     	 mov r3,#4
 583://MAC/Home/Downloads/getstarted-optiga-trust-m/optiga-trust-m-1/optiga/comms/ifx_i2c/ifx_i2c_physical_layer.c ****                     }
 800              	 .loc 1 583 0
 801 007e 201C     	 mov r0,r4
 802 0080 8021     	 mov r1,#128
 803              	.LVL90:
 582://MAC/Home/Downloads/getstarted-optiga-trust-m/optiga-trust-m-1/optiga/comms/ifx_i2c/ifx_i2c_physical_layer.c ****                         ifx_i2c_pl_read_register(p_ctx,PL_REG_DATA, frame_size);
 804              	 .loc 1 582 0
 805 0082 6355     	 strb r3,[r4,r5]
 806              	.LVL91:
 807              	.L75:
 583://MAC/Home/Downloads/getstarted-optiga-trust-m/optiga-trust-m-1/optiga/comms/ifx_i2c/ifx_i2c_physical_layer.c ****                     }
 808              	 .loc 1 583 0
 809 0084 FFF7FEFF 	 bl ifx_i2c_pl_read_register
 810              	.LVL92:
 811 0088 3FE0     	 b .L53
 812              	.LVL93:
 813              	.L63:
 610://MAC/Home/Downloads/getstarted-optiga-trust-m/optiga-trust-m-1/optiga/comms/ifx_i2c/ifx_i2c_physical_layer.c ****                 {
 814              	 .loc 1 610 0
 815 008a 012B     	 cmp r3,#1
 816 008c 0BD1     	 bne .L64
 613://MAC/Home/Downloads/getstarted-optiga-trust-m/optiga-trust-m-1/optiga/comms/ifx_i2c/ifx_i2c_physical_layer.c ****                     ifx_i2c_pl_write_register(p_ctx,
 817              	 .loc 1 613 0
 818 008e 0333     	 add r3,r3,#3
 819 0090 6355     	 strb r3,[r4,r5]
 614://MAC/Home/Downloads/getstarted-optiga-trust-m/optiga-trust-m-1/optiga/comms/ifx_i2c/ifx_i2c_physical_layer.c ****                                               PL_REG_DATA,
 820              	 .loc 1 614 0
 821 0092 A133     	 add r3,r3,#161
 822 0094 FF33     	 add r3,r3,#255
 823 0096 E25A     	 ldrh r2,[r4,r3]
 824 0098 043B     	 sub r3,r3,#4
 825 009a 201C     	 mov r0,r4
 826 009c 8021     	 mov r1,#128
 827              	.LVL94:
 828 009e E358     	 ldr r3,[r4,r3]
 829 00a0 FFF7FEFF 	 bl ifx_i2c_pl_write_register
 830              	.LVL95:
 831 00a4 31E0     	 b .L53
 832              	.LVL96:
 833              	.L64:
 622://MAC/Home/Downloads/getstarted-optiga-trust-m/optiga-trust-m-1/optiga/comms/ifx_i2c/ifx_i2c_physical_layer.c ****                     time_stamp_diff = (current_time - p_ctx->dl.frame_start_time);
 834              	 .loc 1 622 0
 835 00a6 FFF7FEFF 	 bl pal_os_timer_get_time_in_milliseconds
 836              	.LVL97:
 623://MAC/Home/Downloads/getstarted-optiga-trust-m/optiga-trust-m-1/optiga/comms/ifx_i2c/ifx_i2c_physical_layer.c ****                     if (p_ctx->dl.frame_start_time > current_time)
 837              	 .loc 1 623 0
 838 00aa A36F     	 ldr r3,[r4,#120]
 839 00ac C01A     	 sub r0,r0,r3
 840              	.LVL98:
 630://MAC/Home/Downloads/getstarted-optiga-trust-m/optiga-trust-m-1/optiga/comms/ifx_i2c/ifx_i2c_physical_layer.c ****                     {
 841              	 .loc 1 630 0
 842 00ae A36E     	 ldr r3,[r4,#104]
 843 00b0 9842     	 cmp r0,r3
 844 00b2 08D2     	 bcs .L67
 632://MAC/Home/Downloads/getstarted-optiga-trust-m/optiga-trust-m-1/optiga/comms/ifx_i2c/ifx_i2c_physical_layer.c ****                                                                ifx_i2c_pl_status_poll_callback,
 845              	 .loc 1 632 0
 846 00b4 9A23     	 mov r3,#154
 847 00b6 DB00     	 lsl r3,r3,#3
 848 00b8 E058     	 ldr r0,[r4,r3]
 849              	.LVL99:
 850 00ba 1449     	 ldr r1,.L79
 851 00bc 221C     	 mov r2,r4
 852 00be 144B     	 ldr r3,.L79+4
 853 00c0 FFF7FEFF 	 bl pal_os_event_register_callback_oneshot
 854              	.LVL100:
 855 00c4 21E0     	 b .L53
 856              	.LVL101:
 857              	.L67:
 639://MAC/Home/Downloads/getstarted-optiga-trust-m/optiga-trust-m-1/optiga/comms/ifx_i2c/ifx_i2c_physical_layer.c ****                         p_ctx->pl.upper_layer_event_handler(p_ctx, IFX_I2C_STACK_ERROR, 0, 0);
 858              	 .loc 1 639 0
 859 00c6 0223     	 mov r3,#2
 640://MAC/Home/Downloads/getstarted-optiga-trust-m/optiga-trust-m-1/optiga/comms/ifx_i2c/ifx_i2c_physical_layer.c ****                     }
 860              	 .loc 1 640 0
 861 00c8 8121     	 mov r1,#129
 862 00ca 201C     	 mov r0,r4
 863              	.LVL102:
 639://MAC/Home/Downloads/getstarted-optiga-trust-m/optiga-trust-m-1/optiga/comms/ifx_i2c/ifx_i2c_physical_layer.c ****                         p_ctx->pl.upper_layer_event_handler(p_ctx, IFX_I2C_STACK_ERROR, 0, 0);
 864              	 .loc 1 639 0
 865 00cc 6355     	 strb r3,[r4,r5]
 640://MAC/Home/Downloads/getstarted-optiga-trust-m/optiga-trust-m-1/optiga/comms/ifx_i2c/ifx_i2c_physical_layer.c ****                     }
 866              	 .loc 1 640 0
 867 00ce A733     	 add r3,r3,#167
 868 00d0 FF33     	 add r3,r3,#255
 869 00d2 E558     	 ldr r5,[r4,r3]
 870 00d4 4900     	 lsl r1,r1,#1
 871              	.LVL103:
 872              	.L77:
 873 00d6 0022     	 mov r2,#0
 874 00d8 131C     	 mov r3,r2
 875 00da 15E0     	 b .L74
 876              	.LVL104:
 877              	.L61:
 649://MAC/Home/Downloads/getstarted-optiga-trust-m/optiga-trust-m-1/optiga/comms/ifx_i2c/ifx_i2c_physical_layer.c ****                 p_ctx->pl.upper_layer_event_handler(p_ctx,IFX_I2C_STACK_SUCCESS,
 878              	 .loc 1 649 0
 879 00dc 0223     	 mov r3,#2
 650://MAC/Home/Downloads/getstarted-optiga-trust-m/optiga-trust-m-1/optiga/comms/ifx_i2c/ifx_i2c_physical_layer.c ****                                                     p_ctx->pl.buffer,
 880              	 .loc 1 650 0
 881 00de D421     	 mov r1,#212
 882              	.LVL105:
 651://MAC/Home/Downloads/getstarted-optiga-trust-m/optiga-trust-m-1/optiga/comms/ifx_i2c/ifx_i2c_physical_layer.c ****                                                     p_ctx->pl.buffer_rx_len);
 883              	 .loc 1 651 0
 884 00e0 221C     	 mov r2,r4
 649://MAC/Home/Downloads/getstarted-optiga-trust-m/optiga-trust-m-1/optiga/comms/ifx_i2c/ifx_i2c_physical_layer.c ****                 p_ctx->pl.upper_layer_event_handler(p_ctx,IFX_I2C_STACK_SUCCESS,
 885              	 .loc 1 649 0
 886 00e2 6355     	 strb r3,[r4,r5]
 650://MAC/Home/Downloads/getstarted-optiga-trust-m/optiga-trust-m-1/optiga/comms/ifx_i2c/ifx_i2c_physical_layer.c ****                                                     p_ctx->pl.buffer,
 887              	 .loc 1 650 0
 888 00e4 9733     	 add r3,r3,#151
 889 00e6 4900     	 lsl r1,r1,#1
 890 00e8 FF33     	 add r3,r3,#255
 891 00ea 6558     	 ldr r5,[r4,r1]
 651://MAC/Home/Downloads/getstarted-optiga-trust-m/optiga-trust-m-1/optiga/comms/ifx_i2c/ifx_i2c_physical_layer.c ****                                                     p_ctx->pl.buffer_rx_len);
 892              	 .loc 1 651 0
 893 00ec 8032     	 add r2,r2,#128
 650://MAC/Home/Downloads/getstarted-optiga-trust-m/optiga-trust-m-1/optiga/comms/ifx_i2c/ifx_i2c_physical_layer.c ****                                                     p_ctx->pl.buffer,
 894              	 .loc 1 650 0
 895 00ee E35A     	 ldrh r3,[r4,r3]
 896 00f0 201C     	 mov r0,r4
 897 00f2 0021     	 mov r1,#0
 898 00f4 08E0     	 b .L74
 899              	.LVL106:
 900              	.L56:
 658://MAC/Home/Downloads/getstarted-optiga-trust-m/optiga-trust-m-1/optiga/comms/ifx_i2c/ifx_i2c_physical_layer.c ****                 p_ctx->pl.upper_layer_event_handler(p_ctx, IFX_I2C_STACK_ERROR, 0, 0);
 901              	 .loc 1 658 0
 902 00f6 0122     	 mov r2,#1
 903 00f8 6255     	 strb r2,[r4,r5]
 659://MAC/Home/Downloads/getstarted-optiga-trust-m/optiga-trust-m-1/optiga/comms/ifx_i2c/ifx_i2c_physical_layer.c ****             }
 904              	 .loc 1 659 0
 905 00fa A832     	 add r2,r2,#168
 906 00fc FF32     	 add r2,r2,#255
 907 00fe 8121     	 mov r1,#129
 908              	.LVL107:
 909 0100 A558     	 ldr r5,[r4,r2]
 910 0102 201C     	 mov r0,r4
 911 0104 1A1C     	 mov r2,r3
 912 0106 4900     	 lsl r1,r1,#1
 913              	.LVL108:
 914              	.L74:
 915 0108 A847     	 blx r5
 916              	.LVL109:
 917              	.L53:
 664://MAC/Home/Downloads/getstarted-optiga-trust-m/optiga-trust-m-1/optiga/comms/ifx_i2c/ifx_i2c_physical_layer.c **** 
 918              	 .loc 1 664 0
 919              	 
 920              	.LVL110:
 921 010a 38BD     	 pop {r3,r4,r5,pc}
 922              	.L80:
 923              	 .align 2
 924              	.L79:
 925 010c 00000000 	 .word ifx_i2c_pl_status_poll_callback
 926 0110 88130000 	 .word 5000
 927              	 .cfi_endproc
 928              	.LFE9:
 930              	 .section .text.ifx_i2c_pl_soft_reset,"ax",%progbits
 931              	 .align 1
 932              	 .code 16
 933              	 .thumb_func
 935              	ifx_i2c_pl_soft_reset:
 936              	.LFB13:
 742://MAC/Home/Downloads/getstarted-optiga-trust-m/optiga-trust-m-1/optiga/comms/ifx_i2c/ifx_i2c_physical_layer.c ****     uint8_t i2c_mode_value[2] = {0};
 937              	 .loc 1 742 0
 938              	 .cfi_startproc
 939              	.LVL111:
 940 0000 37B5     	 push {r0,r1,r2,r4,r5,lr}
 941              	.LCFI7:
 942              	 .cfi_def_cfa_offset 24
 943              	 .cfi_offset 0,-24
 944              	 .cfi_offset 1,-20
 945              	 .cfi_offset 2,-16
 946              	 .cfi_offset 4,-12
 947              	 .cfi_offset 5,-8
 948              	 .cfi_offset 14,-4
 743://MAC/Home/Downloads/getstarted-optiga-trust-m/optiga-trust-m-1/optiga/comms/ifx_i2c/ifx_i2c_physical_layer.c ****     switch (p_ctx->pl.request_soft_reset)
 949              	 .loc 1 743 0
 950 0002 0022     	 mov r2,#0
 744://MAC/Home/Downloads/getstarted-optiga-trust-m/optiga-trust-m-1/optiga/comms/ifx_i2c/ifx_i2c_physical_layer.c ****     {
 951              	 .loc 1 744 0
 952 0004 AE21     	 mov r1,#174
 743://MAC/Home/Downloads/getstarted-optiga-trust-m/optiga-trust-m-1/optiga/comms/ifx_i2c/ifx_i2c_physical_layer.c ****     switch (p_ctx->pl.request_soft_reset)
 953              	 .loc 1 743 0
 954 0006 01AB     	 add r3,sp,#4
 955 0008 1A80     	 strh r2,[r3]
 744://MAC/Home/Downloads/getstarted-optiga-trust-m/optiga-trust-m-1/optiga/comms/ifx_i2c/ifx_i2c_physical_layer.c ****     {
 956              	 .loc 1 744 0
 957 000a FF31     	 add r1,r1,#255
 958 000c 445C     	 ldrb r4,[r0,r1]
 959 000e 993C     	 sub r4,r4,#153
 960 0010 0A2C     	 cmp r4,#10
 961 0012 3BD8     	 bhi .L81
 962 0014 021C     	 mov r2,r0
 963 0016 201C     	 mov r0,r4
 964              	.LVL112:
 965 0018 FFF7FEFF 	 bl __gnu_thumb1_case_uqi
 966              	.L84:
 967 001c 06       	 .byte (.L83-.L84)/2
 968 001d 38       	 .byte (.L81-.L84)/2
 969 001e 38       	 .byte (.L81-.L84)/2
 970 001f 38       	 .byte (.L81-.L84)/2
 971 0020 38       	 .byte (.L81-.L84)/2
 972 0021 38       	 .byte (.L81-.L84)/2
 973 0022 38       	 .byte (.L81-.L84)/2
 974 0023 38       	 .byte (.L81-.L84)/2
 975 0024 30       	 .byte (.L85-.L84)/2
 976 0025 0E       	 .byte (.L86-.L84)/2
 977 0026 26       	 .byte (.L87-.L84)/2
 978 0027 00       	 .p2align 1
 979              	.L83:
 748://MAC/Home/Downloads/getstarted-optiga-trust-m/optiga-trust-m-1/optiga/comms/ifx_i2c/ifx_i2c_physical_layer.c ****             //Read the status register to check if soft reset is supported
 980              	 .loc 1 748 0
 981 0028 A223     	 mov r3,#162
 750://MAC/Home/Downloads/getstarted-optiga-trust-m/optiga-trust-m-1/optiga/comms/ifx_i2c/ifx_i2c_physical_layer.c ****             break;
 982              	 .loc 1 750 0
 983 002a 101C     	 mov r0,r2
 748://MAC/Home/Downloads/getstarted-optiga-trust-m/optiga-trust-m-1/optiga/comms/ifx_i2c/ifx_i2c_physical_layer.c ****             //Read the status register to check if soft reset is supported
 984              	 .loc 1 748 0
 985 002c 5354     	 strb r3,[r2,r1]
 750://MAC/Home/Downloads/getstarted-optiga-trust-m/optiga-trust-m-1/optiga/comms/ifx_i2c/ifx_i2c_physical_layer.c ****             break;
 986              	 .loc 1 750 0
 987 002e 8221     	 mov r1,#130
 988 0030 0422     	 mov r2,#4
 989              	.LVL113:
 990 0032 FFF7FEFF 	 bl ifx_i2c_pl_read_register
 991              	.LVL114:
 751://MAC/Home/Downloads/getstarted-optiga-trust-m/optiga-trust-m-1/optiga/comms/ifx_i2c/ifx_i2c_physical_layer.c ****         }
 992              	 .loc 1 751 0
 993 0036 29E0     	 b .L81
 994              	.LVL115:
 995              	.L86:
 756://MAC/Home/Downloads/getstarted-optiga-trust-m/optiga-trust-m-1/optiga/comms/ifx_i2c/ifx_i2c_physical_layer.c ****             if (PL_REG_I2C_STATE_SOFT_RESET == p_ctx->pl.buffer[0])
 996              	 .loc 1 756 0
 997 0038 141C     	 mov r4,r2
 998 003a 0820     	 mov r0,#8
 999 003c 8034     	 add r4,r4,#128
 1000 003e 2578     	 ldrb r5,[r4]
 1001 0040 2840     	 and r0,r5
 1002 0042 2070     	 strb r0,[r4]
 757://MAC/Home/Downloads/getstarted-optiga-trust-m/optiga-trust-m-1/optiga/comms/ifx_i2c/ifx_i2c_physical_layer.c ****             {
 1003              	 .loc 1 757 0
 1004 0044 0828     	 cmp r0,#8
 1005 0046 07D1     	 bne .L88
 759://MAC/Home/Downloads/getstarted-optiga-trust-m/optiga-trust-m-1/optiga/comms/ifx_i2c/ifx_i2c_physical_layer.c ****                 //Write 88 register with 0 value
 1006              	 .loc 1 759 0
 1007 0048 9B30     	 add r0,r0,#155
 1008 004a 5054     	 strb r0,[r2,r1]
 761://MAC/Home/Downloads/getstarted-optiga-trust-m/optiga-trust-m-1/optiga/comms/ifx_i2c/ifx_i2c_physical_layer.c ****             }
 1009              	 .loc 1 761 0
 1010 004c 101C     	 mov r0,r2
 1011 004e 8821     	 mov r1,#136
 1012 0050 0222     	 mov r2,#2
 1013              	.LVL116:
 1014 0052 FFF7FEFF 	 bl ifx_i2c_pl_write_register
 1015              	.LVL117:
 1016 0056 19E0     	 b .L81
 1017              	.LVL118:
 1018              	.L88:
 766://MAC/Home/Downloads/getstarted-optiga-trust-m/optiga-trust-m-1/optiga/comms/ifx_i2c/ifx_i2c_physical_layer.c ****                 ifx_i2c_pl_frame_event_handler(p_ctx, IFX_I2C_STACK_ERROR);
 1019              	 .loc 1 766 0
 1020 0058 A023     	 mov r3,#160
 1021 005a 0021     	 mov r1,#0
 1022 005c FF33     	 add r3,r3,#255
 1023 005e D154     	 strb r1,[r2,r3]
 767://MAC/Home/Downloads/getstarted-optiga-trust-m/optiga-trust-m-1/optiga/comms/ifx_i2c/ifx_i2c_physical_layer.c ****             }
 1024              	 .loc 1 767 0
 1025 0060 0331     	 add r1,r1,#3
 1026 0062 101C     	 mov r0,r2
 1027 0064 FF31     	 add r1,r1,#255
 1028 0066 0FE0     	 b .L89
 1029              	.L87:
 773://MAC/Home/Downloads/getstarted-optiga-trust-m/optiga-trust-m-1/optiga/comms/ifx_i2c/ifx_i2c_physical_layer.c ****             pal_os_event_register_callback_oneshot(p_ctx->pal_os_event_ctx,(register_callback)ifx_i
 1030              	 .loc 1 773 0
 1031 0068 A123     	 mov r3,#161
 1032 006a 5354     	 strb r3,[r2,r1]
 774://MAC/Home/Downloads/getstarted-optiga-trust-m/optiga-trust-m-1/optiga/comms/ifx_i2c/ifx_i2c_physical_layer.c ****                                                    (void * )p_ctx,
 1033              	 .loc 1 774 0
 1034 006c 9A23     	 mov r3,#154
 1035 006e DB00     	 lsl r3,r3,#3
 1036 0070 D058     	 ldr r0,[r2,r3]
 1037 0072 0749     	 ldr r1,.L90
 1038 0074 074B     	 ldr r3,.L90+4
 1039 0076 FFF7FEFF 	 bl pal_os_event_register_callback_oneshot
 1040              	.LVL119:
 777://MAC/Home/Downloads/getstarted-optiga-trust-m/optiga-trust-m-1/optiga/comms/ifx_i2c/ifx_i2c_physical_layer.c ****         }
 1041              	 .loc 1 777 0
 1042 007a 07E0     	 b .L81
 1043              	.LVL120:
 1044              	.L85:
 781://MAC/Home/Downloads/getstarted-optiga-trust-m/optiga-trust-m-1/optiga/comms/ifx_i2c/ifx_i2c_physical_layer.c ****             ifx_i2c_pl_frame_event_handler(p_ctx, IFX_I2C_STACK_SUCCESS);
 1045              	 .loc 1 781 0
 1046 007c A023     	 mov r3,#160
 1047 007e 0121     	 mov r1,#1
 1048 0080 FF33     	 add r3,r3,#255
 1049 0082 D154     	 strb r1,[r2,r3]
 782://MAC/Home/Downloads/getstarted-optiga-trust-m/optiga-trust-m-1/optiga/comms/ifx_i2c/ifx_i2c_physical_layer.c ****             break;
 1050              	 .loc 1 782 0
 1051 0084 101C     	 mov r0,r2
 1052 0086 0021     	 mov r1,#0
 1053              	.LVL121:
 1054              	.L89:
 1055 0088 FFF7FEFF 	 bl ifx_i2c_pl_frame_event_handler
 1056              	.LVL122:
 1057              	.L81:
 788://MAC/Home/Downloads/getstarted-optiga-trust-m/optiga-trust-m-1/optiga/comms/ifx_i2c/ifx_i2c_physical_layer.c **** 
 1058              	 .loc 1 788 0
 1059              	 
 1060 008c 37BD     	 pop {r0,r1,r2,r4,r5,pc}
 1061              	.L91:
 1062 008e C046     	 .align 2
 1063              	.L90:
 1064 0090 00000000 	 .word ifx_i2c_pl_soft_reset
 1065 0094 E02E0000 	 .word 12000
 1066              	 .cfi_endproc
 1067              	.LFE13:
 1069              	 .section .text.ifx_i2c_pl_pal_event_handler,"ax",%progbits
 1070              	 .align 1
 1071              	 .code 16
 1072              	 .thumb_func
 1074              	ifx_i2c_pl_pal_event_handler:
 1075              	.LFB12:
 710://MAC/Home/Downloads/getstarted-optiga-trust-m/optiga-trust-m-1/optiga/comms/ifx_i2c/ifx_i2c_physical_layer.c ****     ifx_i2c_context_t * p_local_ctx = (ifx_i2c_context_t * )p_ctx;
 1076              	 .loc 1 710 0
 1077              	 .cfi_startproc
 1078              	.LVL123:
 1079 0000 08B5     	 push {r3,lr}
 1080              	.LCFI8:
 1081              	 .cfi_def_cfa_offset 8
 1082              	 .cfi_offset 3,-8
 1083              	 .cfi_offset 14,-4
 710://MAC/Home/Downloads/getstarted-optiga-trust-m/optiga-trust-m-1/optiga/comms/ifx_i2c/ifx_i2c_physical_layer.c ****     ifx_i2c_context_t * p_local_ctx = (ifx_i2c_context_t * )p_ctx;
 1084              	 .loc 1 710 0
 1085 0002 021C     	 mov r2,r0
 1086              	.LVL124:
 712://MAC/Home/Downloads/getstarted-optiga-trust-m/optiga-trust-m-1/optiga/comms/ifx_i2c/ifx_i2c_physical_layer.c ****     {
 1087              	 .loc 1 712 0
 1088 0004 0029     	 cmp r1,#0
 1089 0006 14D0     	 beq .L94
 1090 0008 0229     	 cmp r1,#2
 1091 000a 19D8     	 bhi .L92
 717://MAC/Home/Downloads/getstarted-optiga-trust-m/optiga-trust-m-1/optiga/comms/ifx_i2c/ifx_i2c_physical_layer.c ****             {
 1092              	 .loc 1 717 0
 1093 000c CE21     	 mov r1,#206
 1094              	.LVL125:
 1095 000e 4900     	 lsl r1,r1,#1
 1096 0010 435A     	 ldrh r3,[r0,r1]
 1097 0012 581E     	 sub r0,r3,#1
 1098              	.LVL126:
 1099 0014 5052     	 strh r0,[r2,r1]
 1100 0016 002B     	 cmp r3,#0
 1101 0018 05D0     	 beq .L96
 1102              	.LVL127:
 1103              	.LBB12:
 1104              	.LBB13:
 720://MAC/Home/Downloads/getstarted-optiga-trust-m/optiga-trust-m-1/optiga/comms/ifx_i2c/ifx_i2c_physical_layer.c ****                                                         ifx_i2c_pal_poll_callback, p_local_ctx, PL_
 1105              	 .loc 1 720 0
 1106 001a 9A23     	 mov r3,#154
 1107 001c DB00     	 lsl r3,r3,#3
 1108 001e D058     	 ldr r0,[r2,r3]
 1109 0020 0849     	 ldr r1,.L98
 1110 0022 E83B     	 sub r3,r3,#232
 1111 0024 0AE0     	 b .L97
 1112              	.LVL128:
 1113              	.L96:
 1114              	.LBE13:
 1115              	.LBE12:
 726://MAC/Home/Downloads/getstarted-optiga-trust-m/optiga-trust-m-1/optiga/comms/ifx_i2c/ifx_i2c_physical_layer.c ****             }
 1116              	 .loc 1 726 0
 1117 0026 8321     	 mov r1,#131
 1118 0028 101C     	 mov r0,r2
 1119 002a 4900     	 lsl r1,r1,#1
 1120 002c FFF7FEFF 	 bl ifx_i2c_pl_frame_event_handler
 1121              	.LVL129:
 1122 0030 06E0     	 b .L92
 1123              	.LVL130:
 1124              	.L94:
 732://MAC/Home/Downloads/getstarted-optiga-trust-m/optiga-trust-m-1/optiga/comms/ifx_i2c/ifx_i2c_physical_layer.c ****                                                     p_local_ctx,PL_GUARD_TIME_INTERVAL_US);
 1125              	 .loc 1 732 0
 1126 0032 9A23     	 mov r3,#154
 1127 0034 DB00     	 lsl r3,r3,#3
 1128 0036 C058     	 ldr r0,[r0,r3]
 1129              	.LVL131:
 1130 0038 3223     	 mov r3,#50
 1131 003a 0349     	 ldr r1,.L98+4
 1132              	.LVL132:
 1133              	.L97:
 1134 003c FFF7FEFF 	 bl pal_os_event_register_callback_oneshot
 1135              	.LVL133:
 1136              	.L92:
 738://MAC/Home/Downloads/getstarted-optiga-trust-m/optiga-trust-m-1/optiga/comms/ifx_i2c/ifx_i2c_physical_layer.c **** 
 1137              	 .loc 1 738 0
 1138              	 
 1139 0040 08BD     	 pop {r3,pc}
 1140              	.L99:
 1141 0042 C046     	 .align 2
 1142              	.L98:
 1143 0044 00000000 	 .word ifx_i2c_pal_poll_callback
 1144 0048 00000000 	 .word ifx_i2c_pl_guard_time_callback
 1145              	 .cfi_endproc
 1146              	.LFE12:
 1148              	 .section .text.ifx_i2c_pl_guard_time_callback,"ax",%progbits
 1149              	 .align 1
 1150              	 .code 16
 1151              	 .thumb_func
 1153              	ifx_i2c_pl_guard_time_callback:
 1154              	.LFB11:
 685://MAC/Home/Downloads/getstarted-optiga-trust-m/optiga-trust-m-1/optiga/comms/ifx_i2c/ifx_i2c_physical_layer.c ****     ifx_i2c_context_t * p_local_ctx = (ifx_i2c_context_t * )p_ctx;
 1155              	 .loc 1 685 0
 1156              	 .cfi_startproc
 1157              	.LVL134:
 1158 0000 08B5     	 push {r3,lr}
 1159              	.LCFI9:
 1160              	 .cfi_def_cfa_offset 8
 1161              	 .cfi_offset 3,-8
 1162              	 .cfi_offset 14,-4
 687://MAC/Home/Downloads/getstarted-optiga-trust-m/optiga-trust-m-1/optiga/comms/ifx_i2c/ifx_i2c_physical_layer.c ****     {
 1163              	 .loc 1 687 0
 1164 0002 CD23     	 mov r3,#205
 1165 0004 5B00     	 lsl r3,r3,#1
 1166 0006 C35C     	 ldrb r3,[r0,r3]
 1167 0008 012B     	 cmp r3,#1
 1168 000a 0FD1     	 bne .L102
 689://MAC/Home/Downloads/getstarted-optiga-trust-m/optiga-trust-m-1/optiga/comms/ifx_i2c/ifx_i2c_physical_layer.c ****         {
 1169              	 .loc 1 689 0
 1170 000c 9C22     	 mov r2,#156
 1171 000e FF32     	 add r2,r2,#255
 1172 0010 835C     	 ldrb r3,[r0,r2]
 1173 0012 012B     	 cmp r3,#1
 1174 0014 0AD1     	 bne .L102
 1175              	.LVL135:
 1176              	.LBB16:
 1177              	.LBB17:
 694://MAC/Home/Downloads/getstarted-optiga-trust-m/optiga-trust-m-1/optiga/comms/ifx_i2c/ifx_i2c_physical_layer.c ****         }
 1178              	 .loc 1 694 0
 1179 0016 011C     	 mov r1,r0
 692://MAC/Home/Downloads/getstarted-optiga-trust-m/optiga-trust-m-1/optiga/comms/ifx_i2c/ifx_i2c_physical_layer.c ****             //lint --e{534} suppress "This is the last statement of asynchronous function hence ret
 1180              	 .loc 1 692 0
 1181 0018 0133     	 add r3,r3,#1
 1182 001a 8354     	 strb r3,[r0,r2]
 694://MAC/Home/Downloads/getstarted-optiga-trust-m/optiga-trust-m-1/optiga/comms/ifx_i2c/ifx_i2c_physical_layer.c ****         }
 1183              	 .loc 1 694 0
 1184 001c 9733     	 add r3,r3,#151
 1185 001e FF33     	 add r3,r3,#255
 1186 0020 C25A     	 ldrh r2,[r0,r3]
 1187 0022 8031     	 add r1,r1,#128
 1188 0024 0069     	 ldr r0,[r0,#16]
 1189              	.LVL136:
 1190 0026 FFF7FEFF 	 bl pal_i2c_read
 1191              	.LVL137:
 1192 002a 04E0     	 b .L100
 1193              	.LVL138:
 1194              	.L102:
 1195              	.LBE17:
 1196              	.LBE16:
 696://MAC/Home/Downloads/getstarted-optiga-trust-m/optiga-trust-m-1/optiga/comms/ifx_i2c/ifx_i2c_physical_layer.c ****         {
 1197              	 .loc 1 696 0
 1198 002c 022B     	 cmp r3,#2
 1199 002e 02D1     	 bne .L100
 699://MAC/Home/Downloads/getstarted-optiga-trust-m/optiga-trust-m-1/optiga/comms/ifx_i2c/ifx_i2c_physical_layer.c ****         }
 1200              	 .loc 1 699 0
 1201 0030 0021     	 mov r1,#0
 1202 0032 FFF7FEFF 	 bl ifx_i2c_pl_frame_event_handler
 1203              	.LVL139:
 1204              	.L100:
 707://MAC/Home/Downloads/getstarted-optiga-trust-m/optiga-trust-m-1/optiga/comms/ifx_i2c/ifx_i2c_physical_layer.c **** 
 1205              	 .loc 1 707 0
 1206              	 
 1207 0036 08BD     	 pop {r3,pc}
 1208              	 .cfi_endproc
 1209              	.LFE11:
 1211              	 .section .text.ifx_i2c_pl_init,"ax",%progbits
 1212              	 .align 1
 1213              	 .global ifx_i2c_pl_init
 1214              	 .code 16
 1215              	 .thumb_func
 1217              	ifx_i2c_pl_init:
 1218              	.LFB0:
 148://MAC/Home/Downloads/getstarted-optiga-trust-m/optiga-trust-m-1/optiga/comms/ifx_i2c/ifx_i2c_physical_layer.c ****     LOG_PL("[IFX-PL]: Init\n");
 1219              	 .loc 1 148 0
 1220              	 .cfi_startproc
 1221              	.LVL140:
 1222 0000 38B5     	 push {r3,r4,r5,lr}
 1223              	.LCFI10:
 1224              	 .cfi_def_cfa_offset 16
 1225              	 .cfi_offset 3,-16
 1226              	 .cfi_offset 4,-12
 1227              	 .cfi_offset 5,-8
 1228              	 .cfi_offset 14,-4
 151://MAC/Home/Downloads/getstarted-optiga-trust-m/optiga-trust-m-1/optiga/comms/ifx_i2c/ifx_i2c_physical_layer.c ****     p_ctx->pl.frame_state = PL_STATE_UNINIT;
 1229              	 .loc 1 151 0
 1230 0002 D423     	 mov r3,#212
 152://MAC/Home/Downloads/getstarted-optiga-trust-m/optiga-trust-m-1/optiga/comms/ifx_i2c/ifx_i2c_physical_layer.c ****     p_ctx->pl.negotiate_state = PL_INIT_SET_FREQ_DEFAULT;
 1231              	 .loc 1 152 0
 1232 0004 A025     	 mov r5,#160
 151://MAC/Home/Downloads/getstarted-optiga-trust-m/optiga-trust-m-1/optiga/comms/ifx_i2c/ifx_i2c_physical_layer.c ****     p_ctx->pl.frame_state = PL_STATE_UNINIT;
 1233              	 .loc 1 151 0
 1234 0006 5B00     	 lsl r3,r3,#1
 1235 0008 C150     	 str r1,[r0,r3]
 152://MAC/Home/Downloads/getstarted-optiga-trust-m/optiga-trust-m-1/optiga/comms/ifx_i2c/ifx_i2c_physical_layer.c ****     p_ctx->pl.negotiate_state = PL_INIT_SET_FREQ_DEFAULT;
 1236              	 .loc 1 152 0
 1237 000a 0023     	 mov r3,#0
 153://MAC/Home/Downloads/getstarted-optiga-trust-m/optiga-trust-m-1/optiga/comms/ifx_i2c/ifx_i2c_physical_layer.c ****     p_ctx->p_pal_i2c_ctx->slave_address = p_ctx->slave_address;
 1238              	 .loc 1 153 0
 1239 000c BB22     	 mov r2,#187
 152://MAC/Home/Downloads/getstarted-optiga-trust-m/optiga-trust-m-1/optiga/comms/ifx_i2c/ifx_i2c_physical_layer.c ****     p_ctx->pl.negotiate_state = PL_INIT_SET_FREQ_DEFAULT;
 1240              	 .loc 1 152 0
 1241 000e FF35     	 add r5,r5,#255
 1242 0010 4355     	 strb r3,[r0,r5]
 153://MAC/Home/Downloads/getstarted-optiga-trust-m/optiga-trust-m-1/optiga/comms/ifx_i2c/ifx_i2c_physical_layer.c ****     p_ctx->p_pal_i2c_ctx->slave_address = p_ctx->slave_address;
 1243              	 .loc 1 153 0
 1244 0012 AD33     	 add r3,r3,#173
 1245 0014 FF33     	 add r3,r3,#255
 1246 0016 C254     	 strb r2,[r0,r3]
 154://MAC/Home/Downloads/getstarted-optiga-trust-m/optiga-trust-m-1/optiga/comms/ifx_i2c/ifx_i2c_physical_layer.c ****     p_ctx->p_pal_i2c_ctx->upper_layer_event_handler = ifx_i2c_pl_pal_event_handler;
 1247              	 .loc 1 154 0
 1248 0018 0378     	 ldrb r3,[r0]
 1249 001a 0269     	 ldr r2,[r0,#16]
 148://MAC/Home/Downloads/getstarted-optiga-trust-m/optiga-trust-m-1/optiga/comms/ifx_i2c/ifx_i2c_physical_layer.c ****     LOG_PL("[IFX-PL]: Init\n");
 1250              	 .loc 1 148 0
 1251 001c 041C     	 mov r4,r0
 154://MAC/Home/Downloads/getstarted-optiga-trust-m/optiga-trust-m-1/optiga/comms/ifx_i2c/ifx_i2c_physical_layer.c ****     p_ctx->p_pal_i2c_ctx->upper_layer_event_handler = ifx_i2c_pl_pal_event_handler;
 1252              	 .loc 1 154 0
 1253 001e 1371     	 strb r3,[r2,#4]
 155://MAC/Home/Downloads/getstarted-optiga-trust-m/optiga-trust-m-1/optiga/comms/ifx_i2c/ifx_i2c_physical_layer.c ****     p_ctx->pl.retry_counter = PL_POLLING_MAX_CNT;
 1254              	 .loc 1 155 0
 1255 0020 0069     	 ldr r0,[r0,#16]
 1256              	.LVL141:
 1257 0022 114B     	 ldr r3,.L118
 156://MAC/Home/Downloads/getstarted-optiga-trust-m/optiga-trust-m-1/optiga/comms/ifx_i2c/ifx_i2c_physical_layer.c ****     if (TRUE == p_ctx->do_pal_init)
 1258              	 .loc 1 156 0
 1259 0024 C822     	 mov r2,#200
 155://MAC/Home/Downloads/getstarted-optiga-trust-m/optiga-trust-m-1/optiga/comms/ifx_i2c/ifx_i2c_physical_layer.c ****     p_ctx->pl.retry_counter = PL_POLLING_MAX_CNT;
 1260              	 .loc 1 155 0
 1261 0026 C360     	 str r3,[r0,#12]
 156://MAC/Home/Downloads/getstarted-optiga-trust-m/optiga-trust-m-1/optiga/comms/ifx_i2c/ifx_i2c_physical_layer.c ****     if (TRUE == p_ctx->do_pal_init)
 1262              	 .loc 1 156 0
 1263 0028 CE23     	 mov r3,#206
 1264 002a 5B00     	 lsl r3,r3,#1
 1265 002c E252     	 strh r2,[r4,r3]
 157://MAC/Home/Downloads/getstarted-optiga-trust-m/optiga-trust-m-1/optiga/comms/ifx_i2c/ifx_i2c_physical_layer.c ****     {
 1266              	 .loc 1 157 0
 1267 002e 231C     	 mov r3,r4
 1268 0030 2F33     	 add r3,r3,#47
 1269 0032 1B78     	 ldrb r3,[r3]
 1270 0034 012B     	 cmp r3,#1
 1271 0036 08D0     	 beq .L109
 1272              	.LVL142:
 1273              	.L113:
 166://MAC/Home/Downloads/getstarted-optiga-trust-m/optiga-trust-m-1/optiga/comms/ifx_i2c/ifx_i2c_physical_layer.c ****     {
 1274              	 .loc 1 166 0
 1275 0038 AE23     	 mov r3,#174
 1276 003a FF33     	 add r3,r3,#255
 1277 003c E25C     	 ldrb r2,[r4,r3]
 1278 003e 012A     	 cmp r2,#1
 1279 0040 0AD1     	 bne .L116
 169://MAC/Home/Downloads/getstarted-optiga-trust-m/optiga-trust-m-1/optiga/comms/ifx_i2c/ifx_i2c_physical_layer.c ****         p_ctx->pl.frame_state = PL_STATE_SOFT_RESET;
 1280              	 .loc 1 169 0
 1281 0042 9922     	 mov r2,#153
 1282 0044 E254     	 strb r2,[r4,r3]
 170://MAC/Home/Downloads/getstarted-optiga-trust-m/optiga-trust-m-1/optiga/comms/ifx_i2c/ifx_i2c_physical_layer.c ****     }
 1283              	 .loc 1 170 0
 1284 0046 0523     	 mov r3,#5
 1285 0048 07E0     	 b .L117
 1286              	.LVL143:
 1287              	.L109:
 160://MAC/Home/Downloads/getstarted-optiga-trust-m/optiga-trust-m-1/optiga/comms/ifx_i2c/ifx_i2c_physical_layer.c ****         {
 1288              	 .loc 1 160 0
 1289 004a FFF7FEFF 	 bl pal_i2c_init
 1290              	.LVL144:
 1291 004e 0028     	 cmp r0,#0
 1292 0050 F2D0     	 beq .L113
 162://MAC/Home/Downloads/getstarted-optiga-trust-m/optiga-trust-m-1/optiga/comms/ifx_i2c/ifx_i2c_physical_layer.c ****         }
 1293              	 .loc 1 162 0
 1294 0052 8120     	 mov r0,#129
 1295 0054 4000     	 lsl r0,r0,#1
 1296 0056 06E0     	 b .L112
 1297              	.L116:
 174://MAC/Home/Downloads/getstarted-optiga-trust-m/optiga-trust-m-1/optiga/comms/ifx_i2c/ifx_i2c_physical_layer.c ****     }
 1298              	 .loc 1 174 0
 1299 0058 0123     	 mov r3,#1
 1300              	.L117:
 177://MAC/Home/Downloads/getstarted-optiga-trust-m/optiga-trust-m-1/optiga/comms/ifx_i2c/ifx_i2c_physical_layer.c **** 
 1301              	 .loc 1 177 0
 1302 005a 201C     	 mov r0,r4
 174://MAC/Home/Downloads/getstarted-optiga-trust-m/optiga-trust-m-1/optiga/comms/ifx_i2c/ifx_i2c_physical_layer.c ****     }
 1303              	 .loc 1 174 0
 1304 005c 6355     	 strb r3,[r4,r5]
 177://MAC/Home/Downloads/getstarted-optiga-trust-m/optiga-trust-m-1/optiga/comms/ifx_i2c/ifx_i2c_physical_layer.c **** 
 1305              	 .loc 1 177 0
 1306 005e 0021     	 mov r1,#0
 1307 0060 FFF7FEFF 	 bl ifx_i2c_pl_frame_event_handler
 1308              	.LVL145:
 179://MAC/Home/Downloads/getstarted-optiga-trust-m/optiga-trust-m-1/optiga/comms/ifx_i2c/ifx_i2c_physical_layer.c **** }
 1309              	 .loc 1 179 0
 1310 0064 0020     	 mov r0,#0
 1311              	.L112:
 180://MAC/Home/Downloads/getstarted-optiga-trust-m/optiga-trust-m-1/optiga/comms/ifx_i2c/ifx_i2c_physical_layer.c **** 
 1312              	 .loc 1 180 0
 1313              	 
 1314              	.LVL146:
 1315 0066 38BD     	 pop {r3,r4,r5,pc}
 1316              	.L119:
 1317              	 .align 2
 1318              	.L118:
 1319 0068 00000000 	 .word ifx_i2c_pl_pal_event_handler
 1320              	 .cfi_endproc
 1321              	.LFE0:
 1323              	 .section .text.ifx_i2c_pl_send_frame,"ax",%progbits
 1324              	 .align 1
 1325              	 .global ifx_i2c_pl_send_frame
 1326              	 .code 16
 1327              	 .thumb_func
 1329              	ifx_i2c_pl_send_frame:
 1330              	.LFB1:
 183://MAC/Home/Downloads/getstarted-optiga-trust-m/optiga-trust-m-1/optiga/comms/ifx_i2c/ifx_i2c_physical_layer.c ****     // Physical Layer must be idle, set requested action
 1331              	 .loc 1 183 0
 1332              	 .cfi_startproc
 1333              	.LVL147:
 185://MAC/Home/Downloads/getstarted-optiga-trust-m/optiga-trust-m-1/optiga/comms/ifx_i2c/ifx_i2c_physical_layer.c ****     {
 1334              	 .loc 1 185 0
 1335 0000 A023     	 mov r3,#160
 183://MAC/Home/Downloads/getstarted-optiga-trust-m/optiga-trust-m-1/optiga/comms/ifx_i2c/ifx_i2c_physical_layer.c ****     // Physical Layer must be idle, set requested action
 1336              	 .loc 1 183 0
 1337 0002 10B5     	 push {r4,lr}
 1338              	.LCFI11:
 1339              	 .cfi_def_cfa_offset 8
 1340              	 .cfi_offset 4,-8
 1341              	 .cfi_offset 14,-4
 187://MAC/Home/Downloads/getstarted-optiga-trust-m/optiga-trust-m-1/optiga/comms/ifx_i2c/ifx_i2c_physical_layer.c ****     }
 1342              	 .loc 1 187 0
 1343 0004 8124     	 mov r4,#129
 185://MAC/Home/Downloads/getstarted-optiga-trust-m/optiga-trust-m-1/optiga/comms/ifx_i2c/ifx_i2c_physical_layer.c ****     {
 1344              	 .loc 1 185 0
 1345 0006 FF33     	 add r3,r3,#255
 1346 0008 C35C     	 ldrb r3,[r0,r3]
 187://MAC/Home/Downloads/getstarted-optiga-trust-m/optiga-trust-m-1/optiga/comms/ifx_i2c/ifx_i2c_physical_layer.c ****     }
 1347              	 .loc 1 187 0
 1348 000a 6400     	 lsl r4,r4,#1
 185://MAC/Home/Downloads/getstarted-optiga-trust-m/optiga-trust-m-1/optiga/comms/ifx_i2c/ifx_i2c_physical_layer.c ****     {
 1349              	 .loc 1 185 0
 1350 000c 013B     	 sub r3,r3,#1
 1351 000e 012B     	 cmp r3,#1
 1352 0010 0CD8     	 bhi .L121
 189://MAC/Home/Downloads/getstarted-optiga-trust-m/optiga-trust-m-1/optiga/comms/ifx_i2c/ifx_i2c_physical_layer.c **** 
 1353              	 .loc 1 189 0
 1354 0012 CF23     	 mov r3,#207
 1355 0014 023C     	 sub r4,r4,#2
 1356 0016 FF3C     	 sub r4,r4,#255
 1357 0018 5B00     	 lsl r3,r3,#1
 1358 001a C454     	 strb r4,[r0,r3]
 192://MAC/Home/Downloads/getstarted-optiga-trust-m/optiga-trust-m-1/optiga/comms/ifx_i2c/ifx_i2c_physical_layer.c ****     p_ctx->pl.tx_frame_len = frame_len;
 1359              	 .loc 1 192 0
 1360 001c 0233     	 add r3,r3,#2
 1361 001e C150     	 str r1,[r0,r3]
 193://MAC/Home/Downloads/getstarted-optiga-trust-m/optiga-trust-m-1/optiga/comms/ifx_i2c/ifx_i2c_physical_layer.c **** 
 1362              	 .loc 1 193 0
 1363 0020 0433     	 add r3,r3,#4
 1364 0022 C252     	 strh r2,[r0,r3]
 195://MAC/Home/Downloads/getstarted-optiga-trust-m/optiga-trust-m-1/optiga/comms/ifx_i2c/ifx_i2c_physical_layer.c ****     return (IFX_I2C_STACK_SUCCESS);
 1365              	 .loc 1 195 0
 1366 0024 0021     	 mov r1,#0
 1367              	.LVL148:
 1368 0026 FFF7FEFF 	 bl ifx_i2c_pl_frame_event_handler
 1369              	.LVL149:
 196://MAC/Home/Downloads/getstarted-optiga-trust-m/optiga-trust-m-1/optiga/comms/ifx_i2c/ifx_i2c_physical_layer.c **** }
 1370              	 .loc 1 196 0
 1371 002a 0024     	 mov r4,#0
 1372              	.L121:
 197://MAC/Home/Downloads/getstarted-optiga-trust-m/optiga-trust-m-1/optiga/comms/ifx_i2c/ifx_i2c_physical_layer.c **** 
 1373              	 .loc 1 197 0
 1374 002c 201C     	 mov r0,r4
 1375              	 
 1376 002e 10BD     	 pop {r4,pc}
 1377              	 .cfi_endproc
 1378              	.LFE1:
 1380              	 .section .text.ifx_i2c_pl_receive_frame,"ax",%progbits
 1381              	 .align 1
 1382              	 .global ifx_i2c_pl_receive_frame
 1383              	 .code 16
 1384              	 .thumb_func
 1386              	ifx_i2c_pl_receive_frame:
 1387              	.LFB2:
 200://MAC/Home/Downloads/getstarted-optiga-trust-m/optiga-trust-m-1/optiga/comms/ifx_i2c/ifx_i2c_physical_layer.c ****     // Physical Layer must be idle, set requested action
 1388              	 .loc 1 200 0
 1389              	 .cfi_startproc
 1390              	.LVL150:
 1391 0000 08B5     	 push {r3,lr}
 1392              	.LCFI12:
 1393              	 .cfi_def_cfa_offset 8
 1394              	 .cfi_offset 3,-8
 1395              	 .cfi_offset 14,-4
 202://MAC/Home/Downloads/getstarted-optiga-trust-m/optiga-trust-m-1/optiga/comms/ifx_i2c/ifx_i2c_physical_layer.c ****     {
 1396              	 .loc 1 202 0
 1397 0002 A023     	 mov r3,#160
 204://MAC/Home/Downloads/getstarted-optiga-trust-m/optiga-trust-m-1/optiga/comms/ifx_i2c/ifx_i2c_physical_layer.c ****     }
 1398              	 .loc 1 204 0
 1399 0004 8122     	 mov r2,#129
 202://MAC/Home/Downloads/getstarted-optiga-trust-m/optiga-trust-m-1/optiga/comms/ifx_i2c/ifx_i2c_physical_layer.c ****     {
 1400              	 .loc 1 202 0
 1401 0006 FF33     	 add r3,r3,#255
 1402 0008 C35C     	 ldrb r3,[r0,r3]
 204://MAC/Home/Downloads/getstarted-optiga-trust-m/optiga-trust-m-1/optiga/comms/ifx_i2c/ifx_i2c_physical_layer.c ****     }
 1403              	 .loc 1 204 0
 1404 000a 5200     	 lsl r2,r2,#1
 202://MAC/Home/Downloads/getstarted-optiga-trust-m/optiga-trust-m-1/optiga/comms/ifx_i2c/ifx_i2c_physical_layer.c ****     {
 1405              	 .loc 1 202 0
 1406 000c 013B     	 sub r3,r3,#1
 1407 000e 012B     	 cmp r3,#1
 1408 0010 08D8     	 bhi .L124
 206://MAC/Home/Downloads/getstarted-optiga-trust-m/optiga-trust-m-1/optiga/comms/ifx_i2c/ifx_i2c_physical_layer.c **** 
 1409              	 .loc 1 206 0
 1410 0012 CF23     	 mov r3,#207
 1411 0014 013A     	 sub r2,r2,#1
 1412 0016 FF3A     	 sub r2,r2,#255
 1413 0018 5B00     	 lsl r3,r3,#1
 1414 001a C254     	 strb r2,[r0,r3]
 208://MAC/Home/Downloads/getstarted-optiga-trust-m/optiga-trust-m-1/optiga/comms/ifx_i2c/ifx_i2c_physical_layer.c ****     return (IFX_I2C_STACK_SUCCESS);
 1415              	 .loc 1 208 0
 1416 001c 0021     	 mov r1,#0
 1417 001e FFF7FEFF 	 bl ifx_i2c_pl_frame_event_handler
 1418              	.LVL151:
 209://MAC/Home/Downloads/getstarted-optiga-trust-m/optiga-trust-m-1/optiga/comms/ifx_i2c/ifx_i2c_physical_layer.c **** }
 1419              	 .loc 1 209 0
 1420 0022 0022     	 mov r2,#0
 1421              	.L124:
 210://MAC/Home/Downloads/getstarted-optiga-trust-m/optiga-trust-m-1/optiga/comms/ifx_i2c/ifx_i2c_physical_layer.c **** 
 1422              	 .loc 1 210 0
 1423 0024 101C     	 mov r0,r2
 1424              	 
 1425 0026 08BD     	 pop {r3,pc}
 1426              	 .cfi_endproc
 1427              	.LFE2:
 1429              	 .section .text.ifx_i2c_pl_write_slave_address,"ax",%progbits
 1430              	 .align 1
 1431              	 .global ifx_i2c_pl_write_slave_address
 1432              	 .code 16
 1433              	 .thumb_func
 1435              	ifx_i2c_pl_write_slave_address:
 1436              	.LFB3:
 213://MAC/Home/Downloads/getstarted-optiga-trust-m/optiga-trust-m-1/optiga/comms/ifx_i2c/ifx_i2c_physical_layer.c ****     optiga_lib_status_t status = IFX_I2C_STACK_ERROR;
 1437              	 .loc 1 213 0
 1438              	 .cfi_startproc
 1439              	.LVL152:
 1440 0000 F7B5     	 push {r0,r1,r2,r4,r5,r6,r7,lr}
 1441              	.LCFI13:
 1442              	 .cfi_def_cfa_offset 32
 1443              	 .cfi_offset 0,-32
 1444              	 .cfi_offset 1,-28
 1445              	 .cfi_offset 2,-24
 1446              	 .cfi_offset 4,-20
 1447              	 .cfi_offset 5,-16
 1448              	 .cfi_offset 6,-12
 1449              	 .cfi_offset 7,-8
 1450              	 .cfi_offset 14,-4
 228://MAC/Home/Downloads/getstarted-optiga-trust-m/optiga-trust-m-1/optiga/comms/ifx_i2c/ifx_i2c_physical_layer.c ****     //since the lower level APIs are asynchronous, a temporary event handler for set slave address 
 1451              	 .loc 1 228 0
 1452 0002 0369     	 ldr r3,[r0,#16]
 213://MAC/Home/Downloads/getstarted-optiga-trust-m/optiga-trust-m-1/optiga/comms/ifx_i2c/ifx_i2c_physical_layer.c ****     optiga_lib_status_t status = IFX_I2C_STACK_ERROR;
 1453              	 .loc 1 213 0
 1454 0004 171C     	 mov r7,r2
 228://MAC/Home/Downloads/getstarted-optiga-trust-m/optiga-trust-m-1/optiga/comms/ifx_i2c/ifx_i2c_physical_layer.c ****     //since the lower level APIs are asynchronous, a temporary event handler for set slave address 
 1455              	 .loc 1 228 0
 1456 0006 DA68     	 ldr r2,[r3,#12]
 1457              	.LVL153:
 235://MAC/Home/Downloads/getstarted-optiga-trust-m/optiga-trust-m-1/optiga/comms/ifx_i2c/ifx_i2c_physical_layer.c ****     p_ctx->pl.buffer_tx_len = 1 + PL_REG_LEN_BASE_ADDR;
 1458              	 .loc 1 235 0
 1459 0008 051C     	 mov r5,r0
 228://MAC/Home/Downloads/getstarted-optiga-trust-m/optiga-trust-m-1/optiga/comms/ifx_i2c/ifx_i2c_physical_layer.c ****     //since the lower level APIs are asynchronous, a temporary event handler for set slave address 
 1460              	 .loc 1 228 0
 1461 000a 0192     	 str r2,[sp,#4]
 1462              	.LVL154:
 230://MAC/Home/Downloads/getstarted-optiga-trust-m/optiga-trust-m-1/optiga/comms/ifx_i2c/ifx_i2c_physical_layer.c **** 
 1463              	 .loc 1 230 0
 1464 000c 274A     	 ldr r2,.L144
 1465              	.LVL155:
 235://MAC/Home/Downloads/getstarted-optiga-trust-m/optiga-trust-m-1/optiga/comms/ifx_i2c/ifx_i2c_physical_layer.c ****     p_ctx->pl.buffer_tx_len = 1 + PL_REG_LEN_BASE_ADDR;
 1466              	 .loc 1 235 0
 1467 000e 8235     	 add r5,r5,#130
 230://MAC/Home/Downloads/getstarted-optiga-trust-m/optiga-trust-m-1/optiga/comms/ifx_i2c/ifx_i2c_physical_layer.c **** 
 1468              	 .loc 1 230 0
 1469 0010 DA60     	 str r2,[r3,#12]
 1470              	.LVL156:
 232://MAC/Home/Downloads/getstarted-optiga-trust-m/optiga-trust-m-1/optiga/comms/ifx_i2c/ifx_i2c_physical_layer.c ****     p_ctx->pl.buffer[MODE_OFFSET] = PL_REG_BASE_ADDR_VOLATILE;
 1471              	 .loc 1 232 0
 1472 0012 031C     	 mov r3,r0
 1473 0014 8033     	 add r3,r3,#128
 1474 0016 0093     	 str r3,[sp]
 1475 0018 8323     	 mov r3,#131
 1476 001a 009A     	 ldr r2,[sp]
 213://MAC/Home/Downloads/getstarted-optiga-trust-m/optiga-trust-m-1/optiga/comms/ifx_i2c/ifx_i2c_physical_layer.c ****     optiga_lib_status_t status = IFX_I2C_STACK_ERROR;
 1477              	 .loc 1 213 0
 1478 001c 041C     	 mov r4,r0
 232://MAC/Home/Downloads/getstarted-optiga-trust-m/optiga-trust-m-1/optiga/comms/ifx_i2c/ifx_i2c_physical_layer.c ****     p_ctx->pl.buffer[MODE_OFFSET] = PL_REG_BASE_ADDR_VOLATILE;
 1479              	 .loc 1 232 0
 1480 001e 1370     	 strb r3,[r2]
 233://MAC/Home/Downloads/getstarted-optiga-trust-m/optiga-trust-m-1/optiga/comms/ifx_i2c/ifx_i2c_physical_layer.c ****     //supported base addresses are 0x00 - 0x7F. Hence 8th bit is ignored
 1481              	 .loc 1 233 0
 1482 0020 021C     	 mov r2,r0
 1483 0022 0023     	 mov r3,#0
 1484 0024 8132     	 add r2,r2,#129
 1485 0026 1370     	 strb r3,[r2]
 235://MAC/Home/Downloads/getstarted-optiga-trust-m/optiga-trust-m-1/optiga/comms/ifx_i2c/ifx_i2c_physical_layer.c ****     p_ctx->pl.buffer_tx_len = 1 + PL_REG_LEN_BASE_ADDR;
 1486              	 .loc 1 235 0
 1487 0028 7F33     	 add r3,r3,#127
 1488 002a 1940     	 and r1,r3
 1489              	.LVL157:
 1490 002c 2970     	 strb r1,[r5]
 236://MAC/Home/Downloads/getstarted-optiga-trust-m/optiga-trust-m-1/optiga/comms/ifx_i2c/ifx_i2c_physical_layer.c **** 
 1491              	 .loc 1 236 0
 1492 002e 0321     	 mov r1,#3
 1493 0030 1833     	 add r3,r3,#24
 1494 0032 FF33     	 add r3,r3,#255
 1495 0034 C152     	 strh r1,[r0,r3]
 238://MAC/Home/Downloads/getstarted-optiga-trust-m/optiga-trust-m-1/optiga/comms/ifx_i2c/ifx_i2c_physical_layer.c ****     {
 1496              	 .loc 1 238 0
 1497 0036 002F     	 cmp r7,#0
 1498 0038 02D0     	 beq .L127
 240://MAC/Home/Downloads/getstarted-optiga-trust-m/optiga-trust-m-1/optiga/comms/ifx_i2c/ifx_i2c_physical_layer.c ****     }
 1499              	 .loc 1 240 0
 1500 003a 173B     	 sub r3,r3,#23
 1501 003c FF3B     	 sub r3,r3,#255
 1502 003e 1370     	 strb r3,[r2]
 1503              	.L127:
 243://MAC/Home/Downloads/getstarted-optiga-trust-m/optiga-trust-m-1/optiga/comms/ifx_i2c/ifx_i2c_physical_layer.c **** 
 1504              	 .loc 1 243 0
 1505 0040 CE23     	 mov r3,#206
 1506 0042 C822     	 mov r2,#200
 1507 0044 5B00     	 lsl r3,r3,#1
 1508 0046 E252     	 strh r2,[r4,r3]
 1509              	.LVL158:
 1510              	.L128:
 245://MAC/Home/Downloads/getstarted-optiga-trust-m/optiga-trust-m-1/optiga/comms/ifx_i2c/ifx_i2c_physical_layer.c ****     {
 1511              	 .loc 1 245 0
 1512 0048 CE26     	 mov r6,#206
 1513 004a 7600     	 lsl r6,r6,#1
 1514 004c A35B     	 ldrh r3,[r4,r6]
 1515 004e 002B     	 cmp r3,#0
 1516 0050 0FD0     	 beq .L134
 247://MAC/Home/Downloads/getstarted-optiga-trust-m/optiga-trust-m-1/optiga/comms/ifx_i2c/ifx_i2c_physical_layer.c **** 
 1517              	 .loc 1 247 0
 1518 0052 FF23     	 mov r3,#255
 1519 0054 164A     	 ldr r2,.L144+4
 250://MAC/Home/Downloads/getstarted-optiga-trust-m/optiga-trust-m-1/optiga/comms/ifx_i2c/ifx_i2c_physical_layer.c ****         while (PAL_WRITE_INIT_STATUS == g_pal_event_status){};
 1520              	 .loc 1 250 0
 1521 0056 2069     	 ldr r0,[r4,#16]
 247://MAC/Home/Downloads/getstarted-optiga-trust-m/optiga-trust-m-1/optiga/comms/ifx_i2c/ifx_i2c_physical_layer.c **** 
 1522              	 .loc 1 247 0
 1523 0058 1380     	 strh r3,[r2]
 250://MAC/Home/Downloads/getstarted-optiga-trust-m/optiga-trust-m-1/optiga/comms/ifx_i2c/ifx_i2c_physical_layer.c ****         while (PAL_WRITE_INIT_STATUS == g_pal_event_status){};
 1524              	 .loc 1 250 0
 1525 005a 9733     	 add r3,r3,#151
 1526 005c E25A     	 ldrh r2,[r4,r3]
 1527 005e 0099     	 ldr r1,[sp]
 1528 0060 FFF7FEFF 	 bl pal_i2c_write
 1529              	.LVL159:
 251://MAC/Home/Downloads/getstarted-optiga-trust-m/optiga-trust-m-1/optiga/comms/ifx_i2c/ifx_i2c_physical_layer.c ****         if (PAL_I2C_EVENT_SUCCESS == g_pal_event_status)
 1530              	 .loc 1 251 0
 1531 0064 124B     	 ldr r3,.L144+4
 1532 0066 1B88     	 ldrh r3,[r3]
 1533 0068 FF2B     	 cmp r3,#255
 1534 006a 00D1     	 bne .L143
 1535              	.L137:
 1536 006c FEE7     	 b .L137
 1537              	.L143:
 252://MAC/Home/Downloads/getstarted-optiga-trust-m/optiga-trust-m-1/optiga/comms/ifx_i2c/ifx_i2c_physical_layer.c ****         {
 1538              	 .loc 1 252 0
 1539 006e 002B     	 cmp r3,#0
 1540 0070 06D1     	 bne .L130
 1541              	.L134:
 260://MAC/Home/Downloads/getstarted-optiga-trust-m/optiga-trust-m-1/optiga/comms/ifx_i2c/ifx_i2c_physical_layer.c ****     {
 1542              	 .loc 1 260 0
 1543 0072 0F4B     	 ldr r3,.L144+4
 1544 0074 1B88     	 ldrh r3,[r3]
 1545 0076 002B     	 cmp r3,#0
 1546 0078 09D0     	 beq .L131
 214://MAC/Home/Downloads/getstarted-optiga-trust-m/optiga-trust-m-1/optiga/comms/ifx_i2c/ifx_i2c_physical_layer.c ****     upper_layer_callback_t * p_temp_upper_layer_event_handler;
 1547              	 .loc 1 214 0
 1548 007a 8120     	 mov r0,#129
 1549 007c 4000     	 lsl r0,r0,#1
 1550 007e 11E0     	 b .L132
 1551              	.L130:
 256://MAC/Home/Downloads/getstarted-optiga-trust-m/optiga-trust-m-1/optiga/comms/ifx_i2c/ifx_i2c_physical_layer.c ****         pal_os_timer_delay_in_milliseconds(POLLING_INTERVAL);
 1552              	 .loc 1 256 0
 1553 0080 A35B     	 ldrh r3,[r4,r6]
 257://MAC/Home/Downloads/getstarted-optiga-trust-m/optiga-trust-m-1/optiga/comms/ifx_i2c/ifx_i2c_physical_layer.c ****     }
 1554              	 .loc 1 257 0
 1555 0082 0120     	 mov r0,#1
 256://MAC/Home/Downloads/getstarted-optiga-trust-m/optiga-trust-m-1/optiga/comms/ifx_i2c/ifx_i2c_physical_layer.c ****         pal_os_timer_delay_in_milliseconds(POLLING_INTERVAL);
 1556              	 .loc 1 256 0
 1557 0084 013B     	 sub r3,r3,#1
 1558 0086 A353     	 strh r3,[r4,r6]
 257://MAC/Home/Downloads/getstarted-optiga-trust-m/optiga-trust-m-1/optiga/comms/ifx_i2c/ifx_i2c_physical_layer.c ****     }
 1559              	 .loc 1 257 0
 1560 0088 FFF7FEFF 	 bl pal_os_timer_delay_in_milliseconds
 1561              	.LVL160:
 1562 008c DCE7     	 b .L128
 1563              	.L131:
 262://MAC/Home/Downloads/getstarted-optiga-trust-m/optiga-trust-m-1/optiga/comms/ifx_i2c/ifx_i2c_physical_layer.c ****         if (PL_REG_BASE_ADDR_VOLATILE != persistent)
 1564              	 .loc 1 262 0
 1565 008e 2B78     	 ldrb r3,[r5]
 1566 0090 2269     	 ldr r2,[r4,#16]
 1567 0092 1371     	 strb r3,[r2,#4]
 263://MAC/Home/Downloads/getstarted-optiga-trust-m/optiga-trust-m-1/optiga/comms/ifx_i2c/ifx_i2c_physical_layer.c ****         {
 1568              	 .loc 1 263 0
 1569 0094 002F     	 cmp r7,#0
 1570 0096 01D0     	 beq .L135
 265://MAC/Home/Downloads/getstarted-optiga-trust-m/optiga-trust-m-1/optiga/comms/ifx_i2c/ifx_i2c_physical_layer.c ****         }
 1571              	 .loc 1 265 0
 1572 0098 2B78     	 ldrb r3,[r5]
 1573 009a 2370     	 strb r3,[r4]
 1574              	.L135:
 267://MAC/Home/Downloads/getstarted-optiga-trust-m/optiga-trust-m-1/optiga/comms/ifx_i2c/ifx_i2c_physical_layer.c ****         status = IFX_I2C_STACK_SUCCESS;
 1575              	 .loc 1 267 0
 1576 009c 0A20     	 mov r0,#10
 1577 009e FFF7FEFF 	 bl pal_os_timer_delay_in_milliseconds
 1578              	.LVL161:
 268://MAC/Home/Downloads/getstarted-optiga-trust-m/optiga-trust-m-1/optiga/comms/ifx_i2c/ifx_i2c_physical_layer.c ****     }
 1579              	 .loc 1 268 0
 1580 00a2 0020     	 mov r0,#0
 1581              	.LVL162:
 1582              	.L132:
 271://MAC/Home/Downloads/getstarted-optiga-trust-m/optiga-trust-m-1/optiga/comms/ifx_i2c/ifx_i2c_physical_layer.c **** 
 1583              	 .loc 1 271 0
 1584 00a4 2369     	 ldr r3,[r4,#16]
 1585 00a6 019A     	 ldr r2,[sp,#4]
 283://MAC/Home/Downloads/getstarted-optiga-trust-m/optiga-trust-m-1/optiga/comms/ifx_i2c/ifx_i2c_physical_layer.c **** 
 1586              	 .loc 1 283 0
 1587              	 
 271://MAC/Home/Downloads/getstarted-optiga-trust-m/optiga-trust-m-1/optiga/comms/ifx_i2c/ifx_i2c_physical_layer.c **** 
 1588              	 .loc 1 271 0
 1589 00a8 DA60     	 str r2,[r3,#12]
 1590              	.LVL163:
 283://MAC/Home/Downloads/getstarted-optiga-trust-m/optiga-trust-m-1/optiga/comms/ifx_i2c/ifx_i2c_physical_layer.c **** 
 1591              	 .loc 1 283 0
 1592 00aa FEBD     	 pop {r1,r2,r3,r4,r5,r6,r7,pc}
 1593              	.L145:
 1594              	 .align 2
 1595              	.L144:
 1596 00ac 00000000 	 .word ifx_i2c_pl_pal_slave_addr_event_handler
 1597 00b0 00000000 	 .word .LANCHOR0
 1598              	 .cfi_endproc
 1599              	.LFE3:
 1601              	 .section .bss.g_pal_event_status,"aw",%nobits
 1602              	 .align 1
 1603              	 .set .LANCHOR0,.+0
 1606              	g_pal_event_status:
 1607 0000 0000     	 .space 2
 1608              	 .text
 1609              	.Letext0:
 1610              	 .file 2 "c:\\dave_4-4-2_64bit\\dave-ide-4.4.2-64bit\\eclipse\\arm-gcc-49\\arm-none-eabi\\include\\machine\\_default_types.h"
 1611              	 .file 3 "c:\\dave_4-4-2_64bit\\dave-ide-4.4.2-64bit\\eclipse\\arm-gcc-49\\arm-none-eabi\\include\\stdint.h"
 1612              	 .file 4 "//MAC/Home/Downloads/getstarted-optiga-trust-m/optiga-trust-m-1/optiga/include/optiga/common/optiga_lib_types.h"
 1613              	 .file 5 "//MAC/Home/Downloads/getstarted-optiga-trust-m/optiga-trust-m-1/optiga/include/optiga/pal/pal.h"
 1614              	 .file 6 "//MAC/Home/Downloads/getstarted-optiga-trust-m/optiga-trust-m-1/optiga/include/optiga/pal/pal_i2c.h"
 1615              	 .file 7 "//MAC/Home/Downloads/getstarted-optiga-trust-m/optiga-trust-m-1/optiga/include/optiga/pal/pal_gpio.h"
 1616              	 .file 8 "//MAC/Home/Downloads/getstarted-optiga-trust-m/optiga-trust-m-1/optiga/include/optiga/ifx_i2c/ifx_i2c_config.h"
 1617              	 .file 9 "//MAC/Home/Downloads/getstarted-optiga-trust-m/optiga-trust-m-1/optiga/include/optiga/pal/pal_os_event.h"
 1618              	 .file 10 "//MAC/Home/Downloads/getstarted-optiga-trust-m/optiga-trust-m-1/optiga/include/optiga/pal/pal_os_timer.h"
DEFINED SYMBOLS
                            *ABS*:00000000 ifx_i2c_physical_layer.c
    {standard input}:18     .text.ifx_i2c_pl_pal_slave_addr_event_handler:00000000 $t
    {standard input}:22     .text.ifx_i2c_pl_pal_slave_addr_event_handler:00000000 ifx_i2c_pl_pal_slave_addr_event_handler
    {standard input}:39     .text.ifx_i2c_pl_pal_slave_addr_event_handler:00000008 $d
    {standard input}:44     .text.ifx_i2c_pl_read_register:00000000 $t
    {standard input}:48     .text.ifx_i2c_pl_read_register:00000000 ifx_i2c_pl_read_register
    {standard input}:103    .text.ifx_i2c_pl_status_poll_callback:00000000 $t
    {standard input}:107    .text.ifx_i2c_pl_status_poll_callback:00000000 ifx_i2c_pl_status_poll_callback
    {standard input}:129    .text.ifx_i2c_pl_write_register:00000000 $t
    {standard input}:133    .text.ifx_i2c_pl_write_register:00000000 ifx_i2c_pl_write_register
    {standard input}:196    .text.ifx_i2c_pal_poll_callback:00000000 $t
    {standard input}:200    .text.ifx_i2c_pal_poll_callback:00000000 ifx_i2c_pal_poll_callback
    {standard input}:255    .text.ifx_i2c_pl_set_bit_rate:00000000 $t
    {standard input}:259    .text.ifx_i2c_pl_set_bit_rate:00000000 ifx_i2c_pl_set_bit_rate
    {standard input}:332    .text.ifx_i2c_pl_set_bit_rate:00000040 $d
    {standard input}:341    .text.ifx_i2c_pl_negotiation_event_handler:00000000 ifx_i2c_pl_negotiation_event_handler
    {standard input}:337    .text.ifx_i2c_pl_negotiation_event_handler:00000000 $t
    {standard input}:684    .text.ifx_i2c_pl_negotiation_event_handler:00000184 $d
    {standard input}:690    .text.ifx_i2c_pl_frame_event_handler:00000000 $t
    {standard input}:694    .text.ifx_i2c_pl_frame_event_handler:00000000 ifx_i2c_pl_frame_event_handler
    {standard input}:731    .text.ifx_i2c_pl_frame_event_handler:00000026 $d
    {standard input}:935    .text.ifx_i2c_pl_soft_reset:00000000 ifx_i2c_pl_soft_reset
    {standard input}:925    .text.ifx_i2c_pl_frame_event_handler:0000010c $d
    {standard input}:931    .text.ifx_i2c_pl_soft_reset:00000000 $t
    {standard input}:967    .text.ifx_i2c_pl_soft_reset:0000001c $d
    {standard input}:1064   .text.ifx_i2c_pl_soft_reset:00000090 $d
    {standard input}:1070   .text.ifx_i2c_pl_pal_event_handler:00000000 $t
    {standard input}:1074   .text.ifx_i2c_pl_pal_event_handler:00000000 ifx_i2c_pl_pal_event_handler
    {standard input}:1143   .text.ifx_i2c_pl_pal_event_handler:00000044 $d
    {standard input}:1153   .text.ifx_i2c_pl_guard_time_callback:00000000 ifx_i2c_pl_guard_time_callback
    {standard input}:1149   .text.ifx_i2c_pl_guard_time_callback:00000000 $t
    {standard input}:1212   .text.ifx_i2c_pl_init:00000000 $t
    {standard input}:1217   .text.ifx_i2c_pl_init:00000000 ifx_i2c_pl_init
    {standard input}:1319   .text.ifx_i2c_pl_init:00000068 $d
    {standard input}:1324   .text.ifx_i2c_pl_send_frame:00000000 $t
    {standard input}:1329   .text.ifx_i2c_pl_send_frame:00000000 ifx_i2c_pl_send_frame
    {standard input}:1381   .text.ifx_i2c_pl_receive_frame:00000000 $t
    {standard input}:1386   .text.ifx_i2c_pl_receive_frame:00000000 ifx_i2c_pl_receive_frame
    {standard input}:1430   .text.ifx_i2c_pl_write_slave_address:00000000 $t
    {standard input}:1435   .text.ifx_i2c_pl_write_slave_address:00000000 ifx_i2c_pl_write_slave_address
    {standard input}:1596   .text.ifx_i2c_pl_write_slave_address:000000ac $d
    {standard input}:1602   .bss.g_pal_event_status:00000000 $d
    {standard input}:1606   .bss.g_pal_event_status:00000000 g_pal_event_status
                     .debug_frame:00000010 $d
    {standard input}:736    .text.ifx_i2c_pl_frame_event_handler:0000002b $d
    {standard input}:736    .text.ifx_i2c_pl_frame_event_handler:0000002c $t
    {standard input}:978    .text.ifx_i2c_pl_soft_reset:00000027 $d
    {standard input}:978    .text.ifx_i2c_pl_soft_reset:00000028 $t

UNDEFINED SYMBOLS
pal_i2c_write
memcpy
pal_i2c_read
pal_i2c_set_bitrate
pal_os_event_register_callback_oneshot
__gnu_thumb1_case_uqi
pal_os_timer_get_time_in_milliseconds
pal_i2c_init
pal_os_timer_delay_in_milliseconds
