   1              	 .cpu cortex-m0
   2              	 .fpu softvfp
   3              	 .eabi_attribute 20,1
   4              	 .eabi_attribute 21,1
   5              	 .eabi_attribute 23,3
   6              	 .eabi_attribute 24,1
   7              	 .eabi_attribute 25,1
   8              	 .eabi_attribute 26,1
   9              	 .eabi_attribute 30,4
  10              	 .eabi_attribute 34,0
  11              	 .eabi_attribute 18,4
  12              	 .code 16
  13              	 .file "ifx_i2c_presentation_layer.c"
  14              	 .text
  15              	.Ltext0:
  16              	 .cfi_sections .debug_frame
  17              	 .section .text.ifx_i2c_prl_decrypt_msg,"ax",%progbits
  18              	 .align 1
  19              	 .code 16
  20              	 .thumb_func
  22              	ifx_i2c_prl_decrypt_msg:
  23              	.LFB6:
  24              	 .file 1 "//MAC/Home/Downloads/getstarted-optiga-trust-m/optiga-trust-m-1/optiga/comms/ifx_i2c/ifx_i2c_presentation_layer.c"
   1://MAC/Home/Downloads/getstarted-optiga-trust-m/optiga-trust-m-1/optiga/comms/ifx_i2c/ifx_i2c_presentation_layer.c **** /**
   2://MAC/Home/Downloads/getstarted-optiga-trust-m/optiga-trust-m-1/optiga/comms/ifx_i2c/ifx_i2c_presentation_layer.c **** * \copyright
   3://MAC/Home/Downloads/getstarted-optiga-trust-m/optiga-trust-m-1/optiga/comms/ifx_i2c/ifx_i2c_presentation_layer.c **** * MIT License
   4://MAC/Home/Downloads/getstarted-optiga-trust-m/optiga-trust-m-1/optiga/comms/ifx_i2c/ifx_i2c_presentation_layer.c **** *
   5://MAC/Home/Downloads/getstarted-optiga-trust-m/optiga-trust-m-1/optiga/comms/ifx_i2c/ifx_i2c_presentation_layer.c **** * Copyright (c) 2019 Infineon Technologies AG
   6://MAC/Home/Downloads/getstarted-optiga-trust-m/optiga-trust-m-1/optiga/comms/ifx_i2c/ifx_i2c_presentation_layer.c **** *
   7://MAC/Home/Downloads/getstarted-optiga-trust-m/optiga-trust-m-1/optiga/comms/ifx_i2c/ifx_i2c_presentation_layer.c **** * Permission is hereby granted, free of charge, to any person obtaining a copy
   8://MAC/Home/Downloads/getstarted-optiga-trust-m/optiga-trust-m-1/optiga/comms/ifx_i2c/ifx_i2c_presentation_layer.c **** * of this software and associated documentation files (the "Software"), to deal
   9://MAC/Home/Downloads/getstarted-optiga-trust-m/optiga-trust-m-1/optiga/comms/ifx_i2c/ifx_i2c_presentation_layer.c **** * in the Software without restriction, including without limitation the rights
  10://MAC/Home/Downloads/getstarted-optiga-trust-m/optiga-trust-m-1/optiga/comms/ifx_i2c/ifx_i2c_presentation_layer.c **** * to use, copy, modify, merge, publish, distribute, sublicense, and/or sell
  11://MAC/Home/Downloads/getstarted-optiga-trust-m/optiga-trust-m-1/optiga/comms/ifx_i2c/ifx_i2c_presentation_layer.c **** * copies of the Software, and to permit persons to whom the Software is
  12://MAC/Home/Downloads/getstarted-optiga-trust-m/optiga-trust-m-1/optiga/comms/ifx_i2c/ifx_i2c_presentation_layer.c **** * furnished to do so, subject to the following conditions:
  13://MAC/Home/Downloads/getstarted-optiga-trust-m/optiga-trust-m-1/optiga/comms/ifx_i2c/ifx_i2c_presentation_layer.c **** *
  14://MAC/Home/Downloads/getstarted-optiga-trust-m/optiga-trust-m-1/optiga/comms/ifx_i2c/ifx_i2c_presentation_layer.c **** * The above copyright notice and this permission notice shall be included in all
  15://MAC/Home/Downloads/getstarted-optiga-trust-m/optiga-trust-m-1/optiga/comms/ifx_i2c/ifx_i2c_presentation_layer.c **** * copies or substantial portions of the Software.
  16://MAC/Home/Downloads/getstarted-optiga-trust-m/optiga-trust-m-1/optiga/comms/ifx_i2c/ifx_i2c_presentation_layer.c **** *
  17://MAC/Home/Downloads/getstarted-optiga-trust-m/optiga-trust-m-1/optiga/comms/ifx_i2c/ifx_i2c_presentation_layer.c **** * THE SOFTWARE IS PROVIDED "AS IS", WITHOUT WARRANTY OF ANY KIND, EXPRESS OR
  18://MAC/Home/Downloads/getstarted-optiga-trust-m/optiga-trust-m-1/optiga/comms/ifx_i2c/ifx_i2c_presentation_layer.c **** * IMPLIED, INCLUDING BUT NOT LIMITED TO THE WARRANTIES OF MERCHANTABILITY,
  19://MAC/Home/Downloads/getstarted-optiga-trust-m/optiga-trust-m-1/optiga/comms/ifx_i2c/ifx_i2c_presentation_layer.c **** * FITNESS FOR A PARTICULAR PURPOSE AND NONINFRINGEMENT. IN NO EVENT SHALL THE
  20://MAC/Home/Downloads/getstarted-optiga-trust-m/optiga-trust-m-1/optiga/comms/ifx_i2c/ifx_i2c_presentation_layer.c **** * AUTHORS OR COPYRIGHT HOLDERS BE LIABLE FOR ANY CLAIM, DAMAGES OR OTHER
  21://MAC/Home/Downloads/getstarted-optiga-trust-m/optiga-trust-m-1/optiga/comms/ifx_i2c/ifx_i2c_presentation_layer.c **** * LIABILITY, WHETHER IN AN ACTION OF CONTRACT, TORT OR OTHERWISE, ARISING FROM,
  22://MAC/Home/Downloads/getstarted-optiga-trust-m/optiga-trust-m-1/optiga/comms/ifx_i2c/ifx_i2c_presentation_layer.c **** * OUT OF OR IN CONNECTION WITH THE SOFTWARE OR THE USE OR OTHER DEALINGS IN THE
  23://MAC/Home/Downloads/getstarted-optiga-trust-m/optiga-trust-m-1/optiga/comms/ifx_i2c/ifx_i2c_presentation_layer.c **** * SOFTWARE
  24://MAC/Home/Downloads/getstarted-optiga-trust-m/optiga-trust-m-1/optiga/comms/ifx_i2c/ifx_i2c_presentation_layer.c **** *
  25://MAC/Home/Downloads/getstarted-optiga-trust-m/optiga-trust-m-1/optiga/comms/ifx_i2c/ifx_i2c_presentation_layer.c **** * \endcopyright
  26://MAC/Home/Downloads/getstarted-optiga-trust-m/optiga-trust-m-1/optiga/comms/ifx_i2c/ifx_i2c_presentation_layer.c **** *
  27://MAC/Home/Downloads/getstarted-optiga-trust-m/optiga-trust-m-1/optiga/comms/ifx_i2c/ifx_i2c_presentation_layer.c **** * \author Infineon Technologies AG
  28://MAC/Home/Downloads/getstarted-optiga-trust-m/optiga-trust-m-1/optiga/comms/ifx_i2c/ifx_i2c_presentation_layer.c **** *
  29://MAC/Home/Downloads/getstarted-optiga-trust-m/optiga-trust-m-1/optiga/comms/ifx_i2c/ifx_i2c_presentation_layer.c **** * \file ifx_i2c_presentation_layer.c
  30://MAC/Home/Downloads/getstarted-optiga-trust-m/optiga-trust-m-1/optiga/comms/ifx_i2c/ifx_i2c_presentation_layer.c **** *
  31://MAC/Home/Downloads/getstarted-optiga-trust-m/optiga-trust-m-1/optiga/comms/ifx_i2c/ifx_i2c_presentation_layer.c **** * \brief   This file implements the IFX I2C Presentation Layer of the Infineon I2C Protocol Stack l
  32://MAC/Home/Downloads/getstarted-optiga-trust-m/optiga-trust-m-1/optiga/comms/ifx_i2c/ifx_i2c_presentation_layer.c **** *
  33://MAC/Home/Downloads/getstarted-optiga-trust-m/optiga-trust-m-1/optiga/comms/ifx_i2c/ifx_i2c_presentation_layer.c **** * \ingroup  grIFXI2C
  34://MAC/Home/Downloads/getstarted-optiga-trust-m/optiga-trust-m-1/optiga/comms/ifx_i2c/ifx_i2c_presentation_layer.c **** *
  35://MAC/Home/Downloads/getstarted-optiga-trust-m/optiga-trust-m-1/optiga/comms/ifx_i2c/ifx_i2c_presentation_layer.c **** * @{
  36://MAC/Home/Downloads/getstarted-optiga-trust-m/optiga-trust-m-1/optiga/comms/ifx_i2c/ifx_i2c_presentation_layer.c **** */
  37://MAC/Home/Downloads/getstarted-optiga-trust-m/optiga-trust-m-1/optiga/comms/ifx_i2c/ifx_i2c_presentation_layer.c **** 
  38://MAC/Home/Downloads/getstarted-optiga-trust-m/optiga-trust-m-1/optiga/comms/ifx_i2c/ifx_i2c_presentation_layer.c **** #include "optiga/ifx_i2c/ifx_i2c_presentation_layer.h"
  39://MAC/Home/Downloads/getstarted-optiga-trust-m/optiga-trust-m-1/optiga/comms/ifx_i2c/ifx_i2c_presentation_layer.c **** #include "optiga/ifx_i2c/ifx_i2c_transport_layer.h"
  40://MAC/Home/Downloads/getstarted-optiga-trust-m/optiga-trust-m-1/optiga/comms/ifx_i2c/ifx_i2c_presentation_layer.c **** #include "optiga/pal/pal_crypt.h"
  41://MAC/Home/Downloads/getstarted-optiga-trust-m/optiga-trust-m-1/optiga/comms/ifx_i2c/ifx_i2c_presentation_layer.c **** #include "optiga/common/optiga_lib_common.h"
  42://MAC/Home/Downloads/getstarted-optiga-trust-m/optiga-trust-m-1/optiga/comms/ifx_i2c/ifx_i2c_presentation_layer.c **** #include "optiga/pal/pal_ifx_i2c_config.h"
  43://MAC/Home/Downloads/getstarted-optiga-trust-m/optiga-trust-m-1/optiga/comms/ifx_i2c/ifx_i2c_presentation_layer.c **** // include lower layer header
  44://MAC/Home/Downloads/getstarted-optiga-trust-m/optiga-trust-m-1/optiga/comms/ifx_i2c/ifx_i2c_presentation_layer.c **** /// @cond hidden
  45://MAC/Home/Downloads/getstarted-optiga-trust-m/optiga-trust-m-1/optiga/comms/ifx_i2c/ifx_i2c_presentation_layer.c **** 
  46://MAC/Home/Downloads/getstarted-optiga-trust-m/optiga-trust-m-1/optiga/comms/ifx_i2c/ifx_i2c_presentation_layer.c **** // Setup debug log statements
  47://MAC/Home/Downloads/getstarted-optiga-trust-m/optiga-trust-m-1/optiga/comms/ifx_i2c/ifx_i2c_presentation_layer.c **** #if IFX_I2C_LOG_PRL == 1
  48://MAC/Home/Downloads/getstarted-optiga-trust-m/optiga-trust-m-1/optiga/comms/ifx_i2c/ifx_i2c_presentation_layer.c **** #define LOG_PRL IFX_I2C_LOG
  49://MAC/Home/Downloads/getstarted-optiga-trust-m/optiga-trust-m-1/optiga/comms/ifx_i2c/ifx_i2c_presentation_layer.c **** #else
  50://MAC/Home/Downloads/getstarted-optiga-trust-m/optiga-trust-m-1/optiga/comms/ifx_i2c/ifx_i2c_presentation_layer.c **** #define LOG_PRL(...)  //printf(__VA_ARGS__);
  51://MAC/Home/Downloads/getstarted-optiga-trust-m/optiga-trust-m-1/optiga/comms/ifx_i2c/ifx_i2c_presentation_layer.c **** #endif
  52://MAC/Home/Downloads/getstarted-optiga-trust-m/optiga-trust-m-1/optiga/comms/ifx_i2c/ifx_i2c_presentation_layer.c **** 
  53://MAC/Home/Downloads/getstarted-optiga-trust-m/optiga-trust-m-1/optiga/comms/ifx_i2c/ifx_i2c_presentation_layer.c **** #ifdef OPTIGA_COMMS_SHIELDED_CONNECTION        
  54://MAC/Home/Downloads/getstarted-optiga-trust-m/optiga-trust-m-1/optiga/comms/ifx_i2c/ifx_i2c_presentation_layer.c **** 
  55://MAC/Home/Downloads/getstarted-optiga-trust-m/optiga-trust-m-1/optiga/comms/ifx_i2c/ifx_i2c_presentation_layer.c **** /// @cond hidden
  56://MAC/Home/Downloads/getstarted-optiga-trust-m/optiga-trust-m-1/optiga/comms/ifx_i2c/ifx_i2c_presentation_layer.c **** 
  57://MAC/Home/Downloads/getstarted-optiga-trust-m/optiga-trust-m-1/optiga/comms/ifx_i2c/ifx_i2c_presentation_layer.c **** // Presentation Layer states
  58://MAC/Home/Downloads/getstarted-optiga-trust-m/optiga-trust-m-1/optiga/comms/ifx_i2c/ifx_i2c_presentation_layer.c **** #define PRL_STATE_UNINIT                     (0x00)
  59://MAC/Home/Downloads/getstarted-optiga-trust-m/optiga-trust-m-1/optiga/comms/ifx_i2c/ifx_i2c_presentation_layer.c **** #define PRL_STATE_IDLE                       (0x01)
  60://MAC/Home/Downloads/getstarted-optiga-trust-m/optiga-trust-m-1/optiga/comms/ifx_i2c/ifx_i2c_presentation_layer.c **** #define PRL_STATE_START                      (0x02)
  61://MAC/Home/Downloads/getstarted-optiga-trust-m/optiga-trust-m-1/optiga/comms/ifx_i2c/ifx_i2c_presentation_layer.c **** #define PRL_STATE_VERIFY                     (0x03)
  62://MAC/Home/Downloads/getstarted-optiga-trust-m/optiga-trust-m-1/optiga/comms/ifx_i2c/ifx_i2c_presentation_layer.c **** #define PRL_STATE_TXRX                       (0x04)
  63://MAC/Home/Downloads/getstarted-optiga-trust-m/optiga-trust-m-1/optiga/comms/ifx_i2c/ifx_i2c_presentation_layer.c **** #define PRL_STATE_HANDSHAKE                  (0x05)
  64://MAC/Home/Downloads/getstarted-optiga-trust-m/optiga-trust-m-1/optiga/comms/ifx_i2c/ifx_i2c_presentation_layer.c **** #define PRL_STATE_ALERT                      (0x06)
  65://MAC/Home/Downloads/getstarted-optiga-trust-m/optiga-trust-m-1/optiga/comms/ifx_i2c/ifx_i2c_presentation_layer.c **** #define PRL_STATE_ERROR                      (0x07)
  66://MAC/Home/Downloads/getstarted-optiga-trust-m/optiga-trust-m-1/optiga/comms/ifx_i2c/ifx_i2c_presentation_layer.c **** #define PRL_STATE_MANAGE_CONTEXT             (0x08)
  67://MAC/Home/Downloads/getstarted-optiga-trust-m/optiga-trust-m-1/optiga/comms/ifx_i2c/ifx_i2c_presentation_layer.c **** 
  68://MAC/Home/Downloads/getstarted-optiga-trust-m/optiga-trust-m-1/optiga/comms/ifx_i2c/ifx_i2c_presentation_layer.c **** ///Manage context state
  69://MAC/Home/Downloads/getstarted-optiga-trust-m/optiga-trust-m-1/optiga/comms/ifx_i2c/ifx_i2c_presentation_layer.c **** #define PRL_MANAGE_CONTEXT_TX_STATE          (0x01)
  70://MAC/Home/Downloads/getstarted-optiga-trust-m/optiga-trust-m-1/optiga/comms/ifx_i2c/ifx_i2c_presentation_layer.c **** #define PRL_MANAGE_CONTEXT_RX_STATE          (0x02)
  71://MAC/Home/Downloads/getstarted-optiga-trust-m/optiga-trust-m-1/optiga/comms/ifx_i2c/ifx_i2c_presentation_layer.c **** 
  72://MAC/Home/Downloads/getstarted-optiga-trust-m/optiga-trust-m-1/optiga/comms/ifx_i2c/ifx_i2c_presentation_layer.c **** /// Handshake status
  73://MAC/Home/Downloads/getstarted-optiga-trust-m/optiga-trust-m-1/optiga/comms/ifx_i2c/ifx_i2c_presentation_layer.c **** #define PRL_HS_SEND_HELLO                    (0x11)
  74://MAC/Home/Downloads/getstarted-optiga-trust-m/optiga-trust-m-1/optiga/comms/ifx_i2c/ifx_i2c_presentation_layer.c **** #define PRL_HS_VERIFY_HELLO                  (0x22)
  75://MAC/Home/Downloads/getstarted-optiga-trust-m/optiga-trust-m-1/optiga/comms/ifx_i2c/ifx_i2c_presentation_layer.c **** #define PRL_HS_SEND_FINISHED                 (0x33)
  76://MAC/Home/Downloads/getstarted-optiga-trust-m/optiga-trust-m-1/optiga/comms/ifx_i2c/ifx_i2c_presentation_layer.c **** #define PRL_HS_VERIFY_FINISHED               (0x44)
  77://MAC/Home/Downloads/getstarted-optiga-trust-m/optiga-trust-m-1/optiga/comms/ifx_i2c/ifx_i2c_presentation_layer.c **** #define PRL_HS_ERROR                         (0x55)
  78://MAC/Home/Downloads/getstarted-optiga-trust-m/optiga-trust-m-1/optiga/comms/ifx_i2c/ifx_i2c_presentation_layer.c **** 
  79://MAC/Home/Downloads/getstarted-optiga-trust-m/optiga-trust-m-1/optiga/comms/ifx_i2c/ifx_i2c_presentation_layer.c **** /// Handshake type
  80://MAC/Home/Downloads/getstarted-optiga-trust-m/optiga-trust-m-1/optiga/comms/ifx_i2c/ifx_i2c_presentation_layer.c **** #define PRL_MASTER_HELLO_MSG                 (0x00)
  81://MAC/Home/Downloads/getstarted-optiga-trust-m/optiga-trust-m-1/optiga/comms/ifx_i2c/ifx_i2c_presentation_layer.c **** #define PRL_MASTER_FINISHED_MSG              (0x08)
  82://MAC/Home/Downloads/getstarted-optiga-trust-m/optiga-trust-m-1/optiga/comms/ifx_i2c/ifx_i2c_presentation_layer.c **** 
  83://MAC/Home/Downloads/getstarted-optiga-trust-m/optiga-trust-m-1/optiga/comms/ifx_i2c/ifx_i2c_presentation_layer.c **** ///Protocol type
  84://MAC/Home/Downloads/getstarted-optiga-trust-m/optiga-trust-m-1/optiga/comms/ifx_i2c/ifx_i2c_presentation_layer.c **** #define PRL_HANDSHAKE_PROTOCOL               (0x00)
  85://MAC/Home/Downloads/getstarted-optiga-trust-m/optiga-trust-m-1/optiga/comms/ifx_i2c/ifx_i2c_presentation_layer.c **** #define PRL_RECORD_EXCHANGE_PROTOCOL         (0x20)
  86://MAC/Home/Downloads/getstarted-optiga-trust-m/optiga-trust-m-1/optiga/comms/ifx_i2c/ifx_i2c_presentation_layer.c **** #define PRL_ALERT_PROTOCOL                   (0x40)
  87://MAC/Home/Downloads/getstarted-optiga-trust-m/optiga-trust-m-1/optiga/comms/ifx_i2c/ifx_i2c_presentation_layer.c **** 
  88://MAC/Home/Downloads/getstarted-optiga-trust-m/optiga-trust-m-1/optiga/comms/ifx_i2c/ifx_i2c_presentation_layer.c **** ///Message type
  89://MAC/Home/Downloads/getstarted-optiga-trust-m/optiga-trust-m-1/optiga/comms/ifx_i2c/ifx_i2c_presentation_layer.c **** #define PRL_FATAL_ALERT_MSG                  (0x00)
  90://MAC/Home/Downloads/getstarted-optiga-trust-m/optiga-trust-m-1/optiga/comms/ifx_i2c/ifx_i2c_presentation_layer.c **** #define PRL_INTEGRITY_VIOLATED_ALERT_MSG     (0x04)
  91://MAC/Home/Downloads/getstarted-optiga-trust-m/optiga-trust-m-1/optiga/comms/ifx_i2c/ifx_i2c_presentation_layer.c **** #define PRL_INVALID_ALERT                    (0xFF)
  92://MAC/Home/Downloads/getstarted-optiga-trust-m/optiga-trust-m-1/optiga/comms/ifx_i2c/ifx_i2c_presentation_layer.c **** #define PRL_DEFAULT_ALERT                    (0x11)
  93://MAC/Home/Downloads/getstarted-optiga-trust-m/optiga-trust-m-1/optiga/comms/ifx_i2c/ifx_i2c_presentation_layer.c **** 
  94://MAC/Home/Downloads/getstarted-optiga-trust-m/optiga-trust-m-1/optiga/comms/ifx_i2c/ifx_i2c_presentation_layer.c **** ///Handshake completion state
  95://MAC/Home/Downloads/getstarted-optiga-trust-m/optiga-trust-m-1/optiga/comms/ifx_i2c/ifx_i2c_presentation_layer.c **** #define PRL_NEGOTIATION_NOT_DONE             (0x00)
  96://MAC/Home/Downloads/getstarted-optiga-trust-m/optiga-trust-m-1/optiga/comms/ifx_i2c/ifx_i2c_presentation_layer.c **** #define PRL_NEGOTIATION_DONE                 (0x01)
  97://MAC/Home/Downloads/getstarted-optiga-trust-m/optiga-trust-m-1/optiga/comms/ifx_i2c/ifx_i2c_presentation_layer.c **** 
  98://MAC/Home/Downloads/getstarted-optiga-trust-m/optiga-trust-m-1/optiga/comms/ifx_i2c/ifx_i2c_presentation_layer.c **** ///Offset calculation values
  99://MAC/Home/Downloads/getstarted-optiga-trust-m/optiga-trust-m-1/optiga/comms/ifx_i2c/ifx_i2c_presentation_layer.c **** #define PRL_MASTER_ENCRYPTION_KEY_OFFSET     (0x00)
 100://MAC/Home/Downloads/getstarted-optiga-trust-m/optiga-trust-m-1/optiga/comms/ifx_i2c/ifx_i2c_presentation_layer.c **** #define PRL_MASTER_ENCRYPTION_NONCE_OFFSET   (0x20)
 101://MAC/Home/Downloads/getstarted-optiga-trust-m/optiga-trust-m-1/optiga/comms/ifx_i2c/ifx_i2c_presentation_layer.c **** #define PRL_MASTER_DECRYPTION_KEY_OFFSET     (0x10)
 102://MAC/Home/Downloads/getstarted-optiga-trust-m/optiga-trust-m-1/optiga/comms/ifx_i2c/ifx_i2c_presentation_layer.c **** #define PRL_MASTER_DECRYPTION_NONCE_OFFSET   (0x24)
 103://MAC/Home/Downloads/getstarted-optiga-trust-m/optiga-trust-m-1/optiga/comms/ifx_i2c/ifx_i2c_presentation_layer.c **** #define PRL_SLAVE_HELLO_SEQ_NUMBER_OFFSET    (0x22)
 104://MAC/Home/Downloads/getstarted-optiga-trust-m/optiga-trust-m-1/optiga/comms/ifx_i2c/ifx_i2c_presentation_layer.c **** #define PRL_PLAIN_TEST_OFFSET                (0x04)
 105://MAC/Home/Downloads/getstarted-optiga-trust-m/optiga-trust-m-1/optiga/comms/ifx_i2c/ifx_i2c_presentation_layer.c **** #define PRL_SCTR_OFFSET                      (0x00)
 106://MAC/Home/Downloads/getstarted-optiga-trust-m/optiga-trust-m-1/optiga/comms/ifx_i2c/ifx_i2c_presentation_layer.c **** #define PRL_PROTOCOL_VERSION_OFFSET          (0x01)
 107://MAC/Home/Downloads/getstarted-optiga-trust-m/optiga-trust-m-1/optiga/comms/ifx_i2c/ifx_i2c_presentation_layer.c **** #define PRL_RANDOM_DATAOFFSET                (0x02)
 108://MAC/Home/Downloads/getstarted-optiga-trust-m/optiga-trust-m-1/optiga/comms/ifx_i2c/ifx_i2c_presentation_layer.c **** 
 109://MAC/Home/Downloads/getstarted-optiga-trust-m/optiga-trust-m-1/optiga/comms/ifx_i2c/ifx_i2c_presentation_layer.c **** ///Length calculation values
 110://MAC/Home/Downloads/getstarted-optiga-trust-m/optiga-trust-m-1/optiga/comms/ifx_i2c/ifx_i2c_presentation_layer.c **** #define PRL_RANDOM_DATA_LENGTH               (0x20)
 111://MAC/Home/Downloads/getstarted-optiga-trust-m/optiga-trust-m-1/optiga/comms/ifx_i2c/ifx_i2c_presentation_layer.c **** #define PRL_MASTER_NONCE_LENGTH              (0x04)
 112://MAC/Home/Downloads/getstarted-optiga-trust-m/optiga-trust-m-1/optiga/comms/ifx_i2c/ifx_i2c_presentation_layer.c **** #define PRL_FINISHED_DATA_LENGTH             (0x30)
 113://MAC/Home/Downloads/getstarted-optiga-trust-m/optiga-trust-m-1/optiga/comms/ifx_i2c/ifx_i2c_presentation_layer.c **** #define PRL_SEQ_NUMBER_LENGTH                (0x04)
 114://MAC/Home/Downloads/getstarted-optiga-trust-m/optiga-trust-m-1/optiga/comms/ifx_i2c/ifx_i2c_presentation_layer.c **** #define PRL_SLAVE_HELLO_LENGTH               (0x26)
 115://MAC/Home/Downloads/getstarted-optiga-trust-m/optiga-trust-m-1/optiga/comms/ifx_i2c/ifx_i2c_presentation_layer.c **** #define PRL_NONCE_LENGTH                     (0x08)
 116://MAC/Home/Downloads/getstarted-optiga-trust-m/optiga-trust-m-1/optiga/comms/ifx_i2c/ifx_i2c_presentation_layer.c **** 
 117://MAC/Home/Downloads/getstarted-optiga-trust-m/optiga-trust-m-1/optiga/comms/ifx_i2c/ifx_i2c_presentation_layer.c **** ///Manage context message type
 118://MAC/Home/Downloads/getstarted-optiga-trust-m/optiga-trust-m-1/optiga/comms/ifx_i2c/ifx_i2c_presentation_layer.c **** #define PRL_SAVE_CONTEXT_MSG                 (0x60)
 119://MAC/Home/Downloads/getstarted-optiga-trust-m/optiga-trust-m-1/optiga/comms/ifx_i2c/ifx_i2c_presentation_layer.c **** #define PRL_CONTEXT_SAVED_MSG                (0x64)
 120://MAC/Home/Downloads/getstarted-optiga-trust-m/optiga-trust-m-1/optiga/comms/ifx_i2c/ifx_i2c_presentation_layer.c **** #define PRL_RESTORE_CONTEXT_MSG              (0x68)
 121://MAC/Home/Downloads/getstarted-optiga-trust-m/optiga-trust-m-1/optiga/comms/ifx_i2c/ifx_i2c_presentation_layer.c **** #define PRL_CONTEXT_RESTORED_MSG             (0x6C)
 122://MAC/Home/Downloads/getstarted-optiga-trust-m/optiga-trust-m-1/optiga/comms/ifx_i2c/ifx_i2c_presentation_layer.c **** 
 123://MAC/Home/Downloads/getstarted-optiga-trust-m/optiga-trust-m-1/optiga/comms/ifx_i2c/ifx_i2c_presentation_layer.c **** ///Restore operation state
 124://MAC/Home/Downloads/getstarted-optiga-trust-m/optiga-trust-m-1/optiga/comms/ifx_i2c/ifx_i2c_presentation_layer.c **** #define PRL_RESTORE_NOT_DONE                 (0x00)
 125://MAC/Home/Downloads/getstarted-optiga-trust-m/optiga-trust-m-1/optiga/comms/ifx_i2c/ifx_i2c_presentation_layer.c **** #define PRL_RESTORE_DONE                     (0x01)
 126://MAC/Home/Downloads/getstarted-optiga-trust-m/optiga-trust-m-1/optiga/comms/ifx_i2c/ifx_i2c_presentation_layer.c **** 
 127://MAC/Home/Downloads/getstarted-optiga-trust-m/optiga-trust-m-1/optiga/comms/ifx_i2c/ifx_i2c_presentation_layer.c **** ///Mask values
 128://MAC/Home/Downloads/getstarted-optiga-trust-m/optiga-trust-m-1/optiga/comms/ifx_i2c/ifx_i2c_presentation_layer.c **** #define PRL_MANAGE_CONTEXT_MASK              (0xFC)
 129://MAC/Home/Downloads/getstarted-optiga-trust-m/optiga-trust-m-1/optiga/comms/ifx_i2c/ifx_i2c_presentation_layer.c **** #define PRL_PROTECTION_MASK                  (0x03)
 130://MAC/Home/Downloads/getstarted-optiga-trust-m/optiga-trust-m-1/optiga/comms/ifx_i2c/ifx_i2c_presentation_layer.c **** 
 131://MAC/Home/Downloads/getstarted-optiga-trust-m/optiga-trust-m-1/optiga/comms/ifx_i2c/ifx_i2c_presentation_layer.c **** #define PRL_SEQUENCE_THRESHOLD               (0xFFFFFFF0)
 132://MAC/Home/Downloads/getstarted-optiga-trust-m/optiga-trust-m-1/optiga/comms/ifx_i2c/ifx_i2c_presentation_layer.c **** #define PRL_TRANS_REPEAT                     (DL_TRANS_REPEAT)
 133://MAC/Home/Downloads/getstarted-optiga-trust-m/optiga-trust-m-1/optiga/comms/ifx_i2c/ifx_i2c_presentation_layer.c **** 
 134://MAC/Home/Downloads/getstarted-optiga-trust-m/optiga-trust-m-1/optiga/comms/ifx_i2c/ifx_i2c_presentation_layer.c **** #define PRL_LABLE                            "Platform Binding"
 135://MAC/Home/Downloads/getstarted-optiga-trust-m/optiga-trust-m-1/optiga/comms/ifx_i2c/ifx_i2c_presentation_layer.c **** #define SHARED_SECRET_LENGTH                 (0x40)
 136://MAC/Home/Downloads/getstarted-optiga-trust-m/optiga-trust-m-1/optiga/comms/ifx_i2c/ifx_i2c_presentation_layer.c **** 
 137://MAC/Home/Downloads/getstarted-optiga-trust-m/optiga-trust-m-1/optiga/comms/ifx_i2c/ifx_i2c_presentation_layer.c **** #define FORM_SCTR_HEADER(ctx, protocol, msg, protection){\
 138://MAC/Home/Downloads/getstarted-optiga-trust-m/optiga-trust-m-1/optiga/comms/ifx_i2c/ifx_i2c_presentation_layer.c ****                          p_ctx->prl.sctr = (protocol | msg | protection);}\
 139://MAC/Home/Downloads/getstarted-optiga-trust-m/optiga-trust-m-1/optiga/comms/ifx_i2c/ifx_i2c_presentation_layer.c **** 
 140://MAC/Home/Downloads/getstarted-optiga-trust-m/optiga-trust-m-1/optiga/comms/ifx_i2c/ifx_i2c_presentation_layer.c **** #define ERROR_STATE_PREPARATION(ctx, exit_machine){\
 141://MAC/Home/Downloads/getstarted-optiga-trust-m/optiga-trust-m-1/optiga/comms/ifx_i2c/ifx_i2c_presentation_layer.c ****                                 ctx->prl.alert_type = PRL_INVALID_ALERT;\
 142://MAC/Home/Downloads/getstarted-optiga-trust-m/optiga-trust-m-1/optiga/comms/ifx_i2c/ifx_i2c_presentation_layer.c ****                                 ctx->prl.state = PRL_STATE_ERROR;\
 143://MAC/Home/Downloads/getstarted-optiga-trust-m/optiga-trust-m-1/optiga/comms/ifx_i2c/ifx_i2c_presentation_layer.c ****                                 ctx->prl.negotiation_state = PRL_NEGOTIATION_NOT_DONE;\
 144://MAC/Home/Downloads/getstarted-optiga-trust-m/optiga-trust-m-1/optiga/comms/ifx_i2c/ifx_i2c_presentation_layer.c ****                                 ctx->prl.return_status = IFX_I2C_SESSION_ERROR;\
 145://MAC/Home/Downloads/getstarted-optiga-trust-m/optiga-trust-m-1/optiga/comms/ifx_i2c/ifx_i2c_presentation_layer.c ****                                 ctx->prl.trans_repeat_status = FALSE;\
 146://MAC/Home/Downloads/getstarted-optiga-trust-m/optiga-trust-m-1/optiga/comms/ifx_i2c/ifx_i2c_presentation_layer.c ****                                 exit_machine = TRUE;}\
 147://MAC/Home/Downloads/getstarted-optiga-trust-m/optiga-trust-m-1/optiga/comms/ifx_i2c/ifx_i2c_presentation_layer.c **** 
 148://MAC/Home/Downloads/getstarted-optiga-trust-m/optiga-trust-m-1/optiga/comms/ifx_i2c/ifx_i2c_presentation_layer.c **** #define CLEAR_SESSION_CONTEXT(ctx){\
 149://MAC/Home/Downloads/getstarted-optiga-trust-m/optiga-trust-m-1/optiga/comms/ifx_i2c/ifx_i2c_presentation_layer.c ****                               memset(ctx->prl.session_key,0,sizeof(ctx->prl.session_key));\
 150://MAC/Home/Downloads/getstarted-optiga-trust-m/optiga-trust-m-1/optiga/comms/ifx_i2c/ifx_i2c_presentation_layer.c ****                               ctx->prl.master_sequence_number = 0;\
 151://MAC/Home/Downloads/getstarted-optiga-trust-m/optiga-trust-m-1/optiga/comms/ifx_i2c/ifx_i2c_presentation_layer.c ****                               ctx->prl.slave_sequence_number = 0;\
 152://MAC/Home/Downloads/getstarted-optiga-trust-m/optiga-trust-m-1/optiga/comms/ifx_i2c/ifx_i2c_presentation_layer.c ****                               ctx->prl.save_slave_sequence_number = 0;\
 153://MAC/Home/Downloads/getstarted-optiga-trust-m/optiga-trust-m-1/optiga/comms/ifx_i2c/ifx_i2c_presentation_layer.c ****                               ctx->prl.decryption_failure_counter = 0;\
 154://MAC/Home/Downloads/getstarted-optiga-trust-m/optiga-trust-m-1/optiga/comms/ifx_i2c/ifx_i2c_presentation_layer.c ****                               ctx->prl.data_retransmit_counter = 0;\
 155://MAC/Home/Downloads/getstarted-optiga-trust-m/optiga-trust-m-1/optiga/comms/ifx_i2c/ifx_i2c_presentation_layer.c ****                               ctx->prl.trans_repeat_status = FALSE;\
 156://MAC/Home/Downloads/getstarted-optiga-trust-m/optiga-trust-m-1/optiga/comms/ifx_i2c/ifx_i2c_presentation_layer.c ****                               ctx->prl.state = PRL_STATE_IDLE;}\
 157://MAC/Home/Downloads/getstarted-optiga-trust-m/optiga-trust-m-1/optiga/comms/ifx_i2c/ifx_i2c_presentation_layer.c **** 
 158://MAC/Home/Downloads/getstarted-optiga-trust-m/optiga-trust-m-1/optiga/comms/ifx_i2c/ifx_i2c_presentation_layer.c **** #define CLEAR_SAVED_SESSION_CONTEXT(ctx){\
 159://MAC/Home/Downloads/getstarted-optiga-trust-m/optiga-trust-m-1/optiga/comms/ifx_i2c/ifx_i2c_presentation_layer.c ****                                     memset(ctx.session_key,0,sizeof(ctx.session_key));\
 160://MAC/Home/Downloads/getstarted-optiga-trust-m/optiga-trust-m-1/optiga/comms/ifx_i2c/ifx_i2c_presentation_layer.c ****                                     ctx.master_sequence_number = 0;\
 161://MAC/Home/Downloads/getstarted-optiga-trust-m/optiga-trust-m-1/optiga/comms/ifx_i2c/ifx_i2c_presentation_layer.c ****                                     ctx.negotiation_state = 0;\
 162://MAC/Home/Downloads/getstarted-optiga-trust-m/optiga-trust-m-1/optiga/comms/ifx_i2c/ifx_i2c_presentation_layer.c ****                                     ctx.save_slave_sequence_number = 0;\
 163://MAC/Home/Downloads/getstarted-optiga-trust-m/optiga-trust-m-1/optiga/comms/ifx_i2c/ifx_i2c_presentation_layer.c ****                                     ctx.decryption_failure_counter = 0;\
 164://MAC/Home/Downloads/getstarted-optiga-trust-m/optiga-trust-m-1/optiga/comms/ifx_i2c/ifx_i2c_presentation_layer.c ****                                     ctx.data_retransmit_counter = 0;\
 165://MAC/Home/Downloads/getstarted-optiga-trust-m/optiga-trust-m-1/optiga/comms/ifx_i2c/ifx_i2c_presentation_layer.c ****                                     ctx.stored_context_flag = FALSE;}\
 166://MAC/Home/Downloads/getstarted-optiga-trust-m/optiga-trust-m-1/optiga/comms/ifx_i2c/ifx_i2c_presentation_layer.c **** 
 167://MAC/Home/Downloads/getstarted-optiga-trust-m/optiga-trust-m-1/optiga/comms/ifx_i2c/ifx_i2c_presentation_layer.c **** #define COPY_MANAGE_CONTEXT_DATA(source, destination){\
 168://MAC/Home/Downloads/getstarted-optiga-trust-m/optiga-trust-m-1/optiga/comms/ifx_i2c/ifx_i2c_presentation_layer.c ****                                  memcpy(destination.session_key,source.session_key,sizeof(source.se
 169://MAC/Home/Downloads/getstarted-optiga-trust-m/optiga-trust-m-1/optiga/comms/ifx_i2c/ifx_i2c_presentation_layer.c ****                                  destination.master_sequence_number = source.master_sequence_number
 170://MAC/Home/Downloads/getstarted-optiga-trust-m/optiga-trust-m-1/optiga/comms/ifx_i2c/ifx_i2c_presentation_layer.c ****                                  destination.save_slave_sequence_number = source.save_slave_sequenc
 171://MAC/Home/Downloads/getstarted-optiga-trust-m/optiga-trust-m-1/optiga/comms/ifx_i2c/ifx_i2c_presentation_layer.c ****                                  destination.decryption_failure_counter = source.decryption_failure
 172://MAC/Home/Downloads/getstarted-optiga-trust-m/optiga-trust-m-1/optiga/comms/ifx_i2c/ifx_i2c_presentation_layer.c ****                                  destination.data_retransmit_counter = source.data_retransmit_count
 173://MAC/Home/Downloads/getstarted-optiga-trust-m/optiga-trust-m-1/optiga/comms/ifx_i2c/ifx_i2c_presentation_layer.c ****                                  destination.negotiation_state = source.negotiation_state;}\
 174://MAC/Home/Downloads/getstarted-optiga-trust-m/optiga-trust-m-1/optiga/comms/ifx_i2c/ifx_i2c_presentation_layer.c **** 
 175://MAC/Home/Downloads/getstarted-optiga-trust-m/optiga-trust-m-1/optiga/comms/ifx_i2c/ifx_i2c_presentation_layer.c **** #define DO_NEGOTIATION(ctx, exit_machine){\
 176://MAC/Home/Downloads/getstarted-optiga-trust-m/optiga-trust-m-1/optiga/comms/ifx_i2c/ifx_i2c_presentation_layer.c ****                        ctx->prl.negotiation_state = PRL_NEGOTIATION_NOT_DONE;\
 177://MAC/Home/Downloads/getstarted-optiga-trust-m/optiga-trust-m-1/optiga/comms/ifx_i2c/ifx_i2c_presentation_layer.c ****                        ctx->prl.state = PRL_STATE_HANDSHAKE;\
 178://MAC/Home/Downloads/getstarted-optiga-trust-m/optiga-trust-m-1/optiga/comms/ifx_i2c/ifx_i2c_presentation_layer.c ****                        exit_machine = TRUE;\
 179://MAC/Home/Downloads/getstarted-optiga-trust-m/optiga-trust-m-1/optiga/comms/ifx_i2c/ifx_i2c_presentation_layer.c ****                        ctx->prl.hs_state = PRL_HS_SEND_HELLO;}\
 180://MAC/Home/Downloads/getstarted-optiga-trust-m/optiga-trust-m-1/optiga/comms/ifx_i2c/ifx_i2c_presentation_layer.c **** 
 181://MAC/Home/Downloads/getstarted-optiga-trust-m/optiga-trust-m-1/optiga/comms/ifx_i2c/ifx_i2c_presentation_layer.c **** _STATIC_H optiga_lib_status_t ifx_i2c_prl_do_handshake(ifx_i2c_context_t * p_ctx,
 182://MAC/Home/Downloads/getstarted-optiga-trust-m/optiga-trust-m-1/optiga/comms/ifx_i2c/ifx_i2c_presentation_layer.c ****                                                        const uint8_t * p_data);
 183://MAC/Home/Downloads/getstarted-optiga-trust-m/optiga-trust-m-1/optiga/comms/ifx_i2c/ifx_i2c_presentation_layer.c **** _STATIC_H void ifx_i2c_prl_event_handler(ifx_i2c_context_t * p_ctx,
 184://MAC/Home/Downloads/getstarted-optiga-trust-m/optiga-trust-m-1/optiga/comms/ifx_i2c/ifx_i2c_presentation_layer.c ****                                          optiga_lib_status_t event,
 185://MAC/Home/Downloads/getstarted-optiga-trust-m/optiga-trust-m-1/optiga/comms/ifx_i2c/ifx_i2c_presentation_layer.c ****                                          const uint8_t * p_data,
 186://MAC/Home/Downloads/getstarted-optiga-trust-m/optiga-trust-m-1/optiga/comms/ifx_i2c/ifx_i2c_presentation_layer.c ****                                          uint16_t data_len);
 187://MAC/Home/Downloads/getstarted-optiga-trust-m/optiga-trust-m-1/optiga/comms/ifx_i2c/ifx_i2c_presentation_layer.c **** _STATIC_H optiga_lib_status_t ifx_i2c_prl_prf(ifx_i2c_context_t * p_ctx);
 188://MAC/Home/Downloads/getstarted-optiga-trust-m/optiga-trust-m-1/optiga/comms/ifx_i2c/ifx_i2c_presentation_layer.c **** _STATIC_H optiga_lib_status_t ifx_i2c_prl_send_alert(ifx_i2c_context_t * p_ctx);
 189://MAC/Home/Downloads/getstarted-optiga-trust-m/optiga-trust-m-1/optiga/comms/ifx_i2c/ifx_i2c_presentation_layer.c **** /// @endcond
 190://MAC/Home/Downloads/getstarted-optiga-trust-m/optiga-trust-m-1/optiga/comms/ifx_i2c/ifx_i2c_presentation_layer.c **** 
 191://MAC/Home/Downloads/getstarted-optiga-trust-m/optiga-trust-m-1/optiga/comms/ifx_i2c/ifx_i2c_presentation_layer.c **** optiga_lib_status_t ifx_i2c_prl_init(ifx_i2c_context_t * p_ctx,
 192://MAC/Home/Downloads/getstarted-optiga-trust-m/optiga-trust-m-1/optiga/comms/ifx_i2c/ifx_i2c_presentation_layer.c ****                                      ifx_i2c_event_handler_t handler)
 193://MAC/Home/Downloads/getstarted-optiga-trust-m/optiga-trust-m-1/optiga/comms/ifx_i2c/ifx_i2c_presentation_layer.c **** {
 194://MAC/Home/Downloads/getstarted-optiga-trust-m/optiga-trust-m-1/optiga/comms/ifx_i2c/ifx_i2c_presentation_layer.c ****     optiga_lib_status_t return_status = IFX_I2C_STACK_ERROR;
 195://MAC/Home/Downloads/getstarted-optiga-trust-m/optiga-trust-m-1/optiga/comms/ifx_i2c/ifx_i2c_presentation_layer.c ****     LOG_PRL("[IFX-PRL]: Init\n");
 196://MAC/Home/Downloads/getstarted-optiga-trust-m/optiga-trust-m-1/optiga/comms/ifx_i2c/ifx_i2c_presentation_layer.c **** 
 197://MAC/Home/Downloads/getstarted-optiga-trust-m/optiga-trust-m-1/optiga/comms/ifx_i2c/ifx_i2c_presentation_layer.c ****     p_ctx->tl.state = PRL_STATE_UNINIT;
 198://MAC/Home/Downloads/getstarted-optiga-trust-m/optiga-trust-m-1/optiga/comms/ifx_i2c/ifx_i2c_presentation_layer.c **** 
 199://MAC/Home/Downloads/getstarted-optiga-trust-m/optiga-trust-m-1/optiga/comms/ifx_i2c/ifx_i2c_presentation_layer.c ****     do
 200://MAC/Home/Downloads/getstarted-optiga-trust-m/optiga-trust-m-1/optiga/comms/ifx_i2c/ifx_i2c_presentation_layer.c ****     {
 201://MAC/Home/Downloads/getstarted-optiga-trust-m/optiga-trust-m-1/optiga/comms/ifx_i2c/ifx_i2c_presentation_layer.c ****         // Initialize transport layer (and register event handler)
 202://MAC/Home/Downloads/getstarted-optiga-trust-m/optiga-trust-m-1/optiga/comms/ifx_i2c/ifx_i2c_presentation_layer.c ****         if (IFX_I2C_STACK_SUCCESS != ifx_i2c_tl_init(p_ctx, ifx_i2c_prl_event_handler))
 203://MAC/Home/Downloads/getstarted-optiga-trust-m/optiga-trust-m-1/optiga/comms/ifx_i2c/ifx_i2c_presentation_layer.c ****         {
 204://MAC/Home/Downloads/getstarted-optiga-trust-m/optiga-trust-m-1/optiga/comms/ifx_i2c/ifx_i2c_presentation_layer.c ****             break;
 205://MAC/Home/Downloads/getstarted-optiga-trust-m/optiga-trust-m-1/optiga/comms/ifx_i2c/ifx_i2c_presentation_layer.c ****         }
 206://MAC/Home/Downloads/getstarted-optiga-trust-m/optiga-trust-m-1/optiga/comms/ifx_i2c/ifx_i2c_presentation_layer.c **** 
 207://MAC/Home/Downloads/getstarted-optiga-trust-m/optiga-trust-m-1/optiga/comms/ifx_i2c/ifx_i2c_presentation_layer.c ****         p_ctx->prl.upper_layer_event_handler = handler;
 208://MAC/Home/Downloads/getstarted-optiga-trust-m/optiga-trust-m-1/optiga/comms/ifx_i2c/ifx_i2c_presentation_layer.c ****         if (IFX_I2C_SESSION_CONTEXT_RESTORE == p_ctx->manage_context_operation)
 209://MAC/Home/Downloads/getstarted-optiga-trust-m/optiga-trust-m-1/optiga/comms/ifx_i2c/ifx_i2c_presentation_layer.c ****         {
 210://MAC/Home/Downloads/getstarted-optiga-trust-m/optiga-trust-m-1/optiga/comms/ifx_i2c/ifx_i2c_presentation_layer.c ****             p_ctx->prl.restore_context_flag = PRL_RESTORE_NOT_DONE;
 211://MAC/Home/Downloads/getstarted-optiga-trust-m/optiga-trust-m-1/optiga/comms/ifx_i2c/ifx_i2c_presentation_layer.c ****         }
 212://MAC/Home/Downloads/getstarted-optiga-trust-m/optiga-trust-m-1/optiga/comms/ifx_i2c/ifx_i2c_presentation_layer.c ****         else
 213://MAC/Home/Downloads/getstarted-optiga-trust-m/optiga-trust-m-1/optiga/comms/ifx_i2c/ifx_i2c_presentation_layer.c ****         {
 214://MAC/Home/Downloads/getstarted-optiga-trust-m/optiga-trust-m-1/optiga/comms/ifx_i2c/ifx_i2c_presentation_layer.c ****             p_ctx->prl.restore_context_flag = PRL_RESTORE_DONE;
 215://MAC/Home/Downloads/getstarted-optiga-trust-m/optiga-trust-m-1/optiga/comms/ifx_i2c/ifx_i2c_presentation_layer.c ****         }
 216://MAC/Home/Downloads/getstarted-optiga-trust-m/optiga-trust-m-1/optiga/comms/ifx_i2c/ifx_i2c_presentation_layer.c ****         p_ctx->prl.state = PRL_STATE_IDLE;
 217://MAC/Home/Downloads/getstarted-optiga-trust-m/optiga-trust-m-1/optiga/comms/ifx_i2c/ifx_i2c_presentation_layer.c **** 
 218://MAC/Home/Downloads/getstarted-optiga-trust-m/optiga-trust-m-1/optiga/comms/ifx_i2c/ifx_i2c_presentation_layer.c ****         p_ctx->protocol_version = PROTOCOL_VERSION_PRE_SHARED_SECRET;
 219://MAC/Home/Downloads/getstarted-optiga-trust-m/optiga-trust-m-1/optiga/comms/ifx_i2c/ifx_i2c_presentation_layer.c ****         p_ctx->prl.negotiation_state = PRL_NEGOTIATION_NOT_DONE;
 220://MAC/Home/Downloads/getstarted-optiga-trust-m/optiga-trust-m-1/optiga/comms/ifx_i2c/ifx_i2c_presentation_layer.c ****         p_ctx->prl.return_status = IFX_I2C_STACK_SUCCESS;
 221://MAC/Home/Downloads/getstarted-optiga-trust-m/optiga-trust-m-1/optiga/comms/ifx_i2c/ifx_i2c_presentation_layer.c ****         p_ctx->prl.hs_state = PRL_HS_SEND_HELLO;
 222://MAC/Home/Downloads/getstarted-optiga-trust-m/optiga-trust-m-1/optiga/comms/ifx_i2c/ifx_i2c_presentation_layer.c ****         p_ctx->prl.alert_type = PRL_DEFAULT_ALERT;
 223://MAC/Home/Downloads/getstarted-optiga-trust-m/optiga-trust-m-1/optiga/comms/ifx_i2c/ifx_i2c_presentation_layer.c ****         return_status = IFX_I2C_STACK_SUCCESS;
 224://MAC/Home/Downloads/getstarted-optiga-trust-m/optiga-trust-m-1/optiga/comms/ifx_i2c/ifx_i2c_presentation_layer.c ****     } while (FALSE);
 225://MAC/Home/Downloads/getstarted-optiga-trust-m/optiga-trust-m-1/optiga/comms/ifx_i2c/ifx_i2c_presentation_layer.c ****     
 226://MAC/Home/Downloads/getstarted-optiga-trust-m/optiga-trust-m-1/optiga/comms/ifx_i2c/ifx_i2c_presentation_layer.c ****     return (return_status);
 227://MAC/Home/Downloads/getstarted-optiga-trust-m/optiga-trust-m-1/optiga/comms/ifx_i2c/ifx_i2c_presentation_layer.c **** }
 228://MAC/Home/Downloads/getstarted-optiga-trust-m/optiga-trust-m-1/optiga/comms/ifx_i2c/ifx_i2c_presentation_layer.c **** 
 229://MAC/Home/Downloads/getstarted-optiga-trust-m/optiga-trust-m-1/optiga/comms/ifx_i2c/ifx_i2c_presentation_layer.c **** optiga_lib_status_t ifx_i2c_prl_close(ifx_i2c_context_t * p_ctx, ifx_i2c_event_handler_t handler)
 230://MAC/Home/Downloads/getstarted-optiga-trust-m/optiga-trust-m-1/optiga/comms/ifx_i2c/ifx_i2c_presentation_layer.c **** {
 231://MAC/Home/Downloads/getstarted-optiga-trust-m/optiga-trust-m-1/optiga/comms/ifx_i2c/ifx_i2c_presentation_layer.c ****     optiga_lib_status_t return_status = IFX_I2C_STACK_ERROR;
 232://MAC/Home/Downloads/getstarted-optiga-trust-m/optiga-trust-m-1/optiga/comms/ifx_i2c/ifx_i2c_presentation_layer.c ****     LOG_PRL("[IFX-PRL]: Close\n");
 233://MAC/Home/Downloads/getstarted-optiga-trust-m/optiga-trust-m-1/optiga/comms/ifx_i2c/ifx_i2c_presentation_layer.c ****     do
 234://MAC/Home/Downloads/getstarted-optiga-trust-m/optiga-trust-m-1/optiga/comms/ifx_i2c/ifx_i2c_presentation_layer.c ****     {
 235://MAC/Home/Downloads/getstarted-optiga-trust-m/optiga-trust-m-1/optiga/comms/ifx_i2c/ifx_i2c_presentation_layer.c ****         // Presentation Layer must be idle
 236://MAC/Home/Downloads/getstarted-optiga-trust-m/optiga-trust-m-1/optiga/comms/ifx_i2c/ifx_i2c_presentation_layer.c ****         if (PRL_STATE_IDLE != p_ctx->prl.state)
 237://MAC/Home/Downloads/getstarted-optiga-trust-m/optiga-trust-m-1/optiga/comms/ifx_i2c/ifx_i2c_presentation_layer.c ****         {
 238://MAC/Home/Downloads/getstarted-optiga-trust-m/optiga-trust-m-1/optiga/comms/ifx_i2c/ifx_i2c_presentation_layer.c ****             break;
 239://MAC/Home/Downloads/getstarted-optiga-trust-m/optiga-trust-m-1/optiga/comms/ifx_i2c/ifx_i2c_presentation_layer.c ****         }
 240://MAC/Home/Downloads/getstarted-optiga-trust-m/optiga-trust-m-1/optiga/comms/ifx_i2c/ifx_i2c_presentation_layer.c ****         p_ctx->prl.upper_layer_event_handler = handler;
 241://MAC/Home/Downloads/getstarted-optiga-trust-m/optiga-trust-m-1/optiga/comms/ifx_i2c/ifx_i2c_presentation_layer.c ****         if (IFX_I2C_SESSION_CONTEXT_NONE == p_ctx->manage_context_operation)
 242://MAC/Home/Downloads/getstarted-optiga-trust-m/optiga-trust-m-1/optiga/comms/ifx_i2c/ifx_i2c_presentation_layer.c ****         {
 243://MAC/Home/Downloads/getstarted-optiga-trust-m/optiga-trust-m-1/optiga/comms/ifx_i2c/ifx_i2c_presentation_layer.c ****             p_ctx->prl.upper_layer_event_handler(p_ctx, IFX_I2C_STACK_SUCCESS, 0, 0);
 244://MAC/Home/Downloads/getstarted-optiga-trust-m/optiga-trust-m-1/optiga/comms/ifx_i2c/ifx_i2c_presentation_layer.c ****             return_status = IFX_I2C_STACK_SUCCESS;
 245://MAC/Home/Downloads/getstarted-optiga-trust-m/optiga-trust-m-1/optiga/comms/ifx_i2c/ifx_i2c_presentation_layer.c ****             break;
 246://MAC/Home/Downloads/getstarted-optiga-trust-m/optiga-trust-m-1/optiga/comms/ifx_i2c/ifx_i2c_presentation_layer.c ****         }
 247://MAC/Home/Downloads/getstarted-optiga-trust-m/optiga-trust-m-1/optiga/comms/ifx_i2c/ifx_i2c_presentation_layer.c **** 
 248://MAC/Home/Downloads/getstarted-optiga-trust-m/optiga-trust-m-1/optiga/comms/ifx_i2c/ifx_i2c_presentation_layer.c ****         if ((PRL_NEGOTIATION_DONE == p_ctx->prl.negotiation_state) &&
 249://MAC/Home/Downloads/getstarted-optiga-trust-m/optiga-trust-m-1/optiga/comms/ifx_i2c/ifx_i2c_presentation_layer.c ****             (IFX_I2C_SESSION_CONTEXT_SAVE == p_ctx->manage_context_operation))
 250://MAC/Home/Downloads/getstarted-optiga-trust-m/optiga-trust-m-1/optiga/comms/ifx_i2c/ifx_i2c_presentation_layer.c ****         {
 251://MAC/Home/Downloads/getstarted-optiga-trust-m/optiga-trust-m-1/optiga/comms/ifx_i2c/ifx_i2c_presentation_layer.c ****             p_ctx->prl.state = PRL_STATE_MANAGE_CONTEXT;
 252://MAC/Home/Downloads/getstarted-optiga-trust-m/optiga-trust-m-1/optiga/comms/ifx_i2c/ifx_i2c_presentation_layer.c ****             p_ctx->prl.mc_state = PRL_MANAGE_CONTEXT_TX_STATE;
 253://MAC/Home/Downloads/getstarted-optiga-trust-m/optiga-trust-m-1/optiga/comms/ifx_i2c/ifx_i2c_presentation_layer.c ****             ifx_i2c_prl_event_handler(p_ctx, IFX_I2C_STACK_SUCCESS, p_ctx->prl.prl_txrx_buffer, 1);
 254://MAC/Home/Downloads/getstarted-optiga-trust-m/optiga-trust-m-1/optiga/comms/ifx_i2c/ifx_i2c_presentation_layer.c ****             return_status = IFX_I2C_STACK_SUCCESS;
 255://MAC/Home/Downloads/getstarted-optiga-trust-m/optiga-trust-m-1/optiga/comms/ifx_i2c/ifx_i2c_presentation_layer.c ****             break;
 256://MAC/Home/Downloads/getstarted-optiga-trust-m/optiga-trust-m-1/optiga/comms/ifx_i2c/ifx_i2c_presentation_layer.c ****         }
 257://MAC/Home/Downloads/getstarted-optiga-trust-m/optiga-trust-m-1/optiga/comms/ifx_i2c/ifx_i2c_presentation_layer.c ****     } while (FALSE);
 258://MAC/Home/Downloads/getstarted-optiga-trust-m/optiga-trust-m-1/optiga/comms/ifx_i2c/ifx_i2c_presentation_layer.c ****     return (return_status);
 259://MAC/Home/Downloads/getstarted-optiga-trust-m/optiga-trust-m-1/optiga/comms/ifx_i2c/ifx_i2c_presentation_layer.c **** }
 260://MAC/Home/Downloads/getstarted-optiga-trust-m/optiga-trust-m-1/optiga/comms/ifx_i2c/ifx_i2c_presentation_layer.c **** 
 261://MAC/Home/Downloads/getstarted-optiga-trust-m/optiga-trust-m-1/optiga/comms/ifx_i2c/ifx_i2c_presentation_layer.c **** optiga_lib_status_t ifx_i2c_prl_transceive(ifx_i2c_context_t * p_ctx,
 262://MAC/Home/Downloads/getstarted-optiga-trust-m/optiga-trust-m-1/optiga/comms/ifx_i2c/ifx_i2c_presentation_layer.c ****                                            uint8_t * p_tx_data,
 263://MAC/Home/Downloads/getstarted-optiga-trust-m/optiga-trust-m-1/optiga/comms/ifx_i2c/ifx_i2c_presentation_layer.c ****                                            uint16_t tx_data_len,
 264://MAC/Home/Downloads/getstarted-optiga-trust-m/optiga-trust-m-1/optiga/comms/ifx_i2c/ifx_i2c_presentation_layer.c ****                                            uint8_t * p_rx_data,
 265://MAC/Home/Downloads/getstarted-optiga-trust-m/optiga-trust-m-1/optiga/comms/ifx_i2c/ifx_i2c_presentation_layer.c ****                                            uint16_t * p_rx_data_len)
 266://MAC/Home/Downloads/getstarted-optiga-trust-m/optiga-trust-m-1/optiga/comms/ifx_i2c/ifx_i2c_presentation_layer.c **** {
 267://MAC/Home/Downloads/getstarted-optiga-trust-m/optiga-trust-m-1/optiga/comms/ifx_i2c/ifx_i2c_presentation_layer.c ****     optiga_lib_status_t return_status = IFX_I2C_STACK_ERROR;
 268://MAC/Home/Downloads/getstarted-optiga-trust-m/optiga-trust-m-1/optiga/comms/ifx_i2c/ifx_i2c_presentation_layer.c ****     LOG_PRL("[IFX-PRL]: Transceive txlen %d\n", tx_data_len);
 269://MAC/Home/Downloads/getstarted-optiga-trust-m/optiga-trust-m-1/optiga/comms/ifx_i2c/ifx_i2c_presentation_layer.c **** 
 270://MAC/Home/Downloads/getstarted-optiga-trust-m/optiga-trust-m-1/optiga/comms/ifx_i2c/ifx_i2c_presentation_layer.c ****     do
 271://MAC/Home/Downloads/getstarted-optiga-trust-m/optiga-trust-m-1/optiga/comms/ifx_i2c/ifx_i2c_presentation_layer.c ****     {
 272://MAC/Home/Downloads/getstarted-optiga-trust-m/optiga-trust-m-1/optiga/comms/ifx_i2c/ifx_i2c_presentation_layer.c ****         // Check function arguments and presentation Layer must be idle
 273://MAC/Home/Downloads/getstarted-optiga-trust-m/optiga-trust-m-1/optiga/comms/ifx_i2c/ifx_i2c_presentation_layer.c ****         if ((NULL == p_tx_data) || (0 == tx_data_len) || (PRL_STATE_IDLE != p_ctx->prl.state))
 274://MAC/Home/Downloads/getstarted-optiga-trust-m/optiga-trust-m-1/optiga/comms/ifx_i2c/ifx_i2c_presentation_layer.c ****         {
 275://MAC/Home/Downloads/getstarted-optiga-trust-m/optiga-trust-m-1/optiga/comms/ifx_i2c/ifx_i2c_presentation_layer.c ****             break;
 276://MAC/Home/Downloads/getstarted-optiga-trust-m/optiga-trust-m-1/optiga/comms/ifx_i2c/ifx_i2c_presentation_layer.c ****         }
 277://MAC/Home/Downloads/getstarted-optiga-trust-m/optiga-trust-m-1/optiga/comms/ifx_i2c/ifx_i2c_presentation_layer.c **** 
 278://MAC/Home/Downloads/getstarted-optiga-trust-m/optiga-trust-m-1/optiga/comms/ifx_i2c/ifx_i2c_presentation_layer.c ****         if ((IFX_I2C_SESSION_CONTEXT_RESTORE == p_ctx->manage_context_operation) && 
 279://MAC/Home/Downloads/getstarted-optiga-trust-m/optiga-trust-m-1/optiga/comms/ifx_i2c/ifx_i2c_presentation_layer.c ****             (PRL_RESTORE_NOT_DONE == p_ctx->prl.restore_context_flag))
 280://MAC/Home/Downloads/getstarted-optiga-trust-m/optiga-trust-m-1/optiga/comms/ifx_i2c/ifx_i2c_presentation_layer.c ****         {
 281://MAC/Home/Downloads/getstarted-optiga-trust-m/optiga-trust-m-1/optiga/comms/ifx_i2c/ifx_i2c_presentation_layer.c ****             p_ctx->prl.state = PRL_STATE_MANAGE_CONTEXT;
 282://MAC/Home/Downloads/getstarted-optiga-trust-m/optiga-trust-m-1/optiga/comms/ifx_i2c/ifx_i2c_presentation_layer.c ****             p_ctx->prl.mc_state = PRL_MANAGE_CONTEXT_TX_STATE;
 283://MAC/Home/Downloads/getstarted-optiga-trust-m/optiga-trust-m-1/optiga/comms/ifx_i2c/ifx_i2c_presentation_layer.c ****         }
 284://MAC/Home/Downloads/getstarted-optiga-trust-m/optiga-trust-m-1/optiga/comms/ifx_i2c/ifx_i2c_presentation_layer.c ****         else
 285://MAC/Home/Downloads/getstarted-optiga-trust-m/optiga-trust-m-1/optiga/comms/ifx_i2c/ifx_i2c_presentation_layer.c ****         {
 286://MAC/Home/Downloads/getstarted-optiga-trust-m/optiga-trust-m-1/optiga/comms/ifx_i2c/ifx_i2c_presentation_layer.c ****             p_ctx->prl.state = PRL_STATE_START;
 287://MAC/Home/Downloads/getstarted-optiga-trust-m/optiga-trust-m-1/optiga/comms/ifx_i2c/ifx_i2c_presentation_layer.c ****         }
 288://MAC/Home/Downloads/getstarted-optiga-trust-m/optiga-trust-m-1/optiga/comms/ifx_i2c/ifx_i2c_presentation_layer.c ****         p_ctx->prl.p_actual_payload = p_tx_data;
 289://MAC/Home/Downloads/getstarted-optiga-trust-m/optiga-trust-m-1/optiga/comms/ifx_i2c/ifx_i2c_presentation_layer.c ****         p_ctx->prl.actual_payload_length = tx_data_len;
 290://MAC/Home/Downloads/getstarted-optiga-trust-m/optiga-trust-m-1/optiga/comms/ifx_i2c/ifx_i2c_presentation_layer.c **** 
 291://MAC/Home/Downloads/getstarted-optiga-trust-m/optiga-trust-m-1/optiga/comms/ifx_i2c/ifx_i2c_presentation_layer.c ****         if ((SLAVE_PROTECTION == (p_ctx->protection_level & PRL_PROTECTION_MASK)) ||
 292://MAC/Home/Downloads/getstarted-optiga-trust-m/optiga-trust-m-1/optiga/comms/ifx_i2c/ifx_i2c_presentation_layer.c ****             (FULL_PROTECTION == (p_ctx->protection_level & PRL_PROTECTION_MASK)))
 293://MAC/Home/Downloads/getstarted-optiga-trust-m/optiga-trust-m-1/optiga/comms/ifx_i2c/ifx_i2c_presentation_layer.c ****         {
 294://MAC/Home/Downloads/getstarted-optiga-trust-m/optiga-trust-m-1/optiga/comms/ifx_i2c/ifx_i2c_presentation_layer.c ****             p_ctx->prl.p_recv_payload_buffer = p_rx_data;
 295://MAC/Home/Downloads/getstarted-optiga-trust-m/optiga-trust-m-1/optiga/comms/ifx_i2c/ifx_i2c_presentation_layer.c ****         }
 296://MAC/Home/Downloads/getstarted-optiga-trust-m/optiga-trust-m-1/optiga/comms/ifx_i2c/ifx_i2c_presentation_layer.c ****         else
 297://MAC/Home/Downloads/getstarted-optiga-trust-m/optiga-trust-m-1/optiga/comms/ifx_i2c/ifx_i2c_presentation_layer.c ****         {
 298://MAC/Home/Downloads/getstarted-optiga-trust-m/optiga-trust-m-1/optiga/comms/ifx_i2c/ifx_i2c_presentation_layer.c ****             p_ctx->prl.p_recv_payload_buffer = &p_rx_data[PRL_PLAIN_TEST_OFFSET];
 299://MAC/Home/Downloads/getstarted-optiga-trust-m/optiga-trust-m-1/optiga/comms/ifx_i2c/ifx_i2c_presentation_layer.c ****         }
 300://MAC/Home/Downloads/getstarted-optiga-trust-m/optiga-trust-m-1/optiga/comms/ifx_i2c/ifx_i2c_presentation_layer.c ****         p_ctx->prl.p_recv_payload_buffer_length = p_rx_data_len;
 301://MAC/Home/Downloads/getstarted-optiga-trust-m/optiga-trust-m-1/optiga/comms/ifx_i2c/ifx_i2c_presentation_layer.c ****         p_ctx->prl.data_retransmit_counter = 0;
 302://MAC/Home/Downloads/getstarted-optiga-trust-m/optiga-trust-m-1/optiga/comms/ifx_i2c/ifx_i2c_presentation_layer.c ****         p_ctx->prl.trans_repeat_status = FALSE;
 303://MAC/Home/Downloads/getstarted-optiga-trust-m/optiga-trust-m-1/optiga/comms/ifx_i2c/ifx_i2c_presentation_layer.c ****         p_ctx->prl.decryption_failure_counter = 0;
 304://MAC/Home/Downloads/getstarted-optiga-trust-m/optiga-trust-m-1/optiga/comms/ifx_i2c/ifx_i2c_presentation_layer.c ****         p_ctx->prl.return_status = IFX_I2C_STACK_SUCCESS;
 305://MAC/Home/Downloads/getstarted-optiga-trust-m/optiga-trust-m-1/optiga/comms/ifx_i2c/ifx_i2c_presentation_layer.c ****         p_ctx->prl.alert_type = PRL_DEFAULT_ALERT;
 306://MAC/Home/Downloads/getstarted-optiga-trust-m/optiga-trust-m-1/optiga/comms/ifx_i2c/ifx_i2c_presentation_layer.c **** 
 307://MAC/Home/Downloads/getstarted-optiga-trust-m/optiga-trust-m-1/optiga/comms/ifx_i2c/ifx_i2c_presentation_layer.c ****         ifx_i2c_prl_event_handler(p_ctx,
 308://MAC/Home/Downloads/getstarted-optiga-trust-m/optiga-trust-m-1/optiga/comms/ifx_i2c/ifx_i2c_presentation_layer.c ****                                   IFX_I2C_STACK_SUCCESS,
 309://MAC/Home/Downloads/getstarted-optiga-trust-m/optiga-trust-m-1/optiga/comms/ifx_i2c/ifx_i2c_presentation_layer.c ****                                   p_tx_data, tx_data_len);
 310://MAC/Home/Downloads/getstarted-optiga-trust-m/optiga-trust-m-1/optiga/comms/ifx_i2c/ifx_i2c_presentation_layer.c ****         return_status = IFX_I2C_STACK_SUCCESS;
 311://MAC/Home/Downloads/getstarted-optiga-trust-m/optiga-trust-m-1/optiga/comms/ifx_i2c/ifx_i2c_presentation_layer.c **** 
 312://MAC/Home/Downloads/getstarted-optiga-trust-m/optiga-trust-m-1/optiga/comms/ifx_i2c/ifx_i2c_presentation_layer.c ****     } while (FALSE);
 313://MAC/Home/Downloads/getstarted-optiga-trust-m/optiga-trust-m-1/optiga/comms/ifx_i2c/ifx_i2c_presentation_layer.c ****     return (return_status);
 314://MAC/Home/Downloads/getstarted-optiga-trust-m/optiga-trust-m-1/optiga/comms/ifx_i2c/ifx_i2c_presentation_layer.c **** }
 315://MAC/Home/Downloads/getstarted-optiga-trust-m/optiga-trust-m-1/optiga/comms/ifx_i2c/ifx_i2c_presentation_layer.c **** 
 316://MAC/Home/Downloads/getstarted-optiga-trust-m/optiga-trust-m-1/optiga/comms/ifx_i2c/ifx_i2c_presentation_layer.c **** _STATIC_H optiga_lib_status_t ifx_i2c_prl_prf(ifx_i2c_context_t * p_ctx)
 317://MAC/Home/Downloads/getstarted-optiga-trust-m/optiga-trust-m-1/optiga/comms/ifx_i2c/ifx_i2c_presentation_layer.c **** {
 318://MAC/Home/Downloads/getstarted-optiga-trust-m/optiga-trust-m-1/optiga/comms/ifx_i2c/ifx_i2c_presentation_layer.c ****     optiga_lib_status_t return_status = IFX_I2C_HANDSHAKE_ERROR;
 319://MAC/Home/Downloads/getstarted-optiga-trust-m/optiga-trust-m-1/optiga/comms/ifx_i2c/ifx_i2c_presentation_layer.c ****     uint8_t label_input[] = PRL_LABLE;
 320://MAC/Home/Downloads/getstarted-optiga-trust-m/optiga-trust-m-1/optiga/comms/ifx_i2c/ifx_i2c_presentation_layer.c ****     uint8_t secret_input[SHARED_SECRET_LENGTH];
 321://MAC/Home/Downloads/getstarted-optiga-trust-m/optiga-trust-m-1/optiga/comms/ifx_i2c/ifx_i2c_presentation_layer.c ****     do
 322://MAC/Home/Downloads/getstarted-optiga-trust-m/optiga-trust-m-1/optiga/comms/ifx_i2c/ifx_i2c_presentation_layer.c ****     {
 323://MAC/Home/Downloads/getstarted-optiga-trust-m/optiga-trust-m-1/optiga/comms/ifx_i2c/ifx_i2c_presentation_layer.c ****         //Reading pre-shared secret from datastore
 324://MAC/Home/Downloads/getstarted-optiga-trust-m/optiga-trust-m-1/optiga/comms/ifx_i2c/ifx_i2c_presentation_layer.c ****         return_status = pal_os_datastore_read(p_ctx->ifx_i2c_datastore_config->datastore_shared_sec
 325://MAC/Home/Downloads/getstarted-optiga-trust-m/optiga-trust-m-1/optiga/comms/ifx_i2c/ifx_i2c_presentation_layer.c ****                                               secret_input,
 326://MAC/Home/Downloads/getstarted-optiga-trust-m/optiga-trust-m-1/optiga/comms/ifx_i2c/ifx_i2c_presentation_layer.c ****                                               &p_ctx->ifx_i2c_datastore_config->shared_secret_lengt
 327://MAC/Home/Downloads/getstarted-optiga-trust-m/optiga-trust-m-1/optiga/comms/ifx_i2c/ifx_i2c_presentation_layer.c ****         if (PAL_STATUS_SUCCESS != return_status)
 328://MAC/Home/Downloads/getstarted-optiga-trust-m/optiga-trust-m-1/optiga/comms/ifx_i2c/ifx_i2c_presentation_layer.c ****         {
 329://MAC/Home/Downloads/getstarted-optiga-trust-m/optiga-trust-m-1/optiga/comms/ifx_i2c/ifx_i2c_presentation_layer.c ****             return_status = IFX_I2C_HANDSHAKE_ERROR;
 330://MAC/Home/Downloads/getstarted-optiga-trust-m/optiga-trust-m-1/optiga/comms/ifx_i2c/ifx_i2c_presentation_layer.c ****             break;
 331://MAC/Home/Downloads/getstarted-optiga-trust-m/optiga-trust-m-1/optiga/comms/ifx_i2c/ifx_i2c_presentation_layer.c ****         }
 332://MAC/Home/Downloads/getstarted-optiga-trust-m/optiga-trust-m-1/optiga/comms/ifx_i2c/ifx_i2c_presentation_layer.c ****         if (PAL_STATUS_SUCCESS != pal_crypt_tls_prf_sha256(NULL, secret_input,
 333://MAC/Home/Downloads/getstarted-optiga-trust-m/optiga-trust-m-1/optiga/comms/ifx_i2c/ifx_i2c_presentation_layer.c ****                                           sizeof(secret_input),
 334://MAC/Home/Downloads/getstarted-optiga-trust-m/optiga-trust-m-1/optiga/comms/ifx_i2c/ifx_i2c_presentation_layer.c ****                                           label_input,
 335://MAC/Home/Downloads/getstarted-optiga-trust-m/optiga-trust-m-1/optiga/comms/ifx_i2c/ifx_i2c_presentation_layer.c ****                                           sizeof(label_input) - 1,
 336://MAC/Home/Downloads/getstarted-optiga-trust-m/optiga-trust-m-1/optiga/comms/ifx_i2c/ifx_i2c_presentation_layer.c ****                                           p_ctx->prl.random,
 337://MAC/Home/Downloads/getstarted-optiga-trust-m/optiga-trust-m-1/optiga/comms/ifx_i2c/ifx_i2c_presentation_layer.c ****                                           sizeof(p_ctx->prl.random),
 338://MAC/Home/Downloads/getstarted-optiga-trust-m/optiga-trust-m-1/optiga/comms/ifx_i2c/ifx_i2c_presentation_layer.c ****                                           p_ctx->prl.session_key,
 339://MAC/Home/Downloads/getstarted-optiga-trust-m/optiga-trust-m-1/optiga/comms/ifx_i2c/ifx_i2c_presentation_layer.c ****                                           sizeof(p_ctx->prl.session_key)))
 340://MAC/Home/Downloads/getstarted-optiga-trust-m/optiga-trust-m-1/optiga/comms/ifx_i2c/ifx_i2c_presentation_layer.c ****         {
 341://MAC/Home/Downloads/getstarted-optiga-trust-m/optiga-trust-m-1/optiga/comms/ifx_i2c/ifx_i2c_presentation_layer.c ****             return_status = IFX_I2C_HANDSHAKE_ERROR;
 342://MAC/Home/Downloads/getstarted-optiga-trust-m/optiga-trust-m-1/optiga/comms/ifx_i2c/ifx_i2c_presentation_layer.c ****         }
 343://MAC/Home/Downloads/getstarted-optiga-trust-m/optiga-trust-m-1/optiga/comms/ifx_i2c/ifx_i2c_presentation_layer.c ****         memset(secret_input, 0, p_ctx->ifx_i2c_datastore_config->shared_secret_length);
 344://MAC/Home/Downloads/getstarted-optiga-trust-m/optiga-trust-m-1/optiga/comms/ifx_i2c/ifx_i2c_presentation_layer.c **** 
 345://MAC/Home/Downloads/getstarted-optiga-trust-m/optiga-trust-m-1/optiga/comms/ifx_i2c/ifx_i2c_presentation_layer.c ****     } while (FALSE);
 346://MAC/Home/Downloads/getstarted-optiga-trust-m/optiga-trust-m-1/optiga/comms/ifx_i2c/ifx_i2c_presentation_layer.c ****     return (return_status);
 347://MAC/Home/Downloads/getstarted-optiga-trust-m/optiga-trust-m-1/optiga/comms/ifx_i2c/ifx_i2c_presentation_layer.c **** }
 348://MAC/Home/Downloads/getstarted-optiga-trust-m/optiga-trust-m-1/optiga/comms/ifx_i2c/ifx_i2c_presentation_layer.c **** 
 349://MAC/Home/Downloads/getstarted-optiga-trust-m/optiga-trust-m-1/optiga/comms/ifx_i2c/ifx_i2c_presentation_layer.c **** _STATIC_H void ifx_i2c_prl_form_associated_data(ifx_i2c_context_t * p_ctx,
 350://MAC/Home/Downloads/getstarted-optiga-trust-m/optiga-trust-m-1/optiga/comms/ifx_i2c/ifx_i2c_presentation_layer.c ****                                                 uint16_t data_len,
 351://MAC/Home/Downloads/getstarted-optiga-trust-m/optiga-trust-m-1/optiga/comms/ifx_i2c/ifx_i2c_presentation_layer.c ****                                                 uint32_t seq_number,
 352://MAC/Home/Downloads/getstarted-optiga-trust-m/optiga-trust-m-1/optiga/comms/ifx_i2c/ifx_i2c_presentation_layer.c ****                                                 uint8_t sctr)
 353://MAC/Home/Downloads/getstarted-optiga-trust-m/optiga-trust-m-1/optiga/comms/ifx_i2c/ifx_i2c_presentation_layer.c **** {
 354://MAC/Home/Downloads/getstarted-optiga-trust-m/optiga-trust-m-1/optiga/comms/ifx_i2c/ifx_i2c_presentation_layer.c ****     p_ctx->prl.associate_data[0] = sctr;
 355://MAC/Home/Downloads/getstarted-optiga-trust-m/optiga-trust-m-1/optiga/comms/ifx_i2c/ifx_i2c_presentation_layer.c ****     optiga_common_set_uint32(&p_ctx->prl.associate_data[1], seq_number);
 356://MAC/Home/Downloads/getstarted-optiga-trust-m/optiga-trust-m-1/optiga/comms/ifx_i2c/ifx_i2c_presentation_layer.c ****     p_ctx->prl.associate_data[5] = p_ctx->protocol_version;
 357://MAC/Home/Downloads/getstarted-optiga-trust-m/optiga-trust-m-1/optiga/comms/ifx_i2c/ifx_i2c_presentation_layer.c ****     optiga_common_set_uint16(&p_ctx->prl.associate_data[6], data_len);
 358://MAC/Home/Downloads/getstarted-optiga-trust-m/optiga-trust-m-1/optiga/comms/ifx_i2c/ifx_i2c_presentation_layer.c **** }
 359://MAC/Home/Downloads/getstarted-optiga-trust-m/optiga-trust-m-1/optiga/comms/ifx_i2c/ifx_i2c_presentation_layer.c **** 
 360://MAC/Home/Downloads/getstarted-optiga-trust-m/optiga-trust-m-1/optiga/comms/ifx_i2c/ifx_i2c_presentation_layer.c **** _STATIC_H optiga_lib_status_t ifx_i2c_prl_encrypt_msg(ifx_i2c_context_t * p_ctx,
 361://MAC/Home/Downloads/getstarted-optiga-trust-m/optiga-trust-m-1/optiga/comms/ifx_i2c/ifx_i2c_presentation_layer.c ****                                                       uint8_t * p_data,
 362://MAC/Home/Downloads/getstarted-optiga-trust-m/optiga-trust-m-1/optiga/comms/ifx_i2c/ifx_i2c_presentation_layer.c ****                                                       uint16_t data_len,
 363://MAC/Home/Downloads/getstarted-optiga-trust-m/optiga-trust-m-1/optiga/comms/ifx_i2c/ifx_i2c_presentation_layer.c ****                                                       uint32_t seq_number,
 364://MAC/Home/Downloads/getstarted-optiga-trust-m/optiga-trust-m-1/optiga/comms/ifx_i2c/ifx_i2c_presentation_layer.c ****                                                       uint8_t sctr)
 365://MAC/Home/Downloads/getstarted-optiga-trust-m/optiga-trust-m-1/optiga/comms/ifx_i2c/ifx_i2c_presentation_layer.c **** {
 366://MAC/Home/Downloads/getstarted-optiga-trust-m/optiga-trust-m-1/optiga/comms/ifx_i2c/ifx_i2c_presentation_layer.c ****     optiga_lib_status_t return_status = IFX_I2C_STACK_ERROR;
 367://MAC/Home/Downloads/getstarted-optiga-trust-m/optiga-trust-m-1/optiga/comms/ifx_i2c/ifx_i2c_presentation_layer.c ****     uint8_t nonce_data[PRL_NONCE_LENGTH];
 368://MAC/Home/Downloads/getstarted-optiga-trust-m/optiga-trust-m-1/optiga/comms/ifx_i2c/ifx_i2c_presentation_layer.c ****     do
 369://MAC/Home/Downloads/getstarted-optiga-trust-m/optiga-trust-m-1/optiga/comms/ifx_i2c/ifx_i2c_presentation_layer.c ****     {
 370://MAC/Home/Downloads/getstarted-optiga-trust-m/optiga-trust-m-1/optiga/comms/ifx_i2c/ifx_i2c_presentation_layer.c ****         //Form associated data
 371://MAC/Home/Downloads/getstarted-optiga-trust-m/optiga-trust-m-1/optiga/comms/ifx_i2c/ifx_i2c_presentation_layer.c ****         ifx_i2c_prl_form_associated_data(p_ctx, data_len,seq_number,sctr);
 372://MAC/Home/Downloads/getstarted-optiga-trust-m/optiga-trust-m-1/optiga/comms/ifx_i2c/ifx_i2c_presentation_layer.c ****         //Prepare nonce data
 373://MAC/Home/Downloads/getstarted-optiga-trust-m/optiga-trust-m-1/optiga/comms/ifx_i2c/ifx_i2c_presentation_layer.c ****         memcpy(nonce_data, &p_ctx->prl.session_key[PRL_MASTER_ENCRYPTION_NONCE_OFFSET], PRL_MASTER_
 374://MAC/Home/Downloads/getstarted-optiga-trust-m/optiga-trust-m-1/optiga/comms/ifx_i2c/ifx_i2c_presentation_layer.c ****         optiga_common_set_uint32(&nonce_data[PRL_MASTER_NONCE_LENGTH], seq_number);
 375://MAC/Home/Downloads/getstarted-optiga-trust-m/optiga-trust-m-1/optiga/comms/ifx_i2c/ifx_i2c_presentation_layer.c **** 
 376://MAC/Home/Downloads/getstarted-optiga-trust-m/optiga-trust-m-1/optiga/comms/ifx_i2c/ifx_i2c_presentation_layer.c ****         if (PAL_STATUS_SUCCESS != (pal_crypt_encrypt_aes128_ccm(NULL,
 377://MAC/Home/Downloads/getstarted-optiga-trust-m/optiga-trust-m-1/optiga/comms/ifx_i2c/ifx_i2c_presentation_layer.c ****                                                                 p_data,
 378://MAC/Home/Downloads/getstarted-optiga-trust-m/optiga-trust-m-1/optiga/comms/ifx_i2c/ifx_i2c_presentation_layer.c ****                                                                 data_len,
 379://MAC/Home/Downloads/getstarted-optiga-trust-m/optiga-trust-m-1/optiga/comms/ifx_i2c/ifx_i2c_presentation_layer.c ****                                                                 &p_ctx->prl.
 380://MAC/Home/Downloads/getstarted-optiga-trust-m/optiga-trust-m-1/optiga/comms/ifx_i2c/ifx_i2c_presentation_layer.c ****                                                                 session_key[PRL_MASTER_ENCRYPTION_K
 381://MAC/Home/Downloads/getstarted-optiga-trust-m/optiga-trust-m-1/optiga/comms/ifx_i2c/ifx_i2c_presentation_layer.c ****                                                                 nonce_data, PRL_MASTER_NONCE_LENGTH
 382://MAC/Home/Downloads/getstarted-optiga-trust-m/optiga-trust-m-1/optiga/comms/ifx_i2c/ifx_i2c_presentation_layer.c ****                                                                 PRL_SEQ_NUMBER_LENGTH,
 383://MAC/Home/Downloads/getstarted-optiga-trust-m/optiga-trust-m-1/optiga/comms/ifx_i2c/ifx_i2c_presentation_layer.c ****                                                                 p_ctx->prl.associate_data,
 384://MAC/Home/Downloads/getstarted-optiga-trust-m/optiga-trust-m-1/optiga/comms/ifx_i2c/ifx_i2c_presentation_layer.c ****                                                                 sizeof(p_ctx->prl.associate_data),
 385://MAC/Home/Downloads/getstarted-optiga-trust-m/optiga-trust-m-1/optiga/comms/ifx_i2c/ifx_i2c_presentation_layer.c ****                                                                 IFX_I2C_PRL_MAC_SIZE,
 386://MAC/Home/Downloads/getstarted-optiga-trust-m/optiga-trust-m-1/optiga/comms/ifx_i2c/ifx_i2c_presentation_layer.c ****                                                                 p_data)))
 387://MAC/Home/Downloads/getstarted-optiga-trust-m/optiga-trust-m-1/optiga/comms/ifx_i2c/ifx_i2c_presentation_layer.c ****         {
 388://MAC/Home/Downloads/getstarted-optiga-trust-m/optiga-trust-m-1/optiga/comms/ifx_i2c/ifx_i2c_presentation_layer.c ****             break;
 389://MAC/Home/Downloads/getstarted-optiga-trust-m/optiga-trust-m-1/optiga/comms/ifx_i2c/ifx_i2c_presentation_layer.c ****         }
 390://MAC/Home/Downloads/getstarted-optiga-trust-m/optiga-trust-m-1/optiga/comms/ifx_i2c/ifx_i2c_presentation_layer.c ****         return_status = IFX_I2C_STACK_SUCCESS;
 391://MAC/Home/Downloads/getstarted-optiga-trust-m/optiga-trust-m-1/optiga/comms/ifx_i2c/ifx_i2c_presentation_layer.c ****     } while (FALSE);
 392://MAC/Home/Downloads/getstarted-optiga-trust-m/optiga-trust-m-1/optiga/comms/ifx_i2c/ifx_i2c_presentation_layer.c ****     return (return_status);
 393://MAC/Home/Downloads/getstarted-optiga-trust-m/optiga-trust-m-1/optiga/comms/ifx_i2c/ifx_i2c_presentation_layer.c **** }
 394://MAC/Home/Downloads/getstarted-optiga-trust-m/optiga-trust-m-1/optiga/comms/ifx_i2c/ifx_i2c_presentation_layer.c **** 
 395://MAC/Home/Downloads/getstarted-optiga-trust-m/optiga-trust-m-1/optiga/comms/ifx_i2c/ifx_i2c_presentation_layer.c **** _STATIC_H optiga_lib_status_t ifx_i2c_prl_decrypt_msg(ifx_i2c_context_t * p_ctx,
 396://MAC/Home/Downloads/getstarted-optiga-trust-m/optiga-trust-m-1/optiga/comms/ifx_i2c/ifx_i2c_presentation_layer.c ****                                                       const uint8_t * p_data,
 397://MAC/Home/Downloads/getstarted-optiga-trust-m/optiga-trust-m-1/optiga/comms/ifx_i2c/ifx_i2c_presentation_layer.c ****                                                       uint16_t data_len,
 398://MAC/Home/Downloads/getstarted-optiga-trust-m/optiga-trust-m-1/optiga/comms/ifx_i2c/ifx_i2c_presentation_layer.c ****                                                       uint32_t seq_number,
 399://MAC/Home/Downloads/getstarted-optiga-trust-m/optiga-trust-m-1/optiga/comms/ifx_i2c/ifx_i2c_presentation_layer.c ****                                                       uint8_t * out_data,
 400://MAC/Home/Downloads/getstarted-optiga-trust-m/optiga-trust-m-1/optiga/comms/ifx_i2c/ifx_i2c_presentation_layer.c ****                                                       uint8_t decrypt_key_offset,
 401://MAC/Home/Downloads/getstarted-optiga-trust-m/optiga-trust-m-1/optiga/comms/ifx_i2c/ifx_i2c_presentation_layer.c ****                                                       uint8_t decrypt_nonce_offset,
 402://MAC/Home/Downloads/getstarted-optiga-trust-m/optiga-trust-m-1/optiga/comms/ifx_i2c/ifx_i2c_presentation_layer.c ****                                                       uint8_t sctr)
 403://MAC/Home/Downloads/getstarted-optiga-trust-m/optiga-trust-m-1/optiga/comms/ifx_i2c/ifx_i2c_presentation_layer.c **** {
  25              	 .loc 1 403 0
  26              	 .cfi_startproc
  27              	.LVL0:
  28 0000 F0B5     	 push {r4,r5,r6,r7,lr}
  29              	.LCFI0:
  30              	 .cfi_def_cfa_offset 20
  31              	 .cfi_offset 4,-20
  32              	 .cfi_offset 5,-16
  33              	 .cfi_offset 6,-12
  34              	 .cfi_offset 7,-8
  35              	 .cfi_offset 14,-4
  36 0002 8DB0     	 sub sp,sp,#52
  37              	.LCFI1:
  38              	 .cfi_def_cfa_offset 72
  39              	 .loc 1 403 0
  40 0004 1F1C     	 mov r7,r3
  41 0006 12AB     	 add r3,sp,#72
  42              	.LVL1:
  43 0008 151C     	 mov r5,r2
  44              	.LVL2:
  45 000a 04CB     	 ldmia r3!,{r2}
  46              	.LVL3:
  47 000c 041C     	 mov r4,r0
  48 000e 1B78     	 ldrb r3,[r3]
  49              	.LVL4:
  50 0010 0791     	 str r1,[sp,#28]
  51 0012 0893     	 str r3,[sp,#32]
  52 0014 14AB     	 add r3,sp,#80
  53              	.LVL5:
  54 0016 1B78     	 ldrb r3,[r3]
  55              	.LVL6:
  56              	.LBB4:
  57              	.LBB5:
 355://MAC/Home/Downloads/getstarted-optiga-trust-m/optiga-trust-m-1/optiga/comms/ifx_i2c/ifx_i2c_presentation_layer.c ****     p_ctx->prl.associate_data[5] = p_ctx->protocol_version;
  58              	 .loc 1 355 0
  59 0018 391C     	 mov r1,r7
  60              	.LVL7:
  61              	.LBE5:
  62              	.LBE4:
  63              	 .loc 1 403 0
  64 001a 0993     	 str r3,[sp,#36]
  65 001c 15AB     	 add r3,sp,#84
  66              	.LVL8:
  67 001e 1A78     	 ldrb r2,[r3]
  68              	.LVL9:
  69              	.LBB9:
  70              	.LBB6:
 354://MAC/Home/Downloads/getstarted-optiga-trust-m/optiga-trust-m-1/optiga/comms/ifx_i2c/ifx_i2c_presentation_layer.c ****     optiga_common_set_uint32(&p_ctx->prl.associate_data[1], seq_number);
  71              	 .loc 1 354 0
  72 0020 9623     	 mov r3,#150
  73              	.LVL10:
  74 0022 9B00     	 lsl r3,r3,#2
  75 0024 C254     	 strb r2,[r0,r3]
 355://MAC/Home/Downloads/getstarted-optiga-trust-m/optiga-trust-m-1/optiga/comms/ifx_i2c/ifx_i2c_presentation_layer.c ****     p_ctx->prl.associate_data[5] = p_ctx->protocol_version;
  76              	 .loc 1 355 0
  77 0026 1B4B     	 ldr r3,.L5
  78              	.LBE6:
  79              	.LBE9:
 404://MAC/Home/Downloads/getstarted-optiga-trust-m/optiga-trust-m-1/optiga/comms/ifx_i2c/ifx_i2c_presentation_layer.c ****     optiga_lib_status_t return_status = IFX_I2C_STACK_ERROR;
 405://MAC/Home/Downloads/getstarted-optiga-trust-m/optiga-trust-m-1/optiga/comms/ifx_i2c/ifx_i2c_presentation_layer.c ****     uint8_t nonce_data[PRL_NONCE_LENGTH];
 406://MAC/Home/Downloads/getstarted-optiga-trust-m/optiga-trust-m-1/optiga/comms/ifx_i2c/ifx_i2c_presentation_layer.c ****     do
 407://MAC/Home/Downloads/getstarted-optiga-trust-m/optiga-trust-m-1/optiga/comms/ifx_i2c/ifx_i2c_presentation_layer.c ****     {
 408://MAC/Home/Downloads/getstarted-optiga-trust-m/optiga-trust-m-1/optiga/comms/ifx_i2c/ifx_i2c_presentation_layer.c ****         //Form associated data
 409://MAC/Home/Downloads/getstarted-optiga-trust-m/optiga-trust-m-1/optiga/comms/ifx_i2c/ifx_i2c_presentation_layer.c ****         ifx_i2c_prl_form_associated_data(p_ctx, data_len, seq_number, sctr);
 410://MAC/Home/Downloads/getstarted-optiga-trust-m/optiga-trust-m-1/optiga/comms/ifx_i2c/ifx_i2c_presentation_layer.c ****         //Prepare nonce data
 411://MAC/Home/Downloads/getstarted-optiga-trust-m/optiga-trust-m-1/optiga/comms/ifx_i2c/ifx_i2c_presentation_layer.c ****         memcpy(nonce_data, &p_ctx->prl.session_key[decrypt_nonce_offset], PRL_MASTER_NONCE_LENGTH);
  80              	 .loc 1 411 0
  81 0028 0AAE     	 add r6,sp,#40
  82              	.LBB10:
  83              	.LBB7:
 355://MAC/Home/Downloads/getstarted-optiga-trust-m/optiga-trust-m-1/optiga/comms/ifx_i2c/ifx_i2c_presentation_layer.c ****     p_ctx->prl.associate_data[5] = p_ctx->protocol_version;
  84              	 .loc 1 355 0
  85 002a C018     	 add r0,r0,r3
  86              	.LVL11:
  87 002c FFF7FEFF 	 bl optiga_common_set_uint32
  88              	.LVL12:
 356://MAC/Home/Downloads/getstarted-optiga-trust-m/optiga-trust-m-1/optiga/comms/ifx_i2c/ifx_i2c_presentation_layer.c ****     optiga_common_set_uint16(&p_ctx->prl.associate_data[6], data_len);
  89              	 .loc 1 356 0
  90 0030 231C     	 mov r3,r4
  91 0032 3133     	 add r3,r3,#49
  92 0034 1A78     	 ldrb r2,[r3]
  93 0036 184B     	 ldr r3,.L5+4
 357://MAC/Home/Downloads/getstarted-optiga-trust-m/optiga-trust-m-1/optiga/comms/ifx_i2c/ifx_i2c_presentation_layer.c **** }
  94              	 .loc 1 357 0
  95 0038 291C     	 mov r1,r5
 356://MAC/Home/Downloads/getstarted-optiga-trust-m/optiga-trust-m-1/optiga/comms/ifx_i2c/ifx_i2c_presentation_layer.c ****     optiga_common_set_uint16(&p_ctx->prl.associate_data[6], data_len);
  96              	 .loc 1 356 0
  97 003a E254     	 strb r2,[r4,r3]
 357://MAC/Home/Downloads/getstarted-optiga-trust-m/optiga-trust-m-1/optiga/comms/ifx_i2c/ifx_i2c_presentation_layer.c **** }
  98              	 .loc 1 357 0
  99 003c 174B     	 ldr r3,.L5+8
 100              	.LBE7:
 101              	.LBE10:
 412://MAC/Home/Downloads/getstarted-optiga-trust-m/optiga-trust-m-1/optiga/comms/ifx_i2c/ifx_i2c_presentation_layer.c ****         optiga_common_set_uint32(&nonce_data[PRL_MASTER_NONCE_LENGTH], seq_number);
 413://MAC/Home/Downloads/getstarted-optiga-trust-m/optiga-trust-m-1/optiga/comms/ifx_i2c/ifx_i2c_presentation_layer.c **** 
 414://MAC/Home/Downloads/getstarted-optiga-trust-m/optiga-trust-m-1/optiga/comms/ifx_i2c/ifx_i2c_presentation_layer.c ****         if (PAL_STATUS_SUCCESS != (pal_crypt_decrypt_aes128_ccm(NULL,
 102              	 .loc 1 414 0
 103 003e 0835     	 add r5,r5,#8
 104              	.LVL13:
 105              	.LBB11:
 106              	.LBB8:
 357://MAC/Home/Downloads/getstarted-optiga-trust-m/optiga-trust-m-1/optiga/comms/ifx_i2c/ifx_i2c_presentation_layer.c **** }
 107              	 .loc 1 357 0
 108 0040 E018     	 add r0,r4,r3
 109 0042 FFF7FEFF 	 bl optiga_common_set_uint16
 110              	.LVL14:
 111              	.LBE8:
 112              	.LBE11:
 411://MAC/Home/Downloads/getstarted-optiga-trust-m/optiga-trust-m-1/optiga/comms/ifx_i2c/ifx_i2c_presentation_layer.c ****         optiga_common_set_uint32(&nonce_data[PRL_MASTER_NONCE_LENGTH], seq_number);
 113              	 .loc 1 411 0
 114 0046 099B     	 ldr r3,[sp,#36]
 115 0048 0422     	 mov r2,#4
 116 004a E118     	 add r1,r4,r3
 117 004c D531     	 add r1,r1,#213
 118 004e FF31     	 add r1,r1,#255
 119 0050 301C     	 mov r0,r6
 120 0052 FFF7FEFF 	 bl memcpy
 121              	.LVL15:
 412://MAC/Home/Downloads/getstarted-optiga-trust-m/optiga-trust-m-1/optiga/comms/ifx_i2c/ifx_i2c_presentation_layer.c ****         optiga_common_set_uint32(&nonce_data[PRL_MASTER_NONCE_LENGTH], seq_number);
 122              	 .loc 1 412 0
 123 0056 0BA8     	 add r0,sp,#44
 124 0058 391C     	 mov r1,r7
 125 005a FFF7FEFF 	 bl optiga_common_set_uint32
 126              	.LVL16:
 127              	 .loc 1 414 0
 128 005e 0821     	 mov r1,#8
 415://MAC/Home/Downloads/getstarted-optiga-trust-m/optiga-trust-m-1/optiga/comms/ifx_i2c/ifx_i2c_presentation_layer.c ****                                                                 p_data,
 416://MAC/Home/Downloads/getstarted-optiga-trust-m/optiga-trust-m-1/optiga/comms/ifx_i2c/ifx_i2c_presentation_layer.c ****                                                                 (data_len + IFX_I2C_PRL_MAC_SIZE),
 417://MAC/Home/Downloads/getstarted-optiga-trust-m/optiga-trust-m-1/optiga/comms/ifx_i2c/ifx_i2c_presentation_layer.c ****                                                                 &p_ctx->prl.session_key[decrypt_key
 418://MAC/Home/Downloads/getstarted-optiga-trust-m/optiga-trust-m-1/optiga/comms/ifx_i2c/ifx_i2c_presentation_layer.c ****                                                                 nonce_data,
 419://MAC/Home/Downloads/getstarted-optiga-trust-m/optiga-trust-m-1/optiga/comms/ifx_i2c/ifx_i2c_presentation_layer.c ****                                                                 PRL_MASTER_NONCE_LENGTH + PRL_SEQ_N
 420://MAC/Home/Downloads/getstarted-optiga-trust-m/optiga-trust-m-1/optiga/comms/ifx_i2c/ifx_i2c_presentation_layer.c ****                                                                 p_ctx->prl.associate_data,
 129              	 .loc 1 420 0
 130 0060 9620     	 mov r0,#150
 417://MAC/Home/Downloads/getstarted-optiga-trust-m/optiga-trust-m-1/optiga/comms/ifx_i2c/ifx_i2c_presentation_layer.c ****                                                                 nonce_data,
 131              	 .loc 1 417 0
 132 0062 089B     	 ldr r3,[sp,#32]
 133              	 .loc 1 420 0
 134 0064 8000     	 lsl r0,r0,#2
 417://MAC/Home/Downloads/getstarted-optiga-trust-m/optiga-trust-m-1/optiga/comms/ifx_i2c/ifx_i2c_presentation_layer.c ****                                                                 nonce_data,
 135              	 .loc 1 417 0
 136 0066 E318     	 add r3,r4,r3
 414://MAC/Home/Downloads/getstarted-optiga-trust-m/optiga-trust-m-1/optiga/comms/ifx_i2c/ifx_i2c_presentation_layer.c ****                                                                 p_data,
 137              	 .loc 1 414 0
 138 0068 0191     	 str r1,[sp,#4]
 139 006a 0391     	 str r1,[sp,#12]
 140 006c 0491     	 str r1,[sp,#16]
 141 006e 1299     	 ldr r1,[sp,#72]
 142              	 .loc 1 420 0
 143 0070 2418     	 add r4,r4,r0
 144              	.LVL17:
 417://MAC/Home/Downloads/getstarted-optiga-trust-m/optiga-trust-m-1/optiga/comms/ifx_i2c/ifx_i2c_presentation_layer.c ****                                                                 nonce_data,
 145              	 .loc 1 417 0
 146 0072 D533     	 add r3,r3,#213
 414://MAC/Home/Downloads/getstarted-optiga-trust-m/optiga-trust-m-1/optiga/comms/ifx_i2c/ifx_i2c_presentation_layer.c ****                                                                 p_data,
 147              	 .loc 1 414 0
 148 0074 0591     	 str r1,[sp,#20]
 149 0076 AAB2     	 uxth r2,r5
 417://MAC/Home/Downloads/getstarted-optiga-trust-m/optiga-trust-m-1/optiga/comms/ifx_i2c/ifx_i2c_presentation_layer.c ****                                                                 nonce_data,
 150              	 .loc 1 417 0
 151 0078 FF33     	 add r3,r3,#255
 414://MAC/Home/Downloads/getstarted-optiga-trust-m/optiga-trust-m-1/optiga/comms/ifx_i2c/ifx_i2c_presentation_layer.c ****                                                                 p_data,
 152              	 .loc 1 414 0
 153 007a 0096     	 str r6,[sp]
 154 007c 0294     	 str r4,[sp,#8]
 155 007e 0020     	 mov r0,#0
 156 0080 0799     	 ldr r1,[sp,#28]
 157 0082 FFF7FEFF 	 bl pal_crypt_decrypt_aes128_ccm
 158              	.LVL18:
 159 0086 0028     	 cmp r0,#0
 160 0088 01D0     	 beq .L2
 404://MAC/Home/Downloads/getstarted-optiga-trust-m/optiga-trust-m-1/optiga/comms/ifx_i2c/ifx_i2c_presentation_layer.c ****     uint8_t nonce_data[PRL_NONCE_LENGTH];
 161              	 .loc 1 404 0
 162 008a 8120     	 mov r0,#129
 163 008c 4000     	 lsl r0,r0,#1
 164              	.L2:
 165              	.LVL19:
 421://MAC/Home/Downloads/getstarted-optiga-trust-m/optiga-trust-m-1/optiga/comms/ifx_i2c/ifx_i2c_presentation_layer.c ****                                                                 sizeof(p_ctx->prl.associate_data),
 422://MAC/Home/Downloads/getstarted-optiga-trust-m/optiga-trust-m-1/optiga/comms/ifx_i2c/ifx_i2c_presentation_layer.c ****                                                                 IFX_I2C_PRL_MAC_SIZE,
 423://MAC/Home/Downloads/getstarted-optiga-trust-m/optiga-trust-m-1/optiga/comms/ifx_i2c/ifx_i2c_presentation_layer.c ****                                                                 out_data)))
 424://MAC/Home/Downloads/getstarted-optiga-trust-m/optiga-trust-m-1/optiga/comms/ifx_i2c/ifx_i2c_presentation_layer.c ****         {
 425://MAC/Home/Downloads/getstarted-optiga-trust-m/optiga-trust-m-1/optiga/comms/ifx_i2c/ifx_i2c_presentation_layer.c ****             break;
 426://MAC/Home/Downloads/getstarted-optiga-trust-m/optiga-trust-m-1/optiga/comms/ifx_i2c/ifx_i2c_presentation_layer.c ****         }
 427://MAC/Home/Downloads/getstarted-optiga-trust-m/optiga-trust-m-1/optiga/comms/ifx_i2c/ifx_i2c_presentation_layer.c ****         return_status = IFX_I2C_STACK_SUCCESS;
 428://MAC/Home/Downloads/getstarted-optiga-trust-m/optiga-trust-m-1/optiga/comms/ifx_i2c/ifx_i2c_presentation_layer.c ****     } while (FALSE);
 429://MAC/Home/Downloads/getstarted-optiga-trust-m/optiga-trust-m-1/optiga/comms/ifx_i2c/ifx_i2c_presentation_layer.c ****     return (return_status);
 430://MAC/Home/Downloads/getstarted-optiga-trust-m/optiga-trust-m-1/optiga/comms/ifx_i2c/ifx_i2c_presentation_layer.c **** }
 166              	 .loc 1 430 0
 167 008e 0DB0     	 add sp,sp,#52
 168              	 
 169              	.LVL20:
 170              	.LVL21:
 171 0090 F0BD     	 pop {r4,r5,r6,r7,pc}
 172              	.L6:
 173 0092 C046     	 .align 2
 174              	.L5:
 175 0094 59020000 	 .word 601
 176 0098 5D020000 	 .word 605
 177 009c 5E020000 	 .word 606
 178              	 .cfi_endproc
 179              	.LFE6:
 181              	 .section .text.ifx_i2c_prl_encrypt_msg,"ax",%progbits
 182              	 .align 1
 183              	 .code 16
 184              	 .thumb_func
 186              	ifx_i2c_prl_encrypt_msg:
 187              	.LFB5:
 365://MAC/Home/Downloads/getstarted-optiga-trust-m/optiga-trust-m-1/optiga/comms/ifx_i2c/ifx_i2c_presentation_layer.c ****     optiga_lib_status_t return_status = IFX_I2C_STACK_ERROR;
 188              	 .loc 1 365 0
 189              	 .cfi_startproc
 190              	.LVL22:
 191 0000 F0B5     	 push {r4,r5,r6,r7,lr}
 192              	.LCFI2:
 193              	 .cfi_def_cfa_offset 20
 194              	 .cfi_offset 4,-20
 195              	 .cfi_offset 5,-16
 196              	 .cfi_offset 6,-12
 197              	 .cfi_offset 7,-8
 198              	 .cfi_offset 14,-4
 199 0002 89B0     	 sub sp,sp,#36
 200              	.LCFI3:
 201              	 .cfi_def_cfa_offset 56
 365://MAC/Home/Downloads/getstarted-optiga-trust-m/optiga-trust-m-1/optiga/comms/ifx_i2c/ifx_i2c_presentation_layer.c ****     optiga_lib_status_t return_status = IFX_I2C_STACK_ERROR;
 202              	 .loc 1 365 0
 203 0004 1F1C     	 mov r7,r3
 204 0006 0EAB     	 add r3,sp,#56
 205              	.LVL23:
 206 0008 151C     	 mov r5,r2
 207              	.LVL24:
 208 000a 1A78     	 ldrb r2,[r3]
 209              	.LVL25:
 210              	.LBB14:
 211              	.LBB15:
 354://MAC/Home/Downloads/getstarted-optiga-trust-m/optiga-trust-m-1/optiga/comms/ifx_i2c/ifx_i2c_presentation_layer.c ****     optiga_common_set_uint32(&p_ctx->prl.associate_data[1], seq_number);
 212              	 .loc 1 354 0
 213 000c 9623     	 mov r3,#150
 214              	.LVL26:
 215              	.LBE15:
 216              	.LBE14:
 365://MAC/Home/Downloads/getstarted-optiga-trust-m/optiga-trust-m-1/optiga/comms/ifx_i2c/ifx_i2c_presentation_layer.c ****     optiga_lib_status_t return_status = IFX_I2C_STACK_ERROR;
 217              	 .loc 1 365 0
 218 000e 041C     	 mov r4,r0
 219              	.LBB18:
 220              	.LBB16:
 354://MAC/Home/Downloads/getstarted-optiga-trust-m/optiga-trust-m-1/optiga/comms/ifx_i2c/ifx_i2c_presentation_layer.c ****     optiga_common_set_uint32(&p_ctx->prl.associate_data[1], seq_number);
 221              	 .loc 1 354 0
 222 0010 9B00     	 lsl r3,r3,#2
 223 0012 C254     	 strb r2,[r0,r3]
 355://MAC/Home/Downloads/getstarted-optiga-trust-m/optiga-trust-m-1/optiga/comms/ifx_i2c/ifx_i2c_presentation_layer.c ****     p_ctx->prl.associate_data[5] = p_ctx->protocol_version;
 224              	 .loc 1 355 0
 225 0014 194B     	 ldr r3,.L10
 226              	.LBE16:
 227              	.LBE18:
 365://MAC/Home/Downloads/getstarted-optiga-trust-m/optiga-trust-m-1/optiga/comms/ifx_i2c/ifx_i2c_presentation_layer.c ****     optiga_lib_status_t return_status = IFX_I2C_STACK_ERROR;
 228              	 .loc 1 365 0
 229 0016 0E1C     	 mov r6,r1
 230              	.LBB19:
 231              	.LBB17:
 355://MAC/Home/Downloads/getstarted-optiga-trust-m/optiga-trust-m-1/optiga/comms/ifx_i2c/ifx_i2c_presentation_layer.c ****     p_ctx->prl.associate_data[5] = p_ctx->protocol_version;
 232              	 .loc 1 355 0
 233 0018 C018     	 add r0,r0,r3
 234              	.LVL27:
 235 001a 391C     	 mov r1,r7
 236              	.LVL28:
 237 001c FFF7FEFF 	 bl optiga_common_set_uint32
 238              	.LVL29:
 356://MAC/Home/Downloads/getstarted-optiga-trust-m/optiga-trust-m-1/optiga/comms/ifx_i2c/ifx_i2c_presentation_layer.c ****     optiga_common_set_uint16(&p_ctx->prl.associate_data[6], data_len);
 239              	 .loc 1 356 0
 240 0020 231C     	 mov r3,r4
 241 0022 3133     	 add r3,r3,#49
 242 0024 1A78     	 ldrb r2,[r3]
 243 0026 164B     	 ldr r3,.L10+4
 357://MAC/Home/Downloads/getstarted-optiga-trust-m/optiga-trust-m-1/optiga/comms/ifx_i2c/ifx_i2c_presentation_layer.c **** }
 244              	 .loc 1 357 0
 245 0028 291C     	 mov r1,r5
 356://MAC/Home/Downloads/getstarted-optiga-trust-m/optiga-trust-m-1/optiga/comms/ifx_i2c/ifx_i2c_presentation_layer.c ****     optiga_common_set_uint16(&p_ctx->prl.associate_data[6], data_len);
 246              	 .loc 1 356 0
 247 002a E254     	 strb r2,[r4,r3]
 357://MAC/Home/Downloads/getstarted-optiga-trust-m/optiga-trust-m-1/optiga/comms/ifx_i2c/ifx_i2c_presentation_layer.c **** }
 248              	 .loc 1 357 0
 249 002c 154B     	 ldr r3,.L10+8
 250 002e E018     	 add r0,r4,r3
 251 0030 FFF7FEFF 	 bl optiga_common_set_uint16
 252              	.LVL30:
 253              	.LBE17:
 254              	.LBE19:
 373://MAC/Home/Downloads/getstarted-optiga-trust-m/optiga-trust-m-1/optiga/comms/ifx_i2c/ifx_i2c_presentation_layer.c ****         optiga_common_set_uint32(&nonce_data[PRL_MASTER_NONCE_LENGTH], seq_number);
 255              	 .loc 1 373 0
 256 0034 211C     	 mov r1,r4
 257 0036 F531     	 add r1,r1,#245
 258 0038 0422     	 mov r2,#4
 259 003a FF31     	 add r1,r1,#255
 260 003c 06A8     	 add r0,sp,#24
 261 003e FFF7FEFF 	 bl memcpy
 262              	.LVL31:
 374://MAC/Home/Downloads/getstarted-optiga-trust-m/optiga-trust-m-1/optiga/comms/ifx_i2c/ifx_i2c_presentation_layer.c **** 
 263              	 .loc 1 374 0
 264 0042 07A8     	 add r0,sp,#28
 265 0044 391C     	 mov r1,r7
 266 0046 FFF7FEFF 	 bl optiga_common_set_uint32
 267              	.LVL32:
 383://MAC/Home/Downloads/getstarted-optiga-trust-m/optiga-trust-m-1/optiga/comms/ifx_i2c/ifx_i2c_presentation_layer.c ****                                                                 sizeof(p_ctx->prl.associate_data),
 268              	 .loc 1 383 0
 269 004a 9621     	 mov r1,#150
 379://MAC/Home/Downloads/getstarted-optiga-trust-m/optiga-trust-m-1/optiga/comms/ifx_i2c/ifx_i2c_presentation_layer.c ****                                                                 session_key[PRL_MASTER_ENCRYPTION_K
 270              	 .loc 1 379 0
 271 004c 231C     	 mov r3,r4
 376://MAC/Home/Downloads/getstarted-optiga-trust-m/optiga-trust-m-1/optiga/comms/ifx_i2c/ifx_i2c_presentation_layer.c ****                                                                 p_data,
 272              	 .loc 1 376 0
 273 004e 06AA     	 add r2,sp,#24
 274 0050 0092     	 str r2,[sp]
 275 0052 0822     	 mov r2,#8
 383://MAC/Home/Downloads/getstarted-optiga-trust-m/optiga-trust-m-1/optiga/comms/ifx_i2c/ifx_i2c_presentation_layer.c ****                                                                 sizeof(p_ctx->prl.associate_data),
 276              	 .loc 1 383 0
 277 0054 8900     	 lsl r1,r1,#2
 278 0056 6418     	 add r4,r4,r1
 279              	.LVL33:
 379://MAC/Home/Downloads/getstarted-optiga-trust-m/optiga-trust-m-1/optiga/comms/ifx_i2c/ifx_i2c_presentation_layer.c ****                                                                 session_key[PRL_MASTER_ENCRYPTION_K
 280              	 .loc 1 379 0
 281 0058 D533     	 add r3,r3,#213
 282              	.LVL34:
 376://MAC/Home/Downloads/getstarted-optiga-trust-m/optiga-trust-m-1/optiga/comms/ifx_i2c/ifx_i2c_presentation_layer.c ****                                                                 p_data,
 283              	 .loc 1 376 0
 284 005a 0192     	 str r2,[sp,#4]
 285 005c 0392     	 str r2,[sp,#12]
 286 005e 0492     	 str r2,[sp,#16]
 379://MAC/Home/Downloads/getstarted-optiga-trust-m/optiga-trust-m-1/optiga/comms/ifx_i2c/ifx_i2c_presentation_layer.c ****                                                                 session_key[PRL_MASTER_ENCRYPTION_K
 287              	 .loc 1 379 0
 288 0060 FF33     	 add r3,r3,#255
 289              	.LVL35:
 376://MAC/Home/Downloads/getstarted-optiga-trust-m/optiga-trust-m-1/optiga/comms/ifx_i2c/ifx_i2c_presentation_layer.c ****                                                                 p_data,
 290              	 .loc 1 376 0
 291 0062 0294     	 str r4,[sp,#8]
 292 0064 0596     	 str r6,[sp,#20]
 293 0066 0020     	 mov r0,#0
 294 0068 311C     	 mov r1,r6
 295 006a 2A1C     	 mov r2,r5
 296 006c FFF7FEFF 	 bl pal_crypt_encrypt_aes128_ccm
 297              	.LVL36:
 298 0070 0028     	 cmp r0,#0
 299 0072 01D0     	 beq .L8
 366://MAC/Home/Downloads/getstarted-optiga-trust-m/optiga-trust-m-1/optiga/comms/ifx_i2c/ifx_i2c_presentation_layer.c ****     uint8_t nonce_data[PRL_NONCE_LENGTH];
 300              	 .loc 1 366 0
 301 0074 8120     	 mov r0,#129
 302 0076 4000     	 lsl r0,r0,#1
 303              	.L8:
 304              	.LVL37:
 393://MAC/Home/Downloads/getstarted-optiga-trust-m/optiga-trust-m-1/optiga/comms/ifx_i2c/ifx_i2c_presentation_layer.c **** 
 305              	 .loc 1 393 0
 306 0078 09B0     	 add sp,sp,#36
 307              	 
 308              	.LVL38:
 309              	.LVL39:
 310              	.LVL40:
 311              	.LVL41:
 312 007a F0BD     	 pop {r4,r5,r6,r7,pc}
 313              	.L11:
 314              	 .align 2
 315              	.L10:
 316 007c 59020000 	 .word 601
 317 0080 5D020000 	 .word 605
 318 0084 5E020000 	 .word 606
 319              	 .cfi_endproc
 320              	.LFE5:
 322              	 .section .text.ifx_i2c_prl_event_handler,"ax",%progbits
 323              	 .align 1
 324              	 .code 16
 325              	 .thumb_func
 327              	ifx_i2c_prl_event_handler:
 328              	.LFB10:
 431://MAC/Home/Downloads/getstarted-optiga-trust-m/optiga-trust-m-1/optiga/comms/ifx_i2c/ifx_i2c_presentation_layer.c **** 
 432://MAC/Home/Downloads/getstarted-optiga-trust-m/optiga-trust-m-1/optiga/comms/ifx_i2c/ifx_i2c_presentation_layer.c **** _STATIC_H optiga_lib_status_t ifx_i2c_prl_send_alert(ifx_i2c_context_t * p_ctx)
 433://MAC/Home/Downloads/getstarted-optiga-trust-m/optiga-trust-m-1/optiga/comms/ifx_i2c/ifx_i2c_presentation_layer.c **** {
 434://MAC/Home/Downloads/getstarted-optiga-trust-m/optiga-trust-m-1/optiga/comms/ifx_i2c/ifx_i2c_presentation_layer.c ****     optiga_lib_status_t return_status = IFX_I2C_STACK_SUCCESS;
 435://MAC/Home/Downloads/getstarted-optiga-trust-m/optiga-trust-m-1/optiga/comms/ifx_i2c/ifx_i2c_presentation_layer.c ****     do
 436://MAC/Home/Downloads/getstarted-optiga-trust-m/optiga-trust-m-1/optiga/comms/ifx_i2c/ifx_i2c_presentation_layer.c ****     {
 437://MAC/Home/Downloads/getstarted-optiga-trust-m/optiga-trust-m-1/optiga/comms/ifx_i2c/ifx_i2c_presentation_layer.c ****         p_ctx->prl.state = PRL_STATE_IDLE;
 438://MAC/Home/Downloads/getstarted-optiga-trust-m/optiga-trust-m-1/optiga/comms/ifx_i2c/ifx_i2c_presentation_layer.c ****         if (PRL_INTEGRITY_VIOLATED_ALERT_MSG == p_ctx->prl.alert_type)
 439://MAC/Home/Downloads/getstarted-optiga-trust-m/optiga-trust-m-1/optiga/comms/ifx_i2c/ifx_i2c_presentation_layer.c ****         {
 440://MAC/Home/Downloads/getstarted-optiga-trust-m/optiga-trust-m-1/optiga/comms/ifx_i2c/ifx_i2c_presentation_layer.c ****             p_ctx->prl.decryption_failure_counter++;
 441://MAC/Home/Downloads/getstarted-optiga-trust-m/optiga-trust-m-1/optiga/comms/ifx_i2c/ifx_i2c_presentation_layer.c ****             p_ctx->prl.state = PRL_STATE_VERIFY;
 442://MAC/Home/Downloads/getstarted-optiga-trust-m/optiga-trust-m-1/optiga/comms/ifx_i2c/ifx_i2c_presentation_layer.c ****             p_ctx->prl.return_status = IFX_I2C_STACK_SUCCESS;
 443://MAC/Home/Downloads/getstarted-optiga-trust-m/optiga-trust-m-1/optiga/comms/ifx_i2c/ifx_i2c_presentation_layer.c ****             FORM_SCTR_HEADER(p_ctx, PRL_ALERT_PROTOCOL, p_ctx->prl.alert_type, 0);
 444://MAC/Home/Downloads/getstarted-optiga-trust-m/optiga-trust-m-1/optiga/comms/ifx_i2c/ifx_i2c_presentation_layer.c ****             p_ctx->prl.prl_txrx_buffer[0] = p_ctx->prl.sctr;
 445://MAC/Home/Downloads/getstarted-optiga-trust-m/optiga-trust-m-1/optiga/comms/ifx_i2c/ifx_i2c_presentation_layer.c ****             return_status = ifx_i2c_tl_transceive(p_ctx,
 446://MAC/Home/Downloads/getstarted-optiga-trust-m/optiga-trust-m-1/optiga/comms/ifx_i2c/ifx_i2c_presentation_layer.c ****                                                   p_ctx->prl.prl_txrx_buffer,
 447://MAC/Home/Downloads/getstarted-optiga-trust-m/optiga-trust-m-1/optiga/comms/ifx_i2c/ifx_i2c_presentation_layer.c ****                                                   1,
 448://MAC/Home/Downloads/getstarted-optiga-trust-m/optiga-trust-m-1/optiga/comms/ifx_i2c/ifx_i2c_presentation_layer.c ****                                                   p_ctx->prl.p_recv_payload_buffer,
 449://MAC/Home/Downloads/getstarted-optiga-trust-m/optiga-trust-m-1/optiga/comms/ifx_i2c/ifx_i2c_presentation_layer.c ****                                                   &p_ctx->prl.prl_receive_length);
 450://MAC/Home/Downloads/getstarted-optiga-trust-m/optiga-trust-m-1/optiga/comms/ifx_i2c/ifx_i2c_presentation_layer.c ****             *p_ctx->prl.p_recv_payload_buffer_length = p_ctx->prl.prl_receive_length;
 451://MAC/Home/Downloads/getstarted-optiga-trust-m/optiga-trust-m-1/optiga/comms/ifx_i2c/ifx_i2c_presentation_layer.c ****         }
 452://MAC/Home/Downloads/getstarted-optiga-trust-m/optiga-trust-m-1/optiga/comms/ifx_i2c/ifx_i2c_presentation_layer.c ****         else
 453://MAC/Home/Downloads/getstarted-optiga-trust-m/optiga-trust-m-1/optiga/comms/ifx_i2c/ifx_i2c_presentation_layer.c ****         {
 454://MAC/Home/Downloads/getstarted-optiga-trust-m/optiga-trust-m-1/optiga/comms/ifx_i2c/ifx_i2c_presentation_layer.c ****             p_ctx->prl.return_status = IFX_I2C_SESSION_ERROR;
 455://MAC/Home/Downloads/getstarted-optiga-trust-m/optiga-trust-m-1/optiga/comms/ifx_i2c/ifx_i2c_presentation_layer.c ****             p_ctx->prl.negotiation_state = PRL_NEGOTIATION_NOT_DONE;
 456://MAC/Home/Downloads/getstarted-optiga-trust-m/optiga-trust-m-1/optiga/comms/ifx_i2c/ifx_i2c_presentation_layer.c ****             p_ctx->prl.alert_type = PRL_INVALID_ALERT;
 457://MAC/Home/Downloads/getstarted-optiga-trust-m/optiga-trust-m-1/optiga/comms/ifx_i2c/ifx_i2c_presentation_layer.c ****             break;
 458://MAC/Home/Downloads/getstarted-optiga-trust-m/optiga-trust-m-1/optiga/comms/ifx_i2c/ifx_i2c_presentation_layer.c ****         }
 459://MAC/Home/Downloads/getstarted-optiga-trust-m/optiga-trust-m-1/optiga/comms/ifx_i2c/ifx_i2c_presentation_layer.c **** 
 460://MAC/Home/Downloads/getstarted-optiga-trust-m/optiga-trust-m-1/optiga/comms/ifx_i2c/ifx_i2c_presentation_layer.c ****     } while (FALSE);
 461://MAC/Home/Downloads/getstarted-optiga-trust-m/optiga-trust-m-1/optiga/comms/ifx_i2c/ifx_i2c_presentation_layer.c ****     return (return_status);
 462://MAC/Home/Downloads/getstarted-optiga-trust-m/optiga-trust-m-1/optiga/comms/ifx_i2c/ifx_i2c_presentation_layer.c **** }
 463://MAC/Home/Downloads/getstarted-optiga-trust-m/optiga-trust-m-1/optiga/comms/ifx_i2c/ifx_i2c_presentation_layer.c **** 
 464://MAC/Home/Downloads/getstarted-optiga-trust-m/optiga-trust-m-1/optiga/comms/ifx_i2c/ifx_i2c_presentation_layer.c **** _STATIC_H optiga_lib_status_t ifx_i2c_prl_do_handshake(ifx_i2c_context_t * p_ctx, const uint8_t * p
 465://MAC/Home/Downloads/getstarted-optiga-trust-m/optiga-trust-m-1/optiga/comms/ifx_i2c/ifx_i2c_presentation_layer.c **** {
 466://MAC/Home/Downloads/getstarted-optiga-trust-m/optiga-trust-m-1/optiga/comms/ifx_i2c/ifx_i2c_presentation_layer.c ****     uint8_t sseq[4];
 467://MAC/Home/Downloads/getstarted-optiga-trust-m/optiga-trust-m-1/optiga/comms/ifx_i2c/ifx_i2c_presentation_layer.c ****     optiga_lib_status_t return_status = IFX_I2C_STACK_ERROR;
 468://MAC/Home/Downloads/getstarted-optiga-trust-m/optiga-trust-m-1/optiga/comms/ifx_i2c/ifx_i2c_presentation_layer.c ****     uint32_t exit_machine = FALSE;
 469://MAC/Home/Downloads/getstarted-optiga-trust-m/optiga-trust-m-1/optiga/comms/ifx_i2c/ifx_i2c_presentation_layer.c ****     LOG_PRL("[IFX-PRL]: Do Handshake \n");
 470://MAC/Home/Downloads/getstarted-optiga-trust-m/optiga-trust-m-1/optiga/comms/ifx_i2c/ifx_i2c_presentation_layer.c **** 
 471://MAC/Home/Downloads/getstarted-optiga-trust-m/optiga-trust-m-1/optiga/comms/ifx_i2c/ifx_i2c_presentation_layer.c ****     do
 472://MAC/Home/Downloads/getstarted-optiga-trust-m/optiga-trust-m-1/optiga/comms/ifx_i2c/ifx_i2c_presentation_layer.c ****     {
 473://MAC/Home/Downloads/getstarted-optiga-trust-m/optiga-trust-m-1/optiga/comms/ifx_i2c/ifx_i2c_presentation_layer.c ****         switch (p_ctx->prl.hs_state)
 474://MAC/Home/Downloads/getstarted-optiga-trust-m/optiga-trust-m-1/optiga/comms/ifx_i2c/ifx_i2c_presentation_layer.c ****         {
 475://MAC/Home/Downloads/getstarted-optiga-trust-m/optiga-trust-m-1/optiga/comms/ifx_i2c/ifx_i2c_presentation_layer.c ****             case PRL_HS_SEND_HELLO:
 476://MAC/Home/Downloads/getstarted-optiga-trust-m/optiga-trust-m-1/optiga/comms/ifx_i2c/ifx_i2c_presentation_layer.c ****             {
 477://MAC/Home/Downloads/getstarted-optiga-trust-m/optiga-trust-m-1/optiga/comms/ifx_i2c/ifx_i2c_presentation_layer.c ****                 //Preparing hello message
 478://MAC/Home/Downloads/getstarted-optiga-trust-m/optiga-trust-m-1/optiga/comms/ifx_i2c/ifx_i2c_presentation_layer.c ****                 FORM_SCTR_HEADER(p_ctx,PRL_HANDSHAKE_PROTOCOL, PRL_MASTER_HELLO_MSG, 0);
 479://MAC/Home/Downloads/getstarted-optiga-trust-m/optiga-trust-m-1/optiga/comms/ifx_i2c/ifx_i2c_presentation_layer.c ****                 p_ctx->prl.prl_txrx_buffer[PRL_SCTR_OFFSET] = p_ctx->prl.sctr;
 480://MAC/Home/Downloads/getstarted-optiga-trust-m/optiga-trust-m-1/optiga/comms/ifx_i2c/ifx_i2c_presentation_layer.c ****                 p_ctx->prl.prl_txrx_buffer[PRL_PROTOCOL_VERSION_OFFSET] = p_ctx->protocol_version;
 481://MAC/Home/Downloads/getstarted-optiga-trust-m/optiga-trust-m-1/optiga/comms/ifx_i2c/ifx_i2c_presentation_layer.c ****                 p_ctx->prl.prl_receive_length = PRL_SLAVE_HELLO_LENGTH;
 482://MAC/Home/Downloads/getstarted-optiga-trust-m/optiga-trust-m-1/optiga/comms/ifx_i2c/ifx_i2c_presentation_layer.c ****                 //Sending hello message
 483://MAC/Home/Downloads/getstarted-optiga-trust-m/optiga-trust-m-1/optiga/comms/ifx_i2c/ifx_i2c_presentation_layer.c ****                 return_status = ifx_i2c_tl_transceive(p_ctx,
 484://MAC/Home/Downloads/getstarted-optiga-trust-m/optiga-trust-m-1/optiga/comms/ifx_i2c/ifx_i2c_presentation_layer.c ****                                                       p_ctx->prl.prl_txrx_buffer,
 485://MAC/Home/Downloads/getstarted-optiga-trust-m/optiga-trust-m-1/optiga/comms/ifx_i2c/ifx_i2c_presentation_layer.c ****                                                       2,
 486://MAC/Home/Downloads/getstarted-optiga-trust-m/optiga-trust-m-1/optiga/comms/ifx_i2c/ifx_i2c_presentation_layer.c ****                                                       p_ctx->prl.prl_txrx_buffer,
 487://MAC/Home/Downloads/getstarted-optiga-trust-m/optiga-trust-m-1/optiga/comms/ifx_i2c/ifx_i2c_presentation_layer.c ****                                                       &p_ctx->prl.prl_receive_length);
 488://MAC/Home/Downloads/getstarted-optiga-trust-m/optiga-trust-m-1/optiga/comms/ifx_i2c/ifx_i2c_presentation_layer.c ****                 if (IFX_I2C_STACK_ERROR == return_status)
 489://MAC/Home/Downloads/getstarted-optiga-trust-m/optiga-trust-m-1/optiga/comms/ifx_i2c/ifx_i2c_presentation_layer.c ****                 {
 490://MAC/Home/Downloads/getstarted-optiga-trust-m/optiga-trust-m-1/optiga/comms/ifx_i2c/ifx_i2c_presentation_layer.c ****                     p_ctx->prl.hs_state = PRL_HS_ERROR;
 491://MAC/Home/Downloads/getstarted-optiga-trust-m/optiga-trust-m-1/optiga/comms/ifx_i2c/ifx_i2c_presentation_layer.c ****                     exit_machine = TRUE;
 492://MAC/Home/Downloads/getstarted-optiga-trust-m/optiga-trust-m-1/optiga/comms/ifx_i2c/ifx_i2c_presentation_layer.c ****                     break;
 493://MAC/Home/Downloads/getstarted-optiga-trust-m/optiga-trust-m-1/optiga/comms/ifx_i2c/ifx_i2c_presentation_layer.c ****                 }
 494://MAC/Home/Downloads/getstarted-optiga-trust-m/optiga-trust-m-1/optiga/comms/ifx_i2c/ifx_i2c_presentation_layer.c ****                 p_ctx->prl.hs_state = PRL_HS_VERIFY_HELLO;
 495://MAC/Home/Downloads/getstarted-optiga-trust-m/optiga-trust-m-1/optiga/comms/ifx_i2c/ifx_i2c_presentation_layer.c ****             }
 496://MAC/Home/Downloads/getstarted-optiga-trust-m/optiga-trust-m-1/optiga/comms/ifx_i2c/ifx_i2c_presentation_layer.c ****             break;
 497://MAC/Home/Downloads/getstarted-optiga-trust-m/optiga-trust-m-1/optiga/comms/ifx_i2c/ifx_i2c_presentation_layer.c ****             case PRL_HS_VERIFY_HELLO:
 498://MAC/Home/Downloads/getstarted-optiga-trust-m/optiga-trust-m-1/optiga/comms/ifx_i2c/ifx_i2c_presentation_layer.c ****             {
 499://MAC/Home/Downloads/getstarted-optiga-trust-m/optiga-trust-m-1/optiga/comms/ifx_i2c/ifx_i2c_presentation_layer.c ****                 exit_machine = TRUE;
 500://MAC/Home/Downloads/getstarted-optiga-trust-m/optiga-trust-m-1/optiga/comms/ifx_i2c/ifx_i2c_presentation_layer.c ****                 if ((((p_data[PRL_SCTR_OFFSET] & (PRL_ALERT_PROTOCOL | PRL_FATAL_ALERT_MSG)) ||
 501://MAC/Home/Downloads/getstarted-optiga-trust-m/optiga-trust-m-1/optiga/comms/ifx_i2c/ifx_i2c_presentation_layer.c ****                     (p_data[PRL_SCTR_OFFSET] & (PRL_ALERT_PROTOCOL | PRL_INTEGRITY_VIOLATED_ALERT_M
 502://MAC/Home/Downloads/getstarted-optiga-trust-m/optiga-trust-m-1/optiga/comms/ifx_i2c/ifx_i2c_presentation_layer.c ****                     (1 == p_ctx->prl.prl_receive_length)))
 503://MAC/Home/Downloads/getstarted-optiga-trust-m/optiga-trust-m-1/optiga/comms/ifx_i2c/ifx_i2c_presentation_layer.c ****                 {
 504://MAC/Home/Downloads/getstarted-optiga-trust-m/optiga-trust-m-1/optiga/comms/ifx_i2c/ifx_i2c_presentation_layer.c ****                     return_status = IFX_I2C_HANDSHAKE_ERROR;
 505://MAC/Home/Downloads/getstarted-optiga-trust-m/optiga-trust-m-1/optiga/comms/ifx_i2c/ifx_i2c_presentation_layer.c ****                     p_ctx->prl.alert_type = PRL_INVALID_ALERT;
 506://MAC/Home/Downloads/getstarted-optiga-trust-m/optiga-trust-m-1/optiga/comms/ifx_i2c/ifx_i2c_presentation_layer.c ****                     exit_machine = FALSE;
 507://MAC/Home/Downloads/getstarted-optiga-trust-m/optiga-trust-m-1/optiga/comms/ifx_i2c/ifx_i2c_presentation_layer.c ****                     break;
 508://MAC/Home/Downloads/getstarted-optiga-trust-m/optiga-trust-m-1/optiga/comms/ifx_i2c/ifx_i2c_presentation_layer.c ****                 }
 509://MAC/Home/Downloads/getstarted-optiga-trust-m/optiga-trust-m-1/optiga/comms/ifx_i2c/ifx_i2c_presentation_layer.c ****                 //Check valid message type and protocol version
 510://MAC/Home/Downloads/getstarted-optiga-trust-m/optiga-trust-m-1/optiga/comms/ifx_i2c/ifx_i2c_presentation_layer.c ****                 if ((PRL_SLAVE_HELLO_LENGTH != p_ctx->prl.prl_receive_length) || (0 != p_data[PRL_S
 511://MAC/Home/Downloads/getstarted-optiga-trust-m/optiga-trust-m-1/optiga/comms/ifx_i2c/ifx_i2c_presentation_layer.c ****                     (PROTOCOL_VERSION_PRE_SHARED_SECRET != p_data[PRL_PROTOCOL_VERSION_OFFSET]))
 512://MAC/Home/Downloads/getstarted-optiga-trust-m/optiga-trust-m-1/optiga/comms/ifx_i2c/ifx_i2c_presentation_layer.c ****                 {
 513://MAC/Home/Downloads/getstarted-optiga-trust-m/optiga-trust-m-1/optiga/comms/ifx_i2c/ifx_i2c_presentation_layer.c ****                     p_ctx->prl.hs_state = PRL_HS_ERROR;
 514://MAC/Home/Downloads/getstarted-optiga-trust-m/optiga-trust-m-1/optiga/comms/ifx_i2c/ifx_i2c_presentation_layer.c ****                     break;
 515://MAC/Home/Downloads/getstarted-optiga-trust-m/optiga-trust-m-1/optiga/comms/ifx_i2c/ifx_i2c_presentation_layer.c ****                 }
 516://MAC/Home/Downloads/getstarted-optiga-trust-m/optiga-trust-m-1/optiga/comms/ifx_i2c/ifx_i2c_presentation_layer.c ****                 //Store slave sequence number and random number
 517://MAC/Home/Downloads/getstarted-optiga-trust-m/optiga-trust-m-1/optiga/comms/ifx_i2c/ifx_i2c_presentation_layer.c ****                 p_ctx->prl.slave_sequence_number = optiga_common_get_uint32(&p_data[PRL_SLAVE_HELLO
 518://MAC/Home/Downloads/getstarted-optiga-trust-m/optiga-trust-m-1/optiga/comms/ifx_i2c/ifx_i2c_presentation_layer.c ****                 p_ctx->prl.save_slave_sequence_number = p_ctx->prl.slave_sequence_number;
 519://MAC/Home/Downloads/getstarted-optiga-trust-m/optiga-trust-m-1/optiga/comms/ifx_i2c/ifx_i2c_presentation_layer.c ****                 memcpy(p_ctx->prl.random, &p_data[PRL_RANDOM_DATAOFFSET], PRL_RANDOM_DATA_LENGTH);
 520://MAC/Home/Downloads/getstarted-optiga-trust-m/optiga-trust-m-1/optiga/comms/ifx_i2c/ifx_i2c_presentation_layer.c **** 
 521://MAC/Home/Downloads/getstarted-optiga-trust-m/optiga-trust-m-1/optiga/comms/ifx_i2c/ifx_i2c_presentation_layer.c ****                 //Generating session key
 522://MAC/Home/Downloads/getstarted-optiga-trust-m/optiga-trust-m-1/optiga/comms/ifx_i2c/ifx_i2c_presentation_layer.c ****                 return_status = ifx_i2c_prl_prf(p_ctx);
 523://MAC/Home/Downloads/getstarted-optiga-trust-m/optiga-trust-m-1/optiga/comms/ifx_i2c/ifx_i2c_presentation_layer.c ****                 if (IFX_I2C_HANDSHAKE_ERROR == return_status)
 524://MAC/Home/Downloads/getstarted-optiga-trust-m/optiga-trust-m-1/optiga/comms/ifx_i2c/ifx_i2c_presentation_layer.c ****                 {
 525://MAC/Home/Downloads/getstarted-optiga-trust-m/optiga-trust-m-1/optiga/comms/ifx_i2c/ifx_i2c_presentation_layer.c ****                     p_ctx->prl.hs_state = PRL_HS_ERROR;
 526://MAC/Home/Downloads/getstarted-optiga-trust-m/optiga-trust-m-1/optiga/comms/ifx_i2c/ifx_i2c_presentation_layer.c ****                     break;
 527://MAC/Home/Downloads/getstarted-optiga-trust-m/optiga-trust-m-1/optiga/comms/ifx_i2c/ifx_i2c_presentation_layer.c ****                 }
 528://MAC/Home/Downloads/getstarted-optiga-trust-m/optiga-trust-m-1/optiga/comms/ifx_i2c/ifx_i2c_presentation_layer.c ****                 p_ctx->prl.hs_state = PRL_HS_SEND_FINISHED;
 529://MAC/Home/Downloads/getstarted-optiga-trust-m/optiga-trust-m-1/optiga/comms/ifx_i2c/ifx_i2c_presentation_layer.c **** 
 530://MAC/Home/Downloads/getstarted-optiga-trust-m/optiga-trust-m-1/optiga/comms/ifx_i2c/ifx_i2c_presentation_layer.c ****             }
 531://MAC/Home/Downloads/getstarted-optiga-trust-m/optiga-trust-m-1/optiga/comms/ifx_i2c/ifx_i2c_presentation_layer.c ****             break;
 532://MAC/Home/Downloads/getstarted-optiga-trust-m/optiga-trust-m-1/optiga/comms/ifx_i2c/ifx_i2c_presentation_layer.c ****             case PRL_HS_SEND_FINISHED:
 533://MAC/Home/Downloads/getstarted-optiga-trust-m/optiga-trust-m-1/optiga/comms/ifx_i2c/ifx_i2c_presentation_layer.c ****             {
 534://MAC/Home/Downloads/getstarted-optiga-trust-m/optiga-trust-m-1/optiga/comms/ifx_i2c/ifx_i2c_presentation_layer.c ****                 FORM_SCTR_HEADER(p_ctx, PRL_HANDSHAKE_PROTOCOL, PRL_MASTER_FINISHED_MSG,0);
 535://MAC/Home/Downloads/getstarted-optiga-trust-m/optiga-trust-m-1/optiga/comms/ifx_i2c/ifx_i2c_presentation_layer.c ****                 exit_machine = FALSE;
 536://MAC/Home/Downloads/getstarted-optiga-trust-m/optiga-trust-m-1/optiga/comms/ifx_i2c/ifx_i2c_presentation_layer.c ****                 //Creating payload for encryption
 537://MAC/Home/Downloads/getstarted-optiga-trust-m/optiga-trust-m-1/optiga/comms/ifx_i2c/ifx_i2c_presentation_layer.c ****                 memcpy(&p_ctx->prl.prl_txrx_buffer[IFX_I2C_PRL_HEADER_SIZE] ,p_ctx->prl.random, PRL
 538://MAC/Home/Downloads/getstarted-optiga-trust-m/optiga-trust-m-1/optiga/comms/ifx_i2c/ifx_i2c_presentation_layer.c ****                 optiga_common_set_uint32(&p_ctx->prl.prl_txrx_buffer[PRL_RANDOM_DATA_LENGTH + IFX_I
 539://MAC/Home/Downloads/getstarted-optiga-trust-m/optiga-trust-m-1/optiga/comms/ifx_i2c/ifx_i2c_presentation_layer.c ****                                          p_ctx->prl.slave_sequence_number);
 540://MAC/Home/Downloads/getstarted-optiga-trust-m/optiga-trust-m-1/optiga/comms/ifx_i2c/ifx_i2c_presentation_layer.c **** 
 541://MAC/Home/Downloads/getstarted-optiga-trust-m/optiga-trust-m-1/optiga/comms/ifx_i2c/ifx_i2c_presentation_layer.c ****                 //Preparing encryption data
 542://MAC/Home/Downloads/getstarted-optiga-trust-m/optiga-trust-m-1/optiga/comms/ifx_i2c/ifx_i2c_presentation_layer.c ****                 return_status = ifx_i2c_prl_encrypt_msg(p_ctx,
 543://MAC/Home/Downloads/getstarted-optiga-trust-m/optiga-trust-m-1/optiga/comms/ifx_i2c/ifx_i2c_presentation_layer.c ****                                                         &p_ctx->prl.prl_txrx_buffer[IFX_I2C_PRL_HEA
 544://MAC/Home/Downloads/getstarted-optiga-trust-m/optiga-trust-m-1/optiga/comms/ifx_i2c/ifx_i2c_presentation_layer.c ****                                                         PRL_RANDOM_DATA_LENGTH + PRL_SEQ_NUMBER_LEN
 545://MAC/Home/Downloads/getstarted-optiga-trust-m/optiga-trust-m-1/optiga/comms/ifx_i2c/ifx_i2c_presentation_layer.c ****                                                         p_ctx->prl.slave_sequence_number,
 546://MAC/Home/Downloads/getstarted-optiga-trust-m/optiga-trust-m-1/optiga/comms/ifx_i2c/ifx_i2c_presentation_layer.c ****                                                         p_ctx->prl.sctr);
 547://MAC/Home/Downloads/getstarted-optiga-trust-m/optiga-trust-m-1/optiga/comms/ifx_i2c/ifx_i2c_presentation_layer.c ****                 if (IFX_I2C_STACK_ERROR == return_status)
 548://MAC/Home/Downloads/getstarted-optiga-trust-m/optiga-trust-m-1/optiga/comms/ifx_i2c/ifx_i2c_presentation_layer.c ****                 {
 549://MAC/Home/Downloads/getstarted-optiga-trust-m/optiga-trust-m-1/optiga/comms/ifx_i2c/ifx_i2c_presentation_layer.c ****                     p_ctx->prl.hs_state = PRL_HS_ERROR;
 550://MAC/Home/Downloads/getstarted-optiga-trust-m/optiga-trust-m-1/optiga/comms/ifx_i2c/ifx_i2c_presentation_layer.c ****                     exit_machine = TRUE;
 551://MAC/Home/Downloads/getstarted-optiga-trust-m/optiga-trust-m-1/optiga/comms/ifx_i2c/ifx_i2c_presentation_layer.c ****                     break;
 552://MAC/Home/Downloads/getstarted-optiga-trust-m/optiga-trust-m-1/optiga/comms/ifx_i2c/ifx_i2c_presentation_layer.c ****                 }
 553://MAC/Home/Downloads/getstarted-optiga-trust-m/optiga-trust-m-1/optiga/comms/ifx_i2c/ifx_i2c_presentation_layer.c **** 
 554://MAC/Home/Downloads/getstarted-optiga-trust-m/optiga-trust-m-1/optiga/comms/ifx_i2c/ifx_i2c_presentation_layer.c ****                 //Append presentation layer header
 555://MAC/Home/Downloads/getstarted-optiga-trust-m/optiga-trust-m-1/optiga/comms/ifx_i2c/ifx_i2c_presentation_layer.c ****                 p_ctx->prl.prl_txrx_buffer[PRL_SCTR_OFFSET] = p_ctx->prl.sctr;
 556://MAC/Home/Downloads/getstarted-optiga-trust-m/optiga-trust-m-1/optiga/comms/ifx_i2c/ifx_i2c_presentation_layer.c ****                 optiga_common_set_uint32(&p_ctx->prl.prl_txrx_buffer[1], p_ctx->prl.slave_sequence_
 557://MAC/Home/Downloads/getstarted-optiga-trust-m/optiga-trust-m-1/optiga/comms/ifx_i2c/ifx_i2c_presentation_layer.c **** 
 558://MAC/Home/Downloads/getstarted-optiga-trust-m/optiga-trust-m-1/optiga/comms/ifx_i2c/ifx_i2c_presentation_layer.c ****                 p_ctx->prl.prl_receive_length = PRL_FINISHED_DATA_LENGTH + 1;
 559://MAC/Home/Downloads/getstarted-optiga-trust-m/optiga-trust-m-1/optiga/comms/ifx_i2c/ifx_i2c_presentation_layer.c ****                 return_status = ifx_i2c_tl_transceive(p_ctx,
 560://MAC/Home/Downloads/getstarted-optiga-trust-m/optiga-trust-m-1/optiga/comms/ifx_i2c/ifx_i2c_presentation_layer.c ****                                                       p_ctx->prl.prl_txrx_buffer,
 561://MAC/Home/Downloads/getstarted-optiga-trust-m/optiga-trust-m-1/optiga/comms/ifx_i2c/ifx_i2c_presentation_layer.c ****                                                       PRL_FINISHED_DATA_LENGTH + 1,
 562://MAC/Home/Downloads/getstarted-optiga-trust-m/optiga-trust-m-1/optiga/comms/ifx_i2c/ifx_i2c_presentation_layer.c ****                                                       p_ctx->prl.prl_txrx_buffer,
 563://MAC/Home/Downloads/getstarted-optiga-trust-m/optiga-trust-m-1/optiga/comms/ifx_i2c/ifx_i2c_presentation_layer.c ****                                                       &p_ctx->prl.prl_receive_length);
 564://MAC/Home/Downloads/getstarted-optiga-trust-m/optiga-trust-m-1/optiga/comms/ifx_i2c/ifx_i2c_presentation_layer.c ****                 if (IFX_I2C_STACK_SUCCESS != return_status)
 565://MAC/Home/Downloads/getstarted-optiga-trust-m/optiga-trust-m-1/optiga/comms/ifx_i2c/ifx_i2c_presentation_layer.c ****                 {
 566://MAC/Home/Downloads/getstarted-optiga-trust-m/optiga-trust-m-1/optiga/comms/ifx_i2c/ifx_i2c_presentation_layer.c ****                     p_ctx->prl.hs_state = PRL_HS_ERROR;
 567://MAC/Home/Downloads/getstarted-optiga-trust-m/optiga-trust-m-1/optiga/comms/ifx_i2c/ifx_i2c_presentation_layer.c ****                     exit_machine = TRUE;
 568://MAC/Home/Downloads/getstarted-optiga-trust-m/optiga-trust-m-1/optiga/comms/ifx_i2c/ifx_i2c_presentation_layer.c ****                     break;
 569://MAC/Home/Downloads/getstarted-optiga-trust-m/optiga-trust-m-1/optiga/comms/ifx_i2c/ifx_i2c_presentation_layer.c ****                 }
 570://MAC/Home/Downloads/getstarted-optiga-trust-m/optiga-trust-m-1/optiga/comms/ifx_i2c/ifx_i2c_presentation_layer.c ****                 p_ctx->prl.hs_state = PRL_HS_VERIFY_FINISHED;
 571://MAC/Home/Downloads/getstarted-optiga-trust-m/optiga-trust-m-1/optiga/comms/ifx_i2c/ifx_i2c_presentation_layer.c ****             }
 572://MAC/Home/Downloads/getstarted-optiga-trust-m/optiga-trust-m-1/optiga/comms/ifx_i2c/ifx_i2c_presentation_layer.c ****             break;
 573://MAC/Home/Downloads/getstarted-optiga-trust-m/optiga-trust-m-1/optiga/comms/ifx_i2c/ifx_i2c_presentation_layer.c ****             case PRL_HS_VERIFY_FINISHED:
 574://MAC/Home/Downloads/getstarted-optiga-trust-m/optiga-trust-m-1/optiga/comms/ifx_i2c/ifx_i2c_presentation_layer.c ****             {
 575://MAC/Home/Downloads/getstarted-optiga-trust-m/optiga-trust-m-1/optiga/comms/ifx_i2c/ifx_i2c_presentation_layer.c ****                 if ((PRL_MASTER_FINISHED_MSG != p_data[PRL_SCTR_OFFSET]) ||
 576://MAC/Home/Downloads/getstarted-optiga-trust-m/optiga-trust-m-1/optiga/comms/ifx_i2c/ifx_i2c_presentation_layer.c ****                     ((PRL_FINISHED_DATA_LENGTH + 1) != p_ctx->prl.prl_receive_length))
 577://MAC/Home/Downloads/getstarted-optiga-trust-m/optiga-trust-m-1/optiga/comms/ifx_i2c/ifx_i2c_presentation_layer.c ****                 {
 578://MAC/Home/Downloads/getstarted-optiga-trust-m/optiga-trust-m-1/optiga/comms/ifx_i2c/ifx_i2c_presentation_layer.c ****                     p_ctx->prl.hs_state = PRL_HS_ERROR;
 579://MAC/Home/Downloads/getstarted-optiga-trust-m/optiga-trust-m-1/optiga/comms/ifx_i2c/ifx_i2c_presentation_layer.c ****                     exit_machine = TRUE;
 580://MAC/Home/Downloads/getstarted-optiga-trust-m/optiga-trust-m-1/optiga/comms/ifx_i2c/ifx_i2c_presentation_layer.c ****                     break;
 581://MAC/Home/Downloads/getstarted-optiga-trust-m/optiga-trust-m-1/optiga/comms/ifx_i2c/ifx_i2c_presentation_layer.c ****                 }
 582://MAC/Home/Downloads/getstarted-optiga-trust-m/optiga-trust-m-1/optiga/comms/ifx_i2c/ifx_i2c_presentation_layer.c ****                 p_ctx->prl.master_sequence_number = optiga_common_get_uint32(&p_data[1]);
 583://MAC/Home/Downloads/getstarted-optiga-trust-m/optiga-trust-m-1/optiga/comms/ifx_i2c/ifx_i2c_presentation_layer.c ****                 return_status = ifx_i2c_prl_decrypt_msg(p_ctx,
 584://MAC/Home/Downloads/getstarted-optiga-trust-m/optiga-trust-m-1/optiga/comms/ifx_i2c/ifx_i2c_presentation_layer.c ****                                                         &p_data[IFX_I2C_PRL_HEADER_SIZE],
 585://MAC/Home/Downloads/getstarted-optiga-trust-m/optiga-trust-m-1/optiga/comms/ifx_i2c/ifx_i2c_presentation_layer.c ****                                                         PRL_RANDOM_DATA_LENGTH + PRL_SEQ_NUMBER_LEN
 586://MAC/Home/Downloads/getstarted-optiga-trust-m/optiga-trust-m-1/optiga/comms/ifx_i2c/ifx_i2c_presentation_layer.c ****                                                         p_ctx->prl.master_sequence_number,
 587://MAC/Home/Downloads/getstarted-optiga-trust-m/optiga-trust-m-1/optiga/comms/ifx_i2c/ifx_i2c_presentation_layer.c ****                                                         p_ctx->prl.prl_txrx_buffer,
 588://MAC/Home/Downloads/getstarted-optiga-trust-m/optiga-trust-m-1/optiga/comms/ifx_i2c/ifx_i2c_presentation_layer.c ****                                                         PRL_MASTER_DECRYPTION_KEY_OFFSET,
 589://MAC/Home/Downloads/getstarted-optiga-trust-m/optiga-trust-m-1/optiga/comms/ifx_i2c/ifx_i2c_presentation_layer.c ****                                                         PRL_MASTER_DECRYPTION_NONCE_OFFSET,
 590://MAC/Home/Downloads/getstarted-optiga-trust-m/optiga-trust-m-1/optiga/comms/ifx_i2c/ifx_i2c_presentation_layer.c ****                                                         p_ctx->prl.sctr);
 591://MAC/Home/Downloads/getstarted-optiga-trust-m/optiga-trust-m-1/optiga/comms/ifx_i2c/ifx_i2c_presentation_layer.c ****                 if (IFX_I2C_STACK_ERROR == return_status)
 592://MAC/Home/Downloads/getstarted-optiga-trust-m/optiga-trust-m-1/optiga/comms/ifx_i2c/ifx_i2c_presentation_layer.c ****                 {
 593://MAC/Home/Downloads/getstarted-optiga-trust-m/optiga-trust-m-1/optiga/comms/ifx_i2c/ifx_i2c_presentation_layer.c ****                     p_ctx->prl.hs_state = PRL_HS_ERROR;
 594://MAC/Home/Downloads/getstarted-optiga-trust-m/optiga-trust-m-1/optiga/comms/ifx_i2c/ifx_i2c_presentation_layer.c ****                     exit_machine = TRUE;
 595://MAC/Home/Downloads/getstarted-optiga-trust-m/optiga-trust-m-1/optiga/comms/ifx_i2c/ifx_i2c_presentation_layer.c ****                     break;
 596://MAC/Home/Downloads/getstarted-optiga-trust-m/optiga-trust-m-1/optiga/comms/ifx_i2c/ifx_i2c_presentation_layer.c ****                 }
 597://MAC/Home/Downloads/getstarted-optiga-trust-m/optiga-trust-m-1/optiga/comms/ifx_i2c/ifx_i2c_presentation_layer.c ****                 optiga_common_set_uint32(sseq, p_ctx->prl.master_sequence_number);
 598://MAC/Home/Downloads/getstarted-optiga-trust-m/optiga-trust-m-1/optiga/comms/ifx_i2c/ifx_i2c_presentation_layer.c ****                 ///Validating decrpt data
 599://MAC/Home/Downloads/getstarted-optiga-trust-m/optiga-trust-m-1/optiga/comms/ifx_i2c/ifx_i2c_presentation_layer.c ****                 if (0 != (memcmp(p_ctx->prl.random, p_ctx->prl.prl_txrx_buffer, PRL_RANDOM_DATA_LEN
 600://MAC/Home/Downloads/getstarted-optiga-trust-m/optiga-trust-m-1/optiga/comms/ifx_i2c/ifx_i2c_presentation_layer.c ****                 {
 601://MAC/Home/Downloads/getstarted-optiga-trust-m/optiga-trust-m-1/optiga/comms/ifx_i2c/ifx_i2c_presentation_layer.c ****                     return_status = IFX_I2C_HANDSHAKE_ERROR;
 602://MAC/Home/Downloads/getstarted-optiga-trust-m/optiga-trust-m-1/optiga/comms/ifx_i2c/ifx_i2c_presentation_layer.c ****                     p_ctx->prl.hs_state = PRL_HS_ERROR;
 603://MAC/Home/Downloads/getstarted-optiga-trust-m/optiga-trust-m-1/optiga/comms/ifx_i2c/ifx_i2c_presentation_layer.c ****                     exit_machine = TRUE;
 604://MAC/Home/Downloads/getstarted-optiga-trust-m/optiga-trust-m-1/optiga/comms/ifx_i2c/ifx_i2c_presentation_layer.c ****                     break;
 605://MAC/Home/Downloads/getstarted-optiga-trust-m/optiga-trust-m-1/optiga/comms/ifx_i2c/ifx_i2c_presentation_layer.c ****                 }
 606://MAC/Home/Downloads/getstarted-optiga-trust-m/optiga-trust-m-1/optiga/comms/ifx_i2c/ifx_i2c_presentation_layer.c ****                 ///Validating sequence number
 607://MAC/Home/Downloads/getstarted-optiga-trust-m/optiga-trust-m-1/optiga/comms/ifx_i2c/ifx_i2c_presentation_layer.c ****                 if (0 != (memcmp(sseq, &p_ctx->prl.prl_txrx_buffer[PRL_RANDOM_DATA_LENGTH], PRL_SEQ
 608://MAC/Home/Downloads/getstarted-optiga-trust-m/optiga-trust-m-1/optiga/comms/ifx_i2c/ifx_i2c_presentation_layer.c ****                 {
 609://MAC/Home/Downloads/getstarted-optiga-trust-m/optiga-trust-m-1/optiga/comms/ifx_i2c/ifx_i2c_presentation_layer.c ****                     return_status = IFX_I2C_HANDSHAKE_ERROR;
 610://MAC/Home/Downloads/getstarted-optiga-trust-m/optiga-trust-m-1/optiga/comms/ifx_i2c/ifx_i2c_presentation_layer.c ****                     p_ctx->prl.hs_state = PRL_HS_ERROR;
 611://MAC/Home/Downloads/getstarted-optiga-trust-m/optiga-trust-m-1/optiga/comms/ifx_i2c/ifx_i2c_presentation_layer.c ****                     exit_machine = TRUE;
 612://MAC/Home/Downloads/getstarted-optiga-trust-m/optiga-trust-m-1/optiga/comms/ifx_i2c/ifx_i2c_presentation_layer.c ****                     break;
 613://MAC/Home/Downloads/getstarted-optiga-trust-m/optiga-trust-m-1/optiga/comms/ifx_i2c/ifx_i2c_presentation_layer.c ****                 }
 614://MAC/Home/Downloads/getstarted-optiga-trust-m/optiga-trust-m-1/optiga/comms/ifx_i2c/ifx_i2c_presentation_layer.c ****                 p_ctx->prl.negotiation_state = PRL_NEGOTIATION_DONE;
 615://MAC/Home/Downloads/getstarted-optiga-trust-m/optiga-trust-m-1/optiga/comms/ifx_i2c/ifx_i2c_presentation_layer.c ****             }
 616://MAC/Home/Downloads/getstarted-optiga-trust-m/optiga-trust-m-1/optiga/comms/ifx_i2c/ifx_i2c_presentation_layer.c ****             break;
 617://MAC/Home/Downloads/getstarted-optiga-trust-m/optiga-trust-m-1/optiga/comms/ifx_i2c/ifx_i2c_presentation_layer.c ****             case PRL_HS_ERROR:
 618://MAC/Home/Downloads/getstarted-optiga-trust-m/optiga-trust-m-1/optiga/comms/ifx_i2c/ifx_i2c_presentation_layer.c ****             {
 619://MAC/Home/Downloads/getstarted-optiga-trust-m/optiga-trust-m-1/optiga/comms/ifx_i2c/ifx_i2c_presentation_layer.c ****                 return_status = IFX_I2C_HANDSHAKE_ERROR;
 620://MAC/Home/Downloads/getstarted-optiga-trust-m/optiga-trust-m-1/optiga/comms/ifx_i2c/ifx_i2c_presentation_layer.c ****                 p_ctx->prl.alert_type = PRL_INVALID_ALERT;
 621://MAC/Home/Downloads/getstarted-optiga-trust-m/optiga-trust-m-1/optiga/comms/ifx_i2c/ifx_i2c_presentation_layer.c ****                 exit_machine = FALSE;
 622://MAC/Home/Downloads/getstarted-optiga-trust-m/optiga-trust-m-1/optiga/comms/ifx_i2c/ifx_i2c_presentation_layer.c ****             }
 623://MAC/Home/Downloads/getstarted-optiga-trust-m/optiga-trust-m-1/optiga/comms/ifx_i2c/ifx_i2c_presentation_layer.c ****             break;
 624://MAC/Home/Downloads/getstarted-optiga-trust-m/optiga-trust-m-1/optiga/comms/ifx_i2c/ifx_i2c_presentation_layer.c ****             default:
 625://MAC/Home/Downloads/getstarted-optiga-trust-m/optiga-trust-m-1/optiga/comms/ifx_i2c/ifx_i2c_presentation_layer.c ****             break;
 626://MAC/Home/Downloads/getstarted-optiga-trust-m/optiga-trust-m-1/optiga/comms/ifx_i2c/ifx_i2c_presentation_layer.c ****         }
 627://MAC/Home/Downloads/getstarted-optiga-trust-m/optiga-trust-m-1/optiga/comms/ifx_i2c/ifx_i2c_presentation_layer.c **** 
 628://MAC/Home/Downloads/getstarted-optiga-trust-m/optiga-trust-m-1/optiga/comms/ifx_i2c/ifx_i2c_presentation_layer.c ****     } while (TRUE == exit_machine);
 629://MAC/Home/Downloads/getstarted-optiga-trust-m/optiga-trust-m-1/optiga/comms/ifx_i2c/ifx_i2c_presentation_layer.c **** 
 630://MAC/Home/Downloads/getstarted-optiga-trust-m/optiga-trust-m-1/optiga/comms/ifx_i2c/ifx_i2c_presentation_layer.c ****     return (return_status);
 631://MAC/Home/Downloads/getstarted-optiga-trust-m/optiga-trust-m-1/optiga/comms/ifx_i2c/ifx_i2c_presentation_layer.c **** }
 632://MAC/Home/Downloads/getstarted-optiga-trust-m/optiga-trust-m-1/optiga/comms/ifx_i2c/ifx_i2c_presentation_layer.c **** 
 633://MAC/Home/Downloads/getstarted-optiga-trust-m/optiga-trust-m-1/optiga/comms/ifx_i2c/ifx_i2c_presentation_layer.c **** _STATIC_H optiga_lib_status_t ifx_i2c_prl_do_manage_context(ifx_i2c_context_t * p_ctx,
 634://MAC/Home/Downloads/getstarted-optiga-trust-m/optiga-trust-m-1/optiga/comms/ifx_i2c/ifx_i2c_presentation_layer.c ****                                                             const uint8_t * p_data,
 635://MAC/Home/Downloads/getstarted-optiga-trust-m/optiga-trust-m-1/optiga/comms/ifx_i2c/ifx_i2c_presentation_layer.c ****                                                             uint16_t data_len,
 636://MAC/Home/Downloads/getstarted-optiga-trust-m/optiga-trust-m-1/optiga/comms/ifx_i2c/ifx_i2c_presentation_layer.c ****                                                             uint8_t * exit_machine)
 637://MAC/Home/Downloads/getstarted-optiga-trust-m/optiga-trust-m-1/optiga/comms/ifx_i2c/ifx_i2c_presentation_layer.c **** {
 638://MAC/Home/Downloads/getstarted-optiga-trust-m/optiga-trust-m-1/optiga/comms/ifx_i2c/ifx_i2c_presentation_layer.c ****     ifx_i2c_prl_manage_context_t prl_saved_ctx;
 639://MAC/Home/Downloads/getstarted-optiga-trust-m/optiga-trust-m-1/optiga/comms/ifx_i2c/ifx_i2c_presentation_layer.c ****     optiga_lib_status_t return_status = IFX_I2C_STACK_ERROR;
 640://MAC/Home/Downloads/getstarted-optiga-trust-m/optiga-trust-m-1/optiga/comms/ifx_i2c/ifx_i2c_presentation_layer.c ****     uint8_t sctr;
 641://MAC/Home/Downloads/getstarted-optiga-trust-m/optiga-trust-m-1/optiga/comms/ifx_i2c/ifx_i2c_presentation_layer.c **** 
 642://MAC/Home/Downloads/getstarted-optiga-trust-m/optiga-trust-m-1/optiga/comms/ifx_i2c/ifx_i2c_presentation_layer.c ****     switch (p_ctx->prl.mc_state)
 643://MAC/Home/Downloads/getstarted-optiga-trust-m/optiga-trust-m-1/optiga/comms/ifx_i2c/ifx_i2c_presentation_layer.c ****     {
 644://MAC/Home/Downloads/getstarted-optiga-trust-m/optiga-trust-m-1/optiga/comms/ifx_i2c/ifx_i2c_presentation_layer.c ****         case PRL_MANAGE_CONTEXT_TX_STATE:
 645://MAC/Home/Downloads/getstarted-optiga-trust-m/optiga-trust-m-1/optiga/comms/ifx_i2c/ifx_i2c_presentation_layer.c ****         {
 646://MAC/Home/Downloads/getstarted-optiga-trust-m/optiga-trust-m-1/optiga/comms/ifx_i2c/ifx_i2c_presentation_layer.c ****             LOG_PRL("[IFX-PRL]: PRL_STATE_MANAGE_CONTEXT \n");
 647://MAC/Home/Downloads/getstarted-optiga-trust-m/optiga-trust-m-1/optiga/comms/ifx_i2c/ifx_i2c_presentation_layer.c ****             if (0 != (p_ctx->protection_level & RE_ESTABLISH))
 648://MAC/Home/Downloads/getstarted-optiga-trust-m/optiga-trust-m-1/optiga/comms/ifx_i2c/ifx_i2c_presentation_layer.c ****             {
 649://MAC/Home/Downloads/getstarted-optiga-trust-m/optiga-trust-m-1/optiga/comms/ifx_i2c/ifx_i2c_presentation_layer.c ****                 p_ctx->prl.state = PRL_STATE_START;
 650://MAC/Home/Downloads/getstarted-optiga-trust-m/optiga-trust-m-1/optiga/comms/ifx_i2c/ifx_i2c_presentation_layer.c ****                 return_status = IFX_I2C_STACK_SUCCESS;
 651://MAC/Home/Downloads/getstarted-optiga-trust-m/optiga-trust-m-1/optiga/comms/ifx_i2c/ifx_i2c_presentation_layer.c ****                 break;
 652://MAC/Home/Downloads/getstarted-optiga-trust-m/optiga-trust-m-1/optiga/comms/ifx_i2c/ifx_i2c_presentation_layer.c ****             }
 653://MAC/Home/Downloads/getstarted-optiga-trust-m/optiga-trust-m-1/optiga/comms/ifx_i2c/ifx_i2c_presentation_layer.c **** 
 654://MAC/Home/Downloads/getstarted-optiga-trust-m/optiga-trust-m-1/optiga/comms/ifx_i2c/ifx_i2c_presentation_layer.c ****             if (IFX_I2C_SESSION_CONTEXT_SAVE == p_ctx->manage_context_operation)
 655://MAC/Home/Downloads/getstarted-optiga-trust-m/optiga-trust-m-1/optiga/comms/ifx_i2c/ifx_i2c_presentation_layer.c ****             {
 656://MAC/Home/Downloads/getstarted-optiga-trust-m/optiga-trust-m-1/optiga/comms/ifx_i2c/ifx_i2c_presentation_layer.c ****                 p_ctx->prl.prl_txrx_buffer[0] = PRL_SAVE_CONTEXT_MSG;
 657://MAC/Home/Downloads/getstarted-optiga-trust-m/optiga-trust-m-1/optiga/comms/ifx_i2c/ifx_i2c_presentation_layer.c ****                 p_ctx->prl.prl_receive_length = 1;
 658://MAC/Home/Downloads/getstarted-optiga-trust-m/optiga-trust-m-1/optiga/comms/ifx_i2c/ifx_i2c_presentation_layer.c ****                 p_ctx->prl.prl_txrx_receive_length = 1;
 659://MAC/Home/Downloads/getstarted-optiga-trust-m/optiga-trust-m-1/optiga/comms/ifx_i2c/ifx_i2c_presentation_layer.c ****             }
 660://MAC/Home/Downloads/getstarted-optiga-trust-m/optiga-trust-m-1/optiga/comms/ifx_i2c/ifx_i2c_presentation_layer.c ****             else if (IFX_I2C_SESSION_CONTEXT_RESTORE == p_ctx->manage_context_operation)
 661://MAC/Home/Downloads/getstarted-optiga-trust-m/optiga-trust-m-1/optiga/comms/ifx_i2c/ifx_i2c_presentation_layer.c ****             {
 662://MAC/Home/Downloads/getstarted-optiga-trust-m/optiga-trust-m-1/optiga/comms/ifx_i2c/ifx_i2c_presentation_layer.c ****                 /// Restoring saved context from data store
 663://MAC/Home/Downloads/getstarted-optiga-trust-m/optiga-trust-m-1/optiga/comms/ifx_i2c/ifx_i2c_presentation_layer.c ****                 if (OPTIGA_LIB_PAL_DATA_STORE_NOT_CONFIGURED != p_ctx->ifx_i2c_datastore_config->da
 664://MAC/Home/Downloads/getstarted-optiga-trust-m/optiga-trust-m-1/optiga/comms/ifx_i2c/ifx_i2c_presentation_layer.c ****                 {
 665://MAC/Home/Downloads/getstarted-optiga-trust-m/optiga-trust-m-1/optiga/comms/ifx_i2c/ifx_i2c_presentation_layer.c ****                     p_ctx->prl.prl_receive_length = sizeof(p_ctx->prl.prl_saved_ctx);
 666://MAC/Home/Downloads/getstarted-optiga-trust-m/optiga-trust-m-1/optiga/comms/ifx_i2c/ifx_i2c_presentation_layer.c ****                     return_status = pal_os_datastore_read(p_ctx->ifx_i2c_datastore_config->datastor
 667://MAC/Home/Downloads/getstarted-optiga-trust-m/optiga-trust-m-1/optiga/comms/ifx_i2c/ifx_i2c_presentation_layer.c ****                                                           (uint8_t * )&p_ctx->prl.prl_saved_ctx,
 668://MAC/Home/Downloads/getstarted-optiga-trust-m/optiga-trust-m-1/optiga/comms/ifx_i2c/ifx_i2c_presentation_layer.c ****                                                           &p_ctx->prl.prl_receive_length);
 669://MAC/Home/Downloads/getstarted-optiga-trust-m/optiga-trust-m-1/optiga/comms/ifx_i2c/ifx_i2c_presentation_layer.c ****                     if (PAL_STATUS_FAILURE == return_status)
 670://MAC/Home/Downloads/getstarted-optiga-trust-m/optiga-trust-m-1/optiga/comms/ifx_i2c/ifx_i2c_presentation_layer.c ****                     {
 671://MAC/Home/Downloads/getstarted-optiga-trust-m/optiga-trust-m-1/optiga/comms/ifx_i2c/ifx_i2c_presentation_layer.c ****                         break;
 672://MAC/Home/Downloads/getstarted-optiga-trust-m/optiga-trust-m-1/optiga/comms/ifx_i2c/ifx_i2c_presentation_layer.c ****                     }
 673://MAC/Home/Downloads/getstarted-optiga-trust-m/optiga-trust-m-1/optiga/comms/ifx_i2c/ifx_i2c_presentation_layer.c ****                     p_ctx->prl.negotiation_state = p_ctx->prl.prl_saved_ctx.negotiation_state;
 674://MAC/Home/Downloads/getstarted-optiga-trust-m/optiga-trust-m-1/optiga/comms/ifx_i2c/ifx_i2c_presentation_layer.c ****                     if (p_ctx->prl.prl_saved_ctx.stored_context_flag == FALSE)
 675://MAC/Home/Downloads/getstarted-optiga-trust-m/optiga-trust-m-1/optiga/comms/ifx_i2c/ifx_i2c_presentation_layer.c ****                     {
 676://MAC/Home/Downloads/getstarted-optiga-trust-m/optiga-trust-m-1/optiga/comms/ifx_i2c/ifx_i2c_presentation_layer.c ****                         p_ctx->prl.state = PRL_STATE_START;
 677://MAC/Home/Downloads/getstarted-optiga-trust-m/optiga-trust-m-1/optiga/comms/ifx_i2c/ifx_i2c_presentation_layer.c ****                         p_ctx->prl.negotiation_state = PRL_NEGOTIATION_NOT_DONE;
 678://MAC/Home/Downloads/getstarted-optiga-trust-m/optiga-trust-m-1/optiga/comms/ifx_i2c/ifx_i2c_presentation_layer.c ****                         p_ctx->prl.restore_context_flag = PRL_RESTORE_DONE;
 679://MAC/Home/Downloads/getstarted-optiga-trust-m/optiga-trust-m-1/optiga/comms/ifx_i2c/ifx_i2c_presentation_layer.c ****                         *exit_machine = TRUE;
 680://MAC/Home/Downloads/getstarted-optiga-trust-m/optiga-trust-m-1/optiga/comms/ifx_i2c/ifx_i2c_presentation_layer.c ****                         return_status = IFX_I2C_STACK_SUCCESS;
 681://MAC/Home/Downloads/getstarted-optiga-trust-m/optiga-trust-m-1/optiga/comms/ifx_i2c/ifx_i2c_presentation_layer.c ****                         break;
 682://MAC/Home/Downloads/getstarted-optiga-trust-m/optiga-trust-m-1/optiga/comms/ifx_i2c/ifx_i2c_presentation_layer.c ****                     }
 683://MAC/Home/Downloads/getstarted-optiga-trust-m/optiga-trust-m-1/optiga/comms/ifx_i2c/ifx_i2c_presentation_layer.c ****                 }
 684://MAC/Home/Downloads/getstarted-optiga-trust-m/optiga-trust-m-1/optiga/comms/ifx_i2c/ifx_i2c_presentation_layer.c ****                 else
 685://MAC/Home/Downloads/getstarted-optiga-trust-m/optiga-trust-m-1/optiga/comms/ifx_i2c/ifx_i2c_presentation_layer.c ****                 {
 686://MAC/Home/Downloads/getstarted-optiga-trust-m/optiga-trust-m-1/optiga/comms/ifx_i2c/ifx_i2c_presentation_layer.c ****                     if (p_ctx->prl.prl_saved_ctx.stored_context_flag == FALSE)
 687://MAC/Home/Downloads/getstarted-optiga-trust-m/optiga-trust-m-1/optiga/comms/ifx_i2c/ifx_i2c_presentation_layer.c ****                     {
 688://MAC/Home/Downloads/getstarted-optiga-trust-m/optiga-trust-m-1/optiga/comms/ifx_i2c/ifx_i2c_presentation_layer.c ****                         p_ctx->prl.state = PRL_STATE_START;
 689://MAC/Home/Downloads/getstarted-optiga-trust-m/optiga-trust-m-1/optiga/comms/ifx_i2c/ifx_i2c_presentation_layer.c ****                         p_ctx->prl.negotiation_state = PRL_NEGOTIATION_NOT_DONE;
 690://MAC/Home/Downloads/getstarted-optiga-trust-m/optiga-trust-m-1/optiga/comms/ifx_i2c/ifx_i2c_presentation_layer.c ****                         p_ctx->prl.restore_context_flag = PRL_RESTORE_DONE;
 691://MAC/Home/Downloads/getstarted-optiga-trust-m/optiga-trust-m-1/optiga/comms/ifx_i2c/ifx_i2c_presentation_layer.c ****                         *exit_machine = TRUE;
 692://MAC/Home/Downloads/getstarted-optiga-trust-m/optiga-trust-m-1/optiga/comms/ifx_i2c/ifx_i2c_presentation_layer.c ****                         return_status = IFX_I2C_STACK_SUCCESS;
 693://MAC/Home/Downloads/getstarted-optiga-trust-m/optiga-trust-m-1/optiga/comms/ifx_i2c/ifx_i2c_presentation_layer.c ****                         break;
 694://MAC/Home/Downloads/getstarted-optiga-trust-m/optiga-trust-m-1/optiga/comms/ifx_i2c/ifx_i2c_presentation_layer.c ****                     }
 695://MAC/Home/Downloads/getstarted-optiga-trust-m/optiga-trust-m-1/optiga/comms/ifx_i2c/ifx_i2c_presentation_layer.c ****                     else
 696://MAC/Home/Downloads/getstarted-optiga-trust-m/optiga-trust-m-1/optiga/comms/ifx_i2c/ifx_i2c_presentation_layer.c ****                     {
 697://MAC/Home/Downloads/getstarted-optiga-trust-m/optiga-trust-m-1/optiga/comms/ifx_i2c/ifx_i2c_presentation_layer.c ****                         p_ctx->prl.negotiation_state = p_ctx->prl.prl_saved_ctx.negotiation_state;
 698://MAC/Home/Downloads/getstarted-optiga-trust-m/optiga-trust-m-1/optiga/comms/ifx_i2c/ifx_i2c_presentation_layer.c ****                     }
 699://MAC/Home/Downloads/getstarted-optiga-trust-m/optiga-trust-m-1/optiga/comms/ifx_i2c/ifx_i2c_presentation_layer.c ****                 }
 700://MAC/Home/Downloads/getstarted-optiga-trust-m/optiga-trust-m-1/optiga/comms/ifx_i2c/ifx_i2c_presentation_layer.c ****                 ///Prepare restore message
 701://MAC/Home/Downloads/getstarted-optiga-trust-m/optiga-trust-m-1/optiga/comms/ifx_i2c/ifx_i2c_presentation_layer.c ****                 p_ctx->prl.prl_txrx_buffer[PRL_SCTR_OFFSET] = PRL_RESTORE_CONTEXT_MSG;
 702://MAC/Home/Downloads/getstarted-optiga-trust-m/optiga-trust-m-1/optiga/comms/ifx_i2c/ifx_i2c_presentation_layer.c ****                 optiga_common_set_uint32(&p_ctx->prl.prl_txrx_buffer[1], 
 703://MAC/Home/Downloads/getstarted-optiga-trust-m/optiga-trust-m-1/optiga/comms/ifx_i2c/ifx_i2c_presentation_layer.c ****                                          p_ctx->prl.prl_saved_ctx.save_slave_sequence_number);
 704://MAC/Home/Downloads/getstarted-optiga-trust-m/optiga-trust-m-1/optiga/comms/ifx_i2c/ifx_i2c_presentation_layer.c ****                 p_ctx->prl.prl_txrx_receive_length = 5;
 705://MAC/Home/Downloads/getstarted-optiga-trust-m/optiga-trust-m-1/optiga/comms/ifx_i2c/ifx_i2c_presentation_layer.c ****                 prl_saved_ctx.stored_context_flag = FALSE;
 706://MAC/Home/Downloads/getstarted-optiga-trust-m/optiga-trust-m-1/optiga/comms/ifx_i2c/ifx_i2c_presentation_layer.c ****                 p_ctx->prl.prl_receive_length = 5;
 707://MAC/Home/Downloads/getstarted-optiga-trust-m/optiga-trust-m-1/optiga/comms/ifx_i2c/ifx_i2c_presentation_layer.c ****                 p_ctx->prl.prl_saved_ctx.stored_context_flag = FALSE;
 708://MAC/Home/Downloads/getstarted-optiga-trust-m/optiga-trust-m-1/optiga/comms/ifx_i2c/ifx_i2c_presentation_layer.c ****                 ///Clearing the saved context in data store
 709://MAC/Home/Downloads/getstarted-optiga-trust-m/optiga-trust-m-1/optiga/comms/ifx_i2c/ifx_i2c_presentation_layer.c ****                 if (OPTIGA_LIB_PAL_DATA_STORE_NOT_CONFIGURED != p_ctx->ifx_i2c_datastore_config->da
 710://MAC/Home/Downloads/getstarted-optiga-trust-m/optiga-trust-m-1/optiga/comms/ifx_i2c/ifx_i2c_presentation_layer.c ****                 {
 711://MAC/Home/Downloads/getstarted-optiga-trust-m/optiga-trust-m-1/optiga/comms/ifx_i2c/ifx_i2c_presentation_layer.c ****                     memset((uint8_t * )&prl_saved_ctx,0,sizeof(prl_saved_ctx));
 712://MAC/Home/Downloads/getstarted-optiga-trust-m/optiga-trust-m-1/optiga/comms/ifx_i2c/ifx_i2c_presentation_layer.c ****                     return_status = pal_os_datastore_write(p_ctx->ifx_i2c_datastore_config->datasto
 713://MAC/Home/Downloads/getstarted-optiga-trust-m/optiga-trust-m-1/optiga/comms/ifx_i2c/ifx_i2c_presentation_layer.c ****                                                            (uint8_t * )&prl_saved_ctx,
 714://MAC/Home/Downloads/getstarted-optiga-trust-m/optiga-trust-m-1/optiga/comms/ifx_i2c/ifx_i2c_presentation_layer.c ****                                                            sizeof(prl_saved_ctx));
 715://MAC/Home/Downloads/getstarted-optiga-trust-m/optiga-trust-m-1/optiga/comms/ifx_i2c/ifx_i2c_presentation_layer.c ****                     if (PAL_STATUS_FAILURE == return_status)
 716://MAC/Home/Downloads/getstarted-optiga-trust-m/optiga-trust-m-1/optiga/comms/ifx_i2c/ifx_i2c_presentation_layer.c ****                     {
 717://MAC/Home/Downloads/getstarted-optiga-trust-m/optiga-trust-m-1/optiga/comms/ifx_i2c/ifx_i2c_presentation_layer.c ****                         break;
 718://MAC/Home/Downloads/getstarted-optiga-trust-m/optiga-trust-m-1/optiga/comms/ifx_i2c/ifx_i2c_presentation_layer.c ****                     }
 719://MAC/Home/Downloads/getstarted-optiga-trust-m/optiga-trust-m-1/optiga/comms/ifx_i2c/ifx_i2c_presentation_layer.c ****                 }
 720://MAC/Home/Downloads/getstarted-optiga-trust-m/optiga-trust-m-1/optiga/comms/ifx_i2c/ifx_i2c_presentation_layer.c ****             }
 721://MAC/Home/Downloads/getstarted-optiga-trust-m/optiga-trust-m-1/optiga/comms/ifx_i2c/ifx_i2c_presentation_layer.c ****             else
 722://MAC/Home/Downloads/getstarted-optiga-trust-m/optiga-trust-m-1/optiga/comms/ifx_i2c/ifx_i2c_presentation_layer.c ****             {
 723://MAC/Home/Downloads/getstarted-optiga-trust-m/optiga-trust-m-1/optiga/comms/ifx_i2c/ifx_i2c_presentation_layer.c ****                 /// Message type invalid
 724://MAC/Home/Downloads/getstarted-optiga-trust-m/optiga-trust-m-1/optiga/comms/ifx_i2c/ifx_i2c_presentation_layer.c ****                 p_ctx->prl.alert_type = PRL_INVALID_ALERT;
 725://MAC/Home/Downloads/getstarted-optiga-trust-m/optiga-trust-m-1/optiga/comms/ifx_i2c/ifx_i2c_presentation_layer.c ****                 p_ctx->prl.state = PRL_STATE_ERROR;
 726://MAC/Home/Downloads/getstarted-optiga-trust-m/optiga-trust-m-1/optiga/comms/ifx_i2c/ifx_i2c_presentation_layer.c ****                 p_ctx->prl.return_status = IFX_I2C_STACK_ERROR;
 727://MAC/Home/Downloads/getstarted-optiga-trust-m/optiga-trust-m-1/optiga/comms/ifx_i2c/ifx_i2c_presentation_layer.c ****                 break;
 728://MAC/Home/Downloads/getstarted-optiga-trust-m/optiga-trust-m-1/optiga/comms/ifx_i2c/ifx_i2c_presentation_layer.c ****             }
 729://MAC/Home/Downloads/getstarted-optiga-trust-m/optiga-trust-m-1/optiga/comms/ifx_i2c/ifx_i2c_presentation_layer.c ****             return_status = ifx_i2c_tl_transceive(p_ctx,
 730://MAC/Home/Downloads/getstarted-optiga-trust-m/optiga-trust-m-1/optiga/comms/ifx_i2c/ifx_i2c_presentation_layer.c ****                                                   p_ctx->prl.prl_txrx_buffer,
 731://MAC/Home/Downloads/getstarted-optiga-trust-m/optiga-trust-m-1/optiga/comms/ifx_i2c/ifx_i2c_presentation_layer.c ****                                                   p_ctx->prl.prl_txrx_receive_length,
 732://MAC/Home/Downloads/getstarted-optiga-trust-m/optiga-trust-m-1/optiga/comms/ifx_i2c/ifx_i2c_presentation_layer.c ****                                                   p_ctx->prl.prl_txrx_buffer,
 733://MAC/Home/Downloads/getstarted-optiga-trust-m/optiga-trust-m-1/optiga/comms/ifx_i2c/ifx_i2c_presentation_layer.c ****                                                   &p_ctx->prl.prl_receive_length);
 734://MAC/Home/Downloads/getstarted-optiga-trust-m/optiga-trust-m-1/optiga/comms/ifx_i2c/ifx_i2c_presentation_layer.c ****             if (IFX_I2C_STACK_SUCCESS != return_status)
 735://MAC/Home/Downloads/getstarted-optiga-trust-m/optiga-trust-m-1/optiga/comms/ifx_i2c/ifx_i2c_presentation_layer.c ****             {
 736://MAC/Home/Downloads/getstarted-optiga-trust-m/optiga-trust-m-1/optiga/comms/ifx_i2c/ifx_i2c_presentation_layer.c ****                 break;
 737://MAC/Home/Downloads/getstarted-optiga-trust-m/optiga-trust-m-1/optiga/comms/ifx_i2c/ifx_i2c_presentation_layer.c ****             }
 738://MAC/Home/Downloads/getstarted-optiga-trust-m/optiga-trust-m-1/optiga/comms/ifx_i2c/ifx_i2c_presentation_layer.c ****             p_ctx->prl.mc_state = PRL_MANAGE_CONTEXT_RX_STATE;
 739://MAC/Home/Downloads/getstarted-optiga-trust-m/optiga-trust-m-1/optiga/comms/ifx_i2c/ifx_i2c_presentation_layer.c ****             return_status = IFX_I2C_STACK_SUCCESS;
 740://MAC/Home/Downloads/getstarted-optiga-trust-m/optiga-trust-m-1/optiga/comms/ifx_i2c/ifx_i2c_presentation_layer.c ****             *exit_machine = FALSE;
 741://MAC/Home/Downloads/getstarted-optiga-trust-m/optiga-trust-m-1/optiga/comms/ifx_i2c/ifx_i2c_presentation_layer.c ****         }
 742://MAC/Home/Downloads/getstarted-optiga-trust-m/optiga-trust-m-1/optiga/comms/ifx_i2c/ifx_i2c_presentation_layer.c ****         break;
 743://MAC/Home/Downloads/getstarted-optiga-trust-m/optiga-trust-m-1/optiga/comms/ifx_i2c/ifx_i2c_presentation_layer.c ****         case PRL_MANAGE_CONTEXT_RX_STATE:
 744://MAC/Home/Downloads/getstarted-optiga-trust-m/optiga-trust-m-1/optiga/comms/ifx_i2c/ifx_i2c_presentation_layer.c ****         {
 745://MAC/Home/Downloads/getstarted-optiga-trust-m/optiga-trust-m-1/optiga/comms/ifx_i2c/ifx_i2c_presentation_layer.c ****             *exit_machine = TRUE;
 746://MAC/Home/Downloads/getstarted-optiga-trust-m/optiga-trust-m-1/optiga/comms/ifx_i2c/ifx_i2c_presentation_layer.c ****             sctr = p_data[PRL_SCTR_OFFSET] & PRL_MANAGE_CONTEXT_MASK;
 747://MAC/Home/Downloads/getstarted-optiga-trust-m/optiga-trust-m-1/optiga/comms/ifx_i2c/ifx_i2c_presentation_layer.c ****             if ((PRL_CONTEXT_RESTORED_MSG == sctr) &&
 748://MAC/Home/Downloads/getstarted-optiga-trust-m/optiga-trust-m-1/optiga/comms/ifx_i2c/ifx_i2c_presentation_layer.c ****                 (IFX_I2C_SESSION_CONTEXT_RESTORE == p_ctx->manage_context_operation) && (5 == data_
 749://MAC/Home/Downloads/getstarted-optiga-trust-m/optiga-trust-m-1/optiga/comms/ifx_i2c/ifx_i2c_presentation_layer.c ****             {
 750://MAC/Home/Downloads/getstarted-optiga-trust-m/optiga-trust-m-1/optiga/comms/ifx_i2c/ifx_i2c_presentation_layer.c ****                 ///Restore the saved context to active context structure
 751://MAC/Home/Downloads/getstarted-optiga-trust-m/optiga-trust-m-1/optiga/comms/ifx_i2c/ifx_i2c_presentation_layer.c ****                 COPY_MANAGE_CONTEXT_DATA(p_ctx->prl.prl_saved_ctx,p_ctx->prl);
 752://MAC/Home/Downloads/getstarted-optiga-trust-m/optiga-trust-m-1/optiga/comms/ifx_i2c/ifx_i2c_presentation_layer.c ****                 p_ctx->prl.restore_context_flag = PRL_RESTORE_DONE;
 753://MAC/Home/Downloads/getstarted-optiga-trust-m/optiga-trust-m-1/optiga/comms/ifx_i2c/ifx_i2c_presentation_layer.c ****                 p_ctx->prl.state = PRL_STATE_TXRX;
 754://MAC/Home/Downloads/getstarted-optiga-trust-m/optiga-trust-m-1/optiga/comms/ifx_i2c/ifx_i2c_presentation_layer.c ****             }
 755://MAC/Home/Downloads/getstarted-optiga-trust-m/optiga-trust-m-1/optiga/comms/ifx_i2c/ifx_i2c_presentation_layer.c ****             else if ((PRL_CONTEXT_SAVED_MSG == sctr) &&
 756://MAC/Home/Downloads/getstarted-optiga-trust-m/optiga-trust-m-1/optiga/comms/ifx_i2c/ifx_i2c_presentation_layer.c ****                      (IFX_I2C_SESSION_CONTEXT_SAVE == p_ctx->manage_context_operation) && (1 == dat
 757://MAC/Home/Downloads/getstarted-optiga-trust-m/optiga-trust-m-1/optiga/comms/ifx_i2c/ifx_i2c_presentation_layer.c ****             {
 758://MAC/Home/Downloads/getstarted-optiga-trust-m/optiga-trust-m-1/optiga/comms/ifx_i2c/ifx_i2c_presentation_layer.c ****                 p_ctx->prl.prl_saved_ctx.stored_context_flag = TRUE;
 759://MAC/Home/Downloads/getstarted-optiga-trust-m/optiga-trust-m-1/optiga/comms/ifx_i2c/ifx_i2c_presentation_layer.c ****                 COPY_MANAGE_CONTEXT_DATA(p_ctx->prl, p_ctx->prl.prl_saved_ctx);
 760://MAC/Home/Downloads/getstarted-optiga-trust-m/optiga-trust-m-1/optiga/comms/ifx_i2c/ifx_i2c_presentation_layer.c ****                 
 761://MAC/Home/Downloads/getstarted-optiga-trust-m/optiga-trust-m-1/optiga/comms/ifx_i2c/ifx_i2c_presentation_layer.c ****                 if (OPTIGA_LIB_PAL_DATA_STORE_NOT_CONFIGURED != p_ctx->ifx_i2c_datastore_config->da
 762://MAC/Home/Downloads/getstarted-optiga-trust-m/optiga-trust-m-1/optiga/comms/ifx_i2c/ifx_i2c_presentation_layer.c ****                 {
 763://MAC/Home/Downloads/getstarted-optiga-trust-m/optiga-trust-m-1/optiga/comms/ifx_i2c/ifx_i2c_presentation_layer.c ****                     ///Store active session to data store
 764://MAC/Home/Downloads/getstarted-optiga-trust-m/optiga-trust-m-1/optiga/comms/ifx_i2c/ifx_i2c_presentation_layer.c ****                     p_ctx->prl.prl_receive_length = sizeof(p_ctx->prl.prl_saved_ctx);
 765://MAC/Home/Downloads/getstarted-optiga-trust-m/optiga-trust-m-1/optiga/comms/ifx_i2c/ifx_i2c_presentation_layer.c ****                     return_status = pal_os_datastore_write(p_ctx->ifx_i2c_datastore_config->datasto
 766://MAC/Home/Downloads/getstarted-optiga-trust-m/optiga-trust-m-1/optiga/comms/ifx_i2c/ifx_i2c_presentation_layer.c ****                                                            (uint8_t * )&p_ctx->prl.prl_saved_ctx,
 767://MAC/Home/Downloads/getstarted-optiga-trust-m/optiga-trust-m-1/optiga/comms/ifx_i2c/ifx_i2c_presentation_layer.c ****                                                            p_ctx->prl.prl_receive_length);
 768://MAC/Home/Downloads/getstarted-optiga-trust-m/optiga-trust-m-1/optiga/comms/ifx_i2c/ifx_i2c_presentation_layer.c ****                     if (PAL_STATUS_SUCCESS != return_status)
 769://MAC/Home/Downloads/getstarted-optiga-trust-m/optiga-trust-m-1/optiga/comms/ifx_i2c/ifx_i2c_presentation_layer.c ****                     {
 770://MAC/Home/Downloads/getstarted-optiga-trust-m/optiga-trust-m-1/optiga/comms/ifx_i2c/ifx_i2c_presentation_layer.c ****                         ERROR_STATE_PREPARATION(p_ctx,*exit_machine);
 771://MAC/Home/Downloads/getstarted-optiga-trust-m/optiga-trust-m-1/optiga/comms/ifx_i2c/ifx_i2c_presentation_layer.c ****                         break;
 772://MAC/Home/Downloads/getstarted-optiga-trust-m/optiga-trust-m-1/optiga/comms/ifx_i2c/ifx_i2c_presentation_layer.c ****                     }
 773://MAC/Home/Downloads/getstarted-optiga-trust-m/optiga-trust-m-1/optiga/comms/ifx_i2c/ifx_i2c_presentation_layer.c ****                 }
 774://MAC/Home/Downloads/getstarted-optiga-trust-m/optiga-trust-m-1/optiga/comms/ifx_i2c/ifx_i2c_presentation_layer.c ****                 ///Clearing the active session
 775://MAC/Home/Downloads/getstarted-optiga-trust-m/optiga-trust-m-1/optiga/comms/ifx_i2c/ifx_i2c_presentation_layer.c ****                 CLEAR_SESSION_CONTEXT(p_ctx);
 776://MAC/Home/Downloads/getstarted-optiga-trust-m/optiga-trust-m-1/optiga/comms/ifx_i2c/ifx_i2c_presentation_layer.c ****                 p_ctx->prl.state = PRL_STATE_IDLE;
 777://MAC/Home/Downloads/getstarted-optiga-trust-m/optiga-trust-m-1/optiga/comms/ifx_i2c/ifx_i2c_presentation_layer.c ****             }
 778://MAC/Home/Downloads/getstarted-optiga-trust-m/optiga-trust-m-1/optiga/comms/ifx_i2c/ifx_i2c_presentation_layer.c ****             else
 779://MAC/Home/Downloads/getstarted-optiga-trust-m/optiga-trust-m-1/optiga/comms/ifx_i2c/ifx_i2c_presentation_layer.c ****             {
 780://MAC/Home/Downloads/getstarted-optiga-trust-m/optiga-trust-m-1/optiga/comms/ifx_i2c/ifx_i2c_presentation_layer.c ****                 memset((uint8_t * )&p_ctx->prl.prl_saved_ctx,0,sizeof(p_ctx->prl.prl_saved_ctx));
 781://MAC/Home/Downloads/getstarted-optiga-trust-m/optiga-trust-m-1/optiga/comms/ifx_i2c/ifx_i2c_presentation_layer.c ****                 if (OPTIGA_LIB_PAL_DATA_STORE_NOT_CONFIGURED != p_ctx->ifx_i2c_datastore_config->da
 782://MAC/Home/Downloads/getstarted-optiga-trust-m/optiga-trust-m-1/optiga/comms/ifx_i2c/ifx_i2c_presentation_layer.c ****                 {
 783://MAC/Home/Downloads/getstarted-optiga-trust-m/optiga-trust-m-1/optiga/comms/ifx_i2c/ifx_i2c_presentation_layer.c ****                     return_status = pal_os_datastore_write(p_ctx->ifx_i2c_datastore_config->datasto
 784://MAC/Home/Downloads/getstarted-optiga-trust-m/optiga-trust-m-1/optiga/comms/ifx_i2c/ifx_i2c_presentation_layer.c ****                                                            (uint8_t * )&p_ctx->prl.prl_saved_ctx,
 785://MAC/Home/Downloads/getstarted-optiga-trust-m/optiga-trust-m-1/optiga/comms/ifx_i2c/ifx_i2c_presentation_layer.c ****                                                            sizeof(p_ctx->prl.prl_saved_ctx));
 786://MAC/Home/Downloads/getstarted-optiga-trust-m/optiga-trust-m-1/optiga/comms/ifx_i2c/ifx_i2c_presentation_layer.c ****                 }
 787://MAC/Home/Downloads/getstarted-optiga-trust-m/optiga-trust-m-1/optiga/comms/ifx_i2c/ifx_i2c_presentation_layer.c ****                 return_status = IFX_I2C_STACK_ERROR;
 788://MAC/Home/Downloads/getstarted-optiga-trust-m/optiga-trust-m-1/optiga/comms/ifx_i2c/ifx_i2c_presentation_layer.c ****                 break;
 789://MAC/Home/Downloads/getstarted-optiga-trust-m/optiga-trust-m-1/optiga/comms/ifx_i2c/ifx_i2c_presentation_layer.c ****             }
 790://MAC/Home/Downloads/getstarted-optiga-trust-m/optiga-trust-m-1/optiga/comms/ifx_i2c/ifx_i2c_presentation_layer.c ****             p_ctx->prl.return_status = IFX_I2C_STACK_SUCCESS;
 791://MAC/Home/Downloads/getstarted-optiga-trust-m/optiga-trust-m-1/optiga/comms/ifx_i2c/ifx_i2c_presentation_layer.c ****             return_status = IFX_I2C_STACK_SUCCESS;
 792://MAC/Home/Downloads/getstarted-optiga-trust-m/optiga-trust-m-1/optiga/comms/ifx_i2c/ifx_i2c_presentation_layer.c ****         }
 793://MAC/Home/Downloads/getstarted-optiga-trust-m/optiga-trust-m-1/optiga/comms/ifx_i2c/ifx_i2c_presentation_layer.c ****         break;
 794://MAC/Home/Downloads/getstarted-optiga-trust-m/optiga-trust-m-1/optiga/comms/ifx_i2c/ifx_i2c_presentation_layer.c ****         default:
 795://MAC/Home/Downloads/getstarted-optiga-trust-m/optiga-trust-m-1/optiga/comms/ifx_i2c/ifx_i2c_presentation_layer.c ****         {
 796://MAC/Home/Downloads/getstarted-optiga-trust-m/optiga-trust-m-1/optiga/comms/ifx_i2c/ifx_i2c_presentation_layer.c ****             ERROR_STATE_PREPARATION(p_ctx,*exit_machine);
 797://MAC/Home/Downloads/getstarted-optiga-trust-m/optiga-trust-m-1/optiga/comms/ifx_i2c/ifx_i2c_presentation_layer.c ****         }
 798://MAC/Home/Downloads/getstarted-optiga-trust-m/optiga-trust-m-1/optiga/comms/ifx_i2c/ifx_i2c_presentation_layer.c ****         break;
 799://MAC/Home/Downloads/getstarted-optiga-trust-m/optiga-trust-m-1/optiga/comms/ifx_i2c/ifx_i2c_presentation_layer.c ****     }
 800://MAC/Home/Downloads/getstarted-optiga-trust-m/optiga-trust-m-1/optiga/comms/ifx_i2c/ifx_i2c_presentation_layer.c ****   return (return_status);
 801://MAC/Home/Downloads/getstarted-optiga-trust-m/optiga-trust-m-1/optiga/comms/ifx_i2c/ifx_i2c_presentation_layer.c **** }
 802://MAC/Home/Downloads/getstarted-optiga-trust-m/optiga-trust-m-1/optiga/comms/ifx_i2c/ifx_i2c_presentation_layer.c **** 
 803://MAC/Home/Downloads/getstarted-optiga-trust-m/optiga-trust-m-1/optiga/comms/ifx_i2c/ifx_i2c_presentation_layer.c **** _STATIC_H void ifx_i2c_prl_event_handler(ifx_i2c_context_t * p_ctx,
 804://MAC/Home/Downloads/getstarted-optiga-trust-m/optiga-trust-m-1/optiga/comms/ifx_i2c/ifx_i2c_presentation_layer.c ****                                          optiga_lib_status_t event,
 805://MAC/Home/Downloads/getstarted-optiga-trust-m/optiga-trust-m-1/optiga/comms/ifx_i2c/ifx_i2c_presentation_layer.c ****                                          const uint8_t * p_data,
 806://MAC/Home/Downloads/getstarted-optiga-trust-m/optiga-trust-m-1/optiga/comms/ifx_i2c/ifx_i2c_presentation_layer.c ****                                          uint16_t data_len)
 807://MAC/Home/Downloads/getstarted-optiga-trust-m/optiga-trust-m-1/optiga/comms/ifx_i2c/ifx_i2c_presentation_layer.c **** {
 329              	 .loc 1 807 0
 330              	 .cfi_startproc
 331              	.LVL42:
 332 0000 F0B5     	 push {r4,r5,r6,r7,lr}
 333              	.LCFI4:
 334              	 .cfi_def_cfa_offset 20
 335              	 .cfi_offset 4,-20
 336              	 .cfi_offset 5,-16
 337              	 .cfi_offset 6,-12
 338              	 .cfi_offset 7,-8
 339              	 .cfi_offset 14,-4
 340 0002 AFB0     	 sub sp,sp,#188
 341              	.LCFI5:
 342              	 .cfi_def_cfa_offset 208
 343              	 .loc 1 807 0
 344 0004 0893     	 str r3,[sp,#32]
 808://MAC/Home/Downloads/getstarted-optiga-trust-m/optiga-trust-m-1/optiga/comms/ifx_i2c/ifx_i2c_presentation_layer.c ****     //if handshake
 809://MAC/Home/Downloads/getstarted-optiga-trust-m/optiga-trust-m-1/optiga/comms/ifx_i2c/ifx_i2c_presentation_layer.c ****     uint8_t exit_machine = TRUE;
 810://MAC/Home/Downloads/getstarted-optiga-trust-m/optiga-trust-m-1/optiga/comms/ifx_i2c/ifx_i2c_presentation_layer.c ****     ifx_i2c_prl_manage_context_t prl_saved_ctx;
 811://MAC/Home/Downloads/getstarted-optiga-trust-m/optiga-trust-m-1/optiga/comms/ifx_i2c/ifx_i2c_presentation_layer.c ****     optiga_lib_status_t return_status = IFX_I2C_STACK_ERROR;
 812://MAC/Home/Downloads/getstarted-optiga-trust-m/optiga-trust-m-1/optiga/comms/ifx_i2c/ifx_i2c_presentation_layer.c **** 
 813://MAC/Home/Downloads/getstarted-optiga-trust-m/optiga-trust-m-1/optiga/comms/ifx_i2c/ifx_i2c_presentation_layer.c ****     LOG_PRL("[IFX-PRL]: ifx_i2c_prl_event_handler %d\n", data_len);
 814://MAC/Home/Downloads/getstarted-optiga-trust-m/optiga-trust-m-1/optiga/comms/ifx_i2c/ifx_i2c_presentation_layer.c ****     if ((0 != (event & IFX_I2C_STACK_MEM_ERROR)) || (0 != (event & IFX_I2C_STACK_ERROR)))
 345              	 .loc 1 814 0
 346 0006 8323     	 mov r3,#131
 347              	.LVL43:
 348 0008 5B00     	 lsl r3,r3,#1
 807://MAC/Home/Downloads/getstarted-optiga-trust-m/optiga-trust-m-1/optiga/comms/ifx_i2c/ifx_i2c_presentation_layer.c ****     //if handshake
 349              	 .loc 1 807 0
 350 000a 041C     	 mov r4,r0
 351 000c 0792     	 str r2,[sp,#28]
 352              	 .loc 1 814 0
 353 000e 1942     	 tst r1,r3
 354 0010 1FD0     	 beq .L17
 815://MAC/Home/Downloads/getstarted-optiga-trust-m/optiga-trust-m-1/optiga/comms/ifx_i2c/ifx_i2c_presentation_layer.c ****     {
 816://MAC/Home/Downloads/getstarted-optiga-trust-m/optiga-trust-m-1/optiga/comms/ifx_i2c/ifx_i2c_presentation_layer.c ****         p_ctx->prl.alert_type = PRL_INVALID_ALERT;
 355              	 .loc 1 816 0
 356 0012 FF22     	 mov r2,#255
 357              	.LVL44:
 358 0014 CC33     	 add r3,r3,#204
 359 0016 C254     	 strb r2,[r0,r3]
 817://MAC/Home/Downloads/getstarted-optiga-trust-m/optiga-trust-m-1/optiga/comms/ifx_i2c/ifx_i2c_presentation_layer.c ****         if (PRL_STATE_HANDSHAKE == p_ctx->prl.state)
 360              	 .loc 1 817 0
 361 0018 223B     	 sub r3,r3,#34
 362 001a C25C     	 ldrb r2,[r0,r3]
 363 001c B433     	 add r3,r3,#180
 364 001e 052A     	 cmp r2,#5
 365 0020 03D1     	 bne .L14
 818://MAC/Home/Downloads/getstarted-optiga-trust-m/optiga-trust-m-1/optiga/comms/ifx_i2c/ifx_i2c_presentation_layer.c ****         {
 819://MAC/Home/Downloads/getstarted-optiga-trust-m/optiga-trust-m-1/optiga/comms/ifx_i2c/ifx_i2c_presentation_layer.c ****             p_ctx->prl.return_status = IFX_I2C_HANDSHAKE_ERROR;
 366              	 .loc 1 819 0
 367 0022 0822     	 mov r2,#8
 368 0024 FF32     	 add r2,r2,#255
 369 0026 C252     	 strh r2,[r0,r3]
 370 0028 0FE0     	 b .L15
 371              	.L14:
 820://MAC/Home/Downloads/getstarted-optiga-trust-m/optiga-trust-m-1/optiga/comms/ifx_i2c/ifx_i2c_presentation_layer.c ****         }
 821://MAC/Home/Downloads/getstarted-optiga-trust-m/optiga-trust-m-1/optiga/comms/ifx_i2c/ifx_i2c_presentation_layer.c ****         else if ((PRL_NEGOTIATION_DONE == p_ctx->prl.negotiation_state) && (IFX_I2C_STACK_MEM_ERROR
 372              	 .loc 1 821 0
 373 002a D922     	 mov r2,#217
 374 002c 5200     	 lsl r2,r2,#1
 375 002e 805C     	 ldrb r0,[r0,r2]
 376              	.LVL45:
 377 0030 0128     	 cmp r0,#1
 378 0032 09D1     	 bne .L16
 379              	 .loc 1 821 0 is_stmt 0 discriminator 1
 380 0034 0430     	 add r0,r0,#4
 381 0036 FF30     	 add r0,r0,#255
 382 0038 8142     	 cmp r1,r0
 383 003a 05D0     	 beq .L16
 822://MAC/Home/Downloads/getstarted-optiga-trust-m/optiga-trust-m-1/optiga/comms/ifx_i2c/ifx_i2c_presentation_layer.c ****         {
 823://MAC/Home/Downloads/getstarted-optiga-trust-m/optiga-trust-m-1/optiga/comms/ifx_i2c/ifx_i2c_presentation_layer.c ****             p_ctx->prl.return_status = IFX_I2C_SESSION_ERROR;
 384              	 .loc 1 823 0 is_stmt 1
 385 003c 8421     	 mov r1,#132
 386              	.LVL46:
 387 003e 4900     	 lsl r1,r1,#1
 388 0040 E152     	 strh r1,[r4,r3]
 824://MAC/Home/Downloads/getstarted-optiga-trust-m/optiga-trust-m-1/optiga/comms/ifx_i2c/ifx_i2c_presentation_layer.c ****             p_ctx->prl.negotiation_state = PRL_NEGOTIATION_NOT_DONE;
 389              	 .loc 1 824 0
 390 0042 0023     	 mov r3,#0
 391 0044 00F0D6FC 	 bl .L175
 392              	.LVL47:
 393              	.L16:
 825://MAC/Home/Downloads/getstarted-optiga-trust-m/optiga-trust-m-1/optiga/comms/ifx_i2c/ifx_i2c_presentation_layer.c ****         }
 826://MAC/Home/Downloads/getstarted-optiga-trust-m/optiga-trust-m-1/optiga/comms/ifx_i2c/ifx_i2c_presentation_layer.c ****         else
 827://MAC/Home/Downloads/getstarted-optiga-trust-m/optiga-trust-m-1/optiga/comms/ifx_i2c/ifx_i2c_presentation_layer.c ****         {
 828://MAC/Home/Downloads/getstarted-optiga-trust-m/optiga-trust-m-1/optiga/comms/ifx_i2c/ifx_i2c_presentation_layer.c ****             p_ctx->prl.return_status = event;
 394              	 .loc 1 828 0
 395 0048 E152     	 strh r1,[r4,r3]
 396              	.LVL48:
 397              	.L15:
 829://MAC/Home/Downloads/getstarted-optiga-trust-m/optiga-trust-m-1/optiga/comms/ifx_i2c/ifx_i2c_presentation_layer.c ****         }
 830://MAC/Home/Downloads/getstarted-optiga-trust-m/optiga-trust-m-1/optiga/comms/ifx_i2c/ifx_i2c_presentation_layer.c ****         p_ctx->prl.state = PRL_STATE_ERROR;
 398              	 .loc 1 830 0
 399 004a 0722     	 mov r2,#7
 400              	.L166:
 401 004c D823     	 mov r3,#216
 402 004e 5B00     	 lsl r3,r3,#1
 403              	.L164:
 404 0050 E254     	 strb r2,[r4,r3]
 405              	.LVL49:
 406              	.L17:
 831://MAC/Home/Downloads/getstarted-optiga-trust-m/optiga-trust-m-1/optiga/comms/ifx_i2c/ifx_i2c_presentation_layer.c ****     }
 832://MAC/Home/Downloads/getstarted-optiga-trust-m/optiga-trust-m-1/optiga/comms/ifx_i2c/ifx_i2c_presentation_layer.c **** 
 833://MAC/Home/Downloads/getstarted-optiga-trust-m/optiga-trust-m-1/optiga/comms/ifx_i2c/ifx_i2c_presentation_layer.c ****     do
 834://MAC/Home/Downloads/getstarted-optiga-trust-m/optiga-trust-m-1/optiga/comms/ifx_i2c/ifx_i2c_presentation_layer.c ****     {
 835://MAC/Home/Downloads/getstarted-optiga-trust-m/optiga-trust-m-1/optiga/comms/ifx_i2c/ifx_i2c_presentation_layer.c ****         //exit_machine = FALSE;
 836://MAC/Home/Downloads/getstarted-optiga-trust-m/optiga-trust-m-1/optiga/comms/ifx_i2c/ifx_i2c_presentation_layer.c ****         switch (p_ctx->prl.state)
 407              	 .loc 1 836 0
 408 0052 D823     	 mov r3,#216
 409 0054 5B00     	 lsl r3,r3,#1
 410 0056 E05C     	 ldrb r0,[r4,r3]
 411 0058 0138     	 sub r0,r0,#1
 412 005a 0728     	 cmp r0,#7
 413 005c 01D9     	 bls .LCB401
 414 005e 00F006FD 	 bl .L18
 415              	.LCB401:
 416 0062 FFF7FEFF 	 bl __gnu_thumb1_case_uhi
 417              	.L20:
 418 0066 0800     	 .2byte (.L19-.L20)/2
 419 0068 7101     	 .2byte (.L21-.L20)/2
 420 006a E503     	 .2byte (.L22-.L20)/2
 421 006c 1403     	 .2byte (.L23-.L20)/2
 422 006e 9101     	 .2byte (.L24-.L20)/2
 423 0070 8E04     	 .2byte (.L25-.L20)/2
 424 0072 CA04     	 .2byte (.L26-.L20)/2
 425 0074 1000     	 .2byte (.L27-.L20)/2
 426              	 .p2align 1
 427              	.L19:
 837://MAC/Home/Downloads/getstarted-optiga-trust-m/optiga-trust-m-1/optiga/comms/ifx_i2c/ifx_i2c_presentation_layer.c ****         {
 838://MAC/Home/Downloads/getstarted-optiga-trust-m/optiga-trust-m-1/optiga/comms/ifx_i2c/ifx_i2c_presentation_layer.c ****             case PRL_STATE_IDLE:
 839://MAC/Home/Downloads/getstarted-optiga-trust-m/optiga-trust-m-1/optiga/comms/ifx_i2c/ifx_i2c_presentation_layer.c ****             {
 840://MAC/Home/Downloads/getstarted-optiga-trust-m/optiga-trust-m-1/optiga/comms/ifx_i2c/ifx_i2c_presentation_layer.c ****                 LOG_PRL("[IFX-PRL]: PRL_STATE_IDLE %d\n", p_ctx->prl.return_status);
 841://MAC/Home/Downloads/getstarted-optiga-trust-m/optiga-trust-m-1/optiga/comms/ifx_i2c/ifx_i2c_presentation_layer.c ****                 p_ctx->prl.upper_layer_event_handler(p_ctx, p_ctx->prl.return_status, 0, 0);
 428              	 .loc 1 841 0
 429 0076 9923     	 mov r3,#153
 430 0078 9B00     	 lsl r3,r3,#2
 431 007a E15A     	 ldrh r1,[r4,r3]
 432 007c 3833     	 add r3,r3,#56
 433 007e E558     	 ldr r5,[r4,r3]
 434 0080 201C     	 mov r0,r4
 435 0082 00F0FCFC 	 bl .L172
 436              	.L27:
 437              	.LVL50:
 438              	.LBB28:
 439              	.LBB29:
 642://MAC/Home/Downloads/getstarted-optiga-trust-m/optiga-trust-m-1/optiga/comms/ifx_i2c/ifx_i2c_presentation_layer.c ****     {
 440              	 .loc 1 642 0
 441 0086 B425     	 mov r5,#180
 442 0088 FF35     	 add r5,r5,#255
 443 008a 635D     	 ldrb r3,[r4,r5]
 444 008c 012B     	 cmp r3,#1
 445 008e 03D0     	 beq .L30
 446 0090 022B     	 cmp r3,#2
 447 0092 00D1     	 bne .LCB433
 448 0094 88E0     	 b .L31
 449              	.LCB433:
 450 0096 31E1     	 b .L176
 451              	.L30:
 647://MAC/Home/Downloads/getstarted-optiga-trust-m/optiga-trust-m-1/optiga/comms/ifx_i2c/ifx_i2c_presentation_layer.c ****             {
 452              	 .loc 1 647 0
 453 0098 221C     	 mov r2,r4
 454 009a 3032     	 add r2,r2,#48
 455 009c 1278     	 ldrb r2,[r2]
 456 009e 7F2A     	 cmp r2,#127
 457 00a0 01D9     	 bls .L32
 649://MAC/Home/Downloads/getstarted-optiga-trust-m/optiga-trust-m-1/optiga/comms/ifx_i2c/ifx_i2c_presentation_layer.c ****                 return_status = IFX_I2C_STACK_SUCCESS;
 458              	 .loc 1 649 0
 459 00a2 0222     	 mov r2,#2
 460 00a4 D2E7     	 b .L166
 461              	.L32:
 654://MAC/Home/Downloads/getstarted-optiga-trust-m/optiga-trust-m-1/optiga/comms/ifx_i2c/ifx_i2c_presentation_layer.c ****             {
 462              	 .loc 1 654 0
 463 00a6 221C     	 mov r2,r4
 464 00a8 3232     	 add r2,r2,#50
 465 00aa 1278     	 ldrb r2,[r2]
 466 00ac 222A     	 cmp r2,#34
 467 00ae 08D1     	 bne .L34
 656://MAC/Home/Downloads/getstarted-optiga-trust-m/optiga-trust-m-1/optiga/comms/ifx_i2c/ifx_i2c_presentation_layer.c ****                 p_ctx->prl.prl_receive_length = 1;
 468              	 .loc 1 656 0
 469 00b0 6021     	 mov r1,#96
 470 00b2 FB32     	 add r2,r2,#251
 471 00b4 FF32     	 add r2,r2,#255
 472 00b6 A154     	 strb r1,[r4,r2]
 657://MAC/Home/Downloads/getstarted-optiga-trust-m/optiga-trust-m-1/optiga/comms/ifx_i2c/ifx_i2c_presentation_layer.c ****                 p_ctx->prl.prl_txrx_receive_length = 1;
 473              	 .loc 1 657 0
 474 00b8 4432     	 add r2,r2,#68
 475 00ba A352     	 strh r3,[r4,r2]
 658://MAC/Home/Downloads/getstarted-optiga-trust-m/optiga-trust-m-1/optiga/comms/ifx_i2c/ifx_i2c_presentation_layer.c ****             }
 476              	 .loc 1 658 0
 477 00bc D84A     	 ldr r2,.L177
 478 00be A352     	 strh r3,[r4,r2]
 479 00c0 5FE0     	 b .L35
 480              	.L34:
 660://MAC/Home/Downloads/getstarted-optiga-trust-m/optiga-trust-m-1/optiga/comms/ifx_i2c/ifx_i2c_presentation_layer.c ****             {
 481              	 .loc 1 660 0
 482 00c2 112A     	 cmp r2,#17
 483 00c4 52D1     	 bne .L36
 663://MAC/Home/Downloads/getstarted-optiga-trust-m/optiga-trust-m-1/optiga/comms/ifx_i2c/ifx_i2c_presentation_layer.c ****                 {
 484              	 .loc 1 663 0
 485 00c6 6369     	 ldr r3,[r4,#20]
 486 00c8 9888     	 ldrh r0,[r3,#4]
 487 00ca 0028     	 cmp r0,#0
 488 00cc 1ED0     	 beq .L37
 665://MAC/Home/Downloads/getstarted-optiga-trust-m/optiga-trust-m-1/optiga/comms/ifx_i2c/ifx_i2c_presentation_layer.c ****                     return_status = pal_os_datastore_read(p_ctx->ifx_i2c_datastore_config->datastor
 489              	 .loc 1 665 0
 490 00ce 9823     	 mov r3,#152
 491 00d0 2332     	 add r2,r2,#35
 492 00d2 9B00     	 lsl r3,r3,#2
 493 00d4 E252     	 strh r2,[r4,r3]
 666://MAC/Home/Downloads/getstarted-optiga-trust-m/optiga-trust-m-1/optiga/comms/ifx_i2c/ifx_i2c_presentation_layer.c ****                                                           (uint8_t * )&p_ctx->prl.prl_saved_ctx,
 494              	 .loc 1 666 0
 495 00d6 0833     	 add r3,r3,#8
 496 00d8 E118     	 add r1,r4,r3
 497 00da 083B     	 sub r3,r3,#8
 498 00dc E218     	 add r2,r4,r3
 499 00de FFF7FEFF 	 bl pal_os_datastore_read
 500              	.LVL51:
 669://MAC/Home/Downloads/getstarted-optiga-trust-m/optiga-trust-m-1/optiga/comms/ifx_i2c/ifx_i2c_presentation_layer.c ****                     {
 501              	 .loc 1 669 0
 502 00e2 0128     	 cmp r0,#1
 503 00e4 00D1     	 bne .LCB484
 504 00e6 1EE1     	 b .L82
 505              	.LCB484:
 673://MAC/Home/Downloads/getstarted-optiga-trust-m/optiga-trust-m-1/optiga/comms/ifx_i2c/ifx_i2c_presentation_layer.c ****                     if (p_ctx->prl.prl_saved_ctx.stored_context_flag == FALSE)
 506              	 .loc 1 673 0
 507 00e8 CE4B     	 ldr r3,.L177+4
 508 00ea E25C     	 ldrb r2,[r4,r3]
 509 00ec E03B     	 sub r3,r3,#224
 510 00ee E254     	 strb r2,[r4,r3]
 674://MAC/Home/Downloads/getstarted-optiga-trust-m/optiga-trust-m-1/optiga/comms/ifx_i2c/ifx_i2c_presentation_layer.c ****                     {
 511              	 .loc 1 674 0
 512 00f0 CD4B     	 ldr r3,.L177+8
 513 00f2 E35C     	 ldrb r3,[r4,r3]
 514 00f4 002B     	 cmp r3,#0
 515 00f6 11D1     	 bne .L39
 516              	.LVL52:
 517              	.L40:
 676://MAC/Home/Downloads/getstarted-optiga-trust-m/optiga-trust-m-1/optiga/comms/ifx_i2c/ifx_i2c_presentation_layer.c ****                         p_ctx->prl.negotiation_state = PRL_NEGOTIATION_NOT_DONE;
 518              	 .loc 1 676 0
 519 00f8 D823     	 mov r3,#216
 520 00fa 0222     	 mov r2,#2
 521 00fc 5B00     	 lsl r3,r3,#1
 522 00fe E254     	 strb r2,[r4,r3]
 677://MAC/Home/Downloads/getstarted-optiga-trust-m/optiga-trust-m-1/optiga/comms/ifx_i2c/ifx_i2c_presentation_layer.c ****                         p_ctx->prl.restore_context_flag = PRL_RESTORE_DONE;
 523              	 .loc 1 677 0
 524 0100 0022     	 mov r2,#0
 525 0102 0233     	 add r3,r3,#2
 526 0104 E254     	 strb r2,[r4,r3]
 678://MAC/Home/Downloads/getstarted-optiga-trust-m/optiga-trust-m-1/optiga/comms/ifx_i2c/ifx_i2c_presentation_layer.c ****                         *exit_machine = TRUE;
 527              	 .loc 1 678 0
 528 0106 0132     	 add r2,r2,#1
 529 0108 C84B     	 ldr r3,.L177+12
 530 010a A1E7     	 b .L164
 531              	.LVL53:
 532              	.L37:
 686://MAC/Home/Downloads/getstarted-optiga-trust-m/optiga-trust-m-1/optiga/comms/ifx_i2c/ifx_i2c_presentation_layer.c ****                     {
 533              	 .loc 1 686 0
 534 010c C64B     	 ldr r3,.L177+8
 535 010e E35C     	 ldrb r3,[r4,r3]
 536 0110 002B     	 cmp r3,#0
 537 0112 F1D0     	 beq .L40
 697://MAC/Home/Downloads/getstarted-optiga-trust-m/optiga-trust-m-1/optiga/comms/ifx_i2c/ifx_i2c_presentation_layer.c ****                     }
 538              	 .loc 1 697 0
 539 0114 C34B     	 ldr r3,.L177+4
 540 0116 E25C     	 ldrb r2,[r4,r3]
 541 0118 E03B     	 sub r3,r3,#224
 542 011a E254     	 strb r2,[r4,r3]
 543              	.LVL54:
 544              	.L39:
 701://MAC/Home/Downloads/getstarted-optiga-trust-m/optiga-trust-m-1/optiga/comms/ifx_i2c/ifx_i2c_presentation_layer.c ****                 optiga_common_set_uint32(&p_ctx->prl.prl_txrx_buffer[1], 
 545              	 .loc 1 701 0
 546 011c 8723     	 mov r3,#135
 547 011e 6822     	 mov r2,#104
 548 0120 9B00     	 lsl r3,r3,#2
 549 0122 E254     	 strb r2,[r4,r3]
 702://MAC/Home/Downloads/getstarted-optiga-trust-m/optiga-trust-m-1/optiga/comms/ifx_i2c/ifx_i2c_presentation_layer.c ****                                          p_ctx->prl.prl_saved_ctx.save_slave_sequence_number);
 550              	 .loc 1 702 0
 551 0124 C24B     	 ldr r3,.L177+16
 552 0126 E018     	 add r0,r4,r3
 553 0128 7B33     	 add r3,r3,#123
 554 012a E158     	 ldr r1,[r4,r3]
 555 012c FFF7FEFF 	 bl optiga_common_set_uint32
 556              	.LVL55:
 704://MAC/Home/Downloads/getstarted-optiga-trust-m/optiga-trust-m-1/optiga/comms/ifx_i2c/ifx_i2c_presentation_layer.c ****                 prl_saved_ctx.stored_context_flag = FALSE;
 557              	 .loc 1 704 0
 558 0130 0523     	 mov r3,#5
 705://MAC/Home/Downloads/getstarted-optiga-trust-m/optiga-trust-m-1/optiga/comms/ifx_i2c/ifx_i2c_presentation_layer.c ****                 p_ctx->prl.prl_receive_length = 5;
 559              	 .loc 1 705 0
 560 0132 0021     	 mov r1,#0
 704://MAC/Home/Downloads/getstarted-optiga-trust-m/optiga-trust-m-1/optiga/comms/ifx_i2c/ifx_i2c_presentation_layer.c ****                 prl_saved_ctx.stored_context_flag = FALSE;
 561              	 .loc 1 704 0
 562 0134 BA4A     	 ldr r2,.L177
 705://MAC/Home/Downloads/getstarted-optiga-trust-m/optiga-trust-m-1/optiga/comms/ifx_i2c/ifx_i2c_presentation_layer.c ****                 p_ctx->prl.prl_receive_length = 5;
 563              	 .loc 1 705 0
 564 0136 04A8     	 add r0,sp,#16
 704://MAC/Home/Downloads/getstarted-optiga-trust-m/optiga-trust-m-1/optiga/comms/ifx_i2c/ifx_i2c_presentation_layer.c ****                 prl_saved_ctx.stored_context_flag = FALSE;
 565              	 .loc 1 704 0
 566 0138 A352     	 strh r3,[r4,r2]
 705://MAC/Home/Downloads/getstarted-optiga-trust-m/optiga-trust-m-1/optiga/comms/ifx_i2c/ifx_i2c_presentation_layer.c ****                 p_ctx->prl.prl_receive_length = 5;
 567              	 .loc 1 705 0
 568 013a C43A     	 sub r2,r2,#196
 569 013c FF3A     	 sub r2,r2,#255
 570 013e 1218     	 add r2,r2,r0
 571 0140 1170     	 strb r1,[r2]
 706://MAC/Home/Downloads/getstarted-optiga-trust-m/optiga-trust-m-1/optiga/comms/ifx_i2c/ifx_i2c_presentation_layer.c ****                 p_ctx->prl.prl_saved_ctx.stored_context_flag = FALSE;
 572              	 .loc 1 706 0
 573 0142 9822     	 mov r2,#152
 574 0144 9200     	 lsl r2,r2,#2
 575 0146 A352     	 strh r3,[r4,r2]
 707://MAC/Home/Downloads/getstarted-optiga-trust-m/optiga-trust-m-1/optiga/comms/ifx_i2c/ifx_i2c_presentation_layer.c ****                 ///Clearing the saved context in data store
 576              	 .loc 1 707 0
 577 0148 B74B     	 ldr r3,.L177+8
 709://MAC/Home/Downloads/getstarted-optiga-trust-m/optiga-trust-m-1/optiga/comms/ifx_i2c/ifx_i2c_presentation_layer.c ****                 {
 578              	 .loc 1 709 0
 579 014a 6669     	 ldr r6,[r4,#20]
 707://MAC/Home/Downloads/getstarted-optiga-trust-m/optiga-trust-m-1/optiga/comms/ifx_i2c/ifx_i2c_presentation_layer.c ****                 ///Clearing the saved context in data store
 580              	 .loc 1 707 0
 581 014c E154     	 strb r1,[r4,r3]
 709://MAC/Home/Downloads/getstarted-optiga-trust-m/optiga-trust-m-1/optiga/comms/ifx_i2c/ifx_i2c_presentation_layer.c ****                 {
 582              	 .loc 1 709 0
 583 014e B388     	 ldrh r3,[r6,#4]
 584 0150 8B42     	 cmp r3,r1
 585 0152 16D0     	 beq .L35
 711://MAC/Home/Downloads/getstarted-optiga-trust-m/optiga-trust-m-1/optiga/comms/ifx_i2c/ifx_i2c_presentation_layer.c ****                     return_status = pal_os_datastore_write(p_ctx->ifx_i2c_datastore_config->datasto
 586              	 .loc 1 711 0
 587 0154 3422     	 mov r2,#52
 588 0156 1EA8     	 add r0,sp,#120
 589 0158 FFF7FEFF 	 bl memset
 590              	.LVL56:
 712://MAC/Home/Downloads/getstarted-optiga-trust-m/optiga-trust-m-1/optiga/comms/ifx_i2c/ifx_i2c_presentation_layer.c ****                                                            (uint8_t * )&prl_saved_ctx,
 591              	 .loc 1 712 0
 592 015c B088     	 ldrh r0,[r6,#4]
 593 015e 1EA9     	 add r1,sp,#120
 594 0160 3422     	 mov r2,#52
 595 0162 FFF7FEFF 	 bl pal_os_datastore_write
 596              	.LVL57:
 715://MAC/Home/Downloads/getstarted-optiga-trust-m/optiga-trust-m-1/optiga/comms/ifx_i2c/ifx_i2c_presentation_layer.c ****                     {
 597              	 .loc 1 715 0
 598 0166 0128     	 cmp r0,#1
 599 0168 0BD1     	 bne .L35
 600 016a DCE0     	 b .L82
 601              	.LVL58:
 602              	.L36:
 724://MAC/Home/Downloads/getstarted-optiga-trust-m/optiga-trust-m-1/optiga/comms/ifx_i2c/ifx_i2c_presentation_layer.c ****                 p_ctx->prl.state = PRL_STATE_ERROR;
 603              	 .loc 1 724 0
 604 016c E923     	 mov r3,#233
 605 016e FF22     	 mov r2,#255
 606 0170 5B00     	 lsl r3,r3,#1
 607 0172 E254     	 strb r2,[r4,r3]
 725://MAC/Home/Downloads/getstarted-optiga-trust-m/optiga-trust-m-1/optiga/comms/ifx_i2c/ifx_i2c_presentation_layer.c ****                 p_ctx->prl.return_status = IFX_I2C_STACK_ERROR;
 608              	 .loc 1 725 0
 609 0174 F83A     	 sub r2,r2,#248
 610 0176 223B     	 sub r3,r3,#34
 611 0178 E254     	 strb r2,[r4,r3]
 726://MAC/Home/Downloads/getstarted-optiga-trust-m/optiga-trust-m-1/optiga/comms/ifx_i2c/ifx_i2c_presentation_layer.c ****                 break;
 612              	 .loc 1 726 0
 613 017a FB32     	 add r2,r2,#251
 614 017c B433     	 add r3,r3,#180
 615 017e E252     	 strh r2,[r4,r3]
 616 0180 D1E0     	 b .L82
 617              	.LVL59:
 618              	.L35:
 729://MAC/Home/Downloads/getstarted-optiga-trust-m/optiga-trust-m-1/optiga/comms/ifx_i2c/ifx_i2c_presentation_layer.c ****                                                   p_ctx->prl.prl_txrx_buffer,
 619              	 .loc 1 729 0
 620 0182 A74B     	 ldr r3,.L177
 621 0184 201C     	 mov r0,r4
 622 0186 E25A     	 ldrh r2,[r4,r3]
 623 0188 0A33     	 add r3,r3,#10
 624 018a E318     	 add r3,r4,r3
 625 018c 0093     	 str r3,[sp]
 626 018e 8723     	 mov r3,#135
 627 0190 9B00     	 lsl r3,r3,#2
 628 0192 E318     	 add r3,r4,r3
 629 0194 191C     	 mov r1,r3
 630 0196 FFF7FEFF 	 bl ifx_i2c_tl_transceive
 631              	.LVL60:
 734://MAC/Home/Downloads/getstarted-optiga-trust-m/optiga-trust-m-1/optiga/comms/ifx_i2c/ifx_i2c_presentation_layer.c ****             {
 632              	 .loc 1 734 0
 633 019a 0028     	 cmp r0,#0
 634 019c 00D0     	 beq .LCB604
 635 019e BFE0     	 b .L33
 636              	.LCB604:
 738://MAC/Home/Downloads/getstarted-optiga-trust-m/optiga-trust-m-1/optiga/comms/ifx_i2c/ifx_i2c_presentation_layer.c ****             return_status = IFX_I2C_STACK_SUCCESS;
 637              	 .loc 1 738 0
 638 01a0 0223     	 mov r3,#2
 639 01a2 6355     	 strb r3,[r4,r5]
 640              	.LVL61:
 641 01a4 00F06EFC 	 bl .L12
 642              	.LVL62:
 643              	.L31:
 746://MAC/Home/Downloads/getstarted-optiga-trust-m/optiga-trust-m-1/optiga/comms/ifx_i2c/ifx_i2c_presentation_layer.c ****             if ((PRL_CONTEXT_RESTORED_MSG == sctr) &&
 644              	 .loc 1 746 0
 645 01a8 0322     	 mov r2,#3
 646 01aa 079B     	 ldr r3,[sp,#28]
 647 01ac 1B78     	 ldrb r3,[r3]
 648 01ae 9343     	 bic r3,r2
 649              	.LVL63:
 650 01b0 9A22     	 mov r2,#154
 651 01b2 9200     	 lsl r2,r2,#2
 652 01b4 A518     	 add r5,r4,r2
 747://MAC/Home/Downloads/getstarted-optiga-trust-m/optiga-trust-m-1/optiga/comms/ifx_i2c/ifx_i2c_presentation_layer.c ****                 (IFX_I2C_SESSION_CONTEXT_RESTORE == p_ctx->manage_context_operation) && (5 == data_
 653              	 .loc 1 747 0
 654 01b6 6C2B     	 cmp r3,#108
 655 01b8 2BD1     	 bne .L43
 748://MAC/Home/Downloads/getstarted-optiga-trust-m/optiga-trust-m-1/optiga/comms/ifx_i2c/ifx_i2c_presentation_layer.c ****             {
 656              	 .loc 1 748 0
 657 01ba 231C     	 mov r3,r4
 658              	.LVL64:
 659 01bc 3233     	 add r3,r3,#50
 747://MAC/Home/Downloads/getstarted-optiga-trust-m/optiga-trust-m-1/optiga/comms/ifx_i2c/ifx_i2c_presentation_layer.c ****                 (IFX_I2C_SESSION_CONTEXT_RESTORE == p_ctx->manage_context_operation) && (5 == data_
 660              	 .loc 1 747 0
 661 01be 1B78     	 ldrb r3,[r3]
 662 01c0 112B     	 cmp r3,#17
 663 01c2 00D0     	 beq .LCB634
 664 01c4 8CE0     	 b .L44
 665              	.LCB634:
 748://MAC/Home/Downloads/getstarted-optiga-trust-m/optiga-trust-m-1/optiga/comms/ifx_i2c/ifx_i2c_presentation_layer.c ****             {
 666              	 .loc 1 748 0
 667 01c6 089B     	 ldr r3,[sp,#32]
 668 01c8 052B     	 cmp r3,#5
 669 01ca 00D0     	 beq .LCB637
 670 01cc 88E0     	 b .L44
 671              	.LCB637:
 751://MAC/Home/Downloads/getstarted-optiga-trust-m/optiga-trust-m-1/optiga/comms/ifx_i2c/ifx_i2c_presentation_layer.c ****                 p_ctx->prl.restore_context_flag = PRL_RESTORE_DONE;
 672              	 .loc 1 751 0
 673 01ce 201C     	 mov r0,r4
 674 01d0 D530     	 add r0,r0,#213
 675 01d2 2822     	 mov r2,#40
 676 01d4 FF30     	 add r0,r0,#255
 677 01d6 291C     	 mov r1,r5
 678 01d8 FFF7FEFF 	 bl memcpy
 679              	.LVL65:
 680 01dc A523     	 mov r3,#165
 681 01de 9B00     	 lsl r3,r3,#2
 682 01e0 E258     	 ldr r2,[r4,r3]
 683 01e2 E03B     	 sub r3,r3,#224
 684 01e4 E250     	 str r2,[r4,r3]
 685 01e6 E433     	 add r3,r3,#228
 686 01e8 E258     	 ldr r2,[r4,r3]
 687 01ea DC3B     	 sub r3,r3,#220
 688 01ec E250     	 str r2,[r4,r3]
 689 01ee D433     	 add r3,r3,#212
 690 01f0 E25C     	 ldrb r2,[r4,r3]
 691 01f2 904B     	 ldr r3,.L177+20
 692 01f4 E254     	 strb r2,[r4,r3]
 693 01f6 904B     	 ldr r3,.L177+24
 694 01f8 E25C     	 ldrb r2,[r4,r3]
 695 01fa 904B     	 ldr r3,.L177+28
 696 01fc E254     	 strb r2,[r4,r3]
 697 01fe 894B     	 ldr r3,.L177+4
 698 0200 E25C     	 ldrb r2,[r4,r3]
 699 0202 E03B     	 sub r3,r3,#224
 700 0204 E254     	 strb r2,[r4,r3]
 752://MAC/Home/Downloads/getstarted-optiga-trust-m/optiga-trust-m-1/optiga/comms/ifx_i2c/ifx_i2c_presentation_layer.c ****                 p_ctx->prl.state = PRL_STATE_TXRX;
 701              	 .loc 1 752 0
 702 0206 0122     	 mov r2,#1
 703 0208 884B     	 ldr r3,.L177+12
 704 020a E254     	 strb r2,[r4,r3]
 753://MAC/Home/Downloads/getstarted-optiga-trust-m/optiga-trust-m-1/optiga/comms/ifx_i2c/ifx_i2c_presentation_layer.c ****             }
 705              	 .loc 1 753 0
 706 020c 0332     	 add r2,r2,#3
 707 020e B63B     	 sub r3,r3,#182
 708 0210 61E0     	 b .L168
 709              	.LVL66:
 710              	.L43:
 755://MAC/Home/Downloads/getstarted-optiga-trust-m/optiga-trust-m-1/optiga/comms/ifx_i2c/ifx_i2c_presentation_layer.c ****                      (IFX_I2C_SESSION_CONTEXT_SAVE == p_ctx->manage_context_operation) && (1 == dat
 711              	 .loc 1 755 0
 712 0212 642B     	 cmp r3,#100
 713 0214 64D1     	 bne .L44
 756://MAC/Home/Downloads/getstarted-optiga-trust-m/optiga-trust-m-1/optiga/comms/ifx_i2c/ifx_i2c_presentation_layer.c ****             {
 714              	 .loc 1 756 0
 715 0216 231C     	 mov r3,r4
 716              	.LVL67:
 717 0218 3233     	 add r3,r3,#50
 755://MAC/Home/Downloads/getstarted-optiga-trust-m/optiga-trust-m-1/optiga/comms/ifx_i2c/ifx_i2c_presentation_layer.c ****                      (IFX_I2C_SESSION_CONTEXT_SAVE == p_ctx->manage_context_operation) && (1 == dat
 718              	 .loc 1 755 0
 719 021a 1B78     	 ldrb r3,[r3]
 720 021c 222B     	 cmp r3,#34
 721 021e 5FD1     	 bne .L44
 756://MAC/Home/Downloads/getstarted-optiga-trust-m/optiga-trust-m-1/optiga/comms/ifx_i2c/ifx_i2c_presentation_layer.c ****             {
 722              	 .loc 1 756 0
 723 0220 089B     	 ldr r3,[sp,#32]
 724 0222 012B     	 cmp r3,#1
 725 0224 5CD1     	 bne .L44
 758://MAC/Home/Downloads/getstarted-optiga-trust-m/optiga-trust-m-1/optiga/comms/ifx_i2c/ifx_i2c_presentation_layer.c ****                 COPY_MANAGE_CONTEXT_DATA(p_ctx->prl, p_ctx->prl.prl_saved_ctx);
 726              	 .loc 1 758 0
 727 0226 2021     	 mov r1,#32
 728 0228 6A46     	 mov r2,sp
 759://MAC/Home/Downloads/getstarted-optiga-trust-m/optiga-trust-m-1/optiga/comms/ifx_i2c/ifx_i2c_presentation_layer.c ****                 
 729              	 .loc 1 759 0
 730 022a 261C     	 mov r6,r4
 758://MAC/Home/Downloads/getstarted-optiga-trust-m/optiga-trust-m-1/optiga/comms/ifx_i2c/ifx_i2c_presentation_layer.c ****                 COPY_MANAGE_CONTEXT_DATA(p_ctx->prl, p_ctx->prl.prl_saved_ctx);
 731              	 .loc 1 758 0
 732 022c 5218     	 add r2,r2,r1
 733 022e 7E4B     	 ldr r3,.L177+8
 734 0230 1278     	 ldrb r2,[r2]
 759://MAC/Home/Downloads/getstarted-optiga-trust-m/optiga-trust-m-1/optiga/comms/ifx_i2c/ifx_i2c_presentation_layer.c ****                 
 735              	 .loc 1 759 0
 736 0232 D536     	 add r6,r6,#213
 737 0234 FF36     	 add r6,r6,#255
 758://MAC/Home/Downloads/getstarted-optiga-trust-m/optiga-trust-m-1/optiga/comms/ifx_i2c/ifx_i2c_presentation_layer.c ****                 COPY_MANAGE_CONTEXT_DATA(p_ctx->prl, p_ctx->prl.prl_saved_ctx);
 738              	 .loc 1 758 0
 739 0236 E254     	 strb r2,[r4,r3]
 740              	.LVL68:
 759://MAC/Home/Downloads/getstarted-optiga-trust-m/optiga-trust-m-1/optiga/comms/ifx_i2c/ifx_i2c_presentation_layer.c ****                 
 741              	 .loc 1 759 0
 742 0238 281C     	 mov r0,r5
 743 023a 2822     	 mov r2,#40
 744 023c 311C     	 mov r1,r6
 745 023e FFF7FEFF 	 bl memcpy
 746              	.LVL69:
 747 0242 DA23     	 mov r3,#218
 748 0244 D927     	 mov r7,#217
 749 0246 5B00     	 lsl r3,r3,#1
 750 0248 E258     	 ldr r2,[r4,r3]
 751 024a E033     	 add r3,r3,#224
 752 024c E250     	 str r2,[r4,r3]
 753 024e D83B     	 sub r3,r3,#216
 754 0250 E258     	 ldr r2,[r4,r3]
 755 0252 DC33     	 add r3,r3,#220
 756 0254 E250     	 str r2,[r4,r3]
 757 0256 774B     	 ldr r3,.L177+20
 758 0258 7F00     	 lsl r7,r7,#1
 759 025a E25C     	 ldrb r2,[r4,r3]
 760 025c 2E33     	 add r3,r3,#46
 761 025e E254     	 strb r2,[r4,r3]
 762 0260 764B     	 ldr r3,.L177+28
 763 0262 E25C     	 ldrb r2,[r4,r3]
 764 0264 744B     	 ldr r3,.L177+24
 765 0266 E254     	 strb r2,[r4,r3]
 766 0268 E25D     	 ldrb r2,[r4,r7]
 767 026a 6E4B     	 ldr r3,.L177+4
 768 026c E254     	 strb r2,[r4,r3]
 761://MAC/Home/Downloads/getstarted-optiga-trust-m/optiga-trust-m-1/optiga/comms/ifx_i2c/ifx_i2c_presentation_layer.c ****                 {
 769              	 .loc 1 761 0
 770 026e 6369     	 ldr r3,[r4,#20]
 771 0270 9888     	 ldrh r0,[r3,#4]
 772 0272 0028     	 cmp r0,#0
 773 0274 19D0     	 beq .L46
 764://MAC/Home/Downloads/getstarted-optiga-trust-m/optiga-trust-m-1/optiga/comms/ifx_i2c/ifx_i2c_presentation_layer.c ****                     return_status = pal_os_datastore_write(p_ctx->ifx_i2c_datastore_config->datasto
 774              	 .loc 1 764 0
 775 0276 9823     	 mov r3,#152
 776 0278 3422     	 mov r2,#52
 777 027a 9B00     	 lsl r3,r3,#2
 778 027c E252     	 strh r2,[r4,r3]
 765://MAC/Home/Downloads/getstarted-optiga-trust-m/optiga-trust-m-1/optiga/comms/ifx_i2c/ifx_i2c_presentation_layer.c ****                                                            (uint8_t * )&p_ctx->prl.prl_saved_ctx,
 779              	 .loc 1 765 0
 780 027e 291C     	 mov r1,r5
 781 0280 FFF7FEFF 	 bl pal_os_datastore_write
 782              	.LVL70:
 768://MAC/Home/Downloads/getstarted-optiga-trust-m/optiga-trust-m-1/optiga/comms/ifx_i2c/ifx_i2c_presentation_layer.c ****                     {
 783              	 .loc 1 768 0
 784 0284 0028     	 cmp r0,#0
 785 0286 10D0     	 beq .L46
 770://MAC/Home/Downloads/getstarted-optiga-trust-m/optiga-trust-m-1/optiga/comms/ifx_i2c/ifx_i2c_presentation_layer.c ****                         break;
 786              	 .loc 1 770 0
 787 0288 E923     	 mov r3,#233
 788 028a FF22     	 mov r2,#255
 789 028c 5B00     	 lsl r3,r3,#1
 790 028e E254     	 strb r2,[r4,r3]
 791 0290 F83A     	 sub r2,r2,#248
 792 0292 223B     	 sub r3,r3,#34
 793 0294 E254     	 strb r2,[r4,r3]
 794 0296 8421     	 mov r1,#132
 795 0298 9922     	 mov r2,#153
 796 029a 0023     	 mov r3,#0
 797 029c 9200     	 lsl r2,r2,#2
 798 029e 4900     	 lsl r1,r1,#1
 799 02a0 E355     	 strb r3,[r4,r7]
 800 02a2 A152     	 strh r1,[r4,r2]
 801 02a4 3C32     	 add r2,r2,#60
 802 02a6 A354     	 strb r3,[r4,r2]
 803 02a8 3AE0     	 b .L33
 804              	.LVL71:
 805              	.L46:
 775://MAC/Home/Downloads/getstarted-optiga-trust-m/optiga-trust-m-1/optiga/comms/ifx_i2c/ifx_i2c_presentation_layer.c ****                 p_ctx->prl.state = PRL_STATE_IDLE;
 806              	 .loc 1 775 0
 807 02aa 2822     	 mov r2,#40
 808 02ac 301C     	 mov r0,r6
 809 02ae 0021     	 mov r1,#0
 810 02b0 FFF7FEFF 	 bl memset
 811              	.LVL72:
 812 02b4 DA22     	 mov r2,#218
 813 02b6 0023     	 mov r3,#0
 814 02b8 5200     	 lsl r2,r2,#1
 815 02ba A350     	 str r3,[r4,r2]
 816 02bc 0432     	 add r2,r2,#4
 817 02be A350     	 str r3,[r4,r2]
 818 02c0 0432     	 add r2,r2,#4
 819 02c2 A350     	 str r3,[r4,r2]
 820 02c4 5B4A     	 ldr r2,.L177+20
 821 02c6 A354     	 strb r3,[r4,r2]
 822 02c8 5C4A     	 ldr r2,.L177+28
 823 02ca A354     	 strb r3,[r4,r2]
 824 02cc 3D32     	 add r2,r2,#61
 825 02ce A354     	 strb r3,[r4,r2]
 826 02d0 0122     	 mov r2,#1
 827 02d2 B133     	 add r3,r3,#177
 828 02d4 FF33     	 add r3,r3,#255
 829              	.L168:
 830 02d6 E254     	 strb r2,[r4,r3]
 790://MAC/Home/Downloads/getstarted-optiga-trust-m/optiga-trust-m-1/optiga/comms/ifx_i2c/ifx_i2c_presentation_layer.c ****             return_status = IFX_I2C_STACK_SUCCESS;
 831              	 .loc 1 790 0
 832 02d8 9923     	 mov r3,#153
 833 02da 0022     	 mov r2,#0
 834 02dc 9B00     	 lsl r3,r3,#2
 835 02de 85E0     	 b .L167
 836              	.LVL73:
 837              	.L44:
 780://MAC/Home/Downloads/getstarted-optiga-trust-m/optiga-trust-m-1/optiga/comms/ifx_i2c/ifx_i2c_presentation_layer.c ****                 if (OPTIGA_LIB_PAL_DATA_STORE_NOT_CONFIGURED != p_ctx->ifx_i2c_datastore_config->da
 838              	 .loc 1 780 0
 839 02e0 281C     	 mov r0,r5
 840 02e2 0021     	 mov r1,#0
 841 02e4 3422     	 mov r2,#52
 842 02e6 FFF7FEFF 	 bl memset
 843              	.LVL74:
 781://MAC/Home/Downloads/getstarted-optiga-trust-m/optiga-trust-m-1/optiga/comms/ifx_i2c/ifx_i2c_presentation_layer.c ****                 {
 844              	 .loc 1 781 0
 845 02ea 6369     	 ldr r3,[r4,#20]
 846 02ec 9888     	 ldrh r0,[r3,#4]
 847 02ee 0028     	 cmp r0,#0
 848 02f0 19D0     	 beq .L82
 783://MAC/Home/Downloads/getstarted-optiga-trust-m/optiga-trust-m-1/optiga/comms/ifx_i2c/ifx_i2c_presentation_layer.c ****                                                            (uint8_t * )&p_ctx->prl.prl_saved_ctx,
 849              	 .loc 1 783 0
 850 02f2 291C     	 mov r1,r5
 851 02f4 3422     	 mov r2,#52
 852 02f6 FFF7FEFF 	 bl pal_os_datastore_write
 853              	.LVL75:
 854 02fa 14E0     	 b .L82
 855              	.LVL76:
 856              	.L176:
 796://MAC/Home/Downloads/getstarted-optiga-trust-m/optiga-trust-m-1/optiga/comms/ifx_i2c/ifx_i2c_presentation_layer.c ****         }
 857              	 .loc 1 796 0
 858 02fc E923     	 mov r3,#233
 859 02fe FF22     	 mov r2,#255
 860 0300 5B00     	 lsl r3,r3,#1
 861 0302 E254     	 strb r2,[r4,r3]
 862 0304 F83A     	 sub r2,r2,#248
 863 0306 223B     	 sub r3,r3,#34
 864 0308 E254     	 strb r2,[r4,r3]
 865 030a 8421     	 mov r1,#132
 866 030c 0023     	 mov r3,#0
 867 030e AC32     	 add r2,r2,#172
 868 0310 FF32     	 add r2,r2,#255
 869 0312 A354     	 strb r3,[r4,r2]
 870 0314 4900     	 lsl r1,r1,#1
 871 0316 B232     	 add r2,r2,#178
 872 0318 A152     	 strh r1,[r4,r2]
 873 031a 3C32     	 add r2,r2,#60
 874 031c A354     	 strb r3,[r4,r2]
 875 031e 02E0     	 b .L82
 876              	.LVL77:
 877              	.L33:
 878              	.LBE29:
 879              	.LBE28:
 842://MAC/Home/Downloads/getstarted-optiga-trust-m/optiga-trust-m-1/optiga/comms/ifx_i2c/ifx_i2c_presentation_layer.c ****                 exit_machine = FALSE;
 843://MAC/Home/Downloads/getstarted-optiga-trust-m/optiga-trust-m-1/optiga/comms/ifx_i2c/ifx_i2c_presentation_layer.c ****             }
 844://MAC/Home/Downloads/getstarted-optiga-trust-m/optiga-trust-m-1/optiga/comms/ifx_i2c/ifx_i2c_presentation_layer.c ****             break;
 845://MAC/Home/Downloads/getstarted-optiga-trust-m/optiga-trust-m-1/optiga/comms/ifx_i2c/ifx_i2c_presentation_layer.c ****             case PRL_STATE_MANAGE_CONTEXT:
 846://MAC/Home/Downloads/getstarted-optiga-trust-m/optiga-trust-m-1/optiga/comms/ifx_i2c/ifx_i2c_presentation_layer.c ****             {
 847://MAC/Home/Downloads/getstarted-optiga-trust-m/optiga-trust-m-1/optiga/comms/ifx_i2c/ifx_i2c_presentation_layer.c ****                 LOG_PRL("[IFX-PRL]: PRL_STATE_MANAGE_CONTEXT \n");
 848://MAC/Home/Downloads/getstarted-optiga-trust-m/optiga-trust-m-1/optiga/comms/ifx_i2c/ifx_i2c_presentation_layer.c ****                 return_status = ifx_i2c_prl_do_manage_context(p_ctx, p_data,data_len,&exit_machine)
 849://MAC/Home/Downloads/getstarted-optiga-trust-m/optiga-trust-m-1/optiga/comms/ifx_i2c/ifx_i2c_presentation_layer.c ****                 if (IFX_I2C_STACK_SUCCESS != return_status)
 880              	 .loc 1 849 0
 881 0320 0028     	 cmp r0,#0
 882 0322 00D1     	 bne .LCB857
 883 0324 95E6     	 b .L17
 884              	.LCB857:
 885              	.LVL78:
 886              	.L82:
 850://MAC/Home/Downloads/getstarted-optiga-trust-m/optiga-trust-m-1/optiga/comms/ifx_i2c/ifx_i2c_presentation_layer.c ****                 {
 851://MAC/Home/Downloads/getstarted-optiga-trust-m/optiga-trust-m-1/optiga/comms/ifx_i2c/ifx_i2c_presentation_layer.c ****                   ERROR_STATE_PREPARATION(p_ctx,exit_machine);
 887              	 .loc 1 851 0
 888 0326 E923     	 mov r3,#233
 889 0328 FF22     	 mov r2,#255
 890 032a 5B00     	 lsl r3,r3,#1
 891 032c E254     	 strb r2,[r4,r3]
 892 032e F83A     	 sub r2,r2,#248
 893 0330 223B     	 sub r3,r3,#34
 894 0332 E254     	 strb r2,[r4,r3]
 895 0334 8421     	 mov r1,#132
 896 0336 0023     	 mov r3,#0
 897 0338 AC32     	 add r2,r2,#172
 898 033a FF32     	 add r2,r2,#255
 899 033c A354     	 strb r3,[r4,r2]
 900 033e 4900     	 lsl r1,r1,#1
 901 0340 B232     	 add r2,r2,#178
 902 0342 A152     	 strh r1,[r4,r2]
 903 0344 3C32     	 add r2,r2,#60
 904 0346 40E3     	 b .L165
 905              	.LVL79:
 906              	.L21:
 852://MAC/Home/Downloads/getstarted-optiga-trust-m/optiga-trust-m-1/optiga/comms/ifx_i2c/ifx_i2c_presentation_layer.c ****                 }
 853://MAC/Home/Downloads/getstarted-optiga-trust-m/optiga-trust-m-1/optiga/comms/ifx_i2c/ifx_i2c_presentation_layer.c ****             }
 854://MAC/Home/Downloads/getstarted-optiga-trust-m/optiga-trust-m-1/optiga/comms/ifx_i2c/ifx_i2c_presentation_layer.c ****             break;
 855://MAC/Home/Downloads/getstarted-optiga-trust-m/optiga-trust-m-1/optiga/comms/ifx_i2c/ifx_i2c_presentation_layer.c ****             case PRL_STATE_START:
 856://MAC/Home/Downloads/getstarted-optiga-trust-m/optiga-trust-m-1/optiga/comms/ifx_i2c/ifx_i2c_presentation_layer.c ****             {
 857://MAC/Home/Downloads/getstarted-optiga-trust-m/optiga-trust-m-1/optiga/comms/ifx_i2c/ifx_i2c_presentation_layer.c ****                 if (((p_ctx->protection_level & RE_ESTABLISH) ||
 907              	 .loc 1 857 0
 908 0348 231C     	 mov r3,r4
 909 034a 3033     	 add r3,r3,#48
 910 034c 1B78     	 ldrb r3,[r3]
 911 034e 5AB2     	 sxtb r2,r3
 912 0350 002A     	 cmp r2,#0
 913 0352 06DB     	 blt .L49
 914              	 .loc 1 857 0 is_stmt 0 discriminator 1
 915 0354 002B     	 cmp r3,#0
 916 0356 15D0     	 beq .L50
 858://MAC/Home/Downloads/getstarted-optiga-trust-m/optiga-trust-m-1/optiga/comms/ifx_i2c/ifx_i2c_presentation_layer.c ****                     ((p_ctx->protection_level != NO_PROTECTION ) &&
 859://MAC/Home/Downloads/getstarted-optiga-trust-m/optiga-trust-m-1/optiga/comms/ifx_i2c/ifx_i2c_presentation_layer.c ****                     (PRL_NEGOTIATION_NOT_DONE == p_ctx->prl.negotiation_state))))
 917              	 .loc 1 859 0 is_stmt 1
 918 0358 D923     	 mov r3,#217
 919 035a 5B00     	 lsl r3,r3,#1
 858://MAC/Home/Downloads/getstarted-optiga-trust-m/optiga-trust-m-1/optiga/comms/ifx_i2c/ifx_i2c_presentation_layer.c ****                     ((p_ctx->protection_level != NO_PROTECTION ) &&
 920              	 .loc 1 858 0
 921 035c E35C     	 ldrb r3,[r4,r3]
 922 035e 002B     	 cmp r3,#0
 923 0360 10D1     	 bne .L50
 924              	.L49:
 860://MAC/Home/Downloads/getstarted-optiga-trust-m/optiga-trust-m-1/optiga/comms/ifx_i2c/ifx_i2c_presentation_layer.c ****                 {
 861://MAC/Home/Downloads/getstarted-optiga-trust-m/optiga-trust-m-1/optiga/comms/ifx_i2c/ifx_i2c_presentation_layer.c ****                     p_ctx->prl.state =  PRL_STATE_HANDSHAKE;
 925              	 .loc 1 861 0
 926 0362 D823     	 mov r3,#216
 927 0364 0522     	 mov r2,#5
 928 0366 5B00     	 lsl r3,r3,#1
 929 0368 E254     	 strb r2,[r4,r3]
 862://MAC/Home/Downloads/getstarted-optiga-trust-m/optiga-trust-m-1/optiga/comms/ifx_i2c/ifx_i2c_presentation_layer.c ****                     p_ctx->prl.hs_state = PRL_HS_SEND_HELLO;
 930              	 .loc 1 862 0
 931 036a B223     	 mov r3,#178
 932 036c 0C32     	 add r2,r2,#12
 933 036e FF33     	 add r3,r3,#255
 934 0370 E254     	 strb r2,[r4,r3]
 863://MAC/Home/Downloads/getstarted-optiga-trust-m/optiga-trust-m-1/optiga/comms/ifx_i2c/ifx_i2c_presentation_layer.c ****                     p_ctx->prl.negotiation_state = PRL_NEGOTIATION_NOT_DONE;
 935              	 .loc 1 863 0
 936 0372 0022     	 mov r2,#0
 937 0374 0133     	 add r3,r3,#1
 938 0376 6BE6     	 b .L164
 939              	.L75:
 864://MAC/Home/Downloads/getstarted-optiga-trust-m/optiga-trust-m-1/optiga/comms/ifx_i2c/ifx_i2c_presentation_layer.c ****                 }
 865://MAC/Home/Downloads/getstarted-optiga-trust-m/optiga-trust-m-1/optiga/comms/ifx_i2c/ifx_i2c_presentation_layer.c ****                 else
 866://MAC/Home/Downloads/getstarted-optiga-trust-m/optiga-trust-m-1/optiga/comms/ifx_i2c/ifx_i2c_presentation_layer.c ****                 {
 867://MAC/Home/Downloads/getstarted-optiga-trust-m/optiga-trust-m-1/optiga/comms/ifx_i2c/ifx_i2c_presentation_layer.c ****                     p_ctx->prl.state =  PRL_STATE_TXRX;
 868://MAC/Home/Downloads/getstarted-optiga-trust-m/optiga-trust-m-1/optiga/comms/ifx_i2c/ifx_i2c_presentation_layer.c ****                 }
 869://MAC/Home/Downloads/getstarted-optiga-trust-m/optiga-trust-m-1/optiga/comms/ifx_i2c/ifx_i2c_presentation_layer.c ****             }
 870://MAC/Home/Downloads/getstarted-optiga-trust-m/optiga-trust-m-1/optiga/comms/ifx_i2c/ifx_i2c_presentation_layer.c ****             break;
 871://MAC/Home/Downloads/getstarted-optiga-trust-m/optiga-trust-m-1/optiga/comms/ifx_i2c/ifx_i2c_presentation_layer.c ****             case PRL_STATE_HANDSHAKE:
 872://MAC/Home/Downloads/getstarted-optiga-trust-m/optiga-trust-m-1/optiga/comms/ifx_i2c/ifx_i2c_presentation_layer.c ****             {
 873://MAC/Home/Downloads/getstarted-optiga-trust-m/optiga-trust-m-1/optiga/comms/ifx_i2c/ifx_i2c_presentation_layer.c ****                 ///Clearing the saved context in data store
 874://MAC/Home/Downloads/getstarted-optiga-trust-m/optiga-trust-m-1/optiga/comms/ifx_i2c/ifx_i2c_presentation_layer.c ****                 CLEAR_SAVED_SESSION_CONTEXT(p_ctx->prl.prl_saved_ctx);
 875://MAC/Home/Downloads/getstarted-optiga-trust-m/optiga-trust-m-1/optiga/comms/ifx_i2c/ifx_i2c_presentation_layer.c ****                 memset((uint8_t * )&prl_saved_ctx,0,sizeof(prl_saved_ctx));
 876://MAC/Home/Downloads/getstarted-optiga-trust-m/optiga-trust-m-1/optiga/comms/ifx_i2c/ifx_i2c_presentation_layer.c ****                 if (OPTIGA_LIB_PAL_DATA_STORE_NOT_CONFIGURED != p_ctx->ifx_i2c_datastore_config->da
 877://MAC/Home/Downloads/getstarted-optiga-trust-m/optiga-trust-m-1/optiga/comms/ifx_i2c/ifx_i2c_presentation_layer.c ****                 {
 878://MAC/Home/Downloads/getstarted-optiga-trust-m/optiga-trust-m-1/optiga/comms/ifx_i2c/ifx_i2c_presentation_layer.c ****                     return_status = pal_os_datastore_write(p_ctx->ifx_i2c_datastore_config->datasto
 879://MAC/Home/Downloads/getstarted-optiga-trust-m/optiga-trust-m-1/optiga/comms/ifx_i2c/ifx_i2c_presentation_layer.c ****                                                            (uint8_t * )&prl_saved_ctx,
 880://MAC/Home/Downloads/getstarted-optiga-trust-m/optiga-trust-m-1/optiga/comms/ifx_i2c/ifx_i2c_presentation_layer.c ****                                                            sizeof(prl_saved_ctx));
 881://MAC/Home/Downloads/getstarted-optiga-trust-m/optiga-trust-m-1/optiga/comms/ifx_i2c/ifx_i2c_presentation_layer.c ****                     if (PAL_STATUS_SUCCESS != return_status)
 882://MAC/Home/Downloads/getstarted-optiga-trust-m/optiga-trust-m-1/optiga/comms/ifx_i2c/ifx_i2c_presentation_layer.c ****                     {
 883://MAC/Home/Downloads/getstarted-optiga-trust-m/optiga-trust-m-1/optiga/comms/ifx_i2c/ifx_i2c_presentation_layer.c ****                         ERROR_STATE_PREPARATION(p_ctx,exit_machine);
 884://MAC/Home/Downloads/getstarted-optiga-trust-m/optiga-trust-m-1/optiga/comms/ifx_i2c/ifx_i2c_presentation_layer.c ****                         p_ctx->prl.return_status = IFX_I2C_HANDSHAKE_ERROR;
 885://MAC/Home/Downloads/getstarted-optiga-trust-m/optiga-trust-m-1/optiga/comms/ifx_i2c/ifx_i2c_presentation_layer.c ****                         break;
 886://MAC/Home/Downloads/getstarted-optiga-trust-m/optiga-trust-m-1/optiga/comms/ifx_i2c/ifx_i2c_presentation_layer.c ****                     }
 887://MAC/Home/Downloads/getstarted-optiga-trust-m/optiga-trust-m-1/optiga/comms/ifx_i2c/ifx_i2c_presentation_layer.c ****                 }
 888://MAC/Home/Downloads/getstarted-optiga-trust-m/optiga-trust-m-1/optiga/comms/ifx_i2c/ifx_i2c_presentation_layer.c ****                 return_status = ifx_i2c_prl_do_handshake(p_ctx,p_data);
 889://MAC/Home/Downloads/getstarted-optiga-trust-m/optiga-trust-m-1/optiga/comms/ifx_i2c/ifx_i2c_presentation_layer.c ****                 if (IFX_I2C_HANDSHAKE_ERROR == return_status)
 890://MAC/Home/Downloads/getstarted-optiga-trust-m/optiga-trust-m-1/optiga/comms/ifx_i2c/ifx_i2c_presentation_layer.c ****                 {
 891://MAC/Home/Downloads/getstarted-optiga-trust-m/optiga-trust-m-1/optiga/comms/ifx_i2c/ifx_i2c_presentation_layer.c ****                     p_ctx->prl.return_status = return_status;
 892://MAC/Home/Downloads/getstarted-optiga-trust-m/optiga-trust-m-1/optiga/comms/ifx_i2c/ifx_i2c_presentation_layer.c ****                     p_ctx->prl.state = PRL_STATE_ERROR;
 893://MAC/Home/Downloads/getstarted-optiga-trust-m/optiga-trust-m-1/optiga/comms/ifx_i2c/ifx_i2c_presentation_layer.c ****                     break;
 894://MAC/Home/Downloads/getstarted-optiga-trust-m/optiga-trust-m-1/optiga/comms/ifx_i2c/ifx_i2c_presentation_layer.c ****                 }
 895://MAC/Home/Downloads/getstarted-optiga-trust-m/optiga-trust-m-1/optiga/comms/ifx_i2c/ifx_i2c_presentation_layer.c **** 
 896://MAC/Home/Downloads/getstarted-optiga-trust-m/optiga-trust-m-1/optiga/comms/ifx_i2c/ifx_i2c_presentation_layer.c ****                 if (PRL_NEGOTIATION_DONE == p_ctx->prl.negotiation_state)
 940              	 .loc 1 896 0
 941 0378 D923     	 mov r3,#217
 942 037a 5B00     	 lsl r3,r3,#1
 943 037c E35C     	 ldrb r3,[r4,r3]
 944 037e 012B     	 cmp r3,#1
 945 0380 00D0     	 beq .LCB921
 946 0382 7FE3     	 b .L12
 947              	.LCB921:
 948              	.L50:
 867://MAC/Home/Downloads/getstarted-optiga-trust-m/optiga-trust-m-1/optiga/comms/ifx_i2c/ifx_i2c_presentation_layer.c ****                 }
 949              	 .loc 1 867 0
 950 0384 0422     	 mov r2,#4
 951 0386 61E6     	 b .L166
 952              	.L24:
 874://MAC/Home/Downloads/getstarted-optiga-trust-m/optiga-trust-m-1/optiga/comms/ifx_i2c/ifx_i2c_presentation_layer.c ****                 memset((uint8_t * )&prl_saved_ctx,0,sizeof(prl_saved_ctx));
 953              	 .loc 1 874 0
 954 0388 9A23     	 mov r3,#154
 955 038a 9B00     	 lsl r3,r3,#2
 956 038c E018     	 add r0,r4,r3
 957 038e 0021     	 mov r1,#0
 958 0390 2822     	 mov r2,#40
 959 0392 FFF7FEFF 	 bl memset
 960              	.LVL80:
 961 0396 A523     	 mov r3,#165
 962 0398 0025     	 mov r5,#0
 963 039a 9B00     	 lsl r3,r3,#2
 964 039c E550     	 str r5,[r4,r3]
 965 039e 214B     	 ldr r3,.L177+4
 875://MAC/Home/Downloads/getstarted-optiga-trust-m/optiga-trust-m-1/optiga/comms/ifx_i2c/ifx_i2c_presentation_layer.c ****                 if (OPTIGA_LIB_PAL_DATA_STORE_NOT_CONFIGURED != p_ctx->ifx_i2c_datastore_config->da
 966              	 .loc 1 875 0
 967 03a0 11A8     	 add r0,sp,#68
 874://MAC/Home/Downloads/getstarted-optiga-trust-m/optiga-trust-m-1/optiga/comms/ifx_i2c/ifx_i2c_presentation_layer.c ****                 memset((uint8_t * )&prl_saved_ctx,0,sizeof(prl_saved_ctx));
 968              	 .loc 1 874 0
 969 03a2 E554     	 strb r5,[r4,r3]
 970 03a4 0633     	 add r3,r3,#6
 971 03a6 E550     	 str r5,[r4,r3]
 972 03a8 083B     	 sub r3,r3,#8
 973 03aa E554     	 strb r5,[r4,r3]
 974 03ac 224B     	 ldr r3,.L177+24
 875://MAC/Home/Downloads/getstarted-optiga-trust-m/optiga-trust-m-1/optiga/comms/ifx_i2c/ifx_i2c_presentation_layer.c ****                 if (OPTIGA_LIB_PAL_DATA_STORE_NOT_CONFIGURED != p_ctx->ifx_i2c_datastore_config->da
 975              	 .loc 1 875 0
 976 03ae 291C     	 mov r1,r5
 874://MAC/Home/Downloads/getstarted-optiga-trust-m/optiga-trust-m-1/optiga/comms/ifx_i2c/ifx_i2c_presentation_layer.c ****                 memset((uint8_t * )&prl_saved_ctx,0,sizeof(prl_saved_ctx));
 977              	 .loc 1 874 0
 978 03b0 E554     	 strb r5,[r4,r3]
 979 03b2 1D4B     	 ldr r3,.L177+8
 875://MAC/Home/Downloads/getstarted-optiga-trust-m/optiga-trust-m-1/optiga/comms/ifx_i2c/ifx_i2c_presentation_layer.c ****                 if (OPTIGA_LIB_PAL_DATA_STORE_NOT_CONFIGURED != p_ctx->ifx_i2c_datastore_config->da
 980              	 .loc 1 875 0
 981 03b4 3422     	 mov r2,#52
 874://MAC/Home/Downloads/getstarted-optiga-trust-m/optiga-trust-m-1/optiga/comms/ifx_i2c/ifx_i2c_presentation_layer.c ****                 memset((uint8_t * )&prl_saved_ctx,0,sizeof(prl_saved_ctx));
 982              	 .loc 1 874 0
 983 03b6 E554     	 strb r5,[r4,r3]
 875://MAC/Home/Downloads/getstarted-optiga-trust-m/optiga-trust-m-1/optiga/comms/ifx_i2c/ifx_i2c_presentation_layer.c ****                 if (OPTIGA_LIB_PAL_DATA_STORE_NOT_CONFIGURED != p_ctx->ifx_i2c_datastore_config->da
 984              	 .loc 1 875 0
 985 03b8 FFF7FEFF 	 bl memset
 986              	.LVL81:
 876://MAC/Home/Downloads/getstarted-optiga-trust-m/optiga-trust-m-1/optiga/comms/ifx_i2c/ifx_i2c_presentation_layer.c ****                 {
 987              	 .loc 1 876 0
 988 03bc 6369     	 ldr r3,[r4,#20]
 989 03be 9888     	 ldrh r0,[r3,#4]
 990 03c0 A842     	 cmp r0,r5
 991 03c2 15D0     	 beq .L51
 878://MAC/Home/Downloads/getstarted-optiga-trust-m/optiga-trust-m-1/optiga/comms/ifx_i2c/ifx_i2c_presentation_layer.c ****                                                            (uint8_t * )&prl_saved_ctx,
 992              	 .loc 1 878 0
 993 03c4 11A9     	 add r1,sp,#68
 994 03c6 3422     	 mov r2,#52
 995 03c8 FFF7FEFF 	 bl pal_os_datastore_write
 996              	.LVL82:
 881://MAC/Home/Downloads/getstarted-optiga-trust-m/optiga-trust-m-1/optiga/comms/ifx_i2c/ifx_i2c_presentation_layer.c ****                     {
 997              	 .loc 1 881 0
 998 03cc A842     	 cmp r0,r5
 999 03ce 0FD0     	 beq .L51
 883://MAC/Home/Downloads/getstarted-optiga-trust-m/optiga-trust-m-1/optiga/comms/ifx_i2c/ifx_i2c_presentation_layer.c ****                         p_ctx->prl.return_status = IFX_I2C_HANDSHAKE_ERROR;
 1000              	 .loc 1 883 0
 1001 03d0 E923     	 mov r3,#233
 1002 03d2 FF22     	 mov r2,#255
 1003 03d4 5B00     	 lsl r3,r3,#1
 1004 03d6 E254     	 strb r2,[r4,r3]
 1005 03d8 F83A     	 sub r2,r2,#248
 1006 03da 223B     	 sub r3,r3,#34
 1007 03dc E254     	 strb r2,[r4,r3]
 884://MAC/Home/Downloads/getstarted-optiga-trust-m/optiga-trust-m-1/optiga/comms/ifx_i2c/ifx_i2c_presentation_layer.c ****                         break;
 1008              	 .loc 1 884 0
 1009 03de 0822     	 mov r2,#8
 883://MAC/Home/Downloads/getstarted-optiga-trust-m/optiga-trust-m-1/optiga/comms/ifx_i2c/ifx_i2c_presentation_layer.c ****                         p_ctx->prl.return_status = IFX_I2C_HANDSHAKE_ERROR;
 1010              	 .loc 1 883 0
 1011 03e0 0233     	 add r3,r3,#2
 1012 03e2 E554     	 strb r5,[r4,r3]
 1013 03e4 EE33     	 add r3,r3,#238
 1014 03e6 E554     	 strb r5,[r4,r3]
 884://MAC/Home/Downloads/getstarted-optiga-trust-m/optiga-trust-m-1/optiga/comms/ifx_i2c/ifx_i2c_presentation_layer.c ****                         break;
 1015              	 .loc 1 884 0
 1016 03e8 FF32     	 add r2,r2,#255
 1017 03ea 3C3B     	 sub r3,r3,#60
 1018              	.LVL83:
 1019              	.L167:
 1020 03ec E252     	 strh r2,[r4,r3]
 885://MAC/Home/Downloads/getstarted-optiga-trust-m/optiga-trust-m-1/optiga/comms/ifx_i2c/ifx_i2c_presentation_layer.c ****                     }
 1021              	 .loc 1 885 0
 1022 03ee 30E6     	 b .L17
 1023              	.L51:
 1024              	.LBB31:
 1025              	.LBB30:
 787://MAC/Home/Downloads/getstarted-optiga-trust-m/optiga-trust-m-1/optiga/comms/ifx_i2c/ifx_i2c_presentation_layer.c ****                 break;
 1026              	 .loc 1 787 0
 1027 03f0 0023     	 mov r3,#0
 1028 03f2 8125     	 mov r5,#129
 1029 03f4 0993     	 str r3,[sp,#36]
 1030 03f6 6D00     	 lsl r5,r5,#1
 1031              	.L52:
 1032              	.LVL84:
 1033              	.LBE30:
 1034              	.LBE31:
 1035              	.LBB32:
 1036              	.LBB33:
 473://MAC/Home/Downloads/getstarted-optiga-trust-m/optiga-trust-m-1/optiga/comms/ifx_i2c/ifx_i2c_presentation_layer.c ****         {
 1037              	 .loc 1 473 0
 1038 03f8 B223     	 mov r3,#178
 1039 03fa FF33     	 add r3,r3,#255
 1040 03fc E35C     	 ldrb r3,[r4,r3]
 1041 03fe 332B     	 cmp r3,#51
 1042 0400 00D1     	 bne .LCB1013
 1043 0402 A6E0     	 b .L54
 1044              	.LCB1013:
 1045 0404 04D8     	 bhi .L55
 1046 0406 112B     	 cmp r3,#17
 1047 0408 1AD0     	 beq .L56
 1048 040a 222B     	 cmp r3,#34
 1049 040c 43D0     	 beq .L57
 1050 040e 2FE1     	 b .L53
 1051              	.L55:
 1052 0410 442B     	 cmp r3,#68
 1053 0412 00D1     	 bne .LCB1025
 1054 0414 DBE0     	 b .L58
 1055              	.LCB1025:
 1056 0416 552B     	 cmp r3,#85
 1057 0418 00D1     	 bne .LCB1027
 1058 041a 22E1     	 b .L59
 1059              	.LCB1027:
 1060 041c 28E1     	 b .L53
 1061              	.L178:
 1062 041e C046     	 .align 2
 1063              	.L177:
 1064 0420 56020000 	 .word 598
 1065 0424 92020000 	 .word 658
 1066 0428 93020000 	 .word 659
 1067 042c 66020000 	 .word 614
 1068 0430 1D020000 	 .word 541
 1069 0434 62020000 	 .word 610
 1070 0438 91020000 	 .word 657
 1071 043c 63020000 	 .word 611
 1072              	.L56:
 478://MAC/Home/Downloads/getstarted-optiga-trust-m/optiga-trust-m-1/optiga/comms/ifx_i2c/ifx_i2c_presentation_layer.c ****                 p_ctx->prl.prl_txrx_buffer[PRL_SCTR_OFFSET] = p_ctx->prl.sctr;
 1073              	 .loc 1 478 0
 1074 0440 E822     	 mov r2,#232
 1075 0442 0023     	 mov r3,#0
 1076 0444 5200     	 lsl r2,r2,#1
 1077 0446 A354     	 strb r3,[r4,r2]
 479://MAC/Home/Downloads/getstarted-optiga-trust-m/optiga-trust-m-1/optiga/comms/ifx_i2c/ifx_i2c_presentation_layer.c ****                 p_ctx->prl.prl_txrx_buffer[PRL_PROTOCOL_VERSION_OFFSET] = p_ctx->protocol_version;
 1078              	 .loc 1 479 0
 1079 0448 4C32     	 add r2,r2,#76
 1080 044a A354     	 strb r3,[r4,r2]
 480://MAC/Home/Downloads/getstarted-optiga-trust-m/optiga-trust-m-1/optiga/comms/ifx_i2c/ifx_i2c_presentation_layer.c ****                 p_ctx->prl.prl_receive_length = PRL_SLAVE_HELLO_LENGTH;
 1081              	 .loc 1 480 0
 1082 044c 231C     	 mov r3,r4
 1083 044e 3133     	 add r3,r3,#49
 1084 0450 1A78     	 ldrb r2,[r3]
 1085 0452 D74B     	 ldr r3,.L179
 483://MAC/Home/Downloads/getstarted-optiga-trust-m/optiga-trust-m-1/optiga/comms/ifx_i2c/ifx_i2c_presentation_layer.c ****                                                       p_ctx->prl.prl_txrx_buffer,
 1086              	 .loc 1 483 0
 1087 0454 201C     	 mov r0,r4
 480://MAC/Home/Downloads/getstarted-optiga-trust-m/optiga-trust-m-1/optiga/comms/ifx_i2c/ifx_i2c_presentation_layer.c ****                 p_ctx->prl.prl_receive_length = PRL_SLAVE_HELLO_LENGTH;
 1088              	 .loc 1 480 0
 1089 0456 E254     	 strb r2,[r4,r3]
 481://MAC/Home/Downloads/getstarted-optiga-trust-m/optiga-trust-m-1/optiga/comms/ifx_i2c/ifx_i2c_presentation_layer.c ****                 //Sending hello message
 1090              	 .loc 1 481 0
 1091 0458 2622     	 mov r2,#38
 1092 045a 4333     	 add r3,r3,#67
 1093 045c E252     	 strh r2,[r4,r3]
 483://MAC/Home/Downloads/getstarted-optiga-trust-m/optiga-trust-m-1/optiga/comms/ifx_i2c/ifx_i2c_presentation_layer.c ****                                                       p_ctx->prl.prl_txrx_buffer,
 1094              	 .loc 1 483 0
 1095 045e E318     	 add r3,r4,r3
 1096 0460 0093     	 str r3,[sp]
 1097 0462 8723     	 mov r3,#135
 1098 0464 9B00     	 lsl r3,r3,#2
 1099 0466 E318     	 add r3,r4,r3
 1100 0468 191C     	 mov r1,r3
 1101 046a 243A     	 sub r2,r2,#36
 1102 046c FFF7FEFF 	 bl ifx_i2c_tl_transceive
 1103              	.LVL85:
 488://MAC/Home/Downloads/getstarted-optiga-trust-m/optiga-trust-m-1/optiga/comms/ifx_i2c/ifx_i2c_presentation_layer.c ****                 {
 1104              	 .loc 1 488 0
 1105 0470 8123     	 mov r3,#129
 483://MAC/Home/Downloads/getstarted-optiga-trust-m/optiga-trust-m-1/optiga/comms/ifx_i2c/ifx_i2c_presentation_layer.c ****                                                       p_ctx->prl.prl_txrx_buffer,
 1106              	 .loc 1 483 0
 1107 0472 051C     	 mov r5,r0
 1108              	.LVL86:
 488://MAC/Home/Downloads/getstarted-optiga-trust-m/optiga-trust-m-1/optiga/comms/ifx_i2c/ifx_i2c_presentation_layer.c ****                 {
 1109              	 .loc 1 488 0
 1110 0474 5B00     	 lsl r3,r3,#1
 1111 0476 9842     	 cmp r0,r3
 1112 0478 08D1     	 bne .L60
 1113              	.LVL87:
 1114              	.L69:
 490://MAC/Home/Downloads/getstarted-optiga-trust-m/optiga-trust-m-1/optiga/comms/ifx_i2c/ifx_i2c_presentation_layer.c ****                     exit_machine = TRUE;
 1115              	 .loc 1 490 0
 1116 047a B222     	 mov r2,#178
 1117 047c 5523     	 mov r3,#85
 1118 047e 8125     	 mov r5,#129
 1119 0480 FF32     	 add r2,r2,#255
 1120 0482 A354     	 strb r3,[r4,r2]
 1121              	.LVL88:
 1122 0484 6D00     	 lsl r5,r5,#1
 1123              	.LVL89:
 1124              	.L74:
 1125 0486 0123     	 mov r3,#1
 1126 0488 0993     	 str r3,[sp,#36]
 1127 048a B5E7     	 b .L52
 1128              	.LVL90:
 1129              	.L60:
 494://MAC/Home/Downloads/getstarted-optiga-trust-m/optiga-trust-m-1/optiga/comms/ifx_i2c/ifx_i2c_presentation_layer.c ****             }
 1130              	 .loc 1 494 0
 1131 048c B222     	 mov r2,#178
 1132 048e 2223     	 mov r3,#34
 1133 0490 FF32     	 add r2,r2,#255
 1134 0492 A354     	 strb r3,[r4,r2]
 1135 0494 ECE0     	 b .L53
 1136              	.LVL91:
 1137              	.L57:
 1138 0496 9822     	 mov r2,#152
 500://MAC/Home/Downloads/getstarted-optiga-trust-m/optiga-trust-m-1/optiga/comms/ifx_i2c/ifx_i2c_presentation_layer.c ****                     (p_data[PRL_SCTR_OFFSET] & (PRL_ALERT_PROTOCOL | PRL_INTEGRITY_VIOLATED_ALERT_M
 1139              	 .loc 1 500 0
 1140 0498 4421     	 mov r1,#68
 1141 049a 079B     	 ldr r3,[sp,#28]
 1142 049c 9200     	 lsl r2,r2,#2
 1143 049e 1B78     	 ldrb r3,[r3]
 1144 04a0 0B42     	 tst r3,r1
 1145 04a2 03D0     	 beq .L62
 501://MAC/Home/Downloads/getstarted-optiga-trust-m/optiga-trust-m-1/optiga/comms/ifx_i2c/ifx_i2c_presentation_layer.c ****                     (1 == p_ctx->prl.prl_receive_length)))
 1146              	 .loc 1 501 0
 1147 04a4 A15A     	 ldrh r1,[r4,r2]
 1148 04a6 0129     	 cmp r1,#1
 1149 04a8 00D1     	 bne .LCB1122
 1150 04aa DAE0     	 b .L59
 1151              	.LCB1122:
 1152              	.L62:
 510://MAC/Home/Downloads/getstarted-optiga-trust-m/optiga-trust-m-1/optiga/comms/ifx_i2c/ifx_i2c_presentation_layer.c ****                     (PROTOCOL_VERSION_PRE_SHARED_SECRET != p_data[PRL_PROTOCOL_VERSION_OFFSET]))
 1153              	 .loc 1 510 0
 1154 04ac A25A     	 ldrh r2,[r4,r2]
 1155 04ae 262A     	 cmp r2,#38
 1156 04b0 00D0     	 beq .LCB1127
 1157 04b2 95E0     	 b .L71
 1158              	.LCB1127:
 1159 04b4 002B     	 cmp r3,#0
 1160 04b6 00D0     	 beq .LCB1129
 1161 04b8 92E0     	 b .L71
 1162              	.LCB1129:
 1163 04ba 079B     	 ldr r3,[sp,#28]
 1164 04bc 5B78     	 ldrb r3,[r3,#1]
 1165 04be 012B     	 cmp r3,#1
 1166 04c0 00D0     	 beq .LCB1133
 1167 04c2 8DE0     	 b .L71
 1168              	.LCB1133:
 517://MAC/Home/Downloads/getstarted-optiga-trust-m/optiga-trust-m-1/optiga/comms/ifx_i2c/ifx_i2c_presentation_layer.c ****                 p_ctx->prl.save_slave_sequence_number = p_ctx->prl.slave_sequence_number;
 1169              	 .loc 1 517 0
 1170 04c4 0798     	 ldr r0,[sp,#28]
 519://MAC/Home/Downloads/getstarted-optiga-trust-m/optiga-trust-m-1/optiga/comms/ifx_i2c/ifx_i2c_presentation_layer.c **** 
 1171              	 .loc 1 519 0
 1172 04c6 271C     	 mov r7,r4
 517://MAC/Home/Downloads/getstarted-optiga-trust-m/optiga-trust-m-1/optiga/comms/ifx_i2c/ifx_i2c_presentation_layer.c ****                 p_ctx->prl.save_slave_sequence_number = p_ctx->prl.slave_sequence_number;
 1173              	 .loc 1 517 0
 1174 04c8 2230     	 add r0,r0,#34
 1175 04ca FFF7FEFF 	 bl optiga_common_get_uint32
 1176              	.LVL92:
 1177 04ce DC23     	 mov r3,#220
 1178 04d0 5B00     	 lsl r3,r3,#1
 1179 04d2 E050     	 str r0,[r4,r3]
 518://MAC/Home/Downloads/getstarted-optiga-trust-m/optiga-trust-m-1/optiga/comms/ifx_i2c/ifx_i2c_presentation_layer.c ****                 memcpy(p_ctx->prl.random, &p_data[PRL_RANDOM_DATAOFFSET], PRL_RANDOM_DATA_LENGTH);
 1180              	 .loc 1 518 0
 1181 04d4 0433     	 add r3,r3,#4
 1182 04d6 E050     	 str r0,[r4,r3]
 519://MAC/Home/Downloads/getstarted-optiga-trust-m/optiga-trust-m-1/optiga/comms/ifx_i2c/ifx_i2c_presentation_layer.c **** 
 1183              	 .loc 1 519 0
 1184 04d8 FD37     	 add r7,r7,#253
 1185 04da 079B     	 ldr r3,[sp,#28]
 1186 04dc FF37     	 add r7,r7,#255
 1187 04de 991C     	 add r1,r3,#2
 1188 04e0 2022     	 mov r2,#32
 1189 04e2 381C     	 mov r0,r7
 1190 04e4 FFF7FEFF 	 bl memcpy
 1191              	.LVL93:
 1192              	.LBB34:
 1193              	.LBB35:
 319://MAC/Home/Downloads/getstarted-optiga-trust-m/optiga-trust-m-1/optiga/comms/ifx_i2c/ifx_i2c_presentation_layer.c ****     uint8_t secret_input[SHARED_SECRET_LENGTH];
 1194              	 .loc 1 319 0
 1195 04e8 B249     	 ldr r1,.L179+4
 1196 04ea 1122     	 mov r2,#17
 1197 04ec 0CA8     	 add r0,sp,#48
 1198 04ee FFF7FEFF 	 bl memcpy
 1199              	.LVL94:
 324://MAC/Home/Downloads/getstarted-optiga-trust-m/optiga-trust-m-1/optiga/comms/ifx_i2c/ifx_i2c_presentation_layer.c ****                                               secret_input,
 1200              	 .loc 1 324 0
 1201 04f2 6269     	 ldr r2,[r4,#20]
 1202 04f4 1EA9     	 add r1,sp,#120
 1203 04f6 5088     	 ldrh r0,[r2,#2]
 1204 04f8 0632     	 add r2,r2,#6
 1205 04fa FFF7FEFF 	 bl pal_os_datastore_read
 1206              	.LVL95:
 1207 04fe 0826     	 mov r6,#8
 1208 0500 051C     	 mov r5,r0
 1209              	.LVL96:
 1210 0502 FF36     	 add r6,r6,#255
 327://MAC/Home/Downloads/getstarted-optiga-trust-m/optiga-trust-m-1/optiga/comms/ifx_i2c/ifx_i2c_presentation_layer.c ****         {
 1211              	 .loc 1 327 0
 1212 0504 0028     	 cmp r0,#0
 1213 0506 19D1     	 bne .L107
 332://MAC/Home/Downloads/getstarted-optiga-trust-m/optiga-trust-m-1/optiga/comms/ifx_i2c/ifx_i2c_presentation_layer.c ****                                           sizeof(secret_input),
 1214              	 .loc 1 332 0
 1215 0508 1023     	 mov r3,#16
 1216 050a 0093     	 str r3,[sp]
 1217 050c DB18     	 add r3,r3,r3
 1218 050e 0293     	 str r3,[sp,#8]
 338://MAC/Home/Downloads/getstarted-optiga-trust-m/optiga-trust-m-1/optiga/comms/ifx_i2c/ifx_i2c_presentation_layer.c ****                                           sizeof(p_ctx->prl.session_key)))
 1219              	 .loc 1 338 0
 1220 0510 231C     	 mov r3,r4
 1221 0512 D533     	 add r3,r3,#213
 1222 0514 FF33     	 add r3,r3,#255
 332://MAC/Home/Downloads/getstarted-optiga-trust-m/optiga-trust-m-1/optiga/comms/ifx_i2c/ifx_i2c_presentation_layer.c ****                                           sizeof(secret_input),
 1223              	 .loc 1 332 0
 1224 0516 0393     	 str r3,[sp,#12]
 1225 0518 2823     	 mov r3,#40
 1226 051a 0197     	 str r7,[sp,#4]
 1227 051c 0493     	 str r3,[sp,#16]
 1228 051e 1EA9     	 add r1,sp,#120
 1229 0520 4022     	 mov r2,#64
 1230 0522 0CAB     	 add r3,sp,#48
 1231 0524 FFF7FEFF 	 bl pal_crypt_tls_prf_sha256
 1232              	.LVL97:
 1233 0528 0028     	 cmp r0,#0
 1234 052a 00D0     	 beq .L67
 341://MAC/Home/Downloads/getstarted-optiga-trust-m/optiga-trust-m-1/optiga/comms/ifx_i2c/ifx_i2c_presentation_layer.c ****         }
 1235              	 .loc 1 341 0
 1236 052c 351C     	 mov r5,r6
 1237              	.L67:
 1238              	.LVL98:
 343://MAC/Home/Downloads/getstarted-optiga-trust-m/optiga-trust-m-1/optiga/comms/ifx_i2c/ifx_i2c_presentation_layer.c **** 
 1239              	 .loc 1 343 0
 1240 052e 6369     	 ldr r3,[r4,#20]
 1241 0530 1EA8     	 add r0,sp,#120
 1242 0532 DA88     	 ldrh r2,[r3,#6]
 1243 0534 0021     	 mov r1,#0
 1244 0536 FFF7FEFF 	 bl memset
 1245              	.LVL99:
 1246 053a 00E0     	 b .L66
 1247              	.LVL100:
 1248              	.L107:
 329://MAC/Home/Downloads/getstarted-optiga-trust-m/optiga-trust-m-1/optiga/comms/ifx_i2c/ifx_i2c_presentation_layer.c ****             break;
 1249              	 .loc 1 329 0
 1250 053c 351C     	 mov r5,r6
 1251              	.LVL101:
 1252              	.L66:
 1253              	.LBE35:
 1254              	.LBE34:
 528://MAC/Home/Downloads/getstarted-optiga-trust-m/optiga-trust-m-1/optiga/comms/ifx_i2c/ifx_i2c_presentation_layer.c **** 
 1255              	 .loc 1 528 0
 1256 053e 3323     	 mov r3,#51
 523://MAC/Home/Downloads/getstarted-optiga-trust-m/optiga-trust-m-1/optiga/comms/ifx_i2c/ifx_i2c_presentation_layer.c ****                 {
 1257              	 .loc 1 523 0
 1258 0540 B542     	 cmp r5,r6
 1259 0542 4ED1     	 bne .L169
 1260              	.LVL102:
 1261              	.L73:
 525://MAC/Home/Downloads/getstarted-optiga-trust-m/optiga-trust-m-1/optiga/comms/ifx_i2c/ifx_i2c_presentation_layer.c ****                     break;
 1262              	 .loc 1 525 0
 1263 0544 B222     	 mov r2,#178
 1264 0546 5523     	 mov r3,#85
 1265 0548 0825     	 mov r5,#8
 1266 054a FF32     	 add r2,r2,#255
 1267 054c A354     	 strb r3,[r4,r2]
 1268 054e FF35     	 add r5,r5,#255
 1269 0550 99E7     	 b .L74
 1270              	.LVL103:
 1271              	.L54:
 534://MAC/Home/Downloads/getstarted-optiga-trust-m/optiga-trust-m-1/optiga/comms/ifx_i2c/ifx_i2c_presentation_layer.c ****                 exit_machine = FALSE;
 1272              	 .loc 1 534 0
 1273 0552 E827     	 mov r7,#232
 1274 0554 0823     	 mov r3,#8
 537://MAC/Home/Downloads/getstarted-optiga-trust-m/optiga-trust-m-1/optiga/comms/ifx_i2c/ifx_i2c_presentation_layer.c ****                 optiga_common_set_uint32(&p_ctx->prl.prl_txrx_buffer[PRL_RANDOM_DATA_LENGTH + IFX_I
 1275              	 .loc 1 537 0
 1276 0556 211C     	 mov r1,r4
 538://MAC/Home/Downloads/getstarted-optiga-trust-m/optiga-trust-m-1/optiga/comms/ifx_i2c/ifx_i2c_presentation_layer.c ****                                          p_ctx->prl.slave_sequence_number);
 1277              	 .loc 1 538 0
 1278 0558 DC26     	 mov r6,#220
 534://MAC/Home/Downloads/getstarted-optiga-trust-m/optiga-trust-m-1/optiga/comms/ifx_i2c/ifx_i2c_presentation_layer.c ****                 exit_machine = FALSE;
 1279              	 .loc 1 534 0
 1280 055a 7F00     	 lsl r7,r7,#1
 1281 055c E355     	 strb r3,[r4,r7]
 1282              	.LVL104:
 537://MAC/Home/Downloads/getstarted-optiga-trust-m/optiga-trust-m-1/optiga/comms/ifx_i2c/ifx_i2c_presentation_layer.c ****                 optiga_common_set_uint32(&p_ctx->prl.prl_txrx_buffer[PRL_RANDOM_DATA_LENGTH + IFX_I
 1283              	 .loc 1 537 0
 1284 055e 964B     	 ldr r3,.L179+8
 1285 0560 FD31     	 add r1,r1,#253
 1286 0562 E518     	 add r5,r4,r3
 1287              	.LVL105:
 1288 0564 2022     	 mov r2,#32
 1289 0566 FF31     	 add r1,r1,#255
 1290 0568 281C     	 mov r0,r5
 1291 056a FFF7FEFF 	 bl memcpy
 1292              	.LVL106:
 538://MAC/Home/Downloads/getstarted-optiga-trust-m/optiga-trust-m-1/optiga/comms/ifx_i2c/ifx_i2c_presentation_layer.c ****                                          p_ctx->prl.slave_sequence_number);
 1293              	 .loc 1 538 0
 1294 056e 934B     	 ldr r3,.L179+12
 1295 0570 7600     	 lsl r6,r6,#1
 1296 0572 E018     	 add r0,r4,r3
 1297 0574 A159     	 ldr r1,[r4,r6]
 1298 0576 FFF7FEFF 	 bl optiga_common_set_uint32
 1299              	.LVL107:
 542://MAC/Home/Downloads/getstarted-optiga-trust-m/optiga-trust-m-1/optiga/comms/ifx_i2c/ifx_i2c_presentation_layer.c ****                                                         &p_ctx->prl.prl_txrx_buffer[IFX_I2C_PRL_HEA
 1300              	 .loc 1 542 0
 1301 057a E35D     	 ldrb r3,[r4,r7]
 1302 057c 201C     	 mov r0,r4
 1303 057e 0093     	 str r3,[sp]
 1304 0580 291C     	 mov r1,r5
 1305 0582 A359     	 ldr r3,[r4,r6]
 1306 0584 2422     	 mov r2,#36
 1307 0586 FFF7FEFF 	 bl ifx_i2c_prl_encrypt_msg
 1308              	.LVL108:
 547://MAC/Home/Downloads/getstarted-optiga-trust-m/optiga-trust-m-1/optiga/comms/ifx_i2c/ifx_i2c_presentation_layer.c ****                 {
 1309              	 .loc 1 547 0
 1310 058a 8123     	 mov r3,#129
 1311 058c 5B00     	 lsl r3,r3,#1
 1312 058e 9842     	 cmp r0,r3
 1313 0590 00D1     	 bne .LCB1281
 1314 0592 72E7     	 b .L69
 1315              	.LCB1281:
 555://MAC/Home/Downloads/getstarted-optiga-trust-m/optiga-trust-m-1/optiga/comms/ifx_i2c/ifx_i2c_presentation_layer.c ****                 optiga_common_set_uint32(&p_ctx->prl.prl_txrx_buffer[1], p_ctx->prl.slave_sequence_
 1316              	 .loc 1 555 0
 1317 0594 E25D     	 ldrb r2,[r4,r7]
 1318 0596 1B33     	 add r3,r3,#27
 1319 0598 FF33     	 add r3,r3,#255
 1320 059a E254     	 strb r2,[r4,r3]
 556://MAC/Home/Downloads/getstarted-optiga-trust-m/optiga-trust-m-1/optiga/comms/ifx_i2c/ifx_i2c_presentation_layer.c **** 
 1321              	 .loc 1 556 0
 1322 059c 844B     	 ldr r3,.L179
 1323 059e A159     	 ldr r1,[r4,r6]
 1324 05a0 E018     	 add r0,r4,r3
 1325              	.LVL109:
 1326 05a2 FFF7FEFF 	 bl optiga_common_set_uint32
 1327              	.LVL110:
 558://MAC/Home/Downloads/getstarted-optiga-trust-m/optiga-trust-m-1/optiga/comms/ifx_i2c/ifx_i2c_presentation_layer.c ****                 return_status = ifx_i2c_tl_transceive(p_ctx,
 1328              	 .loc 1 558 0
 1329 05a6 9823     	 mov r3,#152
 1330 05a8 3122     	 mov r2,#49
 1331 05aa 9B00     	 lsl r3,r3,#2
 1332 05ac E252     	 strh r2,[r4,r3]
 559://MAC/Home/Downloads/getstarted-optiga-trust-m/optiga-trust-m-1/optiga/comms/ifx_i2c/ifx_i2c_presentation_layer.c ****                                                       p_ctx->prl.prl_txrx_buffer,
 1333              	 .loc 1 559 0
 1334 05ae E318     	 add r3,r4,r3
 1335 05b0 0093     	 str r3,[sp]
 1336 05b2 8723     	 mov r3,#135
 1337 05b4 9B00     	 lsl r3,r3,#2
 1338 05b6 E318     	 add r3,r4,r3
 1339 05b8 201C     	 mov r0,r4
 1340 05ba 191C     	 mov r1,r3
 1341 05bc FFF7FEFF 	 bl ifx_i2c_tl_transceive
 1342              	.LVL111:
 1343 05c0 051E     	 sub r5,r0,#0
 1344              	.LVL112:
 564://MAC/Home/Downloads/getstarted-optiga-trust-m/optiga-trust-m-1/optiga/comms/ifx_i2c/ifx_i2c_presentation_layer.c ****                 {
 1345              	 .loc 1 564 0
 1346 05c2 0DD1     	 bne .L71
 570://MAC/Home/Downloads/getstarted-optiga-trust-m/optiga-trust-m-1/optiga/comms/ifx_i2c/ifx_i2c_presentation_layer.c ****             }
 1347              	 .loc 1 570 0
 1348 05c4 B222     	 mov r2,#178
 1349 05c6 4423     	 mov r3,#68
 1350 05c8 FF32     	 add r2,r2,#255
 1351 05ca A354     	 strb r3,[r4,r2]
 1352 05cc 54E0     	 b .L103
 1353              	.LVL113:
 1354              	.L58:
 575://MAC/Home/Downloads/getstarted-optiga-trust-m/optiga-trust-m-1/optiga/comms/ifx_i2c/ifx_i2c_presentation_layer.c ****                     ((PRL_FINISHED_DATA_LENGTH + 1) != p_ctx->prl.prl_receive_length))
 1355              	 .loc 1 575 0
 1356 05ce 079B     	 ldr r3,[sp,#28]
 1357 05d0 1B78     	 ldrb r3,[r3]
 1358 05d2 082B     	 cmp r3,#8
 1359 05d4 04D1     	 bne .L71
 576://MAC/Home/Downloads/getstarted-optiga-trust-m/optiga-trust-m-1/optiga/comms/ifx_i2c/ifx_i2c_presentation_layer.c ****                 {
 1360              	 .loc 1 576 0
 1361 05d6 9823     	 mov r3,#152
 1362 05d8 9B00     	 lsl r3,r3,#2
 575://MAC/Home/Downloads/getstarted-optiga-trust-m/optiga-trust-m-1/optiga/comms/ifx_i2c/ifx_i2c_presentation_layer.c ****                     ((PRL_FINISHED_DATA_LENGTH + 1) != p_ctx->prl.prl_receive_length))
 1363              	 .loc 1 575 0
 1364 05da E35A     	 ldrh r3,[r4,r3]
 1365 05dc 312B     	 cmp r3,#49
 1366 05de 04D0     	 beq .L72
 1367              	.LVL114:
 1368              	.L71:
 578://MAC/Home/Downloads/getstarted-optiga-trust-m/optiga-trust-m-1/optiga/comms/ifx_i2c/ifx_i2c_presentation_layer.c ****                     exit_machine = TRUE;
 1369              	 .loc 1 578 0
 1370 05e0 5523     	 mov r3,#85
 1371              	.L169:
 1372 05e2 B222     	 mov r2,#178
 1373 05e4 FF32     	 add r2,r2,#255
 1374 05e6 A354     	 strb r3,[r4,r2]
 1375              	.LVL115:
 1376 05e8 4DE7     	 b .L74
 1377              	.LVL116:
 1378              	.L72:
 582://MAC/Home/Downloads/getstarted-optiga-trust-m/optiga-trust-m-1/optiga/comms/ifx_i2c/ifx_i2c_presentation_layer.c ****                 return_status = ifx_i2c_prl_decrypt_msg(p_ctx,
 1379              	 .loc 1 582 0
 1380 05ea 079B     	 ldr r3,[sp,#28]
 1381 05ec DA27     	 mov r7,#218
 1382 05ee 581C     	 add r0,r3,#1
 1383 05f0 FFF7FEFF 	 bl optiga_common_get_uint32
 1384              	.LVL117:
 587://MAC/Home/Downloads/getstarted-optiga-trust-m/optiga-trust-m-1/optiga/comms/ifx_i2c/ifx_i2c_presentation_layer.c ****                                                         PRL_MASTER_DECRYPTION_KEY_OFFSET,
 1385              	 .loc 1 587 0
 1386 05f4 8722     	 mov r2,#135
 582://MAC/Home/Downloads/getstarted-optiga-trust-m/optiga-trust-m-1/optiga/comms/ifx_i2c/ifx_i2c_presentation_layer.c ****                 return_status = ifx_i2c_prl_decrypt_msg(p_ctx,
 1387              	 .loc 1 582 0
 1388 05f6 7F00     	 lsl r7,r7,#1
 587://MAC/Home/Downloads/getstarted-optiga-trust-m/optiga-trust-m-1/optiga/comms/ifx_i2c/ifx_i2c_presentation_layer.c ****                                                         PRL_MASTER_DECRYPTION_KEY_OFFSET,
 1389              	 .loc 1 587 0
 1390 05f8 9200     	 lsl r2,r2,#2
 582://MAC/Home/Downloads/getstarted-optiga-trust-m/optiga-trust-m-1/optiga/comms/ifx_i2c/ifx_i2c_presentation_layer.c ****                 return_status = ifx_i2c_prl_decrypt_msg(p_ctx,
 1391              	 .loc 1 582 0
 1392 05fa 031C     	 mov r3,r0
 1393 05fc E051     	 str r0,[r4,r7]
 587://MAC/Home/Downloads/getstarted-optiga-trust-m/optiga-trust-m-1/optiga/comms/ifx_i2c/ifx_i2c_presentation_layer.c ****                                                         PRL_MASTER_DECRYPTION_KEY_OFFSET,
 1394              	 .loc 1 587 0
 1395 05fe A618     	 add r6,r4,r2
 583://MAC/Home/Downloads/getstarted-optiga-trust-m/optiga-trust-m-1/optiga/comms/ifx_i2c/ifx_i2c_presentation_layer.c ****                                                         &p_data[IFX_I2C_PRL_HEADER_SIZE],
 1396              	 .loc 1 583 0
 1397 0600 E820     	 mov r0,#232
 1398 0602 079A     	 ldr r2,[sp,#28]
 1399 0604 4000     	 lsl r0,r0,#1
 1400 0606 511D     	 add r1,r2,#5
 1401 0608 1022     	 mov r2,#16
 1402 060a 205C     	 ldrb r0,[r4,r0]
 1403 060c 0192     	 str r2,[sp,#4]
 1404 060e 1432     	 add r2,r2,#20
 1405 0610 0390     	 str r0,[sp,#12]
 1406 0612 0096     	 str r6,[sp]
 1407 0614 0292     	 str r2,[sp,#8]
 1408 0616 201C     	 mov r0,r4
 1409 0618 FFF7FEFF 	 bl ifx_i2c_prl_decrypt_msg
 1410              	.LVL118:
 591://MAC/Home/Downloads/getstarted-optiga-trust-m/optiga-trust-m-1/optiga/comms/ifx_i2c/ifx_i2c_presentation_layer.c ****                 {
 1411              	 .loc 1 591 0
 1412 061c 8123     	 mov r3,#129
 583://MAC/Home/Downloads/getstarted-optiga-trust-m/optiga-trust-m-1/optiga/comms/ifx_i2c/ifx_i2c_presentation_layer.c ****                                                         &p_data[IFX_I2C_PRL_HEADER_SIZE],
 1413              	 .loc 1 583 0
 1414 061e 051C     	 mov r5,r0
 1415              	.LVL119:
 591://MAC/Home/Downloads/getstarted-optiga-trust-m/optiga-trust-m-1/optiga/comms/ifx_i2c/ifx_i2c_presentation_layer.c ****                 {
 1416              	 .loc 1 591 0
 1417 0620 5B00     	 lsl r3,r3,#1
 1418 0622 9842     	 cmp r0,r3
 1419 0624 00D1     	 bne .LCB1378
 1420 0626 28E7     	 b .L69
 1421              	.LCB1378:
 597://MAC/Home/Downloads/getstarted-optiga-trust-m/optiga-trust-m-1/optiga/comms/ifx_i2c/ifx_i2c_presentation_layer.c ****                 ///Validating decrpt data
 1422              	 .loc 1 597 0
 1423 0628 0BA8     	 add r0,sp,#44
 1424              	.LVL120:
 1425 062a E159     	 ldr r1,[r4,r7]
 1426 062c FFF7FEFF 	 bl optiga_common_set_uint32
 1427              	.LVL121:
 599://MAC/Home/Downloads/getstarted-optiga-trust-m/optiga-trust-m-1/optiga/comms/ifx_i2c/ifx_i2c_presentation_layer.c ****                 {
 1428              	 .loc 1 599 0
 1429 0630 201C     	 mov r0,r4
 1430 0632 FD30     	 add r0,r0,#253
 1431 0634 FF30     	 add r0,r0,#255
 1432 0636 311C     	 mov r1,r6
 1433 0638 2022     	 mov r2,#32
 1434 063a FFF7FEFF 	 bl memcmp
 1435              	.LVL122:
 1436 063e 0028     	 cmp r0,#0
 1437 0640 00D0     	 beq .LCB1393
 1438 0642 7FE7     	 b .L73
 1439              	.LCB1393:
 607://MAC/Home/Downloads/getstarted-optiga-trust-m/optiga-trust-m-1/optiga/comms/ifx_i2c/ifx_i2c_presentation_layer.c ****                 {
 1440              	 .loc 1 607 0
 1441 0644 8F23     	 mov r3,#143
 1442 0646 9B00     	 lsl r3,r3,#2
 1443 0648 0BA8     	 add r0,sp,#44
 1444 064a E118     	 add r1,r4,r3
 1445 064c 0422     	 mov r2,#4
 1446 064e FFF7FEFF 	 bl memcmp
 1447              	.LVL123:
 1448 0652 0028     	 cmp r0,#0
 1449 0654 00D0     	 beq .LCB1402
 1450 0656 75E7     	 b .L73
 1451              	.LCB1402:
 614://MAC/Home/Downloads/getstarted-optiga-trust-m/optiga-trust-m-1/optiga/comms/ifx_i2c/ifx_i2c_presentation_layer.c ****             }
 1452              	 .loc 1 614 0
 1453 0658 D923     	 mov r3,#217
 1454 065a 0122     	 mov r2,#1
 1455 065c 5B00     	 lsl r3,r3,#1
 1456 065e E254     	 strb r2,[r4,r3]
 1457 0660 06E0     	 b .L53
 1458              	.LVL124:
 1459              	.L59:
 620://MAC/Home/Downloads/getstarted-optiga-trust-m/optiga-trust-m-1/optiga/comms/ifx_i2c/ifx_i2c_presentation_layer.c ****                 exit_machine = FALSE;
 1460              	 .loc 1 620 0
 1461 0662 E923     	 mov r3,#233
 1462 0664 FF22     	 mov r2,#255
 619://MAC/Home/Downloads/getstarted-optiga-trust-m/optiga-trust-m-1/optiga/comms/ifx_i2c/ifx_i2c_presentation_layer.c ****                 p_ctx->prl.alert_type = PRL_INVALID_ALERT;
 1463              	 .loc 1 619 0
 1464 0666 0825     	 mov r5,#8
 620://MAC/Home/Downloads/getstarted-optiga-trust-m/optiga-trust-m-1/optiga/comms/ifx_i2c/ifx_i2c_presentation_layer.c ****                 exit_machine = FALSE;
 1465              	 .loc 1 620 0
 1466 0668 5B00     	 lsl r3,r3,#1
 1467 066a E254     	 strb r2,[r4,r3]
 1468              	.LVL125:
 619://MAC/Home/Downloads/getstarted-optiga-trust-m/optiga-trust-m-1/optiga/comms/ifx_i2c/ifx_i2c_presentation_layer.c ****                 p_ctx->prl.alert_type = PRL_INVALID_ALERT;
 1469              	 .loc 1 619 0
 1470 066c FF35     	 add r5,r5,#255
 1471 066e 03E0     	 b .L103
 1472              	.LVL126:
 1473              	.L53:
 628://MAC/Home/Downloads/getstarted-optiga-trust-m/optiga-trust-m-1/optiga/comms/ifx_i2c/ifx_i2c_presentation_layer.c **** 
 1474              	 .loc 1 628 0
 1475 0670 099B     	 ldr r3,[sp,#36]
 1476 0672 012B     	 cmp r3,#1
 1477 0674 00D1     	 bne .LCB1433
 1478 0676 06E7     	 b .L74
 1479              	.LCB1433:
 1480              	.LVL127:
 1481              	.L103:
 1482              	.LBE33:
 1483              	.LBE32:
 889://MAC/Home/Downloads/getstarted-optiga-trust-m/optiga-trust-m-1/optiga/comms/ifx_i2c/ifx_i2c_presentation_layer.c ****                 {
 1484              	 .loc 1 889 0
 1485 0678 0823     	 mov r3,#8
 1486 067a FF33     	 add r3,r3,#255
 1487 067c 9D42     	 cmp r5,r3
 1488 067e 00D0     	 beq .LCB1442
 1489 0680 7AE6     	 b .L75
 1490              	.LCB1442:
 891://MAC/Home/Downloads/getstarted-optiga-trust-m/optiga-trust-m-1/optiga/comms/ifx_i2c/ifx_i2c_presentation_layer.c ****                     p_ctx->prl.state = PRL_STATE_ERROR;
 1491              	 .loc 1 891 0
 1492 0682 5E33     	 add r3,r3,#94
 1493 0684 FF33     	 add r3,r3,#255
 1494 0686 E552     	 strh r5,[r4,r3]
 892://MAC/Home/Downloads/getstarted-optiga-trust-m/optiga-trust-m-1/optiga/comms/ifx_i2c/ifx_i2c_presentation_layer.c ****                     break;
 1495              	 .loc 1 892 0
 1496 0688 0722     	 mov r2,#7
 1497 068a B43B     	 sub r3,r3,#180
 1498 068c E0E4     	 b .L164
 1499              	.L23:
 897://MAC/Home/Downloads/getstarted-optiga-trust-m/optiga-trust-m-1/optiga/comms/ifx_i2c/ifx_i2c_presentation_layer.c ****                 {
 898://MAC/Home/Downloads/getstarted-optiga-trust-m/optiga-trust-m-1/optiga/comms/ifx_i2c/ifx_i2c_presentation_layer.c ****                     p_ctx->prl.state = PRL_STATE_TXRX;
 899://MAC/Home/Downloads/getstarted-optiga-trust-m/optiga-trust-m-1/optiga/comms/ifx_i2c/ifx_i2c_presentation_layer.c ****                 }
 900://MAC/Home/Downloads/getstarted-optiga-trust-m/optiga-trust-m-1/optiga/comms/ifx_i2c/ifx_i2c_presentation_layer.c ****                 else
 901://MAC/Home/Downloads/getstarted-optiga-trust-m/optiga-trust-m-1/optiga/comms/ifx_i2c/ifx_i2c_presentation_layer.c ****                 {
 902://MAC/Home/Downloads/getstarted-optiga-trust-m/optiga-trust-m-1/optiga/comms/ifx_i2c/ifx_i2c_presentation_layer.c ****                     exit_machine = FALSE;
 903://MAC/Home/Downloads/getstarted-optiga-trust-m/optiga-trust-m-1/optiga/comms/ifx_i2c/ifx_i2c_presentation_layer.c ****                 }
 904://MAC/Home/Downloads/getstarted-optiga-trust-m/optiga-trust-m-1/optiga/comms/ifx_i2c/ifx_i2c_presentation_layer.c ****             }
 905://MAC/Home/Downloads/getstarted-optiga-trust-m/optiga-trust-m-1/optiga/comms/ifx_i2c/ifx_i2c_presentation_layer.c ****             break;
 906://MAC/Home/Downloads/getstarted-optiga-trust-m/optiga-trust-m-1/optiga/comms/ifx_i2c/ifx_i2c_presentation_layer.c ****             case PRL_STATE_TXRX:
 907://MAC/Home/Downloads/getstarted-optiga-trust-m/optiga-trust-m-1/optiga/comms/ifx_i2c/ifx_i2c_presentation_layer.c ****             {
 908://MAC/Home/Downloads/getstarted-optiga-trust-m/optiga-trust-m-1/optiga/comms/ifx_i2c/ifx_i2c_presentation_layer.c ****                 FORM_SCTR_HEADER(p_ctx,
 1500              	 .loc 1 908 0
 1501 068e 221C     	 mov r2,r4
 1502 0690 0323     	 mov r3,#3
 1503 0692 3032     	 add r2,r2,#48
 1504 0694 1178     	 ldrb r1,[r2]
 1505 0696 E820     	 mov r0,#232
 1506 0698 0B40     	 and r3,r1
 1507 069a 2021     	 mov r1,#32
 1508 069c 4000     	 lsl r0,r0,#1
 1509 069e 1943     	 orr r1,r3
 909://MAC/Home/Downloads/getstarted-optiga-trust-m/optiga-trust-m-1/optiga/comms/ifx_i2c/ifx_i2c_presentation_layer.c ****                                  PRL_RECORD_EXCHANGE_PROTOCOL,
 910://MAC/Home/Downloads/getstarted-optiga-trust-m/optiga-trust-m-1/optiga/comms/ifx_i2c/ifx_i2c_presentation_layer.c ****                                  0,
 911://MAC/Home/Downloads/getstarted-optiga-trust-m/optiga-trust-m-1/optiga/comms/ifx_i2c/ifx_i2c_presentation_layer.c ****                                  (p_ctx->protection_level & PRL_PROTECTION_MASK));
 912://MAC/Home/Downloads/getstarted-optiga-trust-m/optiga-trust-m-1/optiga/comms/ifx_i2c/ifx_i2c_presentation_layer.c ****                 ///Preparing receive length based on the protection level
 913://MAC/Home/Downloads/getstarted-optiga-trust-m/optiga-trust-m-1/optiga/comms/ifx_i2c/ifx_i2c_presentation_layer.c ****                 if ((SLAVE_PROTECTION == (p_ctx->protection_level & PRL_PROTECTION_MASK)) ||
 1510              	 .loc 1 913 0
 1511 06a0 023B     	 sub r3,r3,#2
 908://MAC/Home/Downloads/getstarted-optiga-trust-m/optiga-trust-m-1/optiga/comms/ifx_i2c/ifx_i2c_presentation_layer.c ****                                  PRL_RECORD_EXCHANGE_PROTOCOL,
 1512              	 .loc 1 908 0
 1513 06a2 2154     	 strb r1,[r4,r0]
 1514              	 .loc 1 913 0
 1515 06a4 012B     	 cmp r3,#1
 1516 06a6 1BD8     	 bhi .L76
 914://MAC/Home/Downloads/getstarted-optiga-trust-m/optiga-trust-m-1/optiga/comms/ifx_i2c/ifx_i2c_presentation_layer.c ****                     (FULL_PROTECTION == (p_ctx->protection_level & PRL_PROTECTION_MASK)))
 915://MAC/Home/Downloads/getstarted-optiga-trust-m/optiga-trust-m-1/optiga/comms/ifx_i2c/ifx_i2c_presentation_layer.c ****                 {
 916://MAC/Home/Downloads/getstarted-optiga-trust-m/optiga-trust-m-1/optiga/comms/ifx_i2c/ifx_i2c_presentation_layer.c ****                     if ((PRL_SEQUENCE_THRESHOLD < (p_ctx->prl.save_slave_sequence_number + 1)) &&
 1517              	 .loc 1 916 0
 1518 06a8 DE23     	 mov r3,#222
 1519 06aa 5B00     	 lsl r3,r3,#1
 1520 06ac E358     	 ldr r3,[r4,r3]
 1521 06ae 0133     	 add r3,r3,#1
 1522 06b0 1033     	 add r3,r3,#16
 1523 06b2 0FD9     	 bls .L77
 917://MAC/Home/Downloads/getstarted-optiga-trust-m/optiga-trust-m-1/optiga/comms/ifx_i2c/ifx_i2c_presentation_layer.c ****                         (FALSE == p_ctx->prl.trans_repeat_status))
 1524              	 .loc 1 917 0 discriminator 1
 1525 06b4 A823     	 mov r3,#168
 1526 06b6 9B00     	 lsl r3,r3,#2
 916://MAC/Home/Downloads/getstarted-optiga-trust-m/optiga-trust-m-1/optiga/comms/ifx_i2c/ifx_i2c_presentation_layer.c ****                         (FALSE == p_ctx->prl.trans_repeat_status))
 1527              	 .loc 1 916 0 discriminator 1
 1528 06b8 E35C     	 ldrb r3,[r4,r3]
 1529 06ba 002B     	 cmp r3,#0
 1530 06bc 0AD1     	 bne .L77
 1531              	.L80:
 918://MAC/Home/Downloads/getstarted-optiga-trust-m/optiga-trust-m-1/optiga/comms/ifx_i2c/ifx_i2c_presentation_layer.c ****                     {
 919://MAC/Home/Downloads/getstarted-optiga-trust-m/optiga-trust-m-1/optiga/comms/ifx_i2c/ifx_i2c_presentation_layer.c ****                         DO_NEGOTIATION(p_ctx,exit_machine);
 1532              	 .loc 1 919 0
 1533 06be D923     	 mov r3,#217
 1534 06c0 0022     	 mov r2,#0
 1535 06c2 5B00     	 lsl r3,r3,#1
 1536 06c4 E254     	 strb r2,[r4,r3]
 1537 06c6 0532     	 add r2,r2,#5
 1538 06c8 023B     	 sub r3,r3,#2
 1539 06ca E254     	 strb r2,[r4,r3]
 1540 06cc B223     	 mov r3,#178
 1541 06ce 0C32     	 add r2,r2,#12
 1542 06d0 FF33     	 add r3,r3,#255
 1543 06d2 BDE4     	 b .L164
 1544              	.L77:
 920://MAC/Home/Downloads/getstarted-optiga-trust-m/optiga-trust-m-1/optiga/comms/ifx_i2c/ifx_i2c_presentation_layer.c ****                         break;
 921://MAC/Home/Downloads/getstarted-optiga-trust-m/optiga-trust-m-1/optiga/comms/ifx_i2c/ifx_i2c_presentation_layer.c ****                     }
 922://MAC/Home/Downloads/getstarted-optiga-trust-m/optiga-trust-m-1/optiga/comms/ifx_i2c/ifx_i2c_presentation_layer.c ****                     *p_ctx->prl.p_recv_payload_buffer_length += (IFX_I2C_PRL_MAC_SIZE + IFX_I2C_PRL
 1545              	 .loc 1 922 0
 1546 06d4 E623     	 mov r3,#230
 1547 06d6 5B00     	 lsl r3,r3,#1
 1548 06d8 E158     	 ldr r1,[r4,r3]
 1549 06da 0B88     	 ldrh r3,[r1]
 1550 06dc 0D33     	 add r3,r3,#13
 1551 06de 0B80     	 strh r3,[r1]
 1552              	.L76:
 923://MAC/Home/Downloads/getstarted-optiga-trust-m/optiga-trust-m-1/optiga/comms/ifx_i2c/ifx_i2c_presentation_layer.c ****                 }
 924://MAC/Home/Downloads/getstarted-optiga-trust-m/optiga-trust-m-1/optiga/comms/ifx_i2c/ifx_i2c_presentation_layer.c ****                 p_ctx->prl.saved_sctr = p_ctx->prl.sctr;
 1553              	 .loc 1 924 0
 1554 06e0 E823     	 mov r3,#232
 1555 06e2 D227     	 mov r7,#210
 1556 06e4 5B00     	 lsl r3,r3,#1
 1557 06e6 E05C     	 ldrb r0,[r4,r3]
 1558 06e8 FF37     	 add r7,r7,#255
 1559 06ea E055     	 strb r0,[r4,r7]
 925://MAC/Home/Downloads/getstarted-optiga-trust-m/optiga-trust-m-1/optiga/comms/ifx_i2c/ifx_i2c_presentation_layer.c **** 
 926://MAC/Home/Downloads/getstarted-optiga-trust-m/optiga-trust-m-1/optiga/comms/ifx_i2c/ifx_i2c_presentation_layer.c ****                 if ((MASTER_PROTECTION == (p_ctx->protection_level & PRL_PROTECTION_MASK)) ||
 1560              	 .loc 1 926 0
 1561 06ec 1378     	 ldrb r3,[r2]
 1562 06ee 0122     	 mov r2,#1
 1563 06f0 1342     	 tst r3,r2
 1564 06f2 65D0     	 beq .L78
 927://MAC/Home/Downloads/getstarted-optiga-trust-m/optiga-trust-m-1/optiga/comms/ifx_i2c/ifx_i2c_presentation_layer.c ****                     (FULL_PROTECTION == (p_ctx->protection_level & PRL_PROTECTION_MASK)))
 928://MAC/Home/Downloads/getstarted-optiga-trust-m/optiga-trust-m-1/optiga/comms/ifx_i2c/ifx_i2c_presentation_layer.c ****                 {
 929://MAC/Home/Downloads/getstarted-optiga-trust-m/optiga-trust-m-1/optiga/comms/ifx_i2c/ifx_i2c_presentation_layer.c ****                     if ((PRL_SEQUENCE_THRESHOLD < (p_ctx->prl.master_sequence_number + 1)) &&
 1565              	 .loc 1 929 0
 1566 06f4 DA23     	 mov r3,#218
 1567 06f6 5B00     	 lsl r3,r3,#1
 1568 06f8 E358     	 ldr r3,[r4,r3]
 1569 06fa 9A18     	 add r2,r3,r2
 1570 06fc 1032     	 add r2,r2,#16
 1571 06fe 04D9     	 bls .L79
 930://MAC/Home/Downloads/getstarted-optiga-trust-m/optiga-trust-m-1/optiga/comms/ifx_i2c/ifx_i2c_presentation_layer.c ****                         (FALSE == p_ctx->prl.trans_repeat_status))
 1572              	 .loc 1 930 0 discriminator 1
 1573 0700 A822     	 mov r2,#168
 1574 0702 9200     	 lsl r2,r2,#2
 929://MAC/Home/Downloads/getstarted-optiga-trust-m/optiga-trust-m-1/optiga/comms/ifx_i2c/ifx_i2c_presentation_layer.c ****                         (FALSE == p_ctx->prl.trans_repeat_status))
 1575              	 .loc 1 929 0 discriminator 1
 1576 0704 A25C     	 ldrb r2,[r4,r2]
 1577 0706 002A     	 cmp r2,#0
 1578 0708 D9D0     	 beq .L80
 1579              	.L79:
 931://MAC/Home/Downloads/getstarted-optiga-trust-m/optiga-trust-m-1/optiga/comms/ifx_i2c/ifx_i2c_presentation_layer.c ****                     {
 932://MAC/Home/Downloads/getstarted-optiga-trust-m/optiga-trust-m-1/optiga/comms/ifx_i2c/ifx_i2c_presentation_layer.c ****                         DO_NEGOTIATION(p_ctx,exit_machine);
