   1              	 .cpu cortex-m0
   2              	 .fpu softvfp
   3              	 .eabi_attribute 20,1
   4              	 .eabi_attribute 21,1
   5              	 .eabi_attribute 23,3
   6              	 .eabi_attribute 24,1
   7              	 .eabi_attribute 25,1
   8              	 .eabi_attribute 26,1
   9              	 .eabi_attribute 30,4
  10              	 .eabi_attribute 34,0
  11              	 .eabi_attribute 18,4
  12              	 .code 16
  13              	 .file "ifx_i2c_transport_layer.c"
  14              	 .text
  15              	.Ltext0:
  16              	 .cfi_sections .debug_frame
  17              	 .section .text.ifx_i2c_tl_send_next_fragment,"ax",%progbits
  18              	 .align 1
  19              	 .code 16
  20              	 .thumb_func
  22              	ifx_i2c_tl_send_next_fragment:
  23              	.LFB4:
  24              	 .file 1 "C:/Workspace/DAVE-4.4.2-64Bit/optiga-trust-m/optiga/comms/ifx_i2c/ifx_i2c_transport_layer.c"
   1:C:/Workspace/DAVE-4.4.2-64Bit/optiga-trust-m/optiga/comms/ifx_i2c\ifx_i2c_transport_layer.c **** /**
   2:C:/Workspace/DAVE-4.4.2-64Bit/optiga-trust-m/optiga/comms/ifx_i2c\ifx_i2c_transport_layer.c **** * \copyright
   3:C:/Workspace/DAVE-4.4.2-64Bit/optiga-trust-m/optiga/comms/ifx_i2c\ifx_i2c_transport_layer.c **** * MIT License
   4:C:/Workspace/DAVE-4.4.2-64Bit/optiga-trust-m/optiga/comms/ifx_i2c\ifx_i2c_transport_layer.c **** *
   5:C:/Workspace/DAVE-4.4.2-64Bit/optiga-trust-m/optiga/comms/ifx_i2c\ifx_i2c_transport_layer.c **** * Copyright (c) 2019 Infineon Technologies AG
   6:C:/Workspace/DAVE-4.4.2-64Bit/optiga-trust-m/optiga/comms/ifx_i2c\ifx_i2c_transport_layer.c **** *
   7:C:/Workspace/DAVE-4.4.2-64Bit/optiga-trust-m/optiga/comms/ifx_i2c\ifx_i2c_transport_layer.c **** * Permission is hereby granted, free of charge, to any person obtaining a copy
   8:C:/Workspace/DAVE-4.4.2-64Bit/optiga-trust-m/optiga/comms/ifx_i2c\ifx_i2c_transport_layer.c **** * of this software and associated documentation files (the "Software"), to deal
   9:C:/Workspace/DAVE-4.4.2-64Bit/optiga-trust-m/optiga/comms/ifx_i2c\ifx_i2c_transport_layer.c **** * in the Software without restriction, including without limitation the rights
  10:C:/Workspace/DAVE-4.4.2-64Bit/optiga-trust-m/optiga/comms/ifx_i2c\ifx_i2c_transport_layer.c **** * to use, copy, modify, merge, publish, distribute, sublicense, and/or sell
  11:C:/Workspace/DAVE-4.4.2-64Bit/optiga-trust-m/optiga/comms/ifx_i2c\ifx_i2c_transport_layer.c **** * copies of the Software, and to permit persons to whom the Software is
  12:C:/Workspace/DAVE-4.4.2-64Bit/optiga-trust-m/optiga/comms/ifx_i2c\ifx_i2c_transport_layer.c **** * furnished to do so, subject to the following conditions:
  13:C:/Workspace/DAVE-4.4.2-64Bit/optiga-trust-m/optiga/comms/ifx_i2c\ifx_i2c_transport_layer.c **** *
  14:C:/Workspace/DAVE-4.4.2-64Bit/optiga-trust-m/optiga/comms/ifx_i2c\ifx_i2c_transport_layer.c **** * The above copyright notice and this permission notice shall be included in all
  15:C:/Workspace/DAVE-4.4.2-64Bit/optiga-trust-m/optiga/comms/ifx_i2c\ifx_i2c_transport_layer.c **** * copies or substantial portions of the Software.
  16:C:/Workspace/DAVE-4.4.2-64Bit/optiga-trust-m/optiga/comms/ifx_i2c\ifx_i2c_transport_layer.c **** *
  17:C:/Workspace/DAVE-4.4.2-64Bit/optiga-trust-m/optiga/comms/ifx_i2c\ifx_i2c_transport_layer.c **** * THE SOFTWARE IS PROVIDED "AS IS", WITHOUT WARRANTY OF ANY KIND, EXPRESS OR
  18:C:/Workspace/DAVE-4.4.2-64Bit/optiga-trust-m/optiga/comms/ifx_i2c\ifx_i2c_transport_layer.c **** * IMPLIED, INCLUDING BUT NOT LIMITED TO THE WARRANTIES OF MERCHANTABILITY,
  19:C:/Workspace/DAVE-4.4.2-64Bit/optiga-trust-m/optiga/comms/ifx_i2c\ifx_i2c_transport_layer.c **** * FITNESS FOR A PARTICULAR PURPOSE AND NONINFRINGEMENT. IN NO EVENT SHALL THE
  20:C:/Workspace/DAVE-4.4.2-64Bit/optiga-trust-m/optiga/comms/ifx_i2c\ifx_i2c_transport_layer.c **** * AUTHORS OR COPYRIGHT HOLDERS BE LIABLE FOR ANY CLAIM, DAMAGES OR OTHER
  21:C:/Workspace/DAVE-4.4.2-64Bit/optiga-trust-m/optiga/comms/ifx_i2c\ifx_i2c_transport_layer.c **** * LIABILITY, WHETHER IN AN ACTION OF CONTRACT, TORT OR OTHERWISE, ARISING FROM,
  22:C:/Workspace/DAVE-4.4.2-64Bit/optiga-trust-m/optiga/comms/ifx_i2c\ifx_i2c_transport_layer.c **** * OUT OF OR IN CONNECTION WITH THE SOFTWARE OR THE USE OR OTHER DEALINGS IN THE
  23:C:/Workspace/DAVE-4.4.2-64Bit/optiga-trust-m/optiga/comms/ifx_i2c\ifx_i2c_transport_layer.c **** * SOFTWARE
  24:C:/Workspace/DAVE-4.4.2-64Bit/optiga-trust-m/optiga/comms/ifx_i2c\ifx_i2c_transport_layer.c **** *
  25:C:/Workspace/DAVE-4.4.2-64Bit/optiga-trust-m/optiga/comms/ifx_i2c\ifx_i2c_transport_layer.c **** * \endcopyright
  26:C:/Workspace/DAVE-4.4.2-64Bit/optiga-trust-m/optiga/comms/ifx_i2c\ifx_i2c_transport_layer.c **** *
  27:C:/Workspace/DAVE-4.4.2-64Bit/optiga-trust-m/optiga/comms/ifx_i2c\ifx_i2c_transport_layer.c **** * \author Infineon Technologies AG
  28:C:/Workspace/DAVE-4.4.2-64Bit/optiga-trust-m/optiga/comms/ifx_i2c\ifx_i2c_transport_layer.c **** *
  29:C:/Workspace/DAVE-4.4.2-64Bit/optiga-trust-m/optiga/comms/ifx_i2c\ifx_i2c_transport_layer.c **** * \file ifx_i2c_transport_layer.c
  30:C:/Workspace/DAVE-4.4.2-64Bit/optiga-trust-m/optiga/comms/ifx_i2c\ifx_i2c_transport_layer.c **** *
  31:C:/Workspace/DAVE-4.4.2-64Bit/optiga-trust-m/optiga/comms/ifx_i2c\ifx_i2c_transport_layer.c **** * \brief   This file implements the APIs for transport layer of the Infineon I2C Protocol Stack lib
  32:C:/Workspace/DAVE-4.4.2-64Bit/optiga-trust-m/optiga/comms/ifx_i2c\ifx_i2c_transport_layer.c **** *
  33:C:/Workspace/DAVE-4.4.2-64Bit/optiga-trust-m/optiga/comms/ifx_i2c\ifx_i2c_transport_layer.c **** * \ingroup  grIFXI2C
  34:C:/Workspace/DAVE-4.4.2-64Bit/optiga-trust-m/optiga/comms/ifx_i2c\ifx_i2c_transport_layer.c **** *
  35:C:/Workspace/DAVE-4.4.2-64Bit/optiga-trust-m/optiga/comms/ifx_i2c\ifx_i2c_transport_layer.c **** * @{
  36:C:/Workspace/DAVE-4.4.2-64Bit/optiga-trust-m/optiga/comms/ifx_i2c\ifx_i2c_transport_layer.c **** */
  37:C:/Workspace/DAVE-4.4.2-64Bit/optiga-trust-m/optiga/comms/ifx_i2c\ifx_i2c_transport_layer.c **** 
  38:C:/Workspace/DAVE-4.4.2-64Bit/optiga-trust-m/optiga/comms/ifx_i2c\ifx_i2c_transport_layer.c **** #include "optiga/ifx_i2c/ifx_i2c_transport_layer.h"
  39:C:/Workspace/DAVE-4.4.2-64Bit/optiga-trust-m/optiga/comms/ifx_i2c\ifx_i2c_transport_layer.c **** #include "optiga/ifx_i2c/ifx_i2c_data_link_layer.h" // include lower layer header
  40:C:/Workspace/DAVE-4.4.2-64Bit/optiga-trust-m/optiga/comms/ifx_i2c\ifx_i2c_transport_layer.c **** 
  41:C:/Workspace/DAVE-4.4.2-64Bit/optiga-trust-m/optiga/comms/ifx_i2c\ifx_i2c_transport_layer.c **** /// @cond hidden
  42:C:/Workspace/DAVE-4.4.2-64Bit/optiga-trust-m/optiga/comms/ifx_i2c\ifx_i2c_transport_layer.c **** 
  43:C:/Workspace/DAVE-4.4.2-64Bit/optiga-trust-m/optiga/comms/ifx_i2c\ifx_i2c_transport_layer.c **** // Transport Layer states
  44:C:/Workspace/DAVE-4.4.2-64Bit/optiga-trust-m/optiga/comms/ifx_i2c\ifx_i2c_transport_layer.c **** #define TL_STATE_UNINIT                     (0x00)
  45:C:/Workspace/DAVE-4.4.2-64Bit/optiga-trust-m/optiga/comms/ifx_i2c\ifx_i2c_transport_layer.c **** #define TL_STATE_IDLE                       (0x01)
  46:C:/Workspace/DAVE-4.4.2-64Bit/optiga-trust-m/optiga/comms/ifx_i2c\ifx_i2c_transport_layer.c **** #define TL_STATE_TX                         (0x02)
  47:C:/Workspace/DAVE-4.4.2-64Bit/optiga-trust-m/optiga/comms/ifx_i2c\ifx_i2c_transport_layer.c **** #define TL_STATE_RX                         (0x04)
  48:C:/Workspace/DAVE-4.4.2-64Bit/optiga-trust-m/optiga/comms/ifx_i2c\ifx_i2c_transport_layer.c **** #define TL_STATE_CHAINING                   (0x05)
  49:C:/Workspace/DAVE-4.4.2-64Bit/optiga-trust-m/optiga/comms/ifx_i2c\ifx_i2c_transport_layer.c **** #define TL_STATE_ERROR                      (0x06)
  50:C:/Workspace/DAVE-4.4.2-64Bit/optiga-trust-m/optiga/comms/ifx_i2c\ifx_i2c_transport_layer.c **** #define TL_STATE_CHAINING_ERROR             (0x07)
  51:C:/Workspace/DAVE-4.4.2-64Bit/optiga-trust-m/optiga/comms/ifx_i2c\ifx_i2c_transport_layer.c **** #define TL_STATE_RESEND                     (0x08)
  52:C:/Workspace/DAVE-4.4.2-64Bit/optiga-trust-m/optiga/comms/ifx_i2c\ifx_i2c_transport_layer.c **** 
  53:C:/Workspace/DAVE-4.4.2-64Bit/optiga-trust-m/optiga/comms/ifx_i2c\ifx_i2c_transport_layer.c **** 
  54:C:/Workspace/DAVE-4.4.2-64Bit/optiga-trust-m/optiga/comms/ifx_i2c\ifx_i2c_transport_layer.c **** // Transport Layer chaining values
  55:C:/Workspace/DAVE-4.4.2-64Bit/optiga-trust-m/optiga/comms/ifx_i2c\ifx_i2c_transport_layer.c **** #define TL_CHAINING_NO                      (0x00)
  56:C:/Workspace/DAVE-4.4.2-64Bit/optiga-trust-m/optiga/comms/ifx_i2c\ifx_i2c_transport_layer.c **** #define TL_CHAINING_FIRST                   (0x01)
  57:C:/Workspace/DAVE-4.4.2-64Bit/optiga-trust-m/optiga/comms/ifx_i2c\ifx_i2c_transport_layer.c **** #define TL_CHAINING_INTERMEDIATE            (0x02)
  58:C:/Workspace/DAVE-4.4.2-64Bit/optiga-trust-m/optiga/comms/ifx_i2c\ifx_i2c_transport_layer.c **** #define TL_CHAINING_LAST                    (0x04)
  59:C:/Workspace/DAVE-4.4.2-64Bit/optiga-trust-m/optiga/comms/ifx_i2c\ifx_i2c_transport_layer.c **** #define TL_CHAINING_ERROR                   (0x07)
  60:C:/Workspace/DAVE-4.4.2-64Bit/optiga-trust-m/optiga/comms/ifx_i2c\ifx_i2c_transport_layer.c **** 
  61:C:/Workspace/DAVE-4.4.2-64Bit/optiga-trust-m/optiga/comms/ifx_i2c\ifx_i2c_transport_layer.c **** #define TL_PCTR_CHANNEL_MASK                (0xF8)
  62:C:/Workspace/DAVE-4.4.2-64Bit/optiga-trust-m/optiga/comms/ifx_i2c\ifx_i2c_transport_layer.c **** #define TL_PCTR_CHAIN_MASK                  (0x07)
  63:C:/Workspace/DAVE-4.4.2-64Bit/optiga-trust-m/optiga/comms/ifx_i2c\ifx_i2c_transport_layer.c **** #define TL_PCTR_INVALID                     (0xFF)
  64:C:/Workspace/DAVE-4.4.2-64Bit/optiga-trust-m/optiga/comms/ifx_i2c\ifx_i2c_transport_layer.c **** #define TL_PREVIOUS_CHAINING_STATUS         (0x02)
  65:C:/Workspace/DAVE-4.4.2-64Bit/optiga-trust-m/optiga/comms/ifx_i2c\ifx_i2c_transport_layer.c **** #define TL_CURRENT_CHAINING_STATUS          (0x08)
  66:C:/Workspace/DAVE-4.4.2-64Bit/optiga-trust-m/optiga/comms/ifx_i2c\ifx_i2c_transport_layer.c **** // Setup debug log statements
  67:C:/Workspace/DAVE-4.4.2-64Bit/optiga-trust-m/optiga/comms/ifx_i2c\ifx_i2c_transport_layer.c **** #if IFX_I2C_LOG_TL == 1
  68:C:/Workspace/DAVE-4.4.2-64Bit/optiga-trust-m/optiga/comms/ifx_i2c\ifx_i2c_transport_layer.c **** #define LOG_TL IFX_I2C_LOG
  69:C:/Workspace/DAVE-4.4.2-64Bit/optiga-trust-m/optiga/comms/ifx_i2c\ifx_i2c_transport_layer.c **** #else
  70:C:/Workspace/DAVE-4.4.2-64Bit/optiga-trust-m/optiga/comms/ifx_i2c\ifx_i2c_transport_layer.c **** #define LOG_TL(...)    //printf(__VA_ARGS__);
  71:C:/Workspace/DAVE-4.4.2-64Bit/optiga-trust-m/optiga/comms/ifx_i2c\ifx_i2c_transport_layer.c **** #endif
  72:C:/Workspace/DAVE-4.4.2-64Bit/optiga-trust-m/optiga/comms/ifx_i2c\ifx_i2c_transport_layer.c **** 
  73:C:/Workspace/DAVE-4.4.2-64Bit/optiga-trust-m/optiga/comms/ifx_i2c\ifx_i2c_transport_layer.c **** static uint8_t g_pctr_states_table[TL_CURRENT_CHAINING_STATUS][TL_PREVIOUS_CHAINING_STATUS] = {
  74:C:/Workspace/DAVE-4.4.2-64Bit/optiga-trust-m/optiga/comms/ifx_i2c\ifx_i2c_transport_layer.c ****                                                                                               {TL_C
  75:C:/Workspace/DAVE-4.4.2-64Bit/optiga-trust-m/optiga/comms/ifx_i2c\ifx_i2c_transport_layer.c ****                                                                                               {TL_C
  76:C:/Workspace/DAVE-4.4.2-64Bit/optiga-trust-m/optiga/comms/ifx_i2c\ifx_i2c_transport_layer.c ****                                                                                               {TL_C
  77:C:/Workspace/DAVE-4.4.2-64Bit/optiga-trust-m/optiga/comms/ifx_i2c\ifx_i2c_transport_layer.c ****                                                                                               {TL_P
  78:C:/Workspace/DAVE-4.4.2-64Bit/optiga-trust-m/optiga/comms/ifx_i2c\ifx_i2c_transport_layer.c ****                                                                                               {TL_C
  79:C:/Workspace/DAVE-4.4.2-64Bit/optiga-trust-m/optiga/comms/ifx_i2c\ifx_i2c_transport_layer.c ****                                                                                               {TL_P
  80:C:/Workspace/DAVE-4.4.2-64Bit/optiga-trust-m/optiga/comms/ifx_i2c\ifx_i2c_transport_layer.c ****                                                                                               {TL_P
  81:C:/Workspace/DAVE-4.4.2-64Bit/optiga-trust-m/optiga/comms/ifx_i2c\ifx_i2c_transport_layer.c ****                                                                                               {TL_C
  82:C:/Workspace/DAVE-4.4.2-64Bit/optiga-trust-m/optiga/comms/ifx_i2c\ifx_i2c_transport_layer.c ****                                                                                               };
  83:C:/Workspace/DAVE-4.4.2-64Bit/optiga-trust-m/optiga/comms/ifx_i2c\ifx_i2c_transport_layer.c **** 
  84:C:/Workspace/DAVE-4.4.2-64Bit/optiga-trust-m/optiga/comms/ifx_i2c\ifx_i2c_transport_layer.c **** _STATIC_H optiga_lib_status_t ifx_i2c_tl_send_next_fragment(ifx_i2c_context_t * p_ctx);
  85:C:/Workspace/DAVE-4.4.2-64Bit/optiga-trust-m/optiga/comms/ifx_i2c\ifx_i2c_transport_layer.c **** _STATIC_H void ifx_i2c_dl_event_handler(ifx_i2c_context_t * p_ctx,
  86:C:/Workspace/DAVE-4.4.2-64Bit/optiga-trust-m/optiga/comms/ifx_i2c\ifx_i2c_transport_layer.c ****                                         optiga_lib_status_t event,
  87:C:/Workspace/DAVE-4.4.2-64Bit/optiga-trust-m/optiga/comms/ifx_i2c\ifx_i2c_transport_layer.c ****                                         const uint8_t * p_data,
  88:C:/Workspace/DAVE-4.4.2-64Bit/optiga-trust-m/optiga/comms/ifx_i2c\ifx_i2c_transport_layer.c ****                                         uint16_t data_len);
  89:C:/Workspace/DAVE-4.4.2-64Bit/optiga-trust-m/optiga/comms/ifx_i2c\ifx_i2c_transport_layer.c **** _STATIC_H optiga_lib_status_t ifx_i2c_tl_resend_packets(ifx_i2c_context_t * p_ctx);
  90:C:/Workspace/DAVE-4.4.2-64Bit/optiga-trust-m/optiga/comms/ifx_i2c\ifx_i2c_transport_layer.c **** _STATIC_H optiga_lib_status_t ifx_i2c_tl_send_chaining_error(ifx_i2c_context_t * p_ctx);
  91:C:/Workspace/DAVE-4.4.2-64Bit/optiga-trust-m/optiga/comms/ifx_i2c\ifx_i2c_transport_layer.c **** _STATIC_H uint8_t ifx_i2c_tl_calculate_pctr(const ifx_i2c_context_t * p_ctx);
  92:C:/Workspace/DAVE-4.4.2-64Bit/optiga-trust-m/optiga/comms/ifx_i2c\ifx_i2c_transport_layer.c **** _STATIC_H optiga_lib_status_t ifx_i2c_tl_check_chaining_error(uint8_t current_chaning, uint8_t prev
  93:C:/Workspace/DAVE-4.4.2-64Bit/optiga-trust-m/optiga/comms/ifx_i2c\ifx_i2c_transport_layer.c **** /// @endcond
  94:C:/Workspace/DAVE-4.4.2-64Bit/optiga-trust-m/optiga/comms/ifx_i2c\ifx_i2c_transport_layer.c **** 
  95:C:/Workspace/DAVE-4.4.2-64Bit/optiga-trust-m/optiga/comms/ifx_i2c\ifx_i2c_transport_layer.c **** optiga_lib_status_t ifx_i2c_tl_init(ifx_i2c_context_t * p_ctx, ifx_i2c_event_handler_t handler)
  96:C:/Workspace/DAVE-4.4.2-64Bit/optiga-trust-m/optiga/comms/ifx_i2c\ifx_i2c_transport_layer.c **** {
  97:C:/Workspace/DAVE-4.4.2-64Bit/optiga-trust-m/optiga/comms/ifx_i2c\ifx_i2c_transport_layer.c ****     LOG_TL("[IFX-TL]: Init\n");
  98:C:/Workspace/DAVE-4.4.2-64Bit/optiga-trust-m/optiga/comms/ifx_i2c\ifx_i2c_transport_layer.c **** 
  99:C:/Workspace/DAVE-4.4.2-64Bit/optiga-trust-m/optiga/comms/ifx_i2c\ifx_i2c_transport_layer.c ****     p_ctx->tl.state = TL_STATE_UNINIT;
 100:C:/Workspace/DAVE-4.4.2-64Bit/optiga-trust-m/optiga/comms/ifx_i2c\ifx_i2c_transport_layer.c **** 
 101:C:/Workspace/DAVE-4.4.2-64Bit/optiga-trust-m/optiga/comms/ifx_i2c\ifx_i2c_transport_layer.c ****     // Initialize Data Link layer (and register event handler)
 102:C:/Workspace/DAVE-4.4.2-64Bit/optiga-trust-m/optiga/comms/ifx_i2c\ifx_i2c_transport_layer.c ****     if (IFX_I2C_STACK_SUCCESS != ifx_i2c_dl_init(p_ctx, ifx_i2c_dl_event_handler))
 103:C:/Workspace/DAVE-4.4.2-64Bit/optiga-trust-m/optiga/comms/ifx_i2c\ifx_i2c_transport_layer.c ****     {
 104:C:/Workspace/DAVE-4.4.2-64Bit/optiga-trust-m/optiga/comms/ifx_i2c\ifx_i2c_transport_layer.c ****         return (IFX_I2C_STACK_ERROR);
 105:C:/Workspace/DAVE-4.4.2-64Bit/optiga-trust-m/optiga/comms/ifx_i2c\ifx_i2c_transport_layer.c ****     }
 106:C:/Workspace/DAVE-4.4.2-64Bit/optiga-trust-m/optiga/comms/ifx_i2c\ifx_i2c_transport_layer.c ****     p_ctx->tl.initialization_state = TRUE;
 107:C:/Workspace/DAVE-4.4.2-64Bit/optiga-trust-m/optiga/comms/ifx_i2c\ifx_i2c_transport_layer.c ****     p_ctx->tl.upper_layer_event_handler = handler;
 108:C:/Workspace/DAVE-4.4.2-64Bit/optiga-trust-m/optiga/comms/ifx_i2c\ifx_i2c_transport_layer.c ****     p_ctx->tl.state = TL_STATE_IDLE;
 109:C:/Workspace/DAVE-4.4.2-64Bit/optiga-trust-m/optiga/comms/ifx_i2c\ifx_i2c_transport_layer.c ****     p_ctx->tl.max_packet_length = p_ctx->frame_size - (DL_HEADER_SIZE + TL_HEADER_SIZE);
 110:C:/Workspace/DAVE-4.4.2-64Bit/optiga-trust-m/optiga/comms/ifx_i2c\ifx_i2c_transport_layer.c **** 
 111:C:/Workspace/DAVE-4.4.2-64Bit/optiga-trust-m/optiga/comms/ifx_i2c\ifx_i2c_transport_layer.c ****     return (IFX_I2C_STACK_SUCCESS);
 112:C:/Workspace/DAVE-4.4.2-64Bit/optiga-trust-m/optiga/comms/ifx_i2c\ifx_i2c_transport_layer.c **** }
 113:C:/Workspace/DAVE-4.4.2-64Bit/optiga-trust-m/optiga/comms/ifx_i2c\ifx_i2c_transport_layer.c **** 
 114:C:/Workspace/DAVE-4.4.2-64Bit/optiga-trust-m/optiga/comms/ifx_i2c\ifx_i2c_transport_layer.c **** 
 115:C:/Workspace/DAVE-4.4.2-64Bit/optiga-trust-m/optiga/comms/ifx_i2c\ifx_i2c_transport_layer.c **** optiga_lib_status_t ifx_i2c_tl_transceive(ifx_i2c_context_t * p_ctx,
 116:C:/Workspace/DAVE-4.4.2-64Bit/optiga-trust-m/optiga/comms/ifx_i2c\ifx_i2c_transport_layer.c ****                                           uint8_t * p_packet,
 117:C:/Workspace/DAVE-4.4.2-64Bit/optiga-trust-m/optiga/comms/ifx_i2c\ifx_i2c_transport_layer.c ****                                           uint16_t packet_len,
 118:C:/Workspace/DAVE-4.4.2-64Bit/optiga-trust-m/optiga/comms/ifx_i2c\ifx_i2c_transport_layer.c ****                                           uint8_t * p_recv_packet,
 119:C:/Workspace/DAVE-4.4.2-64Bit/optiga-trust-m/optiga/comms/ifx_i2c\ifx_i2c_transport_layer.c ****                                           uint16_t * p_recv_packet_len)
 120:C:/Workspace/DAVE-4.4.2-64Bit/optiga-trust-m/optiga/comms/ifx_i2c\ifx_i2c_transport_layer.c **** {
 121:C:/Workspace/DAVE-4.4.2-64Bit/optiga-trust-m/optiga/comms/ifx_i2c\ifx_i2c_transport_layer.c ****     optiga_lib_status_t status = IFX_I2C_STACK_ERROR;
 122:C:/Workspace/DAVE-4.4.2-64Bit/optiga-trust-m/optiga/comms/ifx_i2c\ifx_i2c_transport_layer.c ****     LOG_TL("[IFX-TL]: Transceive txlen %d\n", packet_len);
 123:C:/Workspace/DAVE-4.4.2-64Bit/optiga-trust-m/optiga/comms/ifx_i2c\ifx_i2c_transport_layer.c **** 
 124:C:/Workspace/DAVE-4.4.2-64Bit/optiga-trust-m/optiga/comms/ifx_i2c\ifx_i2c_transport_layer.c ****     do
 125:C:/Workspace/DAVE-4.4.2-64Bit/optiga-trust-m/optiga/comms/ifx_i2c\ifx_i2c_transport_layer.c ****     {
 126:C:/Workspace/DAVE-4.4.2-64Bit/optiga-trust-m/optiga/comms/ifx_i2c\ifx_i2c_transport_layer.c ****         // Check function arguments
 127:C:/Workspace/DAVE-4.4.2-64Bit/optiga-trust-m/optiga/comms/ifx_i2c\ifx_i2c_transport_layer.c ****         if ((NULL == p_packet) || (0 == packet_len))
 128:C:/Workspace/DAVE-4.4.2-64Bit/optiga-trust-m/optiga/comms/ifx_i2c\ifx_i2c_transport_layer.c ****         {
 129:C:/Workspace/DAVE-4.4.2-64Bit/optiga-trust-m/optiga/comms/ifx_i2c\ifx_i2c_transport_layer.c ****             break;
 130:C:/Workspace/DAVE-4.4.2-64Bit/optiga-trust-m/optiga/comms/ifx_i2c\ifx_i2c_transport_layer.c ****         }
 131:C:/Workspace/DAVE-4.4.2-64Bit/optiga-trust-m/optiga/comms/ifx_i2c\ifx_i2c_transport_layer.c ****         // Transport Layer must be idle
 132:C:/Workspace/DAVE-4.4.2-64Bit/optiga-trust-m/optiga/comms/ifx_i2c\ifx_i2c_transport_layer.c ****         if (TL_STATE_IDLE != p_ctx->tl.state)
 133:C:/Workspace/DAVE-4.4.2-64Bit/optiga-trust-m/optiga/comms/ifx_i2c\ifx_i2c_transport_layer.c ****         {
 134:C:/Workspace/DAVE-4.4.2-64Bit/optiga-trust-m/optiga/comms/ifx_i2c\ifx_i2c_transport_layer.c ****             break;
 135:C:/Workspace/DAVE-4.4.2-64Bit/optiga-trust-m/optiga/comms/ifx_i2c\ifx_i2c_transport_layer.c ****         }
 136:C:/Workspace/DAVE-4.4.2-64Bit/optiga-trust-m/optiga/comms/ifx_i2c\ifx_i2c_transport_layer.c ****         p_ctx->tl.state = TL_STATE_TX;
 137:C:/Workspace/DAVE-4.4.2-64Bit/optiga-trust-m/optiga/comms/ifx_i2c\ifx_i2c_transport_layer.c ****         p_ctx->tl.api_start_time = pal_os_timer_get_time_in_milliseconds();
 138:C:/Workspace/DAVE-4.4.2-64Bit/optiga-trust-m/optiga/comms/ifx_i2c\ifx_i2c_transport_layer.c ****         p_ctx->tl.p_actual_packet = p_packet;
 139:C:/Workspace/DAVE-4.4.2-64Bit/optiga-trust-m/optiga/comms/ifx_i2c\ifx_i2c_transport_layer.c ****         p_ctx->tl.actual_packet_length = packet_len;
 140:C:/Workspace/DAVE-4.4.2-64Bit/optiga-trust-m/optiga/comms/ifx_i2c\ifx_i2c_transport_layer.c ****         p_ctx->tl.packet_offset = 0;
 141:C:/Workspace/DAVE-4.4.2-64Bit/optiga-trust-m/optiga/comms/ifx_i2c\ifx_i2c_transport_layer.c ****         p_ctx->tl.p_recv_packet_buffer = p_recv_packet;
 142:C:/Workspace/DAVE-4.4.2-64Bit/optiga-trust-m/optiga/comms/ifx_i2c\ifx_i2c_transport_layer.c ****         p_ctx->tl.p_recv_packet_buffer_length = p_recv_packet_len;
 143:C:/Workspace/DAVE-4.4.2-64Bit/optiga-trust-m/optiga/comms/ifx_i2c\ifx_i2c_transport_layer.c ****         p_ctx->tl.total_recv_length = 0;
 144:C:/Workspace/DAVE-4.4.2-64Bit/optiga-trust-m/optiga/comms/ifx_i2c\ifx_i2c_transport_layer.c ****         p_ctx->tl.chaining_error_count = 0;
 145:C:/Workspace/DAVE-4.4.2-64Bit/optiga-trust-m/optiga/comms/ifx_i2c\ifx_i2c_transport_layer.c ****         p_ctx->tl.master_chaining_error_count = 0;
 146:C:/Workspace/DAVE-4.4.2-64Bit/optiga-trust-m/optiga/comms/ifx_i2c\ifx_i2c_transport_layer.c ****         p_ctx->tl.transmission_completed = 0;
 147:C:/Workspace/DAVE-4.4.2-64Bit/optiga-trust-m/optiga/comms/ifx_i2c\ifx_i2c_transport_layer.c ****         p_ctx->tl.error_event = IFX_I2C_STACK_ERROR;
 148:C:/Workspace/DAVE-4.4.2-64Bit/optiga-trust-m/optiga/comms/ifx_i2c\ifx_i2c_transport_layer.c ****         status = ifx_i2c_tl_send_next_fragment(p_ctx);
 149:C:/Workspace/DAVE-4.4.2-64Bit/optiga-trust-m/optiga/comms/ifx_i2c\ifx_i2c_transport_layer.c ****     } while (FALSE);
 150:C:/Workspace/DAVE-4.4.2-64Bit/optiga-trust-m/optiga/comms/ifx_i2c\ifx_i2c_transport_layer.c ****     return (status);
 151:C:/Workspace/DAVE-4.4.2-64Bit/optiga-trust-m/optiga/comms/ifx_i2c\ifx_i2c_transport_layer.c **** }
 152:C:/Workspace/DAVE-4.4.2-64Bit/optiga-trust-m/optiga/comms/ifx_i2c\ifx_i2c_transport_layer.c **** 
 153:C:/Workspace/DAVE-4.4.2-64Bit/optiga-trust-m/optiga/comms/ifx_i2c\ifx_i2c_transport_layer.c **** 
 154:C:/Workspace/DAVE-4.4.2-64Bit/optiga-trust-m/optiga/comms/ifx_i2c\ifx_i2c_transport_layer.c **** _STATIC_H optiga_lib_status_t ifx_i2c_tl_resend_packets(ifx_i2c_context_t * p_ctx)
 155:C:/Workspace/DAVE-4.4.2-64Bit/optiga-trust-m/optiga/comms/ifx_i2c\ifx_i2c_transport_layer.c **** {
 156:C:/Workspace/DAVE-4.4.2-64Bit/optiga-trust-m/optiga/comms/ifx_i2c\ifx_i2c_transport_layer.c ****     // Transport Layer must be idle
 157:C:/Workspace/DAVE-4.4.2-64Bit/optiga-trust-m/optiga/comms/ifx_i2c\ifx_i2c_transport_layer.c ****     if (TL_STATE_IDLE != p_ctx->tl.state)
 158:C:/Workspace/DAVE-4.4.2-64Bit/optiga-trust-m/optiga/comms/ifx_i2c\ifx_i2c_transport_layer.c ****     {
 159:C:/Workspace/DAVE-4.4.2-64Bit/optiga-trust-m/optiga/comms/ifx_i2c\ifx_i2c_transport_layer.c ****         return (IFX_I2C_STACK_ERROR);
 160:C:/Workspace/DAVE-4.4.2-64Bit/optiga-trust-m/optiga/comms/ifx_i2c\ifx_i2c_transport_layer.c ****     }
 161:C:/Workspace/DAVE-4.4.2-64Bit/optiga-trust-m/optiga/comms/ifx_i2c\ifx_i2c_transport_layer.c **** 
 162:C:/Workspace/DAVE-4.4.2-64Bit/optiga-trust-m/optiga/comms/ifx_i2c\ifx_i2c_transport_layer.c ****     p_ctx->tl.packet_offset = 0;
 163:C:/Workspace/DAVE-4.4.2-64Bit/optiga-trust-m/optiga/comms/ifx_i2c\ifx_i2c_transport_layer.c ****     p_ctx->tl.total_recv_length = 0;
 164:C:/Workspace/DAVE-4.4.2-64Bit/optiga-trust-m/optiga/comms/ifx_i2c\ifx_i2c_transport_layer.c ****     p_ctx->tl.state = TL_STATE_TX;
 165:C:/Workspace/DAVE-4.4.2-64Bit/optiga-trust-m/optiga/comms/ifx_i2c\ifx_i2c_transport_layer.c ****     return (ifx_i2c_tl_send_next_fragment(p_ctx));
 166:C:/Workspace/DAVE-4.4.2-64Bit/optiga-trust-m/optiga/comms/ifx_i2c\ifx_i2c_transport_layer.c **** }
 167:C:/Workspace/DAVE-4.4.2-64Bit/optiga-trust-m/optiga/comms/ifx_i2c\ifx_i2c_transport_layer.c **** 
 168:C:/Workspace/DAVE-4.4.2-64Bit/optiga-trust-m/optiga/comms/ifx_i2c\ifx_i2c_transport_layer.c **** _STATIC_H uint8_t ifx_i2c_tl_calculate_pctr(const ifx_i2c_context_t * p_ctx)
 169:C:/Workspace/DAVE-4.4.2-64Bit/optiga-trust-m/optiga/comms/ifx_i2c\ifx_i2c_transport_layer.c **** {
 170:C:/Workspace/DAVE-4.4.2-64Bit/optiga-trust-m/optiga/comms/ifx_i2c\ifx_i2c_transport_layer.c ****     uint8_t pctr;
 171:C:/Workspace/DAVE-4.4.2-64Bit/optiga-trust-m/optiga/comms/ifx_i2c\ifx_i2c_transport_layer.c ****     uint16_t fragment_size = p_ctx->tl.max_packet_length;
 172:C:/Workspace/DAVE-4.4.2-64Bit/optiga-trust-m/optiga/comms/ifx_i2c\ifx_i2c_transport_layer.c ****     uint16_t remaining_data = p_ctx->tl.actual_packet_length - p_ctx->tl.packet_offset;
 173:C:/Workspace/DAVE-4.4.2-64Bit/optiga-trust-m/optiga/comms/ifx_i2c\ifx_i2c_transport_layer.c ****     // No chain
 174:C:/Workspace/DAVE-4.4.2-64Bit/optiga-trust-m/optiga/comms/ifx_i2c\ifx_i2c_transport_layer.c ****     if ((0 == p_ctx->tl.packet_offset) && (remaining_data <= fragment_size))
 175:C:/Workspace/DAVE-4.4.2-64Bit/optiga-trust-m/optiga/comms/ifx_i2c\ifx_i2c_transport_layer.c ****     {
 176:C:/Workspace/DAVE-4.4.2-64Bit/optiga-trust-m/optiga/comms/ifx_i2c\ifx_i2c_transport_layer.c ****         pctr = TL_CHAINING_NO;
 177:C:/Workspace/DAVE-4.4.2-64Bit/optiga-trust-m/optiga/comms/ifx_i2c\ifx_i2c_transport_layer.c ****     }
 178:C:/Workspace/DAVE-4.4.2-64Bit/optiga-trust-m/optiga/comms/ifx_i2c\ifx_i2c_transport_layer.c ****     // First chain
 179:C:/Workspace/DAVE-4.4.2-64Bit/optiga-trust-m/optiga/comms/ifx_i2c\ifx_i2c_transport_layer.c ****     else if ((0 == p_ctx->tl.packet_offset) && (remaining_data > fragment_size))
 180:C:/Workspace/DAVE-4.4.2-64Bit/optiga-trust-m/optiga/comms/ifx_i2c\ifx_i2c_transport_layer.c ****     {
 181:C:/Workspace/DAVE-4.4.2-64Bit/optiga-trust-m/optiga/comms/ifx_i2c\ifx_i2c_transport_layer.c ****         pctr = TL_CHAINING_FIRST;
 182:C:/Workspace/DAVE-4.4.2-64Bit/optiga-trust-m/optiga/comms/ifx_i2c\ifx_i2c_transport_layer.c ****     }
 183:C:/Workspace/DAVE-4.4.2-64Bit/optiga-trust-m/optiga/comms/ifx_i2c\ifx_i2c_transport_layer.c ****     // Intermediate chain
 184:C:/Workspace/DAVE-4.4.2-64Bit/optiga-trust-m/optiga/comms/ifx_i2c\ifx_i2c_transport_layer.c ****     else if ((0 != p_ctx->tl.packet_offset) && (remaining_data > fragment_size))
 185:C:/Workspace/DAVE-4.4.2-64Bit/optiga-trust-m/optiga/comms/ifx_i2c\ifx_i2c_transport_layer.c ****     {
 186:C:/Workspace/DAVE-4.4.2-64Bit/optiga-trust-m/optiga/comms/ifx_i2c\ifx_i2c_transport_layer.c ****         pctr = TL_CHAINING_INTERMEDIATE;
 187:C:/Workspace/DAVE-4.4.2-64Bit/optiga-trust-m/optiga/comms/ifx_i2c\ifx_i2c_transport_layer.c ****     }
 188:C:/Workspace/DAVE-4.4.2-64Bit/optiga-trust-m/optiga/comms/ifx_i2c\ifx_i2c_transport_layer.c ****     // Last chain
 189:C:/Workspace/DAVE-4.4.2-64Bit/optiga-trust-m/optiga/comms/ifx_i2c\ifx_i2c_transport_layer.c ****     else
 190:C:/Workspace/DAVE-4.4.2-64Bit/optiga-trust-m/optiga/comms/ifx_i2c\ifx_i2c_transport_layer.c ****     {
 191:C:/Workspace/DAVE-4.4.2-64Bit/optiga-trust-m/optiga/comms/ifx_i2c\ifx_i2c_transport_layer.c ****         pctr = TL_CHAINING_LAST;
 192:C:/Workspace/DAVE-4.4.2-64Bit/optiga-trust-m/optiga/comms/ifx_i2c\ifx_i2c_transport_layer.c ****     }
 193:C:/Workspace/DAVE-4.4.2-64Bit/optiga-trust-m/optiga/comms/ifx_i2c\ifx_i2c_transport_layer.c **** 
 194:C:/Workspace/DAVE-4.4.2-64Bit/optiga-trust-m/optiga/comms/ifx_i2c\ifx_i2c_transport_layer.c ****     return (pctr);
 195:C:/Workspace/DAVE-4.4.2-64Bit/optiga-trust-m/optiga/comms/ifx_i2c\ifx_i2c_transport_layer.c **** }
 196:C:/Workspace/DAVE-4.4.2-64Bit/optiga-trust-m/optiga/comms/ifx_i2c\ifx_i2c_transport_layer.c **** _STATIC_H optiga_lib_status_t ifx_i2c_tl_send_next_fragment(ifx_i2c_context_t * p_ctx)
 197:C:/Workspace/DAVE-4.4.2-64Bit/optiga-trust-m/optiga/comms/ifx_i2c\ifx_i2c_transport_layer.c **** {
  25              	 .loc 1 197 0
  26              	 .cfi_startproc
  27              	.LVL0:
  28 0000 F8B5     	 push {r3,r4,r5,r6,r7,lr}
  29              	.LCFI0:
  30              	 .cfi_def_cfa_offset 24
  31              	 .cfi_offset 3,-24
  32              	 .cfi_offset 4,-20
  33              	 .cfi_offset 5,-16
  34              	 .cfi_offset 6,-12
  35              	 .cfi_offset 7,-8
  36              	 .cfi_offset 14,-4
  37              	.LBB4:
  38              	.LBB5:
 172:C:/Workspace/DAVE-4.4.2-64Bit/optiga-trust-m/optiga/comms/ifx_i2c\ifx_i2c_transport_layer.c ****     // No chain
  39              	 .loc 1 172 0
  40 0002 871C     	 add r7,r0,#2
  41 0004 C28F     	 ldrh r2,[r0,#62]
  42 0006 FE8F     	 ldrh r6,[r7,#62]
  43              	.LBE5:
  44              	.LBE4:
 198:C:/Workspace/DAVE-4.4.2-64Bit/optiga-trust-m/optiga/comms/ifx_i2c\ifx_i2c_transport_layer.c ****     uint8_t pctr = 0;
 199:C:/Workspace/DAVE-4.4.2-64Bit/optiga-trust-m/optiga/comms/ifx_i2c\ifx_i2c_transport_layer.c ****     // Calculate size of fragment (last one might be shorter)
 200:C:/Workspace/DAVE-4.4.2-64Bit/optiga-trust-m/optiga/comms/ifx_i2c\ifx_i2c_transport_layer.c ****     uint16_t tl_fragment_size = p_ctx->tl.max_packet_length;
  45              	 .loc 1 200 0
  46 0008 031D     	 add r3,r0,#4
  47              	.LBB9:
  48              	.LBB6:
 172:C:/Workspace/DAVE-4.4.2-64Bit/optiga-trust-m/optiga/comms/ifx_i2c\ifx_i2c_transport_layer.c ****     // No chain
  49              	 .loc 1 172 0
  50 000a 921B     	 sub r2,r2,r6
  51              	.LBE6:
  52              	.LBE9:
 197:C:/Workspace/DAVE-4.4.2-64Bit/optiga-trust-m/optiga/comms/ifx_i2c\ifx_i2c_transport_layer.c ****     uint8_t pctr = 0;
  53              	 .loc 1 197 0
  54 000c 051C     	 mov r5,r0
  55              	 .loc 1 200 0
  56 000e DC8F     	 ldrh r4,[r3,#62]
  57              	.LVL1:
  58              	.LBB10:
  59              	.LBB7:
 172:C:/Workspace/DAVE-4.4.2-64Bit/optiga-trust-m/optiga/comms/ifx_i2c\ifx_i2c_transport_layer.c ****     // No chain
  60              	 .loc 1 172 0
  61 0010 91B2     	 uxth r1,r2
  62              	.LVL2:
 174:C:/Workspace/DAVE-4.4.2-64Bit/optiga-trust-m/optiga/comms/ifx_i2c\ifx_i2c_transport_layer.c ****     {
  63              	 .loc 1 174 0
  64 0012 002E     	 cmp r6,#0
  65 0014 03D1     	 bne .L2
 176:C:/Workspace/DAVE-4.4.2-64Bit/optiga-trust-m/optiga/comms/ifx_i2c\ifx_i2c_transport_layer.c ****     }
  66              	 .loc 1 176 0
  67 0016 8C42     	 cmp r4,r1
  68 0018 9B41     	 sbc r3,r3,r3
  69 001a 5B42     	 neg r3,r3
  70 001c 03E0     	 b .L3
  71              	.L2:
 191:C:/Workspace/DAVE-4.4.2-64Bit/optiga-trust-m/optiga/comms/ifx_i2c\ifx_i2c_transport_layer.c ****     }
  72              	 .loc 1 191 0
  73 001e 0423     	 mov r3,#4
 184:C:/Workspace/DAVE-4.4.2-64Bit/optiga-trust-m/optiga/comms/ifx_i2c\ifx_i2c_transport_layer.c ****     {
  74              	 .loc 1 184 0
  75 0020 A142     	 cmp r1,r4
  76 0022 00D9     	 bls .L3
 186:C:/Workspace/DAVE-4.4.2-64Bit/optiga-trust-m/optiga/comms/ifx_i2c\ifx_i2c_transport_layer.c ****     }
  77              	 .loc 1 186 0
  78 0024 023B     	 sub r3,r3,#2
  79              	.L3:
  80              	.LVL3:
  81              	.LBE7:
  82              	.LBE10:
 201:C:/Workspace/DAVE-4.4.2-64Bit/optiga-trust-m/optiga/comms/ifx_i2c\ifx_i2c_transport_layer.c ****     pctr = ifx_i2c_tl_calculate_pctr(p_ctx);
 202:C:/Workspace/DAVE-4.4.2-64Bit/optiga-trust-m/optiga/comms/ifx_i2c\ifx_i2c_transport_layer.c ****     if ((p_ctx->tl.actual_packet_length - p_ctx->tl.packet_offset) < tl_fragment_size)
  83              	 .loc 1 202 0
  84 0026 A242     	 cmp r2,r4
  85 0028 00DA     	 bge .L4
  86              	.LBB11:
  87              	.LBB8:
 172:C:/Workspace/DAVE-4.4.2-64Bit/optiga-trust-m/optiga/comms/ifx_i2c\ifx_i2c_transport_layer.c ****     // No chain
  88              	 .loc 1 172 0
  89 002a 0C1C     	 mov r4,r1
  90              	.LVL4:
  91              	.L4:
  92              	.LBE8:
  93              	.LBE11:
 203:C:/Workspace/DAVE-4.4.2-64Bit/optiga-trust-m/optiga/comms/ifx_i2c\ifx_i2c_transport_layer.c ****     {
 204:C:/Workspace/DAVE-4.4.2-64Bit/optiga-trust-m/optiga/comms/ifx_i2c\ifx_i2c_transport_layer.c ****         tl_fragment_size = p_ctx->tl.actual_packet_length - p_ctx->tl.packet_offset;
 205:C:/Workspace/DAVE-4.4.2-64Bit/optiga-trust-m/optiga/comms/ifx_i2c\ifx_i2c_transport_layer.c ****     }
 206:C:/Workspace/DAVE-4.4.2-64Bit/optiga-trust-m/optiga/comms/ifx_i2c\ifx_i2c_transport_layer.c ****     // Assign the pctr
 207:C:/Workspace/DAVE-4.4.2-64Bit/optiga-trust-m/optiga/comms/ifx_i2c\ifx_i2c_transport_layer.c ****     p_ctx->tx_frame_buffer[IFX_I2C_TL_HEADER_OFFSET] = (pctr | IFX_I2C_PRESENCE_BIT);
  94              	 .loc 1 207 0
  95 002c 0822     	 mov r2,#8
  96 002e 1343     	 orr r3,r2
  97              	.LVL5:
  98 0030 084A     	 ldr r2,.L7
 208:C:/Workspace/DAVE-4.4.2-64Bit/optiga-trust-m/optiga/comms/ifx_i2c\ifx_i2c_transport_layer.c ****     //copy the data
 209:C:/Workspace/DAVE-4.4.2-64Bit/optiga-trust-m/optiga/comms/ifx_i2c\ifx_i2c_transport_layer.c ****     memcpy(p_ctx->tx_frame_buffer+IFX_I2C_TL_HEADER_OFFSET + 1,
 210:C:/Workspace/DAVE-4.4.2-64Bit/optiga-trust-m/optiga/comms/ifx_i2c\ifx_i2c_transport_layer.c ****            p_ctx->tl.p_actual_packet + p_ctx->tl.packet_offset,
 211:C:/Workspace/DAVE-4.4.2-64Bit/optiga-trust-m/optiga/comms/ifx_i2c\ifx_i2c_transport_layer.c ****            tl_fragment_size);
 212:C:/Workspace/DAVE-4.4.2-64Bit/optiga-trust-m/optiga/comms/ifx_i2c\ifx_i2c_transport_layer.c ****     p_ctx->tl.packet_offset += tl_fragment_size;
 213:C:/Workspace/DAVE-4.4.2-64Bit/optiga-trust-m/optiga/comms/ifx_i2c\ifx_i2c_transport_layer.c ****     //send the fragment to dl layer
 214:C:/Workspace/DAVE-4.4.2-64Bit/optiga-trust-m/optiga/comms/ifx_i2c\ifx_i2c_transport_layer.c ****     return (ifx_i2c_dl_send_frame(p_ctx,tl_fragment_size + 1));
 215:C:/Workspace/DAVE-4.4.2-64Bit/optiga-trust-m/optiga/comms/ifx_i2c\ifx_i2c_transport_layer.c **** }
  99              	 .loc 1 215 0
 100              	 
 207:C:/Workspace/DAVE-4.4.2-64Bit/optiga-trust-m/optiga/comms/ifx_i2c\ifx_i2c_transport_layer.c ****     //copy the data
 101              	 .loc 1 207 0
 102 0032 AB54     	 strb r3,[r5,r2]
 103              	.LVL6:
 209:C:/Workspace/DAVE-4.4.2-64Bit/optiga-trust-m/optiga/comms/ifx_i2c\ifx_i2c_transport_layer.c ****            p_ctx->tl.p_actual_packet + p_ctx->tl.packet_offset,
 104              	 .loc 1 209 0
 105 0034 AA23     	 mov r3,#170
 106 0036 9B00     	 lsl r3,r3,#2
 107 0038 E818     	 add r0,r5,r3
 108              	.LVL7:
 210:C:/Workspace/DAVE-4.4.2-64Bit/optiga-trust-m/optiga/comms/ifx_i2c\ifx_i2c_transport_layer.c ****            tl_fragment_size);
 109              	 .loc 1 210 0
 110 003a AB6B     	 ldr r3,[r5,#56]
 209:C:/Workspace/DAVE-4.4.2-64Bit/optiga-trust-m/optiga/comms/ifx_i2c\ifx_i2c_transport_layer.c ****            p_ctx->tl.p_actual_packet + p_ctx->tl.packet_offset,
 111              	 .loc 1 209 0
 112 003c 221C     	 mov r2,r4
 210:C:/Workspace/DAVE-4.4.2-64Bit/optiga-trust-m/optiga/comms/ifx_i2c\ifx_i2c_transport_layer.c ****            tl_fragment_size);
 113              	 .loc 1 210 0
 114 003e 9919     	 add r1,r3,r6
 115              	.LVL8:
 212:C:/Workspace/DAVE-4.4.2-64Bit/optiga-trust-m/optiga/comms/ifx_i2c\ifx_i2c_transport_layer.c ****     //send the fragment to dl layer
 116              	 .loc 1 212 0
 117 0040 A619     	 add r6,r4,r6
 214:C:/Workspace/DAVE-4.4.2-64Bit/optiga-trust-m/optiga/comms/ifx_i2c\ifx_i2c_transport_layer.c **** }
 118              	 .loc 1 214 0
 119 0042 0134     	 add r4,r4,#1
 120              	.LVL9:
 209:C:/Workspace/DAVE-4.4.2-64Bit/optiga-trust-m/optiga/comms/ifx_i2c\ifx_i2c_transport_layer.c ****            p_ctx->tl.p_actual_packet + p_ctx->tl.packet_offset,
 121              	 .loc 1 209 0
 122 0044 FFF7FEFF 	 bl memcpy
 123              	.LVL10:
 212:C:/Workspace/DAVE-4.4.2-64Bit/optiga-trust-m/optiga/comms/ifx_i2c\ifx_i2c_transport_layer.c ****     //send the fragment to dl layer
 124              	 .loc 1 212 0
 125 0048 FE87     	 strh r6,[r7,#62]
 214:C:/Workspace/DAVE-4.4.2-64Bit/optiga-trust-m/optiga/comms/ifx_i2c\ifx_i2c_transport_layer.c **** }
 126              	 .loc 1 214 0
 127 004a 281C     	 mov r0,r5
 128 004c A1B2     	 uxth r1,r4
 129 004e FFF7FEFF 	 bl ifx_i2c_dl_send_frame
 130              	.LVL11:
 131              	.LVL12:
 132              	.LVL13:
 133              	 .loc 1 215 0
 134 0052 F8BD     	 pop {r3,r4,r5,r6,r7,pc}
 135              	.L8:
 136              	 .align 2
 137              	.L7:
 138 0054 A7020000 	 .word 679
 139              	 .cfi_endproc
 140              	.LFE4:
 142              	 .section .text.ifx_i2c_dl_event_handler,"ax",%progbits
 143              	 .align 1
 144              	 .code 16
 145              	 .thumb_func
 147              	ifx_i2c_dl_event_handler:
 148              	.LFB8:
 216:C:/Workspace/DAVE-4.4.2-64Bit/optiga-trust-m/optiga/comms/ifx_i2c\ifx_i2c_transport_layer.c **** 
 217:C:/Workspace/DAVE-4.4.2-64Bit/optiga-trust-m/optiga/comms/ifx_i2c\ifx_i2c_transport_layer.c **** _STATIC_H optiga_lib_status_t ifx_i2c_tl_send_chaining_error(ifx_i2c_context_t * p_ctx)
 218:C:/Workspace/DAVE-4.4.2-64Bit/optiga-trust-m/optiga/comms/ifx_i2c\ifx_i2c_transport_layer.c **** {
 219:C:/Workspace/DAVE-4.4.2-64Bit/optiga-trust-m/optiga/comms/ifx_i2c\ifx_i2c_transport_layer.c ****     uint16_t tl_fragment_size = 1;
 220:C:/Workspace/DAVE-4.4.2-64Bit/optiga-trust-m/optiga/comms/ifx_i2c\ifx_i2c_transport_layer.c ****     p_ctx->tx_frame_buffer[IFX_I2C_TL_HEADER_OFFSET] = 0x07;
 221:C:/Workspace/DAVE-4.4.2-64Bit/optiga-trust-m/optiga/comms/ifx_i2c\ifx_i2c_transport_layer.c ****     p_ctx->tl.total_recv_length = 0;
 222:C:/Workspace/DAVE-4.4.2-64Bit/optiga-trust-m/optiga/comms/ifx_i2c\ifx_i2c_transport_layer.c ****     //send the fragment to dl layer
 223:C:/Workspace/DAVE-4.4.2-64Bit/optiga-trust-m/optiga/comms/ifx_i2c\ifx_i2c_transport_layer.c ****     return (ifx_i2c_dl_send_frame(p_ctx,tl_fragment_size));
 224:C:/Workspace/DAVE-4.4.2-64Bit/optiga-trust-m/optiga/comms/ifx_i2c\ifx_i2c_transport_layer.c **** }
 225:C:/Workspace/DAVE-4.4.2-64Bit/optiga-trust-m/optiga/comms/ifx_i2c\ifx_i2c_transport_layer.c **** 
 226:C:/Workspace/DAVE-4.4.2-64Bit/optiga-trust-m/optiga/comms/ifx_i2c\ifx_i2c_transport_layer.c **** _STATIC_H optiga_lib_status_t ifx_i2c_tl_check_chaining_error(uint8_t current_chaning,
 227:C:/Workspace/DAVE-4.4.2-64Bit/optiga-trust-m/optiga/comms/ifx_i2c\ifx_i2c_transport_layer.c ****                                                               uint8_t previous_chaining)
 228:C:/Workspace/DAVE-4.4.2-64Bit/optiga-trust-m/optiga/comms/ifx_i2c\ifx_i2c_transport_layer.c **** {
 229:C:/Workspace/DAVE-4.4.2-64Bit/optiga-trust-m/optiga/comms/ifx_i2c\ifx_i2c_transport_layer.c ****     optiga_lib_status_t status = IFX_I2C_STACK_ERROR;
 230:C:/Workspace/DAVE-4.4.2-64Bit/optiga-trust-m/optiga/comms/ifx_i2c\ifx_i2c_transport_layer.c ****     if (((TL_CHAINING_ERROR == current_chaning) || (TL_CHAINING_NO == current_chaning) ||
 231:C:/Workspace/DAVE-4.4.2-64Bit/optiga-trust-m/optiga/comms/ifx_i2c\ifx_i2c_transport_layer.c ****         (TL_CHAINING_LAST == current_chaning) || (TL_CHAINING_INTERMEDIATE == current_chaning) ||
 232:C:/Workspace/DAVE-4.4.2-64Bit/optiga-trust-m/optiga/comms/ifx_i2c\ifx_i2c_transport_layer.c ****         (TL_CHAINING_FIRST == current_chaning)))
 233:C:/Workspace/DAVE-4.4.2-64Bit/optiga-trust-m/optiga/comms/ifx_i2c\ifx_i2c_transport_layer.c ****     {
 234:C:/Workspace/DAVE-4.4.2-64Bit/optiga-trust-m/optiga/comms/ifx_i2c\ifx_i2c_transport_layer.c ****         if ((g_pctr_states_table[current_chaning][0] == previous_chaining) ||
 235:C:/Workspace/DAVE-4.4.2-64Bit/optiga-trust-m/optiga/comms/ifx_i2c\ifx_i2c_transport_layer.c ****             (g_pctr_states_table[current_chaning][1] == previous_chaining))
 236:C:/Workspace/DAVE-4.4.2-64Bit/optiga-trust-m/optiga/comms/ifx_i2c\ifx_i2c_transport_layer.c ****         {
 237:C:/Workspace/DAVE-4.4.2-64Bit/optiga-trust-m/optiga/comms/ifx_i2c\ifx_i2c_transport_layer.c ****             status =  IFX_I2C_STACK_SUCCESS;
 238:C:/Workspace/DAVE-4.4.2-64Bit/optiga-trust-m/optiga/comms/ifx_i2c\ifx_i2c_transport_layer.c ****         }
 239:C:/Workspace/DAVE-4.4.2-64Bit/optiga-trust-m/optiga/comms/ifx_i2c\ifx_i2c_transport_layer.c ****     }
 240:C:/Workspace/DAVE-4.4.2-64Bit/optiga-trust-m/optiga/comms/ifx_i2c\ifx_i2c_transport_layer.c **** 
 241:C:/Workspace/DAVE-4.4.2-64Bit/optiga-trust-m/optiga/comms/ifx_i2c\ifx_i2c_transport_layer.c ****     return (status);
 242:C:/Workspace/DAVE-4.4.2-64Bit/optiga-trust-m/optiga/comms/ifx_i2c\ifx_i2c_transport_layer.c **** }
 243:C:/Workspace/DAVE-4.4.2-64Bit/optiga-trust-m/optiga/comms/ifx_i2c\ifx_i2c_transport_layer.c **** // This functionality checks for the present bit in the pctr register
 244:C:/Workspace/DAVE-4.4.2-64Bit/optiga-trust-m/optiga/comms/ifx_i2c\ifx_i2c_transport_layer.c **** _STATIC_H  optiga_lib_status_t presence_bit_check(const ifx_i2c_context_t * p_ctx,
 245:C:/Workspace/DAVE-4.4.2-64Bit/optiga-trust-m/optiga/comms/ifx_i2c\ifx_i2c_transport_layer.c ****                                                   uint8_t pctr)
 246:C:/Workspace/DAVE-4.4.2-64Bit/optiga-trust-m/optiga/comms/ifx_i2c\ifx_i2c_transport_layer.c **** {
 247:C:/Workspace/DAVE-4.4.2-64Bit/optiga-trust-m/optiga/comms/ifx_i2c\ifx_i2c_transport_layer.c ****     optiga_lib_status_t return_status= IFX_I2C_STACK_SUCCESS;
 248:C:/Workspace/DAVE-4.4.2-64Bit/optiga-trust-m/optiga/comms/ifx_i2c\ifx_i2c_transport_layer.c ****     uint8_t pctr_value;
 249:C:/Workspace/DAVE-4.4.2-64Bit/optiga-trust-m/optiga/comms/ifx_i2c\ifx_i2c_transport_layer.c **** 
 250:C:/Workspace/DAVE-4.4.2-64Bit/optiga-trust-m/optiga/comms/ifx_i2c\ifx_i2c_transport_layer.c ****     pctr_value = (pctr & TL_PCTR_CHANNEL_MASK);
 251:C:/Workspace/DAVE-4.4.2-64Bit/optiga-trust-m/optiga/comms/ifx_i2c\ifx_i2c_transport_layer.c ****     //lint --e{774} suppress "This value changes based on presentation layer macro"
 252:C:/Workspace/DAVE-4.4.2-64Bit/optiga-trust-m/optiga/comms/ifx_i2c\ifx_i2c_transport_layer.c ****     if (0 != IFX_I2C_PRESENCE_BIT_CHECK)
 253:C:/Workspace/DAVE-4.4.2-64Bit/optiga-trust-m/optiga/comms/ifx_i2c\ifx_i2c_transport_layer.c ****     {
 254:C:/Workspace/DAVE-4.4.2-64Bit/optiga-trust-m/optiga/comms/ifx_i2c\ifx_i2c_transport_layer.c ****         if ((FALSE == p_ctx->tl.initialization_state) && ((TL_CHAINING_NO == (pctr & TL_PCTR_CHAIN_
 255:C:/Workspace/DAVE-4.4.2-64Bit/optiga-trust-m/optiga/comms/ifx_i2c\ifx_i2c_transport_layer.c ****             || (TL_CHAINING_FIRST == (pctr & TL_PCTR_CHAIN_MASK))))
 256:C:/Workspace/DAVE-4.4.2-64Bit/optiga-trust-m/optiga/comms/ifx_i2c\ifx_i2c_transport_layer.c ****         {
 257:C:/Workspace/DAVE-4.4.2-64Bit/optiga-trust-m/optiga/comms/ifx_i2c\ifx_i2c_transport_layer.c ****             if (IFX_I2C_PRESENCE_BIT_CHECK != pctr_value)
 258:C:/Workspace/DAVE-4.4.2-64Bit/optiga-trust-m/optiga/comms/ifx_i2c\ifx_i2c_transport_layer.c ****             {
 259:C:/Workspace/DAVE-4.4.2-64Bit/optiga-trust-m/optiga/comms/ifx_i2c\ifx_i2c_transport_layer.c ****                 return_status = IFX_I2C_STACK_ERROR;
 260:C:/Workspace/DAVE-4.4.2-64Bit/optiga-trust-m/optiga/comms/ifx_i2c\ifx_i2c_transport_layer.c ****             }
 261:C:/Workspace/DAVE-4.4.2-64Bit/optiga-trust-m/optiga/comms/ifx_i2c\ifx_i2c_transport_layer.c ****         }
 262:C:/Workspace/DAVE-4.4.2-64Bit/optiga-trust-m/optiga/comms/ifx_i2c\ifx_i2c_transport_layer.c ****     }
 263:C:/Workspace/DAVE-4.4.2-64Bit/optiga-trust-m/optiga/comms/ifx_i2c\ifx_i2c_transport_layer.c ****     else 
 264:C:/Workspace/DAVE-4.4.2-64Bit/optiga-trust-m/optiga/comms/ifx_i2c\ifx_i2c_transport_layer.c ****     {
 265:C:/Workspace/DAVE-4.4.2-64Bit/optiga-trust-m/optiga/comms/ifx_i2c\ifx_i2c_transport_layer.c ****         if ((FALSE == p_ctx->tl.initialization_state))
 266:C:/Workspace/DAVE-4.4.2-64Bit/optiga-trust-m/optiga/comms/ifx_i2c\ifx_i2c_transport_layer.c ****         {
 267:C:/Workspace/DAVE-4.4.2-64Bit/optiga-trust-m/optiga/comms/ifx_i2c\ifx_i2c_transport_layer.c ****             if (IFX_I2C_PRESENCE_BIT_CHECK != pctr_value)
 268:C:/Workspace/DAVE-4.4.2-64Bit/optiga-trust-m/optiga/comms/ifx_i2c\ifx_i2c_transport_layer.c ****             {
 269:C:/Workspace/DAVE-4.4.2-64Bit/optiga-trust-m/optiga/comms/ifx_i2c\ifx_i2c_transport_layer.c ****                 return_status = IFX_I2C_STACK_ERROR;
 270:C:/Workspace/DAVE-4.4.2-64Bit/optiga-trust-m/optiga/comms/ifx_i2c\ifx_i2c_transport_layer.c ****             }
 271:C:/Workspace/DAVE-4.4.2-64Bit/optiga-trust-m/optiga/comms/ifx_i2c\ifx_i2c_transport_layer.c ****         }
 272:C:/Workspace/DAVE-4.4.2-64Bit/optiga-trust-m/optiga/comms/ifx_i2c\ifx_i2c_transport_layer.c ****     }
 273:C:/Workspace/DAVE-4.4.2-64Bit/optiga-trust-m/optiga/comms/ifx_i2c\ifx_i2c_transport_layer.c ****     return (return_status);
 274:C:/Workspace/DAVE-4.4.2-64Bit/optiga-trust-m/optiga/comms/ifx_i2c\ifx_i2c_transport_layer.c **** }
 275:C:/Workspace/DAVE-4.4.2-64Bit/optiga-trust-m/optiga/comms/ifx_i2c\ifx_i2c_transport_layer.c **** _STATIC_H void ifx_i2c_dl_event_handler(ifx_i2c_context_t * p_ctx,
 276:C:/Workspace/DAVE-4.4.2-64Bit/optiga-trust-m/optiga/comms/ifx_i2c\ifx_i2c_transport_layer.c ****                                         optiga_lib_status_t event,
 277:C:/Workspace/DAVE-4.4.2-64Bit/optiga-trust-m/optiga/comms/ifx_i2c\ifx_i2c_transport_layer.c ****                                         const uint8_t * p_data,
 278:C:/Workspace/DAVE-4.4.2-64Bit/optiga-trust-m/optiga/comms/ifx_i2c\ifx_i2c_transport_layer.c ****                                         uint16_t data_len)
 279:C:/Workspace/DAVE-4.4.2-64Bit/optiga-trust-m/optiga/comms/ifx_i2c\ifx_i2c_transport_layer.c **** {
 149              	 .loc 1 279 0
 150              	 .cfi_startproc
 151              	.LVL14:
 152 0000 F0B5     	 push {r4,r5,r6,r7,lr}
 153              	.LCFI1:
 154              	 .cfi_def_cfa_offset 20
 155              	 .cfi_offset 4,-20
 156              	 .cfi_offset 5,-16
 157              	 .cfi_offset 6,-12
 158              	 .cfi_offset 7,-8
 159              	 .cfi_offset 14,-4
 280:C:/Workspace/DAVE-4.4.2-64Bit/optiga-trust-m/optiga/comms/ifx_i2c\ifx_i2c_transport_layer.c ****     uint8_t pctr = 0;
 281:C:/Workspace/DAVE-4.4.2-64Bit/optiga-trust-m/optiga/comms/ifx_i2c\ifx_i2c_transport_layer.c ****     uint8_t chaining = 0;
 160              	 .loc 1 281 0
 161 0002 0027     	 mov r7,#0
 279:C:/Workspace/DAVE-4.4.2-64Bit/optiga-trust-m/optiga/comms/ifx_i2c\ifx_i2c_transport_layer.c ****     uint8_t pctr = 0;
 162              	 .loc 1 279 0
 163 0004 041C     	 mov r4,r0
 164 0006 1D1C     	 mov r5,r3
 165 0008 85B0     	 sub sp,sp,#20
 166              	.LCFI2:
 167              	 .cfi_def_cfa_offset 40
 279:C:/Workspace/DAVE-4.4.2-64Bit/optiga-trust-m/optiga/comms/ifx_i2c\ifx_i2c_transport_layer.c ****     uint8_t pctr = 0;
 168              	 .loc 1 279 0
 169 000a 0291     	 str r1,[sp,#8]
 170 000c 0092     	 str r2,[sp]
 280:C:/Workspace/DAVE-4.4.2-64Bit/optiga-trust-m/optiga/comms/ifx_i2c\ifx_i2c_transport_layer.c ****     uint8_t pctr = 0;
 171              	 .loc 1 280 0
 172 000e 0197     	 str r7,[sp,#4]
 173              	.LVL15:
 174              	.L46:
 282:C:/Workspace/DAVE-4.4.2-64Bit/optiga-trust-m/optiga/comms/ifx_i2c\ifx_i2c_transport_layer.c ****     uint8_t exit_machine = TRUE;
 283:C:/Workspace/DAVE-4.4.2-64Bit/optiga-trust-m/optiga/comms/ifx_i2c\ifx_i2c_transport_layer.c ****     do
 284:C:/Workspace/DAVE-4.4.2-64Bit/optiga-trust-m/optiga/comms/ifx_i2c\ifx_i2c_transport_layer.c ****     {
 285:C:/Workspace/DAVE-4.4.2-64Bit/optiga-trust-m/optiga/comms/ifx_i2c\ifx_i2c_transport_layer.c ****         if (NULL != p_data)
 175              	 .loc 1 285 0
 176 0010 009B     	 ldr r3,[sp]
 177 0012 002B     	 cmp r3,#0
 178 0014 04D0     	 beq .L10
 286:C:/Workspace/DAVE-4.4.2-64Bit/optiga-trust-m/optiga/comms/ifx_i2c\ifx_i2c_transport_layer.c ****         {
 287:C:/Workspace/DAVE-4.4.2-64Bit/optiga-trust-m/optiga/comms/ifx_i2c\ifx_i2c_transport_layer.c ****             pctr = p_data[0];
 179              	 .loc 1 287 0
 180 0016 1B78     	 ldrb r3,[r3]
 181 0018 0193     	 str r3,[sp,#4]
 182              	.LVL16:
 288:C:/Workspace/DAVE-4.4.2-64Bit/optiga-trust-m/optiga/comms/ifx_i2c\ifx_i2c_transport_layer.c ****             chaining = pctr & TL_PCTR_CHAIN_MASK;
 183              	 .loc 1 288 0
 184 001a 0723     	 mov r3,#7
 185 001c 019F     	 ldr r7,[sp,#4]
 186              	.LVL17:
 187 001e 1F40     	 and r7,r3
 188              	.LVL18:
 189              	.L10:
 289:C:/Workspace/DAVE-4.4.2-64Bit/optiga-trust-m/optiga/comms/ifx_i2c\ifx_i2c_transport_layer.c ****         }
 290:C:/Workspace/DAVE-4.4.2-64Bit/optiga-trust-m/optiga/comms/ifx_i2c\ifx_i2c_transport_layer.c ****         // Propagate errors to upper layer
 291:C:/Workspace/DAVE-4.4.2-64Bit/optiga-trust-m/optiga/comms/ifx_i2c\ifx_i2c_transport_layer.c ****         if (0 != (event & IFX_I2C_DL_EVENT_ERROR))
 190              	 .loc 1 291 0
 191 0020 0123     	 mov r3,#1
 192 0022 029A     	 ldr r2,[sp,#8]
 193 0024 1340     	 and r3,r2
 194 0026 05D0     	 beq .L11
 292:C:/Workspace/DAVE-4.4.2-64Bit/optiga-trust-m/optiga/comms/ifx_i2c\ifx_i2c_transport_layer.c ****         {
 293:C:/Workspace/DAVE-4.4.2-64Bit/optiga-trust-m/optiga/comms/ifx_i2c\ifx_i2c_transport_layer.c ****             p_ctx->tl.state = TL_STATE_ERROR;
 195              	 .loc 1 293 0
 196 0028 221C     	 mov r2,r4
 197 002a 0621     	 mov r1,#6
 198 002c 3432     	 add r2,r2,#52
 199 002e 1170     	 strb r1,[r2]
 294:C:/Workspace/DAVE-4.4.2-64Bit/optiga-trust-m/optiga/comms/ifx_i2c\ifx_i2c_transport_layer.c ****             p_ctx->tl.error_event = IFX_I2C_STACK_ERROR;
 200              	 .loc 1 294 0
 201 0030 FC31     	 add r1,r1,#252
 202 0032 1184     	 strh r1,[r2,#32]
 203              	.L11:
 295:C:/Workspace/DAVE-4.4.2-64Bit/optiga-trust-m/optiga/comms/ifx_i2c\ifx_i2c_transport_layer.c ****         }
 296:C:/Workspace/DAVE-4.4.2-64Bit/optiga-trust-m/optiga/comms/ifx_i2c\ifx_i2c_transport_layer.c ****         if (0 != data_len)
 204              	 .loc 1 296 0
 205 0034 002D     	 cmp r5,#0
 206 0036 0ED0     	 beq .L12
 207              	.LVL19:
 208 0038 221C     	 mov r2,r4
 209 003a 5832     	 add r2,r2,#88
 210              	.LBB20:
 211              	.LBB21:
 254:C:/Workspace/DAVE-4.4.2-64Bit/optiga-trust-m/optiga/comms/ifx_i2c\ifx_i2c_transport_layer.c ****             || (TL_CHAINING_FIRST == (pctr & TL_PCTR_CHAIN_MASK))))
 212              	 .loc 1 254 0
 213 003c 1278     	 ldrb r2,[r2]
 214 003e 002A     	 cmp r2,#0
 215 0040 09D1     	 bne .L12
 216 0042 0199     	 ldr r1,[sp,#4]
 255:C:/Workspace/DAVE-4.4.2-64Bit/optiga-trust-m/optiga/comms/ifx_i2c\ifx_i2c_transport_layer.c ****         {
 217              	 .loc 1 255 0
 218 0044 0732     	 add r2,r2,#7
 254:C:/Workspace/DAVE-4.4.2-64Bit/optiga-trust-m/optiga/comms/ifx_i2c\ifx_i2c_transport_layer.c ****             || (TL_CHAINING_FIRST == (pctr & TL_PCTR_CHAIN_MASK))))
 219              	 .loc 1 254 0
 220 0046 1140     	 and r1,r2
 221 0048 0129     	 cmp r1,#1
 222 004a 04D8     	 bhi .L12
 257:C:/Workspace/DAVE-4.4.2-64Bit/optiga-trust-m/optiga/comms/ifx_i2c\ifx_i2c_transport_layer.c ****             {
 223              	 .loc 1 257 0
 224 004c 0199     	 ldr r1,[sp,#4]
 225 004e 9143     	 bic r1,r2
 226 0050 0829     	 cmp r1,#8
 227 0052 00D0     	 beq .LCB211
 228 0054 D4E0     	 b .L13
 229              	.LCB211:
 230              	.LVL20:
 231              	.L12:
 232              	.LBE21:
 233              	.LBE20:
 297:C:/Workspace/DAVE-4.4.2-64Bit/optiga-trust-m/optiga/comms/ifx_i2c\ifx_i2c_transport_layer.c ****         {
 298:C:/Workspace/DAVE-4.4.2-64Bit/optiga-trust-m/optiga/comms/ifx_i2c\ifx_i2c_transport_layer.c ****             if (0 != (presence_bit_check(p_ctx,pctr)))
 299:C:/Workspace/DAVE-4.4.2-64Bit/optiga-trust-m/optiga/comms/ifx_i2c\ifx_i2c_transport_layer.c ****             {
 300:C:/Workspace/DAVE-4.4.2-64Bit/optiga-trust-m/optiga/comms/ifx_i2c\ifx_i2c_transport_layer.c ****                 p_ctx->tl.state = TL_STATE_ERROR;
 301:C:/Workspace/DAVE-4.4.2-64Bit/optiga-trust-m/optiga/comms/ifx_i2c\ifx_i2c_transport_layer.c ****                 p_ctx->tl.error_event = IFX_I2C_STACK_ERROR;
 302:C:/Workspace/DAVE-4.4.2-64Bit/optiga-trust-m/optiga/comms/ifx_i2c\ifx_i2c_transport_layer.c ****             }
 303:C:/Workspace/DAVE-4.4.2-64Bit/optiga-trust-m/optiga/comms/ifx_i2c\ifx_i2c_transport_layer.c ****         }
 304:C:/Workspace/DAVE-4.4.2-64Bit/optiga-trust-m/optiga/comms/ifx_i2c\ifx_i2c_transport_layer.c ****         p_ctx->tl.initialization_state = FALSE;
 234              	 .loc 1 304 0
 235 0056 221C     	 mov r2,r4
 236 0058 0021     	 mov r1,#0
 305:C:/Workspace/DAVE-4.4.2-64Bit/optiga-trust-m/optiga/comms/ifx_i2c\ifx_i2c_transport_layer.c ****         switch (p_ctx->tl.state)
 237              	 .loc 1 305 0
 238 005a 261C     	 mov r6,r4
 304:C:/Workspace/DAVE-4.4.2-64Bit/optiga-trust-m/optiga/comms/ifx_i2c\ifx_i2c_transport_layer.c ****         switch (p_ctx->tl.state)
 239              	 .loc 1 304 0
 240 005c 5832     	 add r2,r2,#88
 241 005e 1170     	 strb r1,[r2]
 242              	 .loc 1 305 0
 243 0060 3436     	 add r6,r6,#52
 244 0062 3078     	 ldrb r0,[r6]
 245 0064 0138     	 sub r0,r0,#1
 246 0066 0728     	 cmp r0,#7
 247 0068 00D9     	 bls .LCB229
 248 006a BEE0     	 b .L43
 249              	.LCB229:
 250 006c FFF7FEFF 	 bl __gnu_thumb1_case_uqi
 251              	.L16:
 252 0070 04       	 .byte (.L15-.L16)/2
 253 0071 09       	 .byte (.L17-.L16)/2
 254 0072 BD       	 .byte (.L43-.L16)/2
 255 0073 34       	 .byte (.L18-.L16)/2
 256 0074 5E       	 .byte (.L19-.L16)/2
 257 0075 B9       	 .byte (.L20-.L16)/2
 258 0076 A3       	 .byte (.L21-.L16)/2
 259 0077 8B       	 .byte (.L22-.L16)/2
 260              	 .p2align 1
 261              	.L15:
 262              	.LVL21:
 306:C:/Workspace/DAVE-4.4.2-64Bit/optiga-trust-m/optiga/comms/ifx_i2c\ifx_i2c_transport_layer.c ****         {
 307:C:/Workspace/DAVE-4.4.2-64Bit/optiga-trust-m/optiga/comms/ifx_i2c\ifx_i2c_transport_layer.c ****             case TL_STATE_IDLE:
 308:C:/Workspace/DAVE-4.4.2-64Bit/optiga-trust-m/optiga/comms/ifx_i2c\ifx_i2c_transport_layer.c ****             {
 309:C:/Workspace/DAVE-4.4.2-64Bit/optiga-trust-m/optiga/comms/ifx_i2c\ifx_i2c_transport_layer.c ****                 exit_machine = FALSE;
 310:C:/Workspace/DAVE-4.4.2-64Bit/optiga-trust-m/optiga/comms/ifx_i2c\ifx_i2c_transport_layer.c ****                 p_ctx->tl.upper_layer_event_handler(p_ctx, IFX_I2C_STACK_SUCCESS, 0, 0);
 263              	 .loc 1 310 0
 264 0078 0021     	 mov r1,#0
 265 007a E56D     	 ldr r5,[r4,#92]
 266 007c 201C     	 mov r0,r4
 267 007e 0A1C     	 mov r2,r1
 268 0080 BBE0     	 b .L88
 269              	.LVL22:
 270              	.L17:
 311:C:/Workspace/DAVE-4.4.2-64Bit/optiga-trust-m/optiga/comms/ifx_i2c\ifx_i2c_transport_layer.c ****             }
 312:C:/Workspace/DAVE-4.4.2-64Bit/optiga-trust-m/optiga/comms/ifx_i2c\ifx_i2c_transport_layer.c ****             break;
 313:C:/Workspace/DAVE-4.4.2-64Bit/optiga-trust-m/optiga/comms/ifx_i2c\ifx_i2c_transport_layer.c ****             case TL_STATE_TX:
 314:C:/Workspace/DAVE-4.4.2-64Bit/optiga-trust-m/optiga/comms/ifx_i2c\ifx_i2c_transport_layer.c ****             {
 315:C:/Workspace/DAVE-4.4.2-64Bit/optiga-trust-m/optiga/comms/ifx_i2c\ifx_i2c_transport_layer.c ****                 // Frame transmission in Data Link layer complete, start receiving frames
 316:C:/Workspace/DAVE-4.4.2-64Bit/optiga-trust-m/optiga/comms/ifx_i2c\ifx_i2c_transport_layer.c ****                 if (0 != (event & IFX_I2C_DL_EVENT_TX_SUCCESS))
 271              	 .loc 1 316 0
 272 0082 029B     	 ldr r3,[sp,#8]
 273 0084 9B07     	 lsl r3,r3,#30
 274 0086 09D5     	 bpl .L24
 317:C:/Workspace/DAVE-4.4.2-64Bit/optiga-trust-m/optiga/comms/ifx_i2c\ifx_i2c_transport_layer.c ****                 {
 318:C:/Workspace/DAVE-4.4.2-64Bit/optiga-trust-m/optiga/comms/ifx_i2c\ifx_i2c_transport_layer.c ****                     if (p_ctx->tl.packet_offset < p_ctx->tl.actual_packet_length)
 275              	 .loc 1 318 0
 276 0088 A31C     	 add r3,r4,#2
 277 008a DA8F     	 ldrh r2,[r3,#62]
 278 008c E38F     	 ldrh r3,[r4,#62]
 279 008e 9A42     	 cmp r2,r3
 280 0090 0AD2     	 bcs .L25
 319:C:/Workspace/DAVE-4.4.2-64Bit/optiga-trust-m/optiga/comms/ifx_i2c\ifx_i2c_transport_layer.c ****                     {
 320:C:/Workspace/DAVE-4.4.2-64Bit/optiga-trust-m/optiga/comms/ifx_i2c\ifx_i2c_transport_layer.c ****                         // Transmission of one fragment complete, send next fragment
 321:C:/Workspace/DAVE-4.4.2-64Bit/optiga-trust-m/optiga/comms/ifx_i2c\ifx_i2c_transport_layer.c ****                         LOG_TL("[IFX-TL]: Tx:Fragment sent,now send next\n");
 322:C:/Workspace/DAVE-4.4.2-64Bit/optiga-trust-m/optiga/comms/ifx_i2c\ifx_i2c_transport_layer.c ****                         // Chaining error from slave
 323:C:/Workspace/DAVE-4.4.2-64Bit/optiga-trust-m/optiga/comms/ifx_i2c\ifx_i2c_transport_layer.c ****                         if (TL_CHAINING_ERROR == chaining)
 324:C:/Workspace/DAVE-4.4.2-64Bit/optiga-trust-m/optiga/comms/ifx_i2c\ifx_i2c_transport_layer.c ****                         {
 325:C:/Workspace/DAVE-4.4.2-64Bit/optiga-trust-m/optiga/comms/ifx_i2c\ifx_i2c_transport_layer.c ****                             LOG_TL("[IFX-TL]: Tx:Chaining error received while Tx\n");
 326:C:/Workspace/DAVE-4.4.2-64Bit/optiga-trust-m/optiga/comms/ifx_i2c\ifx_i2c_transport_layer.c ****                             p_ctx->tl.state = TL_STATE_RESEND;
 281              	 .loc 1 326 0
 282 0092 0823     	 mov r3,#8
 323:C:/Workspace/DAVE-4.4.2-64Bit/optiga-trust-m/optiga/comms/ifx_i2c\ifx_i2c_transport_layer.c ****                         {
 283              	 .loc 1 323 0
 284 0094 072F     	 cmp r7,#7
 285 0096 5DD0     	 beq .L84
 327:C:/Workspace/DAVE-4.4.2-64Bit/optiga-trust-m/optiga/comms/ifx_i2c\ifx_i2c_transport_layer.c ****                             break;
 328:C:/Workspace/DAVE-4.4.2-64Bit/optiga-trust-m/optiga/comms/ifx_i2c\ifx_i2c_transport_layer.c ****                         }
 329:C:/Workspace/DAVE-4.4.2-64Bit/optiga-trust-m/optiga/comms/ifx_i2c\ifx_i2c_transport_layer.c ****                         // Any fragment received before complete transmission is error
 330:C:/Workspace/DAVE-4.4.2-64Bit/optiga-trust-m/optiga/comms/ifx_i2c\ifx_i2c_transport_layer.c ****                         if (0 != data_len)
 286              	 .loc 1 330 0
 287 0098 002D     	 cmp r5,#0
 288 009a 01D0     	 beq .L28
 289              	.L24:
 331:C:/Workspace/DAVE-4.4.2-64Bit/optiga-trust-m/optiga/comms/ifx_i2c\ifx_i2c_transport_layer.c ****                         {
 332:C:/Workspace/DAVE-4.4.2-64Bit/optiga-trust-m/optiga/comms/ifx_i2c\ifx_i2c_transport_layer.c ****                             LOG_TL("[IFX-TL]: Tx:Data received while Tx\n");
 333:C:/Workspace/DAVE-4.4.2-64Bit/optiga-trust-m/optiga/comms/ifx_i2c\ifx_i2c_transport_layer.c ****                             p_ctx->tl.state = TL_STATE_ERROR;
 290              	 .loc 1 333 0
 291 009c 0622     	 mov r2,#6
 292 009e B7E0     	 b .L85
 293              	.L28:
 294              	.LVL23:
 334:C:/Workspace/DAVE-4.4.2-64Bit/optiga-trust-m/optiga/comms/ifx_i2c\ifx_i2c_transport_layer.c ****                             break;
 335:C:/Workspace/DAVE-4.4.2-64Bit/optiga-trust-m/optiga/comms/ifx_i2c\ifx_i2c_transport_layer.c ****                         }
 336:C:/Workspace/DAVE-4.4.2-64Bit/optiga-trust-m/optiga/comms/ifx_i2c\ifx_i2c_transport_layer.c ****                         exit_machine = FALSE;
 337:C:/Workspace/DAVE-4.4.2-64Bit/optiga-trust-m/optiga/comms/ifx_i2c\ifx_i2c_transport_layer.c ****                         //lint --e{534} suppress "Error handling is not required so return value is
 338:C:/Workspace/DAVE-4.4.2-64Bit/optiga-trust-m/optiga/comms/ifx_i2c\ifx_i2c_transport_layer.c ****                         ifx_i2c_tl_send_next_fragment(p_ctx);
 295              	 .loc 1 338 0
 296 00a0 201C     	 mov r0,r4
 297 00a2 FFF7FEFF 	 bl ifx_i2c_tl_send_next_fragment
 298              	.LVL24:
 299 00a6 EBE0     	 b .L9
 300              	.LVL25:
 301              	.L25:
 339:C:/Workspace/DAVE-4.4.2-64Bit/optiga-trust-m/optiga/comms/ifx_i2c\ifx_i2c_transport_layer.c ****                     }
 340:C:/Workspace/DAVE-4.4.2-64Bit/optiga-trust-m/optiga/comms/ifx_i2c\ifx_i2c_transport_layer.c ****                     else
 341:C:/Workspace/DAVE-4.4.2-64Bit/optiga-trust-m/optiga/comms/ifx_i2c\ifx_i2c_transport_layer.c ****                     {
 342:C:/Workspace/DAVE-4.4.2-64Bit/optiga-trust-m/optiga/comms/ifx_i2c\ifx_i2c_transport_layer.c ****                         // Transmission of all fragments complete, start receiving fragments
 343:C:/Workspace/DAVE-4.4.2-64Bit/optiga-trust-m/optiga/comms/ifx_i2c\ifx_i2c_transport_layer.c ****                         LOG_TL("[IFX-TL]: Tx:All fragment sent\n");
 344:C:/Workspace/DAVE-4.4.2-64Bit/optiga-trust-m/optiga/comms/ifx_i2c\ifx_i2c_transport_layer.c ****                         p_ctx->tl.state = TL_STATE_RX;
 345:C:/Workspace/DAVE-4.4.2-64Bit/optiga-trust-m/optiga/comms/ifx_i2c\ifx_i2c_transport_layer.c ****                         p_ctx->tl.total_recv_length = 0;
 346:C:/Workspace/DAVE-4.4.2-64Bit/optiga-trust-m/optiga/comms/ifx_i2c\ifx_i2c_transport_layer.c ****                         p_ctx->tl.previous_chaining = TL_CHAINING_NO;
 302              	 .loc 1 346 0
 303 00a8 211C     	 mov r1,r4
 345:C:/Workspace/DAVE-4.4.2-64Bit/optiga-trust-m/optiga/comms/ifx_i2c\ifx_i2c_transport_layer.c ****                         p_ctx->tl.previous_chaining = TL_CHAINING_NO;
 304              	 .loc 1 345 0
 305 00aa 0023     	 mov r3,#0
 344:C:/Workspace/DAVE-4.4.2-64Bit/optiga-trust-m/optiga/comms/ifx_i2c\ifx_i2c_transport_layer.c ****                         p_ctx->tl.total_recv_length = 0;
 306              	 .loc 1 344 0
 307 00ac 0422     	 mov r2,#4
 308              	 .loc 1 346 0
 309 00ae 5231     	 add r1,r1,#82
 344:C:/Workspace/DAVE-4.4.2-64Bit/optiga-trust-m/optiga/comms/ifx_i2c\ifx_i2c_transport_layer.c ****                         p_ctx->tl.total_recv_length = 0;
 310              	 .loc 1 344 0
 311 00b0 3270     	 strb r2,[r6]
 345:C:/Workspace/DAVE-4.4.2-64Bit/optiga-trust-m/optiga/comms/ifx_i2c\ifx_i2c_transport_layer.c ****                         p_ctx->tl.previous_chaining = TL_CHAINING_NO;
 312              	 .loc 1 345 0
 313 00b2 A387     	 strh r3,[r4,#60]
 314              	 .loc 1 346 0
 315 00b4 0B70     	 strb r3,[r1]
 347:C:/Workspace/DAVE-4.4.2-64Bit/optiga-trust-m/optiga/comms/ifx_i2c\ifx_i2c_transport_layer.c ****                         p_ctx->tl.transmission_completed = 1;
 316              	 .loc 1 347 0
 317 00b6 231C     	 mov r3,r4
 318 00b8 0121     	 mov r1,#1
 319 00ba 5333     	 add r3,r3,#83
 320 00bc 1970     	 strb r1,[r3]
 348:C:/Workspace/DAVE-4.4.2-64Bit/optiga-trust-m/optiga/comms/ifx_i2c\ifx_i2c_transport_layer.c ****                         // if data is received after sending last frame
 349:C:/Workspace/DAVE-4.4.2-64Bit/optiga-trust-m/optiga/comms/ifx_i2c\ifx_i2c_transport_layer.c ****                         if (!(event & IFX_I2C_DL_EVENT_RX_SUCCESS))
 321              	 .loc 1 349 0
 322 00be 029B     	 ldr r3,[sp,#8]
 323 00c0 1342     	 tst r3,r2
 324 00c2 A5D1     	 bne .L46
 325              	.L87:
 350:C:/Workspace/DAVE-4.4.2-64Bit/optiga-trust-m/optiga/comms/ifx_i2c\ifx_i2c_transport_layer.c ****                         {
 351:C:/Workspace/DAVE-4.4.2-64Bit/optiga-trust-m/optiga/comms/ifx_i2c\ifx_i2c_transport_layer.c ****                             LOG_TL("[IFX-TL]: Tx:Data already received after Tx\n");
 352:C:/Workspace/DAVE-4.4.2-64Bit/optiga-trust-m/optiga/comms/ifx_i2c\ifx_i2c_transport_layer.c ****                             // Received CTRL frame, trigger reception in Data Link layer
 353:C:/Workspace/DAVE-4.4.2-64Bit/optiga-trust-m/optiga/comms/ifx_i2c\ifx_i2c_transport_layer.c ****                             if (0 != ifx_i2c_dl_receive_frame(p_ctx))
 326              	 .loc 1 353 0
 327 00c4 201C     	 mov r0,r4
 328 00c6 FFF7FEFF 	 bl ifx_i2c_dl_receive_frame
 329              	.LVL26:
 330 00ca 0028     	 cmp r0,#0
 331 00cc 00D1     	 bne .LCB303
 332 00ce D7E0     	 b .L9
 333              	.LCB303:
 354:C:/Workspace/DAVE-4.4.2-64Bit/optiga-trust-m/optiga/comms/ifx_i2c\ifx_i2c_transport_layer.c ****                             {
 355:C:/Workspace/DAVE-4.4.2-64Bit/optiga-trust-m/optiga/comms/ifx_i2c\ifx_i2c_transport_layer.c ****                                 LOG_TL("[IFX-TL]: Tx:RX Received CTRL frame fail -> Inform UL\n");
 356:C:/Workspace/DAVE-4.4.2-64Bit/optiga-trust-m/optiga/comms/ifx_i2c\ifx_i2c_transport_layer.c ****                                 p_ctx->tl.state = TL_STATE_ERROR;
 334              	 .loc 1 356 0
 335 00d0 0623     	 mov r3,#6
 336 00d2 3434     	 add r4,r4,#52
 337              	.LVL27:
 338 00d4 2370     	 strb r3,[r4]
 339 00d6 D3E0     	 b .L9
 340              	.LVL28:
 341              	.L18:
 357:C:/Workspace/DAVE-4.4.2-64Bit/optiga-trust-m/optiga/comms/ifx_i2c\ifx_i2c_transport_layer.c ****                             }
 358:C:/Workspace/DAVE-4.4.2-64Bit/optiga-trust-m/optiga/comms/ifx_i2c\ifx_i2c_transport_layer.c ****                             exit_machine = FALSE;
 359:C:/Workspace/DAVE-4.4.2-64Bit/optiga-trust-m/optiga/comms/ifx_i2c\ifx_i2c_transport_layer.c ****                         }
 360:C:/Workspace/DAVE-4.4.2-64Bit/optiga-trust-m/optiga/comms/ifx_i2c\ifx_i2c_transport_layer.c ****                     }
 361:C:/Workspace/DAVE-4.4.2-64Bit/optiga-trust-m/optiga/comms/ifx_i2c\ifx_i2c_transport_layer.c ****                 }
 362:C:/Workspace/DAVE-4.4.2-64Bit/optiga-trust-m/optiga/comms/ifx_i2c\ifx_i2c_transport_layer.c ****                 else
 363:C:/Workspace/DAVE-4.4.2-64Bit/optiga-trust-m/optiga/comms/ifx_i2c\ifx_i2c_transport_layer.c ****                 {
 364:C:/Workspace/DAVE-4.4.2-64Bit/optiga-trust-m/optiga/comms/ifx_i2c\ifx_i2c_transport_layer.c ****                     LOG_TL("[IFX-TL]: Tx:IFX_I2C_DL_EVENT_TX_SUCCESS is not satisfied Tx\n");
 365:C:/Workspace/DAVE-4.4.2-64Bit/optiga-trust-m/optiga/comms/ifx_i2c\ifx_i2c_transport_layer.c ****                     p_ctx->tl.state = TL_STATE_ERROR;
 366:C:/Workspace/DAVE-4.4.2-64Bit/optiga-trust-m/optiga/comms/ifx_i2c\ifx_i2c_transport_layer.c ****                     break;
 367:C:/Workspace/DAVE-4.4.2-64Bit/optiga-trust-m/optiga/comms/ifx_i2c\ifx_i2c_transport_layer.c ****                 }
 368:C:/Workspace/DAVE-4.4.2-64Bit/optiga-trust-m/optiga/comms/ifx_i2c\ifx_i2c_transport_layer.c ****             }
 369:C:/Workspace/DAVE-4.4.2-64Bit/optiga-trust-m/optiga/comms/ifx_i2c\ifx_i2c_transport_layer.c ****             break;
 370:C:/Workspace/DAVE-4.4.2-64Bit/optiga-trust-m/optiga/comms/ifx_i2c\ifx_i2c_transport_layer.c ****             case TL_STATE_RX:
 371:C:/Workspace/DAVE-4.4.2-64Bit/optiga-trust-m/optiga/comms/ifx_i2c\ifx_i2c_transport_layer.c ****             {
 372:C:/Workspace/DAVE-4.4.2-64Bit/optiga-trust-m/optiga/comms/ifx_i2c\ifx_i2c_transport_layer.c ****                 // Reception of frame from Data Link layer
 373:C:/Workspace/DAVE-4.4.2-64Bit/optiga-trust-m/optiga/comms/ifx_i2c\ifx_i2c_transport_layer.c ****                 if (0 != (event & IFX_I2C_DL_EVENT_RX_SUCCESS))
 342              	 .loc 1 373 0
 343 00d8 0422     	 mov r2,#4
 344 00da 029B     	 ldr r3,[sp,#8]
 345 00dc 1342     	 tst r3,r2
 346 00de DDD0     	 beq .L24
 374:C:/Workspace/DAVE-4.4.2-64Bit/optiga-trust-m/optiga/comms/ifx_i2c\ifx_i2c_transport_layer.c ****                 {
 375:C:/Workspace/DAVE-4.4.2-64Bit/optiga-trust-m/optiga/comms/ifx_i2c\ifx_i2c_transport_layer.c ****                     // Message must contain at least the transport layer header
 376:C:/Workspace/DAVE-4.4.2-64Bit/optiga-trust-m/optiga/comms/ifx_i2c\ifx_i2c_transport_layer.c ****                     if (data_len < TL_HEADER_SIZE)
 347              	 .loc 1 376 0
 348 00e0 002D     	 cmp r5,#0
 349 00e2 DBD0     	 beq .L24
 377:C:/Workspace/DAVE-4.4.2-64Bit/optiga-trust-m/optiga/comms/ifx_i2c\ifx_i2c_transport_layer.c ****                     {
 378:C:/Workspace/DAVE-4.4.2-64Bit/optiga-trust-m/optiga/comms/ifx_i2c\ifx_i2c_transport_layer.c ****                         LOG_TL("[IFX-TL]: Rx : Data received is more than header len\n");
 379:C:/Workspace/DAVE-4.4.2-64Bit/optiga-trust-m/optiga/comms/ifx_i2c\ifx_i2c_transport_layer.c ****                         p_ctx->tl.state = TL_STATE_ERROR;
 380:C:/Workspace/DAVE-4.4.2-64Bit/optiga-trust-m/optiga/comms/ifx_i2c\ifx_i2c_transport_layer.c ****                         break;
 381:C:/Workspace/DAVE-4.4.2-64Bit/optiga-trust-m/optiga/comms/ifx_i2c\ifx_i2c_transport_layer.c ****                     }
 382:C:/Workspace/DAVE-4.4.2-64Bit/optiga-trust-m/optiga/comms/ifx_i2c\ifx_i2c_transport_layer.c **** 
 383:C:/Workspace/DAVE-4.4.2-64Bit/optiga-trust-m/optiga/comms/ifx_i2c\ifx_i2c_transport_layer.c ****                     if (IFX_I2C_STACK_MEM_ERROR == p_ctx->tl.error_event)
 350              	 .loc 1 383 0
 351 00e4 231C     	 mov r3,r4
 352 00e6 5433     	 add r3,r3,#84
 353 00e8 1A88     	 ldrh r2,[r3]
 354 00ea 8223     	 mov r3,#130
 355 00ec 5B00     	 lsl r3,r3,#1
 356 00ee 9A42     	 cmp r2,r3
 357 00f0 09D1     	 bne .L30
 384:C:/Workspace/DAVE-4.4.2-64Bit/optiga-trust-m/optiga/comms/ifx_i2c\ifx_i2c_transport_layer.c ****                     {
 385:C:/Workspace/DAVE-4.4.2-64Bit/optiga-trust-m/optiga/comms/ifx_i2c\ifx_i2c_transport_layer.c ****                         if ((TL_CHAINING_LAST == chaining) || (0 != ifx_i2c_dl_receive_frame(p_ctx)
 358              	 .loc 1 385 0
 359 00f2 042F     	 cmp r7,#4
 360 00f4 D2D0     	 beq .L24
 361              	 .loc 1 385 0 is_stmt 0 discriminator 1
 362 00f6 201C     	 mov r0,r4
 363 00f8 FFF7FEFF 	 bl ifx_i2c_dl_receive_frame
 364              	.LVL29:
 365 00fc 0028     	 cmp r0,#0
 366 00fe CDD1     	 bne .L24
 386:C:/Workspace/DAVE-4.4.2-64Bit/optiga-trust-m/optiga/comms/ifx_i2c\ifx_i2c_transport_layer.c ****                         {
 387:C:/Workspace/DAVE-4.4.2-64Bit/optiga-trust-m/optiga/comms/ifx_i2c\ifx_i2c_transport_layer.c ****                             p_ctx->tl.state = TL_STATE_ERROR;
 388:C:/Workspace/DAVE-4.4.2-64Bit/optiga-trust-m/optiga/comms/ifx_i2c\ifx_i2c_transport_layer.c ****                             break;
 389:C:/Workspace/DAVE-4.4.2-64Bit/optiga-trust-m/optiga/comms/ifx_i2c\ifx_i2c_transport_layer.c ****                         }
 390:C:/Workspace/DAVE-4.4.2-64Bit/optiga-trust-m/optiga/comms/ifx_i2c\ifx_i2c_transport_layer.c ****                         p_ctx->tl.state = TL_STATE_RX;
 367              	 .loc 1 390 0 is_stmt 1
 368 0100 0423     	 mov r3,#4
 369 0102 3370     	 strb r3,[r6]
 370              	.LVL30:
 391:C:/Workspace/DAVE-4.4.2-64Bit/optiga-trust-m/optiga/comms/ifx_i2c\ifx_i2c_transport_layer.c ****                         exit_machine = FALSE;
 392:C:/Workspace/DAVE-4.4.2-64Bit/optiga-trust-m/optiga/comms/ifx_i2c\ifx_i2c_transport_layer.c ****                         break;
 371              	 .loc 1 392 0
 372 0104 BCE0     	 b .L9
 373              	.LVL31:
 374              	.L30:
 393:C:/Workspace/DAVE-4.4.2-64Bit/optiga-trust-m/optiga/comms/ifx_i2c\ifx_i2c_transport_layer.c ****                     }
 394:C:/Workspace/DAVE-4.4.2-64Bit/optiga-trust-m/optiga/comms/ifx_i2c\ifx_i2c_transport_layer.c **** 
 395:C:/Workspace/DAVE-4.4.2-64Bit/optiga-trust-m/optiga/comms/ifx_i2c\ifx_i2c_transport_layer.c ****                     // If chaining error detected
 396:C:/Workspace/DAVE-4.4.2-64Bit/optiga-trust-m/optiga/comms/ifx_i2c\ifx_i2c_transport_layer.c ****                     if (IFX_I2C_STACK_SUCCESS != ifx_i2c_tl_check_chaining_error(chaining,p_ctx->tl
 375              	 .loc 1 396 0
 376 0106 231C     	 mov r3,r4
 377 0108 5233     	 add r3,r3,#82
 378 010a 1A78     	 ldrb r2,[r3]
 379              	.LVL32:
 380              	.LBB22:
 381              	.LBB23:
 230:C:/Workspace/DAVE-4.4.2-64Bit/optiga-trust-m/optiga/comms/ifx_i2c\ifx_i2c_transport_layer.c ****         (TL_CHAINING_LAST == current_chaning) || (TL_CHAINING_INTERMEDIATE == current_chaning) ||
 382              	 .loc 1 230 0
 383 010c 072F     	 cmp r7,#7
 384 010e 03D0     	 beq .L33
 385 0110 022F     	 cmp r7,#2
 386 0112 01D9     	 bls .L33
 387 0114 042F     	 cmp r7,#4
 388 0116 7AD1     	 bne .L34
 389              	.L33:
 234:C:/Workspace/DAVE-4.4.2-64Bit/optiga-trust-m/optiga/comms/ifx_i2c\ifx_i2c_transport_layer.c ****             (g_pctr_states_table[current_chaning][1] == previous_chaining))
 390              	 .loc 1 234 0
 391 0118 5A49     	 ldr r1,.L90
 392 011a 7B00     	 lsl r3,r7,#1
 393 011c 585C     	 ldrb r0,[r3,r1]
 394 011e 9042     	 cmp r0,r2
 395 0120 7AD0     	 beq .L35
 235:C:/Workspace/DAVE-4.4.2-64Bit/optiga-trust-m/optiga/comms/ifx_i2c\ifx_i2c_transport_layer.c ****         {
 396              	 .loc 1 235 0
 397 0122 CB18     	 add r3,r1,r3
 234:C:/Workspace/DAVE-4.4.2-64Bit/optiga-trust-m/optiga/comms/ifx_i2c\ifx_i2c_transport_layer.c ****             (g_pctr_states_table[current_chaning][1] == previous_chaining))
 398              	 .loc 1 234 0
 399 0124 5B78     	 ldrb r3,[r3,#1]
 400 0126 9342     	 cmp r3,r2
 401 0128 71D1     	 bne .L34
 402 012a 75E0     	 b .L35
 403              	.LVL33:
 404              	.L19:
 405              	.LBE23:
 406              	.LBE22:
 397:C:/Workspace/DAVE-4.4.2-64Bit/optiga-trust-m/optiga/comms/ifx_i2c\ifx_i2c_transport_layer.c ****                     {
 398:C:/Workspace/DAVE-4.4.2-64Bit/optiga-trust-m/optiga/comms/ifx_i2c\ifx_i2c_transport_layer.c ****                         LOG_TL("[IFX-TL]: Rx : Chaining state is not correct\n");
 399:C:/Workspace/DAVE-4.4.2-64Bit/optiga-trust-m/optiga/comms/ifx_i2c\ifx_i2c_transport_layer.c ****                         p_ctx->tl.state = TL_STATE_RESEND;
 400:C:/Workspace/DAVE-4.4.2-64Bit/optiga-trust-m/optiga/comms/ifx_i2c\ifx_i2c_transport_layer.c ****                         break;
 401:C:/Workspace/DAVE-4.4.2-64Bit/optiga-trust-m/optiga/comms/ifx_i2c\ifx_i2c_transport_layer.c ****                     }
 402:C:/Workspace/DAVE-4.4.2-64Bit/optiga-trust-m/optiga/comms/ifx_i2c\ifx_i2c_transport_layer.c **** 
 403:C:/Workspace/DAVE-4.4.2-64Bit/optiga-trust-m/optiga/comms/ifx_i2c\ifx_i2c_transport_layer.c ****                     p_ctx->tl.previous_chaining = chaining & 0x07;
 404:C:/Workspace/DAVE-4.4.2-64Bit/optiga-trust-m/optiga/comms/ifx_i2c\ifx_i2c_transport_layer.c ****                     if (NULL == p_data)
 405:C:/Workspace/DAVE-4.4.2-64Bit/optiga-trust-m/optiga/comms/ifx_i2c\ifx_i2c_transport_layer.c ****                     {
 406:C:/Workspace/DAVE-4.4.2-64Bit/optiga-trust-m/optiga/comms/ifx_i2c\ifx_i2c_transport_layer.c ****                         p_ctx->tl.state = TL_STATE_ERROR;
 407:C:/Workspace/DAVE-4.4.2-64Bit/optiga-trust-m/optiga/comms/ifx_i2c\ifx_i2c_transport_layer.c ****                         break;
 408:C:/Workspace/DAVE-4.4.2-64Bit/optiga-trust-m/optiga/comms/ifx_i2c\ifx_i2c_transport_layer.c ****                     }
 409:C:/Workspace/DAVE-4.4.2-64Bit/optiga-trust-m/optiga/comms/ifx_i2c\ifx_i2c_transport_layer.c **** 
 410:C:/Workspace/DAVE-4.4.2-64Bit/optiga-trust-m/optiga/comms/ifx_i2c\ifx_i2c_transport_layer.c ****                     // No chaining and Last
 411:C:/Workspace/DAVE-4.4.2-64Bit/optiga-trust-m/optiga/comms/ifx_i2c\ifx_i2c_transport_layer.c ****                     if ((TL_CHAINING_NO == chaining) || (TL_CHAINING_LAST == chaining))
 412:C:/Workspace/DAVE-4.4.2-64Bit/optiga-trust-m/optiga/comms/ifx_i2c\ifx_i2c_transport_layer.c ****                     {
 413:C:/Workspace/DAVE-4.4.2-64Bit/optiga-trust-m/optiga/comms/ifx_i2c\ifx_i2c_transport_layer.c ****                         LOG_TL("[IFX-TL]: Rx : No chain/Last chain received, Inform UL\n");
 414:C:/Workspace/DAVE-4.4.2-64Bit/optiga-trust-m/optiga/comms/ifx_i2c\ifx_i2c_transport_layer.c ****                         // Check for possible receive buffer overflow
 415:C:/Workspace/DAVE-4.4.2-64Bit/optiga-trust-m/optiga/comms/ifx_i2c\ifx_i2c_transport_layer.c ****                         if ((p_ctx->tl.total_recv_length + data_len - 1) > (*p_ctx->tl.p_recv_packe
 416:C:/Workspace/DAVE-4.4.2-64Bit/optiga-trust-m/optiga/comms/ifx_i2c\ifx_i2c_transport_layer.c ****                         {
 417:C:/Workspace/DAVE-4.4.2-64Bit/optiga-trust-m/optiga/comms/ifx_i2c\ifx_i2c_transport_layer.c ****                             LOG_TL("[IFX-TL]: Chain : Buffer overflow\n");
 418:C:/Workspace/DAVE-4.4.2-64Bit/optiga-trust-m/optiga/comms/ifx_i2c\ifx_i2c_transport_layer.c ****                             p_ctx->tl.error_event = IFX_I2C_STACK_MEM_ERROR;
 419:C:/Workspace/DAVE-4.4.2-64Bit/optiga-trust-m/optiga/comms/ifx_i2c\ifx_i2c_transport_layer.c ****                             p_ctx->tl.state = TL_STATE_ERROR;
 420:C:/Workspace/DAVE-4.4.2-64Bit/optiga-trust-m/optiga/comms/ifx_i2c\ifx_i2c_transport_layer.c ****                             break;
 421:C:/Workspace/DAVE-4.4.2-64Bit/optiga-trust-m/optiga/comms/ifx_i2c\ifx_i2c_transport_layer.c ****                         }
 422:C:/Workspace/DAVE-4.4.2-64Bit/optiga-trust-m/optiga/comms/ifx_i2c\ifx_i2c_transport_layer.c ****                         exit_machine = FALSE;
 423:C:/Workspace/DAVE-4.4.2-64Bit/optiga-trust-m/optiga/comms/ifx_i2c\ifx_i2c_transport_layer.c ****                         // Copy frame payload to transport layer receive buffer
 424:C:/Workspace/DAVE-4.4.2-64Bit/optiga-trust-m/optiga/comms/ifx_i2c\ifx_i2c_transport_layer.c ****                         memcpy(p_ctx->tl.p_recv_packet_buffer + p_ctx->tl.total_recv_length, p_data
 425:C:/Workspace/DAVE-4.4.2-64Bit/optiga-trust-m/optiga/comms/ifx_i2c\ifx_i2c_transport_layer.c ****                         p_ctx->tl.total_recv_length += (data_len - 1);
 426:C:/Workspace/DAVE-4.4.2-64Bit/optiga-trust-m/optiga/comms/ifx_i2c\ifx_i2c_transport_layer.c ****                         // Inform upper layer that a packet has arrived
 427:C:/Workspace/DAVE-4.4.2-64Bit/optiga-trust-m/optiga/comms/ifx_i2c\ifx_i2c_transport_layer.c ****                         p_ctx->tl.state = TL_STATE_IDLE;
 428:C:/Workspace/DAVE-4.4.2-64Bit/optiga-trust-m/optiga/comms/ifx_i2c\ifx_i2c_transport_layer.c ****                         *p_ctx->tl.p_recv_packet_buffer_length = p_ctx->tl.total_recv_length;
 429:C:/Workspace/DAVE-4.4.2-64Bit/optiga-trust-m/optiga/comms/ifx_i2c\ifx_i2c_transport_layer.c ****                         p_ctx->tl.upper_layer_event_handler(p_ctx,IFX_I2C_STACK_SUCCESS,
 430:C:/Workspace/DAVE-4.4.2-64Bit/optiga-trust-m/optiga/comms/ifx_i2c\ifx_i2c_transport_layer.c ****                                                             p_ctx->tl.p_recv_packet_buffer,
 431:C:/Workspace/DAVE-4.4.2-64Bit/optiga-trust-m/optiga/comms/ifx_i2c\ifx_i2c_transport_layer.c ****                                                             *p_ctx->tl.p_recv_packet_buffer_length)
 432:C:/Workspace/DAVE-4.4.2-64Bit/optiga-trust-m/optiga/comms/ifx_i2c\ifx_i2c_transport_layer.c ****                     }
 433:C:/Workspace/DAVE-4.4.2-64Bit/optiga-trust-m/optiga/comms/ifx_i2c\ifx_i2c_transport_layer.c ****                     else
 434:C:/Workspace/DAVE-4.4.2-64Bit/optiga-trust-m/optiga/comms/ifx_i2c\ifx_i2c_transport_layer.c ****                     {
 435:C:/Workspace/DAVE-4.4.2-64Bit/optiga-trust-m/optiga/comms/ifx_i2c\ifx_i2c_transport_layer.c ****                         p_ctx->tl.state = TL_STATE_CHAINING;
 436:C:/Workspace/DAVE-4.4.2-64Bit/optiga-trust-m/optiga/comms/ifx_i2c\ifx_i2c_transport_layer.c ****                     }
 437:C:/Workspace/DAVE-4.4.2-64Bit/optiga-trust-m/optiga/comms/ifx_i2c\ifx_i2c_transport_layer.c ****                 }
 438:C:/Workspace/DAVE-4.4.2-64Bit/optiga-trust-m/optiga/comms/ifx_i2c\ifx_i2c_transport_layer.c ****                 else
 439:C:/Workspace/DAVE-4.4.2-64Bit/optiga-trust-m/optiga/comms/ifx_i2c\ifx_i2c_transport_layer.c ****                 {
 440:C:/Workspace/DAVE-4.4.2-64Bit/optiga-trust-m/optiga/comms/ifx_i2c\ifx_i2c_transport_layer.c ****                     LOG_TL("[IFX-TL]: Tx:IFX_I2C_DL_EVENT_TX_SUCCESS is not satisfied Tx\n");
 441:C:/Workspace/DAVE-4.4.2-64Bit/optiga-trust-m/optiga/comms/ifx_i2c\ifx_i2c_transport_layer.c ****                     p_ctx->tl.state = TL_STATE_ERROR;
 442:C:/Workspace/DAVE-4.4.2-64Bit/optiga-trust-m/optiga/comms/ifx_i2c\ifx_i2c_transport_layer.c ****                     break;
 443:C:/Workspace/DAVE-4.4.2-64Bit/optiga-trust-m/optiga/comms/ifx_i2c\ifx_i2c_transport_layer.c ****                 }
 444:C:/Workspace/DAVE-4.4.2-64Bit/optiga-trust-m/optiga/comms/ifx_i2c\ifx_i2c_transport_layer.c ****             }
 445:C:/Workspace/DAVE-4.4.2-64Bit/optiga-trust-m/optiga/comms/ifx_i2c\ifx_i2c_transport_layer.c ****             break;
 446:C:/Workspace/DAVE-4.4.2-64Bit/optiga-trust-m/optiga/comms/ifx_i2c\ifx_i2c_transport_layer.c ****             case TL_STATE_CHAINING:
 447:C:/Workspace/DAVE-4.4.2-64Bit/optiga-trust-m/optiga/comms/ifx_i2c\ifx_i2c_transport_layer.c ****             {
 448:C:/Workspace/DAVE-4.4.2-64Bit/optiga-trust-m/optiga/comms/ifx_i2c\ifx_i2c_transport_layer.c ****                 LOG_TL("[IFX-TL]: Chain : Chaining mode entered\n");
 449:C:/Workspace/DAVE-4.4.2-64Bit/optiga-trust-m/optiga/comms/ifx_i2c\ifx_i2c_transport_layer.c ****                 // When receiving a starting fragment, fragment length must be max frame size for i
 450:C:/Workspace/DAVE-4.4.2-64Bit/optiga-trust-m/optiga/comms/ifx_i2c\ifx_i2c_transport_layer.c ****                 // frame the buffer should not be empty
 451:C:/Workspace/DAVE-4.4.2-64Bit/optiga-trust-m/optiga/comms/ifx_i2c\ifx_i2c_transport_layer.c ****                 if (data_len != (p_ctx->tl.max_packet_length + 1))
 407              	 .loc 1 451 0
 408 012c 231D     	 add r3,r4,#4
 409 012e DA8F     	 ldrh r2,[r3,#62]
 410 0130 531C     	 add r3,r2,#1
 411 0132 9D42     	 cmp r5,r3
 412 0134 01D0     	 beq .L38
 413              	.L42:
 452:C:/Workspace/DAVE-4.4.2-64Bit/optiga-trust-m/optiga/comms/ifx_i2c\ifx_i2c_transport_layer.c ****                 {
 453:C:/Workspace/DAVE-4.4.2-64Bit/optiga-trust-m/optiga/comms/ifx_i2c\ifx_i2c_transport_layer.c ****                     LOG_TL("[IFX-TL]: Chain : Data len not equal to max frame size\n");
 454:C:/Workspace/DAVE-4.4.2-64Bit/optiga-trust-m/optiga/comms/ifx_i2c\ifx_i2c_transport_layer.c ****                     p_ctx->tl.state = TL_STATE_CHAINING_ERROR;
 414              	 .loc 1 454 0
 415 0136 0723     	 mov r3,#7
 416 0138 0CE0     	 b .L84
 417              	.L38:
 455:C:/Workspace/DAVE-4.4.2-64Bit/optiga-trust-m/optiga/comms/ifx_i2c\ifx_i2c_transport_layer.c ****                     break;
 456:C:/Workspace/DAVE-4.4.2-64Bit/optiga-trust-m/optiga/comms/ifx_i2c\ifx_i2c_transport_layer.c ****                 }
 457:C:/Workspace/DAVE-4.4.2-64Bit/optiga-trust-m/optiga/comms/ifx_i2c\ifx_i2c_transport_layer.c ****                 // Check for possible receive buffer overflow
 458:C:/Workspace/DAVE-4.4.2-64Bit/optiga-trust-m/optiga/comms/ifx_i2c\ifx_i2c_transport_layer.c ****                 if ((p_ctx->tl.total_recv_length + data_len - 1) > (*p_ctx->tl.p_recv_packet_buffer
 418              	 .loc 1 458 0
 419 013a A08F     	 ldrh r0,[r4,#60]
 420 013c A16C     	 ldr r1,[r4,#72]
 421 013e 4319     	 add r3,r0,r5
 422 0140 0988     	 ldrh r1,[r1]
 423 0142 013B     	 sub r3,r3,#1
 424 0144 8B42     	 cmp r3,r1
 425 0146 07DD     	 ble .L39
 459:C:/Workspace/DAVE-4.4.2-64Bit/optiga-trust-m/optiga/comms/ifx_i2c\ifx_i2c_transport_layer.c ****                 {
 460:C:/Workspace/DAVE-4.4.2-64Bit/optiga-trust-m/optiga/comms/ifx_i2c\ifx_i2c_transport_layer.c ****                     LOG_TL("[IFX-TL]: Chain : Buffer overflow\n");
 461:C:/Workspace/DAVE-4.4.2-64Bit/optiga-trust-m/optiga/comms/ifx_i2c\ifx_i2c_transport_layer.c ****                     p_ctx->tl.error_event = IFX_I2C_STACK_MEM_ERROR;
 426              	 .loc 1 461 0
 427 0148 8222     	 mov r2,#130
 428 014a 231C     	 mov r3,r4
 429 014c 5200     	 lsl r2,r2,#1
 430 014e 5433     	 add r3,r3,#84
 431 0150 1A80     	 strh r2,[r3]
 462:C:/Workspace/DAVE-4.4.2-64Bit/optiga-trust-m/optiga/comms/ifx_i2c\ifx_i2c_transport_layer.c ****                     p_ctx->tl.state = TL_STATE_RX;
 432              	 .loc 1 462 0
 433 0152 0423     	 mov r3,#4
 434              	.L84:
 435 0154 3370     	 strb r3,[r6]
 463:C:/Workspace/DAVE-4.4.2-64Bit/optiga-trust-m/optiga/comms/ifx_i2c\ifx_i2c_transport_layer.c ****                     break;
 436              	 .loc 1 463 0
 437 0156 5BE7     	 b .L46
 438              	.L39:
 464:C:/Workspace/DAVE-4.4.2-64Bit/optiga-trust-m/optiga/comms/ifx_i2c\ifx_i2c_transport_layer.c ****                 }
 465:C:/Workspace/DAVE-4.4.2-64Bit/optiga-trust-m/optiga/comms/ifx_i2c\ifx_i2c_transport_layer.c ****                 if (NULL == p_data)
 439              	 .loc 1 465 0
 440 0158 009B     	 ldr r3,[sp]
 441 015a 002B     	 cmp r3,#0
 442 015c 9ED0     	 beq .L24
 466:C:/Workspace/DAVE-4.4.2-64Bit/optiga-trust-m/optiga/comms/ifx_i2c\ifx_i2c_transport_layer.c ****                 {
 467:C:/Workspace/DAVE-4.4.2-64Bit/optiga-trust-m/optiga/comms/ifx_i2c\ifx_i2c_transport_layer.c ****                     p_ctx->tl.state = TL_STATE_ERROR;
 468:C:/Workspace/DAVE-4.4.2-64Bit/optiga-trust-m/optiga/comms/ifx_i2c\ifx_i2c_transport_layer.c ****                     break;
 469:C:/Workspace/DAVE-4.4.2-64Bit/optiga-trust-m/optiga/comms/ifx_i2c\ifx_i2c_transport_layer.c ****                 }
 470:C:/Workspace/DAVE-4.4.2-64Bit/optiga-trust-m/optiga/comms/ifx_i2c\ifx_i2c_transport_layer.c ****                 // Copy frame payload to transport layer receive buffer
 471:C:/Workspace/DAVE-4.4.2-64Bit/optiga-trust-m/optiga/comms/ifx_i2c\ifx_i2c_transport_layer.c ****                 memcpy(p_ctx->tl.p_recv_packet_buffer + p_ctx->tl.total_recv_length, p_data + 1, da
 443              	 .loc 1 471 0
 444 015e 636C     	 ldr r3,[r4,#68]
 445 0160 0099     	 ldr r1,[sp]
 446 0162 1818     	 add r0,r3,r0
 447 0164 0131     	 add r1,r1,#1
 448 0166 FFF7FEFF 	 bl memcpy
 449              	.LVL34:
 450 016a A38F     	 ldrh r3,[r4,#60]
 472:C:/Workspace/DAVE-4.4.2-64Bit/optiga-trust-m/optiga/comms/ifx_i2c\ifx_i2c_transport_layer.c ****                 p_ctx->tl.total_recv_length += (data_len - 1);
 473:C:/Workspace/DAVE-4.4.2-64Bit/optiga-trust-m/optiga/comms/ifx_i2c\ifx_i2c_transport_layer.c **** 
 474:C:/Workspace/DAVE-4.4.2-64Bit/optiga-trust-m/optiga/comms/ifx_i2c\ifx_i2c_transport_layer.c ****                 p_ctx->tl.previous_chaining = pctr & 0x07;
 451              	 .loc 1 474 0
 452 016c 019A     	 ldr r2,[sp,#4]
 453 016e 013B     	 sub r3,r3,#1
 472:C:/Workspace/DAVE-4.4.2-64Bit/optiga-trust-m/optiga/comms/ifx_i2c\ifx_i2c_transport_layer.c ****                 p_ctx->tl.total_recv_length += (data_len - 1);
 454              	 .loc 1 472 0
 455 0170 ED18     	 add r5,r5,r3
 456              	 .loc 1 474 0
 457 0172 0723     	 mov r3,#7
 458 0174 1A40     	 and r2,r3
 459 0176 131C     	 mov r3,r2
 460 0178 221C     	 mov r2,r4
 461 017a 5232     	 add r2,r2,#82
 472:C:/Workspace/DAVE-4.4.2-64Bit/optiga-trust-m/optiga/comms/ifx_i2c\ifx_i2c_transport_layer.c ****                 p_ctx->tl.total_recv_length += (data_len - 1);
 462              	 .loc 1 472 0
 463 017c A587     	 strh r5,[r4,#60]
 464              	 .loc 1 474 0
 465 017e 1370     	 strb r3,[r2]
 475:C:/Workspace/DAVE-4.4.2-64Bit/optiga-trust-m/optiga/comms/ifx_i2c\ifx_i2c_transport_layer.c ****                 LOG_TL("[IFX-TL]: Chain : Continue  in receive mode\n");
 476:C:/Workspace/DAVE-4.4.2-64Bit/optiga-trust-m/optiga/comms/ifx_i2c\ifx_i2c_transport_layer.c ****                 p_ctx->tl.state = TL_STATE_RX;
 466              	 .loc 1 476 0
 467 0180 0423     	 mov r3,#4
 468 0182 3370     	 strb r3,[r6]
 469 0184 9EE7     	 b .L87
 470              	.L22:
 477:C:/Workspace/DAVE-4.4.2-64Bit/optiga-trust-m/optiga/comms/ifx_i2c\ifx_i2c_transport_layer.c ****                 // Continue receiving frames until packet is complete
 478:C:/Workspace/DAVE-4.4.2-64Bit/optiga-trust-m/optiga/comms/ifx_i2c\ifx_i2c_transport_layer.c ****                 if (0 != ifx_i2c_dl_receive_frame(p_ctx))
 479:C:/Workspace/DAVE-4.4.2-64Bit/optiga-trust-m/optiga/comms/ifx_i2c\ifx_i2c_transport_layer.c ****                 {
 480:C:/Workspace/DAVE-4.4.2-64Bit/optiga-trust-m/optiga/comms/ifx_i2c\ifx_i2c_transport_layer.c ****                     p_ctx->tl.state = TL_STATE_ERROR;
 481:C:/Workspace/DAVE-4.4.2-64Bit/optiga-trust-m/optiga/comms/ifx_i2c\ifx_i2c_transport_layer.c ****                 }
 482:C:/Workspace/DAVE-4.4.2-64Bit/optiga-trust-m/optiga/comms/ifx_i2c\ifx_i2c_transport_layer.c ****                 exit_machine = FALSE;
 483:C:/Workspace/DAVE-4.4.2-64Bit/optiga-trust-m/optiga/comms/ifx_i2c\ifx_i2c_transport_layer.c ****             }
 484:C:/Workspace/DAVE-4.4.2-64Bit/optiga-trust-m/optiga/comms/ifx_i2c\ifx_i2c_transport_layer.c ****             break;
 485:C:/Workspace/DAVE-4.4.2-64Bit/optiga-trust-m/optiga/comms/ifx_i2c\ifx_i2c_transport_layer.c ****             case TL_STATE_RESEND:
 486:C:/Workspace/DAVE-4.4.2-64Bit/optiga-trust-m/optiga/comms/ifx_i2c\ifx_i2c_transport_layer.c ****             {
 487:C:/Workspace/DAVE-4.4.2-64Bit/optiga-trust-m/optiga/comms/ifx_i2c\ifx_i2c_transport_layer.c ****                 LOG_TL("[IFX-TL]: Resend Enter\n");
 488:C:/Workspace/DAVE-4.4.2-64Bit/optiga-trust-m/optiga/comms/ifx_i2c\ifx_i2c_transport_layer.c ****                 // In received mode , for wrong pctr with data
 489:C:/Workspace/DAVE-4.4.2-64Bit/optiga-trust-m/optiga/comms/ifx_i2c\ifx_i2c_transport_layer.c ****                 if ((data_len > 1) && (p_ctx->tl.transmission_completed == 1))
 471              	 .loc 1 489 0
 472 0186 012D     	 cmp r5,#1
 473 0188 04D9     	 bls .L41
 474              	 .loc 1 489 0 is_stmt 0 discriminator 1
 475 018a 231C     	 mov r3,r4
 476 018c 5333     	 add r3,r3,#83
 477 018e 1B78     	 ldrb r3,[r3]
 478 0190 012B     	 cmp r3,#1
 479 0192 D0D0     	 beq .L42
 480              	.L41:
 490:C:/Workspace/DAVE-4.4.2-64Bit/optiga-trust-m/optiga/comms/ifx_i2c\ifx_i2c_transport_layer.c ****                 {
 491:C:/Workspace/DAVE-4.4.2-64Bit/optiga-trust-m/optiga/comms/ifx_i2c\ifx_i2c_transport_layer.c ****                     LOG_TL("[IFX-TL]: Resend : Send chaining error\n");
 492:C:/Workspace/DAVE-4.4.2-64Bit/optiga-trust-m/optiga/comms/ifx_i2c\ifx_i2c_transport_layer.c ****                     p_ctx->tl.state = TL_STATE_CHAINING_ERROR;
 493:C:/Workspace/DAVE-4.4.2-64Bit/optiga-trust-m/optiga/comms/ifx_i2c\ifx_i2c_transport_layer.c ****                     break;
 494:C:/Workspace/DAVE-4.4.2-64Bit/optiga-trust-m/optiga/comms/ifx_i2c\ifx_i2c_transport_layer.c ****                 }
 495:C:/Workspace/DAVE-4.4.2-64Bit/optiga-trust-m/optiga/comms/ifx_i2c\ifx_i2c_transport_layer.c ****                 // Master Resend the packets,Resend only once, otherwise exit with error
 496:C:/Workspace/DAVE-4.4.2-64Bit/optiga-trust-m/optiga/comms/ifx_i2c\ifx_i2c_transport_layer.c ****                 if (0 == (p_ctx->tl.chaining_error_count++))
 481              	 .loc 1 496 0 is_stmt 1
 482 0194 221C     	 mov r2,r4
 483 0196 5032     	 add r2,r2,#80
 484 0198 1378     	 ldrb r3,[r2]
 485 019a 591C     	 add r1,r3,#1
 486 019c 1170     	 strb r1,[r2]
 487 019e 002B     	 cmp r3,#0
 488 01a0 00D0     	 beq .LCB459
 489 01a2 7BE7     	 b .L24
 490              	.LCB459:
 491              	.LVL35:
 492              	.LBB24:
 493              	.LBB25:
 162:C:/Workspace/DAVE-4.4.2-64Bit/optiga-trust-m/optiga/comms/ifx_i2c\ifx_i2c_transport_layer.c ****     p_ctx->tl.total_recv_length = 0;
 494              	 .loc 1 162 0
 495 01a4 A21C     	 add r2,r4,#2
 496 01a6 D387     	 strh r3,[r2,#62]
 163:C:/Workspace/DAVE-4.4.2-64Bit/optiga-trust-m/optiga/comms/ifx_i2c\ifx_i2c_transport_layer.c ****     p_ctx->tl.state = TL_STATE_TX;
 497              	 .loc 1 163 0
 498 01a8 A387     	 strh r3,[r4,#60]
 164:C:/Workspace/DAVE-4.4.2-64Bit/optiga-trust-m/optiga/comms/ifx_i2c\ifx_i2c_transport_layer.c ****     return (ifx_i2c_tl_send_next_fragment(p_ctx));
 499              	 .loc 1 164 0
 500 01aa 0233     	 add r3,r3,#2
 501 01ac 3370     	 strb r3,[r6]
 165:C:/Workspace/DAVE-4.4.2-64Bit/optiga-trust-m/optiga/comms/ifx_i2c\ifx_i2c_transport_layer.c **** }
 502              	 .loc 1 165 0
 503 01ae 201C     	 mov r0,r4
 504 01b0 FFF7FEFF 	 bl ifx_i2c_tl_send_next_fragment
 505              	.LVL36:
 506 01b4 11E0     	 b .L86
 507              	.LVL37:
 508              	.L21:
 509              	.LBE25:
 510              	.LBE24:
 497:C:/Workspace/DAVE-4.4.2-64Bit/optiga-trust-m/optiga/comms/ifx_i2c\ifx_i2c_transport_layer.c ****                 {
 498:C:/Workspace/DAVE-4.4.2-64Bit/optiga-trust-m/optiga/comms/ifx_i2c\ifx_i2c_transport_layer.c ****                     LOG_TL("[IFX-TL]: Resend : Resending\n");
 499:C:/Workspace/DAVE-4.4.2-64Bit/optiga-trust-m/optiga/comms/ifx_i2c\ifx_i2c_transport_layer.c ****                     p_ctx->tl.state = TL_STATE_IDLE;
 500:C:/Workspace/DAVE-4.4.2-64Bit/optiga-trust-m/optiga/comms/ifx_i2c\ifx_i2c_transport_layer.c ****                     if (0 != ifx_i2c_tl_resend_packets(p_ctx))
 501:C:/Workspace/DAVE-4.4.2-64Bit/optiga-trust-m/optiga/comms/ifx_i2c\ifx_i2c_transport_layer.c ****                     {
 502:C:/Workspace/DAVE-4.4.2-64Bit/optiga-trust-m/optiga/comms/ifx_i2c\ifx_i2c_transport_layer.c ****                         p_ctx->tl.state = TL_STATE_ERROR;
 503:C:/Workspace/DAVE-4.4.2-64Bit/optiga-trust-m/optiga/comms/ifx_i2c\ifx_i2c_transport_layer.c ****                     }
 504:C:/Workspace/DAVE-4.4.2-64Bit/optiga-trust-m/optiga/comms/ifx_i2c\ifx_i2c_transport_layer.c ****                     else
 505:C:/Workspace/DAVE-4.4.2-64Bit/optiga-trust-m/optiga/comms/ifx_i2c\ifx_i2c_transport_layer.c ****                     {
 506:C:/Workspace/DAVE-4.4.2-64Bit/optiga-trust-m/optiga/comms/ifx_i2c\ifx_i2c_transport_layer.c ****                         exit_machine = FALSE;
 507:C:/Workspace/DAVE-4.4.2-64Bit/optiga-trust-m/optiga/comms/ifx_i2c\ifx_i2c_transport_layer.c ****                     }
 508:C:/Workspace/DAVE-4.4.2-64Bit/optiga-trust-m/optiga/comms/ifx_i2c\ifx_i2c_transport_layer.c ****                 }
 509:C:/Workspace/DAVE-4.4.2-64Bit/optiga-trust-m/optiga/comms/ifx_i2c\ifx_i2c_transport_layer.c ****                 else
 510:C:/Workspace/DAVE-4.4.2-64Bit/optiga-trust-m/optiga/comms/ifx_i2c\ifx_i2c_transport_layer.c ****                 {
 511:C:/Workspace/DAVE-4.4.2-64Bit/optiga-trust-m/optiga/comms/ifx_i2c\ifx_i2c_transport_layer.c ****                     LOG_TL("[IFX-TL]: Resend : chaining_error_count exceeded\n");
 512:C:/Workspace/DAVE-4.4.2-64Bit/optiga-trust-m/optiga/comms/ifx_i2c\ifx_i2c_transport_layer.c ****                     p_ctx->tl.state = TL_STATE_ERROR;
 513:C:/Workspace/DAVE-4.4.2-64Bit/optiga-trust-m/optiga/comms/ifx_i2c\ifx_i2c_transport_layer.c ****                 }
 514:C:/Workspace/DAVE-4.4.2-64Bit/optiga-trust-m/optiga/comms/ifx_i2c\ifx_i2c_transport_layer.c ****             }
 515:C:/Workspace/DAVE-4.4.2-64Bit/optiga-trust-m/optiga/comms/ifx_i2c\ifx_i2c_transport_layer.c ****             break;
 516:C:/Workspace/DAVE-4.4.2-64Bit/optiga-trust-m/optiga/comms/ifx_i2c\ifx_i2c_transport_layer.c ****             case TL_STATE_CHAINING_ERROR:
 517:C:/Workspace/DAVE-4.4.2-64Bit/optiga-trust-m/optiga/comms/ifx_i2c\ifx_i2c_transport_layer.c ****             {
 518:C:/Workspace/DAVE-4.4.2-64Bit/optiga-trust-m/optiga/comms/ifx_i2c\ifx_i2c_transport_layer.c ****                 // Send chaining error to slave
 519:C:/Workspace/DAVE-4.4.2-64Bit/optiga-trust-m/optiga/comms/ifx_i2c\ifx_i2c_transport_layer.c ****                 p_ctx->tl.state = TL_STATE_TX;
 511              	 .loc 1 519 0
 512 01b6 0223     	 mov r3,#2
 520:C:/Workspace/DAVE-4.4.2-64Bit/optiga-trust-m/optiga/comms/ifx_i2c\ifx_i2c_transport_layer.c ****                 if (0 == (p_ctx->tl.master_chaining_error_count++))
 513              	 .loc 1 520 0
 514 01b8 221C     	 mov r2,r4
 519:C:/Workspace/DAVE-4.4.2-64Bit/optiga-trust-m/optiga/comms/ifx_i2c\ifx_i2c_transport_layer.c ****                 if (0 == (p_ctx->tl.master_chaining_error_count++))
 515              	 .loc 1 519 0
 516 01ba 3370     	 strb r3,[r6]
 517              	 .loc 1 520 0
 518 01bc 5132     	 add r2,r2,#81
 519 01be 1378     	 ldrb r3,[r2]
 520 01c0 591C     	 add r1,r3,#1
 521 01c2 1170     	 strb r1,[r2]
 522 01c4 002B     	 cmp r3,#0
 523 01c6 00D0     	 beq .LCB487
 524 01c8 68E7     	 b .L24
 525              	.LCB487:
 526              	.LVL38:
 527              	.LBB26:
 528              	.LBB27:
 220:C:/Workspace/DAVE-4.4.2-64Bit/optiga-trust-m/optiga/comms/ifx_i2c\ifx_i2c_transport_layer.c ****     p_ctx->tl.total_recv_length = 0;
 529              	 .loc 1 220 0
 530 01ca 0721     	 mov r1,#7
 531 01cc 2E4A     	 ldr r2,.L90+4
 223:C:/Workspace/DAVE-4.4.2-64Bit/optiga-trust-m/optiga/comms/ifx_i2c\ifx_i2c_transport_layer.c **** }
 532              	 .loc 1 223 0
 533 01ce 201C     	 mov r0,r4
 220:C:/Workspace/DAVE-4.4.2-64Bit/optiga-trust-m/optiga/comms/ifx_i2c\ifx_i2c_transport_layer.c ****     p_ctx->tl.total_recv_length = 0;
 534              	 .loc 1 220 0
 535 01d0 A154     	 strb r1,[r4,r2]
 221:C:/Workspace/DAVE-4.4.2-64Bit/optiga-trust-m/optiga/comms/ifx_i2c\ifx_i2c_transport_layer.c ****     //send the fragment to dl layer
 536              	 .loc 1 221 0
 537 01d2 A387     	 strh r3,[r4,#60]
 223:C:/Workspace/DAVE-4.4.2-64Bit/optiga-trust-m/optiga/comms/ifx_i2c\ifx_i2c_transport_layer.c **** }
 538              	 .loc 1 223 0
 539 01d4 0639     	 sub r1,r1,#6
 540 01d6 FFF7FEFF 	 bl ifx_i2c_dl_send_frame
 541              	.LVL39:
 542              	.L86:
 543              	.LBE27:
 544              	.LBE26:
 521:C:/Workspace/DAVE-4.4.2-64Bit/optiga-trust-m/optiga/comms/ifx_i2c\ifx_i2c_transport_layer.c ****                 {
 522:C:/Workspace/DAVE-4.4.2-64Bit/optiga-trust-m/optiga/comms/ifx_i2c\ifx_i2c_transport_layer.c ****                     LOG_TL("[IFX-TL]: Chain error : Sending chain error\n");
 523:C:/Workspace/DAVE-4.4.2-64Bit/optiga-trust-m/optiga/comms/ifx_i2c\ifx_i2c_transport_layer.c ****                     // Send chaining error only once
 524:C:/Workspace/DAVE-4.4.2-64Bit/optiga-trust-m/optiga/comms/ifx_i2c\ifx_i2c_transport_layer.c ****                     if (0 != ifx_i2c_tl_send_chaining_error(p_ctx))
 545              	 .loc 1 524 0
 546 01da 0028     	 cmp r0,#0
 547 01dc 00D0     	 beq .LCB508
 548 01de 5DE7     	 b .L24
 549              	.LCB508:
 550 01e0 4EE0     	 b .L9
 551              	.L20:
 552              	.LVL40:
 525:C:/Workspace/DAVE-4.4.2-64Bit/optiga-trust-m/optiga/comms/ifx_i2c\ifx_i2c_transport_layer.c ****                     {
 526:C:/Workspace/DAVE-4.4.2-64Bit/optiga-trust-m/optiga/comms/ifx_i2c\ifx_i2c_transport_layer.c ****                         p_ctx->tl.state = TL_STATE_ERROR;
 527:C:/Workspace/DAVE-4.4.2-64Bit/optiga-trust-m/optiga/comms/ifx_i2c\ifx_i2c_transport_layer.c ****                     }
 528:C:/Workspace/DAVE-4.4.2-64Bit/optiga-trust-m/optiga/comms/ifx_i2c\ifx_i2c_transport_layer.c ****                     else
 529:C:/Workspace/DAVE-4.4.2-64Bit/optiga-trust-m/optiga/comms/ifx_i2c\ifx_i2c_transport_layer.c ****                     {
 530:C:/Workspace/DAVE-4.4.2-64Bit/optiga-trust-m/optiga/comms/ifx_i2c\ifx_i2c_transport_layer.c ****                         exit_machine = FALSE;
 531:C:/Workspace/DAVE-4.4.2-64Bit/optiga-trust-m/optiga/comms/ifx_i2c\ifx_i2c_transport_layer.c ****                     }
 532:C:/Workspace/DAVE-4.4.2-64Bit/optiga-trust-m/optiga/comms/ifx_i2c\ifx_i2c_transport_layer.c ****                 }
 533:C:/Workspace/DAVE-4.4.2-64Bit/optiga-trust-m/optiga/comms/ifx_i2c\ifx_i2c_transport_layer.c ****                 else
 534:C:/Workspace/DAVE-4.4.2-64Bit/optiga-trust-m/optiga/comms/ifx_i2c\ifx_i2c_transport_layer.c ****                 {
 535:C:/Workspace/DAVE-4.4.2-64Bit/optiga-trust-m/optiga/comms/ifx_i2c\ifx_i2c_transport_layer.c ****                     LOG_TL("[IFX-TL]: Chain error : master_chaining_error_count exceeded\n");
 536:C:/Workspace/DAVE-4.4.2-64Bit/optiga-trust-m/optiga/comms/ifx_i2c\ifx_i2c_transport_layer.c ****                     p_ctx->tl.state = TL_STATE_ERROR;
 537:C:/Workspace/DAVE-4.4.2-64Bit/optiga-trust-m/optiga/comms/ifx_i2c\ifx_i2c_transport_layer.c ****                 }
 538:C:/Workspace/DAVE-4.4.2-64Bit/optiga-trust-m/optiga/comms/ifx_i2c\ifx_i2c_transport_layer.c ****             }
 539:C:/Workspace/DAVE-4.4.2-64Bit/optiga-trust-m/optiga/comms/ifx_i2c\ifx_i2c_transport_layer.c ****             break;
 540:C:/Workspace/DAVE-4.4.2-64Bit/optiga-trust-m/optiga/comms/ifx_i2c\ifx_i2c_transport_layer.c ****             case TL_STATE_ERROR:
 541:C:/Workspace/DAVE-4.4.2-64Bit/optiga-trust-m/optiga/comms/ifx_i2c\ifx_i2c_transport_layer.c ****             {
 542:C:/Workspace/DAVE-4.4.2-64Bit/optiga-trust-m/optiga/comms/ifx_i2c\ifx_i2c_transport_layer.c ****                 LOG_TL("[IFX-TL]: Error\n");
 543:C:/Workspace/DAVE-4.4.2-64Bit/optiga-trust-m/optiga/comms/ifx_i2c\ifx_i2c_transport_layer.c ****                 exit_machine = FALSE;
 544:C:/Workspace/DAVE-4.4.2-64Bit/optiga-trust-m/optiga/comms/ifx_i2c\ifx_i2c_transport_layer.c ****                 if ((0 != (event & IFX_I2C_DL_EVENT_ERROR)) || (0 != data_len))
 553              	 .loc 1 544 0
 554 01e2 002B     	 cmp r3,#0
 555 01e4 01D1     	 bne .L43
 556              	 .loc 1 544 0 is_stmt 0 discriminator 1
 557 01e6 002D     	 cmp r5,#0
 558 01e8 01D0     	 beq .L44
 559              	.LVL41:
 560              	.L43:
 545:C:/Workspace/DAVE-4.4.2-64Bit/optiga-trust-m/optiga/comms/ifx_i2c\ifx_i2c_transport_layer.c ****                 {
 546:C:/Workspace/DAVE-4.4.2-64Bit/optiga-trust-m/optiga/comms/ifx_i2c\ifx_i2c_transport_layer.c ****                     p_ctx->tl.state = TL_STATE_IDLE;
 561              	 .loc 1 546 0 is_stmt 1
 562 01ea 0123     	 mov r3,#1
 563 01ec 3370     	 strb r3,[r6]
 564              	.L44:
 547:C:/Workspace/DAVE-4.4.2-64Bit/optiga-trust-m/optiga/comms/ifx_i2c\ifx_i2c_transport_layer.c ****                 }
 548:C:/Workspace/DAVE-4.4.2-64Bit/optiga-trust-m/optiga/comms/ifx_i2c\ifx_i2c_transport_layer.c ****                 p_ctx->tl.upper_layer_event_handler(p_ctx, p_ctx->tl.error_event, 0u, 0u);
 565              	 .loc 1 548 0
 566 01ee 231C     	 mov r3,r4
 567 01f0 201C     	 mov r0,r4
 568 01f2 0022     	 mov r2,#0
 569 01f4 5433     	 add r3,r3,#84
 570 01f6 1988     	 ldrh r1,[r3]
 571 01f8 E56D     	 ldr r5,[r4,#92]
 572              	.LVL42:
 573              	.L88:
 574 01fa 131C     	 mov r3,r2
 575              	.L89:
 576 01fc A847     	 blx r5
 577              	.LVL43:
 549:C:/Workspace/DAVE-4.4.2-64Bit/optiga-trust-m/optiga/comms/ifx_i2c\ifx_i2c_transport_layer.c ****             }
 550:C:/Workspace/DAVE-4.4.2-64Bit/optiga-trust-m/optiga/comms/ifx_i2c\ifx_i2c_transport_layer.c ****             break;
 578              	 .loc 1 550 0
 579 01fe 3FE0     	 b .L9
 580              	.LVL44:
 581              	.L13:
 300:C:/Workspace/DAVE-4.4.2-64Bit/optiga-trust-m/optiga/comms/ifx_i2c\ifx_i2c_transport_layer.c ****                 p_ctx->tl.error_event = IFX_I2C_STACK_ERROR;
 582              	 .loc 1 300 0
 583 0200 221C     	 mov r2,r4
 584 0202 0621     	 mov r1,#6
 585 0204 3432     	 add r2,r2,#52
 586 0206 1170     	 strb r1,[r2]
 301:C:/Workspace/DAVE-4.4.2-64Bit/optiga-trust-m/optiga/comms/ifx_i2c\ifx_i2c_transport_layer.c ****             }
 587              	 .loc 1 301 0
 588 0208 FC31     	 add r1,r1,#252
 589 020a 1184     	 strh r1,[r2,#32]
 590 020c 23E7     	 b .L12
 591              	.LVL45:
 592              	.L34:
 399:C:/Workspace/DAVE-4.4.2-64Bit/optiga-trust-m/optiga/comms/ifx_i2c\ifx_i2c_transport_layer.c ****                         break;
 593              	 .loc 1 399 0
 594 020e 0822     	 mov r2,#8
 595              	.LVL46:
 596              	.L85:
 597 0210 231C     	 mov r3,r4
 598 0212 3433     	 add r3,r3,#52
 599 0214 1A70     	 strb r2,[r3]
 400:C:/Workspace/DAVE-4.4.2-64Bit/optiga-trust-m/optiga/comms/ifx_i2c\ifx_i2c_transport_layer.c ****                     }
 600              	 .loc 1 400 0
 601 0216 FBE6     	 b .L46
 602              	.LVL47:
 603              	.L35:
 403:C:/Workspace/DAVE-4.4.2-64Bit/optiga-trust-m/optiga/comms/ifx_i2c\ifx_i2c_transport_layer.c ****                     if (NULL == p_data)
 604              	 .loc 1 403 0
 605 0218 231C     	 mov r3,r4
 606 021a 5233     	 add r3,r3,#82
 607 021c 1F70     	 strb r7,[r3]
 404:C:/Workspace/DAVE-4.4.2-64Bit/optiga-trust-m/optiga/comms/ifx_i2c\ifx_i2c_transport_layer.c ****                     {
 608              	 .loc 1 404 0
 609 021e 009B     	 ldr r3,[sp]
 610 0220 002B     	 cmp r3,#0
 611 0222 00D1     	 bne .LCB598
 612 0224 3AE7     	 b .L24
 613              	.LCB598:
 411:C:/Workspace/DAVE-4.4.2-64Bit/optiga-trust-m/optiga/comms/ifx_i2c\ifx_i2c_transport_layer.c ****                     {
 614              	 .loc 1 411 0
 615 0226 0423     	 mov r3,#4
 616 0228 3A1C     	 mov r2,r7
 617              	.LVL48:
 618 022a 261C     	 mov r6,r4
 619 022c 9A43     	 bic r2,r3
 620 022e 0392     	 str r2,[sp,#12]
 621 0230 3436     	 add r6,r6,#52
 622 0232 002A     	 cmp r2,#0
 623 0234 22D1     	 bne .L36
 415:C:/Workspace/DAVE-4.4.2-64Bit/optiga-trust-m/optiga/comms/ifx_i2c\ifx_i2c_transport_layer.c ****                         {
 624              	 .loc 1 415 0
 625 0236 A08F     	 ldrh r0,[r4,#60]
 626 0238 A26C     	 ldr r2,[r4,#72]
 627 023a 4319     	 add r3,r0,r5
 628 023c 1288     	 ldrh r2,[r2]
 629 023e 013B     	 sub r3,r3,#1
 630 0240 9342     	 cmp r3,r2
 631 0242 06DD     	 ble .L37
 418:C:/Workspace/DAVE-4.4.2-64Bit/optiga-trust-m/optiga/comms/ifx_i2c\ifx_i2c_transport_layer.c ****                             p_ctx->tl.state = TL_STATE_ERROR;
 632              	 .loc 1 418 0
 633 0244 8222     	 mov r2,#130
 634 0246 231C     	 mov r3,r4
 635 0248 5200     	 lsl r2,r2,#1
 636 024a 5433     	 add r3,r3,#84
 637 024c 1A80     	 strh r2,[r3]
 419:C:/Workspace/DAVE-4.4.2-64Bit/optiga-trust-m/optiga/comms/ifx_i2c\ifx_i2c_transport_layer.c ****                             break;
 638              	 .loc 1 419 0
 639 024e 0623     	 mov r3,#6
 640 0250 80E7     	 b .L84
 641              	.L37:
 642              	.LVL49:
 424:C:/Workspace/DAVE-4.4.2-64Bit/optiga-trust-m/optiga/comms/ifx_i2c\ifx_i2c_transport_layer.c ****                         p_ctx->tl.total_recv_length += (data_len - 1);
 643              	 .loc 1 424 0
 644 0252 636C     	 ldr r3,[r4,#68]
 645 0254 0099     	 ldr r1,[sp]
 646 0256 6A1E     	 sub r2,r5,#1
 647 0258 1818     	 add r0,r3,r0
 648 025a 0131     	 add r1,r1,#1
 649 025c FFF7FEFF 	 bl memcpy
 650              	.LVL50:
 427:C:/Workspace/DAVE-4.4.2-64Bit/optiga-trust-m/optiga/comms/ifx_i2c\ifx_i2c_transport_layer.c ****                         *p_ctx->tl.p_recv_packet_buffer_length = p_ctx->tl.total_recv_length;
 651              	 .loc 1 427 0
 652 0260 0122     	 mov r2,#1
 653 0262 A38F     	 ldrh r3,[r4,#60]
 429:C:/Workspace/DAVE-4.4.2-64Bit/optiga-trust-m/optiga/comms/ifx_i2c\ifx_i2c_transport_layer.c ****                                                             p_ctx->tl.p_recv_packet_buffer,
 654              	 .loc 1 429 0
 655 0264 201C     	 mov r0,r4
 656 0266 013B     	 sub r3,r3,#1
 425:C:/Workspace/DAVE-4.4.2-64Bit/optiga-trust-m/optiga/comms/ifx_i2c\ifx_i2c_transport_layer.c ****                         // Inform upper layer that a packet has arrived
 657              	 .loc 1 425 0
 658 0268 EB18     	 add r3,r5,r3
 659 026a 9BB2     	 uxth r3,r3
 660 026c A387     	 strh r3,[r4,#60]
 427:C:/Workspace/DAVE-4.4.2-64Bit/optiga-trust-m/optiga/comms/ifx_i2c\ifx_i2c_transport_layer.c ****                         *p_ctx->tl.p_recv_packet_buffer_length = p_ctx->tl.total_recv_length;
 661              	 .loc 1 427 0
 662 026e 3270     	 strb r2,[r6]
 428:C:/Workspace/DAVE-4.4.2-64Bit/optiga-trust-m/optiga/comms/ifx_i2c\ifx_i2c_transport_layer.c ****                         p_ctx->tl.upper_layer_event_handler(p_ctx,IFX_I2C_STACK_SUCCESS,
 663              	 .loc 1 428 0
 664 0270 A26C     	 ldr r2,[r4,#72]
 429:C:/Workspace/DAVE-4.4.2-64Bit/optiga-trust-m/optiga/comms/ifx_i2c\ifx_i2c_transport_layer.c ****                                                             p_ctx->tl.p_recv_packet_buffer,
 665              	 .loc 1 429 0
 666 0272 E56D     	 ldr r5,[r4,#92]
 428:C:/Workspace/DAVE-4.4.2-64Bit/optiga-trust-m/optiga/comms/ifx_i2c\ifx_i2c_transport_layer.c ****                         p_ctx->tl.upper_layer_event_handler(p_ctx,IFX_I2C_STACK_SUCCESS,
 667              	 .loc 1 428 0
 668 0274 1380     	 strh r3,[r2]
 429:C:/Workspace/DAVE-4.4.2-64Bit/optiga-trust-m/optiga/comms/ifx_i2c\ifx_i2c_transport_layer.c ****                                                             p_ctx->tl.p_recv_packet_buffer,
 669              	 .loc 1 429 0
 670 0276 0399     	 ldr r1,[sp,#12]
 671 0278 626C     	 ldr r2,[r4,#68]
 672 027a BFE7     	 b .L89
 673              	.LVL51:
 674              	.L36:
 435:C:/Workspace/DAVE-4.4.2-64Bit/optiga-trust-m/optiga/comms/ifx_i2c\ifx_i2c_transport_layer.c ****                     }
 675              	 .loc 1 435 0
 676 027c 0523     	 mov r3,#5
 677 027e 69E7     	 b .L84
 678              	.LVL52:
 679              	.L9:
 551:C:/Workspace/DAVE-4.4.2-64Bit/optiga-trust-m/optiga/comms/ifx_i2c\ifx_i2c_transport_layer.c ****             default:
 552:C:/Workspace/DAVE-4.4.2-64Bit/optiga-trust-m/optiga/comms/ifx_i2c\ifx_i2c_transport_layer.c ****             {
 553:C:/Workspace/DAVE-4.4.2-64Bit/optiga-trust-m/optiga/comms/ifx_i2c\ifx_i2c_transport_layer.c ****                 LOG_TL("[IFX-TL]: Exit from default case\n");
 554:C:/Workspace/DAVE-4.4.2-64Bit/optiga-trust-m/optiga/comms/ifx_i2c\ifx_i2c_transport_layer.c ****                 p_ctx->tl.state = TL_STATE_IDLE;
 555:C:/Workspace/DAVE-4.4.2-64Bit/optiga-trust-m/optiga/comms/ifx_i2c\ifx_i2c_transport_layer.c ****                 exit_machine = FALSE;
 556:C:/Workspace/DAVE-4.4.2-64Bit/optiga-trust-m/optiga/comms/ifx_i2c\ifx_i2c_transport_layer.c ****                 p_ctx->tl.upper_layer_event_handler(p_ctx, p_ctx->tl.error_event, 0u, 0u);
 557:C:/Workspace/DAVE-4.4.2-64Bit/optiga-trust-m/optiga/comms/ifx_i2c\ifx_i2c_transport_layer.c ****             }
 558:C:/Workspace/DAVE-4.4.2-64Bit/optiga-trust-m/optiga/comms/ifx_i2c\ifx_i2c_transport_layer.c ****             break;
 559:C:/Workspace/DAVE-4.4.2-64Bit/optiga-trust-m/optiga/comms/ifx_i2c\ifx_i2c_transport_layer.c ****         }
 560:C:/Workspace/DAVE-4.4.2-64Bit/optiga-trust-m/optiga/comms/ifx_i2c\ifx_i2c_transport_layer.c ****     } while (TRUE == exit_machine);
 561:C:/Workspace/DAVE-4.4.2-64Bit/optiga-trust-m/optiga/comms/ifx_i2c\ifx_i2c_transport_layer.c **** }
 680              	 .loc 1 561 0
 681 0280 05B0     	 add sp,sp,#20
 682              	.LVL53:
 683              	 
 684              	.LVL54:
 685 0282 F0BD     	 pop {r4,r5,r6,r7,pc}
 686              	.L91:
 687              	 .align 2
 688              	.L90:
 689 0284 00000000 	 .word .LANCHOR0
 690 0288 A7020000 	 .word 679
 691              	 .cfi_endproc
 692              	.LFE8:
 694              	 .section .text.ifx_i2c_tl_init,"ax",%progbits
 695              	 .align 1
 696              	 .global ifx_i2c_tl_init
 697              	 .code 16
 698              	 .thumb_func
 700              	ifx_i2c_tl_init:
 701              	.LFB0:
  96:C:/Workspace/DAVE-4.4.2-64Bit/optiga-trust-m/optiga/comms/ifx_i2c\ifx_i2c_transport_layer.c ****     LOG_TL("[IFX-TL]: Init\n");
 702              	 .loc 1 96 0
 703              	 .cfi_startproc
 704              	.LVL55:
 705 0000 70B5     	 push {r4,r5,r6,lr}
 706              	.LCFI3:
 707              	 .cfi_def_cfa_offset 16
 708              	 .cfi_offset 4,-16
 709              	 .cfi_offset 5,-12
 710              	 .cfi_offset 6,-8
 711              	 .cfi_offset 14,-4
  99:C:/Workspace/DAVE-4.4.2-64Bit/optiga-trust-m/optiga/comms/ifx_i2c\ifx_i2c_transport_layer.c **** 
 712              	 .loc 1 99 0
 713 0002 051C     	 mov r5,r0
 714 0004 0023     	 mov r3,#0
 715 0006 3435     	 add r5,r5,#52
  96:C:/Workspace/DAVE-4.4.2-64Bit/optiga-trust-m/optiga/comms/ifx_i2c\ifx_i2c_transport_layer.c ****     LOG_TL("[IFX-TL]: Init\n");
 716              	 .loc 1 96 0
 717 0008 0E1C     	 mov r6,r1
  99:C:/Workspace/DAVE-4.4.2-64Bit/optiga-trust-m/optiga/comms/ifx_i2c\ifx_i2c_transport_layer.c **** 
 718              	 .loc 1 99 0
 719 000a 2B70     	 strb r3,[r5]
 102:C:/Workspace/DAVE-4.4.2-64Bit/optiga-trust-m/optiga/comms/ifx_i2c\ifx_i2c_transport_layer.c ****     {
 720              	 .loc 1 102 0
 721 000c 0949     	 ldr r1,.L95
 722              	.LVL56:
  96:C:/Workspace/DAVE-4.4.2-64Bit/optiga-trust-m/optiga/comms/ifx_i2c\ifx_i2c_transport_layer.c ****     LOG_TL("[IFX-TL]: Init\n");
 723              	 .loc 1 96 0
 724 000e 041C     	 mov r4,r0
 102:C:/Workspace/DAVE-4.4.2-64Bit/optiga-trust-m/optiga/comms/ifx_i2c\ifx_i2c_transport_layer.c ****     {
 725              	 .loc 1 102 0
 726 0010 FFF7FEFF 	 bl ifx_i2c_dl_init
 727              	.LVL57:
 728 0014 0028     	 cmp r0,#0
 729 0016 0AD1     	 bne .L94
 106:C:/Workspace/DAVE-4.4.2-64Bit/optiga-trust-m/optiga/comms/ifx_i2c\ifx_i2c_transport_layer.c ****     p_ctx->tl.upper_layer_event_handler = handler;
 730              	 .loc 1 106 0
 731 0018 221C     	 mov r2,r4
 732 001a 0123     	 mov r3,#1
 733 001c 5832     	 add r2,r2,#88
 734 001e 1370     	 strb r3,[r2]
 107:C:/Workspace/DAVE-4.4.2-64Bit/optiga-trust-m/optiga/comms/ifx_i2c\ifx_i2c_transport_layer.c ****     p_ctx->tl.state = TL_STATE_IDLE;
 735              	 .loc 1 107 0
 736 0020 E665     	 str r6,[r4,#92]
 108:C:/Workspace/DAVE-4.4.2-64Bit/optiga-trust-m/optiga/comms/ifx_i2c\ifx_i2c_transport_layer.c ****     p_ctx->tl.max_packet_length = p_ctx->frame_size - (DL_HEADER_SIZE + TL_HEADER_SIZE);
 737              	 .loc 1 108 0
 738 0022 2B70     	 strb r3,[r5]
 109:C:/Workspace/DAVE-4.4.2-64Bit/optiga-trust-m/optiga/comms/ifx_i2c\ifx_i2c_transport_layer.c **** 
 739              	 .loc 1 109 0
 740 0024 A388     	 ldrh r3,[r4,#4]
 741 0026 0434     	 add r4,r4,#4
 742              	.LVL58:
 743 0028 063B     	 sub r3,r3,#6
 744 002a E387     	 strh r3,[r4,#62]
 111:C:/Workspace/DAVE-4.4.2-64Bit/optiga-trust-m/optiga/comms/ifx_i2c\ifx_i2c_transport_layer.c **** }
 745              	 .loc 1 111 0
 746 002c 01E0     	 b .L93
 747              	.LVL59:
 748              	.L94:
 104:C:/Workspace/DAVE-4.4.2-64Bit/optiga-trust-m/optiga/comms/ifx_i2c\ifx_i2c_transport_layer.c ****     }
 749              	 .loc 1 104 0
 750 002e 8120     	 mov r0,#129
 751 0030 4000     	 lsl r0,r0,#1
 752              	.LVL60:
 753              	.L93:
 112:C:/Workspace/DAVE-4.4.2-64Bit/optiga-trust-m/optiga/comms/ifx_i2c\ifx_i2c_transport_layer.c **** 
 754              	 .loc 1 112 0
 755              	 
 756              	.LVL61:
 757              	.LVL62:
 758 0032 70BD     	 pop {r4,r5,r6,pc}
 759              	.L96:
 760              	 .align 2
 761              	.L95:
 762 0034 00000000 	 .word ifx_i2c_dl_event_handler
 763              	 .cfi_endproc
 764              	.LFE0:
 766              	 .section .text.ifx_i2c_tl_transceive,"ax",%progbits
 767              	 .align 1
 768              	 .global ifx_i2c_tl_transceive
 769              	 .code 16
 770              	 .thumb_func
 772              	ifx_i2c_tl_transceive:
 773              	.LFB1:
 120:C:/Workspace/DAVE-4.4.2-64Bit/optiga-trust-m/optiga/comms/ifx_i2c\ifx_i2c_transport_layer.c ****     optiga_lib_status_t status = IFX_I2C_STACK_ERROR;
 774              	 .loc 1 120 0
 775              	 .cfi_startproc
 776              	.LVL63:
 777 0000 F7B5     	 push {r0,r1,r2,r4,r5,r6,r7,lr}
 778              	.LCFI4:
 779              	 .cfi_def_cfa_offset 32
 780              	 .cfi_offset 0,-32
 781              	 .cfi_offset 1,-28
 782              	 .cfi_offset 2,-24
 783              	 .cfi_offset 4,-20
 784              	 .cfi_offset 5,-16
 785              	 .cfi_offset 6,-12
 786              	 .cfi_offset 7,-8
 787              	 .cfi_offset 14,-4
 120:C:/Workspace/DAVE-4.4.2-64Bit/optiga-trust-m/optiga/comms/ifx_i2c\ifx_i2c_transport_layer.c ****     optiga_lib_status_t status = IFX_I2C_STACK_ERROR;
 788              	 .loc 1 120 0
 789 0002 041C     	 mov r4,r0
 790 0004 0F1C     	 mov r7,r1
 791 0006 161C     	 mov r6,r2
 792 0008 0193     	 str r3,[sp,#4]
 127:C:/Workspace/DAVE-4.4.2-64Bit/optiga-trust-m/optiga/comms/ifx_i2c\ifx_i2c_transport_layer.c ****         {
 793              	 .loc 1 127 0
 794 000a 0029     	 cmp r1,#0
 795 000c 24D0     	 beq .L100
 127:C:/Workspace/DAVE-4.4.2-64Bit/optiga-trust-m/optiga/comms/ifx_i2c\ifx_i2c_transport_layer.c ****         {
 796              	 .loc 1 127 0 is_stmt 0 discriminator 1
 797 000e 002A     	 cmp r2,#0
 798 0010 22D0     	 beq .L100
 132:C:/Workspace/DAVE-4.4.2-64Bit/optiga-trust-m/optiga/comms/ifx_i2c\ifx_i2c_transport_layer.c ****         {
 799              	 .loc 1 132 0 is_stmt 1
 800 0012 031C     	 mov r3,r0
 801              	.LVL64:
 121:C:/Workspace/DAVE-4.4.2-64Bit/optiga-trust-m/optiga/comms/ifx_i2c\ifx_i2c_transport_layer.c ****     LOG_TL("[IFX-TL]: Transceive txlen %d\n", packet_len);
 802              	 .loc 1 121 0
 803 0014 8125     	 mov r5,#129
 132:C:/Workspace/DAVE-4.4.2-64Bit/optiga-trust-m/optiga/comms/ifx_i2c\ifx_i2c_transport_layer.c ****         {
 804              	 .loc 1 132 0
 805 0016 3433     	 add r3,r3,#52
 806 0018 1A78     	 ldrb r2,[r3]
 807              	.LVL65:
 121:C:/Workspace/DAVE-4.4.2-64Bit/optiga-trust-m/optiga/comms/ifx_i2c\ifx_i2c_transport_layer.c ****     LOG_TL("[IFX-TL]: Transceive txlen %d\n", packet_len);
 808              	 .loc 1 121 0
 809 001a 6D00     	 lsl r5,r5,#1
 132:C:/Workspace/DAVE-4.4.2-64Bit/optiga-trust-m/optiga/comms/ifx_i2c\ifx_i2c_transport_layer.c ****         {
 810              	 .loc 1 132 0
 811 001c 012A     	 cmp r2,#1
 812 001e 1DD1     	 bne .L98
 136:C:/Workspace/DAVE-4.4.2-64Bit/optiga-trust-m/optiga/comms/ifx_i2c\ifx_i2c_transport_layer.c ****         p_ctx->tl.api_start_time = pal_os_timer_get_time_in_milliseconds();
 813              	 .loc 1 136 0
 814 0020 0132     	 add r2,r2,#1
 815 0022 1A70     	 strb r2,[r3]
 137:C:/Workspace/DAVE-4.4.2-64Bit/optiga-trust-m/optiga/comms/ifx_i2c\ifx_i2c_transport_layer.c ****         p_ctx->tl.p_actual_packet = p_packet;
 816              	 .loc 1 137 0
 817 0024 FFF7FEFF 	 bl pal_os_timer_get_time_in_milliseconds
 818              	.LVL66:
 140:C:/Workspace/DAVE-4.4.2-64Bit/optiga-trust-m/optiga/comms/ifx_i2c\ifx_i2c_transport_layer.c ****         p_ctx->tl.p_recv_packet_buffer = p_recv_packet;
 819              	 .loc 1 140 0
 820 0028 0023     	 mov r3,#0
 821 002a A21C     	 add r2,r4,#2
 137:C:/Workspace/DAVE-4.4.2-64Bit/optiga-trust-m/optiga/comms/ifx_i2c\ifx_i2c_transport_layer.c ****         p_ctx->tl.p_actual_packet = p_packet;
 822              	 .loc 1 137 0
 823 002c E064     	 str r0,[r4,#76]
 138:C:/Workspace/DAVE-4.4.2-64Bit/optiga-trust-m/optiga/comms/ifx_i2c\ifx_i2c_transport_layer.c ****         p_ctx->tl.actual_packet_length = packet_len;
 824              	 .loc 1 138 0
 825 002e A763     	 str r7,[r4,#56]
 139:C:/Workspace/DAVE-4.4.2-64Bit/optiga-trust-m/optiga/comms/ifx_i2c\ifx_i2c_transport_layer.c ****         p_ctx->tl.packet_offset = 0;
 826              	 .loc 1 139 0
 827 0030 E687     	 strh r6,[r4,#62]
 140:C:/Workspace/DAVE-4.4.2-64Bit/optiga-trust-m/optiga/comms/ifx_i2c\ifx_i2c_transport_layer.c ****         p_ctx->tl.p_recv_packet_buffer = p_recv_packet;
 828              	 .loc 1 140 0
 829 0032 D387     	 strh r3,[r2,#62]
 141:C:/Workspace/DAVE-4.4.2-64Bit/optiga-trust-m/optiga/comms/ifx_i2c\ifx_i2c_transport_layer.c ****         p_ctx->tl.p_recv_packet_buffer_length = p_recv_packet_len;
 830              	 .loc 1 141 0
 831 0034 019A     	 ldr r2,[sp,#4]
 143:C:/Workspace/DAVE-4.4.2-64Bit/optiga-trust-m/optiga/comms/ifx_i2c\ifx_i2c_transport_layer.c ****         p_ctx->tl.chaining_error_count = 0;
 832              	 .loc 1 143 0
 833 0036 A387     	 strh r3,[r4,#60]
 141:C:/Workspace/DAVE-4.4.2-64Bit/optiga-trust-m/optiga/comms/ifx_i2c\ifx_i2c_transport_layer.c ****         p_ctx->tl.p_recv_packet_buffer_length = p_recv_packet_len;
 834              	 .loc 1 141 0
 835 0038 6264     	 str r2,[r4,#68]
 142:C:/Workspace/DAVE-4.4.2-64Bit/optiga-trust-m/optiga/comms/ifx_i2c\ifx_i2c_transport_layer.c ****         p_ctx->tl.total_recv_length = 0;
 836              	 .loc 1 142 0
 837 003a 089A     	 ldr r2,[sp,#32]
 148:C:/Workspace/DAVE-4.4.2-64Bit/optiga-trust-m/optiga/comms/ifx_i2c\ifx_i2c_transport_layer.c ****     } while (FALSE);
 838              	 .loc 1 148 0
 839 003c 201C     	 mov r0,r4
 142:C:/Workspace/DAVE-4.4.2-64Bit/optiga-trust-m/optiga/comms/ifx_i2c\ifx_i2c_transport_layer.c ****         p_ctx->tl.total_recv_length = 0;
 840              	 .loc 1 142 0
 841 003e A264     	 str r2,[r4,#72]
 144:C:/Workspace/DAVE-4.4.2-64Bit/optiga-trust-m/optiga/comms/ifx_i2c\ifx_i2c_transport_layer.c ****         p_ctx->tl.master_chaining_error_count = 0;
 842              	 .loc 1 144 0
 843 0040 221C     	 mov r2,r4
 844 0042 5032     	 add r2,r2,#80
 845 0044 1370     	 strb r3,[r2]
 145:C:/Workspace/DAVE-4.4.2-64Bit/optiga-trust-m/optiga/comms/ifx_i2c\ifx_i2c_transport_layer.c ****         p_ctx->tl.transmission_completed = 0;
 846              	 .loc 1 145 0
 847 0046 5370     	 strb r3,[r2,#1]
 146:C:/Workspace/DAVE-4.4.2-64Bit/optiga-trust-m/optiga/comms/ifx_i2c\ifx_i2c_transport_layer.c ****         p_ctx->tl.error_event = IFX_I2C_STACK_ERROR;
 848              	 .loc 1 146 0
 849 0048 D370     	 strb r3,[r2,#3]
 147:C:/Workspace/DAVE-4.4.2-64Bit/optiga-trust-m/optiga/comms/ifx_i2c\ifx_i2c_transport_layer.c ****         status = ifx_i2c_tl_send_next_fragment(p_ctx);
 850              	 .loc 1 147 0
 851 004a 231C     	 mov r3,r4
 852 004c 5433     	 add r3,r3,#84
 853 004e 1D80     	 strh r5,[r3]
 148:C:/Workspace/DAVE-4.4.2-64Bit/optiga-trust-m/optiga/comms/ifx_i2c\ifx_i2c_transport_layer.c ****     } while (FALSE);
 854              	 .loc 1 148 0
 855 0050 FFF7FEFF 	 bl ifx_i2c_tl_send_next_fragment
 856              	.LVL67:
 857 0054 051C     	 mov r5,r0
 858              	.LVL68:
 859 0056 01E0     	 b .L98
 860              	.LVL69:
 861              	.L100:
 121:C:/Workspace/DAVE-4.4.2-64Bit/optiga-trust-m/optiga/comms/ifx_i2c\ifx_i2c_transport_layer.c ****     LOG_TL("[IFX-TL]: Transceive txlen %d\n", packet_len);
 862              	 .loc 1 121 0
 863 0058 8125     	 mov r5,#129
 864 005a 6D00     	 lsl r5,r5,#1
 865              	.LVL70:
 866              	.L98:
 151:C:/Workspace/DAVE-4.4.2-64Bit/optiga-trust-m/optiga/comms/ifx_i2c\ifx_i2c_transport_layer.c **** 
 867              	 .loc 1 151 0
 868 005c 281C     	 mov r0,r5
 869              	 
 870              	.LVL71:
 871              	.LVL72:
 872              	.LVL73:
 873 005e FEBD     	 pop {r1,r2,r3,r4,r5,r6,r7,pc}
 874              	 .cfi_endproc
 875              	.LFE1:
 877              	 .section .rodata.g_pctr_states_table,"a",%progbits
 878              	 .set .LANCHOR0,.+0
 881              	g_pctr_states_table:
 882 0000 00       	 .byte 0
 883 0001 04       	 .byte 4
 884 0002 00       	 .byte 0
 885 0003 04       	 .byte 4
 886 0004 01       	 .byte 1
 887 0005 02       	 .byte 2
 888 0006 FF       	 .byte -1
 889 0007 FF       	 .byte -1
 890 0008 01       	 .byte 1
 891 0009 02       	 .byte 2
 892 000a FF       	 .byte -1
 893 000b FF       	 .byte -1
 894 000c FF       	 .byte -1
 895 000d FF       	 .byte -1
 896 000e 07       	 .byte 7
 897 000f 07       	 .byte 7
 898              	 .text
 899              	.Letext0:
 900              	 .file 2 "c:\\dave_4-4-2_64bit\\dave-ide-4.4.2-64bit\\eclipse\\arm-gcc-49\\arm-none-eabi\\include\\machine\\_default_types.h"
 901              	 .file 3 "c:\\dave_4-4-2_64bit\\dave-ide-4.4.2-64bit\\eclipse\\arm-gcc-49\\arm-none-eabi\\include\\stdint.h"
 902              	 .file 4 "C:/Workspace/DAVE-4.4.2-64Bit/optiga-trust-m/optiga/include/optiga/common/optiga_lib_types.h"
 903              	 .file 5 "C:/Workspace/DAVE-4.4.2-64Bit/optiga-trust-m/optiga/include/optiga/pal/pal_i2c.h"
 904              	 .file 6 "C:/Workspace/DAVE-4.4.2-64Bit/optiga-trust-m/optiga/include/optiga/pal/pal_gpio.h"
 905              	 .file 7 "C:/Workspace/DAVE-4.4.2-64Bit/optiga-trust-m/optiga/include/optiga/ifx_i2c/ifx_i2c_config.h"
 906              	 .file 8 "C:/Workspace/DAVE-4.4.2-64Bit/optiga-trust-m/optiga/include/optiga/ifx_i2c/ifx_i2c_data_link_layer.h"
 907              	 .file 9 "C:/Workspace/DAVE-4.4.2-64Bit/optiga-trust-m/optiga/include/optiga/pal/pal_os_timer.h"