   1              	 .cpu cortex-m0
   2              	 .fpu softvfp
   3              	 .eabi_attribute 20,1
   4              	 .eabi_attribute 21,1
   5              	 .eabi_attribute 23,3
   6              	 .eabi_attribute 24,1
   7              	 .eabi_attribute 25,1
   8              	 .eabi_attribute 26,1
   9              	 .eabi_attribute 30,4
  10              	 .eabi_attribute 34,0
  11              	 .eabi_attribute 18,4
  12              	 .code 16
  13              	 .file "ifx_i2c_data_link_layer.c"
  14              	 .text
  15              	.Ltext0:
  16              	 .cfi_sections .debug_frame
  17              	 .section .text.ifx_i2c_dl_calc_crc,"ax",%progbits
  18              	 .align 1
  19              	 .code 16
  20              	 .thumb_func
  22              	ifx_i2c_dl_calc_crc:
  23              	.LFB4:
  24              	 .file 1 "C:/Workspace/DAVE-4.4.2-64Bit/optiga-trust-m/optiga/comms/ifx_i2c/ifx_i2c_data_link_layer.c"
   1:C:/Workspace/DAVE-4.4.2-64Bit/optiga-trust-m/optiga/comms/ifx_i2c\ifx_i2c_data_link_layer.c **** /**
   2:C:/Workspace/DAVE-4.4.2-64Bit/optiga-trust-m/optiga/comms/ifx_i2c\ifx_i2c_data_link_layer.c **** * \copyright
   3:C:/Workspace/DAVE-4.4.2-64Bit/optiga-trust-m/optiga/comms/ifx_i2c\ifx_i2c_data_link_layer.c **** * MIT License
   4:C:/Workspace/DAVE-4.4.2-64Bit/optiga-trust-m/optiga/comms/ifx_i2c\ifx_i2c_data_link_layer.c **** *
   5:C:/Workspace/DAVE-4.4.2-64Bit/optiga-trust-m/optiga/comms/ifx_i2c\ifx_i2c_data_link_layer.c **** * Copyright (c) 2019 Infineon Technologies AG
   6:C:/Workspace/DAVE-4.4.2-64Bit/optiga-trust-m/optiga/comms/ifx_i2c\ifx_i2c_data_link_layer.c **** *
   7:C:/Workspace/DAVE-4.4.2-64Bit/optiga-trust-m/optiga/comms/ifx_i2c\ifx_i2c_data_link_layer.c **** * Permission is hereby granted, free of charge, to any person obtaining a copy
   8:C:/Workspace/DAVE-4.4.2-64Bit/optiga-trust-m/optiga/comms/ifx_i2c\ifx_i2c_data_link_layer.c **** * of this software and associated documentation files (the "Software"), to deal
   9:C:/Workspace/DAVE-4.4.2-64Bit/optiga-trust-m/optiga/comms/ifx_i2c\ifx_i2c_data_link_layer.c **** * in the Software without restriction, including without limitation the rights
  10:C:/Workspace/DAVE-4.4.2-64Bit/optiga-trust-m/optiga/comms/ifx_i2c\ifx_i2c_data_link_layer.c **** * to use, copy, modify, merge, publish, distribute, sublicense, and/or sell
  11:C:/Workspace/DAVE-4.4.2-64Bit/optiga-trust-m/optiga/comms/ifx_i2c\ifx_i2c_data_link_layer.c **** * copies of the Software, and to permit persons to whom the Software is
  12:C:/Workspace/DAVE-4.4.2-64Bit/optiga-trust-m/optiga/comms/ifx_i2c\ifx_i2c_data_link_layer.c **** * furnished to do so, subject to the following conditions:
  13:C:/Workspace/DAVE-4.4.2-64Bit/optiga-trust-m/optiga/comms/ifx_i2c\ifx_i2c_data_link_layer.c **** *
  14:C:/Workspace/DAVE-4.4.2-64Bit/optiga-trust-m/optiga/comms/ifx_i2c\ifx_i2c_data_link_layer.c **** * The above copyright notice and this permission notice shall be included in all
  15:C:/Workspace/DAVE-4.4.2-64Bit/optiga-trust-m/optiga/comms/ifx_i2c\ifx_i2c_data_link_layer.c **** * copies or substantial portions of the Software.
  16:C:/Workspace/DAVE-4.4.2-64Bit/optiga-trust-m/optiga/comms/ifx_i2c\ifx_i2c_data_link_layer.c **** *
  17:C:/Workspace/DAVE-4.4.2-64Bit/optiga-trust-m/optiga/comms/ifx_i2c\ifx_i2c_data_link_layer.c **** * THE SOFTWARE IS PROVIDED "AS IS", WITHOUT WARRANTY OF ANY KIND, EXPRESS OR
  18:C:/Workspace/DAVE-4.4.2-64Bit/optiga-trust-m/optiga/comms/ifx_i2c\ifx_i2c_data_link_layer.c **** * IMPLIED, INCLUDING BUT NOT LIMITED TO THE WARRANTIES OF MERCHANTABILITY,
  19:C:/Workspace/DAVE-4.4.2-64Bit/optiga-trust-m/optiga/comms/ifx_i2c\ifx_i2c_data_link_layer.c **** * FITNESS FOR A PARTICULAR PURPOSE AND NONINFRINGEMENT. IN NO EVENT SHALL THE
  20:C:/Workspace/DAVE-4.4.2-64Bit/optiga-trust-m/optiga/comms/ifx_i2c\ifx_i2c_data_link_layer.c **** * AUTHORS OR COPYRIGHT HOLDERS BE LIABLE FOR ANY CLAIM, DAMAGES OR OTHER
  21:C:/Workspace/DAVE-4.4.2-64Bit/optiga-trust-m/optiga/comms/ifx_i2c\ifx_i2c_data_link_layer.c **** * LIABILITY, WHETHER IN AN ACTION OF CONTRACT, TORT OR OTHERWISE, ARISING FROM,
  22:C:/Workspace/DAVE-4.4.2-64Bit/optiga-trust-m/optiga/comms/ifx_i2c\ifx_i2c_data_link_layer.c **** * OUT OF OR IN CONNECTION WITH THE SOFTWARE OR THE USE OR OTHER DEALINGS IN THE
  23:C:/Workspace/DAVE-4.4.2-64Bit/optiga-trust-m/optiga/comms/ifx_i2c\ifx_i2c_data_link_layer.c **** * SOFTWARE
  24:C:/Workspace/DAVE-4.4.2-64Bit/optiga-trust-m/optiga/comms/ifx_i2c\ifx_i2c_data_link_layer.c **** *
  25:C:/Workspace/DAVE-4.4.2-64Bit/optiga-trust-m/optiga/comms/ifx_i2c\ifx_i2c_data_link_layer.c **** * \endcopyright
  26:C:/Workspace/DAVE-4.4.2-64Bit/optiga-trust-m/optiga/comms/ifx_i2c\ifx_i2c_data_link_layer.c **** *
  27:C:/Workspace/DAVE-4.4.2-64Bit/optiga-trust-m/optiga/comms/ifx_i2c\ifx_i2c_data_link_layer.c **** * \author Infineon Technologies AG
  28:C:/Workspace/DAVE-4.4.2-64Bit/optiga-trust-m/optiga/comms/ifx_i2c\ifx_i2c_data_link_layer.c **** *
  29:C:/Workspace/DAVE-4.4.2-64Bit/optiga-trust-m/optiga/comms/ifx_i2c\ifx_i2c_data_link_layer.c **** * \file ifx_i2c_data_link_layer.c
  30:C:/Workspace/DAVE-4.4.2-64Bit/optiga-trust-m/optiga/comms/ifx_i2c\ifx_i2c_data_link_layer.c **** *
  31:C:/Workspace/DAVE-4.4.2-64Bit/optiga-trust-m/optiga/comms/ifx_i2c\ifx_i2c_data_link_layer.c **** * \brief   This file implements the APIs for data link layer of the Infineon I2C Protocol Stack lib
  32:C:/Workspace/DAVE-4.4.2-64Bit/optiga-trust-m/optiga/comms/ifx_i2c\ifx_i2c_data_link_layer.c **** *
  33:C:/Workspace/DAVE-4.4.2-64Bit/optiga-trust-m/optiga/comms/ifx_i2c\ifx_i2c_data_link_layer.c **** * \ingroup  grIFXI2C
  34:C:/Workspace/DAVE-4.4.2-64Bit/optiga-trust-m/optiga/comms/ifx_i2c\ifx_i2c_data_link_layer.c **** *
  35:C:/Workspace/DAVE-4.4.2-64Bit/optiga-trust-m/optiga/comms/ifx_i2c\ifx_i2c_data_link_layer.c **** * @{
  36:C:/Workspace/DAVE-4.4.2-64Bit/optiga-trust-m/optiga/comms/ifx_i2c\ifx_i2c_data_link_layer.c **** */
  37:C:/Workspace/DAVE-4.4.2-64Bit/optiga-trust-m/optiga/comms/ifx_i2c\ifx_i2c_data_link_layer.c **** 
  38:C:/Workspace/DAVE-4.4.2-64Bit/optiga-trust-m/optiga/comms/ifx_i2c\ifx_i2c_data_link_layer.c **** #include "optiga/ifx_i2c/ifx_i2c_data_link_layer.h"
  39:C:/Workspace/DAVE-4.4.2-64Bit/optiga-trust-m/optiga/comms/ifx_i2c\ifx_i2c_data_link_layer.c **** #include "optiga/ifx_i2c/ifx_i2c_physical_layer.h"
  40:C:/Workspace/DAVE-4.4.2-64Bit/optiga-trust-m/optiga/comms/ifx_i2c\ifx_i2c_data_link_layer.c **** 
  41:C:/Workspace/DAVE-4.4.2-64Bit/optiga-trust-m/optiga/comms/ifx_i2c\ifx_i2c_data_link_layer.c **** /// @cond hidden
  42:C:/Workspace/DAVE-4.4.2-64Bit/optiga-trust-m/optiga/comms/ifx_i2c\ifx_i2c_data_link_layer.c **** 
  43:C:/Workspace/DAVE-4.4.2-64Bit/optiga-trust-m/optiga/comms/ifx_i2c\ifx_i2c_data_link_layer.c **** // Data Link layer internal states
  44:C:/Workspace/DAVE-4.4.2-64Bit/optiga-trust-m/optiga/comms/ifx_i2c\ifx_i2c_data_link_layer.c **** #define DL_STATE_UNINIT                 (0x00)
  45:C:/Workspace/DAVE-4.4.2-64Bit/optiga-trust-m/optiga/comms/ifx_i2c\ifx_i2c_data_link_layer.c **** #define DL_STATE_IDLE                   (0x01)
  46:C:/Workspace/DAVE-4.4.2-64Bit/optiga-trust-m/optiga/comms/ifx_i2c\ifx_i2c_data_link_layer.c **** #define DL_STATE_TX                     (0x02)
  47:C:/Workspace/DAVE-4.4.2-64Bit/optiga-trust-m/optiga/comms/ifx_i2c\ifx_i2c_data_link_layer.c **** #define DL_STATE_RX                     (0x03)
  48:C:/Workspace/DAVE-4.4.2-64Bit/optiga-trust-m/optiga/comms/ifx_i2c\ifx_i2c_data_link_layer.c **** #define DL_STATE_ACK                    (0x04)
  49:C:/Workspace/DAVE-4.4.2-64Bit/optiga-trust-m/optiga/comms/ifx_i2c\ifx_i2c_data_link_layer.c **** #define DL_STATE_RESEND                 (0x05)
  50:C:/Workspace/DAVE-4.4.2-64Bit/optiga-trust-m/optiga/comms/ifx_i2c\ifx_i2c_data_link_layer.c **** #define DL_STATE_NACK                   (0x06)
  51:C:/Workspace/DAVE-4.4.2-64Bit/optiga-trust-m/optiga/comms/ifx_i2c\ifx_i2c_data_link_layer.c **** #define DL_STATE_ERROR                  (0x08)
  52:C:/Workspace/DAVE-4.4.2-64Bit/optiga-trust-m/optiga/comms/ifx_i2c\ifx_i2c_data_link_layer.c **** #define DL_STATE_DISCARD                (0x09)
  53:C:/Workspace/DAVE-4.4.2-64Bit/optiga-trust-m/optiga/comms/ifx_i2c\ifx_i2c_data_link_layer.c **** #define DL_STATE_RX_DF                  (0x0A)
  54:C:/Workspace/DAVE-4.4.2-64Bit/optiga-trust-m/optiga/comms/ifx_i2c\ifx_i2c_data_link_layer.c **** #define DL_STATE_RX_CF                  (0x0B)
  55:C:/Workspace/DAVE-4.4.2-64Bit/optiga-trust-m/optiga/comms/ifx_i2c\ifx_i2c_data_link_layer.c **** 
  56:C:/Workspace/DAVE-4.4.2-64Bit/optiga-trust-m/optiga/comms/ifx_i2c\ifx_i2c_data_link_layer.c **** // Data Link Layer Frame Control Constants
  57:C:/Workspace/DAVE-4.4.2-64Bit/optiga-trust-m/optiga/comms/ifx_i2c\ifx_i2c_data_link_layer.c **** #define DL_FCTR_FTYPE_MASK              (0x80)
  58:C:/Workspace/DAVE-4.4.2-64Bit/optiga-trust-m/optiga/comms/ifx_i2c\ifx_i2c_data_link_layer.c **** #define DL_FCTR_FTYPE_OFFSET            (7U)
  59:C:/Workspace/DAVE-4.4.2-64Bit/optiga-trust-m/optiga/comms/ifx_i2c\ifx_i2c_data_link_layer.c **** #define DL_FCTR_VALUE_CONTROL_FRAME     (0x01)
  60:C:/Workspace/DAVE-4.4.2-64Bit/optiga-trust-m/optiga/comms/ifx_i2c\ifx_i2c_data_link_layer.c **** 
  61:C:/Workspace/DAVE-4.4.2-64Bit/optiga-trust-m/optiga/comms/ifx_i2c\ifx_i2c_data_link_layer.c **** #define DL_FCTR_SEQCTR_MASK             (0x60)
  62:C:/Workspace/DAVE-4.4.2-64Bit/optiga-trust-m/optiga/comms/ifx_i2c\ifx_i2c_data_link_layer.c **** #define DL_FCTR_SEQCTR_OFFSET           (5U)
  63:C:/Workspace/DAVE-4.4.2-64Bit/optiga-trust-m/optiga/comms/ifx_i2c\ifx_i2c_data_link_layer.c **** #define DL_FCTR_SEQCTR_VALUE_ACK        (0x00)
  64:C:/Workspace/DAVE-4.4.2-64Bit/optiga-trust-m/optiga/comms/ifx_i2c\ifx_i2c_data_link_layer.c **** #define DL_FCTR_SEQCTR_VALUE_NACK       (0x01)
  65:C:/Workspace/DAVE-4.4.2-64Bit/optiga-trust-m/optiga/comms/ifx_i2c\ifx_i2c_data_link_layer.c **** #define DL_FCTR_SEQCTR_VALUE_RESYNC     (0x02)
  66:C:/Workspace/DAVE-4.4.2-64Bit/optiga-trust-m/optiga/comms/ifx_i2c\ifx_i2c_data_link_layer.c **** #define DL_FCTR_SEQCTR_VALUE_RFU        (0x03)
  67:C:/Workspace/DAVE-4.4.2-64Bit/optiga-trust-m/optiga/comms/ifx_i2c\ifx_i2c_data_link_layer.c **** 
  68:C:/Workspace/DAVE-4.4.2-64Bit/optiga-trust-m/optiga/comms/ifx_i2c\ifx_i2c_data_link_layer.c **** #define DL_FCTR_FRNR_MASK               (0x0C)
  69:C:/Workspace/DAVE-4.4.2-64Bit/optiga-trust-m/optiga/comms/ifx_i2c\ifx_i2c_data_link_layer.c **** #define DL_FCTR_FRNR_OFFSET             (2U)
  70:C:/Workspace/DAVE-4.4.2-64Bit/optiga-trust-m/optiga/comms/ifx_i2c\ifx_i2c_data_link_layer.c **** 
  71:C:/Workspace/DAVE-4.4.2-64Bit/optiga-trust-m/optiga/comms/ifx_i2c\ifx_i2c_data_link_layer.c **** #define DL_FCTR_ACKNR_MASK              (0x03)
  72:C:/Workspace/DAVE-4.4.2-64Bit/optiga-trust-m/optiga/comms/ifx_i2c\ifx_i2c_data_link_layer.c **** #define DL_FCTR_ACKNR_OFFSET            (0U)
  73:C:/Workspace/DAVE-4.4.2-64Bit/optiga-trust-m/optiga/comms/ifx_i2c\ifx_i2c_data_link_layer.c **** 
  74:C:/Workspace/DAVE-4.4.2-64Bit/optiga-trust-m/optiga/comms/ifx_i2c\ifx_i2c_data_link_layer.c **** // Data Link Layer frame counter max value
  75:C:/Workspace/DAVE-4.4.2-64Bit/optiga-trust-m/optiga/comms/ifx_i2c\ifx_i2c_data_link_layer.c **** #define DL_MAX_FRAME_NUM                (0x03)
  76:C:/Workspace/DAVE-4.4.2-64Bit/optiga-trust-m/optiga/comms/ifx_i2c\ifx_i2c_data_link_layer.c **** 
  77:C:/Workspace/DAVE-4.4.2-64Bit/optiga-trust-m/optiga/comms/ifx_i2c\ifx_i2c_data_link_layer.c **** // Data link layer length
  78:C:/Workspace/DAVE-4.4.2-64Bit/optiga-trust-m/optiga/comms/ifx_i2c\ifx_i2c_data_link_layer.c **** #define DL_CONTROL_FRAME_LENGTH         (5U)
  79:C:/Workspace/DAVE-4.4.2-64Bit/optiga-trust-m/optiga/comms/ifx_i2c\ifx_i2c_data_link_layer.c **** 
  80:C:/Workspace/DAVE-4.4.2-64Bit/optiga-trust-m/optiga/comms/ifx_i2c\ifx_i2c_data_link_layer.c **** // Seconds to milliseconds
  81:C:/Workspace/DAVE-4.4.2-64Bit/optiga-trust-m/optiga/comms/ifx_i2c\ifx_i2c_data_link_layer.c **** #define DL_SEC_TO_MSECS                 (1000U)
  82:C:/Workspace/DAVE-4.4.2-64Bit/optiga-trust-m/optiga/comms/ifx_i2c\ifx_i2c_data_link_layer.c **** 
  83:C:/Workspace/DAVE-4.4.2-64Bit/optiga-trust-m/optiga/comms/ifx_i2c\ifx_i2c_data_link_layer.c **** // Setup debug log statements
  84:C:/Workspace/DAVE-4.4.2-64Bit/optiga-trust-m/optiga/comms/ifx_i2c\ifx_i2c_data_link_layer.c **** #if IFX_I2C_LOG_DL == 1
  85:C:/Workspace/DAVE-4.4.2-64Bit/optiga-trust-m/optiga/comms/ifx_i2c\ifx_i2c_data_link_layer.c **** #define LOG_DL IFX_I2C_LOG
  86:C:/Workspace/DAVE-4.4.2-64Bit/optiga-trust-m/optiga/comms/ifx_i2c\ifx_i2c_data_link_layer.c **** #else
  87:C:/Workspace/DAVE-4.4.2-64Bit/optiga-trust-m/optiga/comms/ifx_i2c\ifx_i2c_data_link_layer.c **** #define LOG_DL(...) //printf(__VA_ARGS__)
  88:C:/Workspace/DAVE-4.4.2-64Bit/optiga-trust-m/optiga/comms/ifx_i2c\ifx_i2c_data_link_layer.c **** #endif
  89:C:/Workspace/DAVE-4.4.2-64Bit/optiga-trust-m/optiga/comms/ifx_i2c\ifx_i2c_data_link_layer.c **** 
  90:C:/Workspace/DAVE-4.4.2-64Bit/optiga-trust-m/optiga/comms/ifx_i2c\ifx_i2c_data_link_layer.c **** 
  91:C:/Workspace/DAVE-4.4.2-64Bit/optiga-trust-m/optiga/comms/ifx_i2c\ifx_i2c_data_link_layer.c **** /// Helper function to calculate CRC of a byte
  92:C:/Workspace/DAVE-4.4.2-64Bit/optiga-trust-m/optiga/comms/ifx_i2c\ifx_i2c_data_link_layer.c **** _STATIC_H optiga_lib_status_t ifx_i2c_dl_calc_crc_byte(uint16_t seed,
  93:C:/Workspace/DAVE-4.4.2-64Bit/optiga-trust-m/optiga/comms/ifx_i2c\ifx_i2c_data_link_layer.c ****                                                        uint8_t byte);
  94:C:/Workspace/DAVE-4.4.2-64Bit/optiga-trust-m/optiga/comms/ifx_i2c\ifx_i2c_data_link_layer.c **** /// Helper function to calculate CRC of a frame
  95:C:/Workspace/DAVE-4.4.2-64Bit/optiga-trust-m/optiga/comms/ifx_i2c\ifx_i2c_data_link_layer.c **** _STATIC_H optiga_lib_status_t ifx_i2c_dl_calc_crc(const uint8_t * p_data,
  96:C:/Workspace/DAVE-4.4.2-64Bit/optiga-trust-m/optiga/comms/ifx_i2c\ifx_i2c_data_link_layer.c ****                                                   uint16_t data_len);
  97:C:/Workspace/DAVE-4.4.2-64Bit/optiga-trust-m/optiga/comms/ifx_i2c\ifx_i2c_data_link_layer.c **** /// Internal function to send frame
  98:C:/Workspace/DAVE-4.4.2-64Bit/optiga-trust-m/optiga/comms/ifx_i2c\ifx_i2c_data_link_layer.c **** _STATIC_H optiga_lib_status_t ifx_i2c_dl_send_frame_internal(ifx_i2c_context_t * p_ctx,
  99:C:/Workspace/DAVE-4.4.2-64Bit/optiga-trust-m/optiga/comms/ifx_i2c\ifx_i2c_data_link_layer.c ****                                                              uint16_t frame_len,
 100:C:/Workspace/DAVE-4.4.2-64Bit/optiga-trust-m/optiga/comms/ifx_i2c\ifx_i2c_data_link_layer.c ****                                                              uint8_t seqctr_value,
 101:C:/Workspace/DAVE-4.4.2-64Bit/optiga-trust-m/optiga/comms/ifx_i2c\ifx_i2c_data_link_layer.c ****                                                              uint8_t resend);
 102:C:/Workspace/DAVE-4.4.2-64Bit/optiga-trust-m/optiga/comms/ifx_i2c\ifx_i2c_data_link_layer.c **** /// Helper function to send resync
 103:C:/Workspace/DAVE-4.4.2-64Bit/optiga-trust-m/optiga/comms/ifx_i2c\ifx_i2c_data_link_layer.c **** _STATIC_H optiga_lib_status_t ifx_i2c_dl_resync(ifx_i2c_context_t * p_ctx);
 104:C:/Workspace/DAVE-4.4.2-64Bit/optiga-trust-m/optiga/comms/ifx_i2c\ifx_i2c_data_link_layer.c **** /// Helper function to resend frame
 105:C:/Workspace/DAVE-4.4.2-64Bit/optiga-trust-m/optiga/comms/ifx_i2c\ifx_i2c_data_link_layer.c **** _STATIC_H void ifx_i2c_dl_resend_frame(ifx_i2c_context_t * p_ctx,
 106:C:/Workspace/DAVE-4.4.2-64Bit/optiga-trust-m/optiga/comms/ifx_i2c\ifx_i2c_data_link_layer.c ****                                        uint8_t seqctr_value);
 107:C:/Workspace/DAVE-4.4.2-64Bit/optiga-trust-m/optiga/comms/ifx_i2c\ifx_i2c_data_link_layer.c **** /// Data Link Layer state machine
 108:C:/Workspace/DAVE-4.4.2-64Bit/optiga-trust-m/optiga/comms/ifx_i2c\ifx_i2c_data_link_layer.c **** _STATIC_H void ifx_i2c_pl_event_handler(ifx_i2c_context_t * p_ctx,
 109:C:/Workspace/DAVE-4.4.2-64Bit/optiga-trust-m/optiga/comms/ifx_i2c\ifx_i2c_data_link_layer.c ****                                         optiga_lib_status_t event,
 110:C:/Workspace/DAVE-4.4.2-64Bit/optiga-trust-m/optiga/comms/ifx_i2c\ifx_i2c_data_link_layer.c ****                                         const uint8_t * p_data,
 111:C:/Workspace/DAVE-4.4.2-64Bit/optiga-trust-m/optiga/comms/ifx_i2c\ifx_i2c_data_link_layer.c ****                                         uint16_t data_len);
 112:C:/Workspace/DAVE-4.4.2-64Bit/optiga-trust-m/optiga/comms/ifx_i2c\ifx_i2c_data_link_layer.c **** 
 113:C:/Workspace/DAVE-4.4.2-64Bit/optiga-trust-m/optiga/comms/ifx_i2c\ifx_i2c_data_link_layer.c **** /// @endcond
 114:C:/Workspace/DAVE-4.4.2-64Bit/optiga-trust-m/optiga/comms/ifx_i2c\ifx_i2c_data_link_layer.c **** 
 115:C:/Workspace/DAVE-4.4.2-64Bit/optiga-trust-m/optiga/comms/ifx_i2c\ifx_i2c_data_link_layer.c **** optiga_lib_status_t ifx_i2c_dl_init(ifx_i2c_context_t * p_ctx, ifx_i2c_event_handler_t handler)
 116:C:/Workspace/DAVE-4.4.2-64Bit/optiga-trust-m/optiga/comms/ifx_i2c\ifx_i2c_data_link_layer.c **** {
 117:C:/Workspace/DAVE-4.4.2-64Bit/optiga-trust-m/optiga/comms/ifx_i2c\ifx_i2c_data_link_layer.c ****     LOG_DL("[IFX-DL]: Init\n");
 118:C:/Workspace/DAVE-4.4.2-64Bit/optiga-trust-m/optiga/comms/ifx_i2c\ifx_i2c_data_link_layer.c **** 
 119:C:/Workspace/DAVE-4.4.2-64Bit/optiga-trust-m/optiga/comms/ifx_i2c\ifx_i2c_data_link_layer.c ****     p_ctx->dl.state = DL_STATE_UNINIT;
 120:C:/Workspace/DAVE-4.4.2-64Bit/optiga-trust-m/optiga/comms/ifx_i2c\ifx_i2c_data_link_layer.c ****     // Initialize Physical Layer (and register event handler)
 121:C:/Workspace/DAVE-4.4.2-64Bit/optiga-trust-m/optiga/comms/ifx_i2c\ifx_i2c_data_link_layer.c ****     if (IFX_I2C_STACK_SUCCESS != ifx_i2c_pl_init(p_ctx, ifx_i2c_pl_event_handler))
 122:C:/Workspace/DAVE-4.4.2-64Bit/optiga-trust-m/optiga/comms/ifx_i2c\ifx_i2c_data_link_layer.c ****     {
 123:C:/Workspace/DAVE-4.4.2-64Bit/optiga-trust-m/optiga/comms/ifx_i2c\ifx_i2c_data_link_layer.c ****         return (IFX_I2C_STACK_ERROR);
 124:C:/Workspace/DAVE-4.4.2-64Bit/optiga-trust-m/optiga/comms/ifx_i2c\ifx_i2c_data_link_layer.c ****     }
 125:C:/Workspace/DAVE-4.4.2-64Bit/optiga-trust-m/optiga/comms/ifx_i2c\ifx_i2c_data_link_layer.c **** 
 126:C:/Workspace/DAVE-4.4.2-64Bit/optiga-trust-m/optiga/comms/ifx_i2c\ifx_i2c_data_link_layer.c ****     // Initialize internal variables
 127:C:/Workspace/DAVE-4.4.2-64Bit/optiga-trust-m/optiga/comms/ifx_i2c\ifx_i2c_data_link_layer.c ****     p_ctx->dl.upper_layer_event_handler = handler;
 128:C:/Workspace/DAVE-4.4.2-64Bit/optiga-trust-m/optiga/comms/ifx_i2c\ifx_i2c_data_link_layer.c ****     p_ctx->dl.state = DL_STATE_IDLE;
 129:C:/Workspace/DAVE-4.4.2-64Bit/optiga-trust-m/optiga/comms/ifx_i2c\ifx_i2c_data_link_layer.c ****     p_ctx->dl.tx_seq_nr = DL_MAX_FRAME_NUM;
 130:C:/Workspace/DAVE-4.4.2-64Bit/optiga-trust-m/optiga/comms/ifx_i2c\ifx_i2c_data_link_layer.c ****     p_ctx->dl.rx_seq_nr = DL_MAX_FRAME_NUM;
 131:C:/Workspace/DAVE-4.4.2-64Bit/optiga-trust-m/optiga/comms/ifx_i2c\ifx_i2c_data_link_layer.c ****     p_ctx->dl.resynced = 0;
 132:C:/Workspace/DAVE-4.4.2-64Bit/optiga-trust-m/optiga/comms/ifx_i2c\ifx_i2c_data_link_layer.c ****     p_ctx->dl.error = 0;
 133:C:/Workspace/DAVE-4.4.2-64Bit/optiga-trust-m/optiga/comms/ifx_i2c\ifx_i2c_data_link_layer.c ****     p_ctx->dl.p_tx_frame_buffer = p_ctx->tx_frame_buffer;
 134:C:/Workspace/DAVE-4.4.2-64Bit/optiga-trust-m/optiga/comms/ifx_i2c\ifx_i2c_data_link_layer.c ****     p_ctx->dl.p_rx_frame_buffer = p_ctx->rx_frame_buffer;
 135:C:/Workspace/DAVE-4.4.2-64Bit/optiga-trust-m/optiga/comms/ifx_i2c\ifx_i2c_data_link_layer.c **** 
 136:C:/Workspace/DAVE-4.4.2-64Bit/optiga-trust-m/optiga/comms/ifx_i2c\ifx_i2c_data_link_layer.c ****     return IFX_I2C_STACK_SUCCESS;
 137:C:/Workspace/DAVE-4.4.2-64Bit/optiga-trust-m/optiga/comms/ifx_i2c\ifx_i2c_data_link_layer.c **** }
 138:C:/Workspace/DAVE-4.4.2-64Bit/optiga-trust-m/optiga/comms/ifx_i2c\ifx_i2c_data_link_layer.c **** 
 139:C:/Workspace/DAVE-4.4.2-64Bit/optiga-trust-m/optiga/comms/ifx_i2c\ifx_i2c_data_link_layer.c **** optiga_lib_status_t ifx_i2c_dl_send_frame(ifx_i2c_context_t * p_ctx, uint16_t frame_len)
 140:C:/Workspace/DAVE-4.4.2-64Bit/optiga-trust-m/optiga/comms/ifx_i2c\ifx_i2c_data_link_layer.c **** {
 141:C:/Workspace/DAVE-4.4.2-64Bit/optiga-trust-m/optiga/comms/ifx_i2c\ifx_i2c_data_link_layer.c ****     LOG_DL("[IFX-DL]: Start TX Frame\n");
 142:C:/Workspace/DAVE-4.4.2-64Bit/optiga-trust-m/optiga/comms/ifx_i2c\ifx_i2c_data_link_layer.c ****     // State must be idle and payload available
 143:C:/Workspace/DAVE-4.4.2-64Bit/optiga-trust-m/optiga/comms/ifx_i2c\ifx_i2c_data_link_layer.c ****     if (p_ctx->dl.state != DL_STATE_IDLE || (0 == frame_len))
 144:C:/Workspace/DAVE-4.4.2-64Bit/optiga-trust-m/optiga/comms/ifx_i2c\ifx_i2c_data_link_layer.c ****     {
 145:C:/Workspace/DAVE-4.4.2-64Bit/optiga-trust-m/optiga/comms/ifx_i2c\ifx_i2c_data_link_layer.c ****         return (IFX_I2C_STACK_ERROR);
 146:C:/Workspace/DAVE-4.4.2-64Bit/optiga-trust-m/optiga/comms/ifx_i2c\ifx_i2c_data_link_layer.c ****     }
 147:C:/Workspace/DAVE-4.4.2-64Bit/optiga-trust-m/optiga/comms/ifx_i2c\ifx_i2c_data_link_layer.c **** 
 148:C:/Workspace/DAVE-4.4.2-64Bit/optiga-trust-m/optiga/comms/ifx_i2c\ifx_i2c_data_link_layer.c ****     p_ctx->dl.state = DL_STATE_TX;
 149:C:/Workspace/DAVE-4.4.2-64Bit/optiga-trust-m/optiga/comms/ifx_i2c\ifx_i2c_data_link_layer.c ****     p_ctx->dl.retransmit_counter = 0;
 150:C:/Workspace/DAVE-4.4.2-64Bit/optiga-trust-m/optiga/comms/ifx_i2c\ifx_i2c_data_link_layer.c ****     p_ctx->dl.action_rx_only = 0;
 151:C:/Workspace/DAVE-4.4.2-64Bit/optiga-trust-m/optiga/comms/ifx_i2c\ifx_i2c_data_link_layer.c ****     p_ctx->dl.tx_buffer_size = frame_len;
 152:C:/Workspace/DAVE-4.4.2-64Bit/optiga-trust-m/optiga/comms/ifx_i2c\ifx_i2c_data_link_layer.c ****     p_ctx->dl.data_poll_timeout = PL_TRANS_TIMEOUT_MS;
 153:C:/Workspace/DAVE-4.4.2-64Bit/optiga-trust-m/optiga/comms/ifx_i2c\ifx_i2c_data_link_layer.c **** 
 154:C:/Workspace/DAVE-4.4.2-64Bit/optiga-trust-m/optiga/comms/ifx_i2c\ifx_i2c_data_link_layer.c ****     return (ifx_i2c_dl_send_frame_internal(p_ctx, frame_len, DL_FCTR_SEQCTR_VALUE_ACK, 0));
 155:C:/Workspace/DAVE-4.4.2-64Bit/optiga-trust-m/optiga/comms/ifx_i2c\ifx_i2c_data_link_layer.c **** }
 156:C:/Workspace/DAVE-4.4.2-64Bit/optiga-trust-m/optiga/comms/ifx_i2c\ifx_i2c_data_link_layer.c **** 
 157:C:/Workspace/DAVE-4.4.2-64Bit/optiga-trust-m/optiga/comms/ifx_i2c\ifx_i2c_data_link_layer.c **** optiga_lib_status_t ifx_i2c_dl_receive_frame(ifx_i2c_context_t * p_ctx)
 158:C:/Workspace/DAVE-4.4.2-64Bit/optiga-trust-m/optiga/comms/ifx_i2c\ifx_i2c_data_link_layer.c **** {
 159:C:/Workspace/DAVE-4.4.2-64Bit/optiga-trust-m/optiga/comms/ifx_i2c\ifx_i2c_data_link_layer.c ****     LOG_DL("[IFX-DL]: Start RX Frame\n");
 160:C:/Workspace/DAVE-4.4.2-64Bit/optiga-trust-m/optiga/comms/ifx_i2c\ifx_i2c_data_link_layer.c **** 
 161:C:/Workspace/DAVE-4.4.2-64Bit/optiga-trust-m/optiga/comms/ifx_i2c\ifx_i2c_data_link_layer.c ****     if (DL_STATE_IDLE != p_ctx->dl.state)
 162:C:/Workspace/DAVE-4.4.2-64Bit/optiga-trust-m/optiga/comms/ifx_i2c\ifx_i2c_data_link_layer.c ****     {
 163:C:/Workspace/DAVE-4.4.2-64Bit/optiga-trust-m/optiga/comms/ifx_i2c\ifx_i2c_data_link_layer.c ****         return (IFX_I2C_STACK_ERROR);
 164:C:/Workspace/DAVE-4.4.2-64Bit/optiga-trust-m/optiga/comms/ifx_i2c\ifx_i2c_data_link_layer.c ****     }
 165:C:/Workspace/DAVE-4.4.2-64Bit/optiga-trust-m/optiga/comms/ifx_i2c\ifx_i2c_data_link_layer.c **** 
 166:C:/Workspace/DAVE-4.4.2-64Bit/optiga-trust-m/optiga/comms/ifx_i2c\ifx_i2c_data_link_layer.c ****     // Set internal state
 167:C:/Workspace/DAVE-4.4.2-64Bit/optiga-trust-m/optiga/comms/ifx_i2c\ifx_i2c_data_link_layer.c ****     p_ctx->dl.state = DL_STATE_RX;
 168:C:/Workspace/DAVE-4.4.2-64Bit/optiga-trust-m/optiga/comms/ifx_i2c\ifx_i2c_data_link_layer.c ****     p_ctx->dl.retransmit_counter = 0;
 169:C:/Workspace/DAVE-4.4.2-64Bit/optiga-trust-m/optiga/comms/ifx_i2c\ifx_i2c_data_link_layer.c ****     p_ctx->dl.action_rx_only = 1;
 170:C:/Workspace/DAVE-4.4.2-64Bit/optiga-trust-m/optiga/comms/ifx_i2c\ifx_i2c_data_link_layer.c ****     p_ctx->dl.frame_start_time = pal_os_timer_get_time_in_milliseconds();
 171:C:/Workspace/DAVE-4.4.2-64Bit/optiga-trust-m/optiga/comms/ifx_i2c\ifx_i2c_data_link_layer.c ****     p_ctx->dl.data_poll_timeout = TL_MAX_EXIT_TIMEOUT * DL_SEC_TO_MSECS;
 172:C:/Workspace/DAVE-4.4.2-64Bit/optiga-trust-m/optiga/comms/ifx_i2c\ifx_i2c_data_link_layer.c **** 
 173:C:/Workspace/DAVE-4.4.2-64Bit/optiga-trust-m/optiga/comms/ifx_i2c\ifx_i2c_data_link_layer.c ****     return (ifx_i2c_pl_receive_frame(p_ctx));
 174:C:/Workspace/DAVE-4.4.2-64Bit/optiga-trust-m/optiga/comms/ifx_i2c\ifx_i2c_data_link_layer.c **** }
 175:C:/Workspace/DAVE-4.4.2-64Bit/optiga-trust-m/optiga/comms/ifx_i2c\ifx_i2c_data_link_layer.c **** 
 176:C:/Workspace/DAVE-4.4.2-64Bit/optiga-trust-m/optiga/comms/ifx_i2c\ifx_i2c_data_link_layer.c **** _STATIC_H optiga_lib_status_t ifx_i2c_dl_calc_crc_byte(uint16_t seed, uint8_t byte)
 177:C:/Workspace/DAVE-4.4.2-64Bit/optiga-trust-m/optiga/comms/ifx_i2c\ifx_i2c_data_link_layer.c **** {
 178:C:/Workspace/DAVE-4.4.2-64Bit/optiga-trust-m/optiga/comms/ifx_i2c\ifx_i2c_data_link_layer.c ****     uint16_t h1;
 179:C:/Workspace/DAVE-4.4.2-64Bit/optiga-trust-m/optiga/comms/ifx_i2c\ifx_i2c_data_link_layer.c ****     uint16_t h2;
 180:C:/Workspace/DAVE-4.4.2-64Bit/optiga-trust-m/optiga/comms/ifx_i2c\ifx_i2c_data_link_layer.c ****     uint16_t h3;
 181:C:/Workspace/DAVE-4.4.2-64Bit/optiga-trust-m/optiga/comms/ifx_i2c\ifx_i2c_data_link_layer.c ****     uint16_t h4;
 182:C:/Workspace/DAVE-4.4.2-64Bit/optiga-trust-m/optiga/comms/ifx_i2c\ifx_i2c_data_link_layer.c **** 
 183:C:/Workspace/DAVE-4.4.2-64Bit/optiga-trust-m/optiga/comms/ifx_i2c\ifx_i2c_data_link_layer.c ****     h1 = (seed ^ byte) & 0xFF;
 184:C:/Workspace/DAVE-4.4.2-64Bit/optiga-trust-m/optiga/comms/ifx_i2c\ifx_i2c_data_link_layer.c ****     h2 = h1 & 0x0F;
 185:C:/Workspace/DAVE-4.4.2-64Bit/optiga-trust-m/optiga/comms/ifx_i2c\ifx_i2c_data_link_layer.c ****     h3 = ((uint16_t)(h2 << 4)) ^ h1;
 186:C:/Workspace/DAVE-4.4.2-64Bit/optiga-trust-m/optiga/comms/ifx_i2c\ifx_i2c_data_link_layer.c ****     h4 = h3 >> 4;
 187:C:/Workspace/DAVE-4.4.2-64Bit/optiga-trust-m/optiga/comms/ifx_i2c\ifx_i2c_data_link_layer.c **** 
 188:C:/Workspace/DAVE-4.4.2-64Bit/optiga-trust-m/optiga/comms/ifx_i2c\ifx_i2c_data_link_layer.c ****     return ((uint16_t)((((uint16_t)((((uint16_t)(h3 << 1)) ^ h4) << 4)) ^ h2) << 3)) ^ h4 ^ (seed >
 189:C:/Workspace/DAVE-4.4.2-64Bit/optiga-trust-m/optiga/comms/ifx_i2c\ifx_i2c_data_link_layer.c **** }
 190:C:/Workspace/DAVE-4.4.2-64Bit/optiga-trust-m/optiga/comms/ifx_i2c\ifx_i2c_data_link_layer.c **** 
 191:C:/Workspace/DAVE-4.4.2-64Bit/optiga-trust-m/optiga/comms/ifx_i2c\ifx_i2c_data_link_layer.c **** _STATIC_H optiga_lib_status_t ifx_i2c_dl_calc_crc(const uint8_t * p_data, uint16_t data_len)
 192:C:/Workspace/DAVE-4.4.2-64Bit/optiga-trust-m/optiga/comms/ifx_i2c\ifx_i2c_data_link_layer.c **** {
  25              	 .loc 1 192 0
  26              	 .cfi_startproc
  27              	.LVL0:
  28 0000 70B5     	 push {r4,r5,r6,lr}
  29              	.LCFI0:
  30              	 .cfi_def_cfa_offset 16
  31              	 .cfi_offset 4,-16
  32              	 .cfi_offset 5,-12
  33              	 .cfi_offset 6,-8
  34              	 .cfi_offset 14,-4
  35              	 .loc 1 192 0
  36 0002 051C     	 mov r5,r0
 193:C:/Workspace/DAVE-4.4.2-64Bit/optiga-trust-m/optiga/comms/ifx_i2c\ifx_i2c_data_link_layer.c ****     uint16_t i;
 194:C:/Workspace/DAVE-4.4.2-64Bit/optiga-trust-m/optiga/comms/ifx_i2c\ifx_i2c_data_link_layer.c ****     uint16_t crc = 0;
 195:C:/Workspace/DAVE-4.4.2-64Bit/optiga-trust-m/optiga/comms/ifx_i2c\ifx_i2c_data_link_layer.c **** 
 196:C:/Workspace/DAVE-4.4.2-64Bit/optiga-trust-m/optiga/comms/ifx_i2c\ifx_i2c_data_link_layer.c ****     for (i = 0; i < data_len; i++)
  37              	 .loc 1 196 0
  38 0004 041C     	 mov r4,r0
 194:C:/Workspace/DAVE-4.4.2-64Bit/optiga-trust-m/optiga/comms/ifx_i2c\ifx_i2c_data_link_layer.c **** 
  39              	 .loc 1 194 0
  40 0006 0020     	 mov r0,#0
  41              	.LVL1:
  42              	.L2:
  43 0008 631B     	 sub r3,r4,r5
  44              	 .loc 1 196 0 discriminator 1
  45 000a 9BB2     	 uxth r3,r3
  46 000c 8B42     	 cmp r3,r1
  47 000e 13D2     	 bcs .L5
  48              	.LVL2:
  49              	.LBB4:
  50              	.LBB5:
 184:C:/Workspace/DAVE-4.4.2-64Bit/optiga-trust-m/optiga/comms/ifx_i2c\ifx_i2c_data_link_layer.c ****     h3 = ((uint16_t)(h2 << 4)) ^ h1;
  51              	 .loc 1 184 0 discriminator 3
  52 0010 0F23     	 mov r3,#15
 183:C:/Workspace/DAVE-4.4.2-64Bit/optiga-trust-m/optiga/comms/ifx_i2c\ifx_i2c_data_link_layer.c ****     h2 = h1 & 0x0F;
  53              	 .loc 1 183 0 discriminator 3
  54 0012 2278     	 ldrb r2,[r4]
  55 0014 0134     	 add r4,r4,#1
  56              	.LVL3:
  57 0016 4240     	 eor r2,r0
  58              	.LVL4:
 184:C:/Workspace/DAVE-4.4.2-64Bit/optiga-trust-m/optiga/comms/ifx_i2c\ifx_i2c_data_link_layer.c ****     h3 = ((uint16_t)(h2 << 4)) ^ h1;
  59              	 .loc 1 184 0 discriminator 3
  60 0018 1340     	 and r3,r2
  61 001a 1E1C     	 mov r6,r3
  62              	.LVL5:
 183:C:/Workspace/DAVE-4.4.2-64Bit/optiga-trust-m/optiga/comms/ifx_i2c\ifx_i2c_data_link_layer.c ****     h2 = h1 & 0x0F;
  63              	 .loc 1 183 0 discriminator 3
  64 001c D2B2     	 uxtb r2,r2
  65              	.LVL6:
 185:C:/Workspace/DAVE-4.4.2-64Bit/optiga-trust-m/optiga/comms/ifx_i2c\ifx_i2c_data_link_layer.c ****     h4 = h3 >> 4;
  66              	 .loc 1 185 0 discriminator 3
  67 001e 1B01     	 lsl r3,r3,#4
  68              	.LVL7:
  69 0020 5340     	 eor r3,r2
  70              	.LVL8:
 186:C:/Workspace/DAVE-4.4.2-64Bit/optiga-trust-m/optiga/comms/ifx_i2c\ifx_i2c_data_link_layer.c **** 
  71              	 .loc 1 186 0 discriminator 3
  72 0022 1A09     	 lsr r2,r3,#4
  73              	.LVL9:
 188:C:/Workspace/DAVE-4.4.2-64Bit/optiga-trust-m/optiga/comms/ifx_i2c\ifx_i2c_data_link_layer.c **** }
  74              	 .loc 1 188 0 discriminator 3
  75 0024 000A     	 lsr r0,r0,#8
  76              	.LVL10:
  77 0026 5B00     	 lsl r3,r3,#1
  78              	.LVL11:
  79 0028 5040     	 eor r0,r2
  80 002a 5A40     	 eor r2,r3
  81              	.LVL12:
  82 002c 331C     	 mov r3,r6
  83 002e 1201     	 lsl r2,r2,#4
  84 0030 5340     	 eor r3,r2
  85 0032 DB00     	 lsl r3,r3,#3
  86 0034 5840     	 eor r0,r3
  87 0036 E7E7     	 b .L2
  88              	.LVL13:
  89              	.L5:
  90              	.LBE5:
  91              	.LBE4:
 197:C:/Workspace/DAVE-4.4.2-64Bit/optiga-trust-m/optiga/comms/ifx_i2c\ifx_i2c_data_link_layer.c ****     {
 198:C:/Workspace/DAVE-4.4.2-64Bit/optiga-trust-m/optiga/comms/ifx_i2c\ifx_i2c_data_link_layer.c ****         crc = ifx_i2c_dl_calc_crc_byte(crc, p_data[i]);
 199:C:/Workspace/DAVE-4.4.2-64Bit/optiga-trust-m/optiga/comms/ifx_i2c\ifx_i2c_data_link_layer.c ****     }
 200:C:/Workspace/DAVE-4.4.2-64Bit/optiga-trust-m/optiga/comms/ifx_i2c\ifx_i2c_data_link_layer.c **** 
 201:C:/Workspace/DAVE-4.4.2-64Bit/optiga-trust-m/optiga/comms/ifx_i2c\ifx_i2c_data_link_layer.c ****     return (crc);
 202:C:/Workspace/DAVE-4.4.2-64Bit/optiga-trust-m/optiga/comms/ifx_i2c\ifx_i2c_data_link_layer.c **** }
  92              	 .loc 1 202 0
  93              	 
  94              	.LVL14:
  95              	.LVL15:
  96 0038 70BD     	 pop {r4,r5,r6,pc}
  97              	 .cfi_endproc
  98              	.LFE4:
 100              	 .section .text.ifx_i2c_dl_send_frame_internal,"ax",%progbits
 101              	 .align 1
 102              	 .code 16
 103              	 .thumb_func
 105              	ifx_i2c_dl_send_frame_internal:
 106              	.LFB5:
 203:C:/Workspace/DAVE-4.4.2-64Bit/optiga-trust-m/optiga/comms/ifx_i2c\ifx_i2c_data_link_layer.c **** 
 204:C:/Workspace/DAVE-4.4.2-64Bit/optiga-trust-m/optiga/comms/ifx_i2c\ifx_i2c_data_link_layer.c **** _STATIC_H optiga_lib_status_t ifx_i2c_dl_send_frame_internal(ifx_i2c_context_t * p_ctx,
 205:C:/Workspace/DAVE-4.4.2-64Bit/optiga-trust-m/optiga/comms/ifx_i2c\ifx_i2c_data_link_layer.c ****                                                              uint16_t frame_len,
 206:C:/Workspace/DAVE-4.4.2-64Bit/optiga-trust-m/optiga/comms/ifx_i2c\ifx_i2c_data_link_layer.c ****                                                              uint8_t seqctr_value,
 207:C:/Workspace/DAVE-4.4.2-64Bit/optiga-trust-m/optiga/comms/ifx_i2c\ifx_i2c_data_link_layer.c ****                                                              uint8_t resend)
 208:C:/Workspace/DAVE-4.4.2-64Bit/optiga-trust-m/optiga/comms/ifx_i2c\ifx_i2c_data_link_layer.c **** {
 107              	 .loc 1 208 0
 108              	 .cfi_startproc
 109              	.LVL16:
 110 0000 F8B5     	 push {r3,r4,r5,r6,r7,lr}
 111              	.LCFI1:
 112              	 .cfi_def_cfa_offset 24
 113              	 .cfi_offset 3,-24
 114              	 .cfi_offset 4,-20
 115              	 .cfi_offset 5,-16
 116              	 .cfi_offset 6,-12
 117              	 .cfi_offset 7,-8
 118              	 .cfi_offset 14,-4
 119              	 .loc 1 208 0
 120 0002 0E1C     	 mov r6,r1
 209:C:/Workspace/DAVE-4.4.2-64Bit/optiga-trust-m/optiga/comms/ifx_i2c\ifx_i2c_data_link_layer.c ****     uint16_t crc;
 210:C:/Workspace/DAVE-4.4.2-64Bit/optiga-trust-m/optiga/comms/ifx_i2c\ifx_i2c_data_link_layer.c ****     uint16_t ack_nr = p_ctx->dl.rx_seq_nr;
 121              	 .loc 1 210 0
 122 0004 011C     	 mov r1,r0
 123              	.LVL17:
 124 0006 6231     	 add r1,r1,#98
 208:C:/Workspace/DAVE-4.4.2-64Bit/optiga-trust-m/optiga/comms/ifx_i2c\ifx_i2c_data_link_layer.c ****     uint16_t crc;
 125              	 .loc 1 208 0
 126 0008 051C     	 mov r5,r0
 127              	 .loc 1 210 0
 128 000a 0978     	 ldrb r1,[r1]
 129              	.LVL18:
 211:C:/Workspace/DAVE-4.4.2-64Bit/optiga-trust-m/optiga/comms/ifx_i2c\ifx_i2c_data_link_layer.c ****     uint8_t * p_buffer;
 212:C:/Workspace/DAVE-4.4.2-64Bit/optiga-trust-m/optiga/comms/ifx_i2c\ifx_i2c_data_link_layer.c **** 
 213:C:/Workspace/DAVE-4.4.2-64Bit/optiga-trust-m/optiga/comms/ifx_i2c\ifx_i2c_data_link_layer.c ****     LOG_DL("[IFX-DL]: TX Frame len %d\n", frame_len);
 214:C:/Workspace/DAVE-4.4.2-64Bit/optiga-trust-m/optiga/comms/ifx_i2c\ifx_i2c_data_link_layer.c ****     // In case of sending a NACK the next frame is referenced
 215:C:/Workspace/DAVE-4.4.2-64Bit/optiga-trust-m/optiga/comms/ifx_i2c\ifx_i2c_data_link_layer.c ****     if (DL_FCTR_SEQCTR_VALUE_NACK == seqctr_value)
 130              	 .loc 1 215 0
 131 000c 012A     	 cmp r2,#1
 132 000e 02D1     	 bne .L7
 216:C:/Workspace/DAVE-4.4.2-64Bit/optiga-trust-m/optiga/comms/ifx_i2c\ifx_i2c_data_link_layer.c ****     {
 217:C:/Workspace/DAVE-4.4.2-64Bit/optiga-trust-m/optiga/comms/ifx_i2c\ifx_i2c_data_link_layer.c ****         ack_nr = (p_ctx->dl.rx_seq_nr + 1) & DL_MAX_FRAME_NUM;
 133              	 .loc 1 217 0
 134 0010 0320     	 mov r0,#3
 135              	.LVL19:
 136 0012 0131     	 add r1,r1,#1
 137              	.LVL20:
 138 0014 0140     	 and r1,r0
 139              	.LVL21:
 140              	.L7:
 218:C:/Workspace/DAVE-4.4.2-64Bit/optiga-trust-m/optiga/comms/ifx_i2c\ifx_i2c_data_link_layer.c ****     }
 219:C:/Workspace/DAVE-4.4.2-64Bit/optiga-trust-m/optiga/comms/ifx_i2c\ifx_i2c_data_link_layer.c ****     p_buffer = p_ctx->dl.p_tx_frame_buffer;
 141              	 .loc 1 219 0
 142 0016 2C6F     	 ldr r4,[r5,#112]
 143              	.LVL22:
 220:C:/Workspace/DAVE-4.4.2-64Bit/optiga-trust-m/optiga/comms/ifx_i2c\ifx_i2c_data_link_layer.c ****     if (DL_FCTR_SEQCTR_VALUE_RESYNC == seqctr_value)
 144              	 .loc 1 220 0
 145 0018 022A     	 cmp r2,#2
 146 001a 02D1     	 bne .L8
 147              	.LVL23:
 221:C:/Workspace/DAVE-4.4.2-64Bit/optiga-trust-m/optiga/comms/ifx_i2c\ifx_i2c_data_link_layer.c ****     {
 222:C:/Workspace/DAVE-4.4.2-64Bit/optiga-trust-m/optiga/comms/ifx_i2c\ifx_i2c_data_link_layer.c ****         ack_nr = 0;
 223:C:/Workspace/DAVE-4.4.2-64Bit/optiga-trust-m/optiga/comms/ifx_i2c\ifx_i2c_data_link_layer.c ****         // Use rx buffer to send resync
 224:C:/Workspace/DAVE-4.4.2-64Bit/optiga-trust-m/optiga/comms/ifx_i2c\ifx_i2c_data_link_layer.c ****         p_buffer = p_ctx->dl.p_rx_frame_buffer;
 148              	 .loc 1 224 0
 149 001c 6C6F     	 ldr r4,[r5,#116]
 150              	.LVL24:
 222:C:/Workspace/DAVE-4.4.2-64Bit/optiga-trust-m/optiga/comms/ifx_i2c\ifx_i2c_data_link_layer.c ****         // Use rx buffer to send resync
 151              	 .loc 1 222 0
 152 001e 0021     	 mov r1,#0
 153 0020 07E0     	 b .L9
 154              	.LVL25:
 155              	.L8:
 225:C:/Workspace/DAVE-4.4.2-64Bit/optiga-trust-m/optiga/comms/ifx_i2c\ifx_i2c_data_link_layer.c ****     }
 226:C:/Workspace/DAVE-4.4.2-64Bit/optiga-trust-m/optiga/comms/ifx_i2c\ifx_i2c_data_link_layer.c ****     // Use tx buffer when discarding a frame and send nakc for later received frame
 227:C:/Workspace/DAVE-4.4.2-64Bit/optiga-trust-m/optiga/comms/ifx_i2c\ifx_i2c_data_link_layer.c ****     if ((DL_FCTR_SEQCTR_VALUE_ACK == seqctr_value) && (DL_STATE_DISCARD == p_ctx->dl.state))
 156              	 .loc 1 227 0
 157 0022 002A     	 cmp r2,#0
 158 0024 05D1     	 bne .L9
 159              	 .loc 1 227 0 is_stmt 0 discriminator 1
 160 0026 281C     	 mov r0,r5
 161 0028 6030     	 add r0,r0,#96
 162 002a 0078     	 ldrb r0,[r0]
 163 002c 0928     	 cmp r0,#9
 164 002e 00D1     	 bne .L9
 228:C:/Workspace/DAVE-4.4.2-64Bit/optiga-trust-m/optiga/comms/ifx_i2c\ifx_i2c_data_link_layer.c ****     {
 229:C:/Workspace/DAVE-4.4.2-64Bit/optiga-trust-m/optiga/comms/ifx_i2c\ifx_i2c_data_link_layer.c ****         p_buffer = p_ctx->dl.p_rx_frame_buffer;
 165              	 .loc 1 229 0 is_stmt 1
 166 0030 6C6F     	 ldr r4,[r5,#116]
 167              	.LVL26:
 168              	.L9:
 230:C:/Workspace/DAVE-4.4.2-64Bit/optiga-trust-m/optiga/comms/ifx_i2c\ifx_i2c_data_link_layer.c ****     }
 231:C:/Workspace/DAVE-4.4.2-64Bit/optiga-trust-m/optiga/comms/ifx_i2c\ifx_i2c_data_link_layer.c **** 
 232:C:/Workspace/DAVE-4.4.2-64Bit/optiga-trust-m/optiga/comms/ifx_i2c\ifx_i2c_data_link_layer.c ****     // Set sequence control value (ACK or NACK) and referenced frame number
 233:C:/Workspace/DAVE-4.4.2-64Bit/optiga-trust-m/optiga/comms/ifx_i2c\ifx_i2c_data_link_layer.c ****     p_buffer[0] = (uint8_t)(ack_nr << DL_FCTR_ACKNR_OFFSET);
 234:C:/Workspace/DAVE-4.4.2-64Bit/optiga-trust-m/optiga/comms/ifx_i2c\ifx_i2c_data_link_layer.c ****     p_buffer[0] |= (uint8_t)(seqctr_value << DL_FCTR_SEQCTR_OFFSET);
 169              	 .loc 1 234 0
 170 0032 5201     	 lsl r2,r2,#5
 171              	.LVL27:
 172 0034 0A43     	 orr r2,r1
 173 0036 D2B2     	 uxtb r2,r2
 174 0038 2270     	 strb r2,[r4]
 235:C:/Workspace/DAVE-4.4.2-64Bit/optiga-trust-m/optiga/comms/ifx_i2c\ifx_i2c_data_link_layer.c **** 
 236:C:/Workspace/DAVE-4.4.2-64Bit/optiga-trust-m/optiga/comms/ifx_i2c\ifx_i2c_data_link_layer.c ****     if (0 != frame_len) // Data frame
 175              	 .loc 1 236 0
 176 003a 002E     	 cmp r6,#0
 177 003c 1AD0     	 beq .L10
 178 003e 291C     	 mov r1,r5
 179 0040 2A1C     	 mov r2,r5
 180 0042 6631     	 add r1,r1,#102
 181 0044 6132     	 add r2,r2,#97
 237:C:/Workspace/DAVE-4.4.2-64Bit/optiga-trust-m/optiga/comms/ifx_i2c\ifx_i2c_data_link_layer.c ****     {
 238:C:/Workspace/DAVE-4.4.2-64Bit/optiga-trust-m/optiga/comms/ifx_i2c\ifx_i2c_data_link_layer.c ****         // Increment and set frame transmit sequence number
 239:C:/Workspace/DAVE-4.4.2-64Bit/optiga-trust-m/optiga/comms/ifx_i2c\ifx_i2c_data_link_layer.c ****         if ((0 == resend) || (0 != p_ctx->dl.resynced))
 182              	 .loc 1 239 0
 183 0046 002B     	 cmp r3,#0
 184 0048 02D0     	 beq .L11
 185              	 .loc 1 239 0 is_stmt 0 discriminator 1
 186 004a 0B78     	 ldrb r3,[r1]
 187              	.LVL28:
 188 004c 002B     	 cmp r3,#0
 189 004e 04D0     	 beq .L12
 190              	.L11:
 240:C:/Workspace/DAVE-4.4.2-64Bit/optiga-trust-m/optiga/comms/ifx_i2c\ifx_i2c_data_link_layer.c ****         {
 241:C:/Workspace/DAVE-4.4.2-64Bit/optiga-trust-m/optiga/comms/ifx_i2c\ifx_i2c_data_link_layer.c ****             p_ctx->dl.tx_seq_nr = (p_ctx->dl.tx_seq_nr + 1) & DL_MAX_FRAME_NUM;
 191              	 .loc 1 241 0 is_stmt 1
 192 0050 0320     	 mov r0,#3
 193 0052 1378     	 ldrb r3,[r2]
 194 0054 0133     	 add r3,r3,#1
 195 0056 0340     	 and r3,r0
 196 0058 1370     	 strb r3,[r2]
 197              	.L12:
 242:C:/Workspace/DAVE-4.4.2-64Bit/optiga-trust-m/optiga/comms/ifx_i2c\ifx_i2c_data_link_layer.c ****         }
 243:C:/Workspace/DAVE-4.4.2-64Bit/optiga-trust-m/optiga/comms/ifx_i2c\ifx_i2c_data_link_layer.c ****         p_buffer[0] |= (uint8_t)(p_ctx->dl.tx_seq_nr << DL_FCTR_FRNR_OFFSET);
 198              	 .loc 1 243 0
 199 005a 1378     	 ldrb r3,[r2]
 200 005c 2278     	 ldrb r2,[r4]
 201 005e 9B00     	 lsl r3,r3,#2
 202 0060 1343     	 orr r3,r2
 203 0062 2370     	 strb r3,[r4]
 244:C:/Workspace/DAVE-4.4.2-64Bit/optiga-trust-m/optiga/comms/ifx_i2c\ifx_i2c_data_link_layer.c ****         // Reset resync received
 245:C:/Workspace/DAVE-4.4.2-64Bit/optiga-trust-m/optiga/comms/ifx_i2c\ifx_i2c_data_link_layer.c ****         p_ctx->dl.resynced = 0;
 204              	 .loc 1 245 0
 205 0064 0023     	 mov r3,#0
 246:C:/Workspace/DAVE-4.4.2-64Bit/optiga-trust-m/optiga/comms/ifx_i2c\ifx_i2c_data_link_layer.c ****         OPTIGA_COMMS_LOG_MESSAGE(">>>>");
 206              	 .loc 1 246 0
 207 0066 1648     	 ldr r0,.L26
 245:C:/Workspace/DAVE-4.4.2-64Bit/optiga-trust-m/optiga/comms/ifx_i2c\ifx_i2c_data_link_layer.c ****         OPTIGA_COMMS_LOG_MESSAGE(">>>>");
 208              	 .loc 1 245 0
 209 0068 0B70     	 strb r3,[r1]
 210              	 .loc 1 246 0
 211 006a 164A     	 ldr r2,.L26+4
 212 006c 1649     	 ldr r1,.L26+8
 213 006e FFF7FEFF 	 bl optiga_lib_print_message
 214              	.LVL29:
 215 0072 03E0     	 b .L13
 216              	.LVL30:
 217              	.L10:
 247:C:/Workspace/DAVE-4.4.2-64Bit/optiga-trust-m/optiga/comms/ifx_i2c\ifx_i2c_data_link_layer.c ****     }
 248:C:/Workspace/DAVE-4.4.2-64Bit/optiga-trust-m/optiga/comms/ifx_i2c\ifx_i2c_data_link_layer.c ****     else // Control frame
 249:C:/Workspace/DAVE-4.4.2-64Bit/optiga-trust-m/optiga/comms/ifx_i2c\ifx_i2c_data_link_layer.c ****     {
 250:C:/Workspace/DAVE-4.4.2-64Bit/optiga-trust-m/optiga/comms/ifx_i2c\ifx_i2c_data_link_layer.c ****         p_buffer[0] |= DL_FCTR_FTYPE_MASK;
 218              	 .loc 1 250 0
 219 0074 8023     	 mov r3,#128
 220              	.LVL31:
 221 0076 5B42     	 neg r3,r3
 222 0078 1A43     	 orr r2,r3
 223 007a 2270     	 strb r2,[r4]
 224              	.L13:
 251:C:/Workspace/DAVE-4.4.2-64Bit/optiga-trust-m/optiga/comms/ifx_i2c\ifx_i2c_data_link_layer.c ****     }
 252:C:/Workspace/DAVE-4.4.2-64Bit/optiga-trust-m/optiga/comms/ifx_i2c\ifx_i2c_data_link_layer.c **** 
 253:C:/Workspace/DAVE-4.4.2-64Bit/optiga-trust-m/optiga/comms/ifx_i2c\ifx_i2c_data_link_layer.c ****     // Set frame length
 254:C:/Workspace/DAVE-4.4.2-64Bit/optiga-trust-m/optiga/comms/ifx_i2c\ifx_i2c_data_link_layer.c ****     p_buffer[1] = (uint8_t)(frame_len >> 8);
 225              	 .loc 1 254 0
 226 007c 330A     	 lsr r3,r6,#8
 255:C:/Workspace/DAVE-4.4.2-64Bit/optiga-trust-m/optiga/comms/ifx_i2c\ifx_i2c_data_link_layer.c ****     p_buffer[2] = (uint8_t)frame_len;
 256:C:/Workspace/DAVE-4.4.2-64Bit/optiga-trust-m/optiga/comms/ifx_i2c\ifx_i2c_data_link_layer.c **** 
 257:C:/Workspace/DAVE-4.4.2-64Bit/optiga-trust-m/optiga/comms/ifx_i2c\ifx_i2c_data_link_layer.c ****     // Calculate frame CRC
 258:C:/Workspace/DAVE-4.4.2-64Bit/optiga-trust-m/optiga/comms/ifx_i2c\ifx_i2c_data_link_layer.c ****     crc = ifx_i2c_dl_calc_crc(p_buffer, 3 + frame_len);
 227              	 .loc 1 258 0
 228 007e F11C     	 add r1,r6,#3
 254:C:/Workspace/DAVE-4.4.2-64Bit/optiga-trust-m/optiga/comms/ifx_i2c\ifx_i2c_data_link_layer.c ****     p_buffer[2] = (uint8_t)frame_len;
 229              	 .loc 1 254 0
 230 0080 6370     	 strb r3,[r4,#1]
 255:C:/Workspace/DAVE-4.4.2-64Bit/optiga-trust-m/optiga/comms/ifx_i2c\ifx_i2c_data_link_layer.c ****     p_buffer[2] = (uint8_t)frame_len;
 231              	 .loc 1 255 0
 232 0082 A670     	 strb r6,[r4,#2]
 233              	 .loc 1 258 0
 234 0084 89B2     	 uxth r1,r1
 235 0086 201C     	 mov r0,r4
 236 0088 FFF7FEFF 	 bl ifx_i2c_dl_calc_crc
 237              	.LVL32:
 259:C:/Workspace/DAVE-4.4.2-64Bit/optiga-trust-m/optiga/comms/ifx_i2c\ifx_i2c_data_link_layer.c ****     p_buffer[3 + frame_len] = (uint8_t) (crc >> 8);
 238              	 .loc 1 259 0
 239 008c A319     	 add r3,r4,r6
 240 008e 020A     	 lsr r2,r0,#8
 241 0090 DA70     	 strb r2,[r3,#3]
 260:C:/Workspace/DAVE-4.4.2-64Bit/optiga-trust-m/optiga/comms/ifx_i2c\ifx_i2c_data_link_layer.c ****     p_buffer[4 + frame_len] = (uint8_t)crc;
 242              	 .loc 1 260 0
 243 0092 1871     	 strb r0,[r3,#4]
 244 0094 771D     	 add r7,r6,#5
 261:C:/Workspace/DAVE-4.4.2-64Bit/optiga-trust-m/optiga/comms/ifx_i2c\ifx_i2c_data_link_layer.c **** 
 262:C:/Workspace/DAVE-4.4.2-64Bit/optiga-trust-m/optiga/comms/ifx_i2c\ifx_i2c_data_link_layer.c ****     // Transmit frame
 263:C:/Workspace/DAVE-4.4.2-64Bit/optiga-trust-m/optiga/comms/ifx_i2c\ifx_i2c_data_link_layer.c ****     OPTIGA_IFXI2C_LOG_TRANSMIT_HEX_DATA(p_buffer,DL_HEADER_SIZE + frame_len,p_ctx)
 245              	 .loc 1 263 0
 246 0096 002E     	 cmp r6,#0
 247 0098 0CD0     	 beq .L14
 248              	 .loc 1 263 0 is_stmt 0 discriminator 1
 249 009a 2B1C     	 mov r3,r5
 250 009c 3033     	 add r3,r3,#48
 251 009e 1A78     	 ldrb r2,[r3]
 252 00a0 0D23     	 mov r3,#13
 253 00a2 B9B2     	 uxth r1,r7
 254 00a4 1340     	 and r3,r2
 255 00a6 201C     	 mov r0,r4
 256              	.LVL33:
 257 00a8 084A     	 ldr r2,.L26+12
 258 00aa 012B     	 cmp r3,#1
 259 00ac 00D0     	 beq .L25
 260              	.LVL34:
 261              	 .loc 1 263 0 discriminator 5
 262 00ae 084A     	 ldr r2,.L26+16
 263              	.L25:
 264 00b0 FFF7FEFF 	 bl optiga_lib_print_array_hex_format
 265              	.LVL35:
 266              	.L14:
 264:C:/Workspace/DAVE-4.4.2-64Bit/optiga-trust-m/optiga/comms/ifx_i2c\ifx_i2c_data_link_layer.c ****     return (ifx_i2c_pl_send_frame(p_ctx, p_buffer, DL_HEADER_SIZE + frame_len));
 267              	 .loc 1 264 0 is_stmt 1
 268 00b4 BAB2     	 uxth r2,r7
 269 00b6 281C     	 mov r0,r5
 270 00b8 211C     	 mov r1,r4
 271 00ba FFF7FEFF 	 bl ifx_i2c_pl_send_frame
 272              	.LVL36:
 265:C:/Workspace/DAVE-4.4.2-64Bit/optiga-trust-m/optiga/comms/ifx_i2c\ifx_i2c_data_link_layer.c **** }
 273              	 .loc 1 265 0
 274              	 
 275              	.LVL37:
 276              	.LVL38:
 277 00be F8BD     	 pop {r3,r4,r5,r6,r7,pc}
 278              	.L27:
 279              	 .align 2
 280              	.L26:
 281 00c0 00000000 	 .word .LC2
 282 00c4 1A000000 	 .word .LC6
 283 00c8 05000000 	 .word .LC4
 284 00cc 1F000000 	 .word .LC8
 285 00d0 25000000 	 .word .LC10
 286              	 .cfi_endproc
 287              	.LFE5:
 289              	 .section .text.ifx_i2c_pl_event_handler,"ax",%progbits
 290              	 .align 1
 291              	 .code 16
 292              	 .thumb_func
 294              	ifx_i2c_pl_event_handler:
 295              	.LFB8:
 266:C:/Workspace/DAVE-4.4.2-64Bit/optiga-trust-m/optiga/comms/ifx_i2c\ifx_i2c_data_link_layer.c **** 
 267:C:/Workspace/DAVE-4.4.2-64Bit/optiga-trust-m/optiga/comms/ifx_i2c\ifx_i2c_data_link_layer.c **** _STATIC_H optiga_lib_status_t ifx_i2c_dl_resync(ifx_i2c_context_t * p_ctx)
 268:C:/Workspace/DAVE-4.4.2-64Bit/optiga-trust-m/optiga/comms/ifx_i2c\ifx_i2c_data_link_layer.c **** {
 269:C:/Workspace/DAVE-4.4.2-64Bit/optiga-trust-m/optiga/comms/ifx_i2c\ifx_i2c_data_link_layer.c ****     optiga_lib_status_t api_status = IFX_I2C_STACK_SUCCESS;
 270:C:/Workspace/DAVE-4.4.2-64Bit/optiga-trust-m/optiga/comms/ifx_i2c\ifx_i2c_data_link_layer.c ****     // Reset tx and rx counters
 271:C:/Workspace/DAVE-4.4.2-64Bit/optiga-trust-m/optiga/comms/ifx_i2c\ifx_i2c_data_link_layer.c ****     p_ctx->dl.tx_seq_nr = DL_MAX_FRAME_NUM;
 272:C:/Workspace/DAVE-4.4.2-64Bit/optiga-trust-m/optiga/comms/ifx_i2c\ifx_i2c_data_link_layer.c ****     p_ctx->dl.rx_seq_nr = DL_MAX_FRAME_NUM;
 273:C:/Workspace/DAVE-4.4.2-64Bit/optiga-trust-m/optiga/comms/ifx_i2c\ifx_i2c_data_link_layer.c ****     p_ctx->dl.resynced = 1;
 274:C:/Workspace/DAVE-4.4.2-64Bit/optiga-trust-m/optiga/comms/ifx_i2c\ifx_i2c_data_link_layer.c ****     LOG_DL("[IFX-DL]: Send Re-Sync Frame\n");
 275:C:/Workspace/DAVE-4.4.2-64Bit/optiga-trust-m/optiga/comms/ifx_i2c\ifx_i2c_data_link_layer.c ****     p_ctx->dl.state = DL_STATE_RESEND;
 276:C:/Workspace/DAVE-4.4.2-64Bit/optiga-trust-m/optiga/comms/ifx_i2c\ifx_i2c_data_link_layer.c ****     api_status = ifx_i2c_dl_send_frame_internal(p_ctx, 0, DL_FCTR_SEQCTR_VALUE_RESYNC, 0);
 277:C:/Workspace/DAVE-4.4.2-64Bit/optiga-trust-m/optiga/comms/ifx_i2c\ifx_i2c_data_link_layer.c ****     return (api_status);
 278:C:/Workspace/DAVE-4.4.2-64Bit/optiga-trust-m/optiga/comms/ifx_i2c\ifx_i2c_data_link_layer.c **** }
 279:C:/Workspace/DAVE-4.4.2-64Bit/optiga-trust-m/optiga/comms/ifx_i2c\ifx_i2c_data_link_layer.c **** 
 280:C:/Workspace/DAVE-4.4.2-64Bit/optiga-trust-m/optiga/comms/ifx_i2c\ifx_i2c_data_link_layer.c **** _STATIC_H void ifx_i2c_dl_resend_frame(ifx_i2c_context_t * p_ctx, uint8_t seqctr_value)
 281:C:/Workspace/DAVE-4.4.2-64Bit/optiga-trust-m/optiga/comms/ifx_i2c\ifx_i2c_data_link_layer.c **** {
 282:C:/Workspace/DAVE-4.4.2-64Bit/optiga-trust-m/optiga/comms/ifx_i2c\ifx_i2c_data_link_layer.c ****     optiga_lib_status_t status;
 283:C:/Workspace/DAVE-4.4.2-64Bit/optiga-trust-m/optiga/comms/ifx_i2c\ifx_i2c_data_link_layer.c ****     // If exit timeout not violated
 284:C:/Workspace/DAVE-4.4.2-64Bit/optiga-trust-m/optiga/comms/ifx_i2c\ifx_i2c_data_link_layer.c ****     uint32_t current_time_stamp = pal_os_timer_get_time_in_milliseconds();
 285:C:/Workspace/DAVE-4.4.2-64Bit/optiga-trust-m/optiga/comms/ifx_i2c\ifx_i2c_data_link_layer.c ****     uint32_t time_stamp_diff = current_time_stamp - p_ctx->tl.api_start_time;
 286:C:/Workspace/DAVE-4.4.2-64Bit/optiga-trust-m/optiga/comms/ifx_i2c\ifx_i2c_data_link_layer.c **** 
 287:C:/Workspace/DAVE-4.4.2-64Bit/optiga-trust-m/optiga/comms/ifx_i2c\ifx_i2c_data_link_layer.c ****     if (p_ctx->tl.api_start_time > current_time_stamp)
 288:C:/Workspace/DAVE-4.4.2-64Bit/optiga-trust-m/optiga/comms/ifx_i2c\ifx_i2c_data_link_layer.c ****     {
 289:C:/Workspace/DAVE-4.4.2-64Bit/optiga-trust-m/optiga/comms/ifx_i2c\ifx_i2c_data_link_layer.c ****         time_stamp_diff = (0xFFFFFFFF + (current_time_stamp - p_ctx->tl.api_start_time)) + 0x01;
 290:C:/Workspace/DAVE-4.4.2-64Bit/optiga-trust-m/optiga/comms/ifx_i2c\ifx_i2c_data_link_layer.c ****     }
 291:C:/Workspace/DAVE-4.4.2-64Bit/optiga-trust-m/optiga/comms/ifx_i2c\ifx_i2c_data_link_layer.c ****     if (time_stamp_diff < (TL_MAX_EXIT_TIMEOUT * DL_SEC_TO_MSECS))
 292:C:/Workspace/DAVE-4.4.2-64Bit/optiga-trust-m/optiga/comms/ifx_i2c\ifx_i2c_data_link_layer.c ****     {
 293:C:/Workspace/DAVE-4.4.2-64Bit/optiga-trust-m/optiga/comms/ifx_i2c\ifx_i2c_data_link_layer.c ****         if (DL_TRANS_REPEAT == p_ctx->dl.retransmit_counter)
 294:C:/Workspace/DAVE-4.4.2-64Bit/optiga-trust-m/optiga/comms/ifx_i2c\ifx_i2c_data_link_layer.c ****         {
 295:C:/Workspace/DAVE-4.4.2-64Bit/optiga-trust-m/optiga/comms/ifx_i2c\ifx_i2c_data_link_layer.c ****             LOG_DL("[IFX-DL]: Re-Sync counters\n");
 296:C:/Workspace/DAVE-4.4.2-64Bit/optiga-trust-m/optiga/comms/ifx_i2c\ifx_i2c_data_link_layer.c ****             p_ctx->dl.retransmit_counter = 0;
 297:C:/Workspace/DAVE-4.4.2-64Bit/optiga-trust-m/optiga/comms/ifx_i2c\ifx_i2c_data_link_layer.c ****             status = ifx_i2c_dl_resync(p_ctx);
 298:C:/Workspace/DAVE-4.4.2-64Bit/optiga-trust-m/optiga/comms/ifx_i2c\ifx_i2c_data_link_layer.c ****         }
 299:C:/Workspace/DAVE-4.4.2-64Bit/optiga-trust-m/optiga/comms/ifx_i2c\ifx_i2c_data_link_layer.c ****         else
 300:C:/Workspace/DAVE-4.4.2-64Bit/optiga-trust-m/optiga/comms/ifx_i2c\ifx_i2c_data_link_layer.c ****         {
 301:C:/Workspace/DAVE-4.4.2-64Bit/optiga-trust-m/optiga/comms/ifx_i2c\ifx_i2c_data_link_layer.c ****             LOG_DL("[IFX-DL]: Re-TX Frame\n");
 302:C:/Workspace/DAVE-4.4.2-64Bit/optiga-trust-m/optiga/comms/ifx_i2c\ifx_i2c_data_link_layer.c ****             p_ctx->dl.retransmit_counter++;
 303:C:/Workspace/DAVE-4.4.2-64Bit/optiga-trust-m/optiga/comms/ifx_i2c\ifx_i2c_data_link_layer.c ****             p_ctx->dl.state = DL_STATE_TX;
 304:C:/Workspace/DAVE-4.4.2-64Bit/optiga-trust-m/optiga/comms/ifx_i2c\ifx_i2c_data_link_layer.c ****             status = ifx_i2c_dl_send_frame_internal(p_ctx, p_ctx->dl.tx_buffer_size, seqctr_value, 
 305:C:/Workspace/DAVE-4.4.2-64Bit/optiga-trust-m/optiga/comms/ifx_i2c\ifx_i2c_data_link_layer.c ****         }
 306:C:/Workspace/DAVE-4.4.2-64Bit/optiga-trust-m/optiga/comms/ifx_i2c\ifx_i2c_data_link_layer.c ****         // Handle error in above case by sending NACK
 307:C:/Workspace/DAVE-4.4.2-64Bit/optiga-trust-m/optiga/comms/ifx_i2c\ifx_i2c_data_link_layer.c ****         if (IFX_I2C_STACK_SUCCESS != status)
 308:C:/Workspace/DAVE-4.4.2-64Bit/optiga-trust-m/optiga/comms/ifx_i2c\ifx_i2c_data_link_layer.c ****         {
 309:C:/Workspace/DAVE-4.4.2-64Bit/optiga-trust-m/optiga/comms/ifx_i2c\ifx_i2c_data_link_layer.c ****             p_ctx->dl.state  = DL_STATE_NACK;
 310:C:/Workspace/DAVE-4.4.2-64Bit/optiga-trust-m/optiga/comms/ifx_i2c\ifx_i2c_data_link_layer.c ****         }
 311:C:/Workspace/DAVE-4.4.2-64Bit/optiga-trust-m/optiga/comms/ifx_i2c\ifx_i2c_data_link_layer.c ****     }
 312:C:/Workspace/DAVE-4.4.2-64Bit/optiga-trust-m/optiga/comms/ifx_i2c\ifx_i2c_data_link_layer.c ****     else
 313:C:/Workspace/DAVE-4.4.2-64Bit/optiga-trust-m/optiga/comms/ifx_i2c\ifx_i2c_data_link_layer.c ****     {
 314:C:/Workspace/DAVE-4.4.2-64Bit/optiga-trust-m/optiga/comms/ifx_i2c\ifx_i2c_data_link_layer.c ****         p_ctx->dl.state = DL_STATE_ERROR;
 315:C:/Workspace/DAVE-4.4.2-64Bit/optiga-trust-m/optiga/comms/ifx_i2c\ifx_i2c_data_link_layer.c ****     }
 316:C:/Workspace/DAVE-4.4.2-64Bit/optiga-trust-m/optiga/comms/ifx_i2c\ifx_i2c_data_link_layer.c **** }
 317:C:/Workspace/DAVE-4.4.2-64Bit/optiga-trust-m/optiga/comms/ifx_i2c\ifx_i2c_data_link_layer.c **** 
 318:C:/Workspace/DAVE-4.4.2-64Bit/optiga-trust-m/optiga/comms/ifx_i2c\ifx_i2c_data_link_layer.c **** _STATIC_H void ifx_i2c_pl_event_handler(ifx_i2c_context_t * p_ctx,
 319:C:/Workspace/DAVE-4.4.2-64Bit/optiga-trust-m/optiga/comms/ifx_i2c\ifx_i2c_data_link_layer.c ****                                         optiga_lib_status_t event,
 320:C:/Workspace/DAVE-4.4.2-64Bit/optiga-trust-m/optiga/comms/ifx_i2c\ifx_i2c_data_link_layer.c ****                                         const uint8_t * p_data,
 321:C:/Workspace/DAVE-4.4.2-64Bit/optiga-trust-m/optiga/comms/ifx_i2c\ifx_i2c_data_link_layer.c ****                                         uint16_t data_len)
 322:C:/Workspace/DAVE-4.4.2-64Bit/optiga-trust-m/optiga/comms/ifx_i2c\ifx_i2c_data_link_layer.c **** {
 296              	 .loc 1 322 0
 297              	 .cfi_startproc
 298              	.LVL39:
 299 0000 F0B5     	 push {r4,r5,r6,r7,lr}
 300              	.LCFI2:
 301              	 .cfi_def_cfa_offset 20
 302              	 .cfi_offset 4,-20
 303              	 .cfi_offset 5,-16
 304              	 .cfi_offset 6,-12
 305              	 .cfi_offset 7,-8
 306              	 .cfi_offset 14,-4
 323:C:/Workspace/DAVE-4.4.2-64Bit/optiga-trust-m/optiga/comms/ifx_i2c\ifx_i2c_data_link_layer.c ****     uint8_t fctr = 0;
 324:C:/Workspace/DAVE-4.4.2-64Bit/optiga-trust-m/optiga/comms/ifx_i2c\ifx_i2c_data_link_layer.c ****     uint8_t fr_nr = 0;
 325:C:/Workspace/DAVE-4.4.2-64Bit/optiga-trust-m/optiga/comms/ifx_i2c\ifx_i2c_data_link_layer.c ****     uint8_t ack_nr = 0;
 326:C:/Workspace/DAVE-4.4.2-64Bit/optiga-trust-m/optiga/comms/ifx_i2c\ifx_i2c_data_link_layer.c ****     uint8_t seqctr = 0;
 327:C:/Workspace/DAVE-4.4.2-64Bit/optiga-trust-m/optiga/comms/ifx_i2c\ifx_i2c_data_link_layer.c ****     uint8_t current_event;
 328:C:/Workspace/DAVE-4.4.2-64Bit/optiga-trust-m/optiga/comms/ifx_i2c\ifx_i2c_data_link_layer.c ****     uint8_t ftype;
 329:C:/Workspace/DAVE-4.4.2-64Bit/optiga-trust-m/optiga/comms/ifx_i2c\ifx_i2c_data_link_layer.c ****     uint8_t continue_state_machine = TRUE;
 330:C:/Workspace/DAVE-4.4.2-64Bit/optiga-trust-m/optiga/comms/ifx_i2c\ifx_i2c_data_link_layer.c ****     uint16_t packet_len = 0;
 331:C:/Workspace/DAVE-4.4.2-64Bit/optiga-trust-m/optiga/comms/ifx_i2c\ifx_i2c_data_link_layer.c ****     uint16_t crc_received = 0;
 332:C:/Workspace/DAVE-4.4.2-64Bit/optiga-trust-m/optiga/comms/ifx_i2c\ifx_i2c_data_link_layer.c ****     uint16_t crc_calculated = 0;
 307              	 .loc 1 332 0
 308 0002 0025     	 mov r5,#0
 322:C:/Workspace/DAVE-4.4.2-64Bit/optiga-trust-m/optiga/comms/ifx_i2c\ifx_i2c_data_link_layer.c ****     uint8_t fctr = 0;
 309              	 .loc 1 322 0
 310 0004 041C     	 mov r4,r0
 331:C:/Workspace/DAVE-4.4.2-64Bit/optiga-trust-m/optiga/comms/ifx_i2c\ifx_i2c_data_link_layer.c ****     uint16_t crc_calculated = 0;
 311              	 .loc 1 331 0
 312 0006 2F1C     	 mov r7,r5
 322:C:/Workspace/DAVE-4.4.2-64Bit/optiga-trust-m/optiga/comms/ifx_i2c\ifx_i2c_data_link_layer.c ****     uint8_t fctr = 0;
 313              	 .loc 1 322 0
 314 0008 89B0     	 sub sp,sp,#36
 315              	.LCFI3:
 316              	 .cfi_def_cfa_offset 56
 322:C:/Workspace/DAVE-4.4.2-64Bit/optiga-trust-m/optiga/comms/ifx_i2c\ifx_i2c_data_link_layer.c ****     uint8_t fctr = 0;
 317              	 .loc 1 322 0
 318 000a 0491     	 str r1,[sp,#16]
 319 000c 0192     	 str r2,[sp,#4]
 320 000e 0093     	 str r3,[sp]
 330:C:/Workspace/DAVE-4.4.2-64Bit/optiga-trust-m/optiga/comms/ifx_i2c\ifx_i2c_data_link_layer.c ****     uint16_t crc_received = 0;
 321              	 .loc 1 330 0
 322 0010 0595     	 str r5,[sp,#20]
 326:C:/Workspace/DAVE-4.4.2-64Bit/optiga-trust-m/optiga/comms/ifx_i2c\ifx_i2c_data_link_layer.c ****     uint8_t current_event;
 323              	 .loc 1 326 0
 324 0012 0295     	 str r5,[sp,#8]
 325:C:/Workspace/DAVE-4.4.2-64Bit/optiga-trust-m/optiga/comms/ifx_i2c\ifx_i2c_data_link_layer.c ****     uint8_t seqctr = 0;
 325              	 .loc 1 325 0
 326 0014 0695     	 str r5,[sp,#24]
 324:C:/Workspace/DAVE-4.4.2-64Bit/optiga-trust-m/optiga/comms/ifx_i2c\ifx_i2c_data_link_layer.c ****     uint8_t ack_nr = 0;
 327              	 .loc 1 324 0
 328 0016 0395     	 str r5,[sp,#12]
 329              	.LVL40:
 330              	.L73:
 331 0018 261C     	 mov r6,r4
 333:C:/Workspace/DAVE-4.4.2-64Bit/optiga-trust-m/optiga/comms/ifx_i2c\ifx_i2c_data_link_layer.c ****     LOG_DL("[IFX-DL]: #Enter DL Handler\n");
 334:C:/Workspace/DAVE-4.4.2-64Bit/optiga-trust-m/optiga/comms/ifx_i2c\ifx_i2c_data_link_layer.c ****     do
 335:C:/Workspace/DAVE-4.4.2-64Bit/optiga-trust-m/optiga/comms/ifx_i2c\ifx_i2c_data_link_layer.c ****     {
 336:C:/Workspace/DAVE-4.4.2-64Bit/optiga-trust-m/optiga/comms/ifx_i2c\ifx_i2c_data_link_layer.c ****         if ((IFX_I2C_FATAL_ERROR == event) && (DL_STATE_IDLE != p_ctx->dl.state))
 332              	 .loc 1 336 0
 333 001a 8323     	 mov r3,#131
 334 001c 049A     	 ldr r2,[sp,#16]
 335 001e 6036     	 add r6,r6,#96
 336 0020 5B00     	 lsl r3,r3,#1
 337 0022 9A42     	 cmp r2,r3
 338 0024 04D1     	 bne .L29
 339              	 .loc 1 336 0 is_stmt 0 discriminator 1
 340 0026 3378     	 ldrb r3,[r6]
 341 0028 012B     	 cmp r3,#1
 342 002a 01D0     	 beq .L29
 337:C:/Workspace/DAVE-4.4.2-64Bit/optiga-trust-m/optiga/comms/ifx_i2c\ifx_i2c_data_link_layer.c ****         {    // Exit in case of fatal error
 338:C:/Workspace/DAVE-4.4.2-64Bit/optiga-trust-m/optiga/comms/ifx_i2c\ifx_i2c_data_link_layer.c ****             LOG_DL("[IFX-DL]: Fatal error received\n");
 339:C:/Workspace/DAVE-4.4.2-64Bit/optiga-trust-m/optiga/comms/ifx_i2c\ifx_i2c_data_link_layer.c ****             p_ctx->dl.state = DL_STATE_ERROR;
 343              	 .loc 1 339 0 is_stmt 1
 344 002c 0823     	 mov r3,#8
 345 002e 3370     	 strb r3,[r6]
 346              	.L29:
 340:C:/Workspace/DAVE-4.4.2-64Bit/optiga-trust-m/optiga/comms/ifx_i2c\ifx_i2c_data_link_layer.c ****         }
 341:C:/Workspace/DAVE-4.4.2-64Bit/optiga-trust-m/optiga/comms/ifx_i2c\ifx_i2c_data_link_layer.c ****         switch (p_ctx->dl.state)
 347              	 .loc 1 341 0
 348 0030 3078     	 ldrb r0,[r6]
 349 0032 0138     	 sub r0,r0,#1
 350 0034 0A28     	 cmp r0,#10
 351 0036 00D9     	 bls .LCB367
 352 0038 84E1     	 b .L30
 353              	.LCB367:
 354 003a FFF7FEFF 	 bl __gnu_thumb1_case_uhi
 355              	.L32:
 356 003e 0B00     	 .2byte (.L31-.L32)/2
 357 0040 1200     	 .2byte (.L33-.L32)/2
 358 0042 2900     	 .2byte (.L34-.L32)/2
 359 0044 0101     	 .2byte (.L35-.L32)/2
 360 0046 2701     	 .2byte (.L36-.L32)/2
 361 0048 1E01     	 .2byte (.L37-.L32)/2
 362 004a 8301     	 .2byte (.L30-.L32)/2
 363 004c 5D01     	 .2byte (.L38-.L32)/2
 364 004e F900     	 .2byte (.L39-.L32)/2
 365 0050 6200     	 .2byte (.L40-.L32)/2
 366 0052 B900     	 .2byte (.L41-.L32)/2
 367              	 .p2align 1
 368              	.L31:
 342:C:/Workspace/DAVE-4.4.2-64Bit/optiga-trust-m/optiga/comms/ifx_i2c\ifx_i2c_data_link_layer.c ****         {
 343:C:/Workspace/DAVE-4.4.2-64Bit/optiga-trust-m/optiga/comms/ifx_i2c\ifx_i2c_data_link_layer.c ****             case DL_STATE_IDLE:
 344:C:/Workspace/DAVE-4.4.2-64Bit/optiga-trust-m/optiga/comms/ifx_i2c\ifx_i2c_data_link_layer.c ****             {
 345:C:/Workspace/DAVE-4.4.2-64Bit/optiga-trust-m/optiga/comms/ifx_i2c\ifx_i2c_data_link_layer.c ****                 current_event = (event != IFX_I2C_STACK_SUCCESS) ? IFX_I2C_DL_EVENT_ERROR : IFX_I2C
 369              	 .loc 1 345 0
 370 0054 0499     	 ldr r1,[sp,#16]
 371 0056 4B1E     	 sub r3,r1,#1
 372 0058 9941     	 sbc r1,r1,r3
 373 005a 0223     	 mov r3,#2
 374 005c 591A     	 sub r1,r3,r1
 375              	.LVL41:
 346:C:/Workspace/DAVE-4.4.2-64Bit/optiga-trust-m/optiga/comms/ifx_i2c\ifx_i2c_data_link_layer.c ****                 continue_state_machine = FALSE;
 347:C:/Workspace/DAVE-4.4.2-64Bit/optiga-trust-m/optiga/comms/ifx_i2c\ifx_i2c_data_link_layer.c ****                 p_ctx->dl.upper_layer_event_handler(p_ctx,current_event, 0, 0);
 376              	 .loc 1 347 0
 377 005e 89B2     	 uxth r1,r1
 378              	.LVL42:
 379 0060 72E1     	 b .L101
 380              	.LVL43:
 381              	.L33:
 382 0062 261C     	 mov r6,r4
 348:C:/Workspace/DAVE-4.4.2-64Bit/optiga-trust-m/optiga/comms/ifx_i2c\ifx_i2c_data_link_layer.c ****             }
 349:C:/Workspace/DAVE-4.4.2-64Bit/optiga-trust-m/optiga/comms/ifx_i2c\ifx_i2c_data_link_layer.c ****             break;
 350:C:/Workspace/DAVE-4.4.2-64Bit/optiga-trust-m/optiga/comms/ifx_i2c\ifx_i2c_data_link_layer.c ****             case DL_STATE_TX:
 351:C:/Workspace/DAVE-4.4.2-64Bit/optiga-trust-m/optiga/comms/ifx_i2c\ifx_i2c_data_link_layer.c ****             {
 352:C:/Workspace/DAVE-4.4.2-64Bit/optiga-trust-m/optiga/comms/ifx_i2c\ifx_i2c_data_link_layer.c ****                 // If writing a frame failed retry sending
 353:C:/Workspace/DAVE-4.4.2-64Bit/optiga-trust-m/optiga/comms/ifx_i2c\ifx_i2c_data_link_layer.c ****                 if (IFX_I2C_STACK_ERROR == event)
 383              	 .loc 1 353 0
 384 0064 8123     	 mov r3,#129
 385 0066 049A     	 ldr r2,[sp,#16]
 386 0068 6036     	 add r6,r6,#96
 387 006a 5B00     	 lsl r3,r3,#1
 388 006c 9A42     	 cmp r2,r3
 389 006e 01D1     	 bne .L44
 354:C:/Workspace/DAVE-4.4.2-64Bit/optiga-trust-m/optiga/comms/ifx_i2c\ifx_i2c_data_link_layer.c ****                 {
 355:C:/Workspace/DAVE-4.4.2-64Bit/optiga-trust-m/optiga/comms/ifx_i2c\ifx_i2c_data_link_layer.c ****                     p_ctx->dl.state = DL_STATE_RESEND;
 390              	 .loc 1 355 0
 391 0070 FD3B     	 sub r3,r3,#253
 392 0072 0BE0     	 b .L91
 393              	.L44:
 356:C:/Workspace/DAVE-4.4.2-64Bit/optiga-trust-m/optiga/comms/ifx_i2c\ifx_i2c_data_link_layer.c ****                     break;
 357:C:/Workspace/DAVE-4.4.2-64Bit/optiga-trust-m/optiga/comms/ifx_i2c\ifx_i2c_data_link_layer.c ****                 }
 358:C:/Workspace/DAVE-4.4.2-64Bit/optiga-trust-m/optiga/comms/ifx_i2c\ifx_i2c_data_link_layer.c ****                 LOG_DL("[IFX-DL]: Frame Sent\n");
 359:C:/Workspace/DAVE-4.4.2-64Bit/optiga-trust-m/optiga/comms/ifx_i2c\ifx_i2c_data_link_layer.c ****                 // Transmission successful, start receiving frame
 360:C:/Workspace/DAVE-4.4.2-64Bit/optiga-trust-m/optiga/comms/ifx_i2c\ifx_i2c_data_link_layer.c ****                 p_ctx->dl.frame_start_time = pal_os_timer_get_time_in_milliseconds();
 394              	 .loc 1 360 0
 395 0074 FFF7FEFF 	 bl pal_os_timer_get_time_in_milliseconds
 396              	.LVL44:
 361:C:/Workspace/DAVE-4.4.2-64Bit/optiga-trust-m/optiga/comms/ifx_i2c\ifx_i2c_data_link_layer.c ****                 p_ctx->dl.state = DL_STATE_RX;
 397              	 .loc 1 361 0
 398 0078 0323     	 mov r3,#3
 360:C:/Workspace/DAVE-4.4.2-64Bit/optiga-trust-m/optiga/comms/ifx_i2c\ifx_i2c_data_link_layer.c ****                 p_ctx->dl.state = DL_STATE_RX;
 399              	 .loc 1 360 0
 400 007a A067     	 str r0,[r4,#120]
 401              	 .loc 1 361 0
 402 007c 3370     	 strb r3,[r6]
 362:C:/Workspace/DAVE-4.4.2-64Bit/optiga-trust-m/optiga/comms/ifx_i2c\ifx_i2c_data_link_layer.c ****                 if (0 != ifx_i2c_pl_receive_frame(p_ctx))
 403              	 .loc 1 362 0
 404 007e 201C     	 mov r0,r4
 405 0080 FFF7FEFF 	 bl ifx_i2c_pl_receive_frame
 406              	.LVL45:
 407 0084 0028     	 cmp r0,#0
 408 0086 00D1     	 bne .LCB409
 409 0088 63E1     	 b .L28
 410              	.LCB409:
 363:C:/Workspace/DAVE-4.4.2-64Bit/optiga-trust-m/optiga/comms/ifx_i2c\ifx_i2c_data_link_layer.c ****                 {
 364:C:/Workspace/DAVE-4.4.2-64Bit/optiga-trust-m/optiga/comms/ifx_i2c\ifx_i2c_data_link_layer.c ****                     p_ctx->dl.state  = DL_STATE_NACK;
 411              	 .loc 1 364 0
 412 008a 0623     	 mov r3,#6
 413              	.L91:
 414 008c 3370     	 strb r3,[r6]
 415 008e C3E7     	 b .L73
 416              	.L34:
 417 0090 231C     	 mov r3,r4
 418 0092 6033     	 add r3,r3,#96
 419 0094 0793     	 str r3,[sp,#28]
 365:C:/Workspace/DAVE-4.4.2-64Bit/optiga-trust-m/optiga/comms/ifx_i2c\ifx_i2c_data_link_layer.c ****                 }
 366:C:/Workspace/DAVE-4.4.2-64Bit/optiga-trust-m/optiga/comms/ifx_i2c\ifx_i2c_data_link_layer.c ****                 else
 367:C:/Workspace/DAVE-4.4.2-64Bit/optiga-trust-m/optiga/comms/ifx_i2c\ifx_i2c_data_link_layer.c ****                 {
 368:C:/Workspace/DAVE-4.4.2-64Bit/optiga-trust-m/optiga/comms/ifx_i2c\ifx_i2c_data_link_layer.c ****                     continue_state_machine = FALSE;
 369:C:/Workspace/DAVE-4.4.2-64Bit/optiga-trust-m/optiga/comms/ifx_i2c\ifx_i2c_data_link_layer.c ****                 }
 370:C:/Workspace/DAVE-4.4.2-64Bit/optiga-trust-m/optiga/comms/ifx_i2c\ifx_i2c_data_link_layer.c ****             }
 371:C:/Workspace/DAVE-4.4.2-64Bit/optiga-trust-m/optiga/comms/ifx_i2c\ifx_i2c_data_link_layer.c ****             break;
 372:C:/Workspace/DAVE-4.4.2-64Bit/optiga-trust-m/optiga/comms/ifx_i2c\ifx_i2c_data_link_layer.c ****             case DL_STATE_RX:
 373:C:/Workspace/DAVE-4.4.2-64Bit/optiga-trust-m/optiga/comms/ifx_i2c\ifx_i2c_data_link_layer.c ****             {
 374:C:/Workspace/DAVE-4.4.2-64Bit/optiga-trust-m/optiga/comms/ifx_i2c\ifx_i2c_data_link_layer.c ****                 if (IFX_I2C_STACK_ERROR == event)
 420              	 .loc 1 374 0
 421 0096 8123     	 mov r3,#129
 422 0098 049A     	 ldr r2,[sp,#16]
 423 009a 5B00     	 lsl r3,r3,#1
 424 009c 9A42     	 cmp r2,r3
 425 009e 01D1     	 bne .L47
 375:C:/Workspace/DAVE-4.4.2-64Bit/optiga-trust-m/optiga/comms/ifx_i2c\ifx_i2c_data_link_layer.c ****                 {    // If no frame was received retry sending
 376:C:/Workspace/DAVE-4.4.2-64Bit/optiga-trust-m/optiga/comms/ifx_i2c\ifx_i2c_data_link_layer.c ****                     p_ctx->dl.state = DL_STATE_RESEND;
 426              	 .loc 1 376 0
 427 00a0 FD3B     	 sub r3,r3,#253
 428 00a2 03E0     	 b .L92
 429              	.L47:
 377:C:/Workspace/DAVE-4.4.2-64Bit/optiga-trust-m/optiga/comms/ifx_i2c\ifx_i2c_data_link_layer.c ****                     break;
 378:C:/Workspace/DAVE-4.4.2-64Bit/optiga-trust-m/optiga/comms/ifx_i2c\ifx_i2c_data_link_layer.c ****                 }
 379:C:/Workspace/DAVE-4.4.2-64Bit/optiga-trust-m/optiga/comms/ifx_i2c\ifx_i2c_data_link_layer.c ****                 // Received frame from device, start analyzing
 380:C:/Workspace/DAVE-4.4.2-64Bit/optiga-trust-m/optiga/comms/ifx_i2c\ifx_i2c_data_link_layer.c ****                 LOG_DL("[IFX-DL]: Received Frame of length %d\n",data_len);
 381:C:/Workspace/DAVE-4.4.2-64Bit/optiga-trust-m/optiga/comms/ifx_i2c\ifx_i2c_data_link_layer.c **** 
 382:C:/Workspace/DAVE-4.4.2-64Bit/optiga-trust-m/optiga/comms/ifx_i2c\ifx_i2c_data_link_layer.c ****                 if (data_len < DL_HEADER_SIZE)
 430              	 .loc 1 382 0
 431 00a4 009B     	 ldr r3,[sp]
 432 00a6 042B     	 cmp r3,#4
 433 00a8 03D8     	 bhi .L48
 383:C:/Workspace/DAVE-4.4.2-64Bit/optiga-trust-m/optiga/comms/ifx_i2c\ifx_i2c_data_link_layer.c ****                 {    // Received length is less than minimum size
 384:C:/Workspace/DAVE-4.4.2-64Bit/optiga-trust-m/optiga/comms/ifx_i2c\ifx_i2c_data_link_layer.c ****                     LOG_DL("[IFX-DL]: received data_len < DL_HEADER_SIZE\n");
 385:C:/Workspace/DAVE-4.4.2-64Bit/optiga-trust-m/optiga/comms/ifx_i2c\ifx_i2c_data_link_layer.c ****                     p_ctx->dl.state  = DL_STATE_NACK;
 434              	 .loc 1 385 0
 435 00aa 0623     	 mov r3,#6
 436              	.L92:
 437 00ac 079A     	 ldr r2,[sp,#28]
 438 00ae 1370     	 strb r3,[r2]
 386:C:/Workspace/DAVE-4.4.2-64Bit/optiga-trust-m/optiga/comms/ifx_i2c\ifx_i2c_data_link_layer.c ****                     break;
 439              	 .loc 1 386 0
 440 00b0 B2E7     	 b .L73
 441              	.L48:
 387:C:/Workspace/DAVE-4.4.2-64Bit/optiga-trust-m/optiga/comms/ifx_i2c\ifx_i2c_data_link_layer.c ****                 }
 388:C:/Workspace/DAVE-4.4.2-64Bit/optiga-trust-m/optiga/comms/ifx_i2c\ifx_i2c_data_link_layer.c ****                 // Check transmit frame sequence number
 389:C:/Workspace/DAVE-4.4.2-64Bit/optiga-trust-m/optiga/comms/ifx_i2c\ifx_i2c_data_link_layer.c ****                 fctr = p_data[0];
 442              	 .loc 1 389 0
 443 00b2 019B     	 ldr r3,[sp,#4]
 390:C:/Workspace/DAVE-4.4.2-64Bit/optiga-trust-m/optiga/comms/ifx_i2c\ifx_i2c_data_link_layer.c ****                 ftype = (fctr & DL_FCTR_FTYPE_MASK) >> DL_FCTR_FTYPE_OFFSET;
 391:C:/Workspace/DAVE-4.4.2-64Bit/optiga-trust-m/optiga/comms/ifx_i2c\ifx_i2c_data_link_layer.c ****                 seqctr = (fctr & DL_FCTR_SEQCTR_MASK) >> DL_FCTR_SEQCTR_OFFSET;
 392:C:/Workspace/DAVE-4.4.2-64Bit/optiga-trust-m/optiga/comms/ifx_i2c\ifx_i2c_data_link_layer.c ****                 ack_nr = (fctr & DL_FCTR_ACKNR_MASK) >> DL_FCTR_ACKNR_OFFSET;
 393:C:/Workspace/DAVE-4.4.2-64Bit/optiga-trust-m/optiga/comms/ifx_i2c\ifx_i2c_data_link_layer.c ****                 fr_nr = (fctr & DL_FCTR_FRNR_MASK) >> DL_FCTR_FRNR_OFFSET;
 394:C:/Workspace/DAVE-4.4.2-64Bit/optiga-trust-m/optiga/comms/ifx_i2c\ifx_i2c_data_link_layer.c ****                 packet_len = (p_data[1] << 8) | p_data[2];
 444              	 .loc 1 394 0
 445 00b4 019A     	 ldr r2,[sp,#4]
 389:C:/Workspace/DAVE-4.4.2-64Bit/optiga-trust-m/optiga/comms/ifx_i2c\ifx_i2c_data_link_layer.c ****                 ftype = (fctr & DL_FCTR_FTYPE_MASK) >> DL_FCTR_FTYPE_OFFSET;
 446              	 .loc 1 389 0
 447 00b6 1E78     	 ldrb r6,[r3]
 448              	.LVL46:
 449              	 .loc 1 394 0
 450 00b8 9278     	 ldrb r2,[r2,#2]
 391:C:/Workspace/DAVE-4.4.2-64Bit/optiga-trust-m/optiga/comms/ifx_i2c\ifx_i2c_data_link_layer.c ****                 ack_nr = (fctr & DL_FCTR_ACKNR_MASK) >> DL_FCTR_ACKNR_OFFSET;
 451              	 .loc 1 391 0
 452 00ba 7306     	 lsl r3,r6,#25
 453 00bc 9B0F     	 lsr r3,r3,#30
 454 00be 0293     	 str r3,[sp,#8]
 455              	.LVL47:
 392:C:/Workspace/DAVE-4.4.2-64Bit/optiga-trust-m/optiga/comms/ifx_i2c\ifx_i2c_data_link_layer.c ****                 fr_nr = (fctr & DL_FCTR_FRNR_MASK) >> DL_FCTR_FRNR_OFFSET;
 456              	 .loc 1 392 0
 457 00c0 0323     	 mov r3,#3
 458 00c2 3340     	 and r3,r6
 459 00c4 0693     	 str r3,[sp,#24]
 460              	.LVL48:
 393:C:/Workspace/DAVE-4.4.2-64Bit/optiga-trust-m/optiga/comms/ifx_i2c\ifx_i2c_data_link_layer.c ****                 packet_len = (p_data[1] << 8) | p_data[2];
 461              	 .loc 1 393 0
 462 00c6 3307     	 lsl r3,r6,#28
 463 00c8 9B0F     	 lsr r3,r3,#30
 464 00ca 0393     	 str r3,[sp,#12]
 465              	.LVL49:
 466              	 .loc 1 394 0
 467 00cc 019B     	 ldr r3,[sp,#4]
 395:C:/Workspace/DAVE-4.4.2-64Bit/optiga-trust-m/optiga/comms/ifx_i2c\ifx_i2c_data_link_layer.c **** 
 396:C:/Workspace/DAVE-4.4.2-64Bit/optiga-trust-m/optiga/comms/ifx_i2c\ifx_i2c_data_link_layer.c ****                 // Check frame CRC value
 397:C:/Workspace/DAVE-4.4.2-64Bit/optiga-trust-m/optiga/comms/ifx_i2c\ifx_i2c_data_link_layer.c ****                 crc_received = (p_data[data_len - 2] << 8) | p_data[data_len - 1];
 398:C:/Workspace/DAVE-4.4.2-64Bit/optiga-trust-m/optiga/comms/ifx_i2c\ifx_i2c_data_link_layer.c ****                 crc_calculated = ifx_i2c_dl_calc_crc(p_data, data_len - 2);
 468              	 .loc 1 398 0
 469 00ce 0198     	 ldr r0,[sp,#4]
 394:C:/Workspace/DAVE-4.4.2-64Bit/optiga-trust-m/optiga/comms/ifx_i2c\ifx_i2c_data_link_layer.c **** 
 470              	 .loc 1 394 0
 471 00d0 5B78     	 ldrb r3,[r3,#1]
 399:C:/Workspace/DAVE-4.4.2-64Bit/optiga-trust-m/optiga/comms/ifx_i2c\ifx_i2c_data_link_layer.c ****                 p_ctx->dl.state = (ftype == DL_FCTR_VALUE_CONTROL_FRAME) ? DL_STATE_RX_CF : DL_STAT
 472              	 .loc 1 399 0
 473 00d2 F609     	 lsr r6,r6,#7
 474              	.LVL50:
 394:C:/Workspace/DAVE-4.4.2-64Bit/optiga-trust-m/optiga/comms/ifx_i2c\ifx_i2c_data_link_layer.c **** 
 475              	 .loc 1 394 0
 476 00d4 1B02     	 lsl r3,r3,#8
 477 00d6 1A43     	 orr r2,r3
 478 00d8 0592     	 str r2,[sp,#20]
 479              	.LVL51:
 397:C:/Workspace/DAVE-4.4.2-64Bit/optiga-trust-m/optiga/comms/ifx_i2c\ifx_i2c_data_link_layer.c ****                 crc_calculated = ifx_i2c_dl_calc_crc(p_data, data_len - 2);
 480              	 .loc 1 397 0
 481 00da 019B     	 ldr r3,[sp,#4]
 482 00dc 009A     	 ldr r2,[sp]
 483              	 .loc 1 399 0
 484 00de 0A36     	 add r6,r6,#10
 397:C:/Workspace/DAVE-4.4.2-64Bit/optiga-trust-m/optiga/comms/ifx_i2c\ifx_i2c_data_link_layer.c ****                 crc_calculated = ifx_i2c_dl_calc_crc(p_data, data_len - 2);
 485              	 .loc 1 397 0
 486 00e0 9B18     	 add r3,r3,r2
 487 00e2 9A1E     	 sub r2,r3,#2
 488 00e4 1278     	 ldrb r2,[r2]
 489 00e6 013B     	 sub r3,r3,#1
 490 00e8 1B78     	 ldrb r3,[r3]
 491 00ea 1202     	 lsl r2,r2,#8
 492 00ec 1343     	 orr r3,r2
 493 00ee 1F1C     	 mov r7,r3
 494              	.LVL52:
 398:C:/Workspace/DAVE-4.4.2-64Bit/optiga-trust-m/optiga/comms/ifx_i2c\ifx_i2c_data_link_layer.c ****                 p_ctx->dl.state = (ftype == DL_FCTR_VALUE_CONTROL_FRAME) ? DL_STATE_RX_CF : DL_STAT
 495              	 .loc 1 398 0
 496 00f0 009B     	 ldr r3,[sp]
 497 00f2 991E     	 sub r1,r3,#2
 498 00f4 89B2     	 uxth r1,r1
 499 00f6 FFF7FEFF 	 bl ifx_i2c_dl_calc_crc
 500              	.LVL53:
 501              	 .loc 1 399 0
 502 00fa 079B     	 ldr r3,[sp,#28]
 398:C:/Workspace/DAVE-4.4.2-64Bit/optiga-trust-m/optiga/comms/ifx_i2c\ifx_i2c_data_link_layer.c ****                 p_ctx->dl.state = (ftype == DL_FCTR_VALUE_CONTROL_FRAME) ? DL_STATE_RX_CF : DL_STAT
 503              	 .loc 1 398 0
 504 00fc 051C     	 mov r5,r0
 505              	.LVL54:
 506              	 .loc 1 399 0
 507 00fe 1E70     	 strb r6,[r3]
 400:C:/Workspace/DAVE-4.4.2-64Bit/optiga-trust-m/optiga/comms/ifx_i2c\ifx_i2c_data_link_layer.c ****             }
 401:C:/Workspace/DAVE-4.4.2-64Bit/optiga-trust-m/optiga/comms/ifx_i2c\ifx_i2c_data_link_layer.c ****             break;
 508              	 .loc 1 401 0
 509 0100 8AE7     	 b .L73
 510              	.LVL55:
 511              	.L40:
 402:C:/Workspace/DAVE-4.4.2-64Bit/optiga-trust-m/optiga/comms/ifx_i2c\ifx_i2c_data_link_layer.c ****             case DL_STATE_RX_DF:
 403:C:/Workspace/DAVE-4.4.2-64Bit/optiga-trust-m/optiga/comms/ifx_i2c\ifx_i2c_data_link_layer.c ****             {
 404:C:/Workspace/DAVE-4.4.2-64Bit/optiga-trust-m/optiga/comms/ifx_i2c\ifx_i2c_data_link_layer.c ****                 LOG_DL("[IFX-DL]: Data Frame Received\n");
 405:C:/Workspace/DAVE-4.4.2-64Bit/optiga-trust-m/optiga/comms/ifx_i2c\ifx_i2c_data_link_layer.c ****                 if ((crc_received != crc_calculated) || (0 == packet_len) ||
 512              	 .loc 1 405 0
 513 0102 AF42     	 cmp r7,r5
 514 0104 0AD1     	 bne .L50
 515              	 .loc 1 405 0 is_stmt 0 discriminator 1
 516 0106 059B     	 ldr r3,[sp,#20]
 517 0108 002B     	 cmp r3,#0
 518 010a 07D0     	 beq .L50
 519              	 .loc 1 405 0 discriminator 2
 520 010c 009A     	 ldr r2,[sp]
 406:C:/Workspace/DAVE-4.4.2-64Bit/optiga-trust-m/optiga/comms/ifx_i2c\ifx_i2c_data_link_layer.c ****                     (data_len != (DL_HEADER_SIZE + packet_len)) || (DL_FCTR_SEQCTR_VALUE_RFU == seq
 521              	 .loc 1 406 0 is_stmt 1 discriminator 2
 522 010e 0533     	 add r3,r3,#5
 405:C:/Workspace/DAVE-4.4.2-64Bit/optiga-trust-m/optiga/comms/ifx_i2c\ifx_i2c_data_link_layer.c ****                     (data_len != (DL_HEADER_SIZE + packet_len)) || (DL_FCTR_SEQCTR_VALUE_RFU == seq
 523              	 .loc 1 405 0 discriminator 2
 524 0110 9A42     	 cmp r2,r3
 525 0112 03D1     	 bne .L50
 526              	 .loc 1 406 0 discriminator 1
 527 0114 029B     	 ldr r3,[sp,#8]
 528 0116 023B     	 sub r3,r3,#2
 529 0118 012B     	 cmp r3,#1
 530 011a 03D8     	 bhi .L51
 531              	.L50:
 407:C:/Workspace/DAVE-4.4.2-64Bit/optiga-trust-m/optiga/comms/ifx_i2c\ifx_i2c_data_link_layer.c ****                     (DL_FCTR_SEQCTR_VALUE_RESYNC == seqctr))
 408:C:/Workspace/DAVE-4.4.2-64Bit/optiga-trust-m/optiga/comms/ifx_i2c\ifx_i2c_data_link_layer.c ****                 {
 409:C:/Workspace/DAVE-4.4.2-64Bit/optiga-trust-m/optiga/comms/ifx_i2c\ifx_i2c_data_link_layer.c ****                     // CRC,Length of data frame is 0/ SEQCTR has RFU/Re-sync in Data frame
 410:C:/Workspace/DAVE-4.4.2-64Bit/optiga-trust-m/optiga/comms/ifx_i2c\ifx_i2c_data_link_layer.c ****                     LOG_DL("[IFX-DL]: NACK for CRC error,Data frame length is not correct,RFU in SE
 411:C:/Workspace/DAVE-4.4.2-64Bit/optiga-trust-m/optiga/comms/ifx_i2c\ifx_i2c_data_link_layer.c ****                     p_ctx->dl.state  = DL_STATE_NACK;
 532              	 .loc 1 411 0
 533 011c 231C     	 mov r3,r4
 534 011e 0622     	 mov r2,#6
 535 0120 6033     	 add r3,r3,#96
 536 0122 95E0     	 b .L94
 537              	.L51:
 412:C:/Workspace/DAVE-4.4.2-64Bit/optiga-trust-m/optiga/comms/ifx_i2c\ifx_i2c_data_link_layer.c ****                     break;
 413:C:/Workspace/DAVE-4.4.2-64Bit/optiga-trust-m/optiga/comms/ifx_i2c\ifx_i2c_data_link_layer.c ****                 }
 414:C:/Workspace/DAVE-4.4.2-64Bit/optiga-trust-m/optiga/comms/ifx_i2c\ifx_i2c_data_link_layer.c ****                 if (fr_nr != ((p_ctx->dl.rx_seq_nr + 1) & DL_MAX_FRAME_NUM))
 538              	 .loc 1 414 0
 539 0124 211C     	 mov r1,r4
 540 0126 0322     	 mov r2,#3
 541 0128 251C     	 mov r5,r4
 542              	.LVL56:
 543 012a 6231     	 add r1,r1,#98
 544 012c 0B78     	 ldrb r3,[r1]
 545 012e 6035     	 add r5,r5,#96
 546 0130 0133     	 add r3,r3,#1
 547 0132 1340     	 and r3,r2
 548 0134 039A     	 ldr r2,[sp,#12]
 549 0136 9A42     	 cmp r2,r3
 550 0138 02D0     	 beq .L52
 415:C:/Workspace/DAVE-4.4.2-64Bit/optiga-trust-m/optiga/comms/ifx_i2c\ifx_i2c_data_link_layer.c ****                 {
 416:C:/Workspace/DAVE-4.4.2-64Bit/optiga-trust-m/optiga/comms/ifx_i2c\ifx_i2c_data_link_layer.c ****                     LOG_DL("[IFX-DL]: Data frame number not expected\n");
 417:C:/Workspace/DAVE-4.4.2-64Bit/optiga-trust-m/optiga/comms/ifx_i2c\ifx_i2c_data_link_layer.c ****                     p_ctx->dl.state  = DL_STATE_DISCARD;
 551              	 .loc 1 417 0
 552 013a 0923     	 mov r3,#9
 553 013c 2B70     	 strb r3,[r5]
 554              	.LVL57:
 555 013e 32E0     	 b .L104
 556              	.LVL58:
 557              	.L52:
 418:C:/Workspace/DAVE-4.4.2-64Bit/optiga-trust-m/optiga/comms/ifx_i2c\ifx_i2c_data_link_layer.c ****                     continue_state_machine = FALSE;
 419:C:/Workspace/DAVE-4.4.2-64Bit/optiga-trust-m/optiga/comms/ifx_i2c\ifx_i2c_data_link_layer.c ****                     //lint --e{534} suppress "Error handling is not required so return value is not
 420:C:/Workspace/DAVE-4.4.2-64Bit/optiga-trust-m/optiga/comms/ifx_i2c\ifx_i2c_data_link_layer.c ****                     ifx_i2c_dl_send_frame_internal(p_ctx, 0, DL_FCTR_SEQCTR_VALUE_ACK, 0);
 421:C:/Workspace/DAVE-4.4.2-64Bit/optiga-trust-m/optiga/comms/ifx_i2c\ifx_i2c_data_link_layer.c ****                     break;
 422:C:/Workspace/DAVE-4.4.2-64Bit/optiga-trust-m/optiga/comms/ifx_i2c\ifx_i2c_data_link_layer.c ****                 }
 423:C:/Workspace/DAVE-4.4.2-64Bit/optiga-trust-m/optiga/comms/ifx_i2c\ifx_i2c_data_link_layer.c ****                 if (ack_nr != p_ctx->dl.tx_seq_nr)
 558              	 .loc 1 423 0
 559 0140 231C     	 mov r3,r4
 560 0142 6133     	 add r3,r3,#97
 561 0144 1B78     	 ldrb r3,[r3]
 562 0146 069A     	 ldr r2,[sp,#24]
 563 0148 9342     	 cmp r3,r2
 564 014a 01D0     	 beq .L53
 424:C:/Workspace/DAVE-4.4.2-64Bit/optiga-trust-m/optiga/comms/ifx_i2c\ifx_i2c_data_link_layer.c ****                 {
 425:C:/Workspace/DAVE-4.4.2-64Bit/optiga-trust-m/optiga/comms/ifx_i2c\ifx_i2c_data_link_layer.c ****                     // ack number error
 426:C:/Workspace/DAVE-4.4.2-64Bit/optiga-trust-m/optiga/comms/ifx_i2c\ifx_i2c_data_link_layer.c ****                     LOG_DL("[IFX-DL]: Error in ack number\n");
 427:C:/Workspace/DAVE-4.4.2-64Bit/optiga-trust-m/optiga/comms/ifx_i2c\ifx_i2c_data_link_layer.c ****                     //lint --e{534} suppress "Error handling is not required so return value is not
 428:C:/Workspace/DAVE-4.4.2-64Bit/optiga-trust-m/optiga/comms/ifx_i2c\ifx_i2c_data_link_layer.c ****                     p_ctx->dl.state = DL_STATE_DISCARD;
 565              	 .loc 1 428 0
 566 014c 0923     	 mov r3,#9
 567 014e 03E0     	 b .L97
 568              	.L53:
 429:C:/Workspace/DAVE-4.4.2-64Bit/optiga-trust-m/optiga/comms/ifx_i2c\ifx_i2c_data_link_layer.c ****                     break;
 430:C:/Workspace/DAVE-4.4.2-64Bit/optiga-trust-m/optiga/comms/ifx_i2c\ifx_i2c_data_link_layer.c ****                 }
 431:C:/Workspace/DAVE-4.4.2-64Bit/optiga-trust-m/optiga/comms/ifx_i2c\ifx_i2c_data_link_layer.c ****                 if (DL_FCTR_SEQCTR_VALUE_NACK == seqctr)
 569              	 .loc 1 431 0
 570 0150 029B     	 ldr r3,[sp,#8]
 571 0152 012B     	 cmp r3,#1
 572 0154 02D1     	 bne .L54
 432:C:/Workspace/DAVE-4.4.2-64Bit/optiga-trust-m/optiga/comms/ifx_i2c\ifx_i2c_data_link_layer.c ****                 {
 433:C:/Workspace/DAVE-4.4.2-64Bit/optiga-trust-m/optiga/comms/ifx_i2c\ifx_i2c_data_link_layer.c ****                     // NACK for transmitted frame
 434:C:/Workspace/DAVE-4.4.2-64Bit/optiga-trust-m/optiga/comms/ifx_i2c\ifx_i2c_data_link_layer.c ****                     LOG_DL("[IFX-DL]: NACK received in data frame\n");
 435:C:/Workspace/DAVE-4.4.2-64Bit/optiga-trust-m/optiga/comms/ifx_i2c\ifx_i2c_data_link_layer.c ****                     p_ctx->dl.state = DL_STATE_RESEND;
 573              	 .loc 1 435 0
 574 0156 0433     	 add r3,r3,#4
 575              	.L97:
 576 0158 2B70     	 strb r3,[r5]
 577 015a 60E0     	 b .L95
 578              	.L54:
 436:C:/Workspace/DAVE-4.4.2-64Bit/optiga-trust-m/optiga/comms/ifx_i2c\ifx_i2c_data_link_layer.c ****                     break;
 437:C:/Workspace/DAVE-4.4.2-64Bit/optiga-trust-m/optiga/comms/ifx_i2c\ifx_i2c_data_link_layer.c ****                 }
 438:C:/Workspace/DAVE-4.4.2-64Bit/optiga-trust-m/optiga/comms/ifx_i2c\ifx_i2c_data_link_layer.c ****                 p_ctx->dl.rx_seq_nr = (p_ctx->dl.rx_seq_nr + 1) & DL_MAX_FRAME_NUM;
 579              	 .loc 1 438 0
 580 015c 6B46     	 mov r3,sp
 581 015e 1B7B     	 ldrb r3,[r3,#12]
 439:C:/Workspace/DAVE-4.4.2-64Bit/optiga-trust-m/optiga/comms/ifx_i2c\ifx_i2c_data_link_layer.c ****                 memcpy(p_ctx->dl.p_rx_frame_buffer, p_data, data_len);
 582              	 .loc 1 439 0
 583 0160 009A     	 ldr r2,[sp]
 438:C:/Workspace/DAVE-4.4.2-64Bit/optiga-trust-m/optiga/comms/ifx_i2c\ifx_i2c_data_link_layer.c ****                 memcpy(p_ctx->dl.p_rx_frame_buffer, p_data, data_len);
 584              	 .loc 1 438 0
 585 0162 0B70     	 strb r3,[r1]
 586              	 .loc 1 439 0
 587 0164 606F     	 ldr r0,[r4,#116]
 588 0166 0199     	 ldr r1,[sp,#4]
 589 0168 FFF7FEFF 	 bl memcpy
 590              	.LVL59:
 440:C:/Workspace/DAVE-4.4.2-64Bit/optiga-trust-m/optiga/comms/ifx_i2c\ifx_i2c_data_link_layer.c ****                 p_ctx->dl.rx_buffer_size = data_len;
 591              	 .loc 1 440 0
 592 016c 6A46     	 mov r2,sp
 593 016e 231C     	 mov r3,r4
 594 0170 1288     	 ldrh r2,[r2]
 595 0172 6E33     	 add r3,r3,#110
 596 0174 1A80     	 strh r2,[r3]
 441:C:/Workspace/DAVE-4.4.2-64Bit/optiga-trust-m/optiga/comms/ifx_i2c\ifx_i2c_data_link_layer.c **** 
 442:C:/Workspace/DAVE-4.4.2-64Bit/optiga-trust-m/optiga/comms/ifx_i2c\ifx_i2c_data_link_layer.c ****                 // Send control frame to acknowledge reception of this data frame
 443:C:/Workspace/DAVE-4.4.2-64Bit/optiga-trust-m/optiga/comms/ifx_i2c\ifx_i2c_data_link_layer.c ****                 LOG_DL("[IFX-DL]: Read Data Frame -> Send ACK\n");
 444:C:/Workspace/DAVE-4.4.2-64Bit/optiga-trust-m/optiga/comms/ifx_i2c\ifx_i2c_data_link_layer.c ****                 p_ctx->dl.retransmit_counter = 0;
 597              	 .loc 1 444 0
 598 0176 0022     	 mov r2,#0
 599 0178 0A3B     	 sub r3,r3,#10
 600 017a 1A70     	 strb r2,[r3]
 445:C:/Workspace/DAVE-4.4.2-64Bit/optiga-trust-m/optiga/comms/ifx_i2c\ifx_i2c_data_link_layer.c ****                 p_ctx->dl.state = DL_STATE_ACK;
 601              	 .loc 1 445 0
 602 017c 0423     	 mov r3,#4
 446:C:/Workspace/DAVE-4.4.2-64Bit/optiga-trust-m/optiga/comms/ifx_i2c\ifx_i2c_data_link_layer.c ****                 continue_state_machine = FALSE;
 447:C:/Workspace/DAVE-4.4.2-64Bit/optiga-trust-m/optiga/comms/ifx_i2c\ifx_i2c_data_link_layer.c **** 
 448:C:/Workspace/DAVE-4.4.2-64Bit/optiga-trust-m/optiga/comms/ifx_i2c\ifx_i2c_data_link_layer.c ****                 OPTIGA_COMMS_LOG_MESSAGE("<<<<");\
 603              	 .loc 1 448 0
 604 017e 7648     	 ldr r0,.L105
 445:C:/Workspace/DAVE-4.4.2-64Bit/optiga-trust-m/optiga/comms/ifx_i2c\ifx_i2c_data_link_layer.c ****                 p_ctx->dl.state = DL_STATE_ACK;
 605              	 .loc 1 445 0
 606 0180 2B70     	 strb r3,[r5]
 607              	.LVL60:
 608              	 .loc 1 448 0
 609 0182 7649     	 ldr r1,.L105+4
 610 0184 764A     	 ldr r2,.L105+8
 611 0186 FFF7FEFF 	 bl optiga_lib_print_message
 612              	.LVL61:
 449:C:/Workspace/DAVE-4.4.2-64Bit/optiga-trust-m/optiga/comms/ifx_i2c\ifx_i2c_data_link_layer.c ****                 OPTIGA_IFXI2C_LOG_RECEIVE_HEX_DATA(p_data,data_len,p_ctx);
 613              	 .loc 1 449 0
 614 018a 231C     	 mov r3,r4
 615 018c 3033     	 add r3,r3,#48
 616 018e 1A78     	 ldrb r2,[r3]
 617 0190 0F23     	 mov r3,#15
 618 0192 1340     	 and r3,r2
 619 0194 023B     	 sub r3,r3,#2
 620 0196 0198     	 ldr r0,[sp,#4]
 621 0198 0099     	 ldr r1,[sp]
 622 019a 724A     	 ldr r2,.L105+12
 623 019c 012B     	 cmp r3,#1
 624 019e 00D9     	 bls .L96
 625              	 .loc 1 449 0 is_stmt 0 discriminator 2
 626 01a0 714A     	 ldr r2,.L105+16
 627              	.L96:
 628 01a2 FFF7FEFF 	 bl optiga_lib_print_array_hex_format
 629              	.LVL62:
 630              	.L104:
 450:C:/Workspace/DAVE-4.4.2-64Bit/optiga-trust-m/optiga/comms/ifx_i2c\ifx_i2c_data_link_layer.c ****                 //lint --e{534} suppress "Error handling is not required so return value is not che
 451:C:/Workspace/DAVE-4.4.2-64Bit/optiga-trust-m/optiga/comms/ifx_i2c\ifx_i2c_data_link_layer.c ****                 ifx_i2c_dl_send_frame_internal(p_ctx, 0, DL_FCTR_SEQCTR_VALUE_ACK, 0);
 631              	 .loc 1 451 0 is_stmt 1 discriminator 2
 632 01a6 0021     	 mov r1,#0
 633 01a8 201C     	 mov r0,r4
 634 01aa 0A1C     	 mov r2,r1
 635 01ac 0B1C     	 mov r3,r1
 636 01ae 6AE0     	 b .L102
 637              	.LVL63:
 638              	.L41:
 452:C:/Workspace/DAVE-4.4.2-64Bit/optiga-trust-m/optiga/comms/ifx_i2c\ifx_i2c_data_link_layer.c ****             }
 453:C:/Workspace/DAVE-4.4.2-64Bit/optiga-trust-m/optiga/comms/ifx_i2c\ifx_i2c_data_link_layer.c ****             break;
 454:C:/Workspace/DAVE-4.4.2-64Bit/optiga-trust-m/optiga/comms/ifx_i2c\ifx_i2c_data_link_layer.c ****             case DL_STATE_RX_CF:
 455:C:/Workspace/DAVE-4.4.2-64Bit/optiga-trust-m/optiga/comms/ifx_i2c\ifx_i2c_data_link_layer.c ****             {
 456:C:/Workspace/DAVE-4.4.2-64Bit/optiga-trust-m/optiga/comms/ifx_i2c\ifx_i2c_data_link_layer.c ****                 LOG_DL("[IFX-DL]: Control Frame Received\n");
 457:C:/Workspace/DAVE-4.4.2-64Bit/optiga-trust-m/optiga/comms/ifx_i2c\ifx_i2c_data_link_layer.c ****                 // Except Re-Sync, Discard Control frame when in receiver mode
 458:C:/Workspace/DAVE-4.4.2-64Bit/optiga-trust-m/optiga/comms/ifx_i2c\ifx_i2c_data_link_layer.c ****                 // Discard Re-Sync in transmission mode
 459:C:/Workspace/DAVE-4.4.2-64Bit/optiga-trust-m/optiga/comms/ifx_i2c\ifx_i2c_data_link_layer.c ****                 //lint --e{514} suppress "Refer the above comment for the explaination of this chec
 460:C:/Workspace/DAVE-4.4.2-64Bit/optiga-trust-m/optiga/comms/ifx_i2c\ifx_i2c_data_link_layer.c ****                 if ((p_ctx->dl.action_rx_only) ^ (DL_FCTR_SEQCTR_VALUE_RESYNC == seqctr))
 639              	 .loc 1 460 0
 640 01b0 029B     	 ldr r3,[sp,#8]
 641 01b2 9A1E     	 sub r2,r3,#2
 642 01b4 5042     	 neg r0,r2
 643 01b6 5041     	 adc r0,r0,r2
 644 01b8 231C     	 mov r3,r4
 645 01ba 6333     	 add r3,r3,#99
 646 01bc 1978     	 ldrb r1,[r3]
 461:C:/Workspace/DAVE-4.4.2-64Bit/optiga-trust-m/optiga/comms/ifx_i2c\ifx_i2c_data_link_layer.c ****                 {
 462:C:/Workspace/DAVE-4.4.2-64Bit/optiga-trust-m/optiga/comms/ifx_i2c\ifx_i2c_data_link_layer.c ****                     //If control frame already received for data frame, ignore any received control
 463:C:/Workspace/DAVE-4.4.2-64Bit/optiga-trust-m/optiga/comms/ifx_i2c\ifx_i2c_data_link_layer.c ****                     LOG_DL("[IFX-DL]: CF in receiver mode,Discard\n");
 464:C:/Workspace/DAVE-4.4.2-64Bit/optiga-trust-m/optiga/comms/ifx_i2c\ifx_i2c_data_link_layer.c ****                     p_ctx->dl.state = DL_STATE_DISCARD;
 647              	 .loc 1 464 0
 648 01be 0922     	 mov r2,#9
 649 01c0 033B     	 sub r3,r3,#3
 460:C:/Workspace/DAVE-4.4.2-64Bit/optiga-trust-m/optiga/comms/ifx_i2c\ifx_i2c_data_link_layer.c ****                 {
 650              	 .loc 1 460 0
 651 01c2 8142     	 cmp r1,r0
 652 01c4 44D1     	 bne .L94
 465:C:/Workspace/DAVE-4.4.2-64Bit/optiga-trust-m/optiga/comms/ifx_i2c\ifx_i2c_data_link_layer.c ****                     break;
 466:C:/Workspace/DAVE-4.4.2-64Bit/optiga-trust-m/optiga/comms/ifx_i2c\ifx_i2c_data_link_layer.c ****                 }
 467:C:/Workspace/DAVE-4.4.2-64Bit/optiga-trust-m/optiga/comms/ifx_i2c\ifx_i2c_data_link_layer.c ****                 if (crc_received != crc_calculated)
 468:C:/Workspace/DAVE-4.4.2-64Bit/optiga-trust-m/optiga/comms/ifx_i2c\ifx_i2c_data_link_layer.c ****                 {
 469:C:/Workspace/DAVE-4.4.2-64Bit/optiga-trust-m/optiga/comms/ifx_i2c\ifx_i2c_data_link_layer.c ****                     // Re-Transmit frame in case of CF CRC error
 470:C:/Workspace/DAVE-4.4.2-64Bit/optiga-trust-m/optiga/comms/ifx_i2c\ifx_i2c_data_link_layer.c ****                     LOG_DL("[IFX-DL]: Retransmit frame for CF CRC error\n");
 471:C:/Workspace/DAVE-4.4.2-64Bit/optiga-trust-m/optiga/comms/ifx_i2c\ifx_i2c_data_link_layer.c ****                     p_ctx->dl.state = DL_STATE_RESEND;
 653              	 .loc 1 471 0
 654 01c6 0522     	 mov r2,#5
 467:C:/Workspace/DAVE-4.4.2-64Bit/optiga-trust-m/optiga/comms/ifx_i2c\ifx_i2c_data_link_layer.c ****                 {
 655              	 .loc 1 467 0
 656 01c8 AF42     	 cmp r7,r5
 657 01ca 41D1     	 bne .L94
 472:C:/Workspace/DAVE-4.4.2-64Bit/optiga-trust-m/optiga/comms/ifx_i2c\ifx_i2c_data_link_layer.c ****                     break;
 473:C:/Workspace/DAVE-4.4.2-64Bit/optiga-trust-m/optiga/comms/ifx_i2c\ifx_i2c_data_link_layer.c ****                 }
 474:C:/Workspace/DAVE-4.4.2-64Bit/optiga-trust-m/optiga/comms/ifx_i2c\ifx_i2c_data_link_layer.c ****                 if ((data_len > DL_CONTROL_FRAME_LENGTH) || (0 != packet_len))
 658              	 .loc 1 474 0
 659 01cc 009A     	 ldr r2,[sp]
 660 01ce 052A     	 cmp r2,#5
 661 01d0 1ED8     	 bhi .L62
 662              	 .loc 1 474 0 is_stmt 0 discriminator 1
 663 01d2 059A     	 ldr r2,[sp,#20]
 664 01d4 002A     	 cmp r2,#0
 665 01d6 1BD1     	 bne .L62
 475:C:/Workspace/DAVE-4.4.2-64Bit/optiga-trust-m/optiga/comms/ifx_i2c\ifx_i2c_data_link_layer.c ****                 {
 476:C:/Workspace/DAVE-4.4.2-64Bit/optiga-trust-m/optiga/comms/ifx_i2c\ifx_i2c_data_link_layer.c ****                     // Control frame is more than 5/Control frame with non-zero FRNR/packet len is 
 477:C:/Workspace/DAVE-4.4.2-64Bit/optiga-trust-m/optiga/comms/ifx_i2c\ifx_i2c_data_link_layer.c ****                     LOG_DL("[IFX-DL]: Errors in control frame\n");
 478:C:/Workspace/DAVE-4.4.2-64Bit/optiga-trust-m/optiga/comms/ifx_i2c\ifx_i2c_data_link_layer.c ****                     p_ctx->dl.state = DL_STATE_DISCARD;
 479:C:/Workspace/DAVE-4.4.2-64Bit/optiga-trust-m/optiga/comms/ifx_i2c\ifx_i2c_data_link_layer.c ****                     break;
 480:C:/Workspace/DAVE-4.4.2-64Bit/optiga-trust-m/optiga/comms/ifx_i2c\ifx_i2c_data_link_layer.c ****                 }
 481:C:/Workspace/DAVE-4.4.2-64Bit/optiga-trust-m/optiga/comms/ifx_i2c\ifx_i2c_data_link_layer.c ****                 if (DL_FCTR_SEQCTR_VALUE_RESYNC == seqctr)
 666              	 .loc 1 481 0 is_stmt 1
 667 01d8 0029     	 cmp r1,#0
 668 01da 0DD0     	 beq .L61
 482:C:/Workspace/DAVE-4.4.2-64Bit/optiga-trust-m/optiga/comms/ifx_i2c\ifx_i2c_data_link_layer.c ****                 {    // Re-sync received
 483:C:/Workspace/DAVE-4.4.2-64Bit/optiga-trust-m/optiga/comms/ifx_i2c\ifx_i2c_data_link_layer.c ****                     LOG_DL("[IFX-DL]: Re-Sync received\n");
 484:C:/Workspace/DAVE-4.4.2-64Bit/optiga-trust-m/optiga/comms/ifx_i2c\ifx_i2c_data_link_layer.c ****                     p_ctx->dl.state = DL_STATE_DISCARD;
 669              	 .loc 1 484 0
 670 01dc 0922     	 mov r2,#9
 671 01de 1A70     	 strb r2,[r3]
 485:C:/Workspace/DAVE-4.4.2-64Bit/optiga-trust-m/optiga/comms/ifx_i2c\ifx_i2c_data_link_layer.c ****                     p_ctx->dl.resynced = 1;
 672              	 .loc 1 485 0
 673 01e0 231C     	 mov r3,r4
 674 01e2 083A     	 sub r2,r2,#8
 675 01e4 6633     	 add r3,r3,#102
 676 01e6 1A70     	 strb r2,[r3]
 486:C:/Workspace/DAVE-4.4.2-64Bit/optiga-trust-m/optiga/comms/ifx_i2c\ifx_i2c_data_link_layer.c ****                     p_ctx->dl.tx_seq_nr = DL_MAX_FRAME_NUM;
 677              	 .loc 1 486 0
 678 01e8 053B     	 sub r3,r3,#5
 679 01ea 0232     	 add r2,r2,#2
 680 01ec 1A70     	 strb r2,[r3]
 487:C:/Workspace/DAVE-4.4.2-64Bit/optiga-trust-m/optiga/comms/ifx_i2c\ifx_i2c_data_link_layer.c ****                     p_ctx->dl.rx_seq_nr = DL_MAX_FRAME_NUM;
 681              	 .loc 1 487 0
 682 01ee 5A70     	 strb r2,[r3,#1]
 488:C:/Workspace/DAVE-4.4.2-64Bit/optiga-trust-m/optiga/comms/ifx_i2c\ifx_i2c_data_link_layer.c ****                     break;
 683              	 .loc 1 488 0
 684 01f0 0223     	 mov r3,#2
 685 01f2 3D1C     	 mov r5,r7
 686              	.LVL64:
 687 01f4 0293     	 str r3,[sp,#8]
 688              	.LVL65:
 689 01f6 0FE7     	 b .L73
 690              	.LVL66:
 691              	.L61:
 489:C:/Workspace/DAVE-4.4.2-64Bit/optiga-trust-m/optiga/comms/ifx_i2c\ifx_i2c_data_link_layer.c ****                 }
 490:C:/Workspace/DAVE-4.4.2-64Bit/optiga-trust-m/optiga/comms/ifx_i2c\ifx_i2c_data_link_layer.c ****                 if ((0 != fr_nr) || (DL_FCTR_SEQCTR_VALUE_RFU == seqctr) || (ack_nr != p_ctx->dl.tx
 692              	 .loc 1 490 0
 693 01f8 039A     	 ldr r2,[sp,#12]
 694 01fa 002A     	 cmp r2,#0
 695 01fc 08D1     	 bne .L62
 696              	 .loc 1 490 0 is_stmt 0 discriminator 1
 697 01fe 029A     	 ldr r2,[sp,#8]
 698 0200 032A     	 cmp r2,#3
 699 0202 05D0     	 beq .L62
 700              	 .loc 1 490 0 discriminator 2
 701 0204 221C     	 mov r2,r4
 702 0206 6132     	 add r2,r2,#97
 703 0208 1278     	 ldrb r2,[r2]
 704 020a 0699     	 ldr r1,[sp,#24]
 705 020c 8A42     	 cmp r2,r1
 706 020e 01D0     	 beq .L63
 707              	.L62:
 491:C:/Workspace/DAVE-4.4.2-64Bit/optiga-trust-m/optiga/comms/ifx_i2c\ifx_i2c_data_link_layer.c ****                 {
 492:C:/Workspace/DAVE-4.4.2-64Bit/optiga-trust-m/optiga/comms/ifx_i2c\ifx_i2c_data_link_layer.c ****                     // Control frame with non-zero FRNR/ ACK not received/ ack number != tx number
 493:C:/Workspace/DAVE-4.4.2-64Bit/optiga-trust-m/optiga/comms/ifx_i2c\ifx_i2c_data_link_layer.c ****                     LOG_DL("[IFX-DL]: Errors in control frame\n");
 494:C:/Workspace/DAVE-4.4.2-64Bit/optiga-trust-m/optiga/comms/ifx_i2c\ifx_i2c_data_link_layer.c ****                     p_ctx->dl.state = DL_STATE_DISCARD;
 708              	 .loc 1 494 0 is_stmt 1
 709 0210 0922     	 mov r2,#9
 710 0212 03E0     	 b .L93
 711              	.L63:
 495:C:/Workspace/DAVE-4.4.2-64Bit/optiga-trust-m/optiga/comms/ifx_i2c\ifx_i2c_data_link_layer.c ****                     break;
 496:C:/Workspace/DAVE-4.4.2-64Bit/optiga-trust-m/optiga/comms/ifx_i2c\ifx_i2c_data_link_layer.c ****                 }
 497:C:/Workspace/DAVE-4.4.2-64Bit/optiga-trust-m/optiga/comms/ifx_i2c\ifx_i2c_data_link_layer.c ****                 if (DL_FCTR_SEQCTR_VALUE_NACK == seqctr)
 712              	 .loc 1 497 0
 713 0214 029A     	 ldr r2,[sp,#8]
 714 0216 012A     	 cmp r2,#1
 715 0218 03D1     	 bne .L64
 498:C:/Workspace/DAVE-4.4.2-64Bit/optiga-trust-m/optiga/comms/ifx_i2c\ifx_i2c_data_link_layer.c ****                 {
 499:C:/Workspace/DAVE-4.4.2-64Bit/optiga-trust-m/optiga/comms/ifx_i2c\ifx_i2c_data_link_layer.c ****                     // NACK for transmitted frame
 500:C:/Workspace/DAVE-4.4.2-64Bit/optiga-trust-m/optiga/comms/ifx_i2c\ifx_i2c_data_link_layer.c ****                     LOG_DL("[IFX-DL]: NACK received\n");
 501:C:/Workspace/DAVE-4.4.2-64Bit/optiga-trust-m/optiga/comms/ifx_i2c\ifx_i2c_data_link_layer.c ****                     p_ctx->dl.state = DL_STATE_RESEND;
 716              	 .loc 1 501 0
 717 021a 0432     	 add r2,r2,#4
 718              	.L93:
 719 021c 1A70     	 strb r2,[r3]
 720              	.LVL67:
 721              	.L95:
 502:C:/Workspace/DAVE-4.4.2-64Bit/optiga-trust-m/optiga/comms/ifx_i2c\ifx_i2c_data_link_layer.c ****                     break;
 722              	 .loc 1 502 0
 723 021e 3D1C     	 mov r5,r7
 724 0220 FAE6     	 b .L73
 725              	.LVL68:
 726              	.L64:
 503:C:/Workspace/DAVE-4.4.2-64Bit/optiga-trust-m/optiga/comms/ifx_i2c\ifx_i2c_data_link_layer.c ****                 }
 504:C:/Workspace/DAVE-4.4.2-64Bit/optiga-trust-m/optiga/comms/ifx_i2c\ifx_i2c_data_link_layer.c **** 
 505:C:/Workspace/DAVE-4.4.2-64Bit/optiga-trust-m/optiga/comms/ifx_i2c\ifx_i2c_data_link_layer.c ****                 LOG_DL("[IFX-DL]: ACK received\n");
 506:C:/Workspace/DAVE-4.4.2-64Bit/optiga-trust-m/optiga/comms/ifx_i2c\ifx_i2c_data_link_layer.c ****                 // Report frame reception to upper layer and go in idle state
 507:C:/Workspace/DAVE-4.4.2-64Bit/optiga-trust-m/optiga/comms/ifx_i2c\ifx_i2c_data_link_layer.c ****                 p_ctx->dl.state = DL_STATE_IDLE;
 727              	 .loc 1 507 0
 728 0222 0122     	 mov r2,#1
 508:C:/Workspace/DAVE-4.4.2-64Bit/optiga-trust-m/optiga/comms/ifx_i2c\ifx_i2c_data_link_layer.c ****                 continue_state_machine = FALSE;
 509:C:/Workspace/DAVE-4.4.2-64Bit/optiga-trust-m/optiga/comms/ifx_i2c\ifx_i2c_data_link_layer.c ****                 p_ctx->dl.upper_layer_event_handler(p_ctx, IFX_I2C_DL_EVENT_TX_SUCCESS, 0, 0);
 729              	 .loc 1 509 0
 730 0224 E56F     	 ldr r5,[r4,#124]
 731              	.LVL69:
 507:C:/Workspace/DAVE-4.4.2-64Bit/optiga-trust-m/optiga/comms/ifx_i2c\ifx_i2c_data_link_layer.c ****                 continue_state_machine = FALSE;
 732              	 .loc 1 507 0
 733 0226 1A70     	 strb r2,[r3]
 734              	.LVL70:
 735              	 .loc 1 509 0
 736 0228 201C     	 mov r0,r4
 737 022a 0221     	 mov r1,#2
 738 022c 039A     	 ldr r2,[sp,#12]
 739 022e 8EE0     	 b .L103
 740              	.LVL71:
 741              	.L39:
 510:C:/Workspace/DAVE-4.4.2-64Bit/optiga-trust-m/optiga/comms/ifx_i2c\ifx_i2c_data_link_layer.c ****             }
 511:C:/Workspace/DAVE-4.4.2-64Bit/optiga-trust-m/optiga/comms/ifx_i2c\ifx_i2c_data_link_layer.c ****             break;
 512:C:/Workspace/DAVE-4.4.2-64Bit/optiga-trust-m/optiga/comms/ifx_i2c\ifx_i2c_data_link_layer.c ****             case DL_STATE_DISCARD:
 513:C:/Workspace/DAVE-4.4.2-64Bit/optiga-trust-m/optiga/comms/ifx_i2c\ifx_i2c_data_link_layer.c ****             {
 514:C:/Workspace/DAVE-4.4.2-64Bit/optiga-trust-m/optiga/comms/ifx_i2c\ifx_i2c_data_link_layer.c ****                 LOG_DL("[IFX-DL]: Discard frame\n");
 515:C:/Workspace/DAVE-4.4.2-64Bit/optiga-trust-m/optiga/comms/ifx_i2c\ifx_i2c_data_link_layer.c ****                 p_ctx->dl.state = DL_STATE_RX;
 742              	 .loc 1 515 0
 743 0230 231C     	 mov r3,r4
 744 0232 0322     	 mov r2,#3
 745 0234 6033     	 add r3,r3,#96
 746 0236 1A70     	 strb r2,[r3]
 747              	.LVL72:
 516:C:/Workspace/DAVE-4.4.2-64Bit/optiga-trust-m/optiga/comms/ifx_i2c\ifx_i2c_data_link_layer.c ****                 continue_state_machine = FALSE;
 517:C:/Workspace/DAVE-4.4.2-64Bit/optiga-trust-m/optiga/comms/ifx_i2c\ifx_i2c_data_link_layer.c ****                 //lint --e{534} suppress "Error handling is not required so return value is not che
 518:C:/Workspace/DAVE-4.4.2-64Bit/optiga-trust-m/optiga/comms/ifx_i2c\ifx_i2c_data_link_layer.c ****                 ifx_i2c_pl_receive_frame(p_ctx);
 748              	 .loc 1 518 0
 749 0238 201C     	 mov r0,r4
 750 023a FFF7FEFF 	 bl ifx_i2c_pl_receive_frame
 751              	.LVL73:
 519:C:/Workspace/DAVE-4.4.2-64Bit/optiga-trust-m/optiga/comms/ifx_i2c\ifx_i2c_data_link_layer.c ****             }
 520:C:/Workspace/DAVE-4.4.2-64Bit/optiga-trust-m/optiga/comms/ifx_i2c\ifx_i2c_data_link_layer.c ****             break;
 752              	 .loc 1 520 0
 753 023e 88E0     	 b .L28
 754              	.LVL74:
 755              	.L35:
 756 0240 231C     	 mov r3,r4
 521:C:/Workspace/DAVE-4.4.2-64Bit/optiga-trust-m/optiga/comms/ifx_i2c\ifx_i2c_data_link_layer.c ****             case DL_STATE_ACK:
 522:C:/Workspace/DAVE-4.4.2-64Bit/optiga-trust-m/optiga/comms/ifx_i2c\ifx_i2c_data_link_layer.c ****             {
 523:C:/Workspace/DAVE-4.4.2-64Bit/optiga-trust-m/optiga/comms/ifx_i2c\ifx_i2c_data_link_layer.c ****                 LOG_DL("[IFX-DL]: ACK sent\n");
 524:C:/Workspace/DAVE-4.4.2-64Bit/optiga-trust-m/optiga/comms/ifx_i2c\ifx_i2c_data_link_layer.c ****                 if (IFX_I2C_STACK_ERROR == event)
 757              	 .loc 1 524 0
 758 0242 8122     	 mov r2,#129
 759 0244 0499     	 ldr r1,[sp,#16]
 760 0246 6033     	 add r3,r3,#96
 761 0248 5200     	 lsl r2,r2,#1
 762 024a 9142     	 cmp r1,r2
 763 024c 02D1     	 bne .L65
 525:C:/Workspace/DAVE-4.4.2-64Bit/optiga-trust-m/optiga/comms/ifx_i2c\ifx_i2c_data_link_layer.c ****                 {
 526:C:/Workspace/DAVE-4.4.2-64Bit/optiga-trust-m/optiga/comms/ifx_i2c\ifx_i2c_data_link_layer.c ****                     // If writing the ACK frame failed, Re-Send
 527:C:/Workspace/DAVE-4.4.2-64Bit/optiga-trust-m/optiga/comms/ifx_i2c\ifx_i2c_data_link_layer.c ****                     LOG_DL("[IFX-DL]: Physical Layer error -> Resend ACK\n");
 528:C:/Workspace/DAVE-4.4.2-64Bit/optiga-trust-m/optiga/comms/ifx_i2c\ifx_i2c_data_link_layer.c ****                     p_ctx->dl.state = DL_STATE_RESEND;
 764              	 .loc 1 528 0
 765 024e FD3A     	 sub r2,r2,#253
 766              	.L94:
 767 0250 1A70     	 strb r2,[r3]
 529:C:/Workspace/DAVE-4.4.2-64Bit/optiga-trust-m/optiga/comms/ifx_i2c\ifx_i2c_data_link_layer.c ****                     break;
 768              	 .loc 1 529 0
 769 0252 E1E6     	 b .L73
 770              	.L65:
 530:C:/Workspace/DAVE-4.4.2-64Bit/optiga-trust-m/optiga/comms/ifx_i2c\ifx_i2c_data_link_layer.c ****                 }
 531:C:/Workspace/DAVE-4.4.2-64Bit/optiga-trust-m/optiga/comms/ifx_i2c\ifx_i2c_data_link_layer.c ****                 // Control frame successful transmitted
 532:C:/Workspace/DAVE-4.4.2-64Bit/optiga-trust-m/optiga/comms/ifx_i2c\ifx_i2c_data_link_layer.c ****                 p_ctx->dl.state = DL_STATE_IDLE;
 771              	 .loc 1 532 0
 772 0254 0122     	 mov r2,#1
 773 0256 1A70     	 strb r2,[r3]
 774              	.LVL75:
 533:C:/Workspace/DAVE-4.4.2-64Bit/optiga-trust-m/optiga/comms/ifx_i2c\ifx_i2c_data_link_layer.c ****                 continue_state_machine = FALSE;
 534:C:/Workspace/DAVE-4.4.2-64Bit/optiga-trust-m/optiga/comms/ifx_i2c\ifx_i2c_data_link_layer.c ****                 if (0 != p_ctx->dl.action_rx_only)
 775              	 .loc 1 534 0
 776 0258 231C     	 mov r3,r4
 777 025a 6333     	 add r3,r3,#99
 778 025c 1978     	 ldrb r1,[r3]
 779 025e 0B33     	 add r3,r3,#11
 535:C:/Workspace/DAVE-4.4.2-64Bit/optiga-trust-m/optiga/comms/ifx_i2c\ifx_i2c_data_link_layer.c ****                 {
 536:C:/Workspace/DAVE-4.4.2-64Bit/optiga-trust-m/optiga/comms/ifx_i2c\ifx_i2c_data_link_layer.c ****                     p_ctx->dl.upper_layer_event_handler(p_ctx,
 780              	 .loc 1 536 0
 781 0260 1B88     	 ldrh r3,[r3]
 782 0262 626F     	 ldr r2,[r4,#116]
 783 0264 053B     	 sub r3,r3,#5
 784 0266 E56F     	 ldr r5,[r4,#124]
 785              	.LVL76:
 786 0268 0332     	 add r2,r2,#3
 787 026a 9BB2     	 uxth r3,r3
 788 026c 201C     	 mov r0,r4
 534:C:/Workspace/DAVE-4.4.2-64Bit/optiga-trust-m/optiga/comms/ifx_i2c\ifx_i2c_data_link_layer.c ****                 {
 789              	 .loc 1 534 0
 790 026e 0029     	 cmp r1,#0
 791 0270 01D0     	 beq .L66
 792              	.LVL77:
 793              	 .loc 1 536 0
 794 0272 0421     	 mov r1,#4
 795 0274 6CE0     	 b .L100
 796              	.L66:
 537:C:/Workspace/DAVE-4.4.2-64Bit/optiga-trust-m/optiga/comms/ifx_i2c\ifx_i2c_data_link_layer.c ****                                                         IFX_I2C_DL_EVENT_RX_SUCCESS,
 538:C:/Workspace/DAVE-4.4.2-64Bit/optiga-trust-m/optiga/comms/ifx_i2c\ifx_i2c_data_link_layer.c ****                                                         p_ctx->dl.p_rx_frame_buffer + 3,
 539:C:/Workspace/DAVE-4.4.2-64Bit/optiga-trust-m/optiga/comms/ifx_i2c\ifx_i2c_data_link_layer.c ****                                                         p_ctx->dl.rx_buffer_size - DL_HEADER_SIZE);
 540:C:/Workspace/DAVE-4.4.2-64Bit/optiga-trust-m/optiga/comms/ifx_i2c\ifx_i2c_data_link_layer.c ****                 }
 541:C:/Workspace/DAVE-4.4.2-64Bit/optiga-trust-m/optiga/comms/ifx_i2c\ifx_i2c_data_link_layer.c ****                 else
 542:C:/Workspace/DAVE-4.4.2-64Bit/optiga-trust-m/optiga/comms/ifx_i2c\ifx_i2c_data_link_layer.c ****                 {
 543:C:/Workspace/DAVE-4.4.2-64Bit/optiga-trust-m/optiga/comms/ifx_i2c\ifx_i2c_data_link_layer.c ****                     p_ctx->dl.upper_layer_event_handler(p_ctx,
 797              	 .loc 1 543 0
 798 0276 0621     	 mov r1,#6
 799 0278 6AE0     	 b .L100
 800              	.LVL78:
 801              	.L37:
 544:C:/Workspace/DAVE-4.4.2-64Bit/optiga-trust-m/optiga/comms/ifx_i2c\ifx_i2c_data_link_layer.c ****                                                         IFX_I2C_DL_EVENT_TX_SUCCESS | IFX_I2C_DL_EV
 545:C:/Workspace/DAVE-4.4.2-64Bit/optiga-trust-m/optiga/comms/ifx_i2c\ifx_i2c_data_link_layer.c ****                                                         p_ctx->dl.p_rx_frame_buffer + 3,
 546:C:/Workspace/DAVE-4.4.2-64Bit/optiga-trust-m/optiga/comms/ifx_i2c\ifx_i2c_data_link_layer.c ****                                                         p_ctx->dl.rx_buffer_size - DL_HEADER_SIZE);
 547:C:/Workspace/DAVE-4.4.2-64Bit/optiga-trust-m/optiga/comms/ifx_i2c\ifx_i2c_data_link_layer.c ****                 }
 548:C:/Workspace/DAVE-4.4.2-64Bit/optiga-trust-m/optiga/comms/ifx_i2c\ifx_i2c_data_link_layer.c ****             }
 549:C:/Workspace/DAVE-4.4.2-64Bit/optiga-trust-m/optiga/comms/ifx_i2c\ifx_i2c_data_link_layer.c ****             break;
 550:C:/Workspace/DAVE-4.4.2-64Bit/optiga-trust-m/optiga/comms/ifx_i2c\ifx_i2c_data_link_layer.c ****             case DL_STATE_NACK:
 551:C:/Workspace/DAVE-4.4.2-64Bit/optiga-trust-m/optiga/comms/ifx_i2c\ifx_i2c_data_link_layer.c ****             {
 552:C:/Workspace/DAVE-4.4.2-64Bit/optiga-trust-m/optiga/comms/ifx_i2c\ifx_i2c_data_link_layer.c ****                 // Sending NACK
 553:C:/Workspace/DAVE-4.4.2-64Bit/optiga-trust-m/optiga/comms/ifx_i2c\ifx_i2c_data_link_layer.c ****                 LOG_DL("[IFX-DL]: Sending NACK\n");
 554:C:/Workspace/DAVE-4.4.2-64Bit/optiga-trust-m/optiga/comms/ifx_i2c\ifx_i2c_data_link_layer.c ****                 p_ctx->dl.state = DL_STATE_TX;
 802              	 .loc 1 554 0
 803 027a 0223     	 mov r3,#2
 555:C:/Workspace/DAVE-4.4.2-64Bit/optiga-trust-m/optiga/comms/ifx_i2c\ifx_i2c_data_link_layer.c ****                 continue_state_machine = FALSE;
 556:C:/Workspace/DAVE-4.4.2-64Bit/optiga-trust-m/optiga/comms/ifx_i2c\ifx_i2c_data_link_layer.c ****                 //lint --e{534} suppress "Error handling is not required so return value is not che
 557:C:/Workspace/DAVE-4.4.2-64Bit/optiga-trust-m/optiga/comms/ifx_i2c\ifx_i2c_data_link_layer.c ****                 ifx_i2c_dl_send_frame_internal(p_ctx, 0, DL_FCTR_SEQCTR_VALUE_NACK, 0);
 804              	 .loc 1 557 0
 805 027c 0021     	 mov r1,#0
 554:C:/Workspace/DAVE-4.4.2-64Bit/optiga-trust-m/optiga/comms/ifx_i2c\ifx_i2c_data_link_layer.c ****                 continue_state_machine = FALSE;
 806              	 .loc 1 554 0
 807 027e 3370     	 strb r3,[r6]
 808              	.LVL79:
 809              	 .loc 1 557 0
 810 0280 201C     	 mov r0,r4
 811 0282 0122     	 mov r2,#1
 812 0284 0B1C     	 mov r3,r1
 813              	.LVL80:
 814              	.L102:
 815 0286 FFF7FEFF 	 bl ifx_i2c_dl_send_frame_internal
 816              	.LVL81:
 558:C:/Workspace/DAVE-4.4.2-64Bit/optiga-trust-m/optiga/comms/ifx_i2c\ifx_i2c_data_link_layer.c ****             }
 559:C:/Workspace/DAVE-4.4.2-64Bit/optiga-trust-m/optiga/comms/ifx_i2c\ifx_i2c_data_link_layer.c ****             break;
 817              	 .loc 1 559 0
 818 028a 62E0     	 b .L28
 819              	.LVL82:
 820              	.L36:
 821              	.LBB12:
 822              	.LBB13:
 284:C:/Workspace/DAVE-4.4.2-64Bit/optiga-trust-m/optiga/comms/ifx_i2c\ifx_i2c_data_link_layer.c ****     uint32_t time_stamp_diff = current_time_stamp - p_ctx->tl.api_start_time;
 823              	 .loc 1 284 0
 824 028c FFF7FEFF 	 bl pal_os_timer_get_time_in_milliseconds
 825              	.LVL83:
 285:C:/Workspace/DAVE-4.4.2-64Bit/optiga-trust-m/optiga/comms/ifx_i2c\ifx_i2c_data_link_layer.c **** 
 826              	 .loc 1 285 0
 827 0290 E36C     	 ldr r3,[r4,#76]
 828 0292 C01A     	 sub r0,r0,r3
 829              	.LVL84:
 291:C:/Workspace/DAVE-4.4.2-64Bit/optiga-trust-m/optiga/comms/ifx_i2c\ifx_i2c_data_link_layer.c ****     {
 830              	 .loc 1 291 0
 831 0294 354B     	 ldr r3,.L105+20
 832 0296 9842     	 cmp r0,r3
 833 0298 24D8     	 bhi .L67
 293:C:/Workspace/DAVE-4.4.2-64Bit/optiga-trust-m/optiga/comms/ifx_i2c\ifx_i2c_data_link_layer.c ****         {
 834              	 .loc 1 293 0
 835 029a 211C     	 mov r1,r4
 836 029c 6431     	 add r1,r1,#100
 837 029e 0A78     	 ldrb r2,[r1]
 838 02a0 032A     	 cmp r2,#3
 839 02a2 0FD1     	 bne .L68
 296:C:/Workspace/DAVE-4.4.2-64Bit/optiga-trust-m/optiga/comms/ifx_i2c\ifx_i2c_data_link_layer.c ****             status = ifx_i2c_dl_resync(p_ctx);
 840              	 .loc 1 296 0
 841 02a4 0023     	 mov r3,#0
 842              	.LBB14:
 843              	.LBB15:
 271:C:/Workspace/DAVE-4.4.2-64Bit/optiga-trust-m/optiga/comms/ifx_i2c\ifx_i2c_data_link_layer.c ****     p_ctx->dl.rx_seq_nr = DL_MAX_FRAME_NUM;
 844              	 .loc 1 271 0
 845 02a6 0339     	 sub r1,r1,#3
 846              	.LBE15:
 847              	.LBE14:
 296:C:/Workspace/DAVE-4.4.2-64Bit/optiga-trust-m/optiga/comms/ifx_i2c\ifx_i2c_data_link_layer.c ****             status = ifx_i2c_dl_resync(p_ctx);
 848              	 .loc 1 296 0
 849 02a8 CB70     	 strb r3,[r1,#3]
 850              	.LVL85:
 851              	.LBB17:
 852              	.LBB16:
 271:C:/Workspace/DAVE-4.4.2-64Bit/optiga-trust-m/optiga/comms/ifx_i2c\ifx_i2c_data_link_layer.c ****     p_ctx->dl.rx_seq_nr = DL_MAX_FRAME_NUM;
 853              	 .loc 1 271 0
 854 02aa 0A70     	 strb r2,[r1]
 272:C:/Workspace/DAVE-4.4.2-64Bit/optiga-trust-m/optiga/comms/ifx_i2c\ifx_i2c_data_link_layer.c ****     p_ctx->dl.resynced = 1;
 855              	 .loc 1 272 0
 856 02ac 4A70     	 strb r2,[r1,#1]
 273:C:/Workspace/DAVE-4.4.2-64Bit/optiga-trust-m/optiga/comms/ifx_i2c\ifx_i2c_data_link_layer.c ****     LOG_DL("[IFX-DL]: Send Re-Sync Frame\n");
 857              	 .loc 1 273 0
 858 02ae 221C     	 mov r2,r4
 859 02b0 0121     	 mov r1,#1
 860 02b2 6632     	 add r2,r2,#102
 861 02b4 1170     	 strb r1,[r2]
 275:C:/Workspace/DAVE-4.4.2-64Bit/optiga-trust-m/optiga/comms/ifx_i2c\ifx_i2c_data_link_layer.c ****     api_status = ifx_i2c_dl_send_frame_internal(p_ctx, 0, DL_FCTR_SEQCTR_VALUE_RESYNC, 0);
 862              	 .loc 1 275 0
 863 02b6 0431     	 add r1,r1,#4
 864 02b8 063A     	 sub r2,r2,#6
 865 02ba 1170     	 strb r1,[r2]
 276:C:/Workspace/DAVE-4.4.2-64Bit/optiga-trust-m/optiga/comms/ifx_i2c\ifx_i2c_data_link_layer.c ****     return (api_status);
 866              	 .loc 1 276 0
 867 02bc 201C     	 mov r0,r4
 868              	.LVL86:
 869 02be 191C     	 mov r1,r3
 870 02c0 0222     	 mov r2,#2
 871 02c2 09E0     	 b .L98
 872              	.LVL87:
 873              	.L68:
 874              	.LBE16:
 875              	.LBE17:
 302:C:/Workspace/DAVE-4.4.2-64Bit/optiga-trust-m/optiga/comms/ifx_i2c\ifx_i2c_data_link_layer.c ****             p_ctx->dl.state = DL_STATE_TX;
 876              	 .loc 1 302 0
 877 02c4 0132     	 add r2,r2,#1
 303:C:/Workspace/DAVE-4.4.2-64Bit/optiga-trust-m/optiga/comms/ifx_i2c\ifx_i2c_data_link_layer.c ****             status = ifx_i2c_dl_send_frame_internal(p_ctx, p_ctx->dl.tx_buffer_size, seqctr_value, 
 878              	 .loc 1 303 0
 879 02c6 231C     	 mov r3,r4
 302:C:/Workspace/DAVE-4.4.2-64Bit/optiga-trust-m/optiga/comms/ifx_i2c\ifx_i2c_data_link_layer.c ****             p_ctx->dl.state = DL_STATE_TX;
 880              	 .loc 1 302 0
 881 02c8 0A70     	 strb r2,[r1]
 303:C:/Workspace/DAVE-4.4.2-64Bit/optiga-trust-m/optiga/comms/ifx_i2c\ifx_i2c_data_link_layer.c ****             status = ifx_i2c_dl_send_frame_internal(p_ctx, p_ctx->dl.tx_buffer_size, seqctr_value, 
 882              	 .loc 1 303 0
 883 02ca 0222     	 mov r2,#2
 884 02cc 6033     	 add r3,r3,#96
 885 02ce 1A70     	 strb r2,[r3]
 304:C:/Workspace/DAVE-4.4.2-64Bit/optiga-trust-m/optiga/comms/ifx_i2c\ifx_i2c_data_link_layer.c ****         }
 886              	 .loc 1 304 0
 887 02d0 9989     	 ldrh r1,[r3,#12]
 888 02d2 201C     	 mov r0,r4
 889              	.LVL88:
 890 02d4 0022     	 mov r2,#0
 891 02d6 0123     	 mov r3,#1
 892              	.LVL89:
 893              	.L98:
 894 02d8 FFF7FEFF 	 bl ifx_i2c_dl_send_frame_internal
 895              	.LVL90:
 309:C:/Workspace/DAVE-4.4.2-64Bit/optiga-trust-m/optiga/comms/ifx_i2c\ifx_i2c_data_link_layer.c ****         }
 896              	 .loc 1 309 0
 897 02dc 0622     	 mov r2,#6
 307:C:/Workspace/DAVE-4.4.2-64Bit/optiga-trust-m/optiga/comms/ifx_i2c\ifx_i2c_data_link_layer.c ****         {
 898              	 .loc 1 307 0
 899 02de 0028     	 cmp r0,#0
 900 02e0 01D1     	 bne .L99
 901 02e2 03E0     	 b .L70
 902              	.LVL91:
 903              	.L67:
 314:C:/Workspace/DAVE-4.4.2-64Bit/optiga-trust-m/optiga/comms/ifx_i2c\ifx_i2c_data_link_layer.c ****     }
 904              	 .loc 1 314 0
 905 02e4 0822     	 mov r2,#8
 906              	.LVL92:
 907              	.L99:
 908 02e6 231C     	 mov r3,r4
 909 02e8 6033     	 add r3,r3,#96
 910 02ea 1A70     	 strb r2,[r3]
 911              	.L70:
 912              	.LBE13:
 913              	.LBE12:
 560:C:/Workspace/DAVE-4.4.2-64Bit/optiga-trust-m/optiga/comms/ifx_i2c\ifx_i2c_data_link_layer.c ****             case DL_STATE_RESEND:
 561:C:/Workspace/DAVE-4.4.2-64Bit/optiga-trust-m/optiga/comms/ifx_i2c\ifx_i2c_data_link_layer.c ****             {
 562:C:/Workspace/DAVE-4.4.2-64Bit/optiga-trust-m/optiga/comms/ifx_i2c\ifx_i2c_data_link_layer.c ****                 //Resend frame
 563:C:/Workspace/DAVE-4.4.2-64Bit/optiga-trust-m/optiga/comms/ifx_i2c\ifx_i2c_data_link_layer.c ****                 ifx_i2c_dl_resend_frame(p_ctx, DL_FCTR_SEQCTR_VALUE_ACK);
 564:C:/Workspace/DAVE-4.4.2-64Bit/optiga-trust-m/optiga/comms/ifx_i2c\ifx_i2c_data_link_layer.c ****                 if (DL_STATE_ERROR != p_ctx->dl.state)
 914              	 .loc 1 564 0
 915 02ec 231C     	 mov r3,r4
 916 02ee 6033     	 add r3,r3,#96
 917 02f0 1B78     	 ldrb r3,[r3]
 918 02f2 082B     	 cmp r3,#8
 919 02f4 2DD1     	 bne .L28
 920 02f6 8FE6     	 b .L73
 921              	.LVL93:
 922              	.L38:
 565:C:/Workspace/DAVE-4.4.2-64Bit/optiga-trust-m/optiga/comms/ifx_i2c\ifx_i2c_data_link_layer.c ****                 {
 566:C:/Workspace/DAVE-4.4.2-64Bit/optiga-trust-m/optiga/comms/ifx_i2c\ifx_i2c_data_link_layer.c ****                     continue_state_machine = FALSE;
 567:C:/Workspace/DAVE-4.4.2-64Bit/optiga-trust-m/optiga/comms/ifx_i2c\ifx_i2c_data_link_layer.c ****                 }
 568:C:/Workspace/DAVE-4.4.2-64Bit/optiga-trust-m/optiga/comms/ifx_i2c\ifx_i2c_data_link_layer.c ****             }
 569:C:/Workspace/DAVE-4.4.2-64Bit/optiga-trust-m/optiga/comms/ifx_i2c\ifx_i2c_data_link_layer.c ****             break;
 570:C:/Workspace/DAVE-4.4.2-64Bit/optiga-trust-m/optiga/comms/ifx_i2c\ifx_i2c_data_link_layer.c ****             case DL_STATE_ERROR:
 571:C:/Workspace/DAVE-4.4.2-64Bit/optiga-trust-m/optiga/comms/ifx_i2c\ifx_i2c_data_link_layer.c ****             {
 572:C:/Workspace/DAVE-4.4.2-64Bit/optiga-trust-m/optiga/comms/ifx_i2c\ifx_i2c_data_link_layer.c ****                 if (0 == p_ctx->dl.resynced)
 923              	 .loc 1 572 0
 924 02f8 221C     	 mov r2,r4
 925 02fa 251C     	 mov r5,r4
 926              	.LVL94:
 927 02fc 6632     	 add r2,r2,#102
 928 02fe 1378     	 ldrb r3,[r2]
 929 0300 6535     	 add r5,r5,#101
 930 0302 002B     	 cmp r3,#0
 931 0304 01D1     	 bne .L71
 573:C:/Workspace/DAVE-4.4.2-64Bit/optiga-trust-m/optiga/comms/ifx_i2c\ifx_i2c_data_link_layer.c ****                 {
 574:C:/Workspace/DAVE-4.4.2-64Bit/optiga-trust-m/optiga/comms/ifx_i2c\ifx_i2c_data_link_layer.c ****                     p_ctx->dl.error = 1;
 932              	 .loc 1 574 0
 933 0306 0133     	 add r3,r3,#1
 934 0308 2B70     	 strb r3,[r5]
 935              	.L71:
 575:C:/Workspace/DAVE-4.4.2-64Bit/optiga-trust-m/optiga/comms/ifx_i2c\ifx_i2c_data_link_layer.c ****                 }
 576:C:/Workspace/DAVE-4.4.2-64Bit/optiga-trust-m/optiga/comms/ifx_i2c\ifx_i2c_data_link_layer.c ****                 if (0 == p_ctx->dl.error)
 936              	 .loc 1 576 0
 937 030a 2B78     	 ldrb r3,[r5]
 938 030c 002B     	 cmp r3,#0
 939 030e 05D1     	 bne .L72
 577:C:/Workspace/DAVE-4.4.2-64Bit/optiga-trust-m/optiga/comms/ifx_i2c\ifx_i2c_data_link_layer.c ****                 {
 578:C:/Workspace/DAVE-4.4.2-64Bit/optiga-trust-m/optiga/comms/ifx_i2c\ifx_i2c_data_link_layer.c ****                     LOG_DL("[IFX-DL]: Exit error after fatal error\n");
 579:C:/Workspace/DAVE-4.4.2-64Bit/optiga-trust-m/optiga/comms/ifx_i2c\ifx_i2c_data_link_layer.c ****                     //After sending resync, inform upper layer
 580:C:/Workspace/DAVE-4.4.2-64Bit/optiga-trust-m/optiga/comms/ifx_i2c\ifx_i2c_data_link_layer.c ****                     p_ctx->dl.state = DL_STATE_IDLE;
 940              	 .loc 1 580 0
 941 0310 0121     	 mov r1,#1
 581:C:/Workspace/DAVE-4.4.2-64Bit/optiga-trust-m/optiga/comms/ifx_i2c\ifx_i2c_data_link_layer.c ****                     p_ctx->dl.upper_layer_event_handler(p_ctx, IFX_I2C_DL_EVENT_ERROR, 0, 0);
 942              	 .loc 1 581 0
 943 0312 E56F     	 ldr r5,[r4,#124]
 580:C:/Workspace/DAVE-4.4.2-64Bit/optiga-trust-m/optiga/comms/ifx_i2c\ifx_i2c_data_link_layer.c ****                     p_ctx->dl.upper_layer_event_handler(p_ctx, IFX_I2C_DL_EVENT_ERROR, 0, 0);
 944              	 .loc 1 580 0
 945 0314 3170     	 strb r1,[r6]
 946              	 .loc 1 581 0
 947 0316 201C     	 mov r0,r4
 948 0318 1A1C     	 mov r2,r3
 949 031a 19E0     	 b .L100
 950              	.L72:
 951              	.LVL95:
 952              	.LBB18:
 953              	.LBB19:
 271:C:/Workspace/DAVE-4.4.2-64Bit/optiga-trust-m/optiga/comms/ifx_i2c\ifx_i2c_data_link_layer.c ****     p_ctx->dl.rx_seq_nr = DL_MAX_FRAME_NUM;
 954              	 .loc 1 271 0
 955 031c 211C     	 mov r1,r4
 956 031e 0323     	 mov r3,#3
 957 0320 6131     	 add r1,r1,#97
 958 0322 0B70     	 strb r3,[r1]
 272:C:/Workspace/DAVE-4.4.2-64Bit/optiga-trust-m/optiga/comms/ifx_i2c\ifx_i2c_data_link_layer.c ****     p_ctx->dl.resynced = 1;
 959              	 .loc 1 272 0
 960 0324 4B70     	 strb r3,[r1,#1]
 276:C:/Workspace/DAVE-4.4.2-64Bit/optiga-trust-m/optiga/comms/ifx_i2c\ifx_i2c_data_link_layer.c ****     return (api_status);
 961              	 .loc 1 276 0
 962 0326 0021     	 mov r1,#0
 273:C:/Workspace/DAVE-4.4.2-64Bit/optiga-trust-m/optiga/comms/ifx_i2c\ifx_i2c_data_link_layer.c ****     LOG_DL("[IFX-DL]: Send Re-Sync Frame\n");
 963              	 .loc 1 273 0
 964 0328 023B     	 sub r3,r3,#2
 965 032a 1370     	 strb r3,[r2]
 275:C:/Workspace/DAVE-4.4.2-64Bit/optiga-trust-m/optiga/comms/ifx_i2c\ifx_i2c_data_link_layer.c ****     api_status = ifx_i2c_dl_send_frame_internal(p_ctx, 0, DL_FCTR_SEQCTR_VALUE_RESYNC, 0);
 966              	 .loc 1 275 0
 967 032c 0433     	 add r3,r3,#4
 968 032e 3370     	 strb r3,[r6]
 276:C:/Workspace/DAVE-4.4.2-64Bit/optiga-trust-m/optiga/comms/ifx_i2c\ifx_i2c_data_link_layer.c ****     return (api_status);
 969              	 .loc 1 276 0
 970 0330 201C     	 mov r0,r4
 971 0332 0B1C     	 mov r3,r1
 972 0334 0222     	 mov r2,#2
 973 0336 FFF7FEFF 	 bl ifx_i2c_dl_send_frame_internal
 974              	.LVL96:
 975              	.LBE19:
 976              	.LBE18:
 582:C:/Workspace/DAVE-4.4.2-64Bit/optiga-trust-m/optiga/comms/ifx_i2c\ifx_i2c_data_link_layer.c ****                 }
 583:C:/Workspace/DAVE-4.4.2-64Bit/optiga-trust-m/optiga/comms/ifx_i2c\ifx_i2c_data_link_layer.c ****                 else
 584:C:/Workspace/DAVE-4.4.2-64Bit/optiga-trust-m/optiga/comms/ifx_i2c\ifx_i2c_data_link_layer.c ****                 {
 585:C:/Workspace/DAVE-4.4.2-64Bit/optiga-trust-m/optiga/comms/ifx_i2c\ifx_i2c_data_link_layer.c ****                     LOG_DL("[IFX-DL]: Sending re-sync after fatal error\n");
 586:C:/Workspace/DAVE-4.4.2-64Bit/optiga-trust-m/optiga/comms/ifx_i2c\ifx_i2c_data_link_layer.c ****                     // Send re-sync to slave on error
 587:C:/Workspace/DAVE-4.4.2-64Bit/optiga-trust-m/optiga/comms/ifx_i2c\ifx_i2c_data_link_layer.c ****                     //lint --e{534} suppress "As this is last step, no effect of checking return co
 588:C:/Workspace/DAVE-4.4.2-64Bit/optiga-trust-m/optiga/comms/ifx_i2c\ifx_i2c_data_link_layer.c ****                     ifx_i2c_dl_resync(p_ctx);
 589:C:/Workspace/DAVE-4.4.2-64Bit/optiga-trust-m/optiga/comms/ifx_i2c\ifx_i2c_data_link_layer.c ****                     p_ctx->dl.state = DL_STATE_ERROR;
 977              	 .loc 1 589 0
 978 033a 0823     	 mov r3,#8
 979 033c 3370     	 strb r3,[r6]
 590:C:/Workspace/DAVE-4.4.2-64Bit/optiga-trust-m/optiga/comms/ifx_i2c\ifx_i2c_data_link_layer.c ****                     p_ctx->dl.error = 0;
 980              	 .loc 1 590 0
 981 033e 0023     	 mov r3,#0
 982 0340 2B70     	 strb r3,[r5]
 983 0342 06E0     	 b .L28
 984              	.LVL97:
 985              	.L30:
 591:C:/Workspace/DAVE-4.4.2-64Bit/optiga-trust-m/optiga/comms/ifx_i2c\ifx_i2c_data_link_layer.c ****                 }
 592:C:/Workspace/DAVE-4.4.2-64Bit/optiga-trust-m/optiga/comms/ifx_i2c\ifx_i2c_data_link_layer.c ****                 continue_state_machine = FALSE;
 593:C:/Workspace/DAVE-4.4.2-64Bit/optiga-trust-m/optiga/comms/ifx_i2c\ifx_i2c_data_link_layer.c ****             }
 594:C:/Workspace/DAVE-4.4.2-64Bit/optiga-trust-m/optiga/comms/ifx_i2c\ifx_i2c_data_link_layer.c ****             break;
 595:C:/Workspace/DAVE-4.4.2-64Bit/optiga-trust-m/optiga/comms/ifx_i2c\ifx_i2c_data_link_layer.c ****             default:
 596:C:/Workspace/DAVE-4.4.2-64Bit/optiga-trust-m/optiga/comms/ifx_i2c\ifx_i2c_data_link_layer.c ****                 LOG_DL("[IFX-DL]: Default condition occurred. Exiting with error\n");
 597:C:/Workspace/DAVE-4.4.2-64Bit/optiga-trust-m/optiga/comms/ifx_i2c\ifx_i2c_data_link_layer.c ****                 p_ctx->dl.state = DL_STATE_IDLE;
 986              	 .loc 1 597 0
 987 0344 0121     	 mov r1,#1
 988 0346 3170     	 strb r1,[r6]
 989              	.LVL98:
 990              	.L101:
 598:C:/Workspace/DAVE-4.4.2-64Bit/optiga-trust-m/optiga/comms/ifx_i2c\ifx_i2c_data_link_layer.c ****                 p_ctx->dl.upper_layer_event_handler(p_ctx, IFX_I2C_DL_EVENT_ERROR, 0, 0);
 991              	 .loc 1 598 0
 992 0348 201C     	 mov r0,r4
 993 034a 0022     	 mov r2,#0
 994 034c E56F     	 ldr r5,[r4,#124]
 995              	.LVL99:
 996              	.L103:
 997 034e 131C     	 mov r3,r2
 998              	.L100:
 999 0350 A847     	 blx r5
 1000              	.LVL100:
 1001              	.L28:
 599:C:/Workspace/DAVE-4.4.2-64Bit/optiga-trust-m/optiga/comms/ifx_i2c\ifx_i2c_data_link_layer.c ****                 continue_state_machine = FALSE;
 600:C:/Workspace/DAVE-4.4.2-64Bit/optiga-trust-m/optiga/comms/ifx_i2c\ifx_i2c_data_link_layer.c ****                 break;
 601:C:/Workspace/DAVE-4.4.2-64Bit/optiga-trust-m/optiga/comms/ifx_i2c\ifx_i2c_data_link_layer.c ****         }
 602:C:/Workspace/DAVE-4.4.2-64Bit/optiga-trust-m/optiga/comms/ifx_i2c\ifx_i2c_data_link_layer.c ****     } while (TRUE == continue_state_machine);
 603:C:/Workspace/DAVE-4.4.2-64Bit/optiga-trust-m/optiga/comms/ifx_i2c\ifx_i2c_data_link_layer.c ****     LOG_DL("[IFX-DL]: #Exiting DL Handler\n");
 604:C:/Workspace/DAVE-4.4.2-64Bit/optiga-trust-m/optiga/comms/ifx_i2c\ifx_i2c_data_link_layer.c **** }
 1002              	 .loc 1 604 0
 1003 0352 09B0     	 add sp,sp,#36
 1004              	 
 1005              	.LVL101:
 1006              	.LVL102:
 1007 0354 F0BD     	 pop {r4,r5,r6,r7,pc}
 1008              	.L106:
 1009 0356 C046     	 .align 2
 1010              	.L105:
 1011 0358 2B000000 	 .word .LC12
 1012 035c 05000000 	 .word .LC4
 1013 0360 1A000000 	 .word .LC6
 1014 0364 1F000000 	 .word .LC8
 1015 0368 25000000 	 .word .LC10
 1016 036c 1FBF0200 	 .word 179999
 1017              	 .cfi_endproc
 1018              	.LFE8:
 1020              	 .section .text.ifx_i2c_dl_init,"ax",%progbits
 1021              	 .align 1
 1022              	 .global ifx_i2c_dl_init
 1023              	 .code 16
 1024              	 .thumb_func
 1026              	ifx_i2c_dl_init:
 1027              	.LFB0:
 116:C:/Workspace/DAVE-4.4.2-64Bit/optiga-trust-m/optiga/comms/ifx_i2c\ifx_i2c_data_link_layer.c ****     LOG_DL("[IFX-DL]: Init\n");
 1028              	 .loc 1 116 0
 1029              	 .cfi_startproc
 1030              	.LVL103:
 1031 0000 70B5     	 push {r4,r5,r6,lr}
 1032              	.LCFI4:
 1033              	 .cfi_def_cfa_offset 16
 1034              	 .cfi_offset 4,-16
 1035              	 .cfi_offset 5,-12
 1036              	 .cfi_offset 6,-8
 1037              	 .cfi_offset 14,-4
 119:C:/Workspace/DAVE-4.4.2-64Bit/optiga-trust-m/optiga/comms/ifx_i2c\ifx_i2c_data_link_layer.c ****     // Initialize Physical Layer (and register event handler)
 1038              	 .loc 1 119 0
 1039 0002 051C     	 mov r5,r0
 1040 0004 0023     	 mov r3,#0
 1041 0006 6035     	 add r5,r5,#96
 116:C:/Workspace/DAVE-4.4.2-64Bit/optiga-trust-m/optiga/comms/ifx_i2c\ifx_i2c_data_link_layer.c ****     LOG_DL("[IFX-DL]: Init\n");
 1042              	 .loc 1 116 0
 1043 0008 0E1C     	 mov r6,r1
 119:C:/Workspace/DAVE-4.4.2-64Bit/optiga-trust-m/optiga/comms/ifx_i2c\ifx_i2c_data_link_layer.c ****     // Initialize Physical Layer (and register event handler)
 1044              	 .loc 1 119 0
 1045 000a 2B70     	 strb r3,[r5]
 121:C:/Workspace/DAVE-4.4.2-64Bit/optiga-trust-m/optiga/comms/ifx_i2c\ifx_i2c_data_link_layer.c ****     {
 1046              	 .loc 1 121 0
 1047 000c 0E49     	 ldr r1,.L110
 1048              	.LVL104:
 116:C:/Workspace/DAVE-4.4.2-64Bit/optiga-trust-m/optiga/comms/ifx_i2c\ifx_i2c_data_link_layer.c ****     LOG_DL("[IFX-DL]: Init\n");
 1049              	 .loc 1 116 0
 1050 000e 041C     	 mov r4,r0
 121:C:/Workspace/DAVE-4.4.2-64Bit/optiga-trust-m/optiga/comms/ifx_i2c\ifx_i2c_data_link_layer.c ****     {
 1051              	 .loc 1 121 0
 1052 0010 FFF7FEFF 	 bl ifx_i2c_pl_init
 1053              	.LVL105:
 1054 0014 0028     	 cmp r0,#0
 1055 0016 14D1     	 bne .L109
 128:C:/Workspace/DAVE-4.4.2-64Bit/optiga-trust-m/optiga/comms/ifx_i2c\ifx_i2c_data_link_layer.c ****     p_ctx->dl.tx_seq_nr = DL_MAX_FRAME_NUM;
 1056              	 .loc 1 128 0
 1057 0018 0123     	 mov r3,#1
 129:C:/Workspace/DAVE-4.4.2-64Bit/optiga-trust-m/optiga/comms/ifx_i2c\ifx_i2c_data_link_layer.c ****     p_ctx->dl.rx_seq_nr = DL_MAX_FRAME_NUM;
 1058              	 .loc 1 129 0
 1059 001a 221C     	 mov r2,r4
 127:C:/Workspace/DAVE-4.4.2-64Bit/optiga-trust-m/optiga/comms/ifx_i2c\ifx_i2c_data_link_layer.c ****     p_ctx->dl.state = DL_STATE_IDLE;
 1060              	 .loc 1 127 0
 1061 001c E667     	 str r6,[r4,#124]
 129:C:/Workspace/DAVE-4.4.2-64Bit/optiga-trust-m/optiga/comms/ifx_i2c\ifx_i2c_data_link_layer.c ****     p_ctx->dl.rx_seq_nr = DL_MAX_FRAME_NUM;
 1062              	 .loc 1 129 0
 1063 001e 6132     	 add r2,r2,#97
 128:C:/Workspace/DAVE-4.4.2-64Bit/optiga-trust-m/optiga/comms/ifx_i2c\ifx_i2c_data_link_layer.c ****     p_ctx->dl.tx_seq_nr = DL_MAX_FRAME_NUM;
 1064              	 .loc 1 128 0
 1065 0020 2B70     	 strb r3,[r5]
 129:C:/Workspace/DAVE-4.4.2-64Bit/optiga-trust-m/optiga/comms/ifx_i2c\ifx_i2c_data_link_layer.c ****     p_ctx->dl.rx_seq_nr = DL_MAX_FRAME_NUM;
 1066              	 .loc 1 129 0
 1067 0022 0233     	 add r3,r3,#2
 1068 0024 1370     	 strb r3,[r2]
 130:C:/Workspace/DAVE-4.4.2-64Bit/optiga-trust-m/optiga/comms/ifx_i2c\ifx_i2c_data_link_layer.c ****     p_ctx->dl.resynced = 0;
 1069              	 .loc 1 130 0
 1070 0026 5370     	 strb r3,[r2,#1]
 131:C:/Workspace/DAVE-4.4.2-64Bit/optiga-trust-m/optiga/comms/ifx_i2c\ifx_i2c_data_link_layer.c ****     p_ctx->dl.error = 0;
 1071              	 .loc 1 131 0
 1072 0028 231C     	 mov r3,r4
 1073 002a 6633     	 add r3,r3,#102
 1074 002c 1870     	 strb r0,[r3]
 132:C:/Workspace/DAVE-4.4.2-64Bit/optiga-trust-m/optiga/comms/ifx_i2c\ifx_i2c_data_link_layer.c ****     p_ctx->dl.p_tx_frame_buffer = p_ctx->tx_frame_buffer;
 1075              	 .loc 1 132 0
 1076 002e 013B     	 sub r3,r3,#1
 1077 0030 1870     	 strb r0,[r3]
 133:C:/Workspace/DAVE-4.4.2-64Bit/optiga-trust-m/optiga/comms/ifx_i2c\ifx_i2c_data_link_layer.c ****     p_ctx->dl.p_rx_frame_buffer = p_ctx->rx_frame_buffer;
 1078              	 .loc 1 133 0
 1079 0032 A923     	 mov r3,#169
 1080 0034 9B00     	 lsl r3,r3,#2
 1081 0036 E318     	 add r3,r4,r3
 1082 0038 2367     	 str r3,[r4,#112]
 134:C:/Workspace/DAVE-4.4.2-64Bit/optiga-trust-m/optiga/comms/ifx_i2c\ifx_i2c_data_link_layer.c **** 
 1083              	 .loc 1 134 0
 1084 003a 044B     	 ldr r3,.L110+4
 1085 003c E318     	 add r3,r4,r3
 1086 003e 6367     	 str r3,[r4,#116]
 136:C:/Workspace/DAVE-4.4.2-64Bit/optiga-trust-m/optiga/comms/ifx_i2c\ifx_i2c_data_link_layer.c **** }
 1087              	 .loc 1 136 0
 1088 0040 01E0     	 b .L108
 1089              	.L109:
 123:C:/Workspace/DAVE-4.4.2-64Bit/optiga-trust-m/optiga/comms/ifx_i2c\ifx_i2c_data_link_layer.c ****     }
 1090              	 .loc 1 123 0
 1091 0042 8120     	 mov r0,#129
 1092 0044 4000     	 lsl r0,r0,#1
 1093              	.L108:
 137:C:/Workspace/DAVE-4.4.2-64Bit/optiga-trust-m/optiga/comms/ifx_i2c\ifx_i2c_data_link_layer.c **** 
 1094              	 .loc 1 137 0
 1095              	 
 1096              	.LVL106:
 1097              	.LVL107:
 1098              	.LVL108:
 1099 0046 70BD     	 pop {r4,r5,r6,pc}
 1100              	.L111:
 1101              	 .align 2
 1102              	.L110:
 1103 0048 00000000 	 .word ifx_i2c_pl_event_handler
 1104 004c BA030000 	 .word 954
 1105              	 .cfi_endproc
 1106              	.LFE0:
 1108              	 .section .text.ifx_i2c_dl_send_frame,"ax",%progbits
 1109              	 .align 1
 1110              	 .global ifx_i2c_dl_send_frame
 1111              	 .code 16
 1112              	 .thumb_func
 1114              	ifx_i2c_dl_send_frame:
 1115              	.LFB1:
 140:C:/Workspace/DAVE-4.4.2-64Bit/optiga-trust-m/optiga/comms/ifx_i2c\ifx_i2c_data_link_layer.c ****     LOG_DL("[IFX-DL]: Start TX Frame\n");
 1116              	 .loc 1 140 0
 1117              	 .cfi_startproc
 1118              	.LVL109:
 1119 0000 08B5     	 push {r3,lr}
 1120              	.LCFI5:
 1121              	 .cfi_def_cfa_offset 8
 1122              	 .cfi_offset 3,-8
 1123              	 .cfi_offset 14,-4
 143:C:/Workspace/DAVE-4.4.2-64Bit/optiga-trust-m/optiga/comms/ifx_i2c\ifx_i2c_data_link_layer.c ****     {
 1124              	 .loc 1 143 0
 1125 0002 031C     	 mov r3,r0
 1126 0004 6033     	 add r3,r3,#96
 1127 0006 1A78     	 ldrb r2,[r3]
 1128 0008 012A     	 cmp r2,#1
 1129 000a 11D1     	 bne .L115
 143:C:/Workspace/DAVE-4.4.2-64Bit/optiga-trust-m/optiga/comms/ifx_i2c\ifx_i2c_data_link_layer.c ****     {
 1130              	 .loc 1 143 0 is_stmt 0 discriminator 1
 1131 000c 0029     	 cmp r1,#0
 1132 000e 0FD0     	 beq .L115
 148:C:/Workspace/DAVE-4.4.2-64Bit/optiga-trust-m/optiga/comms/ifx_i2c\ifx_i2c_data_link_layer.c ****     p_ctx->dl.retransmit_counter = 0;
 1133              	 .loc 1 148 0 is_stmt 1
 1134 0010 0132     	 add r2,r2,#1
 1135 0012 1A70     	 strb r2,[r3]
 149:C:/Workspace/DAVE-4.4.2-64Bit/optiga-trust-m/optiga/comms/ifx_i2c\ifx_i2c_data_link_layer.c ****     p_ctx->dl.action_rx_only = 0;
 1136              	 .loc 1 149 0
 1137 0014 021C     	 mov r2,r0
 1138 0016 0023     	 mov r3,#0
 1139 0018 6432     	 add r2,r2,#100
 1140 001a 1370     	 strb r3,[r2]
 150:C:/Workspace/DAVE-4.4.2-64Bit/optiga-trust-m/optiga/comms/ifx_i2c\ifx_i2c_data_link_layer.c ****     p_ctx->dl.tx_buffer_size = frame_len;
 1141              	 .loc 1 150 0
 1142 001c 013A     	 sub r2,r2,#1
 1143 001e 1370     	 strb r3,[r2]
 151:C:/Workspace/DAVE-4.4.2-64Bit/optiga-trust-m/optiga/comms/ifx_i2c\ifx_i2c_data_link_layer.c ****     p_ctx->dl.data_poll_timeout = PL_TRANS_TIMEOUT_MS;
 1144              	 .loc 1 151 0
 1145 0020 0932     	 add r2,r2,#9
 1146 0022 1180     	 strh r1,[r2]
 152:C:/Workspace/DAVE-4.4.2-64Bit/optiga-trust-m/optiga/comms/ifx_i2c\ifx_i2c_data_link_layer.c **** 
 1147              	 .loc 1 152 0
 1148 0024 0A22     	 mov r2,#10
 1149 0026 8266     	 str r2,[r0,#104]
 154:C:/Workspace/DAVE-4.4.2-64Bit/optiga-trust-m/optiga/comms/ifx_i2c\ifx_i2c_data_link_layer.c **** }
 1150              	 .loc 1 154 0
 1151 0028 1A1C     	 mov r2,r3
 1152 002a FFF7FEFF 	 bl ifx_i2c_dl_send_frame_internal
 1153              	.LVL110:
 1154 002e 01E0     	 b .L113
 1155              	.LVL111:
 1156              	.L115:
 145:C:/Workspace/DAVE-4.4.2-64Bit/optiga-trust-m/optiga/comms/ifx_i2c\ifx_i2c_data_link_layer.c ****     }
 1157              	 .loc 1 145 0
 1158 0030 8120     	 mov r0,#129
 1159              	.LVL112:
 1160 0032 4000     	 lsl r0,r0,#1
 1161              	.LVL113:
 1162              	.L113:
 155:C:/Workspace/DAVE-4.4.2-64Bit/optiga-trust-m/optiga/comms/ifx_i2c\ifx_i2c_data_link_layer.c **** 
 1163              	 .loc 1 155 0
 1164              	 
 1165 0034 08BD     	 pop {r3,pc}
 1166              	 .cfi_endproc
 1167              	.LFE1:
 1169              	 .section .text.ifx_i2c_dl_receive_frame,"ax",%progbits
 1170              	 .align 1
 1171              	 .global ifx_i2c_dl_receive_frame
 1172              	 .code 16
 1173              	 .thumb_func
 1175              	ifx_i2c_dl_receive_frame:
 1176              	.LFB2:
 158:C:/Workspace/DAVE-4.4.2-64Bit/optiga-trust-m/optiga/comms/ifx_i2c\ifx_i2c_data_link_layer.c ****     LOG_DL("[IFX-DL]: Start RX Frame\n");
 1177              	 .loc 1 158 0
 1178              	 .cfi_startproc
 1179              	.LVL114:
 161:C:/Workspace/DAVE-4.4.2-64Bit/optiga-trust-m/optiga/comms/ifx_i2c\ifx_i2c_data_link_layer.c ****     {
 1180              	 .loc 1 161 0
 1181 0000 021C     	 mov r2,r0
 158:C:/Workspace/DAVE-4.4.2-64Bit/optiga-trust-m/optiga/comms/ifx_i2c\ifx_i2c_data_link_layer.c ****     LOG_DL("[IFX-DL]: Start RX Frame\n");
 1182              	 .loc 1 158 0
 1183 0002 10B5     	 push {r4,lr}
 1184              	.LCFI6:
 1185              	 .cfi_def_cfa_offset 8
 1186              	 .cfi_offset 4,-8
 1187              	 .cfi_offset 14,-4
 158:C:/Workspace/DAVE-4.4.2-64Bit/optiga-trust-m/optiga/comms/ifx_i2c\ifx_i2c_data_link_layer.c ****     LOG_DL("[IFX-DL]: Start RX Frame\n");
 1188              	 .loc 1 158 0
 1189 0004 041C     	 mov r4,r0
 163:C:/Workspace/DAVE-4.4.2-64Bit/optiga-trust-m/optiga/comms/ifx_i2c\ifx_i2c_data_link_layer.c ****     }
 1190              	 .loc 1 163 0
 1191 0006 8120     	 mov r0,#129
 1192              	.LVL115:
 161:C:/Workspace/DAVE-4.4.2-64Bit/optiga-trust-m/optiga/comms/ifx_i2c\ifx_i2c_data_link_layer.c ****     {
 1193              	 .loc 1 161 0
 1194 0008 6032     	 add r2,r2,#96
 1195              	.LVL116:
 1196 000a 1378     	 ldrb r3,[r2]
 163:C:/Workspace/DAVE-4.4.2-64Bit/optiga-trust-m/optiga/comms/ifx_i2c\ifx_i2c_data_link_layer.c ****     }
 1197              	 .loc 1 163 0
 1198 000c 4000     	 lsl r0,r0,#1
 161:C:/Workspace/DAVE-4.4.2-64Bit/optiga-trust-m/optiga/comms/ifx_i2c\ifx_i2c_data_link_layer.c ****     {
 1199              	 .loc 1 161 0
 1200 000e 012B     	 cmp r3,#1
 1201 0010 0DD1     	 bne .L117
 167:C:/Workspace/DAVE-4.4.2-64Bit/optiga-trust-m/optiga/comms/ifx_i2c\ifx_i2c_data_link_layer.c ****     p_ctx->dl.retransmit_counter = 0;
 1202              	 .loc 1 167 0
 1203 0012 0321     	 mov r1,#3
 1204 0014 1170     	 strb r1,[r2]
 168:C:/Workspace/DAVE-4.4.2-64Bit/optiga-trust-m/optiga/comms/ifx_i2c\ifx_i2c_data_link_layer.c ****     p_ctx->dl.action_rx_only = 1;
 1205              	 .loc 1 168 0
 1206 0016 0021     	 mov r1,#0
 169:C:/Workspace/DAVE-4.4.2-64Bit/optiga-trust-m/optiga/comms/ifx_i2c\ifx_i2c_data_link_layer.c ****     p_ctx->dl.frame_start_time = pal_os_timer_get_time_in_milliseconds();
 1207              	 .loc 1 169 0
 1208 0018 0332     	 add r2,r2,#3
 168:C:/Workspace/DAVE-4.4.2-64Bit/optiga-trust-m/optiga/comms/ifx_i2c\ifx_i2c_data_link_layer.c ****     p_ctx->dl.action_rx_only = 1;
 1209              	 .loc 1 168 0
 1210 001a 5170     	 strb r1,[r2,#1]
 169:C:/Workspace/DAVE-4.4.2-64Bit/optiga-trust-m/optiga/comms/ifx_i2c\ifx_i2c_data_link_layer.c ****     p_ctx->dl.frame_start_time = pal_os_timer_get_time_in_milliseconds();
 1211              	 .loc 1 169 0
 1212 001c 1370     	 strb r3,[r2]
 170:C:/Workspace/DAVE-4.4.2-64Bit/optiga-trust-m/optiga/comms/ifx_i2c\ifx_i2c_data_link_layer.c ****     p_ctx->dl.data_poll_timeout = TL_MAX_EXIT_TIMEOUT * DL_SEC_TO_MSECS;
 1213              	 .loc 1 170 0
 1214 001e FFF7FEFF 	 bl pal_os_timer_get_time_in_milliseconds
 1215              	.LVL117:
 171:C:/Workspace/DAVE-4.4.2-64Bit/optiga-trust-m/optiga/comms/ifx_i2c\ifx_i2c_data_link_layer.c **** 
 1216              	 .loc 1 171 0
 1217 0022 034B     	 ldr r3,.L119
 170:C:/Workspace/DAVE-4.4.2-64Bit/optiga-trust-m/optiga/comms/ifx_i2c\ifx_i2c_data_link_layer.c ****     p_ctx->dl.data_poll_timeout = TL_MAX_EXIT_TIMEOUT * DL_SEC_TO_MSECS;
 1218              	 .loc 1 170 0
 1219 0024 A067     	 str r0,[r4,#120]
 171:C:/Workspace/DAVE-4.4.2-64Bit/optiga-trust-m/optiga/comms/ifx_i2c\ifx_i2c_data_link_layer.c **** 
 1220              	 .loc 1 171 0
 1221 0026 A366     	 str r3,[r4,#104]
 173:C:/Workspace/DAVE-4.4.2-64Bit/optiga-trust-m/optiga/comms/ifx_i2c\ifx_i2c_data_link_layer.c **** }
 1222              	 .loc 1 173 0
 1223 0028 201C     	 mov r0,r4
 1224 002a FFF7FEFF 	 bl ifx_i2c_pl_receive_frame
 1225              	.LVL118:
 1226              	.L117:
 174:C:/Workspace/DAVE-4.4.2-64Bit/optiga-trust-m/optiga/comms/ifx_i2c\ifx_i2c_data_link_layer.c **** 
 1227              	 .loc 1 174 0
 1228              	 
 1229              	.LVL119:
 1230 002e 10BD     	 pop {r4,pc}
 1231              	.L120:
 1232              	 .align 2
 1233              	.L119:
 1234 0030 20BF0200 	 .word 180000
 1235              	 .cfi_endproc
 1236              	.LFE2:
 1238              	 .section .rodata.str1.1,"aMS",%progbits,1
 1239              	.LC2:
 1240 0000 3E3E3E3E 	 .ascii ">>>>\000"
 1240      00
 1241              	.LC4:
 1242 0005 5B6F7074 	 .ascii "[optiga comms]    : \000"
 1242      69676120 
 1242      636F6D6D 
 1242      735D2020 
 1242      20203A20 
 1243              	.LC6:
 1244 001a 1B5B306D 	 .ascii "\033[0m\000"
 1244      00
 1245              	.LC8:
 1246 001f 1B5B3333 	 .ascii "\033[33m\000"
 1246      6D00
 1247              	.LC10:
 1248 0025 1B5B3936 	 .ascii "\033[96m\000"
 1248      6D00
 1249              	.LC12:
 1250 002b 3C3C3C3C 	 .ascii "<<<<\000"
 1250      00
 1251              	 .text
 1252              	.Letext0:
 1253              	 .file 2 "c:\\dave_4-4-2_64bit\\dave-ide-4.4.2-64bit\\eclipse\\arm-gcc-49\\arm-none-eabi\\include\\machine\\_default_types.h"
 1254              	 .file 3 "c:\\dave_4-4-2_64bit\\dave-ide-4.4.2-64bit\\eclipse\\arm-gcc-49\\arm-none-eabi\\include\\stdint.h"
 1255              	 .file 4 "C:/Workspace/DAVE-4.4.2-64Bit/optiga-trust-m/optiga/include/optiga/common/optiga_lib_types.h"
 1256              	 .file 5 "C:/Workspace/DAVE-4.4.2-64Bit/optiga-trust-m/optiga/include/optiga/pal/pal_i2c.h"
 1257              	 .file 6 "C:/Workspace/DAVE-4.4.2-64Bit/optiga-trust-m/optiga/include/optiga/pal/pal_gpio.h"
 1258              	 .file 7 "C:/Workspace/DAVE-4.4.2-64Bit/optiga-trust-m/optiga/include/optiga/ifx_i2c/ifx_i2c_config.h"
 1259              	 .file 8 "C:/Workspace/DAVE-4.4.2-64Bit/optiga-trust-m/optiga/include/optiga/common/optiga_lib_logger.h"
 1260              	 .file 9 "C:/Workspace/DAVE-4.4.2-64Bit/optiga-trust-m/optiga/include/optiga/ifx_i2c/ifx_i2c_physical_layer.h"
 1261              	 .file 10 "C:/Workspace/DAVE-4.4.2-64Bit/optiga-trust-m/optiga/include/optiga/pal/pal_os_timer.h"