   1              	 .cpu cortex-m0
   2              	 .fpu softvfp
   3              	 .eabi_attribute 20,1
   4              	 .eabi_attribute 21,1
   5              	 .eabi_attribute 23,3
   6              	 .eabi_attribute 24,1
   7              	 .eabi_attribute 25,1
   8              	 .eabi_attribute 26,1
   9              	 .eabi_attribute 30,4
  10              	 .eabi_attribute 34,0
  11              	 .eabi_attribute 18,4
  12              	 .code 16
  13              	 .file "ifx_i2c.c"
  14              	 .text
  15              	.Ltext0:
  16              	 .cfi_sections .debug_frame
  17              	 .section .text.ifx_i2c_tl_event_handler,"ax",%progbits
  18              	 .align 1
  19              	 .global ifx_i2c_tl_event_handler
  20              	 .code 16
  21              	 .thumb_func
  23              	ifx_i2c_tl_event_handler:
  24              	.LFB5:
  25              	 .file 1 "C:/Workspace/DAVE-4.4.2-64Bit/optiga-trust-m/optiga/comms/ifx_i2c/ifx_i2c.c"
   1:C:/Workspace/DAVE-4.4.2-64Bit/optiga-trust-m/optiga/comms/ifx_i2c\ifx_i2c.c **** /**
   2:C:/Workspace/DAVE-4.4.2-64Bit/optiga-trust-m/optiga/comms/ifx_i2c\ifx_i2c.c **** * \copyright
   3:C:/Workspace/DAVE-4.4.2-64Bit/optiga-trust-m/optiga/comms/ifx_i2c\ifx_i2c.c **** * MIT License
   4:C:/Workspace/DAVE-4.4.2-64Bit/optiga-trust-m/optiga/comms/ifx_i2c\ifx_i2c.c **** *
   5:C:/Workspace/DAVE-4.4.2-64Bit/optiga-trust-m/optiga/comms/ifx_i2c\ifx_i2c.c **** * Copyright (c) 2019 Infineon Technologies AG
   6:C:/Workspace/DAVE-4.4.2-64Bit/optiga-trust-m/optiga/comms/ifx_i2c\ifx_i2c.c **** *
   7:C:/Workspace/DAVE-4.4.2-64Bit/optiga-trust-m/optiga/comms/ifx_i2c\ifx_i2c.c **** * Permission is hereby granted, free of charge, to any person obtaining a copy
   8:C:/Workspace/DAVE-4.4.2-64Bit/optiga-trust-m/optiga/comms/ifx_i2c\ifx_i2c.c **** * of this software and associated documentation files (the "Software"), to deal
   9:C:/Workspace/DAVE-4.4.2-64Bit/optiga-trust-m/optiga/comms/ifx_i2c\ifx_i2c.c **** * in the Software without restriction, including without limitation the rights
  10:C:/Workspace/DAVE-4.4.2-64Bit/optiga-trust-m/optiga/comms/ifx_i2c\ifx_i2c.c **** * to use, copy, modify, merge, publish, distribute, sublicense, and/or sell
  11:C:/Workspace/DAVE-4.4.2-64Bit/optiga-trust-m/optiga/comms/ifx_i2c\ifx_i2c.c **** * copies of the Software, and to permit persons to whom the Software is
  12:C:/Workspace/DAVE-4.4.2-64Bit/optiga-trust-m/optiga/comms/ifx_i2c\ifx_i2c.c **** * furnished to do so, subject to the following conditions:
  13:C:/Workspace/DAVE-4.4.2-64Bit/optiga-trust-m/optiga/comms/ifx_i2c\ifx_i2c.c **** *
  14:C:/Workspace/DAVE-4.4.2-64Bit/optiga-trust-m/optiga/comms/ifx_i2c\ifx_i2c.c **** * The above copyright notice and this permission notice shall be included in all
  15:C:/Workspace/DAVE-4.4.2-64Bit/optiga-trust-m/optiga/comms/ifx_i2c\ifx_i2c.c **** * copies or substantial portions of the Software.
  16:C:/Workspace/DAVE-4.4.2-64Bit/optiga-trust-m/optiga/comms/ifx_i2c\ifx_i2c.c **** *
  17:C:/Workspace/DAVE-4.4.2-64Bit/optiga-trust-m/optiga/comms/ifx_i2c\ifx_i2c.c **** * THE SOFTWARE IS PROVIDED "AS IS", WITHOUT WARRANTY OF ANY KIND, EXPRESS OR
  18:C:/Workspace/DAVE-4.4.2-64Bit/optiga-trust-m/optiga/comms/ifx_i2c\ifx_i2c.c **** * IMPLIED, INCLUDING BUT NOT LIMITED TO THE WARRANTIES OF MERCHANTABILITY,
  19:C:/Workspace/DAVE-4.4.2-64Bit/optiga-trust-m/optiga/comms/ifx_i2c\ifx_i2c.c **** * FITNESS FOR A PARTICULAR PURPOSE AND NONINFRINGEMENT. IN NO EVENT SHALL THE
  20:C:/Workspace/DAVE-4.4.2-64Bit/optiga-trust-m/optiga/comms/ifx_i2c\ifx_i2c.c **** * AUTHORS OR COPYRIGHT HOLDERS BE LIABLE FOR ANY CLAIM, DAMAGES OR OTHER
  21:C:/Workspace/DAVE-4.4.2-64Bit/optiga-trust-m/optiga/comms/ifx_i2c\ifx_i2c.c **** * LIABILITY, WHETHER IN AN ACTION OF CONTRACT, TORT OR OTHERWISE, ARISING FROM,
  22:C:/Workspace/DAVE-4.4.2-64Bit/optiga-trust-m/optiga/comms/ifx_i2c\ifx_i2c.c **** * OUT OF OR IN CONNECTION WITH THE SOFTWARE OR THE USE OR OTHER DEALINGS IN THE
  23:C:/Workspace/DAVE-4.4.2-64Bit/optiga-trust-m/optiga/comms/ifx_i2c\ifx_i2c.c **** * SOFTWARE
  24:C:/Workspace/DAVE-4.4.2-64Bit/optiga-trust-m/optiga/comms/ifx_i2c\ifx_i2c.c **** *
  25:C:/Workspace/DAVE-4.4.2-64Bit/optiga-trust-m/optiga/comms/ifx_i2c\ifx_i2c.c **** * \endcopyright
  26:C:/Workspace/DAVE-4.4.2-64Bit/optiga-trust-m/optiga/comms/ifx_i2c\ifx_i2c.c **** *
  27:C:/Workspace/DAVE-4.4.2-64Bit/optiga-trust-m/optiga/comms/ifx_i2c\ifx_i2c.c **** * \author Infineon Technologies AG
  28:C:/Workspace/DAVE-4.4.2-64Bit/optiga-trust-m/optiga/comms/ifx_i2c\ifx_i2c.c **** *
  29:C:/Workspace/DAVE-4.4.2-64Bit/optiga-trust-m/optiga/comms/ifx_i2c\ifx_i2c.c **** * \file ifx_i2c.c
  30:C:/Workspace/DAVE-4.4.2-64Bit/optiga-trust-m/optiga/comms/ifx_i2c\ifx_i2c.c **** *
  31:C:/Workspace/DAVE-4.4.2-64Bit/optiga-trust-m/optiga/comms/ifx_i2c\ifx_i2c.c **** * \brief   This file implements the wrapper API Layer for IFX I2C protocol v2.00.
  32:C:/Workspace/DAVE-4.4.2-64Bit/optiga-trust-m/optiga/comms/ifx_i2c\ifx_i2c.c **** *
  33:C:/Workspace/DAVE-4.4.2-64Bit/optiga-trust-m/optiga/comms/ifx_i2c\ifx_i2c.c **** * \ingroup  grIFXI2C
  34:C:/Workspace/DAVE-4.4.2-64Bit/optiga-trust-m/optiga/comms/ifx_i2c\ifx_i2c.c **** *
  35:C:/Workspace/DAVE-4.4.2-64Bit/optiga-trust-m/optiga/comms/ifx_i2c\ifx_i2c.c **** * @{
  36:C:/Workspace/DAVE-4.4.2-64Bit/optiga-trust-m/optiga/comms/ifx_i2c\ifx_i2c.c **** */
  37:C:/Workspace/DAVE-4.4.2-64Bit/optiga-trust-m/optiga/comms/ifx_i2c\ifx_i2c.c **** 
  38:C:/Workspace/DAVE-4.4.2-64Bit/optiga-trust-m/optiga/comms/ifx_i2c\ifx_i2c.c **** #include "optiga/ifx_i2c/ifx_i2c.h"
  39:C:/Workspace/DAVE-4.4.2-64Bit/optiga-trust-m/optiga/comms/ifx_i2c\ifx_i2c.c **** #include "optiga/pal/pal_os_event.h"
  40:C:/Workspace/DAVE-4.4.2-64Bit/optiga-trust-m/optiga/comms/ifx_i2c\ifx_i2c.c **** 
  41:C:/Workspace/DAVE-4.4.2-64Bit/optiga-trust-m/optiga/comms/ifx_i2c\ifx_i2c.c **** #ifndef OPTIGA_COMMS_SHIELDED_CONNECTION
  42:C:/Workspace/DAVE-4.4.2-64Bit/optiga-trust-m/optiga/comms/ifx_i2c\ifx_i2c.c **** #include "optiga/ifx_i2c/ifx_i2c_transport_layer.h"
  43:C:/Workspace/DAVE-4.4.2-64Bit/optiga-trust-m/optiga/comms/ifx_i2c\ifx_i2c.c **** #else
  44:C:/Workspace/DAVE-4.4.2-64Bit/optiga-trust-m/optiga/comms/ifx_i2c\ifx_i2c.c **** #include "optiga/ifx_i2c/ifx_i2c_presentation_layer.h"
  45:C:/Workspace/DAVE-4.4.2-64Bit/optiga-trust-m/optiga/comms/ifx_i2c\ifx_i2c.c **** #endif
  46:C:/Workspace/DAVE-4.4.2-64Bit/optiga-trust-m/optiga/comms/ifx_i2c\ifx_i2c.c **** 
  47:C:/Workspace/DAVE-4.4.2-64Bit/optiga-trust-m/optiga/comms/ifx_i2c\ifx_i2c.c **** /// @cond hidden
  48:C:/Workspace/DAVE-4.4.2-64Bit/optiga-trust-m/optiga/comms/ifx_i2c\ifx_i2c.c **** 
  49:C:/Workspace/DAVE-4.4.2-64Bit/optiga-trust-m/optiga/comms/ifx_i2c\ifx_i2c.c **** // IFX I2C states
  50:C:/Workspace/DAVE-4.4.2-64Bit/optiga-trust-m/optiga/comms/ifx_i2c\ifx_i2c.c **** #define IFX_I2C_STATE_UNINIT         (0x01)
  51:C:/Workspace/DAVE-4.4.2-64Bit/optiga-trust-m/optiga/comms/ifx_i2c\ifx_i2c.c **** #define IFX_I2C_STATE_IDLE           (0x02)
  52:C:/Workspace/DAVE-4.4.2-64Bit/optiga-trust-m/optiga/comms/ifx_i2c\ifx_i2c.c **** #define IFX_I2C_STATUS_BUSY          (0x03)
  53:C:/Workspace/DAVE-4.4.2-64Bit/optiga-trust-m/optiga/comms/ifx_i2c\ifx_i2c.c **** #define IFX_I2C_STATUS_NOT_BUSY      (0x04)
  54:C:/Workspace/DAVE-4.4.2-64Bit/optiga-trust-m/optiga/comms/ifx_i2c\ifx_i2c.c **** 
  55:C:/Workspace/DAVE-4.4.2-64Bit/optiga-trust-m/optiga/comms/ifx_i2c\ifx_i2c.c **** /// IFX I2C Reset states
  56:C:/Workspace/DAVE-4.4.2-64Bit/optiga-trust-m/optiga/comms/ifx_i2c\ifx_i2c.c **** #define IFX_I2C_STATE_RESET_PIN_LOW        (0xB1)
  57:C:/Workspace/DAVE-4.4.2-64Bit/optiga-trust-m/optiga/comms/ifx_i2c\ifx_i2c.c **** #define IFX_I2C_STATE_RESET_PIN_HIGH       (0xB2)
  58:C:/Workspace/DAVE-4.4.2-64Bit/optiga-trust-m/optiga/comms/ifx_i2c\ifx_i2c.c **** #define IFX_I2C_STATE_RESET_INIT           (0xB3)
  59:C:/Workspace/DAVE-4.4.2-64Bit/optiga-trust-m/optiga/comms/ifx_i2c\ifx_i2c.c **** 
  60:C:/Workspace/DAVE-4.4.2-64Bit/optiga-trust-m/optiga/comms/ifx_i2c\ifx_i2c.c **** void ifx_i2c_tl_event_handler(ifx_i2c_context_t * p_ctx,
  61:C:/Workspace/DAVE-4.4.2-64Bit/optiga-trust-m/optiga/comms/ifx_i2c\ifx_i2c.c ****                               optiga_lib_status_t event,
  62:C:/Workspace/DAVE-4.4.2-64Bit/optiga-trust-m/optiga/comms/ifx_i2c\ifx_i2c.c ****                               const uint8_t * p_data,
  63:C:/Workspace/DAVE-4.4.2-64Bit/optiga-trust-m/optiga/comms/ifx_i2c\ifx_i2c.c ****                               uint16_t data_len);
  64:C:/Workspace/DAVE-4.4.2-64Bit/optiga-trust-m/optiga/comms/ifx_i2c\ifx_i2c.c **** 
  65:C:/Workspace/DAVE-4.4.2-64Bit/optiga-trust-m/optiga/comms/ifx_i2c\ifx_i2c.c **** void ifx_i2c_prl_close_event_handler(ifx_i2c_context_t * p_ctx,
  66:C:/Workspace/DAVE-4.4.2-64Bit/optiga-trust-m/optiga/comms/ifx_i2c\ifx_i2c.c ****                                      optiga_lib_status_t event,
  67:C:/Workspace/DAVE-4.4.2-64Bit/optiga-trust-m/optiga/comms/ifx_i2c\ifx_i2c.c ****                                      const uint8_t * p_data,
  68:C:/Workspace/DAVE-4.4.2-64Bit/optiga-trust-m/optiga/comms/ifx_i2c\ifx_i2c.c ****                                      uint16_t data_len);
  69:C:/Workspace/DAVE-4.4.2-64Bit/optiga-trust-m/optiga/comms/ifx_i2c\ifx_i2c.c **** 
  70:C:/Workspace/DAVE-4.4.2-64Bit/optiga-trust-m/optiga/comms/ifx_i2c\ifx_i2c.c **** _STATIC_H optiga_lib_status_t ifx_i2c_init(ifx_i2c_context_t * p_ifx_i2c_context);
  71:C:/Workspace/DAVE-4.4.2-64Bit/optiga-trust-m/optiga/comms/ifx_i2c\ifx_i2c.c **** 
  72:C:/Workspace/DAVE-4.4.2-64Bit/optiga-trust-m/optiga/comms/ifx_i2c\ifx_i2c.c **** //lint --e{526} suppress "This API is defined in ifx_i2c_physical_layer.c file. As it is a low leve
  73:C:/Workspace/DAVE-4.4.2-64Bit/optiga-trust-m/optiga/comms/ifx_i2c\ifx_i2c.c **** extern optiga_lib_status_t ifx_i2c_pl_write_slave_address(ifx_i2c_context_t * p_ctx,
  74:C:/Workspace/DAVE-4.4.2-64Bit/optiga-trust-m/optiga/comms/ifx_i2c\ifx_i2c.c ****                                                           uint8_t slave_address,
  75:C:/Workspace/DAVE-4.4.2-64Bit/optiga-trust-m/optiga/comms/ifx_i2c\ifx_i2c.c ****                                                           uint8_t storage_type);
  76:C:/Workspace/DAVE-4.4.2-64Bit/optiga-trust-m/optiga/comms/ifx_i2c\ifx_i2c.c **** /// @endcond
  77:C:/Workspace/DAVE-4.4.2-64Bit/optiga-trust-m/optiga/comms/ifx_i2c\ifx_i2c.c **** 
  78:C:/Workspace/DAVE-4.4.2-64Bit/optiga-trust-m/optiga/comms/ifx_i2c\ifx_i2c.c **** optiga_lib_status_t ifx_i2c_open(ifx_i2c_context_t * p_ctx)
  79:C:/Workspace/DAVE-4.4.2-64Bit/optiga-trust-m/optiga/comms/ifx_i2c\ifx_i2c.c **** {
  80:C:/Workspace/DAVE-4.4.2-64Bit/optiga-trust-m/optiga/comms/ifx_i2c\ifx_i2c.c ****     optiga_lib_status_t api_status = (int32_t)IFX_I2C_STACK_ERROR;
  81:C:/Workspace/DAVE-4.4.2-64Bit/optiga-trust-m/optiga/comms/ifx_i2c\ifx_i2c.c **** 
  82:C:/Workspace/DAVE-4.4.2-64Bit/optiga-trust-m/optiga/comms/ifx_i2c\ifx_i2c.c ****     //If api status is not busy, proceed
  83:C:/Workspace/DAVE-4.4.2-64Bit/optiga-trust-m/optiga/comms/ifx_i2c\ifx_i2c.c ****     if ((IFX_I2C_STATUS_BUSY != p_ctx->status))
  84:C:/Workspace/DAVE-4.4.2-64Bit/optiga-trust-m/optiga/comms/ifx_i2c\ifx_i2c.c ****     {
  85:C:/Workspace/DAVE-4.4.2-64Bit/optiga-trust-m/optiga/comms/ifx_i2c\ifx_i2c.c ****         do
  86:C:/Workspace/DAVE-4.4.2-64Bit/optiga-trust-m/optiga/comms/ifx_i2c\ifx_i2c.c ****         {
  87:C:/Workspace/DAVE-4.4.2-64Bit/optiga-trust-m/optiga/comms/ifx_i2c\ifx_i2c.c ****             p_ctx->p_pal_i2c_ctx->p_upper_layer_ctx = p_ctx;
  88:C:/Workspace/DAVE-4.4.2-64Bit/optiga-trust-m/optiga/comms/ifx_i2c\ifx_i2c.c ****             p_ctx->reset_type = OPTIGA_COMMS_DEFAULT_RESET_TYPE;
  89:C:/Workspace/DAVE-4.4.2-64Bit/optiga-trust-m/optiga/comms/ifx_i2c\ifx_i2c.c ****             if(p_ctx->reset_type > (uint8_t)IFX_I2C_WARM_RESET)
  90:C:/Workspace/DAVE-4.4.2-64Bit/optiga-trust-m/optiga/comms/ifx_i2c\ifx_i2c.c ****             {
  91:C:/Workspace/DAVE-4.4.2-64Bit/optiga-trust-m/optiga/comms/ifx_i2c\ifx_i2c.c ****                 break;
  92:C:/Workspace/DAVE-4.4.2-64Bit/optiga-trust-m/optiga/comms/ifx_i2c\ifx_i2c.c ****             }
  93:C:/Workspace/DAVE-4.4.2-64Bit/optiga-trust-m/optiga/comms/ifx_i2c\ifx_i2c.c ****             p_ctx->reset_state = IFX_I2C_STATE_RESET_PIN_LOW;
  94:C:/Workspace/DAVE-4.4.2-64Bit/optiga-trust-m/optiga/comms/ifx_i2c\ifx_i2c.c ****             p_ctx->do_pal_init = TRUE;
  95:C:/Workspace/DAVE-4.4.2-64Bit/optiga-trust-m/optiga/comms/ifx_i2c\ifx_i2c.c ****             p_ctx->state = IFX_I2C_STATE_UNINIT;
  96:C:/Workspace/DAVE-4.4.2-64Bit/optiga-trust-m/optiga/comms/ifx_i2c\ifx_i2c.c **** 
  97:C:/Workspace/DAVE-4.4.2-64Bit/optiga-trust-m/optiga/comms/ifx_i2c\ifx_i2c.c ****             api_status = ifx_i2c_init(p_ctx);
  98:C:/Workspace/DAVE-4.4.2-64Bit/optiga-trust-m/optiga/comms/ifx_i2c\ifx_i2c.c ****             if (IFX_I2C_STACK_SUCCESS == api_status)
  99:C:/Workspace/DAVE-4.4.2-64Bit/optiga-trust-m/optiga/comms/ifx_i2c\ifx_i2c.c ****             {
 100:C:/Workspace/DAVE-4.4.2-64Bit/optiga-trust-m/optiga/comms/ifx_i2c\ifx_i2c.c ****                 p_ctx->status = IFX_I2C_STATUS_BUSY;
 101:C:/Workspace/DAVE-4.4.2-64Bit/optiga-trust-m/optiga/comms/ifx_i2c\ifx_i2c.c ****             }
 102:C:/Workspace/DAVE-4.4.2-64Bit/optiga-trust-m/optiga/comms/ifx_i2c\ifx_i2c.c ****         }while(FALSE);
 103:C:/Workspace/DAVE-4.4.2-64Bit/optiga-trust-m/optiga/comms/ifx_i2c\ifx_i2c.c ****     }
 104:C:/Workspace/DAVE-4.4.2-64Bit/optiga-trust-m/optiga/comms/ifx_i2c\ifx_i2c.c ****     return (api_status);
 105:C:/Workspace/DAVE-4.4.2-64Bit/optiga-trust-m/optiga/comms/ifx_i2c\ifx_i2c.c **** }
 106:C:/Workspace/DAVE-4.4.2-64Bit/optiga-trust-m/optiga/comms/ifx_i2c\ifx_i2c.c **** 
 107:C:/Workspace/DAVE-4.4.2-64Bit/optiga-trust-m/optiga/comms/ifx_i2c\ifx_i2c.c **** 
 108:C:/Workspace/DAVE-4.4.2-64Bit/optiga-trust-m/optiga/comms/ifx_i2c\ifx_i2c.c **** optiga_lib_status_t ifx_i2c_reset(ifx_i2c_context_t * p_ctx,
 109:C:/Workspace/DAVE-4.4.2-64Bit/optiga-trust-m/optiga/comms/ifx_i2c\ifx_i2c.c ****                                   ifx_i2c_reset_type_t reset_type)
 110:C:/Workspace/DAVE-4.4.2-64Bit/optiga-trust-m/optiga/comms/ifx_i2c\ifx_i2c.c **** {
 111:C:/Workspace/DAVE-4.4.2-64Bit/optiga-trust-m/optiga/comms/ifx_i2c\ifx_i2c.c ****     optiga_lib_status_t api_status = (int32_t)IFX_I2C_STACK_ERROR;
 112:C:/Workspace/DAVE-4.4.2-64Bit/optiga-trust-m/optiga/comms/ifx_i2c\ifx_i2c.c **** 
 113:C:/Workspace/DAVE-4.4.2-64Bit/optiga-trust-m/optiga/comms/ifx_i2c\ifx_i2c.c ****     // Proceed, if not busy and in idle state
 114:C:/Workspace/DAVE-4.4.2-64Bit/optiga-trust-m/optiga/comms/ifx_i2c\ifx_i2c.c ****     if ((IFX_I2C_STATE_IDLE == p_ctx->state) && (IFX_I2C_STATUS_BUSY != p_ctx->status))
 115:C:/Workspace/DAVE-4.4.2-64Bit/optiga-trust-m/optiga/comms/ifx_i2c\ifx_i2c.c ****     {
 116:C:/Workspace/DAVE-4.4.2-64Bit/optiga-trust-m/optiga/comms/ifx_i2c\ifx_i2c.c ****         p_ctx->reset_type = (uint8_t)reset_type;
 117:C:/Workspace/DAVE-4.4.2-64Bit/optiga-trust-m/optiga/comms/ifx_i2c\ifx_i2c.c ****         p_ctx->reset_state = IFX_I2C_STATE_RESET_PIN_LOW;
 118:C:/Workspace/DAVE-4.4.2-64Bit/optiga-trust-m/optiga/comms/ifx_i2c\ifx_i2c.c ****         p_ctx->do_pal_init = FALSE;
 119:C:/Workspace/DAVE-4.4.2-64Bit/optiga-trust-m/optiga/comms/ifx_i2c\ifx_i2c.c **** 
 120:C:/Workspace/DAVE-4.4.2-64Bit/optiga-trust-m/optiga/comms/ifx_i2c\ifx_i2c.c ****         api_status = ifx_i2c_init(p_ctx);
 121:C:/Workspace/DAVE-4.4.2-64Bit/optiga-trust-m/optiga/comms/ifx_i2c\ifx_i2c.c ****         if (IFX_I2C_STACK_SUCCESS == api_status)
 122:C:/Workspace/DAVE-4.4.2-64Bit/optiga-trust-m/optiga/comms/ifx_i2c\ifx_i2c.c ****         {
 123:C:/Workspace/DAVE-4.4.2-64Bit/optiga-trust-m/optiga/comms/ifx_i2c\ifx_i2c.c ****             p_ctx->status = IFX_I2C_STATUS_BUSY;
 124:C:/Workspace/DAVE-4.4.2-64Bit/optiga-trust-m/optiga/comms/ifx_i2c\ifx_i2c.c ****         }
 125:C:/Workspace/DAVE-4.4.2-64Bit/optiga-trust-m/optiga/comms/ifx_i2c\ifx_i2c.c ****     }
 126:C:/Workspace/DAVE-4.4.2-64Bit/optiga-trust-m/optiga/comms/ifx_i2c\ifx_i2c.c ****     return (api_status);
 127:C:/Workspace/DAVE-4.4.2-64Bit/optiga-trust-m/optiga/comms/ifx_i2c\ifx_i2c.c **** }
 128:C:/Workspace/DAVE-4.4.2-64Bit/optiga-trust-m/optiga/comms/ifx_i2c\ifx_i2c.c **** 
 129:C:/Workspace/DAVE-4.4.2-64Bit/optiga-trust-m/optiga/comms/ifx_i2c\ifx_i2c.c **** 
 130:C:/Workspace/DAVE-4.4.2-64Bit/optiga-trust-m/optiga/comms/ifx_i2c\ifx_i2c.c **** optiga_lib_status_t ifx_i2c_transceive(ifx_i2c_context_t * p_ctx,
 131:C:/Workspace/DAVE-4.4.2-64Bit/optiga-trust-m/optiga/comms/ifx_i2c\ifx_i2c.c ****                                        const uint8_t * p_tx_data,
 132:C:/Workspace/DAVE-4.4.2-64Bit/optiga-trust-m/optiga/comms/ifx_i2c\ifx_i2c.c ****                                        uint16_t tx_data_length,
 133:C:/Workspace/DAVE-4.4.2-64Bit/optiga-trust-m/optiga/comms/ifx_i2c\ifx_i2c.c ****                                        uint8_t * p_rx_buffer,
 134:C:/Workspace/DAVE-4.4.2-64Bit/optiga-trust-m/optiga/comms/ifx_i2c\ifx_i2c.c ****                                        uint16_t * p_rx_buffer_len)
 135:C:/Workspace/DAVE-4.4.2-64Bit/optiga-trust-m/optiga/comms/ifx_i2c\ifx_i2c.c **** {
 136:C:/Workspace/DAVE-4.4.2-64Bit/optiga-trust-m/optiga/comms/ifx_i2c\ifx_i2c.c ****     optiga_lib_status_t api_status = (int32_t)IFX_I2C_STACK_ERROR;
 137:C:/Workspace/DAVE-4.4.2-64Bit/optiga-trust-m/optiga/comms/ifx_i2c\ifx_i2c.c ****     // Proceed, if not busy and in idle state
 138:C:/Workspace/DAVE-4.4.2-64Bit/optiga-trust-m/optiga/comms/ifx_i2c\ifx_i2c.c ****     if ((IFX_I2C_STATE_IDLE == p_ctx->state) && (IFX_I2C_STATUS_BUSY != p_ctx->status))
 139:C:/Workspace/DAVE-4.4.2-64Bit/optiga-trust-m/optiga/comms/ifx_i2c\ifx_i2c.c ****     {
 140:C:/Workspace/DAVE-4.4.2-64Bit/optiga-trust-m/optiga/comms/ifx_i2c\ifx_i2c.c ****         p_ctx->p_upper_layer_rx_buffer = p_rx_buffer;
 141:C:/Workspace/DAVE-4.4.2-64Bit/optiga-trust-m/optiga/comms/ifx_i2c\ifx_i2c.c ****         p_ctx->p_upper_layer_rx_buffer_len = p_rx_buffer_len;
 142:C:/Workspace/DAVE-4.4.2-64Bit/optiga-trust-m/optiga/comms/ifx_i2c\ifx_i2c.c **** #ifndef OPTIGA_COMMS_SHIELDED_CONNECTION
 143:C:/Workspace/DAVE-4.4.2-64Bit/optiga-trust-m/optiga/comms/ifx_i2c\ifx_i2c.c ****         api_status = ifx_i2c_tl_transceive(p_ctx,
 144:C:/Workspace/DAVE-4.4.2-64Bit/optiga-trust-m/optiga/comms/ifx_i2c\ifx_i2c.c ****                                            (uint8_t * )p_tx_data,
 145:C:/Workspace/DAVE-4.4.2-64Bit/optiga-trust-m/optiga/comms/ifx_i2c\ifx_i2c.c ****                                            (tx_data_length),
 146:C:/Workspace/DAVE-4.4.2-64Bit/optiga-trust-m/optiga/comms/ifx_i2c\ifx_i2c.c ****                                            (uint8_t * )p_rx_buffer,
 147:C:/Workspace/DAVE-4.4.2-64Bit/optiga-trust-m/optiga/comms/ifx_i2c\ifx_i2c.c ****                                            p_rx_buffer_len);
 148:C:/Workspace/DAVE-4.4.2-64Bit/optiga-trust-m/optiga/comms/ifx_i2c\ifx_i2c.c ****         if (IFX_I2C_STACK_SUCCESS == api_status)
 149:C:/Workspace/DAVE-4.4.2-64Bit/optiga-trust-m/optiga/comms/ifx_i2c\ifx_i2c.c ****         {
 150:C:/Workspace/DAVE-4.4.2-64Bit/optiga-trust-m/optiga/comms/ifx_i2c\ifx_i2c.c ****             p_ctx->status = IFX_I2C_STATUS_BUSY;
 151:C:/Workspace/DAVE-4.4.2-64Bit/optiga-trust-m/optiga/comms/ifx_i2c\ifx_i2c.c ****         }
 152:C:/Workspace/DAVE-4.4.2-64Bit/optiga-trust-m/optiga/comms/ifx_i2c\ifx_i2c.c **** #else
 153:C:/Workspace/DAVE-4.4.2-64Bit/optiga-trust-m/optiga/comms/ifx_i2c\ifx_i2c.c ****         api_status = ifx_i2c_prl_transceive(p_ctx,
 154:C:/Workspace/DAVE-4.4.2-64Bit/optiga-trust-m/optiga/comms/ifx_i2c\ifx_i2c.c ****                                          (uint8_t * )p_tx_data,
 155:C:/Workspace/DAVE-4.4.2-64Bit/optiga-trust-m/optiga/comms/ifx_i2c\ifx_i2c.c ****                                          tx_data_length,
 156:C:/Workspace/DAVE-4.4.2-64Bit/optiga-trust-m/optiga/comms/ifx_i2c\ifx_i2c.c ****                                          (uint8_t * )p_rx_buffer,
 157:C:/Workspace/DAVE-4.4.2-64Bit/optiga-trust-m/optiga/comms/ifx_i2c\ifx_i2c.c ****                                          p_rx_buffer_len);
 158:C:/Workspace/DAVE-4.4.2-64Bit/optiga-trust-m/optiga/comms/ifx_i2c\ifx_i2c.c **** #endif
 159:C:/Workspace/DAVE-4.4.2-64Bit/optiga-trust-m/optiga/comms/ifx_i2c\ifx_i2c.c ****         if ((IFX_I2C_STACK_SUCCESS == api_status) && (IFX_I2C_STACK_SUCCESS == p_ctx->close_state))
 160:C:/Workspace/DAVE-4.4.2-64Bit/optiga-trust-m/optiga/comms/ifx_i2c\ifx_i2c.c ****         {
 161:C:/Workspace/DAVE-4.4.2-64Bit/optiga-trust-m/optiga/comms/ifx_i2c\ifx_i2c.c ****             p_ctx->status = IFX_I2C_STATUS_BUSY;
 162:C:/Workspace/DAVE-4.4.2-64Bit/optiga-trust-m/optiga/comms/ifx_i2c\ifx_i2c.c ****         }
 163:C:/Workspace/DAVE-4.4.2-64Bit/optiga-trust-m/optiga/comms/ifx_i2c\ifx_i2c.c ****     }
 164:C:/Workspace/DAVE-4.4.2-64Bit/optiga-trust-m/optiga/comms/ifx_i2c\ifx_i2c.c ****     return (api_status);
 165:C:/Workspace/DAVE-4.4.2-64Bit/optiga-trust-m/optiga/comms/ifx_i2c\ifx_i2c.c **** }
 166:C:/Workspace/DAVE-4.4.2-64Bit/optiga-trust-m/optiga/comms/ifx_i2c\ifx_i2c.c **** 
 167:C:/Workspace/DAVE-4.4.2-64Bit/optiga-trust-m/optiga/comms/ifx_i2c\ifx_i2c.c **** 
 168:C:/Workspace/DAVE-4.4.2-64Bit/optiga-trust-m/optiga/comms/ifx_i2c\ifx_i2c.c **** optiga_lib_status_t ifx_i2c_close(ifx_i2c_context_t * p_ctx)
 169:C:/Workspace/DAVE-4.4.2-64Bit/optiga-trust-m/optiga/comms/ifx_i2c\ifx_i2c.c **** {
 170:C:/Workspace/DAVE-4.4.2-64Bit/optiga-trust-m/optiga/comms/ifx_i2c\ifx_i2c.c ****     optiga_lib_status_t api_status = (int32_t)IFX_I2C_STACK_ERROR;
 171:C:/Workspace/DAVE-4.4.2-64Bit/optiga-trust-m/optiga/comms/ifx_i2c\ifx_i2c.c ****     // Proceed, if not busy and in idle state
 172:C:/Workspace/DAVE-4.4.2-64Bit/optiga-trust-m/optiga/comms/ifx_i2c\ifx_i2c.c ****     if (IFX_I2C_STATUS_BUSY != p_ctx->status)
 173:C:/Workspace/DAVE-4.4.2-64Bit/optiga-trust-m/optiga/comms/ifx_i2c\ifx_i2c.c ****     {
 174:C:/Workspace/DAVE-4.4.2-64Bit/optiga-trust-m/optiga/comms/ifx_i2c\ifx_i2c.c ****         api_status = IFX_I2C_STACK_SUCCESS;
 175:C:/Workspace/DAVE-4.4.2-64Bit/optiga-trust-m/optiga/comms/ifx_i2c\ifx_i2c.c **** 
 176:C:/Workspace/DAVE-4.4.2-64Bit/optiga-trust-m/optiga/comms/ifx_i2c\ifx_i2c.c **** #ifdef OPTIGA_COMMS_SHIELDED_CONNECTION
 177:C:/Workspace/DAVE-4.4.2-64Bit/optiga-trust-m/optiga/comms/ifx_i2c\ifx_i2c.c ****         p_ctx->close_state = IFX_I2C_STACK_ERROR;
 178:C:/Workspace/DAVE-4.4.2-64Bit/optiga-trust-m/optiga/comms/ifx_i2c\ifx_i2c.c ****         p_ctx->state = IFX_I2C_STATE_UNINIT;
 179:C:/Workspace/DAVE-4.4.2-64Bit/optiga-trust-m/optiga/comms/ifx_i2c\ifx_i2c.c ****         api_status = ifx_i2c_prl_close(p_ctx, ifx_i2c_prl_close_event_handler);
 180:C:/Workspace/DAVE-4.4.2-64Bit/optiga-trust-m/optiga/comms/ifx_i2c\ifx_i2c.c ****         if (IFX_I2C_STACK_ERROR == api_status)
 181:C:/Workspace/DAVE-4.4.2-64Bit/optiga-trust-m/optiga/comms/ifx_i2c\ifx_i2c.c ****         {
 182:C:/Workspace/DAVE-4.4.2-64Bit/optiga-trust-m/optiga/comms/ifx_i2c\ifx_i2c.c ****             //lint --e{534} suppress "Error handling is not required so return value is not checked
 183:C:/Workspace/DAVE-4.4.2-64Bit/optiga-trust-m/optiga/comms/ifx_i2c\ifx_i2c.c ****             pal_i2c_deinit(p_ctx->p_pal_i2c_ctx);
 184:C:/Workspace/DAVE-4.4.2-64Bit/optiga-trust-m/optiga/comms/ifx_i2c\ifx_i2c.c ****             // Also power off the device
 185:C:/Workspace/DAVE-4.4.2-64Bit/optiga-trust-m/optiga/comms/ifx_i2c\ifx_i2c.c ****             pal_gpio_set_low(p_ctx->p_slave_vdd_pin);
 186:C:/Workspace/DAVE-4.4.2-64Bit/optiga-trust-m/optiga/comms/ifx_i2c\ifx_i2c.c ****             pal_gpio_set_low(p_ctx->p_slave_reset_pin);
 187:C:/Workspace/DAVE-4.4.2-64Bit/optiga-trust-m/optiga/comms/ifx_i2c\ifx_i2c.c ****             p_ctx->status = IFX_I2C_STATUS_NOT_BUSY;
 188:C:/Workspace/DAVE-4.4.2-64Bit/optiga-trust-m/optiga/comms/ifx_i2c\ifx_i2c.c ****         }
 189:C:/Workspace/DAVE-4.4.2-64Bit/optiga-trust-m/optiga/comms/ifx_i2c\ifx_i2c.c **** #else
 190:C:/Workspace/DAVE-4.4.2-64Bit/optiga-trust-m/optiga/comms/ifx_i2c\ifx_i2c.c ****         ifx_i2c_tl_event_handler(p_ctx, IFX_I2C_STACK_SUCCESS, NULL, 0);
 191:C:/Workspace/DAVE-4.4.2-64Bit/optiga-trust-m/optiga/comms/ifx_i2c\ifx_i2c.c ****         //lint --e{534} suppress "Error handling is not required so return value is not checked"
 192:C:/Workspace/DAVE-4.4.2-64Bit/optiga-trust-m/optiga/comms/ifx_i2c\ifx_i2c.c ****         // Close I2C master
 193:C:/Workspace/DAVE-4.4.2-64Bit/optiga-trust-m/optiga/comms/ifx_i2c\ifx_i2c.c ****         pal_i2c_deinit(p_ctx->p_pal_i2c_ctx);
 194:C:/Workspace/DAVE-4.4.2-64Bit/optiga-trust-m/optiga/comms/ifx_i2c\ifx_i2c.c ****         // Also power off the device
 195:C:/Workspace/DAVE-4.4.2-64Bit/optiga-trust-m/optiga/comms/ifx_i2c\ifx_i2c.c ****         pal_gpio_set_low(p_ctx->p_slave_vdd_pin);
 196:C:/Workspace/DAVE-4.4.2-64Bit/optiga-trust-m/optiga/comms/ifx_i2c\ifx_i2c.c ****         pal_gpio_set_low(p_ctx->p_slave_reset_pin);
 197:C:/Workspace/DAVE-4.4.2-64Bit/optiga-trust-m/optiga/comms/ifx_i2c\ifx_i2c.c ****         p_ctx->state = IFX_I2C_STATE_UNINIT;
 198:C:/Workspace/DAVE-4.4.2-64Bit/optiga-trust-m/optiga/comms/ifx_i2c\ifx_i2c.c ****         p_ctx->status = IFX_I2C_STATUS_NOT_BUSY;
 199:C:/Workspace/DAVE-4.4.2-64Bit/optiga-trust-m/optiga/comms/ifx_i2c\ifx_i2c.c **** #endif
 200:C:/Workspace/DAVE-4.4.2-64Bit/optiga-trust-m/optiga/comms/ifx_i2c\ifx_i2c.c **** 
 201:C:/Workspace/DAVE-4.4.2-64Bit/optiga-trust-m/optiga/comms/ifx_i2c\ifx_i2c.c ****     }
 202:C:/Workspace/DAVE-4.4.2-64Bit/optiga-trust-m/optiga/comms/ifx_i2c\ifx_i2c.c ****     return (api_status);
 203:C:/Workspace/DAVE-4.4.2-64Bit/optiga-trust-m/optiga/comms/ifx_i2c\ifx_i2c.c **** }
 204:C:/Workspace/DAVE-4.4.2-64Bit/optiga-trust-m/optiga/comms/ifx_i2c\ifx_i2c.c **** 
 205:C:/Workspace/DAVE-4.4.2-64Bit/optiga-trust-m/optiga/comms/ifx_i2c\ifx_i2c.c **** 
 206:C:/Workspace/DAVE-4.4.2-64Bit/optiga-trust-m/optiga/comms/ifx_i2c\ifx_i2c.c **** optiga_lib_status_t ifx_i2c_set_slave_address(ifx_i2c_context_t * p_ctx,
 207:C:/Workspace/DAVE-4.4.2-64Bit/optiga-trust-m/optiga/comms/ifx_i2c\ifx_i2c.c ****                                               uint8_t slave_address,
 208:C:/Workspace/DAVE-4.4.2-64Bit/optiga-trust-m/optiga/comms/ifx_i2c\ifx_i2c.c ****                                               uint8_t persistent)
 209:C:/Workspace/DAVE-4.4.2-64Bit/optiga-trust-m/optiga/comms/ifx_i2c\ifx_i2c.c **** {
 210:C:/Workspace/DAVE-4.4.2-64Bit/optiga-trust-m/optiga/comms/ifx_i2c\ifx_i2c.c ****     optiga_lib_status_t api_status = (int32_t)IFX_I2C_STACK_ERROR;
 211:C:/Workspace/DAVE-4.4.2-64Bit/optiga-trust-m/optiga/comms/ifx_i2c\ifx_i2c.c **** 
 212:C:/Workspace/DAVE-4.4.2-64Bit/optiga-trust-m/optiga/comms/ifx_i2c\ifx_i2c.c ****     if ((IFX_I2C_STATE_IDLE == p_ctx->state))
 213:C:/Workspace/DAVE-4.4.2-64Bit/optiga-trust-m/optiga/comms/ifx_i2c\ifx_i2c.c ****     {
 214:C:/Workspace/DAVE-4.4.2-64Bit/optiga-trust-m/optiga/comms/ifx_i2c\ifx_i2c.c ****         p_ctx->p_pal_i2c_ctx->p_upper_layer_ctx = p_ctx;
 215:C:/Workspace/DAVE-4.4.2-64Bit/optiga-trust-m/optiga/comms/ifx_i2c\ifx_i2c.c **** 
 216:C:/Workspace/DAVE-4.4.2-64Bit/optiga-trust-m/optiga/comms/ifx_i2c\ifx_i2c.c ****         api_status = ifx_i2c_pl_write_slave_address(p_ctx, slave_address, persistent);
 217:C:/Workspace/DAVE-4.4.2-64Bit/optiga-trust-m/optiga/comms/ifx_i2c\ifx_i2c.c ****     }
 218:C:/Workspace/DAVE-4.4.2-64Bit/optiga-trust-m/optiga/comms/ifx_i2c\ifx_i2c.c **** 
 219:C:/Workspace/DAVE-4.4.2-64Bit/optiga-trust-m/optiga/comms/ifx_i2c\ifx_i2c.c ****     return (api_status);
 220:C:/Workspace/DAVE-4.4.2-64Bit/optiga-trust-m/optiga/comms/ifx_i2c\ifx_i2c.c **** }
 221:C:/Workspace/DAVE-4.4.2-64Bit/optiga-trust-m/optiga/comms/ifx_i2c\ifx_i2c.c **** 
 222:C:/Workspace/DAVE-4.4.2-64Bit/optiga-trust-m/optiga/comms/ifx_i2c\ifx_i2c.c **** /// @cond hidden
 223:C:/Workspace/DAVE-4.4.2-64Bit/optiga-trust-m/optiga/comms/ifx_i2c\ifx_i2c.c **** //lint --e{715} suppress "The arguments p_data and data_len is not used in this function 
 224:C:/Workspace/DAVE-4.4.2-64Bit/optiga-trust-m/optiga/comms/ifx_i2c\ifx_i2c.c **** //                        but as per the function signature those 2 parameter should be passed"
 225:C:/Workspace/DAVE-4.4.2-64Bit/optiga-trust-m/optiga/comms/ifx_i2c\ifx_i2c.c **** void ifx_i2c_tl_event_handler(ifx_i2c_context_t * p_ctx,
 226:C:/Workspace/DAVE-4.4.2-64Bit/optiga-trust-m/optiga/comms/ifx_i2c\ifx_i2c.c ****                               optiga_lib_status_t event,
 227:C:/Workspace/DAVE-4.4.2-64Bit/optiga-trust-m/optiga/comms/ifx_i2c\ifx_i2c.c ****                               const uint8_t * p_data,
 228:C:/Workspace/DAVE-4.4.2-64Bit/optiga-trust-m/optiga/comms/ifx_i2c\ifx_i2c.c ****                               uint16_t data_len)
 229:C:/Workspace/DAVE-4.4.2-64Bit/optiga-trust-m/optiga/comms/ifx_i2c\ifx_i2c.c **** {
  26              	 .loc 1 229 0
  27              	 .cfi_startproc
  28              	.LVL0:
  29 0000 38B5     	 push {r3,r4,r5,lr}
  30              	.LCFI0:
  31              	 .cfi_def_cfa_offset 16
  32              	 .cfi_offset 3,-16
  33              	 .cfi_offset 4,-12
  34              	 .cfi_offset 5,-8
  35              	 .cfi_offset 14,-4
 230:C:/Workspace/DAVE-4.4.2-64Bit/optiga-trust-m/optiga/comms/ifx_i2c\ifx_i2c.c ****     // If there is no upper layer handler, don't do anything and return
 231:C:/Workspace/DAVE-4.4.2-64Bit/optiga-trust-m/optiga/comms/ifx_i2c\ifx_i2c.c ****     if (NULL != p_ctx->upper_layer_event_handler)
  36              	 .loc 1 231 0
  37 0002 8369     	 ldr r3,[r0,#24]
  38              	.LVL1:
 229:C:/Workspace/DAVE-4.4.2-64Bit/optiga-trust-m/optiga/comms/ifx_i2c\ifx_i2c.c ****     // If there is no upper layer handler, don't do anything and return
  39              	 .loc 1 229 0
  40 0004 041C     	 mov r4,r0
  41 0006 0D1C     	 mov r5,r1
  42              	 .loc 1 231 0
  43 0008 002B     	 cmp r3,#0
  44 000a 01D0     	 beq .L2
 232:C:/Workspace/DAVE-4.4.2-64Bit/optiga-trust-m/optiga/comms/ifx_i2c\ifx_i2c.c ****     {
 233:C:/Workspace/DAVE-4.4.2-64Bit/optiga-trust-m/optiga/comms/ifx_i2c\ifx_i2c.c ****         p_ctx->upper_layer_event_handler(p_ctx->p_upper_layer_ctx, event);
  45              	 .loc 1 233 0
  46 000c C069     	 ldr r0,[r0,#28]
  47              	.LVL2:
  48 000e 9847     	 blx r3
  49              	.LVL3:
  50              	.L2:
 234:C:/Workspace/DAVE-4.4.2-64Bit/optiga-trust-m/optiga/comms/ifx_i2c\ifx_i2c.c ****     }
 235:C:/Workspace/DAVE-4.4.2-64Bit/optiga-trust-m/optiga/comms/ifx_i2c\ifx_i2c.c ****     p_ctx->close_state = event;
 236:C:/Workspace/DAVE-4.4.2-64Bit/optiga-trust-m/optiga/comms/ifx_i2c\ifx_i2c.c ****     p_ctx->status = IFX_I2C_STATUS_NOT_BUSY;
  51              	 .loc 1 236 0
  52 0010 231C     	 mov r3,r4
  53 0012 0422     	 mov r2,#4
  54 0014 2933     	 add r3,r3,#41
 235:C:/Workspace/DAVE-4.4.2-64Bit/optiga-trust-m/optiga/comms/ifx_i2c\ifx_i2c.c ****     p_ctx->status = IFX_I2C_STATUS_NOT_BUSY;
  55              	 .loc 1 235 0
  56 0016 A585     	 strh r5,[r4,#44]
  57              	 .loc 1 236 0
  58 0018 1A70     	 strb r2,[r3]
 237:C:/Workspace/DAVE-4.4.2-64Bit/optiga-trust-m/optiga/comms/ifx_i2c\ifx_i2c.c ****     switch (p_ctx->state)
  59              	 .loc 1 237 0
  60 001a 2834     	 add r4,r4,#40
  61              	.LVL4:
  62 001c 2378     	 ldrb r3,[r4]
  63 001e 012B     	 cmp r3,#1
  64 0020 03D1     	 bne .L1
 238:C:/Workspace/DAVE-4.4.2-64Bit/optiga-trust-m/optiga/comms/ifx_i2c\ifx_i2c.c ****     {
 239:C:/Workspace/DAVE-4.4.2-64Bit/optiga-trust-m/optiga/comms/ifx_i2c\ifx_i2c.c ****         case IFX_I2C_STATE_UNINIT:
 240:C:/Workspace/DAVE-4.4.2-64Bit/optiga-trust-m/optiga/comms/ifx_i2c\ifx_i2c.c ****         {
 241:C:/Workspace/DAVE-4.4.2-64Bit/optiga-trust-m/optiga/comms/ifx_i2c\ifx_i2c.c ****             if (IFX_I2C_STACK_SUCCESS == event)
  65              	 .loc 1 241 0
  66 0022 002D     	 cmp r5,#0
  67 0024 01D1     	 bne .L1
 242:C:/Workspace/DAVE-4.4.2-64Bit/optiga-trust-m/optiga/comms/ifx_i2c\ifx_i2c.c ****             {
 243:C:/Workspace/DAVE-4.4.2-64Bit/optiga-trust-m/optiga/comms/ifx_i2c\ifx_i2c.c ****                 p_ctx->state = IFX_I2C_STATE_IDLE;
  68              	 .loc 1 243 0
  69 0026 0133     	 add r3,r3,#1
  70 0028 2370     	 strb r3,[r4]
  71              	.L1:
 244:C:/Workspace/DAVE-4.4.2-64Bit/optiga-trust-m/optiga/comms/ifx_i2c\ifx_i2c.c ****             }
 245:C:/Workspace/DAVE-4.4.2-64Bit/optiga-trust-m/optiga/comms/ifx_i2c\ifx_i2c.c ****             break;
 246:C:/Workspace/DAVE-4.4.2-64Bit/optiga-trust-m/optiga/comms/ifx_i2c\ifx_i2c.c ****         }
 247:C:/Workspace/DAVE-4.4.2-64Bit/optiga-trust-m/optiga/comms/ifx_i2c\ifx_i2c.c ****         default:
 248:C:/Workspace/DAVE-4.4.2-64Bit/optiga-trust-m/optiga/comms/ifx_i2c\ifx_i2c.c ****             break;
 249:C:/Workspace/DAVE-4.4.2-64Bit/optiga-trust-m/optiga/comms/ifx_i2c\ifx_i2c.c ****     }
 250:C:/Workspace/DAVE-4.4.2-64Bit/optiga-trust-m/optiga/comms/ifx_i2c\ifx_i2c.c **** }
  72              	 .loc 1 250 0
  73              	 
  74              	.LVL5:
  75 002a 38BD     	 pop {r3,r4,r5,pc}
  76              	 .cfi_endproc
  77              	.LFE5:
  79              	 .section .text.ifx_i2c_init,"ax",%progbits
  80              	 .align 1
  81              	 .code 16
  82              	 .thumb_func
  84              	ifx_i2c_init:
  85              	.LFB7:
 251:C:/Workspace/DAVE-4.4.2-64Bit/optiga-trust-m/optiga/comms/ifx_i2c\ifx_i2c.c **** 
 252:C:/Workspace/DAVE-4.4.2-64Bit/optiga-trust-m/optiga/comms/ifx_i2c\ifx_i2c.c **** /// @cond hidden
 253:C:/Workspace/DAVE-4.4.2-64Bit/optiga-trust-m/optiga/comms/ifx_i2c\ifx_i2c.c **** //lint --e{715} suppress "The arguments p_data and data_len is not used in this function 
 254:C:/Workspace/DAVE-4.4.2-64Bit/optiga-trust-m/optiga/comms/ifx_i2c\ifx_i2c.c **** //                        but as per the function signature those 2 parameter should be passed"
 255:C:/Workspace/DAVE-4.4.2-64Bit/optiga-trust-m/optiga/comms/ifx_i2c\ifx_i2c.c **** void ifx_i2c_prl_close_event_handler(ifx_i2c_context_t * p_ctx,
 256:C:/Workspace/DAVE-4.4.2-64Bit/optiga-trust-m/optiga/comms/ifx_i2c\ifx_i2c.c ****                                      optiga_lib_status_t event,
 257:C:/Workspace/DAVE-4.4.2-64Bit/optiga-trust-m/optiga/comms/ifx_i2c\ifx_i2c.c ****                                      const uint8_t * p_data,
 258:C:/Workspace/DAVE-4.4.2-64Bit/optiga-trust-m/optiga/comms/ifx_i2c\ifx_i2c.c ****                                      uint16_t data_len)
 259:C:/Workspace/DAVE-4.4.2-64Bit/optiga-trust-m/optiga/comms/ifx_i2c\ifx_i2c.c **** {
 260:C:/Workspace/DAVE-4.4.2-64Bit/optiga-trust-m/optiga/comms/ifx_i2c\ifx_i2c.c ****     p_ctx->status = IFX_I2C_STATUS_NOT_BUSY;
 261:C:/Workspace/DAVE-4.4.2-64Bit/optiga-trust-m/optiga/comms/ifx_i2c\ifx_i2c.c ****     switch (p_ctx->state)
 262:C:/Workspace/DAVE-4.4.2-64Bit/optiga-trust-m/optiga/comms/ifx_i2c\ifx_i2c.c ****     {
 263:C:/Workspace/DAVE-4.4.2-64Bit/optiga-trust-m/optiga/comms/ifx_i2c\ifx_i2c.c ****         case IFX_I2C_STATE_UNINIT:
 264:C:/Workspace/DAVE-4.4.2-64Bit/optiga-trust-m/optiga/comms/ifx_i2c\ifx_i2c.c ****         {
 265:C:/Workspace/DAVE-4.4.2-64Bit/optiga-trust-m/optiga/comms/ifx_i2c\ifx_i2c.c ****             //lint --e{534} suppress "Error handling is not required so return value is not checked
 266:C:/Workspace/DAVE-4.4.2-64Bit/optiga-trust-m/optiga/comms/ifx_i2c\ifx_i2c.c ****             pal_i2c_deinit(p_ctx->p_pal_i2c_ctx);
 267:C:/Workspace/DAVE-4.4.2-64Bit/optiga-trust-m/optiga/comms/ifx_i2c\ifx_i2c.c ****             // Also power off the device
 268:C:/Workspace/DAVE-4.4.2-64Bit/optiga-trust-m/optiga/comms/ifx_i2c\ifx_i2c.c ****             pal_gpio_set_low(p_ctx->p_slave_vdd_pin);
 269:C:/Workspace/DAVE-4.4.2-64Bit/optiga-trust-m/optiga/comms/ifx_i2c\ifx_i2c.c ****             pal_gpio_set_low(p_ctx->p_slave_reset_pin);
 270:C:/Workspace/DAVE-4.4.2-64Bit/optiga-trust-m/optiga/comms/ifx_i2c\ifx_i2c.c ****             break;
 271:C:/Workspace/DAVE-4.4.2-64Bit/optiga-trust-m/optiga/comms/ifx_i2c\ifx_i2c.c ****         }
 272:C:/Workspace/DAVE-4.4.2-64Bit/optiga-trust-m/optiga/comms/ifx_i2c\ifx_i2c.c ****         default:
 273:C:/Workspace/DAVE-4.4.2-64Bit/optiga-trust-m/optiga/comms/ifx_i2c\ifx_i2c.c ****             break;
 274:C:/Workspace/DAVE-4.4.2-64Bit/optiga-trust-m/optiga/comms/ifx_i2c\ifx_i2c.c ****     }
 275:C:/Workspace/DAVE-4.4.2-64Bit/optiga-trust-m/optiga/comms/ifx_i2c\ifx_i2c.c ****     // If there is no upper layer handler, don't do anything and return
 276:C:/Workspace/DAVE-4.4.2-64Bit/optiga-trust-m/optiga/comms/ifx_i2c\ifx_i2c.c ****     if (NULL != p_ctx->upper_layer_event_handler)
 277:C:/Workspace/DAVE-4.4.2-64Bit/optiga-trust-m/optiga/comms/ifx_i2c\ifx_i2c.c ****     {
 278:C:/Workspace/DAVE-4.4.2-64Bit/optiga-trust-m/optiga/comms/ifx_i2c\ifx_i2c.c ****         p_ctx->upper_layer_event_handler(p_ctx->p_upper_layer_ctx, event);
 279:C:/Workspace/DAVE-4.4.2-64Bit/optiga-trust-m/optiga/comms/ifx_i2c\ifx_i2c.c ****     }
 280:C:/Workspace/DAVE-4.4.2-64Bit/optiga-trust-m/optiga/comms/ifx_i2c\ifx_i2c.c **** }
 281:C:/Workspace/DAVE-4.4.2-64Bit/optiga-trust-m/optiga/comms/ifx_i2c\ifx_i2c.c **** 
 282:C:/Workspace/DAVE-4.4.2-64Bit/optiga-trust-m/optiga/comms/ifx_i2c\ifx_i2c.c **** _STATIC_H optiga_lib_status_t ifx_i2c_init(ifx_i2c_context_t * p_ifx_i2c_context)
 283:C:/Workspace/DAVE-4.4.2-64Bit/optiga-trust-m/optiga/comms/ifx_i2c\ifx_i2c.c **** {
  86              	 .loc 1 283 0
  87              	 .cfi_startproc
  88              	.LVL6:
  89 0000 38B5     	 push {r3,r4,r5,lr}
  90              	.LCFI1:
  91              	 .cfi_def_cfa_offset 16
  92              	 .cfi_offset 3,-16
  93              	 .cfi_offset 4,-12
  94              	 .cfi_offset 5,-8
  95              	 .cfi_offset 14,-4
 284:C:/Workspace/DAVE-4.4.2-64Bit/optiga-trust-m/optiga/comms/ifx_i2c\ifx_i2c.c ****     optiga_lib_status_t api_status = IFX_I2C_STACK_ERROR;
 285:C:/Workspace/DAVE-4.4.2-64Bit/optiga-trust-m/optiga/comms/ifx_i2c\ifx_i2c.c **** 
 286:C:/Workspace/DAVE-4.4.2-64Bit/optiga-trust-m/optiga/comms/ifx_i2c\ifx_i2c.c ****     if (((uint8_t)IFX_I2C_WARM_RESET == p_ifx_i2c_context->reset_type) ||
  96              	 .loc 1 286 0
  97 0002 031C     	 mov r3,r0
  98 0004 2E33     	 add r3,r3,#46
  99 0006 1B78     	 ldrb r3,[r3]
 100 0008 0222     	 mov r2,#2
 101 000a 191C     	 mov r1,r3
 283:C:/Workspace/DAVE-4.4.2-64Bit/optiga-trust-m/optiga/comms/ifx_i2c\ifx_i2c.c ****     optiga_lib_status_t api_status = IFX_I2C_STACK_ERROR;
 102              	 .loc 1 283 0
 103 000c 041C     	 mov r4,r0
 104              	 .loc 1 286 0
 105 000e 9143     	 bic r1,r2
 106 0010 2ED1     	 bne .L10
 287:C:/Workspace/DAVE-4.4.2-64Bit/optiga-trust-m/optiga/comms/ifx_i2c\ifx_i2c.c ****         ((uint8_t)IFX_I2C_COLD_RESET == p_ifx_i2c_context->reset_type))
 288:C:/Workspace/DAVE-4.4.2-64Bit/optiga-trust-m/optiga/comms/ifx_i2c\ifx_i2c.c ****     {
 289:C:/Workspace/DAVE-4.4.2-64Bit/optiga-trust-m/optiga/comms/ifx_i2c\ifx_i2c.c ****         switch (p_ifx_i2c_context->reset_state)
 107              	 .loc 1 289 0
 108 0012 051C     	 mov r5,r0
 109 0014 2A35     	 add r5,r5,#42
 110 0016 2A78     	 ldrb r2,[r5]
 111 0018 B22A     	 cmp r2,#178
 112 001a 15D0     	 beq .L12
 113 001c B32A     	 cmp r2,#179
 114 001e 2BD0     	 beq .L20
 115 0020 B12A     	 cmp r2,#177
 116 0022 2ED1     	 bne .L18
 290:C:/Workspace/DAVE-4.4.2-64Bit/optiga-trust-m/optiga/comms/ifx_i2c\ifx_i2c.c ****         {
 291:C:/Workspace/DAVE-4.4.2-64Bit/optiga-trust-m/optiga/comms/ifx_i2c\ifx_i2c.c ****             case IFX_I2C_STATE_RESET_PIN_LOW:
 292:C:/Workspace/DAVE-4.4.2-64Bit/optiga-trust-m/optiga/comms/ifx_i2c\ifx_i2c.c ****             {
 293:C:/Workspace/DAVE-4.4.2-64Bit/optiga-trust-m/optiga/comms/ifx_i2c\ifx_i2c.c ****                 // Setting the Vdd & Reset pin to low
 294:C:/Workspace/DAVE-4.4.2-64Bit/optiga-trust-m/optiga/comms/ifx_i2c\ifx_i2c.c ****                 if ((uint8_t)IFX_I2C_COLD_RESET == p_ifx_i2c_context->reset_type)
 117              	 .loc 1 294 0
 118 0024 002B     	 cmp r3,#0
 119 0026 02D1     	 bne .L15
 295:C:/Workspace/DAVE-4.4.2-64Bit/optiga-trust-m/optiga/comms/ifx_i2c\ifx_i2c.c ****                 {
 296:C:/Workspace/DAVE-4.4.2-64Bit/optiga-trust-m/optiga/comms/ifx_i2c\ifx_i2c.c ****                     pal_gpio_set_low(p_ifx_i2c_context->p_slave_vdd_pin);
 120              	 .loc 1 296 0
 121 0028 8068     	 ldr r0,[r0,#8]
 122              	.LVL7:
 123 002a FFF7FEFF 	 bl pal_gpio_set_low
 124              	.LVL8:
 125              	.L15:
 297:C:/Workspace/DAVE-4.4.2-64Bit/optiga-trust-m/optiga/comms/ifx_i2c\ifx_i2c.c ****                 }
 298:C:/Workspace/DAVE-4.4.2-64Bit/optiga-trust-m/optiga/comms/ifx_i2c\ifx_i2c.c ****                 pal_gpio_set_low(p_ifx_i2c_context->p_slave_reset_pin);
 126              	 .loc 1 298 0
 127 002e E068     	 ldr r0,[r4,#12]
 128 0030 FFF7FEFF 	 bl pal_gpio_set_low
 129              	.LVL9:
 299:C:/Workspace/DAVE-4.4.2-64Bit/optiga-trust-m/optiga/comms/ifx_i2c\ifx_i2c.c ****                 p_ifx_i2c_context->reset_state = IFX_I2C_STATE_RESET_PIN_HIGH;
 130              	 .loc 1 299 0
 131 0034 B223     	 mov r3,#178
 132 0036 2B70     	 strb r3,[r5]
 300:C:/Workspace/DAVE-4.4.2-64Bit/optiga-trust-m/optiga/comms/ifx_i2c\ifx_i2c.c ****                 pal_os_event_register_callback_oneshot(p_ifx_i2c_context->pal_os_event_ctx,
 133              	 .loc 1 300 0
 134 0038 9A23     	 mov r3,#154
 135 003a DB00     	 lsl r3,r3,#3
 136 003c E058     	 ldr r0,[r4,r3]
 137 003e FA23     	 mov r3,#250
 138 0040 1149     	 ldr r1,.L21
 139 0042 221C     	 mov r2,r4
 140 0044 DB00     	 lsl r3,r3,#3
 141 0046 0FE0     	 b .L19
 142              	.LVL10:
 143              	.L12:
 301:C:/Workspace/DAVE-4.4.2-64Bit/optiga-trust-m/optiga/comms/ifx_i2c\ifx_i2c.c ****                                                        (register_callback)ifx_i2c_init,
 302:C:/Workspace/DAVE-4.4.2-64Bit/optiga-trust-m/optiga/comms/ifx_i2c\ifx_i2c.c ****                                                        (void * )p_ifx_i2c_context,
 303:C:/Workspace/DAVE-4.4.2-64Bit/optiga-trust-m/optiga/comms/ifx_i2c\ifx_i2c.c ****                                                        RESET_LOW_TIME_MSEC);
 304:C:/Workspace/DAVE-4.4.2-64Bit/optiga-trust-m/optiga/comms/ifx_i2c\ifx_i2c.c ****                 api_status = IFX_I2C_STACK_SUCCESS;
 305:C:/Workspace/DAVE-4.4.2-64Bit/optiga-trust-m/optiga/comms/ifx_i2c\ifx_i2c.c ****                 break;
 306:C:/Workspace/DAVE-4.4.2-64Bit/optiga-trust-m/optiga/comms/ifx_i2c\ifx_i2c.c ****             }
 307:C:/Workspace/DAVE-4.4.2-64Bit/optiga-trust-m/optiga/comms/ifx_i2c\ifx_i2c.c ****             case IFX_I2C_STATE_RESET_PIN_HIGH:
 308:C:/Workspace/DAVE-4.4.2-64Bit/optiga-trust-m/optiga/comms/ifx_i2c\ifx_i2c.c ****             {
 309:C:/Workspace/DAVE-4.4.2-64Bit/optiga-trust-m/optiga/comms/ifx_i2c\ifx_i2c.c ****                 // Setting the Vdd & Reset pin to high
 310:C:/Workspace/DAVE-4.4.2-64Bit/optiga-trust-m/optiga/comms/ifx_i2c\ifx_i2c.c ****                 if ((uint8_t)IFX_I2C_COLD_RESET == p_ifx_i2c_context->reset_type)
 144              	 .loc 1 310 0
 145 0048 002B     	 cmp r3,#0
 146 004a 02D1     	 bne .L16
 311:C:/Workspace/DAVE-4.4.2-64Bit/optiga-trust-m/optiga/comms/ifx_i2c\ifx_i2c.c ****                 {
 312:C:/Workspace/DAVE-4.4.2-64Bit/optiga-trust-m/optiga/comms/ifx_i2c\ifx_i2c.c ****                     pal_gpio_set_high(p_ifx_i2c_context->p_slave_vdd_pin);
 147              	 .loc 1 312 0
 148 004c 8068     	 ldr r0,[r0,#8]
 149              	.LVL11:
 150 004e FFF7FEFF 	 bl pal_gpio_set_high
 151              	.LVL12:
 152              	.L16:
 313:C:/Workspace/DAVE-4.4.2-64Bit/optiga-trust-m/optiga/comms/ifx_i2c\ifx_i2c.c ****                 }
 314:C:/Workspace/DAVE-4.4.2-64Bit/optiga-trust-m/optiga/comms/ifx_i2c\ifx_i2c.c ****                 pal_gpio_set_high(p_ifx_i2c_context->p_slave_reset_pin);
 153              	 .loc 1 314 0
 154 0052 E068     	 ldr r0,[r4,#12]
 155 0054 FFF7FEFF 	 bl pal_gpio_set_high
 156              	.LVL13:
 315:C:/Workspace/DAVE-4.4.2-64Bit/optiga-trust-m/optiga/comms/ifx_i2c\ifx_i2c.c ****                 p_ifx_i2c_context->reset_state = IFX_I2C_STATE_RESET_INIT;
 157              	 .loc 1 315 0
 158 0058 B323     	 mov r3,#179
 159 005a 2B70     	 strb r3,[r5]
 316:C:/Workspace/DAVE-4.4.2-64Bit/optiga-trust-m/optiga/comms/ifx_i2c\ifx_i2c.c ****                 pal_os_event_register_callback_oneshot(p_ifx_i2c_context->pal_os_event_ctx,
 160              	 .loc 1 316 0
 161 005c 9A23     	 mov r3,#154
 162 005e 221C     	 mov r2,r4
 163 0060 DB00     	 lsl r3,r3,#3
 164 0062 E058     	 ldr r0,[r4,r3]
 165 0064 0849     	 ldr r1,.L21
 166 0066 094B     	 ldr r3,.L21+4
 167              	.LVL14:
 168              	.L19:
 169 0068 FFF7FEFF 	 bl pal_os_event_register_callback_oneshot
 170              	.LVL15:
 317:C:/Workspace/DAVE-4.4.2-64Bit/optiga-trust-m/optiga/comms/ifx_i2c\ifx_i2c.c ****                                                        (register_callback)ifx_i2c_init,
 318:C:/Workspace/DAVE-4.4.2-64Bit/optiga-trust-m/optiga/comms/ifx_i2c\ifx_i2c.c ****                                                        (void * )p_ifx_i2c_context,
 319:C:/Workspace/DAVE-4.4.2-64Bit/optiga-trust-m/optiga/comms/ifx_i2c\ifx_i2c.c ****                                                        STARTUP_TIME_MSEC);
 320:C:/Workspace/DAVE-4.4.2-64Bit/optiga-trust-m/optiga/comms/ifx_i2c\ifx_i2c.c ****                 api_status = IFX_I2C_STACK_SUCCESS;
 171              	 .loc 1 320 0
 172 006c 0020     	 mov r0,#0
 321:C:/Workspace/DAVE-4.4.2-64Bit/optiga-trust-m/optiga/comms/ifx_i2c\ifx_i2c.c ****                 break;
 173              	 .loc 1 321 0
 174 006e 0AE0     	 b .L11
 175              	.LVL16:
 176              	.L10:
 322:C:/Workspace/DAVE-4.4.2-64Bit/optiga-trust-m/optiga/comms/ifx_i2c\ifx_i2c.c ****             }
 323:C:/Workspace/DAVE-4.4.2-64Bit/optiga-trust-m/optiga/comms/ifx_i2c\ifx_i2c.c ****             case IFX_I2C_STATE_RESET_INIT:
 324:C:/Workspace/DAVE-4.4.2-64Bit/optiga-trust-m/optiga/comms/ifx_i2c\ifx_i2c.c ****             {
 325:C:/Workspace/DAVE-4.4.2-64Bit/optiga-trust-m/optiga/comms/ifx_i2c\ifx_i2c.c ****                 //Frequency and frame size negotiation
 326:C:/Workspace/DAVE-4.4.2-64Bit/optiga-trust-m/optiga/comms/ifx_i2c\ifx_i2c.c **** #ifndef OPTIGA_COMMS_SHIELDED_CONNECTION
 327:C:/Workspace/DAVE-4.4.2-64Bit/optiga-trust-m/optiga/comms/ifx_i2c\ifx_i2c.c ****                 api_status = ifx_i2c_tl_init(p_ifx_i2c_context, ifx_i2c_tl_event_handler);
 328:C:/Workspace/DAVE-4.4.2-64Bit/optiga-trust-m/optiga/comms/ifx_i2c\ifx_i2c.c **** #else
 329:C:/Workspace/DAVE-4.4.2-64Bit/optiga-trust-m/optiga/comms/ifx_i2c\ifx_i2c.c ****                 api_status = ifx_i2c_prl_init(p_ifx_i2c_context, ifx_i2c_tl_event_handler);
 330:C:/Workspace/DAVE-4.4.2-64Bit/optiga-trust-m/optiga/comms/ifx_i2c\ifx_i2c.c **** #endif
 331:C:/Workspace/DAVE-4.4.2-64Bit/optiga-trust-m/optiga/comms/ifx_i2c\ifx_i2c.c ****                 break;
 332:C:/Workspace/DAVE-4.4.2-64Bit/optiga-trust-m/optiga/comms/ifx_i2c\ifx_i2c.c ****             }
 333:C:/Workspace/DAVE-4.4.2-64Bit/optiga-trust-m/optiga/comms/ifx_i2c\ifx_i2c.c ****             default:
 334:C:/Workspace/DAVE-4.4.2-64Bit/optiga-trust-m/optiga/comms/ifx_i2c\ifx_i2c.c ****                 break;
 335:C:/Workspace/DAVE-4.4.2-64Bit/optiga-trust-m/optiga/comms/ifx_i2c\ifx_i2c.c ****         }
 336:C:/Workspace/DAVE-4.4.2-64Bit/optiga-trust-m/optiga/comms/ifx_i2c\ifx_i2c.c ****     }
 337:C:/Workspace/DAVE-4.4.2-64Bit/optiga-trust-m/optiga/comms/ifx_i2c\ifx_i2c.c ****     //soft reset
 338:C:/Workspace/DAVE-4.4.2-64Bit/optiga-trust-m/optiga/comms/ifx_i2c\ifx_i2c.c ****     else
 339:C:/Workspace/DAVE-4.4.2-64Bit/optiga-trust-m/optiga/comms/ifx_i2c\ifx_i2c.c ****     {
 340:C:/Workspace/DAVE-4.4.2-64Bit/optiga-trust-m/optiga/comms/ifx_i2c\ifx_i2c.c ****         p_ifx_i2c_context->pl.request_soft_reset = (uint8_t)TRUE;    //Soft reset
 177              	 .loc 1 340 0
 178 0070 AE23     	 mov r3,#174
 179 0072 0122     	 mov r2,#1
 180 0074 FF33     	 add r3,r3,#255
 181 0076 C254     	 strb r2,[r0,r3]
 182              	.L20:
 341:C:/Workspace/DAVE-4.4.2-64Bit/optiga-trust-m/optiga/comms/ifx_i2c\ifx_i2c.c **** #ifndef OPTIGA_COMMS_SHIELDED_CONNECTION
 342:C:/Workspace/DAVE-4.4.2-64Bit/optiga-trust-m/optiga/comms/ifx_i2c\ifx_i2c.c ****         api_status = ifx_i2c_tl_init(p_ifx_i2c_context, ifx_i2c_tl_event_handler);
 343:C:/Workspace/DAVE-4.4.2-64Bit/optiga-trust-m/optiga/comms/ifx_i2c\ifx_i2c.c **** #else
 344:C:/Workspace/DAVE-4.4.2-64Bit/optiga-trust-m/optiga/comms/ifx_i2c\ifx_i2c.c ****         api_status = ifx_i2c_prl_init(p_ifx_i2c_context, ifx_i2c_tl_event_handler);
 183              	 .loc 1 344 0
 184 0078 201C     	 mov r0,r4
 185              	.LVL17:
 186 007a 0549     	 ldr r1,.L21+8
 187 007c FFF7FEFF 	 bl ifx_i2c_prl_init
 188              	.LVL18:
 189 0080 01E0     	 b .L11
 190              	.LVL19:
 191              	.L18:
 284:C:/Workspace/DAVE-4.4.2-64Bit/optiga-trust-m/optiga/comms/ifx_i2c\ifx_i2c.c **** 
 192              	 .loc 1 284 0
 193 0082 8120     	 mov r0,#129
 194              	.LVL20:
 195 0084 4000     	 lsl r0,r0,#1
 196              	.LVL21:
 197              	.L11:
 345:C:/Workspace/DAVE-4.4.2-64Bit/optiga-trust-m/optiga/comms/ifx_i2c\ifx_i2c.c **** #endif
 346:C:/Workspace/DAVE-4.4.2-64Bit/optiga-trust-m/optiga/comms/ifx_i2c\ifx_i2c.c ****     }
 347:C:/Workspace/DAVE-4.4.2-64Bit/optiga-trust-m/optiga/comms/ifx_i2c\ifx_i2c.c **** 
 348:C:/Workspace/DAVE-4.4.2-64Bit/optiga-trust-m/optiga/comms/ifx_i2c\ifx_i2c.c ****     return (api_status);
 349:C:/Workspace/DAVE-4.4.2-64Bit/optiga-trust-m/optiga/comms/ifx_i2c\ifx_i2c.c **** }
 198              	 .loc 1 349 0
 199              	 
 200              	.LVL22:
 201 0086 38BD     	 pop {r3,r4,r5,pc}
 202              	.L22:
 203              	 .align 2
 204              	.L21:
 205 0088 00000000 	 .word ifx_i2c_init
 206 008c E02E0000 	 .word 12000
 207 0090 00000000 	 .word ifx_i2c_tl_event_handler
 208              	 .cfi_endproc
 209              	.LFE7:
 211              	 .section .text.ifx_i2c_prl_close_event_handler,"ax",%progbits
 212              	 .align 1
 213              	 .global ifx_i2c_prl_close_event_handler
 214              	 .code 16
 215              	 .thumb_func
 217              	ifx_i2c_prl_close_event_handler:
 218              	.LFB6:
 259:C:/Workspace/DAVE-4.4.2-64Bit/optiga-trust-m/optiga/comms/ifx_i2c\ifx_i2c.c ****     p_ctx->status = IFX_I2C_STATUS_NOT_BUSY;
 219              	 .loc 1 259 0
 220              	 .cfi_startproc
 221              	.LVL23:
 222 0000 38B5     	 push {r3,r4,r5,lr}
 223              	.LCFI2:
 224              	 .cfi_def_cfa_offset 16
 225              	 .cfi_offset 3,-16
 226              	 .cfi_offset 4,-12
 227              	 .cfi_offset 5,-8
 228              	 .cfi_offset 14,-4
 260:C:/Workspace/DAVE-4.4.2-64Bit/optiga-trust-m/optiga/comms/ifx_i2c\ifx_i2c.c ****     switch (p_ctx->state)
 229              	 .loc 1 260 0
 230 0002 031C     	 mov r3,r0
 231              	.LVL24:
 232 0004 0422     	 mov r2,#4
 233              	.LVL25:
 234 0006 2933     	 add r3,r3,#41
 235 0008 1A70     	 strb r2,[r3]
 261:C:/Workspace/DAVE-4.4.2-64Bit/optiga-trust-m/optiga/comms/ifx_i2c\ifx_i2c.c ****     {
 236              	 .loc 1 261 0
 237 000a 013B     	 sub r3,r3,#1
 238 000c 1B78     	 ldrb r3,[r3]
 259:C:/Workspace/DAVE-4.4.2-64Bit/optiga-trust-m/optiga/comms/ifx_i2c\ifx_i2c.c ****     p_ctx->status = IFX_I2C_STATUS_NOT_BUSY;
 239              	 .loc 1 259 0
 240 000e 041C     	 mov r4,r0
 241 0010 0D1C     	 mov r5,r1
 261:C:/Workspace/DAVE-4.4.2-64Bit/optiga-trust-m/optiga/comms/ifx_i2c\ifx_i2c.c ****     {
 242              	 .loc 1 261 0
 243 0012 012B     	 cmp r3,#1
 244 0014 08D1     	 bne .L24
 266:C:/Workspace/DAVE-4.4.2-64Bit/optiga-trust-m/optiga/comms/ifx_i2c\ifx_i2c.c ****             // Also power off the device
 245              	 .loc 1 266 0
 246 0016 0069     	 ldr r0,[r0,#16]
 247              	.LVL26:
 248 0018 FFF7FEFF 	 bl pal_i2c_deinit
 249              	.LVL27:
 268:C:/Workspace/DAVE-4.4.2-64Bit/optiga-trust-m/optiga/comms/ifx_i2c\ifx_i2c.c ****             pal_gpio_set_low(p_ctx->p_slave_reset_pin);
 250              	 .loc 1 268 0
 251 001c A068     	 ldr r0,[r4,#8]
 252 001e FFF7FEFF 	 bl pal_gpio_set_low
 253              	.LVL28:
 269:C:/Workspace/DAVE-4.4.2-64Bit/optiga-trust-m/optiga/comms/ifx_i2c\ifx_i2c.c ****             break;
 254              	 .loc 1 269 0
 255 0022 E068     	 ldr r0,[r4,#12]
 256 0024 FFF7FEFF 	 bl pal_gpio_set_low
 257              	.LVL29:
 258              	.L24:
 276:C:/Workspace/DAVE-4.4.2-64Bit/optiga-trust-m/optiga/comms/ifx_i2c\ifx_i2c.c ****     {
 259              	 .loc 1 276 0
 260 0028 A369     	 ldr r3,[r4,#24]
 261 002a 002B     	 cmp r3,#0
 262 002c 02D0     	 beq .L23
 278:C:/Workspace/DAVE-4.4.2-64Bit/optiga-trust-m/optiga/comms/ifx_i2c\ifx_i2c.c ****     }
 263              	 .loc 1 278 0
 264 002e E069     	 ldr r0,[r4,#28]
 265 0030 291C     	 mov r1,r5
 266 0032 9847     	 blx r3
 267              	.LVL30:
 268              	.L23:
 280:C:/Workspace/DAVE-4.4.2-64Bit/optiga-trust-m/optiga/comms/ifx_i2c\ifx_i2c.c **** 
 269              	 .loc 1 280 0
 270              	 
 271              	.LVL31:
 272 0034 38BD     	 pop {r3,r4,r5,pc}
 273              	 .cfi_endproc
 274              	.LFE6:
 276              	 .section .text.ifx_i2c_open,"ax",%progbits
 277              	 .align 1
 278              	 .global ifx_i2c_open
 279              	 .code 16
 280              	 .thumb_func
 282              	ifx_i2c_open:
 283              	.LFB0:
  79:C:/Workspace/DAVE-4.4.2-64Bit/optiga-trust-m/optiga/comms/ifx_i2c\ifx_i2c.c ****     optiga_lib_status_t api_status = (int32_t)IFX_I2C_STACK_ERROR;
 284              	 .loc 1 79 0
 285              	 .cfi_startproc
 286              	.LVL32:
 287 0000 10B5     	 push {r4,lr}
 288              	.LCFI3:
 289              	 .cfi_def_cfa_offset 8
 290              	 .cfi_offset 4,-8
 291              	 .cfi_offset 14,-4
  83:C:/Workspace/DAVE-4.4.2-64Bit/optiga-trust-m/optiga/comms/ifx_i2c\ifx_i2c.c ****     {
 292              	 .loc 1 83 0
 293 0002 041C     	 mov r4,r0
 294 0004 2934     	 add r4,r4,#41
 295 0006 2378     	 ldrb r3,[r4]
 296 0008 032B     	 cmp r3,#3
 297 000a 15D0     	 beq .L32
  87:C:/Workspace/DAVE-4.4.2-64Bit/optiga-trust-m/optiga/comms/ifx_i2c\ifx_i2c.c ****             p_ctx->reset_type = OPTIGA_COMMS_DEFAULT_RESET_TYPE;
 298              	 .loc 1 87 0
 299 000c 0369     	 ldr r3,[r0,#16]
  88:C:/Workspace/DAVE-4.4.2-64Bit/optiga-trust-m/optiga/comms/ifx_i2c\ifx_i2c.c ****             if(p_ctx->reset_type > (uint8_t)IFX_I2C_WARM_RESET)
 300              	 .loc 1 88 0
 301 000e 0022     	 mov r2,#0
  87:C:/Workspace/DAVE-4.4.2-64Bit/optiga-trust-m/optiga/comms/ifx_i2c\ifx_i2c.c ****             p_ctx->reset_type = OPTIGA_COMMS_DEFAULT_RESET_TYPE;
 302              	 .loc 1 87 0
 303 0010 9860     	 str r0,[r3,#8]
  88:C:/Workspace/DAVE-4.4.2-64Bit/optiga-trust-m/optiga/comms/ifx_i2c\ifx_i2c.c ****             if(p_ctx->reset_type > (uint8_t)IFX_I2C_WARM_RESET)
 304              	 .loc 1 88 0
 305 0012 031C     	 mov r3,r0
 306 0014 2E33     	 add r3,r3,#46
 307 0016 1A70     	 strb r2,[r3]
  93:C:/Workspace/DAVE-4.4.2-64Bit/optiga-trust-m/optiga/comms/ifx_i2c\ifx_i2c.c ****             p_ctx->do_pal_init = TRUE;
 308              	 .loc 1 93 0
 309 0018 043B     	 sub r3,r3,#4
 310 001a B132     	 add r2,r2,#177
 311 001c 1A70     	 strb r2,[r3]
  94:C:/Workspace/DAVE-4.4.2-64Bit/optiga-trust-m/optiga/comms/ifx_i2c\ifx_i2c.c ****             p_ctx->state = IFX_I2C_STATE_UNINIT;
 312              	 .loc 1 94 0
 313 001e 021C     	 mov r2,r0
 314 0020 0123     	 mov r3,#1
 315 0022 2F32     	 add r2,r2,#47
 316 0024 1370     	 strb r3,[r2]
  95:C:/Workspace/DAVE-4.4.2-64Bit/optiga-trust-m/optiga/comms/ifx_i2c\ifx_i2c.c **** 
 317              	 .loc 1 95 0
 318 0026 073A     	 sub r2,r2,#7
 319 0028 1370     	 strb r3,[r2]
  97:C:/Workspace/DAVE-4.4.2-64Bit/optiga-trust-m/optiga/comms/ifx_i2c\ifx_i2c.c ****             if (IFX_I2C_STACK_SUCCESS == api_status)
 320              	 .loc 1 97 0
 321 002a FFF7FEFF 	 bl ifx_i2c_init
 322              	.LVL33:
  98:C:/Workspace/DAVE-4.4.2-64Bit/optiga-trust-m/optiga/comms/ifx_i2c\ifx_i2c.c ****             {
 323              	 .loc 1 98 0
 324 002e 0028     	 cmp r0,#0
 325 0030 04D1     	 bne .L31
 100:C:/Workspace/DAVE-4.4.2-64Bit/optiga-trust-m/optiga/comms/ifx_i2c\ifx_i2c.c ****             }
 326              	 .loc 1 100 0
 327 0032 0323     	 mov r3,#3
 328 0034 2370     	 strb r3,[r4]
 329 0036 01E0     	 b .L31
 330              	.LVL34:
 331              	.L32:
  80:C:/Workspace/DAVE-4.4.2-64Bit/optiga-trust-m/optiga/comms/ifx_i2c\ifx_i2c.c **** 
 332              	 .loc 1 80 0
 333 0038 8120     	 mov r0,#129
 334              	.LVL35:
 335 003a 4000     	 lsl r0,r0,#1
 336              	.LVL36:
 337              	.L31:
 105:C:/Workspace/DAVE-4.4.2-64Bit/optiga-trust-m/optiga/comms/ifx_i2c\ifx_i2c.c **** 
 338              	 .loc 1 105 0
 339              	 
 340              	.LVL37:
 341 003c 10BD     	 pop {r4,pc}
 342              	 .cfi_endproc
 343              	.LFE0:
 345              	 .section .text.ifx_i2c_reset,"ax",%progbits
 346              	 .align 1
 347              	 .global ifx_i2c_reset
 348              	 .code 16
 349              	 .thumb_func
 351              	ifx_i2c_reset:
 352              	.LFB1:
 110:C:/Workspace/DAVE-4.4.2-64Bit/optiga-trust-m/optiga/comms/ifx_i2c\ifx_i2c.c ****     optiga_lib_status_t api_status = (int32_t)IFX_I2C_STACK_ERROR;
 353              	 .loc 1 110 0
 354              	 .cfi_startproc
 355              	.LVL38:
 114:C:/Workspace/DAVE-4.4.2-64Bit/optiga-trust-m/optiga/comms/ifx_i2c\ifx_i2c.c ****     {
 356              	 .loc 1 114 0
 357 0000 031C     	 mov r3,r0
 110:C:/Workspace/DAVE-4.4.2-64Bit/optiga-trust-m/optiga/comms/ifx_i2c\ifx_i2c.c ****     optiga_lib_status_t api_status = (int32_t)IFX_I2C_STACK_ERROR;
 358              	 .loc 1 110 0
 359 0002 10B5     	 push {r4,lr}
 360              	.LCFI4:
 361              	 .cfi_def_cfa_offset 8
 362              	 .cfi_offset 4,-8
 363              	 .cfi_offset 14,-4
 114:C:/Workspace/DAVE-4.4.2-64Bit/optiga-trust-m/optiga/comms/ifx_i2c\ifx_i2c.c ****     {
 364              	 .loc 1 114 0
 365 0004 2833     	 add r3,r3,#40
 366 0006 1B78     	 ldrb r3,[r3]
 367 0008 022B     	 cmp r3,#2
 368 000a 13D1     	 bne .L36
 114:C:/Workspace/DAVE-4.4.2-64Bit/optiga-trust-m/optiga/comms/ifx_i2c\ifx_i2c.c ****     {
 369              	 .loc 1 114 0 is_stmt 0 discriminator 1
 370 000c 041C     	 mov r4,r0
 371 000e 2934     	 add r4,r4,#41
 372 0010 2378     	 ldrb r3,[r4]
 373 0012 032B     	 cmp r3,#3
 374 0014 0ED0     	 beq .L36
 116:C:/Workspace/DAVE-4.4.2-64Bit/optiga-trust-m/optiga/comms/ifx_i2c\ifx_i2c.c ****         p_ctx->reset_state = IFX_I2C_STATE_RESET_PIN_LOW;
 375              	 .loc 1 116 0 is_stmt 1
 376 0016 031C     	 mov r3,r0
 117:C:/Workspace/DAVE-4.4.2-64Bit/optiga-trust-m/optiga/comms/ifx_i2c\ifx_i2c.c ****         p_ctx->do_pal_init = FALSE;
 377              	 .loc 1 117 0
 378 0018 B122     	 mov r2,#177
 116:C:/Workspace/DAVE-4.4.2-64Bit/optiga-trust-m/optiga/comms/ifx_i2c\ifx_i2c.c ****         p_ctx->reset_state = IFX_I2C_STATE_RESET_PIN_LOW;
 379              	 .loc 1 116 0
 380 001a 2E33     	 add r3,r3,#46
 381 001c 1970     	 strb r1,[r3]
 117:C:/Workspace/DAVE-4.4.2-64Bit/optiga-trust-m/optiga/comms/ifx_i2c\ifx_i2c.c ****         p_ctx->do_pal_init = FALSE;
 382              	 .loc 1 117 0
 383 001e 043B     	 sub r3,r3,#4
 384 0020 1A70     	 strb r2,[r3]
 118:C:/Workspace/DAVE-4.4.2-64Bit/optiga-trust-m/optiga/comms/ifx_i2c\ifx_i2c.c **** 
 385              	 .loc 1 118 0
 386 0022 0022     	 mov r2,#0
 387 0024 5A71     	 strb r2,[r3,#5]
 120:C:/Workspace/DAVE-4.4.2-64Bit/optiga-trust-m/optiga/comms/ifx_i2c\ifx_i2c.c ****         if (IFX_I2C_STACK_SUCCESS == api_status)
 388              	 .loc 1 120 0
 389 0026 FFF7FEFF 	 bl ifx_i2c_init
 390              	.LVL39:
 121:C:/Workspace/DAVE-4.4.2-64Bit/optiga-trust-m/optiga/comms/ifx_i2c\ifx_i2c.c ****         {
 391              	 .loc 1 121 0
 392 002a 0028     	 cmp r0,#0
 393 002c 04D1     	 bne .L34
 123:C:/Workspace/DAVE-4.4.2-64Bit/optiga-trust-m/optiga/comms/ifx_i2c\ifx_i2c.c ****         }
 394              	 .loc 1 123 0
 395 002e 0323     	 mov r3,#3
 396 0030 2370     	 strb r3,[r4]
 397 0032 01E0     	 b .L34
 398              	.LVL40:
 399              	.L36:
 111:C:/Workspace/DAVE-4.4.2-64Bit/optiga-trust-m/optiga/comms/ifx_i2c\ifx_i2c.c **** 
 400              	 .loc 1 111 0
 401 0034 8120     	 mov r0,#129
 402              	.LVL41:
 403 0036 4000     	 lsl r0,r0,#1
 404              	.LVL42:
 405              	.L34:
 127:C:/Workspace/DAVE-4.4.2-64Bit/optiga-trust-m/optiga/comms/ifx_i2c\ifx_i2c.c **** 
 406              	 .loc 1 127 0
 407              	 
 408 0038 10BD     	 pop {r4,pc}
 409              	 .cfi_endproc
 410              	.LFE1:
 412              	 .section .text.ifx_i2c_transceive,"ax",%progbits
 413              	 .align 1
 414              	 .global ifx_i2c_transceive
 415              	 .code 16
 416              	 .thumb_func
 418              	ifx_i2c_transceive:
 419              	.LFB2:
 135:C:/Workspace/DAVE-4.4.2-64Bit/optiga-trust-m/optiga/comms/ifx_i2c\ifx_i2c.c ****     optiga_lib_status_t api_status = (int32_t)IFX_I2C_STACK_ERROR;
 420              	 .loc 1 135 0
 421              	 .cfi_startproc
 422              	.LVL43:
 423 0000 73B5     	 push {r0,r1,r4,r5,r6,lr}
 424              	.LCFI5:
 425              	 .cfi_def_cfa_offset 24
 426              	 .cfi_offset 0,-24
 427              	 .cfi_offset 1,-20
 428              	 .cfi_offset 4,-16
 429              	 .cfi_offset 5,-12
 430              	 .cfi_offset 6,-8
 431              	 .cfi_offset 14,-4
 138:C:/Workspace/DAVE-4.4.2-64Bit/optiga-trust-m/optiga/comms/ifx_i2c\ifx_i2c.c ****     {
 432              	 .loc 1 138 0
 433 0002 041C     	 mov r4,r0
 434 0004 2834     	 add r4,r4,#40
 435 0006 2478     	 ldrb r4,[r4]
 135:C:/Workspace/DAVE-4.4.2-64Bit/optiga-trust-m/optiga/comms/ifx_i2c\ifx_i2c.c ****     optiga_lib_status_t api_status = (int32_t)IFX_I2C_STACK_ERROR;
 436              	 .loc 1 135 0
 437 0008 069E     	 ldr r6,[sp,#24]
 138:C:/Workspace/DAVE-4.4.2-64Bit/optiga-trust-m/optiga/comms/ifx_i2c\ifx_i2c.c ****     {
 438              	 .loc 1 138 0
 439 000a 022C     	 cmp r4,#2
 440 000c 12D1     	 bne .L40
 138:C:/Workspace/DAVE-4.4.2-64Bit/optiga-trust-m/optiga/comms/ifx_i2c\ifx_i2c.c ****     {
 441              	 .loc 1 138 0 is_stmt 0 discriminator 1
 442 000e 051C     	 mov r5,r0
 443 0010 2935     	 add r5,r5,#41
 444 0012 2C78     	 ldrb r4,[r5]
 445 0014 032C     	 cmp r4,#3
 446 0016 0DD0     	 beq .L40
 140:C:/Workspace/DAVE-4.4.2-64Bit/optiga-trust-m/optiga/comms/ifx_i2c\ifx_i2c.c ****         p_ctx->p_upper_layer_rx_buffer_len = p_rx_buffer_len;
 447              	 .loc 1 140 0 is_stmt 1
 448 0018 0362     	 str r3,[r0,#32]
 141:C:/Workspace/DAVE-4.4.2-64Bit/optiga-trust-m/optiga/comms/ifx_i2c\ifx_i2c.c **** #ifndef OPTIGA_COMMS_SHIELDED_CONNECTION
 449              	 .loc 1 141 0
 450 001a 4662     	 str r6,[r0,#36]
 153:C:/Workspace/DAVE-4.4.2-64Bit/optiga-trust-m/optiga/comms/ifx_i2c\ifx_i2c.c ****                                          (uint8_t * )p_tx_data,
 451              	 .loc 1 153 0
 452 001c 0096     	 str r6,[sp]
 453 001e 041C     	 mov r4,r0
 454 0020 FFF7FEFF 	 bl ifx_i2c_prl_transceive
 455              	.LVL44:
 159:C:/Workspace/DAVE-4.4.2-64Bit/optiga-trust-m/optiga/comms/ifx_i2c\ifx_i2c.c ****         {
 456              	 .loc 1 159 0
 457 0024 0028     	 cmp r0,#0
 458 0026 07D1     	 bne .L38
 159:C:/Workspace/DAVE-4.4.2-64Bit/optiga-trust-m/optiga/comms/ifx_i2c\ifx_i2c.c ****         {
 459              	 .loc 1 159 0 is_stmt 0 discriminator 1
 460 0028 A38D     	 ldrh r3,[r4,#44]
 461 002a 002B     	 cmp r3,#0
 462 002c 04D1     	 bne .L38
 161:C:/Workspace/DAVE-4.4.2-64Bit/optiga-trust-m/optiga/comms/ifx_i2c\ifx_i2c.c ****         }
 463              	 .loc 1 161 0 is_stmt 1
 464 002e 0333     	 add r3,r3,#3
 465 0030 2B70     	 strb r3,[r5]
 466 0032 01E0     	 b .L38
 467              	.LVL45:
 468              	.L40:
 136:C:/Workspace/DAVE-4.4.2-64Bit/optiga-trust-m/optiga/comms/ifx_i2c\ifx_i2c.c ****     // Proceed, if not busy and in idle state
 469              	 .loc 1 136 0
 470 0034 8120     	 mov r0,#129
 471              	.LVL46:
 472 0036 4000     	 lsl r0,r0,#1
 473              	.LVL47:
 474              	.L38:
 165:C:/Workspace/DAVE-4.4.2-64Bit/optiga-trust-m/optiga/comms/ifx_i2c\ifx_i2c.c **** 
 475              	 .loc 1 165 0
 476              	 
 477 0038 76BD     	 pop {r1,r2,r4,r5,r6,pc}
 478              	 .cfi_endproc
 479              	.LFE2:
 481              	 .section .text.ifx_i2c_close,"ax",%progbits
 482              	 .align 1
 483              	 .global ifx_i2c_close
 484              	 .code 16
 485              	 .thumb_func
 487              	ifx_i2c_close:
 488              	.LFB3:
 169:C:/Workspace/DAVE-4.4.2-64Bit/optiga-trust-m/optiga/comms/ifx_i2c\ifx_i2c.c ****     optiga_lib_status_t api_status = (int32_t)IFX_I2C_STACK_ERROR;
 489              	 .loc 1 169 0
 490              	 .cfi_startproc
 491              	.LVL48:
 492 0000 F8B5     	 push {r3,r4,r5,r6,r7,lr}
 493              	.LCFI6:
 494              	 .cfi_def_cfa_offset 24
 495              	 .cfi_offset 3,-24
 496              	 .cfi_offset 4,-20
 497              	 .cfi_offset 5,-16
 498              	 .cfi_offset 6,-12
 499              	 .cfi_offset 7,-8
 500              	 .cfi_offset 14,-4
 172:C:/Workspace/DAVE-4.4.2-64Bit/optiga-trust-m/optiga/comms/ifx_i2c\ifx_i2c.c ****     {
 501              	 .loc 1 172 0
 502 0002 071C     	 mov r7,r0
 503 0004 8126     	 mov r6,#129
 504 0006 2937     	 add r7,r7,#41
 505 0008 3B78     	 ldrb r3,[r7]
 506 000a 7600     	 lsl r6,r6,#1
 170:C:/Workspace/DAVE-4.4.2-64Bit/optiga-trust-m/optiga/comms/ifx_i2c\ifx_i2c.c ****     // Proceed, if not busy and in idle state
 507              	 .loc 1 170 0
 508 000c 351C     	 mov r5,r6
 172:C:/Workspace/DAVE-4.4.2-64Bit/optiga-trust-m/optiga/comms/ifx_i2c\ifx_i2c.c ****     {
 509              	 .loc 1 172 0
 510 000e 032B     	 cmp r3,#3
 511 0010 16D0     	 beq .L42
 178:C:/Workspace/DAVE-4.4.2-64Bit/optiga-trust-m/optiga/comms/ifx_i2c\ifx_i2c.c ****         api_status = ifx_i2c_prl_close(p_ctx, ifx_i2c_prl_close_event_handler);
 512              	 .loc 1 178 0
 513 0012 031C     	 mov r3,r0
 514 0014 0122     	 mov r2,#1
 515 0016 2833     	 add r3,r3,#40
 177:C:/Workspace/DAVE-4.4.2-64Bit/optiga-trust-m/optiga/comms/ifx_i2c\ifx_i2c.c ****         p_ctx->state = IFX_I2C_STATE_UNINIT;
 516              	 .loc 1 177 0
 517 0018 8685     	 strh r6,[r0,#44]
 179:C:/Workspace/DAVE-4.4.2-64Bit/optiga-trust-m/optiga/comms/ifx_i2c\ifx_i2c.c ****         if (IFX_I2C_STACK_ERROR == api_status)
 518              	 .loc 1 179 0
 519 001a 0A49     	 ldr r1,.L44
 178:C:/Workspace/DAVE-4.4.2-64Bit/optiga-trust-m/optiga/comms/ifx_i2c\ifx_i2c.c ****         api_status = ifx_i2c_prl_close(p_ctx, ifx_i2c_prl_close_event_handler);
 520              	 .loc 1 178 0
 521 001c 1A70     	 strb r2,[r3]
 522 001e 041C     	 mov r4,r0
 523              	.LVL49:
 179:C:/Workspace/DAVE-4.4.2-64Bit/optiga-trust-m/optiga/comms/ifx_i2c\ifx_i2c.c ****         if (IFX_I2C_STACK_ERROR == api_status)
 524              	 .loc 1 179 0
 525 0020 FFF7FEFF 	 bl ifx_i2c_prl_close
 526              	.LVL50:
 527 0024 051E     	 sub r5,r0,#0
 528              	.LVL51:
 180:C:/Workspace/DAVE-4.4.2-64Bit/optiga-trust-m/optiga/comms/ifx_i2c\ifx_i2c.c ****         {
 529              	 .loc 1 180 0
 530 0026 B542     	 cmp r5,r6
 531 0028 0AD1     	 bne .L42
 183:C:/Workspace/DAVE-4.4.2-64Bit/optiga-trust-m/optiga/comms/ifx_i2c\ifx_i2c.c ****             // Also power off the device
 532              	 .loc 1 183 0
 533 002a 2069     	 ldr r0,[r4,#16]
 534              	.LVL52:
 535 002c FFF7FEFF 	 bl pal_i2c_deinit
 536              	.LVL53:
 185:C:/Workspace/DAVE-4.4.2-64Bit/optiga-trust-m/optiga/comms/ifx_i2c\ifx_i2c.c ****             pal_gpio_set_low(p_ctx->p_slave_reset_pin);
 537              	 .loc 1 185 0
 538 0030 A068     	 ldr r0,[r4,#8]
 539 0032 FFF7FEFF 	 bl pal_gpio_set_low
 540              	.LVL54:
 186:C:/Workspace/DAVE-4.4.2-64Bit/optiga-trust-m/optiga/comms/ifx_i2c\ifx_i2c.c ****             p_ctx->status = IFX_I2C_STATUS_NOT_BUSY;
 541              	 .loc 1 186 0
 542 0036 E068     	 ldr r0,[r4,#12]
 543 0038 FFF7FEFF 	 bl pal_gpio_set_low
 544              	.LVL55:
 187:C:/Workspace/DAVE-4.4.2-64Bit/optiga-trust-m/optiga/comms/ifx_i2c\ifx_i2c.c ****         }
 545              	 .loc 1 187 0
 546 003c 0423     	 mov r3,#4
 547 003e 3B70     	 strb r3,[r7]
 548              	.LVL56:
 549              	.L42:
 203:C:/Workspace/DAVE-4.4.2-64Bit/optiga-trust-m/optiga/comms/ifx_i2c\ifx_i2c.c **** 
 550              	 .loc 1 203 0
 551 0040 281C     	 mov r0,r5
 552              	 
 553              	.LVL57:
 554              	.LVL58:
 555 0042 F8BD     	 pop {r3,r4,r5,r6,r7,pc}
 556              	.L45:
 557              	 .align 2
 558              	.L44:
 559 0044 00000000 	 .word ifx_i2c_prl_close_event_handler
 560              	 .cfi_endproc
 561              	.LFE3:
 563              	 .section .text.ifx_i2c_set_slave_address,"ax",%progbits
 564              	 .align 1
 565              	 .global ifx_i2c_set_slave_address
 566              	 .code 16
 567              	 .thumb_func
 569              	ifx_i2c_set_slave_address:
 570              	.LFB4:
 209:C:/Workspace/DAVE-4.4.2-64Bit/optiga-trust-m/optiga/comms/ifx_i2c\ifx_i2c.c ****     optiga_lib_status_t api_status = (int32_t)IFX_I2C_STACK_ERROR;
 571              	 .loc 1 209 0
 572              	 .cfi_startproc
 573              	.LVL59:
 574 0000 10B5     	 push {r4,lr}
 575              	.LCFI7:
 576              	 .cfi_def_cfa_offset 8
 577              	 .cfi_offset 4,-8
 578              	 .cfi_offset 14,-4
 209:C:/Workspace/DAVE-4.4.2-64Bit/optiga-trust-m/optiga/comms/ifx_i2c\ifx_i2c.c ****     optiga_lib_status_t api_status = (int32_t)IFX_I2C_STACK_ERROR;
 579              	 .loc 1 209 0
 580 0002 031C     	 mov r3,r0
 212:C:/Workspace/DAVE-4.4.2-64Bit/optiga-trust-m/optiga/comms/ifx_i2c\ifx_i2c.c ****     {
 581              	 .loc 1 212 0
 582 0004 2830     	 add r0,r0,#40
 583              	.LVL60:
 584 0006 0478     	 ldrb r4,[r0]
 210:C:/Workspace/DAVE-4.4.2-64Bit/optiga-trust-m/optiga/comms/ifx_i2c\ifx_i2c.c **** 
 585              	 .loc 1 210 0
 586 0008 8120     	 mov r0,#129
 587 000a 4000     	 lsl r0,r0,#1
 212:C:/Workspace/DAVE-4.4.2-64Bit/optiga-trust-m/optiga/comms/ifx_i2c\ifx_i2c.c ****     {
 588              	 .loc 1 212 0
 589 000c 022C     	 cmp r4,#2
 590 000e 04D1     	 bne .L47
 591 0010 181C     	 mov r0,r3
 214:C:/Workspace/DAVE-4.4.2-64Bit/optiga-trust-m/optiga/comms/ifx_i2c\ifx_i2c.c **** 
 592              	 .loc 1 214 0
 593 0012 1B69     	 ldr r3,[r3,#16]
 594              	.LVL61:
 595 0014 9860     	 str r0,[r3,#8]
 216:C:/Workspace/DAVE-4.4.2-64Bit/optiga-trust-m/optiga/comms/ifx_i2c\ifx_i2c.c ****     }
 596              	 .loc 1 216 0
 597 0016 FFF7FEFF 	 bl ifx_i2c_pl_write_slave_address
 598              	.LVL62:
 599              	.L47:
 220:C:/Workspace/DAVE-4.4.2-64Bit/optiga-trust-m/optiga/comms/ifx_i2c\ifx_i2c.c **** 
 600              	 .loc 1 220 0
 601              	 
 602 001a 10BD     	 pop {r4,pc}
 603              	 .cfi_endproc
 604              	.LFE4:
 606              	 .text
 607              	.Letext0:
 608              	 .file 2 "c:\\dave_4-4-2_64bit\\dave-ide-4.4.2-64bit\\eclipse\\arm-gcc-49\\arm-none-eabi\\include\\machine\\_default_types.h"
 609              	 .file 3 "c:\\dave_4-4-2_64bit\\dave-ide-4.4.2-64bit\\eclipse\\arm-gcc-49\\arm-none-eabi\\include\\stdint.h"
 610              	 .file 4 "C:/Workspace/DAVE-4.4.2-64Bit/optiga-trust-m/optiga/include/optiga/common/optiga_lib_types.h"
 611              	 .file 5 "C:/Workspace/DAVE-4.4.2-64Bit/optiga-trust-m/optiga/include/optiga/pal/pal.h"
 612              	 .file 6 "C:/Workspace/DAVE-4.4.2-64Bit/optiga-trust-m/optiga/include/optiga/pal/pal_i2c.h"
 613              	 .file 7 "C:/Workspace/DAVE-4.4.2-64Bit/optiga-trust-m/optiga/include/optiga/pal/pal_gpio.h"
 614              	 .file 8 "C:/Workspace/DAVE-4.4.2-64Bit/optiga-trust-m/optiga/include/optiga/ifx_i2c/ifx_i2c_config.h"
 615              	 .file 9 "C:/Workspace/DAVE-4.4.2-64Bit/optiga-trust-m/optiga/include/optiga/ifx_i2c/ifx_i2c.h"
 616              	 .file 10 "C:/Workspace/DAVE-4.4.2-64Bit/optiga-trust-m/optiga/include/optiga/pal/pal_os_event.h"
 617              	 .file 11 "C:/Workspace/DAVE-4.4.2-64Bit/optiga-trust-m/optiga/include/optiga/ifx_i2c/ifx_i2c_presentation_layer.h"