   1              	 .cpu cortex-m0
   2              	 .fpu softvfp
   3              	 .eabi_attribute 20,1
   4              	 .eabi_attribute 21,1
   5              	 .eabi_attribute 23,3
   6              	 .eabi_attribute 24,1
   7              	 .eabi_attribute 25,1
   8              	 .eabi_attribute 26,1
   9              	 .eabi_attribute 30,4
  10              	 .eabi_attribute 34,0
  11              	 .eabi_attribute 18,4
  12              	 .code 16
  13              	 .file "pal_i2c.c"
  14              	 .text
  15              	.Ltext0:
  16              	 .cfi_sections .debug_frame
  17              	 .section .text.pal_i2c_acquire.isra.2,"ax",%progbits
  18              	 .align 1
  19              	 .code 16
  20              	 .thumb_func
  22              	pal_i2c_acquire.isra.2:
  23              	.LFB291:
  24              	 .file 1 "//MAC/Home/Downloads/getstarted-optiga-trust-m/optiga-trust-m-1/pal/xmc1400_xtreme/pal_i2c.c"
   1://MAC/Home/Downloads/getstarted-optiga-trust-m/optiga-trust-m-1/pal/xmc1400_xtreme/pal_i2c.c **** /**
   2://MAC/Home/Downloads/getstarted-optiga-trust-m/optiga-trust-m-1/pal/xmc1400_xtreme/pal_i2c.c **** * \copyright
   3://MAC/Home/Downloads/getstarted-optiga-trust-m/optiga-trust-m-1/pal/xmc1400_xtreme/pal_i2c.c **** * MIT License
   4://MAC/Home/Downloads/getstarted-optiga-trust-m/optiga-trust-m-1/pal/xmc1400_xtreme/pal_i2c.c **** *
   5://MAC/Home/Downloads/getstarted-optiga-trust-m/optiga-trust-m-1/pal/xmc1400_xtreme/pal_i2c.c **** * Copyright (c) 2019 Infineon Technologies AG
   6://MAC/Home/Downloads/getstarted-optiga-trust-m/optiga-trust-m-1/pal/xmc1400_xtreme/pal_i2c.c **** *
   7://MAC/Home/Downloads/getstarted-optiga-trust-m/optiga-trust-m-1/pal/xmc1400_xtreme/pal_i2c.c **** * Permission is hereby granted, free of charge, to any person obtaining a copy
   8://MAC/Home/Downloads/getstarted-optiga-trust-m/optiga-trust-m-1/pal/xmc1400_xtreme/pal_i2c.c **** * of this software and associated documentation files (the "Software"), to deal
   9://MAC/Home/Downloads/getstarted-optiga-trust-m/optiga-trust-m-1/pal/xmc1400_xtreme/pal_i2c.c **** * in the Software without restriction, including without limitation the rights
  10://MAC/Home/Downloads/getstarted-optiga-trust-m/optiga-trust-m-1/pal/xmc1400_xtreme/pal_i2c.c **** * to use, copy, modify, merge, publish, distribute, sublicense, and/or sell
  11://MAC/Home/Downloads/getstarted-optiga-trust-m/optiga-trust-m-1/pal/xmc1400_xtreme/pal_i2c.c **** * copies of the Software, and to permit persons to whom the Software is
  12://MAC/Home/Downloads/getstarted-optiga-trust-m/optiga-trust-m-1/pal/xmc1400_xtreme/pal_i2c.c **** * furnished to do so, subject to the following conditions:
  13://MAC/Home/Downloads/getstarted-optiga-trust-m/optiga-trust-m-1/pal/xmc1400_xtreme/pal_i2c.c **** *
  14://MAC/Home/Downloads/getstarted-optiga-trust-m/optiga-trust-m-1/pal/xmc1400_xtreme/pal_i2c.c **** * The above copyright notice and this permission notice shall be included in all
  15://MAC/Home/Downloads/getstarted-optiga-trust-m/optiga-trust-m-1/pal/xmc1400_xtreme/pal_i2c.c **** * copies or substantial portions of the Software.
  16://MAC/Home/Downloads/getstarted-optiga-trust-m/optiga-trust-m-1/pal/xmc1400_xtreme/pal_i2c.c **** *
  17://MAC/Home/Downloads/getstarted-optiga-trust-m/optiga-trust-m-1/pal/xmc1400_xtreme/pal_i2c.c **** * THE SOFTWARE IS PROVIDED "AS IS", WITHOUT WARRANTY OF ANY KIND, EXPRESS OR
  18://MAC/Home/Downloads/getstarted-optiga-trust-m/optiga-trust-m-1/pal/xmc1400_xtreme/pal_i2c.c **** * IMPLIED, INCLUDING BUT NOT LIMITED TO THE WARRANTIES OF MERCHANTABILITY,
  19://MAC/Home/Downloads/getstarted-optiga-trust-m/optiga-trust-m-1/pal/xmc1400_xtreme/pal_i2c.c **** * FITNESS FOR A PARTICULAR PURPOSE AND NONINFRINGEMENT. IN NO EVENT SHALL THE
  20://MAC/Home/Downloads/getstarted-optiga-trust-m/optiga-trust-m-1/pal/xmc1400_xtreme/pal_i2c.c **** * AUTHORS OR COPYRIGHT HOLDERS BE LIABLE FOR ANY CLAIM, DAMAGES OR OTHER
  21://MAC/Home/Downloads/getstarted-optiga-trust-m/optiga-trust-m-1/pal/xmc1400_xtreme/pal_i2c.c **** * LIABILITY, WHETHER IN AN ACTION OF CONTRACT, TORT OR OTHERWISE, ARISING FROM,
  22://MAC/Home/Downloads/getstarted-optiga-trust-m/optiga-trust-m-1/pal/xmc1400_xtreme/pal_i2c.c **** * OUT OF OR IN CONNECTION WITH THE SOFTWARE OR THE USE OR OTHER DEALINGS IN THE
  23://MAC/Home/Downloads/getstarted-optiga-trust-m/optiga-trust-m-1/pal/xmc1400_xtreme/pal_i2c.c **** * SOFTWARE
  24://MAC/Home/Downloads/getstarted-optiga-trust-m/optiga-trust-m-1/pal/xmc1400_xtreme/pal_i2c.c **** *
  25://MAC/Home/Downloads/getstarted-optiga-trust-m/optiga-trust-m-1/pal/xmc1400_xtreme/pal_i2c.c **** * \endcopyright
  26://MAC/Home/Downloads/getstarted-optiga-trust-m/optiga-trust-m-1/pal/xmc1400_xtreme/pal_i2c.c **** *
  27://MAC/Home/Downloads/getstarted-optiga-trust-m/optiga-trust-m-1/pal/xmc1400_xtreme/pal_i2c.c **** * \author Infineon Technologies AG
  28://MAC/Home/Downloads/getstarted-optiga-trust-m/optiga-trust-m-1/pal/xmc1400_xtreme/pal_i2c.c **** *
  29://MAC/Home/Downloads/getstarted-optiga-trust-m/optiga-trust-m-1/pal/xmc1400_xtreme/pal_i2c.c **** * \file pal_i2c.c
  30://MAC/Home/Downloads/getstarted-optiga-trust-m/optiga-trust-m-1/pal/xmc1400_xtreme/pal_i2c.c **** *
  31://MAC/Home/Downloads/getstarted-optiga-trust-m/optiga-trust-m-1/pal/xmc1400_xtreme/pal_i2c.c **** * \brief   This file implements the platform abstraction layer(pal) APIs for I2C.
  32://MAC/Home/Downloads/getstarted-optiga-trust-m/optiga-trust-m-1/pal/xmc1400_xtreme/pal_i2c.c **** *
  33://MAC/Home/Downloads/getstarted-optiga-trust-m/optiga-trust-m-1/pal/xmc1400_xtreme/pal_i2c.c **** * \ingroup  grPAL
  34://MAC/Home/Downloads/getstarted-optiga-trust-m/optiga-trust-m-1/pal/xmc1400_xtreme/pal_i2c.c **** *
  35://MAC/Home/Downloads/getstarted-optiga-trust-m/optiga-trust-m-1/pal/xmc1400_xtreme/pal_i2c.c **** * @{
  36://MAC/Home/Downloads/getstarted-optiga-trust-m/optiga-trust-m-1/pal/xmc1400_xtreme/pal_i2c.c **** */
  37://MAC/Home/Downloads/getstarted-optiga-trust-m/optiga-trust-m-1/pal/xmc1400_xtreme/pal_i2c.c **** 
  38://MAC/Home/Downloads/getstarted-optiga-trust-m/optiga-trust-m-1/pal/xmc1400_xtreme/pal_i2c.c **** 
  39://MAC/Home/Downloads/getstarted-optiga-trust-m/optiga-trust-m-1/pal/xmc1400_xtreme/pal_i2c.c **** 
  40://MAC/Home/Downloads/getstarted-optiga-trust-m/optiga-trust-m-1/pal/xmc1400_xtreme/pal_i2c.c **** #include <DAVE.h>
  41://MAC/Home/Downloads/getstarted-optiga-trust-m/optiga-trust-m-1/pal/xmc1400_xtreme/pal_i2c.c **** #include "optiga/pal/pal_i2c.h"
  42://MAC/Home/Downloads/getstarted-optiga-trust-m/optiga-trust-m-1/pal/xmc1400_xtreme/pal_i2c.c **** 
  43://MAC/Home/Downloads/getstarted-optiga-trust-m/optiga-trust-m-1/pal/xmc1400_xtreme/pal_i2c.c **** #define PAL_I2C_MASTER_MAX_BITRATE  (400U)
  44://MAC/Home/Downloads/getstarted-optiga-trust-m/optiga-trust-m-1/pal/xmc1400_xtreme/pal_i2c.c **** /// @cond hidden
  45://MAC/Home/Downloads/getstarted-optiga-trust-m/optiga-trust-m-1/pal/xmc1400_xtreme/pal_i2c.c **** 
  46://MAC/Home/Downloads/getstarted-optiga-trust-m/optiga-trust-m-1/pal/xmc1400_xtreme/pal_i2c.c **** _STATIC_H volatile uint32_t g_entry_count = 0;
  47://MAC/Home/Downloads/getstarted-optiga-trust-m/optiga-trust-m-1/pal/xmc1400_xtreme/pal_i2c.c **** _STATIC_H pal_i2c_t * gp_pal_i2c_current_ctx;
  48://MAC/Home/Downloads/getstarted-optiga-trust-m/optiga-trust-m-1/pal/xmc1400_xtreme/pal_i2c.c **** 
  49://MAC/Home/Downloads/getstarted-optiga-trust-m/optiga-trust-m-1/pal/xmc1400_xtreme/pal_i2c.c **** //lint --e{715} suppress "This is implemented for overall completion of API"
  50://MAC/Home/Downloads/getstarted-optiga-trust-m/optiga-trust-m-1/pal/xmc1400_xtreme/pal_i2c.c **** _STATIC_H pal_status_t pal_i2c_acquire(const void * p_i2c_context)
  25              	 .loc 1 50 0
  26              	 .cfi_startproc
  27              	.LVL0:
  51://MAC/Home/Downloads/getstarted-optiga-trust-m/optiga-trust-m-1/pal/xmc1400_xtreme/pal_i2c.c **** {
  52://MAC/Home/Downloads/getstarted-optiga-trust-m/optiga-trust-m-1/pal/xmc1400_xtreme/pal_i2c.c ****     if (0 == g_entry_count)
  28              	 .loc 1 52 0
  29 0000 064B     	 ldr r3,.L5
  53://MAC/Home/Downloads/getstarted-optiga-trust-m/optiga-trust-m-1/pal/xmc1400_xtreme/pal_i2c.c ****     {
  54://MAC/Home/Downloads/getstarted-optiga-trust-m/optiga-trust-m-1/pal/xmc1400_xtreme/pal_i2c.c ****         g_entry_count++;
  55://MAC/Home/Downloads/getstarted-optiga-trust-m/optiga-trust-m-1/pal/xmc1400_xtreme/pal_i2c.c ****         if (1 == g_entry_count)
  56://MAC/Home/Downloads/getstarted-optiga-trust-m/optiga-trust-m-1/pal/xmc1400_xtreme/pal_i2c.c ****         {
  57://MAC/Home/Downloads/getstarted-optiga-trust-m/optiga-trust-m-1/pal/xmc1400_xtreme/pal_i2c.c ****             return PAL_STATUS_SUCCESS;
  58://MAC/Home/Downloads/getstarted-optiga-trust-m/optiga-trust-m-1/pal/xmc1400_xtreme/pal_i2c.c ****         }
  59://MAC/Home/Downloads/getstarted-optiga-trust-m/optiga-trust-m-1/pal/xmc1400_xtreme/pal_i2c.c ****     }
  60://MAC/Home/Downloads/getstarted-optiga-trust-m/optiga-trust-m-1/pal/xmc1400_xtreme/pal_i2c.c ****     return PAL_STATUS_FAILURE;
  30              	 .loc 1 60 0
  31 0002 0120     	 mov r0,#1
  52://MAC/Home/Downloads/getstarted-optiga-trust-m/optiga-trust-m-1/pal/xmc1400_xtreme/pal_i2c.c ****     {
  32              	 .loc 1 52 0
  33 0004 1A68     	 ldr r2,[r3]
  34 0006 002A     	 cmp r2,#0
  35 0008 07D1     	 bne .L2
  36              	.LBB20:
  37              	.LBB21:
  54://MAC/Home/Downloads/getstarted-optiga-trust-m/optiga-trust-m-1/pal/xmc1400_xtreme/pal_i2c.c ****         if (1 == g_entry_count)
  38              	 .loc 1 54 0
  39 000a 1A68     	 ldr r2,[r3]
  40 000c 1218     	 add r2,r2,r0
  41 000e 1A60     	 str r2,[r3]
  55://MAC/Home/Downloads/getstarted-optiga-trust-m/optiga-trust-m-1/pal/xmc1400_xtreme/pal_i2c.c ****         {
  42              	 .loc 1 55 0
  43 0010 1868     	 ldr r0,[r3]
  44 0012 0138     	 sub r0,r0,#1
  45 0014 431E     	 sub r3,r0,#1
  46 0016 9841     	 sbc r0,r0,r3
  47              	.LBE21:
  48              	.LBE20:
  49              	 .loc 1 60 0
  50 0018 80B2     	 uxth r0,r0
  51              	.L2:
  61://MAC/Home/Downloads/getstarted-optiga-trust-m/optiga-trust-m-1/pal/xmc1400_xtreme/pal_i2c.c **** }
  52              	 .loc 1 61 0
  53              	 
  54 001a 7047     	 bx lr
  55              	.L6:
  56              	 .align 2
  57              	.L5:
  58 001c 00000000 	 .word .LANCHOR0
  59              	 .cfi_endproc
  60              	.LFE291:
  62              	 .section .text.invoke_upper_layer_callback,"ax",%progbits
  63              	 .align 1
  64              	 .global invoke_upper_layer_callback
  65              	 .code 16
  66              	 .thumb_func
  68              	invoke_upper_layer_callback:
  69              	.LFB278:
  62://MAC/Home/Downloads/getstarted-optiga-trust-m/optiga-trust-m-1/pal/xmc1400_xtreme/pal_i2c.c **** 
  63://MAC/Home/Downloads/getstarted-optiga-trust-m/optiga-trust-m-1/pal/xmc1400_xtreme/pal_i2c.c **** //lint --e{715} suppress "The unused p_i2c_context variable is kept for future enhancements"
  64://MAC/Home/Downloads/getstarted-optiga-trust-m/optiga-trust-m-1/pal/xmc1400_xtreme/pal_i2c.c **** _STATIC_H void pal_i2c_release(const void * p_i2c_context)
  65://MAC/Home/Downloads/getstarted-optiga-trust-m/optiga-trust-m-1/pal/xmc1400_xtreme/pal_i2c.c **** {
  66://MAC/Home/Downloads/getstarted-optiga-trust-m/optiga-trust-m-1/pal/xmc1400_xtreme/pal_i2c.c ****     g_entry_count = 0;
  67://MAC/Home/Downloads/getstarted-optiga-trust-m/optiga-trust-m-1/pal/xmc1400_xtreme/pal_i2c.c **** }
  68://MAC/Home/Downloads/getstarted-optiga-trust-m/optiga-trust-m-1/pal/xmc1400_xtreme/pal_i2c.c **** /// @endcond
  69://MAC/Home/Downloads/getstarted-optiga-trust-m/optiga-trust-m-1/pal/xmc1400_xtreme/pal_i2c.c **** 
  70://MAC/Home/Downloads/getstarted-optiga-trust-m/optiga-trust-m-1/pal/xmc1400_xtreme/pal_i2c.c **** void invoke_upper_layer_callback (const pal_i2c_t * p_pal_i2c_ctx, optiga_lib_status_t event)
  71://MAC/Home/Downloads/getstarted-optiga-trust-m/optiga-trust-m-1/pal/xmc1400_xtreme/pal_i2c.c **** {
  70              	 .loc 1 71 0
  71              	 .cfi_startproc
  72              	.LVL1:
  73 0000 08B5     	 push {r3,lr}
  74              	.LCFI0:
  75              	 .cfi_def_cfa_offset 8
  76              	 .cfi_offset 3,-8
  77              	 .cfi_offset 14,-4
  72://MAC/Home/Downloads/getstarted-optiga-trust-m/optiga-trust-m-1/pal/xmc1400_xtreme/pal_i2c.c ****     upper_layer_callback_t upper_layer_handler;
  73://MAC/Home/Downloads/getstarted-optiga-trust-m/optiga-trust-m-1/pal/xmc1400_xtreme/pal_i2c.c ****     //lint --e{611} suppress "void* function pointer is type casted to upper_layer_callback_t type"
  74://MAC/Home/Downloads/getstarted-optiga-trust-m/optiga-trust-m-1/pal/xmc1400_xtreme/pal_i2c.c ****     upper_layer_handler = (upper_layer_callback_t)p_pal_i2c_ctx->upper_layer_event_handler;
  75://MAC/Home/Downloads/getstarted-optiga-trust-m/optiga-trust-m-1/pal/xmc1400_xtreme/pal_i2c.c **** 
  76://MAC/Home/Downloads/getstarted-optiga-trust-m/optiga-trust-m-1/pal/xmc1400_xtreme/pal_i2c.c ****     upper_layer_handler(p_pal_i2c_ctx->p_upper_layer_ctx, event);
  78              	 .loc 1 76 0
  79 0002 C368     	 ldr r3,[r0,#12]
  80 0004 8068     	 ldr r0,[r0,#8]
  81              	.LVL2:
  82 0006 9847     	 blx r3
  83              	.LVL3:
  84              	.LBB22:
  85              	.LBB23:
  66://MAC/Home/Downloads/getstarted-optiga-trust-m/optiga-trust-m-1/pal/xmc1400_xtreme/pal_i2c.c **** }
  86              	 .loc 1 66 0
  87 0008 0022     	 mov r2,#0
  88 000a 014B     	 ldr r3,.L8
  89              	.LBE23:
  90              	.LBE22:
  77://MAC/Home/Downloads/getstarted-optiga-trust-m/optiga-trust-m-1/pal/xmc1400_xtreme/pal_i2c.c **** 
  78://MAC/Home/Downloads/getstarted-optiga-trust-m/optiga-trust-m-1/pal/xmc1400_xtreme/pal_i2c.c ****     //Release I2C Bus
  79://MAC/Home/Downloads/getstarted-optiga-trust-m/optiga-trust-m-1/pal/xmc1400_xtreme/pal_i2c.c ****     pal_i2c_release(p_pal_i2c_ctx->p_upper_layer_ctx);
  80://MAC/Home/Downloads/getstarted-optiga-trust-m/optiga-trust-m-1/pal/xmc1400_xtreme/pal_i2c.c **** }
  91              	 .loc 1 80 0
  92              	 
  93              	.LBB25:
  94              	.LBB24:
  66://MAC/Home/Downloads/getstarted-optiga-trust-m/optiga-trust-m-1/pal/xmc1400_xtreme/pal_i2c.c **** }
  95              	 .loc 1 66 0
  96 000c 1A60     	 str r2,[r3]
  97              	.LBE24:
  98              	.LBE25:
  99              	 .loc 1 80 0
 100 000e 08BD     	 pop {r3,pc}
 101              	.L9:
 102              	 .align 2
 103              	.L8:
 104 0010 00000000 	 .word .LANCHOR0
 105              	 .cfi_endproc
 106              	.LFE278:
 108              	 .section .text.i2c_master_end_of_transmit_callback,"ax",%progbits
 109              	 .align 1
 110              	 .global i2c_master_end_of_transmit_callback
 111              	 .code 16
 112              	 .thumb_func
 114              	i2c_master_end_of_transmit_callback:
 115              	.LFB279:
  81://MAC/Home/Downloads/getstarted-optiga-trust-m/optiga-trust-m-1/pal/xmc1400_xtreme/pal_i2c.c **** 
  82://MAC/Home/Downloads/getstarted-optiga-trust-m/optiga-trust-m-1/pal/xmc1400_xtreme/pal_i2c.c **** /// @cond hidden
  83://MAC/Home/Downloads/getstarted-optiga-trust-m/optiga-trust-m-1/pal/xmc1400_xtreme/pal_i2c.c **** void i2c_master_end_of_transmit_callback(void)
  84://MAC/Home/Downloads/getstarted-optiga-trust-m/optiga-trust-m-1/pal/xmc1400_xtreme/pal_i2c.c **** {
 116              	 .loc 1 84 0
 117              	 .cfi_startproc
 118 0000 08B5     	 push {r3,lr}
 119              	.LCFI1:
 120              	 .cfi_def_cfa_offset 8
 121              	 .cfi_offset 3,-8
 122              	 .cfi_offset 14,-4
  85://MAC/Home/Downloads/getstarted-optiga-trust-m/optiga-trust-m-1/pal/xmc1400_xtreme/pal_i2c.c ****     invoke_upper_layer_callback(gp_pal_i2c_current_ctx, PAL_I2C_EVENT_SUCCESS);
 123              	 .loc 1 85 0
 124 0002 034B     	 ldr r3,.L11
 125 0004 0021     	 mov r1,#0
 126 0006 1868     	 ldr r0,[r3]
 127 0008 FFF7FEFF 	 bl invoke_upper_layer_callback
 128              	.LVL4:
  86://MAC/Home/Downloads/getstarted-optiga-trust-m/optiga-trust-m-1/pal/xmc1400_xtreme/pal_i2c.c **** }
 129              	 .loc 1 86 0
 130              	 
 131 000c 08BD     	 pop {r3,pc}
 132              	.L12:
 133 000e C046     	 .align 2
 134              	.L11:
 135 0010 00000000 	 .word .LANCHOR1
 136              	 .cfi_endproc
 137              	.LFE279:
 139              	 .section .text.i2c_master_end_of_receive_callback,"ax",%progbits
 140              	 .align 1
 141              	 .global i2c_master_end_of_receive_callback
 142              	 .code 16
 143              	 .thumb_func
 145              	i2c_master_end_of_receive_callback:
 146              	.LFB280:
  87://MAC/Home/Downloads/getstarted-optiga-trust-m/optiga-trust-m-1/pal/xmc1400_xtreme/pal_i2c.c **** 
  88://MAC/Home/Downloads/getstarted-optiga-trust-m/optiga-trust-m-1/pal/xmc1400_xtreme/pal_i2c.c **** void i2c_master_end_of_receive_callback(void)
  89://MAC/Home/Downloads/getstarted-optiga-trust-m/optiga-trust-m-1/pal/xmc1400_xtreme/pal_i2c.c **** {
 147              	 .loc 1 89 0
 148              	 .cfi_startproc
 149 0000 08B5     	 push {r3,lr}
 150              	.LCFI2:
 151              	 .cfi_def_cfa_offset 8
 152              	 .cfi_offset 3,-8
 153              	 .cfi_offset 14,-4
  90://MAC/Home/Downloads/getstarted-optiga-trust-m/optiga-trust-m-1/pal/xmc1400_xtreme/pal_i2c.c ****     invoke_upper_layer_callback(gp_pal_i2c_current_ctx, PAL_I2C_EVENT_SUCCESS);
 154              	 .loc 1 90 0
 155 0002 034B     	 ldr r3,.L14
 156 0004 0021     	 mov r1,#0
 157 0006 1868     	 ldr r0,[r3]
 158 0008 FFF7FEFF 	 bl invoke_upper_layer_callback
 159              	.LVL5:
  91://MAC/Home/Downloads/getstarted-optiga-trust-m/optiga-trust-m-1/pal/xmc1400_xtreme/pal_i2c.c **** }
 160              	 .loc 1 91 0
 161              	 
 162 000c 08BD     	 pop {r3,pc}
 163              	.L15:
 164 000e C046     	 .align 2
 165              	.L14:
 166 0010 00000000 	 .word .LANCHOR1
 167              	 .cfi_endproc
 168              	.LFE280:
 170              	 .section .text.i2c_master_error_detected_callback,"ax",%progbits
 171              	 .align 1
 172              	 .global i2c_master_error_detected_callback
 173              	 .code 16
 174              	 .thumb_func
 176              	i2c_master_error_detected_callback:
 177              	.LFB281:
  92://MAC/Home/Downloads/getstarted-optiga-trust-m/optiga-trust-m-1/pal/xmc1400_xtreme/pal_i2c.c **** 
  93://MAC/Home/Downloads/getstarted-optiga-trust-m/optiga-trust-m-1/pal/xmc1400_xtreme/pal_i2c.c **** void i2c_master_error_detected_callback(void)
  94://MAC/Home/Downloads/getstarted-optiga-trust-m/optiga-trust-m-1/pal/xmc1400_xtreme/pal_i2c.c **** {
 178              	 .loc 1 94 0
 179              	 .cfi_startproc
  95://MAC/Home/Downloads/getstarted-optiga-trust-m/optiga-trust-m-1/pal/xmc1400_xtreme/pal_i2c.c ****     I2C_MASTER_t * p_i2c_master;
  96://MAC/Home/Downloads/getstarted-optiga-trust-m/optiga-trust-m-1/pal/xmc1400_xtreme/pal_i2c.c **** 
  97://MAC/Home/Downloads/getstarted-optiga-trust-m/optiga-trust-m-1/pal/xmc1400_xtreme/pal_i2c.c ****     p_i2c_master = gp_pal_i2c_current_ctx->p_i2c_hw_config;
 180              	 .loc 1 97 0
 181 0000 134A     	 ldr r2,.L25
  94://MAC/Home/Downloads/getstarted-optiga-trust-m/optiga-trust-m-1/pal/xmc1400_xtreme/pal_i2c.c ****     I2C_MASTER_t * p_i2c_master;
 182              	 .loc 1 94 0
 183 0002 38B5     	 push {r3,r4,r5,lr}
 184              	.LCFI3:
 185              	 .cfi_def_cfa_offset 16
 186              	 .cfi_offset 3,-16
 187              	 .cfi_offset 4,-12
 188              	 .cfi_offset 5,-8
 189              	 .cfi_offset 14,-4
 190              	 .loc 1 97 0
 191 0004 1368     	 ldr r3,[r2]
 192 0006 151C     	 mov r5,r2
 193 0008 1C68     	 ldr r4,[r3]
 194              	.LVL6:
 195              	.LBB26:
 196              	.LBB27:
 197              	 .file 2 "//MAC/Home/Downloads/getstarted-optiga-trust-m/xmc1400-getstarted-optiga-trust-m/Dave/Generated/I2C_MASTER/i2c_master.h"
   1://MAC/Home/Downloads/getstarted-optiga-trust-m/xmc1400-getstarted-optiga-trust-m/Dave/Generated/I2C_MASTER/i2c_master.h **** /**
   2://MAC/Home/Downloads/getstarted-optiga-trust-m/xmc1400-getstarted-optiga-trust-m/Dave/Generated/I2C_MASTER/i2c_master.h ****  * @file i2c_master.h
   3://MAC/Home/Downloads/getstarted-optiga-trust-m/xmc1400-getstarted-optiga-trust-m/Dave/Generated/I2C_MASTER/i2c_master.h ****  * @date 2017-12-20
   4://MAC/Home/Downloads/getstarted-optiga-trust-m/xmc1400-getstarted-optiga-trust-m/Dave/Generated/I2C_MASTER/i2c_master.h ****  *
   5://MAC/Home/Downloads/getstarted-optiga-trust-m/xmc1400-getstarted-optiga-trust-m/Dave/Generated/I2C_MASTER/i2c_master.h ****  * NOTE:
   6://MAC/Home/Downloads/getstarted-optiga-trust-m/xmc1400-getstarted-optiga-trust-m/Dave/Generated/I2C_MASTER/i2c_master.h ****  * This file is generated by DAVE. Any manual modification done to this file will be lost when the 
   7://MAC/Home/Downloads/getstarted-optiga-trust-m/xmc1400-getstarted-optiga-trust-m/Dave/Generated/I2C_MASTER/i2c_master.h ****  * regenerated.
   8://MAC/Home/Downloads/getstarted-optiga-trust-m/xmc1400-getstarted-optiga-trust-m/Dave/Generated/I2C_MASTER/i2c_master.h ****  */
   9://MAC/Home/Downloads/getstarted-optiga-trust-m/xmc1400-getstarted-optiga-trust-m/Dave/Generated/I2C_MASTER/i2c_master.h **** /**
  10://MAC/Home/Downloads/getstarted-optiga-trust-m/xmc1400-getstarted-optiga-trust-m/Dave/Generated/I2C_MASTER/i2c_master.h ****  * @cond
  11://MAC/Home/Downloads/getstarted-optiga-trust-m/xmc1400-getstarted-optiga-trust-m/Dave/Generated/I2C_MASTER/i2c_master.h ****  **************************************************************************************************
  12://MAC/Home/Downloads/getstarted-optiga-trust-m/xmc1400-getstarted-optiga-trust-m/Dave/Generated/I2C_MASTER/i2c_master.h ****  * I2C_MASTER v4.1.30 Configures USIC channel to transmit & receive data using I2C protocol.
  13://MAC/Home/Downloads/getstarted-optiga-trust-m/xmc1400-getstarted-optiga-trust-m/Dave/Generated/I2C_MASTER/i2c_master.h ****  *
  14://MAC/Home/Downloads/getstarted-optiga-trust-m/xmc1400-getstarted-optiga-trust-m/Dave/Generated/I2C_MASTER/i2c_master.h ****  * Copyright (c) 2015-2019, Infineon Technologies AG
  15://MAC/Home/Downloads/getstarted-optiga-trust-m/xmc1400-getstarted-optiga-trust-m/Dave/Generated/I2C_MASTER/i2c_master.h ****  * All rights reserved.
  16://MAC/Home/Downloads/getstarted-optiga-trust-m/xmc1400-getstarted-optiga-trust-m/Dave/Generated/I2C_MASTER/i2c_master.h ****  *
  17://MAC/Home/Downloads/getstarted-optiga-trust-m/xmc1400-getstarted-optiga-trust-m/Dave/Generated/I2C_MASTER/i2c_master.h ****  * Redistribution and use in source and binary forms, with or without modification,are permitted pr
  18://MAC/Home/Downloads/getstarted-optiga-trust-m/xmc1400-getstarted-optiga-trust-m/Dave/Generated/I2C_MASTER/i2c_master.h ****  * following conditions are met:
  19://MAC/Home/Downloads/getstarted-optiga-trust-m/xmc1400-getstarted-optiga-trust-m/Dave/Generated/I2C_MASTER/i2c_master.h ****  *
  20://MAC/Home/Downloads/getstarted-optiga-trust-m/xmc1400-getstarted-optiga-trust-m/Dave/Generated/I2C_MASTER/i2c_master.h ****  * Redistributions of source code must retain the above copyright notice, this list of conditions a
  21://MAC/Home/Downloads/getstarted-optiga-trust-m/xmc1400-getstarted-optiga-trust-m/Dave/Generated/I2C_MASTER/i2c_master.h ****  * disclaimer.
  22://MAC/Home/Downloads/getstarted-optiga-trust-m/xmc1400-getstarted-optiga-trust-m/Dave/Generated/I2C_MASTER/i2c_master.h ****  *
  23://MAC/Home/Downloads/getstarted-optiga-trust-m/xmc1400-getstarted-optiga-trust-m/Dave/Generated/I2C_MASTER/i2c_master.h ****  * Redistributions in binary form must reproduce the above copyright notice, this list of condition
  24://MAC/Home/Downloads/getstarted-optiga-trust-m/xmc1400-getstarted-optiga-trust-m/Dave/Generated/I2C_MASTER/i2c_master.h ****  * following disclaimer in the documentation and/or other materials provided with the distribution.
  25://MAC/Home/Downloads/getstarted-optiga-trust-m/xmc1400-getstarted-optiga-trust-m/Dave/Generated/I2C_MASTER/i2c_master.h ****  *
  26://MAC/Home/Downloads/getstarted-optiga-trust-m/xmc1400-getstarted-optiga-trust-m/Dave/Generated/I2C_MASTER/i2c_master.h ****  * Neither the name of the copyright holders nor the names of its contributors may be used to endor
  27://MAC/Home/Downloads/getstarted-optiga-trust-m/xmc1400-getstarted-optiga-trust-m/Dave/Generated/I2C_MASTER/i2c_master.h ****  * products derived from this software without specific prior written permission.
  28://MAC/Home/Downloads/getstarted-optiga-trust-m/xmc1400-getstarted-optiga-trust-m/Dave/Generated/I2C_MASTER/i2c_master.h ****  *
  29://MAC/Home/Downloads/getstarted-optiga-trust-m/xmc1400-getstarted-optiga-trust-m/Dave/Generated/I2C_MASTER/i2c_master.h ****  * THIS SOFTWARE IS PROVIDED BY THE COPYRIGHT HOLDERS AND CONTRIBUTORS "AS IS" AND ANY EXPRESS OR I
  30://MAC/Home/Downloads/getstarted-optiga-trust-m/xmc1400-getstarted-optiga-trust-m/Dave/Generated/I2C_MASTER/i2c_master.h ****  * INCLUDING, BUT NOT LIMITED TO, THE IMPLIED WARRANTIES OF MERCHANTABILITY AND FITNESS FOR A PARTI
  31://MAC/Home/Downloads/getstarted-optiga-trust-m/xmc1400-getstarted-optiga-trust-m/Dave/Generated/I2C_MASTER/i2c_master.h ****  * DISCLAIMED. IN NO EVENT SHALL THE COPYRIGHT HOLDER OR CONTRIBUTORS BE LIABLE  FOR ANY DIRECT, IN
  32://MAC/Home/Downloads/getstarted-optiga-trust-m/xmc1400-getstarted-optiga-trust-m/Dave/Generated/I2C_MASTER/i2c_master.h ****  * SPECIAL, EXEMPLARY, OR CONSEQUENTIAL DAMAGES (INCLUDING, BUT NOT LIMITED TO, PROCUREMENT OF SUBS
  33://MAC/Home/Downloads/getstarted-optiga-trust-m/xmc1400-getstarted-optiga-trust-m/Dave/Generated/I2C_MASTER/i2c_master.h ****  * SERVICES; LOSS OF USE, DATA, OR PROFITS; OR BUSINESS INTERRUPTION) HOWEVER CAUSED AND ON ANY THE
  34://MAC/Home/Downloads/getstarted-optiga-trust-m/xmc1400-getstarted-optiga-trust-m/Dave/Generated/I2C_MASTER/i2c_master.h ****  * WHETHER IN CONTRACT, STRICT LIABILITY,OR TORT (INCLUDING NEGLIGENCE OR OTHERWISE) ARISING IN ANY
  35://MAC/Home/Downloads/getstarted-optiga-trust-m/xmc1400-getstarted-optiga-trust-m/Dave/Generated/I2C_MASTER/i2c_master.h ****  * USE OF THIS SOFTWARE, EVEN IF ADVISED OF THE POSSIBILITY OF SUCH DAMAGE.
  36://MAC/Home/Downloads/getstarted-optiga-trust-m/xmc1400-getstarted-optiga-trust-m/Dave/Generated/I2C_MASTER/i2c_master.h ****  *
  37://MAC/Home/Downloads/getstarted-optiga-trust-m/xmc1400-getstarted-optiga-trust-m/Dave/Generated/I2C_MASTER/i2c_master.h ****  * To improve the quality of the software, users are encouraged to share modifications, enhancement
  38://MAC/Home/Downloads/getstarted-optiga-trust-m/xmc1400-getstarted-optiga-trust-m/Dave/Generated/I2C_MASTER/i2c_master.h ****  * with Infineon Technologies AG (dave@infineon.com).
  39://MAC/Home/Downloads/getstarted-optiga-trust-m/xmc1400-getstarted-optiga-trust-m/Dave/Generated/I2C_MASTER/i2c_master.h ****  **************************************************************************************************
  40://MAC/Home/Downloads/getstarted-optiga-trust-m/xmc1400-getstarted-optiga-trust-m/Dave/Generated/I2C_MASTER/i2c_master.h ****  *
  41://MAC/Home/Downloads/getstarted-optiga-trust-m/xmc1400-getstarted-optiga-trust-m/Dave/Generated/I2C_MASTER/i2c_master.h ****  * Change History
  42://MAC/Home/Downloads/getstarted-optiga-trust-m/xmc1400-getstarted-optiga-trust-m/Dave/Generated/I2C_MASTER/i2c_master.h ****  * --------------
  43://MAC/Home/Downloads/getstarted-optiga-trust-m/xmc1400-getstarted-optiga-trust-m/Dave/Generated/I2C_MASTER/i2c_master.h ****  *
  44://MAC/Home/Downloads/getstarted-optiga-trust-m/xmc1400-getstarted-optiga-trust-m/Dave/Generated/I2C_MASTER/i2c_master.h ****  * 2015-02-16:
  45://MAC/Home/Downloads/getstarted-optiga-trust-m/xmc1400-getstarted-optiga-trust-m/Dave/Generated/I2C_MASTER/i2c_master.h ****  *     - Initial version<br>
  46://MAC/Home/Downloads/getstarted-optiga-trust-m/xmc1400-getstarted-optiga-trust-m/Dave/Generated/I2C_MASTER/i2c_master.h ****  *
  47://MAC/Home/Downloads/getstarted-optiga-trust-m/xmc1400-getstarted-optiga-trust-m/Dave/Generated/I2C_MASTER/i2c_master.h ****  * 2015-06-10:
  48://MAC/Home/Downloads/getstarted-optiga-trust-m/xmc1400-getstarted-optiga-trust-m/Dave/Generated/I2C_MASTER/i2c_master.h ****  *     - AbortTransmit and AbortReceive API return type modified. <br>
  49://MAC/Home/Downloads/getstarted-optiga-trust-m/xmc1400-getstarted-optiga-trust-m/Dave/Generated/I2C_MASTER/i2c_master.h ****  *
  50://MAC/Home/Downloads/getstarted-optiga-trust-m/xmc1400-getstarted-optiga-trust-m/Dave/Generated/I2C_MASTER/i2c_master.h ****  * 2015-08-31:
  51://MAC/Home/Downloads/getstarted-optiga-trust-m/xmc1400-getstarted-optiga-trust-m/Dave/Generated/I2C_MASTER/i2c_master.h ****  *     - DMA support APIs added
  52://MAC/Home/Downloads/getstarted-optiga-trust-m/xmc1400-getstarted-optiga-trust-m/Dave/Generated/I2C_MASTER/i2c_master.h ****  * 2015-10-20:
  53://MAC/Home/Downloads/getstarted-optiga-trust-m/xmc1400-getstarted-optiga-trust-m/Dave/Generated/I2C_MASTER/i2c_master.h ****  *     - Code snippets updated
  54://MAC/Home/Downloads/getstarted-optiga-trust-m/xmc1400-getstarted-optiga-trust-m/Dave/Generated/I2C_MASTER/i2c_master.h ****  * 2016-08-18:
  55://MAC/Home/Downloads/getstarted-optiga-trust-m/xmc1400-getstarted-optiga-trust-m/Dave/Generated/I2C_MASTER/i2c_master.h ****  *     - Documentation of slave address formatting improved.
  56://MAC/Home/Downloads/getstarted-optiga-trust-m/xmc1400-getstarted-optiga-trust-m/Dave/Generated/I2C_MASTER/i2c_master.h ****  * 2017-11-17:
  57://MAC/Home/Downloads/getstarted-optiga-trust-m/xmc1400-getstarted-optiga-trust-m/Dave/Generated/I2C_MASTER/i2c_master.h ****  *     - Added tx_irqn and rx_irqn to I2C_MASTER_CONFIG_t
  58://MAC/Home/Downloads/getstarted-optiga-trust-m/xmc1400-getstarted-optiga-trust-m/Dave/Generated/I2C_MASTER/i2c_master.h ****  * 2017-12-20:
  59://MAC/Home/Downloads/getstarted-optiga-trust-m/xmc1400-getstarted-optiga-trust-m/Dave/Generated/I2C_MASTER/i2c_master.h ****  *     - Added I2C_MASTER_FlushTxFifo(), I2C_MASTER_FlushRxFifo(), I2C_MASTER_DisableOutputs(), I2C
  60://MAC/Home/Downloads/getstarted-optiga-trust-m/xmc1400-getstarted-optiga-trust-m/Dave/Generated/I2C_MASTER/i2c_master.h ****  *
  61://MAC/Home/Downloads/getstarted-optiga-trust-m/xmc1400-getstarted-optiga-trust-m/Dave/Generated/I2C_MASTER/i2c_master.h ****  * @endcond
  62://MAC/Home/Downloads/getstarted-optiga-trust-m/xmc1400-getstarted-optiga-trust-m/Dave/Generated/I2C_MASTER/i2c_master.h ****  *
  63://MAC/Home/Downloads/getstarted-optiga-trust-m/xmc1400-getstarted-optiga-trust-m/Dave/Generated/I2C_MASTER/i2c_master.h ****  */
  64://MAC/Home/Downloads/getstarted-optiga-trust-m/xmc1400-getstarted-optiga-trust-m/Dave/Generated/I2C_MASTER/i2c_master.h **** 
  65://MAC/Home/Downloads/getstarted-optiga-trust-m/xmc1400-getstarted-optiga-trust-m/Dave/Generated/I2C_MASTER/i2c_master.h **** #ifndef I2C_MASTER_H
  66://MAC/Home/Downloads/getstarted-optiga-trust-m/xmc1400-getstarted-optiga-trust-m/Dave/Generated/I2C_MASTER/i2c_master.h **** #define I2C_MASTER_H
  67://MAC/Home/Downloads/getstarted-optiga-trust-m/xmc1400-getstarted-optiga-trust-m/Dave/Generated/I2C_MASTER/i2c_master.h **** 
  68://MAC/Home/Downloads/getstarted-optiga-trust-m/xmc1400-getstarted-optiga-trust-m/Dave/Generated/I2C_MASTER/i2c_master.h **** 
  69://MAC/Home/Downloads/getstarted-optiga-trust-m/xmc1400-getstarted-optiga-trust-m/Dave/Generated/I2C_MASTER/i2c_master.h **** 
  70://MAC/Home/Downloads/getstarted-optiga-trust-m/xmc1400-getstarted-optiga-trust-m/Dave/Generated/I2C_MASTER/i2c_master.h **** /**************************************************************************************************
  71://MAC/Home/Downloads/getstarted-optiga-trust-m/xmc1400-getstarted-optiga-trust-m/Dave/Generated/I2C_MASTER/i2c_master.h ****  * HEADER FILES
  72://MAC/Home/Downloads/getstarted-optiga-trust-m/xmc1400-getstarted-optiga-trust-m/Dave/Generated/I2C_MASTER/i2c_master.h ****  **************************************************************************************************
  73://MAC/Home/Downloads/getstarted-optiga-trust-m/xmc1400-getstarted-optiga-trust-m/Dave/Generated/I2C_MASTER/i2c_master.h **** #include <xmc_gpio.h>
  74://MAC/Home/Downloads/getstarted-optiga-trust-m/xmc1400-getstarted-optiga-trust-m/Dave/Generated/I2C_MASTER/i2c_master.h **** #include <xmc_i2c.h>
  75://MAC/Home/Downloads/getstarted-optiga-trust-m/xmc1400-getstarted-optiga-trust-m/Dave/Generated/I2C_MASTER/i2c_master.h **** #include "i2c_master_conf.h"
  76://MAC/Home/Downloads/getstarted-optiga-trust-m/xmc1400-getstarted-optiga-trust-m/Dave/Generated/I2C_MASTER/i2c_master.h **** 
  77://MAC/Home/Downloads/getstarted-optiga-trust-m/xmc1400-getstarted-optiga-trust-m/Dave/Generated/I2C_MASTER/i2c_master.h **** #if(UC_FAMILY == XMC4)
  78://MAC/Home/Downloads/getstarted-optiga-trust-m/xmc1400-getstarted-optiga-trust-m/Dave/Generated/I2C_MASTER/i2c_master.h **** #if ((I2C_MASTER_DMA_TX_ENABLED == 1) || (I2C_MASTER_DMA_RX_ENABLED == 1))
  79://MAC/Home/Downloads/getstarted-optiga-trust-m/xmc1400-getstarted-optiga-trust-m/Dave/Generated/I2C_MASTER/i2c_master.h **** #include "GLOBAL_DMA/global_dma.h"
  80://MAC/Home/Downloads/getstarted-optiga-trust-m/xmc1400-getstarted-optiga-trust-m/Dave/Generated/I2C_MASTER/i2c_master.h **** #endif
  81://MAC/Home/Downloads/getstarted-optiga-trust-m/xmc1400-getstarted-optiga-trust-m/Dave/Generated/I2C_MASTER/i2c_master.h **** #endif
  82://MAC/Home/Downloads/getstarted-optiga-trust-m/xmc1400-getstarted-optiga-trust-m/Dave/Generated/I2C_MASTER/i2c_master.h **** 
  83://MAC/Home/Downloads/getstarted-optiga-trust-m/xmc1400-getstarted-optiga-trust-m/Dave/Generated/I2C_MASTER/i2c_master.h **** #include <DAVE_Common.h>
  84://MAC/Home/Downloads/getstarted-optiga-trust-m/xmc1400-getstarted-optiga-trust-m/Dave/Generated/I2C_MASTER/i2c_master.h **** 
  85://MAC/Home/Downloads/getstarted-optiga-trust-m/xmc1400-getstarted-optiga-trust-m/Dave/Generated/I2C_MASTER/i2c_master.h **** 
  86://MAC/Home/Downloads/getstarted-optiga-trust-m/xmc1400-getstarted-optiga-trust-m/Dave/Generated/I2C_MASTER/i2c_master.h **** typedef void(*i2c_master_fptr_cbhandler)(void);
  87://MAC/Home/Downloads/getstarted-optiga-trust-m/xmc1400-getstarted-optiga-trust-m/Dave/Generated/I2C_MASTER/i2c_master.h **** 
  88://MAC/Home/Downloads/getstarted-optiga-trust-m/xmc1400-getstarted-optiga-trust-m/Dave/Generated/I2C_MASTER/i2c_master.h **** /**************************************************************************************************
  89://MAC/Home/Downloads/getstarted-optiga-trust-m/xmc1400-getstarted-optiga-trust-m/Dave/Generated/I2C_MASTER/i2c_master.h ****  * MACROS
  90://MAC/Home/Downloads/getstarted-optiga-trust-m/xmc1400-getstarted-optiga-trust-m/Dave/Generated/I2C_MASTER/i2c_master.h ****  **************************************************************************************************
  91://MAC/Home/Downloads/getstarted-optiga-trust-m/xmc1400-getstarted-optiga-trust-m/Dave/Generated/I2C_MASTER/i2c_master.h **** #if (!((XMC_LIB_MAJOR_VERSION == 2U) && \
  92://MAC/Home/Downloads/getstarted-optiga-trust-m/xmc1400-getstarted-optiga-trust-m/Dave/Generated/I2C_MASTER/i2c_master.h ****        (XMC_LIB_MINOR_VERSION >= 0U) && \
  93://MAC/Home/Downloads/getstarted-optiga-trust-m/xmc1400-getstarted-optiga-trust-m/Dave/Generated/I2C_MASTER/i2c_master.h ****        (XMC_LIB_PATCH_VERSION >= 0U)))
  94://MAC/Home/Downloads/getstarted-optiga-trust-m/xmc1400-getstarted-optiga-trust-m/Dave/Generated/I2C_MASTER/i2c_master.h **** #error "I2C_MASTER requires XMC Peripheral Library v2.0.0 or higher"
  95://MAC/Home/Downloads/getstarted-optiga-trust-m/xmc1400-getstarted-optiga-trust-m/Dave/Generated/I2C_MASTER/i2c_master.h **** #endif
  96://MAC/Home/Downloads/getstarted-optiga-trust-m/xmc1400-getstarted-optiga-trust-m/Dave/Generated/I2C_MASTER/i2c_master.h **** 
  97://MAC/Home/Downloads/getstarted-optiga-trust-m/xmc1400-getstarted-optiga-trust-m/Dave/Generated/I2C_MASTER/i2c_master.h **** /**************************************************************************************************
  98://MAC/Home/Downloads/getstarted-optiga-trust-m/xmc1400-getstarted-optiga-trust-m/Dave/Generated/I2C_MASTER/i2c_master.h ****  * ENUMS
  99://MAC/Home/Downloads/getstarted-optiga-trust-m/xmc1400-getstarted-optiga-trust-m/Dave/Generated/I2C_MASTER/i2c_master.h ****  **************************************************************************************************
 100://MAC/Home/Downloads/getstarted-optiga-trust-m/xmc1400-getstarted-optiga-trust-m/Dave/Generated/I2C_MASTER/i2c_master.h **** /**
 101://MAC/Home/Downloads/getstarted-optiga-trust-m/xmc1400-getstarted-optiga-trust-m/Dave/Generated/I2C_MASTER/i2c_master.h ****  * @ingroup I2C_MASTER_enumerations
 102://MAC/Home/Downloads/getstarted-optiga-trust-m/xmc1400-getstarted-optiga-trust-m/Dave/Generated/I2C_MASTER/i2c_master.h ****  * @{
 103://MAC/Home/Downloads/getstarted-optiga-trust-m/xmc1400-getstarted-optiga-trust-m/Dave/Generated/I2C_MASTER/i2c_master.h ****  */
 104://MAC/Home/Downloads/getstarted-optiga-trust-m/xmc1400-getstarted-optiga-trust-m/Dave/Generated/I2C_MASTER/i2c_master.h **** /**
 105://MAC/Home/Downloads/getstarted-optiga-trust-m/xmc1400-getstarted-optiga-trust-m/Dave/Generated/I2C_MASTER/i2c_master.h ****  * Initialization status.
 106://MAC/Home/Downloads/getstarted-optiga-trust-m/xmc1400-getstarted-optiga-trust-m/Dave/Generated/I2C_MASTER/i2c_master.h ****  */
 107://MAC/Home/Downloads/getstarted-optiga-trust-m/xmc1400-getstarted-optiga-trust-m/Dave/Generated/I2C_MASTER/i2c_master.h **** typedef enum I2C_MASTER_STATUS
 108://MAC/Home/Downloads/getstarted-optiga-trust-m/xmc1400-getstarted-optiga-trust-m/Dave/Generated/I2C_MASTER/i2c_master.h **** {
 109://MAC/Home/Downloads/getstarted-optiga-trust-m/xmc1400-getstarted-optiga-trust-m/Dave/Generated/I2C_MASTER/i2c_master.h ****   I2C_MASTER_STATUS_SUCCESS = 0U,           /*!< I2C_MASTER SUCCESS */
 110://MAC/Home/Downloads/getstarted-optiga-trust-m/xmc1400-getstarted-optiga-trust-m/Dave/Generated/I2C_MASTER/i2c_master.h ****   I2C_MASTER_STATUS_FAILURE = 1U,           /*!< I2C_MASTER FAILURE */
 111://MAC/Home/Downloads/getstarted-optiga-trust-m/xmc1400-getstarted-optiga-trust-m/Dave/Generated/I2C_MASTER/i2c_master.h ****   I2C_MASTER_STATUS_BUSY = 2U,              /*!< I2C_MASTER BUSY */
 112://MAC/Home/Downloads/getstarted-optiga-trust-m/xmc1400-getstarted-optiga-trust-m/Dave/Generated/I2C_MASTER/i2c_master.h ****   I2C_MASTER_STATUS_UNSUPPORTED_MODE = 3U   /*!< I2C_MASTER UNSUPPORTED MODE */
 113://MAC/Home/Downloads/getstarted-optiga-trust-m/xmc1400-getstarted-optiga-trust-m/Dave/Generated/I2C_MASTER/i2c_master.h **** } I2C_MASTER_STATUS_t;
 114://MAC/Home/Downloads/getstarted-optiga-trust-m/xmc1400-getstarted-optiga-trust-m/Dave/Generated/I2C_MASTER/i2c_master.h **** 
 115://MAC/Home/Downloads/getstarted-optiga-trust-m/xmc1400-getstarted-optiga-trust-m/Dave/Generated/I2C_MASTER/i2c_master.h **** /**
 116://MAC/Home/Downloads/getstarted-optiga-trust-m/xmc1400-getstarted-optiga-trust-m/Dave/Generated/I2C_MASTER/i2c_master.h ****  * Direction
 117://MAC/Home/Downloads/getstarted-optiga-trust-m/xmc1400-getstarted-optiga-trust-m/Dave/Generated/I2C_MASTER/i2c_master.h ****  */
 118://MAC/Home/Downloads/getstarted-optiga-trust-m/xmc1400-getstarted-optiga-trust-m/Dave/Generated/I2C_MASTER/i2c_master.h **** typedef enum I2C_MASTER_DIRECTION
 119://MAC/Home/Downloads/getstarted-optiga-trust-m/xmc1400-getstarted-optiga-trust-m/Dave/Generated/I2C_MASTER/i2c_master.h **** {
 120://MAC/Home/Downloads/getstarted-optiga-trust-m/xmc1400-getstarted-optiga-trust-m/Dave/Generated/I2C_MASTER/i2c_master.h ****   I2C_MASTER_DIRECTION_TRANSMIT = 0U,   /*!< Direction indicates transmit */
 121://MAC/Home/Downloads/getstarted-optiga-trust-m/xmc1400-getstarted-optiga-trust-m/Dave/Generated/I2C_MASTER/i2c_master.h ****   I2C_MASTER_DIRECTION_RECEIVE = 1U     /*!< Direction indicates receive */
 122://MAC/Home/Downloads/getstarted-optiga-trust-m/xmc1400-getstarted-optiga-trust-m/Dave/Generated/I2C_MASTER/i2c_master.h **** } I2C_MASTER_DIRECTION_t;
 123://MAC/Home/Downloads/getstarted-optiga-trust-m/xmc1400-getstarted-optiga-trust-m/Dave/Generated/I2C_MASTER/i2c_master.h **** 
 124://MAC/Home/Downloads/getstarted-optiga-trust-m/xmc1400-getstarted-optiga-trust-m/Dave/Generated/I2C_MASTER/i2c_master.h **** /**
 125://MAC/Home/Downloads/getstarted-optiga-trust-m/xmc1400-getstarted-optiga-trust-m/Dave/Generated/I2C_MASTER/i2c_master.h ****  * @brief Enum used to identify the transfer type used for either transmit or receive function.
 126://MAC/Home/Downloads/getstarted-optiga-trust-m/xmc1400-getstarted-optiga-trust-m/Dave/Generated/I2C_MASTER/i2c_master.h ****  */
 127://MAC/Home/Downloads/getstarted-optiga-trust-m/xmc1400-getstarted-optiga-trust-m/Dave/Generated/I2C_MASTER/i2c_master.h **** typedef enum I2C_MASTER_TRANSFER_MODE
 128://MAC/Home/Downloads/getstarted-optiga-trust-m/xmc1400-getstarted-optiga-trust-m/Dave/Generated/I2C_MASTER/i2c_master.h **** {
 129://MAC/Home/Downloads/getstarted-optiga-trust-m/xmc1400-getstarted-optiga-trust-m/Dave/Generated/I2C_MASTER/i2c_master.h ****   I2C_MASTER_TRANSFER_MODE_INTERRUPT,  /**< Implement data transmit or receive using interrupts */
 130://MAC/Home/Downloads/getstarted-optiga-trust-m/xmc1400-getstarted-optiga-trust-m/Dave/Generated/I2C_MASTER/i2c_master.h ****   I2C_MASTER_TRANSFER_MODE_DMA,        /**< Implement data transmit or receive using DMA */
 131://MAC/Home/Downloads/getstarted-optiga-trust-m/xmc1400-getstarted-optiga-trust-m/Dave/Generated/I2C_MASTER/i2c_master.h ****   I2C_MASTER_TRANSFER_MODE_DIRECT      /**< This configuration exposes signals for external APP con
 132://MAC/Home/Downloads/getstarted-optiga-trust-m/xmc1400-getstarted-optiga-trust-m/Dave/Generated/I2C_MASTER/i2c_master.h **** } I2C_MASTER_TRANSFER_MODE_t;
 133://MAC/Home/Downloads/getstarted-optiga-trust-m/xmc1400-getstarted-optiga-trust-m/Dave/Generated/I2C_MASTER/i2c_master.h **** /**
 134://MAC/Home/Downloads/getstarted-optiga-trust-m/xmc1400-getstarted-optiga-trust-m/Dave/Generated/I2C_MASTER/i2c_master.h ****  * @}
 135://MAC/Home/Downloads/getstarted-optiga-trust-m/xmc1400-getstarted-optiga-trust-m/Dave/Generated/I2C_MASTER/i2c_master.h ****  */
 136://MAC/Home/Downloads/getstarted-optiga-trust-m/xmc1400-getstarted-optiga-trust-m/Dave/Generated/I2C_MASTER/i2c_master.h **** /**************************************************************************************************
 137://MAC/Home/Downloads/getstarted-optiga-trust-m/xmc1400-getstarted-optiga-trust-m/Dave/Generated/I2C_MASTER/i2c_master.h **** * DATA STRUCTURES
 138://MAC/Home/Downloads/getstarted-optiga-trust-m/xmc1400-getstarted-optiga-trust-m/Dave/Generated/I2C_MASTER/i2c_master.h **** ***************************************************************************************************
 139://MAC/Home/Downloads/getstarted-optiga-trust-m/xmc1400-getstarted-optiga-trust-m/Dave/Generated/I2C_MASTER/i2c_master.h **** 
 140://MAC/Home/Downloads/getstarted-optiga-trust-m/xmc1400-getstarted-optiga-trust-m/Dave/Generated/I2C_MASTER/i2c_master.h **** /**
 141://MAC/Home/Downloads/getstarted-optiga-trust-m/xmc1400-getstarted-optiga-trust-m/Dave/Generated/I2C_MASTER/i2c_master.h ****  * @ingroup I2C_MASTER_datastructures
 142://MAC/Home/Downloads/getstarted-optiga-trust-m/xmc1400-getstarted-optiga-trust-m/Dave/Generated/I2C_MASTER/i2c_master.h ****  * @{
 143://MAC/Home/Downloads/getstarted-optiga-trust-m/xmc1400-getstarted-optiga-trust-m/Dave/Generated/I2C_MASTER/i2c_master.h ****  */
 144://MAC/Home/Downloads/getstarted-optiga-trust-m/xmc1400-getstarted-optiga-trust-m/Dave/Generated/I2C_MASTER/i2c_master.h **** /**
 145://MAC/Home/Downloads/getstarted-optiga-trust-m/xmc1400-getstarted-optiga-trust-m/Dave/Generated/I2C_MASTER/i2c_master.h ****  * @brief Structure for DMA configuration.
 146://MAC/Home/Downloads/getstarted-optiga-trust-m/xmc1400-getstarted-optiga-trust-m/Dave/Generated/I2C_MASTER/i2c_master.h ****  */
 147://MAC/Home/Downloads/getstarted-optiga-trust-m/xmc1400-getstarted-optiga-trust-m/Dave/Generated/I2C_MASTER/i2c_master.h **** #if ((I2C_MASTER_DMA_TX_ENABLED == 1) || (I2C_MASTER_DMA_RX_ENABLED == 1))
 148://MAC/Home/Downloads/getstarted-optiga-trust-m/xmc1400-getstarted-optiga-trust-m/Dave/Generated/I2C_MASTER/i2c_master.h **** typedef struct I2C_MASTER_DMA_CONFIG
 149://MAC/Home/Downloads/getstarted-optiga-trust-m/xmc1400-getstarted-optiga-trust-m/Dave/Generated/I2C_MASTER/i2c_master.h **** {
 150://MAC/Home/Downloads/getstarted-optiga-trust-m/xmc1400-getstarted-optiga-trust-m/Dave/Generated/I2C_MASTER/i2c_master.h ****   const XMC_DMA_CH_CONFIG_t * dma_ch_config;   /**< Pointer to the DMA channel configuration.*/
 151://MAC/Home/Downloads/getstarted-optiga-trust-m/xmc1400-getstarted-optiga-trust-m/Dave/Generated/I2C_MASTER/i2c_master.h ****   GLOBAL_DMA_t * global_dma;                   /**< Global DMA handle */
 152://MAC/Home/Downloads/getstarted-optiga-trust-m/xmc1400-getstarted-optiga-trust-m/Dave/Generated/I2C_MASTER/i2c_master.h ****   uint8_t dma_channel;                         /**< DMA channel number */
 153://MAC/Home/Downloads/getstarted-optiga-trust-m/xmc1400-getstarted-optiga-trust-m/Dave/Generated/I2C_MASTER/i2c_master.h **** } I2C_MASTER_DMA_CONFIG_t;
 154://MAC/Home/Downloads/getstarted-optiga-trust-m/xmc1400-getstarted-optiga-trust-m/Dave/Generated/I2C_MASTER/i2c_master.h **** #endif
 155://MAC/Home/Downloads/getstarted-optiga-trust-m/xmc1400-getstarted-optiga-trust-m/Dave/Generated/I2C_MASTER/i2c_master.h **** /**
 156://MAC/Home/Downloads/getstarted-optiga-trust-m/xmc1400-getstarted-optiga-trust-m/Dave/Generated/I2C_MASTER/i2c_master.h ****  * @brief Constant structure for holding the configuration parameters of I2C channel.
 157://MAC/Home/Downloads/getstarted-optiga-trust-m/xmc1400-getstarted-optiga-trust-m/Dave/Generated/I2C_MASTER/i2c_master.h ****  */
 158://MAC/Home/Downloads/getstarted-optiga-trust-m/xmc1400-getstarted-optiga-trust-m/Dave/Generated/I2C_MASTER/i2c_master.h **** typedef struct I2C_MASTER_CONFIG
 159://MAC/Home/Downloads/getstarted-optiga-trust-m/xmc1400-getstarted-optiga-trust-m/Dave/Generated/I2C_MASTER/i2c_master.h **** {
 160://MAC/Home/Downloads/getstarted-optiga-trust-m/xmc1400-getstarted-optiga-trust-m/Dave/Generated/I2C_MASTER/i2c_master.h ****    const XMC_I2C_CH_CONFIG_t *brg_config;             /*!< Basic I2C configuration from the GUI wit
 161://MAC/Home/Downloads/getstarted-optiga-trust-m/xmc1400-getstarted-optiga-trust-m/Dave/Generated/I2C_MASTER/i2c_master.h **** #if (I2C_MASTER_DMA_TX_ENABLED == 1)
 162://MAC/Home/Downloads/getstarted-optiga-trust-m/xmc1400-getstarted-optiga-trust-m/Dave/Generated/I2C_MASTER/i2c_master.h ****    const I2C_MASTER_DMA_CONFIG_t * const transmit_dma_config; /**< Pointer to the DMA channel confi
 163://MAC/Home/Downloads/getstarted-optiga-trust-m/xmc1400-getstarted-optiga-trust-m/Dave/Generated/I2C_MASTER/i2c_master.h ****                                                                    data transmission.*/
 164://MAC/Home/Downloads/getstarted-optiga-trust-m/xmc1400-getstarted-optiga-trust-m/Dave/Generated/I2C_MASTER/i2c_master.h **** #endif
 165://MAC/Home/Downloads/getstarted-optiga-trust-m/xmc1400-getstarted-optiga-trust-m/Dave/Generated/I2C_MASTER/i2c_master.h **** #if (I2C_MASTER_DMA_RX_ENABLED == 1)
 166://MAC/Home/Downloads/getstarted-optiga-trust-m/xmc1400-getstarted-optiga-trust-m/Dave/Generated/I2C_MASTER/i2c_master.h ****    const I2C_MASTER_DMA_CONFIG_t * const receive_dma_config;  /**< Pointer to the DMA channel confi
 167://MAC/Home/Downloads/getstarted-optiga-trust-m/xmc1400-getstarted-optiga-trust-m/Dave/Generated/I2C_MASTER/i2c_master.h ****                                                                    data reception.*/
 168://MAC/Home/Downloads/getstarted-optiga-trust-m/xmc1400-getstarted-optiga-trust-m/Dave/Generated/I2C_MASTER/i2c_master.h **** #endif
 169://MAC/Home/Downloads/getstarted-optiga-trust-m/xmc1400-getstarted-optiga-trust-m/Dave/Generated/I2C_MASTER/i2c_master.h ****    i2c_master_fptr_cbhandler fptr_i2c_config;         /*!< Function pointer to configure the MUX va
 170://MAC/Home/Downloads/getstarted-optiga-trust-m/xmc1400-getstarted-optiga-trust-m/Dave/Generated/I2C_MASTER/i2c_master.h ****    i2c_master_fptr_cbhandler fptr_i2c_enable_io;      /*!< Function pointer to enable SDA/SCL outpu
 171://MAC/Home/Downloads/getstarted-optiga-trust-m/xmc1400-getstarted-optiga-trust-m/Dave/Generated/I2C_MASTER/i2c_master.h ****    i2c_master_fptr_cbhandler fptr_i2c_disable_io;     /*!< Function pointer to disable SDA/SCL outp
 172://MAC/Home/Downloads/getstarted-optiga-trust-m/xmc1400-getstarted-optiga-trust-m/Dave/Generated/I2C_MASTER/i2c_master.h **** 
 173://MAC/Home/Downloads/getstarted-optiga-trust-m/xmc1400-getstarted-optiga-trust-m/Dave/Generated/I2C_MASTER/i2c_master.h ****    i2c_master_fptr_cbhandler tx_cbhandler;            /*!< Function pointer to hold the callback fu
 174://MAC/Home/Downloads/getstarted-optiga-trust-m/xmc1400-getstarted-optiga-trust-m/Dave/Generated/I2C_MASTER/i2c_master.h ****                                                            called when the transmission is complete
 175://MAC/Home/Downloads/getstarted-optiga-trust-m/xmc1400-getstarted-optiga-trust-m/Dave/Generated/I2C_MASTER/i2c_master.h ****    i2c_master_fptr_cbhandler rx_cbhandler;            /*!< Function pointer to hold the callback fu
 176://MAC/Home/Downloads/getstarted-optiga-trust-m/xmc1400-getstarted-optiga-trust-m/Dave/Generated/I2C_MASTER/i2c_master.h ****                                                            called when the reception is complete*/
 177://MAC/Home/Downloads/getstarted-optiga-trust-m/xmc1400-getstarted-optiga-trust-m/Dave/Generated/I2C_MASTER/i2c_master.h ****    i2c_master_fptr_cbhandler nack_cbhandler;          /*!< Function pointer to hold the callback fu
 178://MAC/Home/Downloads/getstarted-optiga-trust-m/xmc1400-getstarted-optiga-trust-m/Dave/Generated/I2C_MASTER/i2c_master.h ****                                                            called when nack is received*/
 179://MAC/Home/Downloads/getstarted-optiga-trust-m/xmc1400-getstarted-optiga-trust-m/Dave/Generated/I2C_MASTER/i2c_master.h ****    i2c_master_fptr_cbhandler arbitration_cbhandler;   /*!< Function pointer to hold the callback fu
 180://MAC/Home/Downloads/getstarted-optiga-trust-m/xmc1400-getstarted-optiga-trust-m/Dave/Generated/I2C_MASTER/i2c_master.h ****                                                            called when arbitration lost is occured*
 181://MAC/Home/Downloads/getstarted-optiga-trust-m/xmc1400-getstarted-optiga-trust-m/Dave/Generated/I2C_MASTER/i2c_master.h ****    i2c_master_fptr_cbhandler error_cbhandler;         /*!< Function pointer to hold the callback fu
 182://MAC/Home/Downloads/getstarted-optiga-trust-m/xmc1400-getstarted-optiga-trust-m/Dave/Generated/I2C_MASTER/i2c_master.h ****                                                            called when error is detected.*/
 183://MAC/Home/Downloads/getstarted-optiga-trust-m/xmc1400-getstarted-optiga-trust-m/Dave/Generated/I2C_MASTER/i2c_master.h ****    I2C_MASTER_TRANSFER_MODE_t transmit_mode;          /**< Mode used for transmitting data. Data ca
 184://MAC/Home/Downloads/getstarted-optiga-trust-m/xmc1400-getstarted-optiga-trust-m/Dave/Generated/I2C_MASTER/i2c_master.h ****                                                            interrupt, DMA or direct(using polling o
 185://MAC/Home/Downloads/getstarted-optiga-trust-m/xmc1400-getstarted-optiga-trust-m/Dave/Generated/I2C_MASTER/i2c_master.h ****    I2C_MASTER_TRANSFER_MODE_t receive_mode;           /**< Mode used for receiving data. Data can b
 186://MAC/Home/Downloads/getstarted-optiga-trust-m/xmc1400-getstarted-optiga-trust-m/Dave/Generated/I2C_MASTER/i2c_master.h ****                                                            interrupt, DMA or direct(using polling o
 187://MAC/Home/Downloads/getstarted-optiga-trust-m/xmc1400-getstarted-optiga-trust-m/Dave/Generated/I2C_MASTER/i2c_master.h **** 
 188://MAC/Home/Downloads/getstarted-optiga-trust-m/xmc1400-getstarted-optiga-trust-m/Dave/Generated/I2C_MASTER/i2c_master.h ****    XMC_USIC_CH_FIFO_SIZE_t txFIFO_size;               /*!< TxFIFO size configuration*/
 189://MAC/Home/Downloads/getstarted-optiga-trust-m/xmc1400-getstarted-optiga-trust-m/Dave/Generated/I2C_MASTER/i2c_master.h ****    XMC_USIC_CH_FIFO_SIZE_t rxFIFO_size;               /*!< RxFIFO size configuration*/
 190://MAC/Home/Downloads/getstarted-optiga-trust-m/xmc1400-getstarted-optiga-trust-m/Dave/Generated/I2C_MASTER/i2c_master.h **** 
 191://MAC/Home/Downloads/getstarted-optiga-trust-m/xmc1400-getstarted-optiga-trust-m/Dave/Generated/I2C_MASTER/i2c_master.h ****    IRQn_Type tx_irqn;
 192://MAC/Home/Downloads/getstarted-optiga-trust-m/xmc1400-getstarted-optiga-trust-m/Dave/Generated/I2C_MASTER/i2c_master.h ****    IRQn_Type rx_irqn; 
 193://MAC/Home/Downloads/getstarted-optiga-trust-m/xmc1400-getstarted-optiga-trust-m/Dave/Generated/I2C_MASTER/i2c_master.h **** } I2C_MASTER_CONFIG_t;
 194://MAC/Home/Downloads/getstarted-optiga-trust-m/xmc1400-getstarted-optiga-trust-m/Dave/Generated/I2C_MASTER/i2c_master.h **** 
 195://MAC/Home/Downloads/getstarted-optiga-trust-m/xmc1400-getstarted-optiga-trust-m/Dave/Generated/I2C_MASTER/i2c_master.h **** /**
 196://MAC/Home/Downloads/getstarted-optiga-trust-m/xmc1400-getstarted-optiga-trust-m/Dave/Generated/I2C_MASTER/i2c_master.h ****  * @brief Structure to hold the dynamic variables for the I2C_MASTER communication.
 197://MAC/Home/Downloads/getstarted-optiga-trust-m/xmc1400-getstarted-optiga-trust-m/Dave/Generated/I2C_MASTER/i2c_master.h ****  */
 198://MAC/Home/Downloads/getstarted-optiga-trust-m/xmc1400-getstarted-optiga-trust-m/Dave/Generated/I2C_MASTER/i2c_master.h **** typedef struct I2C_MASTER_RUNTIME
 199://MAC/Home/Downloads/getstarted-optiga-trust-m/xmc1400-getstarted-optiga-trust-m/Dave/Generated/I2C_MASTER/i2c_master.h **** {
 200://MAC/Home/Downloads/getstarted-optiga-trust-m/xmc1400-getstarted-optiga-trust-m/Dave/Generated/I2C_MASTER/i2c_master.h ****   uint8_t * tx_data;                     /*!< Pointer to the transmit data buffer*/
 201://MAC/Home/Downloads/getstarted-optiga-trust-m/xmc1400-getstarted-optiga-trust-m/Dave/Generated/I2C_MASTER/i2c_master.h ****   uint8_t * rx_data;                     /*!< Pointer to the receive data buffer*/
 202://MAC/Home/Downloads/getstarted-optiga-trust-m/xmc1400-getstarted-optiga-trust-m/Dave/Generated/I2C_MASTER/i2c_master.h ****   uint32_t tx_data_count;                /*!< Number of bytes of data to be transmitted*/
 203://MAC/Home/Downloads/getstarted-optiga-trust-m/xmc1400-getstarted-optiga-trust-m/Dave/Generated/I2C_MASTER/i2c_master.h ****   volatile uint32_t tx_data_index;       /*!< Index to the byte to be transmitted next in the tx_da
 204://MAC/Home/Downloads/getstarted-optiga-trust-m/xmc1400-getstarted-optiga-trust-m/Dave/Generated/I2C_MASTER/i2c_master.h ****   uint32_t rx_data_count;                /*!< Number of bytes of data to be received*/
 205://MAC/Home/Downloads/getstarted-optiga-trust-m/xmc1400-getstarted-optiga-trust-m/Dave/Generated/I2C_MASTER/i2c_master.h **** #if (I2C_MASTER_DMA_RX_ENABLED == 1)
 206://MAC/Home/Downloads/getstarted-optiga-trust-m/xmc1400-getstarted-optiga-trust-m/Dave/Generated/I2C_MASTER/i2c_master.h ****   uint32_t rx_dma_data_count;            /*!< Number of bytes of data to be received-DMA mode*/
 207://MAC/Home/Downloads/getstarted-optiga-trust-m/xmc1400-getstarted-optiga-trust-m/Dave/Generated/I2C_MASTER/i2c_master.h ****   uint32_t rx_dma_data_index;            /*!< Index of bytes of data to be received-DMA mode*/
 208://MAC/Home/Downloads/getstarted-optiga-trust-m/xmc1400-getstarted-optiga-trust-m/Dave/Generated/I2C_MASTER/i2c_master.h **** #endif
 209://MAC/Home/Downloads/getstarted-optiga-trust-m/xmc1400-getstarted-optiga-trust-m/Dave/Generated/I2C_MASTER/i2c_master.h ****   volatile uint32_t rx_data_index;       /*!< Indicates the number of bytes currently available in 
 210://MAC/Home/Downloads/getstarted-optiga-trust-m/xmc1400-getstarted-optiga-trust-m/Dave/Generated/I2C_MASTER/i2c_master.h ****   volatile uint32_t direction;           /*!< Indicates TRANSMIT/RECEIVE */
 211://MAC/Home/Downloads/getstarted-optiga-trust-m/xmc1400-getstarted-optiga-trust-m/Dave/Generated/I2C_MASTER/i2c_master.h ****   uint32_t send_stop;                    /*!< Indicates to stop the I2C */
 212://MAC/Home/Downloads/getstarted-optiga-trust-m/xmc1400-getstarted-optiga-trust-m/Dave/Generated/I2C_MASTER/i2c_master.h ****   uint32_t send_nack;                    /*!< Indicates to send nack */
 213://MAC/Home/Downloads/getstarted-optiga-trust-m/xmc1400-getstarted-optiga-trust-m/Dave/Generated/I2C_MASTER/i2c_master.h ****   uint8_t tx_ack_sr;                         /*!< Service request number assigned to transmit inter
 214://MAC/Home/Downloads/getstarted-optiga-trust-m/xmc1400-getstarted-optiga-trust-m/Dave/Generated/I2C_MASTER/i2c_master.h ****   uint8_t rx_sr;                         /*!< Service request number assigned to receive interrupts
 215://MAC/Home/Downloads/getstarted-optiga-trust-m/xmc1400-getstarted-optiga-trust-m/Dave/Generated/I2C_MASTER/i2c_master.h ****   volatile bool tx_busy;                 /*!< Status flag to indicate busy when a transmission is a
 216://MAC/Home/Downloads/getstarted-optiga-trust-m/xmc1400-getstarted-optiga-trust-m/Dave/Generated/I2C_MASTER/i2c_master.h ****   volatile bool rx_busy;                 /*!< Status flag to indicate busy when a reception is assi
 217://MAC/Home/Downloads/getstarted-optiga-trust-m/xmc1400-getstarted-optiga-trust-m/Dave/Generated/I2C_MASTER/i2c_master.h ****   volatile bool bus_acquired;            /*!< flag to indicate whether bus is acquired or not */
 218://MAC/Home/Downloads/getstarted-optiga-trust-m/xmc1400-getstarted-optiga-trust-m/Dave/Generated/I2C_MASTER/i2c_master.h **** } I2C_MASTER_RUNTIME_t;
 219://MAC/Home/Downloads/getstarted-optiga-trust-m/xmc1400-getstarted-optiga-trust-m/Dave/Generated/I2C_MASTER/i2c_master.h **** 
 220://MAC/Home/Downloads/getstarted-optiga-trust-m/xmc1400-getstarted-optiga-trust-m/Dave/Generated/I2C_MASTER/i2c_master.h **** 
 221://MAC/Home/Downloads/getstarted-optiga-trust-m/xmc1400-getstarted-optiga-trust-m/Dave/Generated/I2C_MASTER/i2c_master.h **** /**
 222://MAC/Home/Downloads/getstarted-optiga-trust-m/xmc1400-getstarted-optiga-trust-m/Dave/Generated/I2C_MASTER/i2c_master.h ****  * @brief Handler structure with pointers to dynamic and static parameters.
 223://MAC/Home/Downloads/getstarted-optiga-trust-m/xmc1400-getstarted-optiga-trust-m/Dave/Generated/I2C_MASTER/i2c_master.h ****  */
 224://MAC/Home/Downloads/getstarted-optiga-trust-m/xmc1400-getstarted-optiga-trust-m/Dave/Generated/I2C_MASTER/i2c_master.h **** typedef struct I2C_MASTER
 225://MAC/Home/Downloads/getstarted-optiga-trust-m/xmc1400-getstarted-optiga-trust-m/Dave/Generated/I2C_MASTER/i2c_master.h **** {
 226://MAC/Home/Downloads/getstarted-optiga-trust-m/xmc1400-getstarted-optiga-trust-m/Dave/Generated/I2C_MASTER/i2c_master.h ****   XMC_USIC_CH_t *channel;                    /*!< USIC channel*/
 227://MAC/Home/Downloads/getstarted-optiga-trust-m/xmc1400-getstarted-optiga-trust-m/Dave/Generated/I2C_MASTER/i2c_master.h ****   const I2C_MASTER_CONFIG_t * const config;  /*!< I2C configuration structure pointer*/
 228://MAC/Home/Downloads/getstarted-optiga-trust-m/xmc1400-getstarted-optiga-trust-m/Dave/Generated/I2C_MASTER/i2c_master.h ****   I2C_MASTER_RUNTIME_t * const runtime;      /*!< Pointer to the structure holding all variables,
 229://MAC/Home/Downloads/getstarted-optiga-trust-m/xmc1400-getstarted-optiga-trust-m/Dave/Generated/I2C_MASTER/i2c_master.h ****    	                                               that can change at runtime*/
 230://MAC/Home/Downloads/getstarted-optiga-trust-m/xmc1400-getstarted-optiga-trust-m/Dave/Generated/I2C_MASTER/i2c_master.h **** } I2C_MASTER_t;
 231://MAC/Home/Downloads/getstarted-optiga-trust-m/xmc1400-getstarted-optiga-trust-m/Dave/Generated/I2C_MASTER/i2c_master.h **** 
 232://MAC/Home/Downloads/getstarted-optiga-trust-m/xmc1400-getstarted-optiga-trust-m/Dave/Generated/I2C_MASTER/i2c_master.h **** /**
 233://MAC/Home/Downloads/getstarted-optiga-trust-m/xmc1400-getstarted-optiga-trust-m/Dave/Generated/I2C_MASTER/i2c_master.h ****  * @}
 234://MAC/Home/Downloads/getstarted-optiga-trust-m/xmc1400-getstarted-optiga-trust-m/Dave/Generated/I2C_MASTER/i2c_master.h ****  */
 235://MAC/Home/Downloads/getstarted-optiga-trust-m/xmc1400-getstarted-optiga-trust-m/Dave/Generated/I2C_MASTER/i2c_master.h **** 
 236://MAC/Home/Downloads/getstarted-optiga-trust-m/xmc1400-getstarted-optiga-trust-m/Dave/Generated/I2C_MASTER/i2c_master.h **** #ifdef __cplusplus
 237://MAC/Home/Downloads/getstarted-optiga-trust-m/xmc1400-getstarted-optiga-trust-m/Dave/Generated/I2C_MASTER/i2c_master.h **** extern "C" {
 238://MAC/Home/Downloads/getstarted-optiga-trust-m/xmc1400-getstarted-optiga-trust-m/Dave/Generated/I2C_MASTER/i2c_master.h **** #endif
 239://MAC/Home/Downloads/getstarted-optiga-trust-m/xmc1400-getstarted-optiga-trust-m/Dave/Generated/I2C_MASTER/i2c_master.h **** 
 240://MAC/Home/Downloads/getstarted-optiga-trust-m/xmc1400-getstarted-optiga-trust-m/Dave/Generated/I2C_MASTER/i2c_master.h **** 
 241://MAC/Home/Downloads/getstarted-optiga-trust-m/xmc1400-getstarted-optiga-trust-m/Dave/Generated/I2C_MASTER/i2c_master.h **** /**
 242://MAC/Home/Downloads/getstarted-optiga-trust-m/xmc1400-getstarted-optiga-trust-m/Dave/Generated/I2C_MASTER/i2c_master.h ****  * @ingroup I2C_MASTER_apidoc
 243://MAC/Home/Downloads/getstarted-optiga-trust-m/xmc1400-getstarted-optiga-trust-m/Dave/Generated/I2C_MASTER/i2c_master.h ****  * @{
 244://MAC/Home/Downloads/getstarted-optiga-trust-m/xmc1400-getstarted-optiga-trust-m/Dave/Generated/I2C_MASTER/i2c_master.h ****  */
 245://MAC/Home/Downloads/getstarted-optiga-trust-m/xmc1400-getstarted-optiga-trust-m/Dave/Generated/I2C_MASTER/i2c_master.h **** 
 246://MAC/Home/Downloads/getstarted-optiga-trust-m/xmc1400-getstarted-optiga-trust-m/Dave/Generated/I2C_MASTER/i2c_master.h **** /**************************************************************************************************
 247://MAC/Home/Downloads/getstarted-optiga-trust-m/xmc1400-getstarted-optiga-trust-m/Dave/Generated/I2C_MASTER/i2c_master.h ****  * API PROTOTYPES
 248://MAC/Home/Downloads/getstarted-optiga-trust-m/xmc1400-getstarted-optiga-trust-m/Dave/Generated/I2C_MASTER/i2c_master.h ****  **************************************************************************************************
 249://MAC/Home/Downloads/getstarted-optiga-trust-m/xmc1400-getstarted-optiga-trust-m/Dave/Generated/I2C_MASTER/i2c_master.h **** /**
 250://MAC/Home/Downloads/getstarted-optiga-trust-m/xmc1400-getstarted-optiga-trust-m/Dave/Generated/I2C_MASTER/i2c_master.h ****  * @brief Get I2C_MASTER APP version.
 251://MAC/Home/Downloads/getstarted-optiga-trust-m/xmc1400-getstarted-optiga-trust-m/Dave/Generated/I2C_MASTER/i2c_master.h ****  * @return \a DAVE_APP_VERSION_t APP version information (major, minor and patch number)
 252://MAC/Home/Downloads/getstarted-optiga-trust-m/xmc1400-getstarted-optiga-trust-m/Dave/Generated/I2C_MASTER/i2c_master.h ****  *
 253://MAC/Home/Downloads/getstarted-optiga-trust-m/xmc1400-getstarted-optiga-trust-m/Dave/Generated/I2C_MASTER/i2c_master.h ****  * \par<b>Description: </b><br>
 254://MAC/Home/Downloads/getstarted-optiga-trust-m/xmc1400-getstarted-optiga-trust-m/Dave/Generated/I2C_MASTER/i2c_master.h ****  * The function can be used to check application software compatibility with a
 255://MAC/Home/Downloads/getstarted-optiga-trust-m/xmc1400-getstarted-optiga-trust-m/Dave/Generated/I2C_MASTER/i2c_master.h ****  * specific version of the APP.
 256://MAC/Home/Downloads/getstarted-optiga-trust-m/xmc1400-getstarted-optiga-trust-m/Dave/Generated/I2C_MASTER/i2c_master.h ****  *
 257://MAC/Home/Downloads/getstarted-optiga-trust-m/xmc1400-getstarted-optiga-trust-m/Dave/Generated/I2C_MASTER/i2c_master.h ****  * @code
 258://MAC/Home/Downloads/getstarted-optiga-trust-m/xmc1400-getstarted-optiga-trust-m/Dave/Generated/I2C_MASTER/i2c_master.h ****  *  #include <DAVE.h>
 259://MAC/Home/Downloads/getstarted-optiga-trust-m/xmc1400-getstarted-optiga-trust-m/Dave/Generated/I2C_MASTER/i2c_master.h ****  *
 260://MAC/Home/Downloads/getstarted-optiga-trust-m/xmc1400-getstarted-optiga-trust-m/Dave/Generated/I2C_MASTER/i2c_master.h ****  *  int main(void)
 261://MAC/Home/Downloads/getstarted-optiga-trust-m/xmc1400-getstarted-optiga-trust-m/Dave/Generated/I2C_MASTER/i2c_master.h ****  *  {
 262://MAC/Home/Downloads/getstarted-optiga-trust-m/xmc1400-getstarted-optiga-trust-m/Dave/Generated/I2C_MASTER/i2c_master.h ****  *    DAVE_APP_VERSION_t version;
 263://MAC/Home/Downloads/getstarted-optiga-trust-m/xmc1400-getstarted-optiga-trust-m/Dave/Generated/I2C_MASTER/i2c_master.h ****  *    DAVE_Init();
 264://MAC/Home/Downloads/getstarted-optiga-trust-m/xmc1400-getstarted-optiga-trust-m/Dave/Generated/I2C_MASTER/i2c_master.h ****  *    version = I2C_MASTER_GetAppVersion();
 265://MAC/Home/Downloads/getstarted-optiga-trust-m/xmc1400-getstarted-optiga-trust-m/Dave/Generated/I2C_MASTER/i2c_master.h ****  *    if(version.major != 4U)
 266://MAC/Home/Downloads/getstarted-optiga-trust-m/xmc1400-getstarted-optiga-trust-m/Dave/Generated/I2C_MASTER/i2c_master.h ****  *    {
 267://MAC/Home/Downloads/getstarted-optiga-trust-m/xmc1400-getstarted-optiga-trust-m/Dave/Generated/I2C_MASTER/i2c_master.h ****  *    }
 268://MAC/Home/Downloads/getstarted-optiga-trust-m/xmc1400-getstarted-optiga-trust-m/Dave/Generated/I2C_MASTER/i2c_master.h ****  *    while(1)
 269://MAC/Home/Downloads/getstarted-optiga-trust-m/xmc1400-getstarted-optiga-trust-m/Dave/Generated/I2C_MASTER/i2c_master.h ****  *    {}
 270://MAC/Home/Downloads/getstarted-optiga-trust-m/xmc1400-getstarted-optiga-trust-m/Dave/Generated/I2C_MASTER/i2c_master.h ****  *    return 0;
 271://MAC/Home/Downloads/getstarted-optiga-trust-m/xmc1400-getstarted-optiga-trust-m/Dave/Generated/I2C_MASTER/i2c_master.h ****  *  }
 272://MAC/Home/Downloads/getstarted-optiga-trust-m/xmc1400-getstarted-optiga-trust-m/Dave/Generated/I2C_MASTER/i2c_master.h ****  * @endcode<BR> </p>
 273://MAC/Home/Downloads/getstarted-optiga-trust-m/xmc1400-getstarted-optiga-trust-m/Dave/Generated/I2C_MASTER/i2c_master.h ****  */
 274://MAC/Home/Downloads/getstarted-optiga-trust-m/xmc1400-getstarted-optiga-trust-m/Dave/Generated/I2C_MASTER/i2c_master.h **** DAVE_APP_VERSION_t I2C_MASTER_GetAppVersion(void);
 275://MAC/Home/Downloads/getstarted-optiga-trust-m/xmc1400-getstarted-optiga-trust-m/Dave/Generated/I2C_MASTER/i2c_master.h **** /**
 276://MAC/Home/Downloads/getstarted-optiga-trust-m/xmc1400-getstarted-optiga-trust-m/Dave/Generated/I2C_MASTER/i2c_master.h ****  * @brief This function initializes the I2C_MASTER APP based on user provided configuration.
 277://MAC/Home/Downloads/getstarted-optiga-trust-m/xmc1400-getstarted-optiga-trust-m/Dave/Generated/I2C_MASTER/i2c_master.h ****  *
 278://MAC/Home/Downloads/getstarted-optiga-trust-m/xmc1400-getstarted-optiga-trust-m/Dave/Generated/I2C_MASTER/i2c_master.h ****  * @return None
 279://MAC/Home/Downloads/getstarted-optiga-trust-m/xmc1400-getstarted-optiga-trust-m/Dave/Generated/I2C_MASTER/i2c_master.h ****  *
 280://MAC/Home/Downloads/getstarted-optiga-trust-m/xmc1400-getstarted-optiga-trust-m/Dave/Generated/I2C_MASTER/i2c_master.h ****  * \par<b>Description: </b><br>
 281://MAC/Home/Downloads/getstarted-optiga-trust-m/xmc1400-getstarted-optiga-trust-m/Dave/Generated/I2C_MASTER/i2c_master.h ****  * I2C configurations like channel selection,baud rate setting,
 282://MAC/Home/Downloads/getstarted-optiga-trust-m/xmc1400-getstarted-optiga-trust-m/Dave/Generated/I2C_MASTER/i2c_master.h ****  * FIFO configuration etc are done in this API.
 283://MAC/Home/Downloads/getstarted-optiga-trust-m/xmc1400-getstarted-optiga-trust-m/Dave/Generated/I2C_MASTER/i2c_master.h ****  * Protocol specific interrupts can also be enabled using the I2C_MASTER_Init
 284://MAC/Home/Downloads/getstarted-optiga-trust-m/xmc1400-getstarted-optiga-trust-m/Dave/Generated/I2C_MASTER/i2c_master.h ****  * function.
 285://MAC/Home/Downloads/getstarted-optiga-trust-m/xmc1400-getstarted-optiga-trust-m/Dave/Generated/I2C_MASTER/i2c_master.h ****  *
 286://MAC/Home/Downloads/getstarted-optiga-trust-m/xmc1400-getstarted-optiga-trust-m/Dave/Generated/I2C_MASTER/i2c_master.h ****  * Pre-requisite: Instantiate I2C_MASTER APP and generate code before using below code snippet.
 287://MAC/Home/Downloads/getstarted-optiga-trust-m/xmc1400-getstarted-optiga-trust-m/Dave/Generated/I2C_MASTER/i2c_master.h ****  * @code
 288://MAC/Home/Downloads/getstarted-optiga-trust-m/xmc1400-getstarted-optiga-trust-m/Dave/Generated/I2C_MASTER/i2c_master.h ****  *
 289://MAC/Home/Downloads/getstarted-optiga-trust-m/xmc1400-getstarted-optiga-trust-m/Dave/Generated/I2C_MASTER/i2c_master.h ****  *  #include <DAVE.h>
 290://MAC/Home/Downloads/getstarted-optiga-trust-m/xmc1400-getstarted-optiga-trust-m/Dave/Generated/I2C_MASTER/i2c_master.h ****  *  int main(void)
 291://MAC/Home/Downloads/getstarted-optiga-trust-m/xmc1400-getstarted-optiga-trust-m/Dave/Generated/I2C_MASTER/i2c_master.h ****  *  {
 292://MAC/Home/Downloads/getstarted-optiga-trust-m/xmc1400-getstarted-optiga-trust-m/Dave/Generated/I2C_MASTER/i2c_master.h ****  *   // Initializing the modules and the multiplexer
 293://MAC/Home/Downloads/getstarted-optiga-trust-m/xmc1400-getstarted-optiga-trust-m/Dave/Generated/I2C_MASTER/i2c_master.h ****  *   DAVE_Init(); // I2C_MASTER_Init will be called from DAVE_Init()
 294://MAC/Home/Downloads/getstarted-optiga-trust-m/xmc1400-getstarted-optiga-trust-m/Dave/Generated/I2C_MASTER/i2c_master.h ****  *   while(1)
 295://MAC/Home/Downloads/getstarted-optiga-trust-m/xmc1400-getstarted-optiga-trust-m/Dave/Generated/I2C_MASTER/i2c_master.h ****  *   {}
 296://MAC/Home/Downloads/getstarted-optiga-trust-m/xmc1400-getstarted-optiga-trust-m/Dave/Generated/I2C_MASTER/i2c_master.h ****  *   return 0;
 297://MAC/Home/Downloads/getstarted-optiga-trust-m/xmc1400-getstarted-optiga-trust-m/Dave/Generated/I2C_MASTER/i2c_master.h ****  *  }
 298://MAC/Home/Downloads/getstarted-optiga-trust-m/xmc1400-getstarted-optiga-trust-m/Dave/Generated/I2C_MASTER/i2c_master.h ****  * @endcode<BR> </p>
 299://MAC/Home/Downloads/getstarted-optiga-trust-m/xmc1400-getstarted-optiga-trust-m/Dave/Generated/I2C_MASTER/i2c_master.h ****  *
 300://MAC/Home/Downloads/getstarted-optiga-trust-m/xmc1400-getstarted-optiga-trust-m/Dave/Generated/I2C_MASTER/i2c_master.h ****  */
 301://MAC/Home/Downloads/getstarted-optiga-trust-m/xmc1400-getstarted-optiga-trust-m/Dave/Generated/I2C_MASTER/i2c_master.h **** 
 302://MAC/Home/Downloads/getstarted-optiga-trust-m/xmc1400-getstarted-optiga-trust-m/Dave/Generated/I2C_MASTER/i2c_master.h **** I2C_MASTER_STATUS_t I2C_MASTER_Init(const I2C_MASTER_t *const handle);
 303://MAC/Home/Downloads/getstarted-optiga-trust-m/xmc1400-getstarted-optiga-trust-m/Dave/Generated/I2C_MASTER/i2c_master.h **** 
 304://MAC/Home/Downloads/getstarted-optiga-trust-m/xmc1400-getstarted-optiga-trust-m/Dave/Generated/I2C_MASTER/i2c_master.h **** 
 305://MAC/Home/Downloads/getstarted-optiga-trust-m/xmc1400-getstarted-optiga-trust-m/Dave/Generated/I2C_MASTER/i2c_master.h **** /**
 306://MAC/Home/Downloads/getstarted-optiga-trust-m/xmc1400-getstarted-optiga-trust-m/Dave/Generated/I2C_MASTER/i2c_master.h ****  * @brief  Receives the data from I2C slave device.
 307://MAC/Home/Downloads/getstarted-optiga-trust-m/xmc1400-getstarted-optiga-trust-m/Dave/Generated/I2C_MASTER/i2c_master.h ****  * @param  handle I2C device handle of type I2C_MASTER_t*
 308://MAC/Home/Downloads/getstarted-optiga-trust-m/xmc1400-getstarted-optiga-trust-m/Dave/Generated/I2C_MASTER/i2c_master.h ****  * @param  send_start Flag to indicate that the start condition need to be send.
 309://MAC/Home/Downloads/getstarted-optiga-trust-m/xmc1400-getstarted-optiga-trust-m/Dave/Generated/I2C_MASTER/i2c_master.h ****  * @param  address I2C slave device address.
 310://MAC/Home/Downloads/getstarted-optiga-trust-m/xmc1400-getstarted-optiga-trust-m/Dave/Generated/I2C_MASTER/i2c_master.h ****  * @param  data buffer to receive data.
 311://MAC/Home/Downloads/getstarted-optiga-trust-m/xmc1400-getstarted-optiga-trust-m/Dave/Generated/I2C_MASTER/i2c_master.h ****  * @param  count The number of bytes to be received from slave.
 312://MAC/Home/Downloads/getstarted-optiga-trust-m/xmc1400-getstarted-optiga-trust-m/Dave/Generated/I2C_MASTER/i2c_master.h ****  * @param  send_stop The flag to indicate that the stop condition need to be send.
 313://MAC/Home/Downloads/getstarted-optiga-trust-m/xmc1400-getstarted-optiga-trust-m/Dave/Generated/I2C_MASTER/i2c_master.h ****  * @param  send_nack The flag to indicate that the NACK condition need to be send for the last byte
 314://MAC/Home/Downloads/getstarted-optiga-trust-m/xmc1400-getstarted-optiga-trust-m/Dave/Generated/I2C_MASTER/i2c_master.h ****  * @return @ref I2C_MASTER_STATUS_t Status.
 315://MAC/Home/Downloads/getstarted-optiga-trust-m/xmc1400-getstarted-optiga-trust-m/Dave/Generated/I2C_MASTER/i2c_master.h ****  * \par<b>NOTE: </b><br>
 316://MAC/Home/Downloads/getstarted-optiga-trust-m/xmc1400-getstarted-optiga-trust-m/Dave/Generated/I2C_MASTER/i2c_master.h ****  * I2C_MASTER_Receive API can be used in Interrupt and Direct modes.\n
 317://MAC/Home/Downloads/getstarted-optiga-trust-m/xmc1400-getstarted-optiga-trust-m/Dave/Generated/I2C_MASTER/i2c_master.h ****  * Address(address) should reserve an additional bit at the LSB for read/write indication. For exam
 318://MAC/Home/Downloads/getstarted-optiga-trust-m/xmc1400-getstarted-optiga-trust-m/Dave/Generated/I2C_MASTER/i2c_master.h ****  * be provided as 0x0a. If the address is 10-bit, only most significant bits with the 10-bit identi
 319://MAC/Home/Downloads/getstarted-optiga-trust-m/xmc1400-getstarted-optiga-trust-m/Dave/Generated/I2C_MASTER/i2c_master.h ****  * For example, if the 10-bit address is 0x305, the address should be provided as 0xf6(prepend with
 320://MAC/Home/Downloads/getstarted-optiga-trust-m/xmc1400-getstarted-optiga-trust-m/Dave/Generated/I2C_MASTER/i2c_master.h ****  * followed by 1-bit field for read/write).\n
 321://MAC/Home/Downloads/getstarted-optiga-trust-m/xmc1400-getstarted-optiga-trust-m/Dave/Generated/I2C_MASTER/i2c_master.h ****  * Pre-requisite: Instantiate I2C_MASTER APP and generate code before using below code snippet.
 322://MAC/Home/Downloads/getstarted-optiga-trust-m/xmc1400-getstarted-optiga-trust-m/Dave/Generated/I2C_MASTER/i2c_master.h ****  *
 323://MAC/Home/Downloads/getstarted-optiga-trust-m/xmc1400-getstarted-optiga-trust-m/Dave/Generated/I2C_MASTER/i2c_master.h ****  * @code
 324://MAC/Home/Downloads/getstarted-optiga-trust-m/xmc1400-getstarted-optiga-trust-m/Dave/Generated/I2C_MASTER/i2c_master.h ****  *
 325://MAC/Home/Downloads/getstarted-optiga-trust-m/xmc1400-getstarted-optiga-trust-m/Dave/Generated/I2C_MASTER/i2c_master.h ****  *  #include <DAVE.h>
 326://MAC/Home/Downloads/getstarted-optiga-trust-m/xmc1400-getstarted-optiga-trust-m/Dave/Generated/I2C_MASTER/i2c_master.h ****  *  #define SLAVE_ADDRESS 0xA0
 327://MAC/Home/Downloads/getstarted-optiga-trust-m/xmc1400-getstarted-optiga-trust-m/Dave/Generated/I2C_MASTER/i2c_master.h ****  *  #define BYTES_TO_READ 10
 328://MAC/Home/Downloads/getstarted-optiga-trust-m/xmc1400-getstarted-optiga-trust-m/Dave/Generated/I2C_MASTER/i2c_master.h ****  *  #define BYTES_TO_TRANSMIT 10
 329://MAC/Home/Downloads/getstarted-optiga-trust-m/xmc1400-getstarted-optiga-trust-m/Dave/Generated/I2C_MASTER/i2c_master.h ****  *
 330://MAC/Home/Downloads/getstarted-optiga-trust-m/xmc1400-getstarted-optiga-trust-m/Dave/Generated/I2C_MASTER/i2c_master.h ****  *  typedef enum PCA9502_REGADDR {
 331://MAC/Home/Downloads/getstarted-optiga-trust-m/xmc1400-getstarted-optiga-trust-m/Dave/Generated/I2C_MASTER/i2c_master.h ****  *    IO_DIR    = 0xA << 3,
 332://MAC/Home/Downloads/getstarted-optiga-trust-m/xmc1400-getstarted-optiga-trust-m/Dave/Generated/I2C_MASTER/i2c_master.h ****  *    IO_STATE  = 0xB << 3,
 333://MAC/Home/Downloads/getstarted-optiga-trust-m/xmc1400-getstarted-optiga-trust-m/Dave/Generated/I2C_MASTER/i2c_master.h ****  *    IO_INTE   = 0xC << 3,
 334://MAC/Home/Downloads/getstarted-optiga-trust-m/xmc1400-getstarted-optiga-trust-m/Dave/Generated/I2C_MASTER/i2c_master.h ****  *    IO_CTRL   = 0xE << 3
 335://MAC/Home/Downloads/getstarted-optiga-trust-m/xmc1400-getstarted-optiga-trust-m/Dave/Generated/I2C_MASTER/i2c_master.h ****  *  } PCA9502_REGADDR_t;
 336://MAC/Home/Downloads/getstarted-optiga-trust-m/xmc1400-getstarted-optiga-trust-m/Dave/Generated/I2C_MASTER/i2c_master.h **** 
 337://MAC/Home/Downloads/getstarted-optiga-trust-m/xmc1400-getstarted-optiga-trust-m/Dave/Generated/I2C_MASTER/i2c_master.h ****  *  uint8_t mem_address[2];
 338://MAC/Home/Downloads/getstarted-optiga-trust-m/xmc1400-getstarted-optiga-trust-m/Dave/Generated/I2C_MASTER/i2c_master.h ****  *  uint8_t data = 0x55;
 339://MAC/Home/Downloads/getstarted-optiga-trust-m/xmc1400-getstarted-optiga-trust-m/Dave/Generated/I2C_MASTER/i2c_master.h ****  *  uint8_t rx_data;
 340://MAC/Home/Downloads/getstarted-optiga-trust-m/xmc1400-getstarted-optiga-trust-m/Dave/Generated/I2C_MASTER/i2c_master.h ****  *
 341://MAC/Home/Downloads/getstarted-optiga-trust-m/xmc1400-getstarted-optiga-trust-m/Dave/Generated/I2C_MASTER/i2c_master.h ****  *  int main(void)
 342://MAC/Home/Downloads/getstarted-optiga-trust-m/xmc1400-getstarted-optiga-trust-m/Dave/Generated/I2C_MASTER/i2c_master.h ****  *  {
 343://MAC/Home/Downloads/getstarted-optiga-trust-m/xmc1400-getstarted-optiga-trust-m/Dave/Generated/I2C_MASTER/i2c_master.h ****  *   DAVE_STATUS_t init_status;  
 344://MAC/Home/Downloads/getstarted-optiga-trust-m/xmc1400-getstarted-optiga-trust-m/Dave/Generated/I2C_MASTER/i2c_master.h ****  *   init_status = DAVE_Init();
 345://MAC/Home/Downloads/getstarted-optiga-trust-m/xmc1400-getstarted-optiga-trust-m/Dave/Generated/I2C_MASTER/i2c_master.h ****  *   if(init_status == DAVE_STATUS_SUCCESS)
 346://MAC/Home/Downloads/getstarted-optiga-trust-m/xmc1400-getstarted-optiga-trust-m/Dave/Generated/I2C_MASTER/i2c_master.h ****  *   {
 347://MAC/Home/Downloads/getstarted-optiga-trust-m/xmc1400-getstarted-optiga-trust-m/Dave/Generated/I2C_MASTER/i2c_master.h ****  *     mem_address[0] = IO_STATE;//memory which need to be read from slave
 348://MAC/Home/Downloads/getstarted-optiga-trust-m/xmc1400-getstarted-optiga-trust-m/Dave/Generated/I2C_MASTER/i2c_master.h ****  *     //Write data to IO EXPANDER
 349://MAC/Home/Downloads/getstarted-optiga-trust-m/xmc1400-getstarted-optiga-trust-m/Dave/Generated/I2C_MASTER/i2c_master.h ****  *     I2C_MASTER_Transmit(&I2C_MASTER_0,true,SLAVE_ADDRESS,mem_address,1,false);
 350://MAC/Home/Downloads/getstarted-optiga-trust-m/xmc1400-getstarted-optiga-trust-m/Dave/Generated/I2C_MASTER/i2c_master.h ****  *     while(I2C_MASTER_IsTxBusy(&I2C_MASTER_0));
 351://MAC/Home/Downloads/getstarted-optiga-trust-m/xmc1400-getstarted-optiga-trust-m/Dave/Generated/I2C_MASTER/i2c_master.h ****  *
 352://MAC/Home/Downloads/getstarted-optiga-trust-m/xmc1400-getstarted-optiga-trust-m/Dave/Generated/I2C_MASTER/i2c_master.h ****  *     I2C_MASTER_Transmit(&I2C_MASTER_0,false,SLAVE_ADDRESS,&data,1,true);
 353://MAC/Home/Downloads/getstarted-optiga-trust-m/xmc1400-getstarted-optiga-trust-m/Dave/Generated/I2C_MASTER/i2c_master.h ****  *     while(I2C_MASTER_IsTxBusy(&I2C_MASTER_0));
 354://MAC/Home/Downloads/getstarted-optiga-trust-m/xmc1400-getstarted-optiga-trust-m/Dave/Generated/I2C_MASTER/i2c_master.h **** 
 355://MAC/Home/Downloads/getstarted-optiga-trust-m/xmc1400-getstarted-optiga-trust-m/Dave/Generated/I2C_MASTER/i2c_master.h ****  *     //Read data from IO EXPANDER
 356://MAC/Home/Downloads/getstarted-optiga-trust-m/xmc1400-getstarted-optiga-trust-m/Dave/Generated/I2C_MASTER/i2c_master.h ****  *     I2C_MASTER_Transmit(&I2C_MASTER_0,true,SLAVE_ADDRESS,mem_address,1,false);
 357://MAC/Home/Downloads/getstarted-optiga-trust-m/xmc1400-getstarted-optiga-trust-m/Dave/Generated/I2C_MASTER/i2c_master.h ****  *     while(I2C_MASTER_IsTxBusy(&I2C_MASTER_0));
 358://MAC/Home/Downloads/getstarted-optiga-trust-m/xmc1400-getstarted-optiga-trust-m/Dave/Generated/I2C_MASTER/i2c_master.h ****  *
 359://MAC/Home/Downloads/getstarted-optiga-trust-m/xmc1400-getstarted-optiga-trust-m/Dave/Generated/I2C_MASTER/i2c_master.h ****  *     I2C_MASTER_Receive(&I2C_MASTER_0,true,SLAVE_ADDRESS,&rx_data,1,true,true);
 360://MAC/Home/Downloads/getstarted-optiga-trust-m/xmc1400-getstarted-optiga-trust-m/Dave/Generated/I2C_MASTER/i2c_master.h ****  *     while(I2C_MASTER_IsRxBusy(&I2C_MASTER_0));
 361://MAC/Home/Downloads/getstarted-optiga-trust-m/xmc1400-getstarted-optiga-trust-m/Dave/Generated/I2C_MASTER/i2c_master.h ****  *   }
 362://MAC/Home/Downloads/getstarted-optiga-trust-m/xmc1400-getstarted-optiga-trust-m/Dave/Generated/I2C_MASTER/i2c_master.h ****  *   while(1)
 363://MAC/Home/Downloads/getstarted-optiga-trust-m/xmc1400-getstarted-optiga-trust-m/Dave/Generated/I2C_MASTER/i2c_master.h ****  *   { }
 364://MAC/Home/Downloads/getstarted-optiga-trust-m/xmc1400-getstarted-optiga-trust-m/Dave/Generated/I2C_MASTER/i2c_master.h ****  *  return 0;
 365://MAC/Home/Downloads/getstarted-optiga-trust-m/xmc1400-getstarted-optiga-trust-m/Dave/Generated/I2C_MASTER/i2c_master.h ****  * }
 366://MAC/Home/Downloads/getstarted-optiga-trust-m/xmc1400-getstarted-optiga-trust-m/Dave/Generated/I2C_MASTER/i2c_master.h ****  *
 367://MAC/Home/Downloads/getstarted-optiga-trust-m/xmc1400-getstarted-optiga-trust-m/Dave/Generated/I2C_MASTER/i2c_master.h ****  * @endcode<BR> </p>
 368://MAC/Home/Downloads/getstarted-optiga-trust-m/xmc1400-getstarted-optiga-trust-m/Dave/Generated/I2C_MASTER/i2c_master.h ****  *
 369://MAC/Home/Downloads/getstarted-optiga-trust-m/xmc1400-getstarted-optiga-trust-m/Dave/Generated/I2C_MASTER/i2c_master.h ****  */
 370://MAC/Home/Downloads/getstarted-optiga-trust-m/xmc1400-getstarted-optiga-trust-m/Dave/Generated/I2C_MASTER/i2c_master.h **** I2C_MASTER_STATUS_t I2C_MASTER_Receive(I2C_MASTER_t *handle, bool send_start, const uint32_t addres
 371://MAC/Home/Downloads/getstarted-optiga-trust-m/xmc1400-getstarted-optiga-trust-m/Dave/Generated/I2C_MASTER/i2c_master.h ****                                        uint8_t * data, const uint32_t count, bool send_stop, bool s
 372://MAC/Home/Downloads/getstarted-optiga-trust-m/xmc1400-getstarted-optiga-trust-m/Dave/Generated/I2C_MASTER/i2c_master.h **** 
 373://MAC/Home/Downloads/getstarted-optiga-trust-m/xmc1400-getstarted-optiga-trust-m/Dave/Generated/I2C_MASTER/i2c_master.h **** /**
 374://MAC/Home/Downloads/getstarted-optiga-trust-m/xmc1400-getstarted-optiga-trust-m/Dave/Generated/I2C_MASTER/i2c_master.h ****  * @brief Transmits data to I2C slave device.
 375://MAC/Home/Downloads/getstarted-optiga-trust-m/xmc1400-getstarted-optiga-trust-m/Dave/Generated/I2C_MASTER/i2c_master.h ****  *
 376://MAC/Home/Downloads/getstarted-optiga-trust-m/xmc1400-getstarted-optiga-trust-m/Dave/Generated/I2C_MASTER/i2c_master.h ****  * @param  handle I2C device handle of type I2C_MASTER_t*
 377://MAC/Home/Downloads/getstarted-optiga-trust-m/xmc1400-getstarted-optiga-trust-m/Dave/Generated/I2C_MASTER/i2c_master.h ****  * @param  send_start The flag to indicate that the start condition need to be send.
 378://MAC/Home/Downloads/getstarted-optiga-trust-m/xmc1400-getstarted-optiga-trust-m/Dave/Generated/I2C_MASTER/i2c_master.h ****  * @param  address I2C slave device address.
 379://MAC/Home/Downloads/getstarted-optiga-trust-m/xmc1400-getstarted-optiga-trust-m/Dave/Generated/I2C_MASTER/i2c_master.h ****  * @param  data buffer containing the data to transmit.
 380://MAC/Home/Downloads/getstarted-optiga-trust-m/xmc1400-getstarted-optiga-trust-m/Dave/Generated/I2C_MASTER/i2c_master.h ****  * @param  size The number of bytes to be send to slave.
 381://MAC/Home/Downloads/getstarted-optiga-trust-m/xmc1400-getstarted-optiga-trust-m/Dave/Generated/I2C_MASTER/i2c_master.h ****  * @param  send_stop The flag to indicate that the stop condition need to be send.
 382://MAC/Home/Downloads/getstarted-optiga-trust-m/xmc1400-getstarted-optiga-trust-m/Dave/Generated/I2C_MASTER/i2c_master.h ****  *
 383://MAC/Home/Downloads/getstarted-optiga-trust-m/xmc1400-getstarted-optiga-trust-m/Dave/Generated/I2C_MASTER/i2c_master.h ****  * @return @ref I2C_MASTER_STATUS_t Status.
 384://MAC/Home/Downloads/getstarted-optiga-trust-m/xmc1400-getstarted-optiga-trust-m/Dave/Generated/I2C_MASTER/i2c_master.h ****  * \par<b>NOTE: </b><br>
 385://MAC/Home/Downloads/getstarted-optiga-trust-m/xmc1400-getstarted-optiga-trust-m/Dave/Generated/I2C_MASTER/i2c_master.h ****  * I2C_MASTER_Transmit API can be used in Interrupt and Direct modes.\n
 386://MAC/Home/Downloads/getstarted-optiga-trust-m/xmc1400-getstarted-optiga-trust-m/Dave/Generated/I2C_MASTER/i2c_master.h ****  * Address(address) should reserve an additional bit at the LSB for read/write indication. For exam
 387://MAC/Home/Downloads/getstarted-optiga-trust-m/xmc1400-getstarted-optiga-trust-m/Dave/Generated/I2C_MASTER/i2c_master.h ****  * be provided as 0x0a. If the address is 10-bit, only most significant bits with the 10-bit identi
 388://MAC/Home/Downloads/getstarted-optiga-trust-m/xmc1400-getstarted-optiga-trust-m/Dave/Generated/I2C_MASTER/i2c_master.h ****  * For example, if the 10-bit address is 0x305, the address should be provided as 0xf6(prepend with
 389://MAC/Home/Downloads/getstarted-optiga-trust-m/xmc1400-getstarted-optiga-trust-m/Dave/Generated/I2C_MASTER/i2c_master.h ****  * followed by 1-bit field for read/write). \n
 390://MAC/Home/Downloads/getstarted-optiga-trust-m/xmc1400-getstarted-optiga-trust-m/Dave/Generated/I2C_MASTER/i2c_master.h ****  * Pre-requisite: Instantiate I2C_MASTER APP and generate code before using below code snippet.
 391://MAC/Home/Downloads/getstarted-optiga-trust-m/xmc1400-getstarted-optiga-trust-m/Dave/Generated/I2C_MASTER/i2c_master.h ****  * 
 392://MAC/Home/Downloads/getstarted-optiga-trust-m/xmc1400-getstarted-optiga-trust-m/Dave/Generated/I2C_MASTER/i2c_master.h ****  * @code
 393://MAC/Home/Downloads/getstarted-optiga-trust-m/xmc1400-getstarted-optiga-trust-m/Dave/Generated/I2C_MASTER/i2c_master.h ****  *
 394://MAC/Home/Downloads/getstarted-optiga-trust-m/xmc1400-getstarted-optiga-trust-m/Dave/Generated/I2C_MASTER/i2c_master.h ****  *  #include <DAVE.h>
 395://MAC/Home/Downloads/getstarted-optiga-trust-m/xmc1400-getstarted-optiga-trust-m/Dave/Generated/I2C_MASTER/i2c_master.h ****  *  #define SLAVE_ADDRESS (0xA0)
 396://MAC/Home/Downloads/getstarted-optiga-trust-m/xmc1400-getstarted-optiga-trust-m/Dave/Generated/I2C_MASTER/i2c_master.h ****  *  typedef enum PCA9502_REGADDR {
 397://MAC/Home/Downloads/getstarted-optiga-trust-m/xmc1400-getstarted-optiga-trust-m/Dave/Generated/I2C_MASTER/i2c_master.h ****  *    IO_DIR    = 0xA << 3,
 398://MAC/Home/Downloads/getstarted-optiga-trust-m/xmc1400-getstarted-optiga-trust-m/Dave/Generated/I2C_MASTER/i2c_master.h ****  *    IO_STATE  = 0xB << 3,
 399://MAC/Home/Downloads/getstarted-optiga-trust-m/xmc1400-getstarted-optiga-trust-m/Dave/Generated/I2C_MASTER/i2c_master.h ****  *    IO_INTE   = 0xC << 3,
 400://MAC/Home/Downloads/getstarted-optiga-trust-m/xmc1400-getstarted-optiga-trust-m/Dave/Generated/I2C_MASTER/i2c_master.h ****  *    IO_CTRL   = 0xE << 3
 401://MAC/Home/Downloads/getstarted-optiga-trust-m/xmc1400-getstarted-optiga-trust-m/Dave/Generated/I2C_MASTER/i2c_master.h ****  *  } PCA9502_REGADDR_t;
 402://MAC/Home/Downloads/getstarted-optiga-trust-m/xmc1400-getstarted-optiga-trust-m/Dave/Generated/I2C_MASTER/i2c_master.h ****  *
 403://MAC/Home/Downloads/getstarted-optiga-trust-m/xmc1400-getstarted-optiga-trust-m/Dave/Generated/I2C_MASTER/i2c_master.h ****  *  uint8_t tx_buffer[64] = {0x01,0x02,0x03,0x04,0x05};
 404://MAC/Home/Downloads/getstarted-optiga-trust-m/xmc1400-getstarted-optiga-trust-m/Dave/Generated/I2C_MASTER/i2c_master.h ****  *  uint8_t mem_address[2];
 405://MAC/Home/Downloads/getstarted-optiga-trust-m/xmc1400-getstarted-optiga-trust-m/Dave/Generated/I2C_MASTER/i2c_master.h ****  *
 406://MAC/Home/Downloads/getstarted-optiga-trust-m/xmc1400-getstarted-optiga-trust-m/Dave/Generated/I2C_MASTER/i2c_master.h ****  *  int main(void)
 407://MAC/Home/Downloads/getstarted-optiga-trust-m/xmc1400-getstarted-optiga-trust-m/Dave/Generated/I2C_MASTER/i2c_master.h ****  *  {
 408://MAC/Home/Downloads/getstarted-optiga-trust-m/xmc1400-getstarted-optiga-trust-m/Dave/Generated/I2C_MASTER/i2c_master.h ****  *    DAVE_STATUS_t init_status;
 409://MAC/Home/Downloads/getstarted-optiga-trust-m/xmc1400-getstarted-optiga-trust-m/Dave/Generated/I2C_MASTER/i2c_master.h ****  *    init_status = DAVE_Init();
 410://MAC/Home/Downloads/getstarted-optiga-trust-m/xmc1400-getstarted-optiga-trust-m/Dave/Generated/I2C_MASTER/i2c_master.h ****  *    if(init_status == DAVE_STATUS_SUCCESS)
 411://MAC/Home/Downloads/getstarted-optiga-trust-m/xmc1400-getstarted-optiga-trust-m/Dave/Generated/I2C_MASTER/i2c_master.h ****  *    {
 412://MAC/Home/Downloads/getstarted-optiga-trust-m/xmc1400-getstarted-optiga-trust-m/Dave/Generated/I2C_MASTER/i2c_master.h ****  *      mem_address[0] = IO_STATE;//memory which need to be read from slave
 413://MAC/Home/Downloads/getstarted-optiga-trust-m/xmc1400-getstarted-optiga-trust-m/Dave/Generated/I2C_MASTER/i2c_master.h ****  *      //Write data to IO EXPANDER
 414://MAC/Home/Downloads/getstarted-optiga-trust-m/xmc1400-getstarted-optiga-trust-m/Dave/Generated/I2C_MASTER/i2c_master.h ****  *      I2C_MASTER_Transmit(&I2C_MASTER_0,true,SLAVE_ADDRESS,mem_address,1,false);
 415://MAC/Home/Downloads/getstarted-optiga-trust-m/xmc1400-getstarted-optiga-trust-m/Dave/Generated/I2C_MASTER/i2c_master.h ****  *      while(I2C_MASTER_IsTxBusy(&I2C_MASTER_0));
 416://MAC/Home/Downloads/getstarted-optiga-trust-m/xmc1400-getstarted-optiga-trust-m/Dave/Generated/I2C_MASTER/i2c_master.h ****  *
 417://MAC/Home/Downloads/getstarted-optiga-trust-m/xmc1400-getstarted-optiga-trust-m/Dave/Generated/I2C_MASTER/i2c_master.h ****  *      I2C_MASTER_Transmit(&I2C_MASTER_0,false,SLAVE_ADDRESS,tx_buffer,5,true);
 418://MAC/Home/Downloads/getstarted-optiga-trust-m/xmc1400-getstarted-optiga-trust-m/Dave/Generated/I2C_MASTER/i2c_master.h ****  *      while(I2C_MASTER_IsTxBusy(&I2C_MASTER_0));
 419://MAC/Home/Downloads/getstarted-optiga-trust-m/xmc1400-getstarted-optiga-trust-m/Dave/Generated/I2C_MASTER/i2c_master.h ****  *    }
 420://MAC/Home/Downloads/getstarted-optiga-trust-m/xmc1400-getstarted-optiga-trust-m/Dave/Generated/I2C_MASTER/i2c_master.h ****  *    while(1)
 421://MAC/Home/Downloads/getstarted-optiga-trust-m/xmc1400-getstarted-optiga-trust-m/Dave/Generated/I2C_MASTER/i2c_master.h ****  *    { }
 422://MAC/Home/Downloads/getstarted-optiga-trust-m/xmc1400-getstarted-optiga-trust-m/Dave/Generated/I2C_MASTER/i2c_master.h **** 
 423://MAC/Home/Downloads/getstarted-optiga-trust-m/xmc1400-getstarted-optiga-trust-m/Dave/Generated/I2C_MASTER/i2c_master.h ****  *   return 0;
 424://MAC/Home/Downloads/getstarted-optiga-trust-m/xmc1400-getstarted-optiga-trust-m/Dave/Generated/I2C_MASTER/i2c_master.h ****  * }
 425://MAC/Home/Downloads/getstarted-optiga-trust-m/xmc1400-getstarted-optiga-trust-m/Dave/Generated/I2C_MASTER/i2c_master.h ****  *
 426://MAC/Home/Downloads/getstarted-optiga-trust-m/xmc1400-getstarted-optiga-trust-m/Dave/Generated/I2C_MASTER/i2c_master.h ****  * @endcode<BR> </p>
 427://MAC/Home/Downloads/getstarted-optiga-trust-m/xmc1400-getstarted-optiga-trust-m/Dave/Generated/I2C_MASTER/i2c_master.h ****  *
 428://MAC/Home/Downloads/getstarted-optiga-trust-m/xmc1400-getstarted-optiga-trust-m/Dave/Generated/I2C_MASTER/i2c_master.h ****  */
 429://MAC/Home/Downloads/getstarted-optiga-trust-m/xmc1400-getstarted-optiga-trust-m/Dave/Generated/I2C_MASTER/i2c_master.h **** I2C_MASTER_STATUS_t I2C_MASTER_Transmit(I2C_MASTER_t *handle, bool send_start, const uint32_t addre
 430://MAC/Home/Downloads/getstarted-optiga-trust-m/xmc1400-getstarted-optiga-trust-m/Dave/Generated/I2C_MASTER/i2c_master.h **** 		                                uint8_t *data, const uint32_t size, bool send_stop);
 431://MAC/Home/Downloads/getstarted-optiga-trust-m/xmc1400-getstarted-optiga-trust-m/Dave/Generated/I2C_MASTER/i2c_master.h **** 
 432://MAC/Home/Downloads/getstarted-optiga-trust-m/xmc1400-getstarted-optiga-trust-m/Dave/Generated/I2C_MASTER/i2c_master.h **** /**
 433://MAC/Home/Downloads/getstarted-optiga-trust-m/xmc1400-getstarted-optiga-trust-m/Dave/Generated/I2C_MASTER/i2c_master.h ****  * @brief Get the I2C flag status.
 434://MAC/Home/Downloads/getstarted-optiga-trust-m/xmc1400-getstarted-optiga-trust-m/Dave/Generated/I2C_MASTER/i2c_master.h ****  *
 435://MAC/Home/Downloads/getstarted-optiga-trust-m/xmc1400-getstarted-optiga-trust-m/Dave/Generated/I2C_MASTER/i2c_master.h ****  * @param  handle I2C device handle of type I2C_MASTER_t*
 436://MAC/Home/Downloads/getstarted-optiga-trust-m/xmc1400-getstarted-optiga-trust-m/Dave/Generated/I2C_MASTER/i2c_master.h ****  * @param  flagtype   single or multiple flags, whose status need to be checked.
 437://MAC/Home/Downloads/getstarted-optiga-trust-m/xmc1400-getstarted-optiga-trust-m/Dave/Generated/I2C_MASTER/i2c_master.h ****  *			 	      bitwise OR operation on elements of enum XMC_I2C_CH_STATUS_FLAG_t can be used to selec
 438://MAC/Home/Downloads/getstarted-optiga-trust-m/xmc1400-getstarted-optiga-trust-m/Dave/Generated/I2C_MASTER/i2c_master.h ****  *                    multiple flags.
 439://MAC/Home/Downloads/getstarted-optiga-trust-m/xmc1400-getstarted-optiga-trust-m/Dave/Generated/I2C_MASTER/i2c_master.h ****  *
 440://MAC/Home/Downloads/getstarted-optiga-trust-m/xmc1400-getstarted-optiga-trust-m/Dave/Generated/I2C_MASTER/i2c_master.h ****  * @return uint32_t Flag status.
 441://MAC/Home/Downloads/getstarted-optiga-trust-m/xmc1400-getstarted-optiga-trust-m/Dave/Generated/I2C_MASTER/i2c_master.h ****  *
 442://MAC/Home/Downloads/getstarted-optiga-trust-m/xmc1400-getstarted-optiga-trust-m/Dave/Generated/I2C_MASTER/i2c_master.h ****  * Pre-requisite: Instantiate I2C_MASTER APP and generate code before using below code snippet.
 443://MAC/Home/Downloads/getstarted-optiga-trust-m/xmc1400-getstarted-optiga-trust-m/Dave/Generated/I2C_MASTER/i2c_master.h ****  *
 444://MAC/Home/Downloads/getstarted-optiga-trust-m/xmc1400-getstarted-optiga-trust-m/Dave/Generated/I2C_MASTER/i2c_master.h ****  * @code
 445://MAC/Home/Downloads/getstarted-optiga-trust-m/xmc1400-getstarted-optiga-trust-m/Dave/Generated/I2C_MASTER/i2c_master.h ****  *
 446://MAC/Home/Downloads/getstarted-optiga-trust-m/xmc1400-getstarted-optiga-trust-m/Dave/Generated/I2C_MASTER/i2c_master.h ****  *  #include <DAVE.h>
 447://MAC/Home/Downloads/getstarted-optiga-trust-m/xmc1400-getstarted-optiga-trust-m/Dave/Generated/I2C_MASTER/i2c_master.h ****  *
 448://MAC/Home/Downloads/getstarted-optiga-trust-m/xmc1400-getstarted-optiga-trust-m/Dave/Generated/I2C_MASTER/i2c_master.h ****  *  #define SLAVE_ADDRESS (0xA0)
 449://MAC/Home/Downloads/getstarted-optiga-trust-m/xmc1400-getstarted-optiga-trust-m/Dave/Generated/I2C_MASTER/i2c_master.h ****  *  int main(void)
 450://MAC/Home/Downloads/getstarted-optiga-trust-m/xmc1400-getstarted-optiga-trust-m/Dave/Generated/I2C_MASTER/i2c_master.h ****  *  {
 451://MAC/Home/Downloads/getstarted-optiga-trust-m/xmc1400-getstarted-optiga-trust-m/Dave/Generated/I2C_MASTER/i2c_master.h ****  *    DAVE_STATUS_t init_status;
 452://MAC/Home/Downloads/getstarted-optiga-trust-m/xmc1400-getstarted-optiga-trust-m/Dave/Generated/I2C_MASTER/i2c_master.h ****  *    init_status = DAVE_Init();
 453://MAC/Home/Downloads/getstarted-optiga-trust-m/xmc1400-getstarted-optiga-trust-m/Dave/Generated/I2C_MASTER/i2c_master.h ****  *    if(init_status == DAVE_STATUS_SUCCESS)
 454://MAC/Home/Downloads/getstarted-optiga-trust-m/xmc1400-getstarted-optiga-trust-m/Dave/Generated/I2C_MASTER/i2c_master.h ****  *    {
 455://MAC/Home/Downloads/getstarted-optiga-trust-m/xmc1400-getstarted-optiga-trust-m/Dave/Generated/I2C_MASTER/i2c_master.h ****  *      I2C_MASTER_SendStart(&I2C_MASTER_0, SLAVE_ADDRESS, XMC_I2C_CH_CMD_WRITE);
 456://MAC/Home/Downloads/getstarted-optiga-trust-m/xmc1400-getstarted-optiga-trust-m/Dave/Generated/I2C_MASTER/i2c_master.h ****  *      while(I2C_MASTER_GetFlagStatus(&I2C_MASTER_0, XMC_I2C_CH_STATUS_FLAG_ACK_RECEIVED) == 0U)
 457://MAC/Home/Downloads/getstarted-optiga-trust-m/xmc1400-getstarted-optiga-trust-m/Dave/Generated/I2C_MASTER/i2c_master.h ****  *      {
 458://MAC/Home/Downloads/getstarted-optiga-trust-m/xmc1400-getstarted-optiga-trust-m/Dave/Generated/I2C_MASTER/i2c_master.h ****  *       // wait for ACK
 459://MAC/Home/Downloads/getstarted-optiga-trust-m/xmc1400-getstarted-optiga-trust-m/Dave/Generated/I2C_MASTER/i2c_master.h ****  *      }
 460://MAC/Home/Downloads/getstarted-optiga-trust-m/xmc1400-getstarted-optiga-trust-m/Dave/Generated/I2C_MASTER/i2c_master.h ****  *    }
 461://MAC/Home/Downloads/getstarted-optiga-trust-m/xmc1400-getstarted-optiga-trust-m/Dave/Generated/I2C_MASTER/i2c_master.h ****  *    while(1)
 462://MAC/Home/Downloads/getstarted-optiga-trust-m/xmc1400-getstarted-optiga-trust-m/Dave/Generated/I2C_MASTER/i2c_master.h ****  *    {}
 463://MAC/Home/Downloads/getstarted-optiga-trust-m/xmc1400-getstarted-optiga-trust-m/Dave/Generated/I2C_MASTER/i2c_master.h ****  *
 464://MAC/Home/Downloads/getstarted-optiga-trust-m/xmc1400-getstarted-optiga-trust-m/Dave/Generated/I2C_MASTER/i2c_master.h ****  *   return 0;
 465://MAC/Home/Downloads/getstarted-optiga-trust-m/xmc1400-getstarted-optiga-trust-m/Dave/Generated/I2C_MASTER/i2c_master.h ****  *  }
 466://MAC/Home/Downloads/getstarted-optiga-trust-m/xmc1400-getstarted-optiga-trust-m/Dave/Generated/I2C_MASTER/i2c_master.h ****  *
 467://MAC/Home/Downloads/getstarted-optiga-trust-m/xmc1400-getstarted-optiga-trust-m/Dave/Generated/I2C_MASTER/i2c_master.h ****  * @endcode<BR> </p>
 468://MAC/Home/Downloads/getstarted-optiga-trust-m/xmc1400-getstarted-optiga-trust-m/Dave/Generated/I2C_MASTER/i2c_master.h ****  *
 469://MAC/Home/Downloads/getstarted-optiga-trust-m/xmc1400-getstarted-optiga-trust-m/Dave/Generated/I2C_MASTER/i2c_master.h ****  */
 470://MAC/Home/Downloads/getstarted-optiga-trust-m/xmc1400-getstarted-optiga-trust-m/Dave/Generated/I2C_MASTER/i2c_master.h **** uint32_t I2C_MASTER_GetFlagStatus(const I2C_MASTER_t *handle, uint32_t flagtype);
 471://MAC/Home/Downloads/getstarted-optiga-trust-m/xmc1400-getstarted-optiga-trust-m/Dave/Generated/I2C_MASTER/i2c_master.h **** 
 472://MAC/Home/Downloads/getstarted-optiga-trust-m/xmc1400-getstarted-optiga-trust-m/Dave/Generated/I2C_MASTER/i2c_master.h **** /**
 473://MAC/Home/Downloads/getstarted-optiga-trust-m/xmc1400-getstarted-optiga-trust-m/Dave/Generated/I2C_MASTER/i2c_master.h ****  * @brief Clear the I2C flag status.
 474://MAC/Home/Downloads/getstarted-optiga-trust-m/xmc1400-getstarted-optiga-trust-m/Dave/Generated/I2C_MASTER/i2c_master.h ****  *
 475://MAC/Home/Downloads/getstarted-optiga-trust-m/xmc1400-getstarted-optiga-trust-m/Dave/Generated/I2C_MASTER/i2c_master.h ****  * @param  handle I2C device handle of type I2C_MASTER_t*
 476://MAC/Home/Downloads/getstarted-optiga-trust-m/xmc1400-getstarted-optiga-trust-m/Dave/Generated/I2C_MASTER/i2c_master.h ****  * @param  flagtype   single or multiple flags, whose status need to be checked.
 477://MAC/Home/Downloads/getstarted-optiga-trust-m/xmc1400-getstarted-optiga-trust-m/Dave/Generated/I2C_MASTER/i2c_master.h ****  *                    The bitwise OR operation on elements of enum XMC_I2C_CH_STATUS_FLAG_t can be 
 478://MAC/Home/Downloads/getstarted-optiga-trust-m/xmc1400-getstarted-optiga-trust-m/Dave/Generated/I2C_MASTER/i2c_master.h ****  *                    multiple flags.
 479://MAC/Home/Downloads/getstarted-optiga-trust-m/xmc1400-getstarted-optiga-trust-m/Dave/Generated/I2C_MASTER/i2c_master.h ****  *
 480://MAC/Home/Downloads/getstarted-optiga-trust-m/xmc1400-getstarted-optiga-trust-m/Dave/Generated/I2C_MASTER/i2c_master.h ****  * @return None <BR>
 481://MAC/Home/Downloads/getstarted-optiga-trust-m/xmc1400-getstarted-optiga-trust-m/Dave/Generated/I2C_MASTER/i2c_master.h ****  * Pre-requisite: Instantiate I2C_MASTER APP and generate code before using below code snippet.
 482://MAC/Home/Downloads/getstarted-optiga-trust-m/xmc1400-getstarted-optiga-trust-m/Dave/Generated/I2C_MASTER/i2c_master.h ****  * @code
 483://MAC/Home/Downloads/getstarted-optiga-trust-m/xmc1400-getstarted-optiga-trust-m/Dave/Generated/I2C_MASTER/i2c_master.h ****  *
 484://MAC/Home/Downloads/getstarted-optiga-trust-m/xmc1400-getstarted-optiga-trust-m/Dave/Generated/I2C_MASTER/i2c_master.h ****  *  #include <DAVE.h>
 485://MAC/Home/Downloads/getstarted-optiga-trust-m/xmc1400-getstarted-optiga-trust-m/Dave/Generated/I2C_MASTER/i2c_master.h ****  *
 486://MAC/Home/Downloads/getstarted-optiga-trust-m/xmc1400-getstarted-optiga-trust-m/Dave/Generated/I2C_MASTER/i2c_master.h ****  *  #define SLAVE_ADDRESS (0xA0)
 487://MAC/Home/Downloads/getstarted-optiga-trust-m/xmc1400-getstarted-optiga-trust-m/Dave/Generated/I2C_MASTER/i2c_master.h ****  *  int main(void)
 488://MAC/Home/Downloads/getstarted-optiga-trust-m/xmc1400-getstarted-optiga-trust-m/Dave/Generated/I2C_MASTER/i2c_master.h ****  *  {
 489://MAC/Home/Downloads/getstarted-optiga-trust-m/xmc1400-getstarted-optiga-trust-m/Dave/Generated/I2C_MASTER/i2c_master.h ****  *    DAVE_STATUS_t init_status;
 490://MAC/Home/Downloads/getstarted-optiga-trust-m/xmc1400-getstarted-optiga-trust-m/Dave/Generated/I2C_MASTER/i2c_master.h ****  *
 491://MAC/Home/Downloads/getstarted-optiga-trust-m/xmc1400-getstarted-optiga-trust-m/Dave/Generated/I2C_MASTER/i2c_master.h ****  *    init_status = DAVE_Init();
 492://MAC/Home/Downloads/getstarted-optiga-trust-m/xmc1400-getstarted-optiga-trust-m/Dave/Generated/I2C_MASTER/i2c_master.h ****  *    if(init_status == DAVE_STATUS_SUCCESS)
 493://MAC/Home/Downloads/getstarted-optiga-trust-m/xmc1400-getstarted-optiga-trust-m/Dave/Generated/I2C_MASTER/i2c_master.h ****  *    {
 494://MAC/Home/Downloads/getstarted-optiga-trust-m/xmc1400-getstarted-optiga-trust-m/Dave/Generated/I2C_MASTER/i2c_master.h ****  *      I2C_MASTER_SendStart(&I2C_MASTER_0, SLAVE_ADDRESS, XMC_I2C_CH_CMD_WRITE);
 495://MAC/Home/Downloads/getstarted-optiga-trust-m/xmc1400-getstarted-optiga-trust-m/Dave/Generated/I2C_MASTER/i2c_master.h ****  *      while(I2C_MASTER_GetFlagStatus(&I2C_MASTER_0, XMC_I2C_CH_STATUS_FLAG_ACK_RECEIVED) == 0U)
 496://MAC/Home/Downloads/getstarted-optiga-trust-m/xmc1400-getstarted-optiga-trust-m/Dave/Generated/I2C_MASTER/i2c_master.h ****  *      {
 497://MAC/Home/Downloads/getstarted-optiga-trust-m/xmc1400-getstarted-optiga-trust-m/Dave/Generated/I2C_MASTER/i2c_master.h ****  *       // wait for ACK
 498://MAC/Home/Downloads/getstarted-optiga-trust-m/xmc1400-getstarted-optiga-trust-m/Dave/Generated/I2C_MASTER/i2c_master.h ****  *      }
 499://MAC/Home/Downloads/getstarted-optiga-trust-m/xmc1400-getstarted-optiga-trust-m/Dave/Generated/I2C_MASTER/i2c_master.h ****  *      I2C_MASTER_ClearFlag(&I2C_MASTER_0,XMC_I2C_CH_STATUS_FLAG_ACK_RECEIVED);
 500://MAC/Home/Downloads/getstarted-optiga-trust-m/xmc1400-getstarted-optiga-trust-m/Dave/Generated/I2C_MASTER/i2c_master.h ****  *    }
 501://MAC/Home/Downloads/getstarted-optiga-trust-m/xmc1400-getstarted-optiga-trust-m/Dave/Generated/I2C_MASTER/i2c_master.h ****  *    while(1)
 502://MAC/Home/Downloads/getstarted-optiga-trust-m/xmc1400-getstarted-optiga-trust-m/Dave/Generated/I2C_MASTER/i2c_master.h ****  *    {}
 503://MAC/Home/Downloads/getstarted-optiga-trust-m/xmc1400-getstarted-optiga-trust-m/Dave/Generated/I2C_MASTER/i2c_master.h ****  *
 504://MAC/Home/Downloads/getstarted-optiga-trust-m/xmc1400-getstarted-optiga-trust-m/Dave/Generated/I2C_MASTER/i2c_master.h ****  *   return 0;
 505://MAC/Home/Downloads/getstarted-optiga-trust-m/xmc1400-getstarted-optiga-trust-m/Dave/Generated/I2C_MASTER/i2c_master.h ****  * }
 506://MAC/Home/Downloads/getstarted-optiga-trust-m/xmc1400-getstarted-optiga-trust-m/Dave/Generated/I2C_MASTER/i2c_master.h ****  * @endcode<BR> </p>
 507://MAC/Home/Downloads/getstarted-optiga-trust-m/xmc1400-getstarted-optiga-trust-m/Dave/Generated/I2C_MASTER/i2c_master.h ****  *
 508://MAC/Home/Downloads/getstarted-optiga-trust-m/xmc1400-getstarted-optiga-trust-m/Dave/Generated/I2C_MASTER/i2c_master.h ****  */
 509://MAC/Home/Downloads/getstarted-optiga-trust-m/xmc1400-getstarted-optiga-trust-m/Dave/Generated/I2C_MASTER/i2c_master.h **** void I2C_MASTER_ClearFlag(const I2C_MASTER_t *handle, uint32_t flagtype);
 510://MAC/Home/Downloads/getstarted-optiga-trust-m/xmc1400-getstarted-optiga-trust-m/Dave/Generated/I2C_MASTER/i2c_master.h **** 
 511://MAC/Home/Downloads/getstarted-optiga-trust-m/xmc1400-getstarted-optiga-trust-m/Dave/Generated/I2C_MASTER/i2c_master.h **** /**
 512://MAC/Home/Downloads/getstarted-optiga-trust-m/xmc1400-getstarted-optiga-trust-m/Dave/Generated/I2C_MASTER/i2c_master.h ****  * @brief Aborts the ongoing data transmission.
 513://MAC/Home/Downloads/getstarted-optiga-trust-m/xmc1400-getstarted-optiga-trust-m/Dave/Generated/I2C_MASTER/i2c_master.h ****  * @param handle  I2C_MASTER APP handle pointer of type @ref I2C_MASTER_t
 514://MAC/Home/Downloads/getstarted-optiga-trust-m/xmc1400-getstarted-optiga-trust-m/Dave/Generated/I2C_MASTER/i2c_master.h ****  * @return I2C_MASTER_STATUS_t status
 515://MAC/Home/Downloads/getstarted-optiga-trust-m/xmc1400-getstarted-optiga-trust-m/Dave/Generated/I2C_MASTER/i2c_master.h ****  *
 516://MAC/Home/Downloads/getstarted-optiga-trust-m/xmc1400-getstarted-optiga-trust-m/Dave/Generated/I2C_MASTER/i2c_master.h ****  * \par<b>Description:</b><br>
 517://MAC/Home/Downloads/getstarted-optiga-trust-m/xmc1400-getstarted-optiga-trust-m/Dave/Generated/I2C_MASTER/i2c_master.h ****  * If there is a transmission in progress, it will be stopped. Once the transmission is stopped, 
 518://MAC/Home/Downloads/getstarted-optiga-trust-m/xmc1400-getstarted-optiga-trust-m/Dave/Generated/I2C_MASTER/i2c_master.h ****  * user can start a new transmission without delay.
 519://MAC/Home/Downloads/getstarted-optiga-trust-m/xmc1400-getstarted-optiga-trust-m/Dave/Generated/I2C_MASTER/i2c_master.h ****  *
 520://MAC/Home/Downloads/getstarted-optiga-trust-m/xmc1400-getstarted-optiga-trust-m/Dave/Generated/I2C_MASTER/i2c_master.h ****  * Pre-requisite: Instantiate I2C_MASTER APP and generate code before using below code snippet.
 521://MAC/Home/Downloads/getstarted-optiga-trust-m/xmc1400-getstarted-optiga-trust-m/Dave/Generated/I2C_MASTER/i2c_master.h ****  *
 522://MAC/Home/Downloads/getstarted-optiga-trust-m/xmc1400-getstarted-optiga-trust-m/Dave/Generated/I2C_MASTER/i2c_master.h ****  *
 523://MAC/Home/Downloads/getstarted-optiga-trust-m/xmc1400-getstarted-optiga-trust-m/Dave/Generated/I2C_MASTER/i2c_master.h ****  * Example Usage:
 524://MAC/Home/Downloads/getstarted-optiga-trust-m/xmc1400-getstarted-optiga-trust-m/Dave/Generated/I2C_MASTER/i2c_master.h ****  * @code
 525://MAC/Home/Downloads/getstarted-optiga-trust-m/xmc1400-getstarted-optiga-trust-m/Dave/Generated/I2C_MASTER/i2c_master.h ****  *
 526://MAC/Home/Downloads/getstarted-optiga-trust-m/xmc1400-getstarted-optiga-trust-m/Dave/Generated/I2C_MASTER/i2c_master.h ****  *  #include <DAVE.h>         //Declarations from DAVE Code Generation (includes SFR declaration)
 527://MAC/Home/Downloads/getstarted-optiga-trust-m/xmc1400-getstarted-optiga-trust-m/Dave/Generated/I2C_MASTER/i2c_master.h ****  *  #define SLAVE_ADDRESS 0xA0
 528://MAC/Home/Downloads/getstarted-optiga-trust-m/xmc1400-getstarted-optiga-trust-m/Dave/Generated/I2C_MASTER/i2c_master.h ****  *  uint8_t tx_buf[50] = "ABCDEFGHIJKLMNOPQRSTUVWXYZ";
 529://MAC/Home/Downloads/getstarted-optiga-trust-m/xmc1400-getstarted-optiga-trust-m/Dave/Generated/I2C_MASTER/i2c_master.h **** 
 530://MAC/Home/Downloads/getstarted-optiga-trust-m/xmc1400-getstarted-optiga-trust-m/Dave/Generated/I2C_MASTER/i2c_master.h ****  *  int main(void)
 531://MAC/Home/Downloads/getstarted-optiga-trust-m/xmc1400-getstarted-optiga-trust-m/Dave/Generated/I2C_MASTER/i2c_master.h ****  *  {
 532://MAC/Home/Downloads/getstarted-optiga-trust-m/xmc1400-getstarted-optiga-trust-m/Dave/Generated/I2C_MASTER/i2c_master.h ****  *    DAVE_STATUS_t init_status;
 533://MAC/Home/Downloads/getstarted-optiga-trust-m/xmc1400-getstarted-optiga-trust-m/Dave/Generated/I2C_MASTER/i2c_master.h ****  *    init_status = DAVE_Init();
 534://MAC/Home/Downloads/getstarted-optiga-trust-m/xmc1400-getstarted-optiga-trust-m/Dave/Generated/I2C_MASTER/i2c_master.h ****  *    if(init_status == DAVE_STATUS_SUCCESS)
 535://MAC/Home/Downloads/getstarted-optiga-trust-m/xmc1400-getstarted-optiga-trust-m/Dave/Generated/I2C_MASTER/i2c_master.h ****  *    {
 536://MAC/Home/Downloads/getstarted-optiga-trust-m/xmc1400-getstarted-optiga-trust-m/Dave/Generated/I2C_MASTER/i2c_master.h ****  *      I2C_MASTER_Transmit(&I2C_MASTER_0, true, SLAVE_ADDRESS, &tx_buf[0], 16, true);
 537://MAC/Home/Downloads/getstarted-optiga-trust-m/xmc1400-getstarted-optiga-trust-m/Dave/Generated/I2C_MASTER/i2c_master.h ****  *      I2C_MASTER_AbortTransmit(&I2C_MASTER_0);
 538://MAC/Home/Downloads/getstarted-optiga-trust-m/xmc1400-getstarted-optiga-trust-m/Dave/Generated/I2C_MASTER/i2c_master.h ****  *      I2C_MASTER_SendStop(&I2C_MASTER_0);
 539://MAC/Home/Downloads/getstarted-optiga-trust-m/xmc1400-getstarted-optiga-trust-m/Dave/Generated/I2C_MASTER/i2c_master.h ****  *      I2C_MASTER_Transmit(&I2C_MASTER_0, true, SLAVE_ADDRESS, &tx_buf[0], 16, true);
 540://MAC/Home/Downloads/getstarted-optiga-trust-m/xmc1400-getstarted-optiga-trust-m/Dave/Generated/I2C_MASTER/i2c_master.h ****  *      while(I2C_MASTER_IsTxBusy(&I2C_MASTER_0));
 541://MAC/Home/Downloads/getstarted-optiga-trust-m/xmc1400-getstarted-optiga-trust-m/Dave/Generated/I2C_MASTER/i2c_master.h ****  *    }
 542://MAC/Home/Downloads/getstarted-optiga-trust-m/xmc1400-getstarted-optiga-trust-m/Dave/Generated/I2C_MASTER/i2c_master.h ****  *    while(1U)
 543://MAC/Home/Downloads/getstarted-optiga-trust-m/xmc1400-getstarted-optiga-trust-m/Dave/Generated/I2C_MASTER/i2c_master.h ****  *    {
 544://MAC/Home/Downloads/getstarted-optiga-trust-m/xmc1400-getstarted-optiga-trust-m/Dave/Generated/I2C_MASTER/i2c_master.h ****  *    }
 545://MAC/Home/Downloads/getstarted-optiga-trust-m/xmc1400-getstarted-optiga-trust-m/Dave/Generated/I2C_MASTER/i2c_master.h ****  *
 546://MAC/Home/Downloads/getstarted-optiga-trust-m/xmc1400-getstarted-optiga-trust-m/Dave/Generated/I2C_MASTER/i2c_master.h ****  *    return 1U;
 547://MAC/Home/Downloads/getstarted-optiga-trust-m/xmc1400-getstarted-optiga-trust-m/Dave/Generated/I2C_MASTER/i2c_master.h ****  *  }
 548://MAC/Home/Downloads/getstarted-optiga-trust-m/xmc1400-getstarted-optiga-trust-m/Dave/Generated/I2C_MASTER/i2c_master.h ****  *
 549://MAC/Home/Downloads/getstarted-optiga-trust-m/xmc1400-getstarted-optiga-trust-m/Dave/Generated/I2C_MASTER/i2c_master.h ****  * @endcode
 550://MAC/Home/Downloads/getstarted-optiga-trust-m/xmc1400-getstarted-optiga-trust-m/Dave/Generated/I2C_MASTER/i2c_master.h ****  *
 551://MAC/Home/Downloads/getstarted-optiga-trust-m/xmc1400-getstarted-optiga-trust-m/Dave/Generated/I2C_MASTER/i2c_master.h ****  */
 552://MAC/Home/Downloads/getstarted-optiga-trust-m/xmc1400-getstarted-optiga-trust-m/Dave/Generated/I2C_MASTER/i2c_master.h **** I2C_MASTER_STATUS_t I2C_MASTER_AbortTransmit(const I2C_MASTER_t *const handle);
 553://MAC/Home/Downloads/getstarted-optiga-trust-m/xmc1400-getstarted-optiga-trust-m/Dave/Generated/I2C_MASTER/i2c_master.h **** 
 554://MAC/Home/Downloads/getstarted-optiga-trust-m/xmc1400-getstarted-optiga-trust-m/Dave/Generated/I2C_MASTER/i2c_master.h **** /**
 555://MAC/Home/Downloads/getstarted-optiga-trust-m/xmc1400-getstarted-optiga-trust-m/Dave/Generated/I2C_MASTER/i2c_master.h **** * @brief Stops the active data reception request.
 556://MAC/Home/Downloads/getstarted-optiga-trust-m/xmc1400-getstarted-optiga-trust-m/Dave/Generated/I2C_MASTER/i2c_master.h ****  * @param handle I2C_MASTER APP handle pointer of type @ref I2C_MASTER_t
 557://MAC/Home/Downloads/getstarted-optiga-trust-m/xmc1400-getstarted-optiga-trust-m/Dave/Generated/I2C_MASTER/i2c_master.h ****  * @return I2C_MASTER_STATUS_t status
 558://MAC/Home/Downloads/getstarted-optiga-trust-m/xmc1400-getstarted-optiga-trust-m/Dave/Generated/I2C_MASTER/i2c_master.h ****  *
 559://MAC/Home/Downloads/getstarted-optiga-trust-m/xmc1400-getstarted-optiga-trust-m/Dave/Generated/I2C_MASTER/i2c_master.h ****  * \par<b>Description:</b><br>
 560://MAC/Home/Downloads/getstarted-optiga-trust-m/xmc1400-getstarted-optiga-trust-m/Dave/Generated/I2C_MASTER/i2c_master.h ****  * If a reception is in progress, it will be stopped. When a reception request
 561://MAC/Home/Downloads/getstarted-optiga-trust-m/xmc1400-getstarted-optiga-trust-m/Dave/Generated/I2C_MASTER/i2c_master.h ****  * is active, user will not be able to place a new receive request till the active
 562://MAC/Home/Downloads/getstarted-optiga-trust-m/xmc1400-getstarted-optiga-trust-m/Dave/Generated/I2C_MASTER/i2c_master.h ****  * reception is complete. This API can stop the progressing reception to make
 563://MAC/Home/Downloads/getstarted-optiga-trust-m/xmc1400-getstarted-optiga-trust-m/Dave/Generated/I2C_MASTER/i2c_master.h ****  * a new receive request.
 564://MAC/Home/Downloads/getstarted-optiga-trust-m/xmc1400-getstarted-optiga-trust-m/Dave/Generated/I2C_MASTER/i2c_master.h ****  *
 565://MAC/Home/Downloads/getstarted-optiga-trust-m/xmc1400-getstarted-optiga-trust-m/Dave/Generated/I2C_MASTER/i2c_master.h ****  * Pre-requisite: Instantiate I2C_MASTER APP and generate code before using below code snippet.
 566://MAC/Home/Downloads/getstarted-optiga-trust-m/xmc1400-getstarted-optiga-trust-m/Dave/Generated/I2C_MASTER/i2c_master.h ****  *
 567://MAC/Home/Downloads/getstarted-optiga-trust-m/xmc1400-getstarted-optiga-trust-m/Dave/Generated/I2C_MASTER/i2c_master.h ****  * Example Usage:
 568://MAC/Home/Downloads/getstarted-optiga-trust-m/xmc1400-getstarted-optiga-trust-m/Dave/Generated/I2C_MASTER/i2c_master.h ****  * @code
 569://MAC/Home/Downloads/getstarted-optiga-trust-m/xmc1400-getstarted-optiga-trust-m/Dave/Generated/I2C_MASTER/i2c_master.h ****  *
 570://MAC/Home/Downloads/getstarted-optiga-trust-m/xmc1400-getstarted-optiga-trust-m/Dave/Generated/I2C_MASTER/i2c_master.h ****  *  #include <DAVE.h>         //Declarations from DAVE Code Generation (includes SFR declaration)
 571://MAC/Home/Downloads/getstarted-optiga-trust-m/xmc1400-getstarted-optiga-trust-m/Dave/Generated/I2C_MASTER/i2c_master.h ****  *  #define SLAVE_ADDRESS 0xA0
 572://MAC/Home/Downloads/getstarted-optiga-trust-m/xmc1400-getstarted-optiga-trust-m/Dave/Generated/I2C_MASTER/i2c_master.h ****  *  int main(void)
 573://MAC/Home/Downloads/getstarted-optiga-trust-m/xmc1400-getstarted-optiga-trust-m/Dave/Generated/I2C_MASTER/i2c_master.h ****  *  {
 574://MAC/Home/Downloads/getstarted-optiga-trust-m/xmc1400-getstarted-optiga-trust-m/Dave/Generated/I2C_MASTER/i2c_master.h ****  *   uint8_t rx_buf[25];
 575://MAC/Home/Downloads/getstarted-optiga-trust-m/xmc1400-getstarted-optiga-trust-m/Dave/Generated/I2C_MASTER/i2c_master.h ****  *   uint8_t tx_buf[2];
 576://MAC/Home/Downloads/getstarted-optiga-trust-m/xmc1400-getstarted-optiga-trust-m/Dave/Generated/I2C_MASTER/i2c_master.h ****  *   DAVE_STATUS_t init_status;
 577://MAC/Home/Downloads/getstarted-optiga-trust-m/xmc1400-getstarted-optiga-trust-m/Dave/Generated/I2C_MASTER/i2c_master.h ****  *   init_status = DAVE_Init();
 578://MAC/Home/Downloads/getstarted-optiga-trust-m/xmc1400-getstarted-optiga-trust-m/Dave/Generated/I2C_MASTER/i2c_master.h ****  *   if(init_status == DAVE_STATUS_SUCCESS)
 579://MAC/Home/Downloads/getstarted-optiga-trust-m/xmc1400-getstarted-optiga-trust-m/Dave/Generated/I2C_MASTER/i2c_master.h ****  *   {
 580://MAC/Home/Downloads/getstarted-optiga-trust-m/xmc1400-getstarted-optiga-trust-m/Dave/Generated/I2C_MASTER/i2c_master.h ****  *     //send the address from which data to be transfered
 581://MAC/Home/Downloads/getstarted-optiga-trust-m/xmc1400-getstarted-optiga-trust-m/Dave/Generated/I2C_MASTER/i2c_master.h ****  *     tx_buf[0] = 0;
 582://MAC/Home/Downloads/getstarted-optiga-trust-m/xmc1400-getstarted-optiga-trust-m/Dave/Generated/I2C_MASTER/i2c_master.h ****  *     I2C_MASTER_Transmit(&I2C_MASTER_0, true, SLAVE_ADDRESS, &tx_buf[0], 1, false);
 583://MAC/Home/Downloads/getstarted-optiga-trust-m/xmc1400-getstarted-optiga-trust-m/Dave/Generated/I2C_MASTER/i2c_master.h ****  *     while(I2C_MASTER_IsTxBusy(&I2C_MASTER_0));
 584://MAC/Home/Downloads/getstarted-optiga-trust-m/xmc1400-getstarted-optiga-trust-m/Dave/Generated/I2C_MASTER/i2c_master.h ****  *     I2C_MASTER_Receive(&I2C_MASTER_0, true, SLAVE_ADDRESS, &rx_buf[0], 16, true, true);
 585://MAC/Home/Downloads/getstarted-optiga-trust-m/xmc1400-getstarted-optiga-trust-m/Dave/Generated/I2C_MASTER/i2c_master.h ****  *     I2C_MASTER_AbortReceive(&I2C_MASTER_0);
 586://MAC/Home/Downloads/getstarted-optiga-trust-m/xmc1400-getstarted-optiga-trust-m/Dave/Generated/I2C_MASTER/i2c_master.h ****  *     I2C_MASTER_SendStop(&I2C_MASTER_0);
 587://MAC/Home/Downloads/getstarted-optiga-trust-m/xmc1400-getstarted-optiga-trust-m/Dave/Generated/I2C_MASTER/i2c_master.h ****  *     I2C_MASTER_Transmit(&I2C_MASTER_0, true, SLAVE_ADDRESS, &tx_buf[0], 1, false);
 588://MAC/Home/Downloads/getstarted-optiga-trust-m/xmc1400-getstarted-optiga-trust-m/Dave/Generated/I2C_MASTER/i2c_master.h ****  *     while(I2C_MASTER_IsTxBusy(&I2C_MASTER_0));
 589://MAC/Home/Downloads/getstarted-optiga-trust-m/xmc1400-getstarted-optiga-trust-m/Dave/Generated/I2C_MASTER/i2c_master.h ****  *     I2C_MASTER_Receive(&I2C_MASTER_0, true, SLAVE_ADDRESS, &rx_buf[0], 16, true, true);
 590://MAC/Home/Downloads/getstarted-optiga-trust-m/xmc1400-getstarted-optiga-trust-m/Dave/Generated/I2C_MASTER/i2c_master.h ****  *     while(I2C_MASTER_IsRxBusy(&I2C_MASTER_0));
 591://MAC/Home/Downloads/getstarted-optiga-trust-m/xmc1400-getstarted-optiga-trust-m/Dave/Generated/I2C_MASTER/i2c_master.h ****  *   }
 592://MAC/Home/Downloads/getstarted-optiga-trust-m/xmc1400-getstarted-optiga-trust-m/Dave/Generated/I2C_MASTER/i2c_master.h ****  *   while(1U)
 593://MAC/Home/Downloads/getstarted-optiga-trust-m/xmc1400-getstarted-optiga-trust-m/Dave/Generated/I2C_MASTER/i2c_master.h ****  *   {
 594://MAC/Home/Downloads/getstarted-optiga-trust-m/xmc1400-getstarted-optiga-trust-m/Dave/Generated/I2C_MASTER/i2c_master.h ****  *   }
 595://MAC/Home/Downloads/getstarted-optiga-trust-m/xmc1400-getstarted-optiga-trust-m/Dave/Generated/I2C_MASTER/i2c_master.h ****  *
 596://MAC/Home/Downloads/getstarted-optiga-trust-m/xmc1400-getstarted-optiga-trust-m/Dave/Generated/I2C_MASTER/i2c_master.h ****  *   return 1U;
 597://MAC/Home/Downloads/getstarted-optiga-trust-m/xmc1400-getstarted-optiga-trust-m/Dave/Generated/I2C_MASTER/i2c_master.h ****  * }
 598://MAC/Home/Downloads/getstarted-optiga-trust-m/xmc1400-getstarted-optiga-trust-m/Dave/Generated/I2C_MASTER/i2c_master.h ****  *
 599://MAC/Home/Downloads/getstarted-optiga-trust-m/xmc1400-getstarted-optiga-trust-m/Dave/Generated/I2C_MASTER/i2c_master.h ****  * @endcode
 600://MAC/Home/Downloads/getstarted-optiga-trust-m/xmc1400-getstarted-optiga-trust-m/Dave/Generated/I2C_MASTER/i2c_master.h ****  *
 601://MAC/Home/Downloads/getstarted-optiga-trust-m/xmc1400-getstarted-optiga-trust-m/Dave/Generated/I2C_MASTER/i2c_master.h ****  */
 602://MAC/Home/Downloads/getstarted-optiga-trust-m/xmc1400-getstarted-optiga-trust-m/Dave/Generated/I2C_MASTER/i2c_master.h **** I2C_MASTER_STATUS_t I2C_MASTER_AbortReceive(const I2C_MASTER_t *const handle);
 603://MAC/Home/Downloads/getstarted-optiga-trust-m/xmc1400-getstarted-optiga-trust-m/Dave/Generated/I2C_MASTER/i2c_master.h **** 
 604://MAC/Home/Downloads/getstarted-optiga-trust-m/xmc1400-getstarted-optiga-trust-m/Dave/Generated/I2C_MASTER/i2c_master.h **** 
 605://MAC/Home/Downloads/getstarted-optiga-trust-m/xmc1400-getstarted-optiga-trust-m/Dave/Generated/I2C_MASTER/i2c_master.h **** #if (I2C_MASTER_DMA_TX_ENABLED == 1U) || defined(DOXYGEN)
 606://MAC/Home/Downloads/getstarted-optiga-trust-m/xmc1400-getstarted-optiga-trust-m/Dave/Generated/I2C_MASTER/i2c_master.h **** /**
 607://MAC/Home/Downloads/getstarted-optiga-trust-m/xmc1400-getstarted-optiga-trust-m/Dave/Generated/I2C_MASTER/i2c_master.h ****  * @brief Registers a request for transmitting data over I2C channel using DMA.
 608://MAC/Home/Downloads/getstarted-optiga-trust-m/xmc1400-getstarted-optiga-trust-m/Dave/Generated/I2C_MASTER/i2c_master.h ****  *
 609://MAC/Home/Downloads/getstarted-optiga-trust-m/xmc1400-getstarted-optiga-trust-m/Dave/Generated/I2C_MASTER/i2c_master.h ****  * @param  handle  I2C_MASTER APP handle pointer of type @ref I2C_MASTER_t
 610://MAC/Home/Downloads/getstarted-optiga-trust-m/xmc1400-getstarted-optiga-trust-m/Dave/Generated/I2C_MASTER/i2c_master.h ****  * @param  block_size size of the block
 611://MAC/Home/Downloads/getstarted-optiga-trust-m/xmc1400-getstarted-optiga-trust-m/Dave/Generated/I2C_MASTER/i2c_master.h ****  * @param  addr    address\n
 612://MAC/Home/Downloads/getstarted-optiga-trust-m/xmc1400-getstarted-optiga-trust-m/Dave/Generated/I2C_MASTER/i2c_master.h ****  * \b Range: minimum= 1, maximum= 4095.
 613://MAC/Home/Downloads/getstarted-optiga-trust-m/xmc1400-getstarted-optiga-trust-m/Dave/Generated/I2C_MASTER/i2c_master.h ****  *
 614://MAC/Home/Downloads/getstarted-optiga-trust-m/xmc1400-getstarted-optiga-trust-m/Dave/Generated/I2C_MASTER/i2c_master.h ****  * @return  I2C_MASTER_STATUS_t: Status of transmit request.\n
 615://MAC/Home/Downloads/getstarted-optiga-trust-m/xmc1400-getstarted-optiga-trust-m/Dave/Generated/I2C_MASTER/i2c_master.h ****  *                        @ref I2C_MASTER_STATUS_SUCCESS if the request is accepted.\n
 616://MAC/Home/Downloads/getstarted-optiga-trust-m/xmc1400-getstarted-optiga-trust-m/Dave/Generated/I2C_MASTER/i2c_master.h ****  *                        @ref I2C_MASTER_STATUS_BUSY if a transmission is in progress.\n
 617://MAC/Home/Downloads/getstarted-optiga-trust-m/xmc1400-getstarted-optiga-trust-m/Dave/Generated/I2C_MASTER/i2c_master.h ****  *
 618://MAC/Home/Downloads/getstarted-optiga-trust-m/xmc1400-getstarted-optiga-trust-m/Dave/Generated/I2C_MASTER/i2c_master.h ****  * <i>Imp Note:</i> Return value should be validated by user to ensure that the
 619://MAC/Home/Downloads/getstarted-optiga-trust-m/xmc1400-getstarted-optiga-trust-m/Dave/Generated/I2C_MASTER/i2c_master.h ****  * request is registered.
 620://MAC/Home/Downloads/getstarted-optiga-trust-m/xmc1400-getstarted-optiga-trust-m/Dave/Generated/I2C_MASTER/i2c_master.h ****  *
 621://MAC/Home/Downloads/getstarted-optiga-trust-m/xmc1400-getstarted-optiga-trust-m/Dave/Generated/I2C_MASTER/i2c_master.h ****  * \par<b>Description:</b><br>
 622://MAC/Home/Downloads/getstarted-optiga-trust-m/xmc1400-getstarted-optiga-trust-m/Dave/Generated/I2C_MASTER/i2c_master.h ****  * The data transmission is accomplished using DMA. User can configure a callback function in the A
 623://MAC/Home/Downloads/getstarted-optiga-trust-m/xmc1400-getstarted-optiga-trust-m/Dave/Generated/I2C_MASTER/i2c_master.h ****  * When the data is fully transmitted, the callback function will be executed. The function uses AP
 624://MAC/Home/Downloads/getstarted-optiga-trust-m/xmc1400-getstarted-optiga-trust-m/Dave/Generated/I2C_MASTER/i2c_master.h ****  * structure to store the status of transmission.
 625://MAC/Home/Downloads/getstarted-optiga-trust-m/xmc1400-getstarted-optiga-trust-m/Dave/Generated/I2C_MASTER/i2c_master.h ****  * This function only registers a data transmission request, if there is no active transmission in 
 626://MAC/Home/Downloads/getstarted-optiga-trust-m/xmc1400-getstarted-optiga-trust-m/Dave/Generated/I2C_MASTER/i2c_master.h ****  * Actual data transmission happens through DMA channel.
 627://MAC/Home/Downloads/getstarted-optiga-trust-m/xmc1400-getstarted-optiga-trust-m/Dave/Generated/I2C_MASTER/i2c_master.h ****  * A maximum of 4095 bytes can be transmitted in one API call. This limit is because of the DMA sin
 628://MAC/Home/Downloads/getstarted-optiga-trust-m/xmc1400-getstarted-optiga-trust-m/Dave/Generated/I2C_MASTER/i2c_master.h ****  * Callback function is executed when all the data bytes are transmitted.
 629://MAC/Home/Downloads/getstarted-optiga-trust-m/xmc1400-getstarted-optiga-trust-m/Dave/Generated/I2C_MASTER/i2c_master.h ****  * If a callback function is not configured, user has to poll for the value of \a tx_busy flag of
 630://MAC/Home/Downloads/getstarted-optiga-trust-m/xmc1400-getstarted-optiga-trust-m/Dave/Generated/I2C_MASTER/i2c_master.h ****  * the APP handle structure( \a handle->runtime->tx_busy ) to check for
 631://MAC/Home/Downloads/getstarted-optiga-trust-m/xmc1400-getstarted-optiga-trust-m/Dave/Generated/I2C_MASTER/i2c_master.h ****  * the completion of data transmission.
 632://MAC/Home/Downloads/getstarted-optiga-trust-m/xmc1400-getstarted-optiga-trust-m/Dave/Generated/I2C_MASTER/i2c_master.h ****  * If data more than the block size of 4095 have to be transmitted, user will have to transmit them
 633://MAC/Home/Downloads/getstarted-optiga-trust-m/xmc1400-getstarted-optiga-trust-m/Dave/Generated/I2C_MASTER/i2c_master.h ****  * calls to this API.
 634://MAC/Home/Downloads/getstarted-optiga-trust-m/xmc1400-getstarted-optiga-trust-m/Dave/Generated/I2C_MASTER/i2c_master.h ****  * \par<b>NOTE: </b><br>
 635://MAC/Home/Downloads/getstarted-optiga-trust-m/xmc1400-getstarted-optiga-trust-m/Dave/Generated/I2C_MASTER/i2c_master.h ****  * I2C_MASTER_StartTransmitDMA API can be used in DMA mode.
 636://MAC/Home/Downloads/getstarted-optiga-trust-m/xmc1400-getstarted-optiga-trust-m/Dave/Generated/I2C_MASTER/i2c_master.h ****  * Transmit should be configured as "DMA" mode in advanced settings tab. \n
 637://MAC/Home/Downloads/getstarted-optiga-trust-m/xmc1400-getstarted-optiga-trust-m/Dave/Generated/I2C_MASTER/i2c_master.h ****  * Address(addr) should reserve an additional bit at the LSB for read/write indication. For example
 638://MAC/Home/Downloads/getstarted-optiga-trust-m/xmc1400-getstarted-optiga-trust-m/Dave/Generated/I2C_MASTER/i2c_master.h ****  * be provided as 0x0a. If the address is 10-bit, only most significant bits with the 10-bit identi
 639://MAC/Home/Downloads/getstarted-optiga-trust-m/xmc1400-getstarted-optiga-trust-m/Dave/Generated/I2C_MASTER/i2c_master.h ****  * For example, if the 10-bit address is 0x305, the address should be provided as 0xf6(prepend with
 640://MAC/Home/Downloads/getstarted-optiga-trust-m/xmc1400-getstarted-optiga-trust-m/Dave/Generated/I2C_MASTER/i2c_master.h ****  * followed by 1-bit field for read/write).<br>
 641://MAC/Home/Downloads/getstarted-optiga-trust-m/xmc1400-getstarted-optiga-trust-m/Dave/Generated/I2C_MASTER/i2c_master.h ****  * Example Usage:
 642://MAC/Home/Downloads/getstarted-optiga-trust-m/xmc1400-getstarted-optiga-trust-m/Dave/Generated/I2C_MASTER/i2c_master.h ****  *
 643://MAC/Home/Downloads/getstarted-optiga-trust-m/xmc1400-getstarted-optiga-trust-m/Dave/Generated/I2C_MASTER/i2c_master.h ****  * @code
 644://MAC/Home/Downloads/getstarted-optiga-trust-m/xmc1400-getstarted-optiga-trust-m/Dave/Generated/I2C_MASTER/i2c_master.h ****  *
 645://MAC/Home/Downloads/getstarted-optiga-trust-m/xmc1400-getstarted-optiga-trust-m/Dave/Generated/I2C_MASTER/i2c_master.h ****  *  #include <DAVE.h>         //Declarations from DAVE Code Generation (includes SFR declaration)
 646://MAC/Home/Downloads/getstarted-optiga-trust-m/xmc1400-getstarted-optiga-trust-m/Dave/Generated/I2C_MASTER/i2c_master.h ****  *  #define SLAVE_ADDRESS 0xA0
 647://MAC/Home/Downloads/getstarted-optiga-trust-m/xmc1400-getstarted-optiga-trust-m/Dave/Generated/I2C_MASTER/i2c_master.h ****  *  uint8_t Send_Data[] = "Infineon Technologies";
 648://MAC/Home/Downloads/getstarted-optiga-trust-m/xmc1400-getstarted-optiga-trust-m/Dave/Generated/I2C_MASTER/i2c_master.h ****  *  int main(void)
 649://MAC/Home/Downloads/getstarted-optiga-trust-m/xmc1400-getstarted-optiga-trust-m/Dave/Generated/I2C_MASTER/i2c_master.h ****  *  {
 650://MAC/Home/Downloads/getstarted-optiga-trust-m/xmc1400-getstarted-optiga-trust-m/Dave/Generated/I2C_MASTER/i2c_master.h ****  *    DAVE_STATUS_t init_status;
 651://MAC/Home/Downloads/getstarted-optiga-trust-m/xmc1400-getstarted-optiga-trust-m/Dave/Generated/I2C_MASTER/i2c_master.h ****  *
 652://MAC/Home/Downloads/getstarted-optiga-trust-m/xmc1400-getstarted-optiga-trust-m/Dave/Generated/I2C_MASTER/i2c_master.h ****  *    init_status = DAVE_Init();
 653://MAC/Home/Downloads/getstarted-optiga-trust-m/xmc1400-getstarted-optiga-trust-m/Dave/Generated/I2C_MASTER/i2c_master.h ****  *    if(init_status == DAVE_STATUS_SUCCESS)
 654://MAC/Home/Downloads/getstarted-optiga-trust-m/xmc1400-getstarted-optiga-trust-m/Dave/Generated/I2C_MASTER/i2c_master.h ****  *    {
 655://MAC/Home/Downloads/getstarted-optiga-trust-m/xmc1400-getstarted-optiga-trust-m/Dave/Generated/I2C_MASTER/i2c_master.h ****  *      I2C_MASTER_SendStart(&I2C_MASTER_0, SLAVE_ADDRESS, XMC_I2C_CH_CMD_WRITE);
 656://MAC/Home/Downloads/getstarted-optiga-trust-m/xmc1400-getstarted-optiga-trust-m/Dave/Generated/I2C_MASTER/i2c_master.h ****  *	    while(I2C_MASTER_GetFlagStatus(&I2C_MASTER_0, XMC_I2C_CH_STATUS_FLAG_ACK_RECEIVED) == 0U)
 657://MAC/Home/Downloads/getstarted-optiga-trust-m/xmc1400-getstarted-optiga-trust-m/Dave/Generated/I2C_MASTER/i2c_master.h ****  *	    {
 658://MAC/Home/Downloads/getstarted-optiga-trust-m/xmc1400-getstarted-optiga-trust-m/Dave/Generated/I2C_MASTER/i2c_master.h ****  *	      // wait for ACK
 659://MAC/Home/Downloads/getstarted-optiga-trust-m/xmc1400-getstarted-optiga-trust-m/Dave/Generated/I2C_MASTER/i2c_master.h ****  *	    }
 660://MAC/Home/Downloads/getstarted-optiga-trust-m/xmc1400-getstarted-optiga-trust-m/Dave/Generated/I2C_MASTER/i2c_master.h ****  *      I2C_MASTER_ClearFlag(&I2C_MASTER_0,XMC_I2C_CH_STATUS_FLAG_ACK_RECEIVED);
 661://MAC/Home/Downloads/getstarted-optiga-trust-m/xmc1400-getstarted-optiga-trust-m/Dave/Generated/I2C_MASTER/i2c_master.h ****  *      // write to address 0
 662://MAC/Home/Downloads/getstarted-optiga-trust-m/xmc1400-getstarted-optiga-trust-m/Dave/Generated/I2C_MASTER/i2c_master.h ****  *      I2C_MASTER_TransmitByte(&I2C_MASTER_0, 0x00);
 663://MAC/Home/Downloads/getstarted-optiga-trust-m/xmc1400-getstarted-optiga-trust-m/Dave/Generated/I2C_MASTER/i2c_master.h ****  *	    while(I2C_MASTER_GetFlagStatus(&I2C_MASTER_0, XMC_I2C_CH_STATUS_FLAG_ACK_RECEIVED) == 0U)
 664://MAC/Home/Downloads/getstarted-optiga-trust-m/xmc1400-getstarted-optiga-trust-m/Dave/Generated/I2C_MASTER/i2c_master.h ****  *	    {
 665://MAC/Home/Downloads/getstarted-optiga-trust-m/xmc1400-getstarted-optiga-trust-m/Dave/Generated/I2C_MASTER/i2c_master.h ****  *	      // wait for ACK
 666://MAC/Home/Downloads/getstarted-optiga-trust-m/xmc1400-getstarted-optiga-trust-m/Dave/Generated/I2C_MASTER/i2c_master.h ****  *	    }
 667://MAC/Home/Downloads/getstarted-optiga-trust-m/xmc1400-getstarted-optiga-trust-m/Dave/Generated/I2C_MASTER/i2c_master.h ****  *      I2C_MASTER_ClearFlag(&I2C_MASTER_0,XMC_I2C_CH_STATUS_FLAG_ACK_RECEIVED);
 668://MAC/Home/Downloads/getstarted-optiga-trust-m/xmc1400-getstarted-optiga-trust-m/Dave/Generated/I2C_MASTER/i2c_master.h ****  *      // trigger the DMA
 669://MAC/Home/Downloads/getstarted-optiga-trust-m/xmc1400-getstarted-optiga-trust-m/Dave/Generated/I2C_MASTER/i2c_master.h ****  *      I2C_MASTER_StartTransmitDMA(&I2C_MASTER_0, sizeof(Send_Data), Send_Data);
 670://MAC/Home/Downloads/getstarted-optiga-trust-m/xmc1400-getstarted-optiga-trust-m/Dave/Generated/I2C_MASTER/i2c_master.h ****  *      while(I2C_MASTER_IsTxBusy(&I2C_MASTER_0));
 671://MAC/Home/Downloads/getstarted-optiga-trust-m/xmc1400-getstarted-optiga-trust-m/Dave/Generated/I2C_MASTER/i2c_master.h ****  *    }
 672://MAC/Home/Downloads/getstarted-optiga-trust-m/xmc1400-getstarted-optiga-trust-m/Dave/Generated/I2C_MASTER/i2c_master.h ****  *    else
 673://MAC/Home/Downloads/getstarted-optiga-trust-m/xmc1400-getstarted-optiga-trust-m/Dave/Generated/I2C_MASTER/i2c_master.h ****  *    {
 674://MAC/Home/Downloads/getstarted-optiga-trust-m/xmc1400-getstarted-optiga-trust-m/Dave/Generated/I2C_MASTER/i2c_master.h ****  *      XMC_DEBUG("main: Application initialization failed");
 675://MAC/Home/Downloads/getstarted-optiga-trust-m/xmc1400-getstarted-optiga-trust-m/Dave/Generated/I2C_MASTER/i2c_master.h ****  *      while(1U)
 676://MAC/Home/Downloads/getstarted-optiga-trust-m/xmc1400-getstarted-optiga-trust-m/Dave/Generated/I2C_MASTER/i2c_master.h ****  *      {
 677://MAC/Home/Downloads/getstarted-optiga-trust-m/xmc1400-getstarted-optiga-trust-m/Dave/Generated/I2C_MASTER/i2c_master.h ****  *      }
 678://MAC/Home/Downloads/getstarted-optiga-trust-m/xmc1400-getstarted-optiga-trust-m/Dave/Generated/I2C_MASTER/i2c_master.h ****  *    }
 679://MAC/Home/Downloads/getstarted-optiga-trust-m/xmc1400-getstarted-optiga-trust-m/Dave/Generated/I2C_MASTER/i2c_master.h ****  *    return 1U;
 680://MAC/Home/Downloads/getstarted-optiga-trust-m/xmc1400-getstarted-optiga-trust-m/Dave/Generated/I2C_MASTER/i2c_master.h ****  * }
 681://MAC/Home/Downloads/getstarted-optiga-trust-m/xmc1400-getstarted-optiga-trust-m/Dave/Generated/I2C_MASTER/i2c_master.h ****  * @endcode
 682://MAC/Home/Downloads/getstarted-optiga-trust-m/xmc1400-getstarted-optiga-trust-m/Dave/Generated/I2C_MASTER/i2c_master.h ****  *
 683://MAC/Home/Downloads/getstarted-optiga-trust-m/xmc1400-getstarted-optiga-trust-m/Dave/Generated/I2C_MASTER/i2c_master.h ****  */
 684://MAC/Home/Downloads/getstarted-optiga-trust-m/xmc1400-getstarted-optiga-trust-m/Dave/Generated/I2C_MASTER/i2c_master.h **** I2C_MASTER_STATUS_t I2C_MASTER_StartTransmitDMA(const I2C_MASTER_t *const handle, uint32_t block_si
 685://MAC/Home/Downloads/getstarted-optiga-trust-m/xmc1400-getstarted-optiga-trust-m/Dave/Generated/I2C_MASTER/i2c_master.h **** #endif
 686://MAC/Home/Downloads/getstarted-optiga-trust-m/xmc1400-getstarted-optiga-trust-m/Dave/Generated/I2C_MASTER/i2c_master.h **** 
 687://MAC/Home/Downloads/getstarted-optiga-trust-m/xmc1400-getstarted-optiga-trust-m/Dave/Generated/I2C_MASTER/i2c_master.h **** #if (I2C_MASTER_DMA_RX_ENABLED == 1U) || defined(DOXYGEN)
 688://MAC/Home/Downloads/getstarted-optiga-trust-m/xmc1400-getstarted-optiga-trust-m/Dave/Generated/I2C_MASTER/i2c_master.h **** /**
 689://MAC/Home/Downloads/getstarted-optiga-trust-m/xmc1400-getstarted-optiga-trust-m/Dave/Generated/I2C_MASTER/i2c_master.h ****  * @brief Registers a request for receiving data over I2C_MASTER channel using DMA.
 690://MAC/Home/Downloads/getstarted-optiga-trust-m/xmc1400-getstarted-optiga-trust-m/Dave/Generated/I2C_MASTER/i2c_master.h ****  *
 691://MAC/Home/Downloads/getstarted-optiga-trust-m/xmc1400-getstarted-optiga-trust-m/Dave/Generated/I2C_MASTER/i2c_master.h ****  *
 692://MAC/Home/Downloads/getstarted-optiga-trust-m/xmc1400-getstarted-optiga-trust-m/Dave/Generated/I2C_MASTER/i2c_master.h ****  * @param  handle  Pointer to I2C_MASTER_t handle structure
 693://MAC/Home/Downloads/getstarted-optiga-trust-m/xmc1400-getstarted-optiga-trust-m/Dave/Generated/I2C_MASTER/i2c_master.h ****  * @param block_size  size of the block
 694://MAC/Home/Downloads/getstarted-optiga-trust-m/xmc1400-getstarted-optiga-trust-m/Dave/Generated/I2C_MASTER/i2c_master.h ****  * @param  addr  address \n
 695://MAC/Home/Downloads/getstarted-optiga-trust-m/xmc1400-getstarted-optiga-trust-m/Dave/Generated/I2C_MASTER/i2c_master.h ****  * \b Range: minimum= 1, maximum= 4095.
 696://MAC/Home/Downloads/getstarted-optiga-trust-m/xmc1400-getstarted-optiga-trust-m/Dave/Generated/I2C_MASTER/i2c_master.h ****  *
 697://MAC/Home/Downloads/getstarted-optiga-trust-m/xmc1400-getstarted-optiga-trust-m/Dave/Generated/I2C_MASTER/i2c_master.h ****  * @return  I2C_MASTER_STATUS_t: Status for receive request.\n
 698://MAC/Home/Downloads/getstarted-optiga-trust-m/xmc1400-getstarted-optiga-trust-m/Dave/Generated/I2C_MASTER/i2c_master.h ****  *                        @ref I2C_MASTER_STATUS_SUCCESS if the request is accepted.\n
 699://MAC/Home/Downloads/getstarted-optiga-trust-m/xmc1400-getstarted-optiga-trust-m/Dave/Generated/I2C_MASTER/i2c_master.h ****  *                        @ref I2C_MASTER_STATUS_BUSY if a reception is in progress.\n
 700://MAC/Home/Downloads/getstarted-optiga-trust-m/xmc1400-getstarted-optiga-trust-m/Dave/Generated/I2C_MASTER/i2c_master.h ****  *
 701://MAC/Home/Downloads/getstarted-optiga-trust-m/xmc1400-getstarted-optiga-trust-m/Dave/Generated/I2C_MASTER/i2c_master.h ****  * \par<b>Description:</b><br>
 702://MAC/Home/Downloads/getstarted-optiga-trust-m/xmc1400-getstarted-optiga-trust-m/Dave/Generated/I2C_MASTER/i2c_master.h ****  * Data will be received asynchronously. When the requested number of data bytes are received, opti
 703://MAC/Home/Downloads/getstarted-optiga-trust-m/xmc1400-getstarted-optiga-trust-m/Dave/Generated/I2C_MASTER/i2c_master.h ****  * configured callback function will be executed.
 704://MAC/Home/Downloads/getstarted-optiga-trust-m/xmc1400-getstarted-optiga-trust-m/Dave/Generated/I2C_MASTER/i2c_master.h ****  * This function only registers a request to receive a number of data bytes from a USIC channel.
 705://MAC/Home/Downloads/getstarted-optiga-trust-m/xmc1400-getstarted-optiga-trust-m/Dave/Generated/I2C_MASTER/i2c_master.h ****  * When all the requested number of data bytes are received, the configured callback function will 
 706://MAC/Home/Downloads/getstarted-optiga-trust-m/xmc1400-getstarted-optiga-trust-m/Dave/Generated/I2C_MASTER/i2c_master.h ****  * If a callback function is not configured, the user has to poll for the value of the variable, \a
 707://MAC/Home/Downloads/getstarted-optiga-trust-m/xmc1400-getstarted-optiga-trust-m/Dave/Generated/I2C_MASTER/i2c_master.h ****  * handle->runtime->rx_busy to be false. The value is updated to \a false when all the requested nu
 708://MAC/Home/Downloads/getstarted-optiga-trust-m/xmc1400-getstarted-optiga-trust-m/Dave/Generated/I2C_MASTER/i2c_master.h ****  * are received.
 709://MAC/Home/Downloads/getstarted-optiga-trust-m/xmc1400-getstarted-optiga-trust-m/Dave/Generated/I2C_MASTER/i2c_master.h ****  * A maximum of 4095 bytes can be received in one API call. This limit is because of the DMA single
 710://MAC/Home/Downloads/getstarted-optiga-trust-m/xmc1400-getstarted-optiga-trust-m/Dave/Generated/I2C_MASTER/i2c_master.h ****  *
 711://MAC/Home/Downloads/getstarted-optiga-trust-m/xmc1400-getstarted-optiga-trust-m/Dave/Generated/I2C_MASTER/i2c_master.h ****  * \par<b>NOTE: </b><br>: I2C_MASTER_StartReceiveDMA API can be used only in DMA mode
 712://MAC/Home/Downloads/getstarted-optiga-trust-m/xmc1400-getstarted-optiga-trust-m/Dave/Generated/I2C_MASTER/i2c_master.h ****  * Receive should be configured as "DMA" mode in advanced settings tab \n
 713://MAC/Home/Downloads/getstarted-optiga-trust-m/xmc1400-getstarted-optiga-trust-m/Dave/Generated/I2C_MASTER/i2c_master.h ****  * Address(addr) should reserve an additional bit at the LSB for read/write indication. For example
 714://MAC/Home/Downloads/getstarted-optiga-trust-m/xmc1400-getstarted-optiga-trust-m/Dave/Generated/I2C_MASTER/i2c_master.h ****  * be provided as 0x0a. If the address is 10-bit, only most significant bits with the 10-bit identi
 715://MAC/Home/Downloads/getstarted-optiga-trust-m/xmc1400-getstarted-optiga-trust-m/Dave/Generated/I2C_MASTER/i2c_master.h ****  * For example, if the 10-bit address is 0x305, the address should be provided as 0xf6(prepend with
 716://MAC/Home/Downloads/getstarted-optiga-trust-m/xmc1400-getstarted-optiga-trust-m/Dave/Generated/I2C_MASTER/i2c_master.h ****  * followed by 1-bit field for read/write).<br>
 717://MAC/Home/Downloads/getstarted-optiga-trust-m/xmc1400-getstarted-optiga-trust-m/Dave/Generated/I2C_MASTER/i2c_master.h ****  *
 718://MAC/Home/Downloads/getstarted-optiga-trust-m/xmc1400-getstarted-optiga-trust-m/Dave/Generated/I2C_MASTER/i2c_master.h ****  * Example Usage:
 719://MAC/Home/Downloads/getstarted-optiga-trust-m/xmc1400-getstarted-optiga-trust-m/Dave/Generated/I2C_MASTER/i2c_master.h ****  * @code
 720://MAC/Home/Downloads/getstarted-optiga-trust-m/xmc1400-getstarted-optiga-trust-m/Dave/Generated/I2C_MASTER/i2c_master.h ****  *
 721://MAC/Home/Downloads/getstarted-optiga-trust-m/xmc1400-getstarted-optiga-trust-m/Dave/Generated/I2C_MASTER/i2c_master.h ****  *  #include <DAVE.h>         //Declarations from DAVE Code Generation (includes SFR declaration)
 722://MAC/Home/Downloads/getstarted-optiga-trust-m/xmc1400-getstarted-optiga-trust-m/Dave/Generated/I2C_MASTER/i2c_master.h ****  *  #define SLAVE_ADDRESS 0xA0
 723://MAC/Home/Downloads/getstarted-optiga-trust-m/xmc1400-getstarted-optiga-trust-m/Dave/Generated/I2C_MASTER/i2c_master.h ****  *  //Pre condition:
 724://MAC/Home/Downloads/getstarted-optiga-trust-m/xmc1400-getstarted-optiga-trust-m/Dave/Generated/I2C_MASTER/i2c_master.h ****  *  //Transmit mode and receive mode should be configured to "DMA" in advanced settings tab
 725://MAC/Home/Downloads/getstarted-optiga-trust-m/xmc1400-getstarted-optiga-trust-m/Dave/Generated/I2C_MASTER/i2c_master.h ****  *
 726://MAC/Home/Downloads/getstarted-optiga-trust-m/xmc1400-getstarted-optiga-trust-m/Dave/Generated/I2C_MASTER/i2c_master.h ****  *  uint8_t ReadData[256];
 727://MAC/Home/Downloads/getstarted-optiga-trust-m/xmc1400-getstarted-optiga-trust-m/Dave/Generated/I2C_MASTER/i2c_master.h ****  *  int main(void)
 728://MAC/Home/Downloads/getstarted-optiga-trust-m/xmc1400-getstarted-optiga-trust-m/Dave/Generated/I2C_MASTER/i2c_master.h ****  *  {
 729://MAC/Home/Downloads/getstarted-optiga-trust-m/xmc1400-getstarted-optiga-trust-m/Dave/Generated/I2C_MASTER/i2c_master.h ****  *    DAVE_STATUS_t init_status;
 730://MAC/Home/Downloads/getstarted-optiga-trust-m/xmc1400-getstarted-optiga-trust-m/Dave/Generated/I2C_MASTER/i2c_master.h ****  *
 731://MAC/Home/Downloads/getstarted-optiga-trust-m/xmc1400-getstarted-optiga-trust-m/Dave/Generated/I2C_MASTER/i2c_master.h ****  *    init_status = DAVE_Init();
 732://MAC/Home/Downloads/getstarted-optiga-trust-m/xmc1400-getstarted-optiga-trust-m/Dave/Generated/I2C_MASTER/i2c_master.h ****  *    if(init_status == DAVE_STATUS_SUCCESS)
 733://MAC/Home/Downloads/getstarted-optiga-trust-m/xmc1400-getstarted-optiga-trust-m/Dave/Generated/I2C_MASTER/i2c_master.h ****  *    {
 734://MAC/Home/Downloads/getstarted-optiga-trust-m/xmc1400-getstarted-optiga-trust-m/Dave/Generated/I2C_MASTER/i2c_master.h ****  *      I2C_MASTER_SendStart(&I2C_MASTER_0, SLAVE_ADDRESS, XMC_I2C_CH_CMD_WRITE);
 735://MAC/Home/Downloads/getstarted-optiga-trust-m/xmc1400-getstarted-optiga-trust-m/Dave/Generated/I2C_MASTER/i2c_master.h ****  *	    while(I2C_MASTER_GetFlagStatus(&I2C_MASTER_0, XMC_I2C_CH_STATUS_FLAG_ACK_RECEIVED) == 0U)
 736://MAC/Home/Downloads/getstarted-optiga-trust-m/xmc1400-getstarted-optiga-trust-m/Dave/Generated/I2C_MASTER/i2c_master.h ****  *	    {
 737://MAC/Home/Downloads/getstarted-optiga-trust-m/xmc1400-getstarted-optiga-trust-m/Dave/Generated/I2C_MASTER/i2c_master.h ****  *	      // wait for ACK
 738://MAC/Home/Downloads/getstarted-optiga-trust-m/xmc1400-getstarted-optiga-trust-m/Dave/Generated/I2C_MASTER/i2c_master.h ****  *	    }
 739://MAC/Home/Downloads/getstarted-optiga-trust-m/xmc1400-getstarted-optiga-trust-m/Dave/Generated/I2C_MASTER/i2c_master.h ****  *      I2C_MASTER_ClearFlag(&I2C_MASTER_0,XMC_I2C_CH_STATUS_FLAG_ACK_RECEIVED);
 740://MAC/Home/Downloads/getstarted-optiga-trust-m/xmc1400-getstarted-optiga-trust-m/Dave/Generated/I2C_MASTER/i2c_master.h ****  *      // write to address 0
 741://MAC/Home/Downloads/getstarted-optiga-trust-m/xmc1400-getstarted-optiga-trust-m/Dave/Generated/I2C_MASTER/i2c_master.h ****  *      I2C_MASTER_TransmitByte(&I2C_MASTER_0, 0x00);
 742://MAC/Home/Downloads/getstarted-optiga-trust-m/xmc1400-getstarted-optiga-trust-m/Dave/Generated/I2C_MASTER/i2c_master.h ****  *	    while(I2C_MASTER_GetFlagStatus(&I2C_MASTER_0, XMC_I2C_CH_STATUS_FLAG_ACK_RECEIVED) == 0U)
 743://MAC/Home/Downloads/getstarted-optiga-trust-m/xmc1400-getstarted-optiga-trust-m/Dave/Generated/I2C_MASTER/i2c_master.h ****  *	    {
 744://MAC/Home/Downloads/getstarted-optiga-trust-m/xmc1400-getstarted-optiga-trust-m/Dave/Generated/I2C_MASTER/i2c_master.h ****  *	      // wait for ACK
 745://MAC/Home/Downloads/getstarted-optiga-trust-m/xmc1400-getstarted-optiga-trust-m/Dave/Generated/I2C_MASTER/i2c_master.h ****  *	    }
 746://MAC/Home/Downloads/getstarted-optiga-trust-m/xmc1400-getstarted-optiga-trust-m/Dave/Generated/I2C_MASTER/i2c_master.h ****  *      I2C_MASTER_ClearFlag(&I2C_MASTER_0,XMC_I2C_CH_STATUS_FLAG_ACK_RECEIVED);
 747://MAC/Home/Downloads/getstarted-optiga-trust-m/xmc1400-getstarted-optiga-trust-m/Dave/Generated/I2C_MASTER/i2c_master.h ****  *      I2C_MASTER_SendRepeatedStart(&I2C_MASTER_0, SLAVE_ADDRESS, XMC_I2C_CH_CMD_READ);
 748://MAC/Home/Downloads/getstarted-optiga-trust-m/xmc1400-getstarted-optiga-trust-m/Dave/Generated/I2C_MASTER/i2c_master.h ****  *	    while(I2C_MASTER_GetFlagStatus(&I2C_MASTER_0, XMC_I2C_CH_STATUS_FLAG_ACK_RECEIVED) == 0U)
 749://MAC/Home/Downloads/getstarted-optiga-trust-m/xmc1400-getstarted-optiga-trust-m/Dave/Generated/I2C_MASTER/i2c_master.h ****  *	    {
 750://MAC/Home/Downloads/getstarted-optiga-trust-m/xmc1400-getstarted-optiga-trust-m/Dave/Generated/I2C_MASTER/i2c_master.h ****  *	      // wait for ACK
 751://MAC/Home/Downloads/getstarted-optiga-trust-m/xmc1400-getstarted-optiga-trust-m/Dave/Generated/I2C_MASTER/i2c_master.h ****  *	    }
 752://MAC/Home/Downloads/getstarted-optiga-trust-m/xmc1400-getstarted-optiga-trust-m/Dave/Generated/I2C_MASTER/i2c_master.h ****  *      I2C_MASTER_ClearFlag(&I2C_MASTER_0,XMC_I2C_CH_STATUS_FLAG_ACK_RECEIVED);
 753://MAC/Home/Downloads/getstarted-optiga-trust-m/xmc1400-getstarted-optiga-trust-m/Dave/Generated/I2C_MASTER/i2c_master.h ****  
 754://MAC/Home/Downloads/getstarted-optiga-trust-m/xmc1400-getstarted-optiga-trust-m/Dave/Generated/I2C_MASTER/i2c_master.h ****  *      I2C_MASTER_StartReceiveDMA(&I2C_MASTER_0, 200, ReadData);
 755://MAC/Home/Downloads/getstarted-optiga-trust-m/xmc1400-getstarted-optiga-trust-m/Dave/Generated/I2C_MASTER/i2c_master.h ****  *      while(I2C_MASTER_IsRxBusy(&I2C_MASTER_0));
 756://MAC/Home/Downloads/getstarted-optiga-trust-m/xmc1400-getstarted-optiga-trust-m/Dave/Generated/I2C_MASTER/i2c_master.h ****  *    }
 757://MAC/Home/Downloads/getstarted-optiga-trust-m/xmc1400-getstarted-optiga-trust-m/Dave/Generated/I2C_MASTER/i2c_master.h ****  *    else
 758://MAC/Home/Downloads/getstarted-optiga-trust-m/xmc1400-getstarted-optiga-trust-m/Dave/Generated/I2C_MASTER/i2c_master.h ****  *    {
 759://MAC/Home/Downloads/getstarted-optiga-trust-m/xmc1400-getstarted-optiga-trust-m/Dave/Generated/I2C_MASTER/i2c_master.h ****  *      XMC_DEBUG("main: Application initialization failed");
 760://MAC/Home/Downloads/getstarted-optiga-trust-m/xmc1400-getstarted-optiga-trust-m/Dave/Generated/I2C_MASTER/i2c_master.h ****  *      while(1U)
 761://MAC/Home/Downloads/getstarted-optiga-trust-m/xmc1400-getstarted-optiga-trust-m/Dave/Generated/I2C_MASTER/i2c_master.h ****  *      {
 762://MAC/Home/Downloads/getstarted-optiga-trust-m/xmc1400-getstarted-optiga-trust-m/Dave/Generated/I2C_MASTER/i2c_master.h ****  *      }
 763://MAC/Home/Downloads/getstarted-optiga-trust-m/xmc1400-getstarted-optiga-trust-m/Dave/Generated/I2C_MASTER/i2c_master.h ****  *    }
 764://MAC/Home/Downloads/getstarted-optiga-trust-m/xmc1400-getstarted-optiga-trust-m/Dave/Generated/I2C_MASTER/i2c_master.h ****  *    return 1U;
 765://MAC/Home/Downloads/getstarted-optiga-trust-m/xmc1400-getstarted-optiga-trust-m/Dave/Generated/I2C_MASTER/i2c_master.h ****  *  }
 766://MAC/Home/Downloads/getstarted-optiga-trust-m/xmc1400-getstarted-optiga-trust-m/Dave/Generated/I2C_MASTER/i2c_master.h ****  *  @endcode
 767://MAC/Home/Downloads/getstarted-optiga-trust-m/xmc1400-getstarted-optiga-trust-m/Dave/Generated/I2C_MASTER/i2c_master.h ****  *
 768://MAC/Home/Downloads/getstarted-optiga-trust-m/xmc1400-getstarted-optiga-trust-m/Dave/Generated/I2C_MASTER/i2c_master.h ****  */
 769://MAC/Home/Downloads/getstarted-optiga-trust-m/xmc1400-getstarted-optiga-trust-m/Dave/Generated/I2C_MASTER/i2c_master.h **** I2C_MASTER_STATUS_t I2C_MASTER_StartReceiveDMA(const I2C_MASTER_t *const handle, uint32_t block_siz
 770://MAC/Home/Downloads/getstarted-optiga-trust-m/xmc1400-getstarted-optiga-trust-m/Dave/Generated/I2C_MASTER/i2c_master.h **** #endif
 771://MAC/Home/Downloads/getstarted-optiga-trust-m/xmc1400-getstarted-optiga-trust-m/Dave/Generated/I2C_MASTER/i2c_master.h **** 
 772://MAC/Home/Downloads/getstarted-optiga-trust-m/xmc1400-getstarted-optiga-trust-m/Dave/Generated/I2C_MASTER/i2c_master.h **** #if (I2C_MASTER_INTERRUPT_TX_ENABLED == 1U)
 773://MAC/Home/Downloads/getstarted-optiga-trust-m/xmc1400-getstarted-optiga-trust-m/Dave/Generated/I2C_MASTER/i2c_master.h **** /**
 774://MAC/Home/Downloads/getstarted-optiga-trust-m/xmc1400-getstarted-optiga-trust-m/Dave/Generated/I2C_MASTER/i2c_master.h ****  * @brief Registers a request for transmitting data over I2C_MASTER channel.
 775://MAC/Home/Downloads/getstarted-optiga-trust-m/xmc1400-getstarted-optiga-trust-m/Dave/Generated/I2C_MASTER/i2c_master.h ****  *
 776://MAC/Home/Downloads/getstarted-optiga-trust-m/xmc1400-getstarted-optiga-trust-m/Dave/Generated/I2C_MASTER/i2c_master.h ****  * @param  handle  I2C_MASTER APP handle pointer of type @ref I2C_MASTER_t
 777://MAC/Home/Downloads/getstarted-optiga-trust-m/xmc1400-getstarted-optiga-trust-m/Dave/Generated/I2C_MASTER/i2c_master.h ****  * @param  send_start flag to indicate the start condition
 778://MAC/Home/Downloads/getstarted-optiga-trust-m/xmc1400-getstarted-optiga-trust-m/Dave/Generated/I2C_MASTER/i2c_master.h ****  * @param  address slave address
 779://MAC/Home/Downloads/getstarted-optiga-trust-m/xmc1400-getstarted-optiga-trust-m/Dave/Generated/I2C_MASTER/i2c_master.h ****  * @param  data    pointer to buffer
 780://MAC/Home/Downloads/getstarted-optiga-trust-m/xmc1400-getstarted-optiga-trust-m/Dave/Generated/I2C_MASTER/i2c_master.h ****  * @param  size    number of bytes
 781://MAC/Home/Downloads/getstarted-optiga-trust-m/xmc1400-getstarted-optiga-trust-m/Dave/Generated/I2C_MASTER/i2c_master.h ****  * @param  send_stop flag to indicate the stop condition\n
 782://MAC/Home/Downloads/getstarted-optiga-trust-m/xmc1400-getstarted-optiga-trust-m/Dave/Generated/I2C_MASTER/i2c_master.h ****  * \b Range: minimum= 1, maximum= maximum supported by uint32_t.
 783://MAC/Home/Downloads/getstarted-optiga-trust-m/xmc1400-getstarted-optiga-trust-m/Dave/Generated/I2C_MASTER/i2c_master.h ****  *
 784://MAC/Home/Downloads/getstarted-optiga-trust-m/xmc1400-getstarted-optiga-trust-m/Dave/Generated/I2C_MASTER/i2c_master.h ****  * @return  I2C_MASTER_STATUS_t: Status of transmit request.\n
 785://MAC/Home/Downloads/getstarted-optiga-trust-m/xmc1400-getstarted-optiga-trust-m/Dave/Generated/I2C_MASTER/i2c_master.h ****  *                        @ref I2C_MASTER_STATUS_SUCCESS if the request is accepted.\n
 786://MAC/Home/Downloads/getstarted-optiga-trust-m/xmc1400-getstarted-optiga-trust-m/Dave/Generated/I2C_MASTER/i2c_master.h ****  *                        @ref I2C_MASTER_STATUS_BUSY if a transmission is in progress.\n
 787://MAC/Home/Downloads/getstarted-optiga-trust-m/xmc1400-getstarted-optiga-trust-m/Dave/Generated/I2C_MASTER/i2c_master.h ****  *
 788://MAC/Home/Downloads/getstarted-optiga-trust-m/xmc1400-getstarted-optiga-trust-m/Dave/Generated/I2C_MASTER/i2c_master.h ****  * <i>Imp Note:</i> Return value should be validated by user to ensure that the
 789://MAC/Home/Downloads/getstarted-optiga-trust-m/xmc1400-getstarted-optiga-trust-m/Dave/Generated/I2C_MASTER/i2c_master.h ****  * request is registered.
 790://MAC/Home/Downloads/getstarted-optiga-trust-m/xmc1400-getstarted-optiga-trust-m/Dave/Generated/I2C_MASTER/i2c_master.h ****  *
 791://MAC/Home/Downloads/getstarted-optiga-trust-m/xmc1400-getstarted-optiga-trust-m/Dave/Generated/I2C_MASTER/i2c_master.h ****  * \par<b>Description:</b><br>
 792://MAC/Home/Downloads/getstarted-optiga-trust-m/xmc1400-getstarted-optiga-trust-m/Dave/Generated/I2C_MASTER/i2c_master.h ****  * The data transmission is accomplished using transmit interrupt. User can configure a callback fu
 793://MAC/Home/Downloads/getstarted-optiga-trust-m/xmc1400-getstarted-optiga-trust-m/Dave/Generated/I2C_MASTER/i2c_master.h ****  * When the data is fully transmitted, the callback function will be executed. If transmit FIFO is 
 794://MAC/Home/Downloads/getstarted-optiga-trust-m/xmc1400-getstarted-optiga-trust-m/Dave/Generated/I2C_MASTER/i2c_master.h ****  * the trigger limit is set to 1. So the transmit interrupt will be generated when all the data in 
 795://MAC/Home/Downloads/getstarted-optiga-trust-m/xmc1400-getstarted-optiga-trust-m/Dave/Generated/I2C_MASTER/i2c_master.h ****  * from FIFO. The function uses APP handle's runtime structure to store the data pointer, count, da
 796://MAC/Home/Downloads/getstarted-optiga-trust-m/xmc1400-getstarted-optiga-trust-m/Dave/Generated/I2C_MASTER/i2c_master.h ****  * status of transmission. This function only registers a data transmission request if there is no 
 797://MAC/Home/Downloads/getstarted-optiga-trust-m/xmc1400-getstarted-optiga-trust-m/Dave/Generated/I2C_MASTER/i2c_master.h ****  * in progress.
 798://MAC/Home/Downloads/getstarted-optiga-trust-m/xmc1400-getstarted-optiga-trust-m/Dave/Generated/I2C_MASTER/i2c_master.h ****  * Actual data transmission happens in the transmit interrupt service routine. A trigger is generat
 799://MAC/Home/Downloads/getstarted-optiga-trust-m/xmc1400-getstarted-optiga-trust-m/Dave/Generated/I2C_MASTER/i2c_master.h ****  * interrupt to start loading the data. If transmit FIFO is configured, the data is filled into the
 800://MAC/Home/Downloads/getstarted-optiga-trust-m/xmc1400-getstarted-optiga-trust-m/Dave/Generated/I2C_MASTER/i2c_master.h ****  * Transmit interrupt will be generated next time when the transmit FIFO is empty. At this point of
 801://MAC/Home/Downloads/getstarted-optiga-trust-m/xmc1400-getstarted-optiga-trust-m/Dave/Generated/I2C_MASTER/i2c_master.h ****  * some more data to be transmitted, it is loaded to the FIFO again. When FIFO is not enabled, data
 802://MAC/Home/Downloads/getstarted-optiga-trust-m/xmc1400-getstarted-optiga-trust-m/Dave/Generated/I2C_MASTER/i2c_master.h ****  * byte at a time. On transmission of each byte an interrupt is generated and the next byte is tran
 803://MAC/Home/Downloads/getstarted-optiga-trust-m/xmc1400-getstarted-optiga-trust-m/Dave/Generated/I2C_MASTER/i2c_master.h ****  * interrupt service routine. Callback function is executed when all the data bytes are transmitted
 804://MAC/Home/Downloads/getstarted-optiga-trust-m/xmc1400-getstarted-optiga-trust-m/Dave/Generated/I2C_MASTER/i2c_master.h ****  * If a callback function is not configured, user has to poll for the value of \a tx_busy flag of t
 805://MAC/Home/Downloads/getstarted-optiga-trust-m/xmc1400-getstarted-optiga-trust-m/Dave/Generated/I2C_MASTER/i2c_master.h ****  * structure( \a handle->runtime->tx_busy ) to check for the completion of data transmission.<br>
 806://MAC/Home/Downloads/getstarted-optiga-trust-m/xmc1400-getstarted-optiga-trust-m/Dave/Generated/I2C_MASTER/i2c_master.h ****  * \par<b>NOTE: </b><br>: I2C_MASTER_StartTransmitIRQ API can be used only in Interrupt mode.
 807://MAC/Home/Downloads/getstarted-optiga-trust-m/xmc1400-getstarted-optiga-trust-m/Dave/Generated/I2C_MASTER/i2c_master.h ****  * Transmit should be configured as "Interrupt" mode in advanced settings tab.\n
 808://MAC/Home/Downloads/getstarted-optiga-trust-m/xmc1400-getstarted-optiga-trust-m/Dave/Generated/I2C_MASTER/i2c_master.h ****  * Address(address) should reserve an additional bit at the LSB for read/write indication. For exam
 809://MAC/Home/Downloads/getstarted-optiga-trust-m/xmc1400-getstarted-optiga-trust-m/Dave/Generated/I2C_MASTER/i2c_master.h ****  * be provided as 0x0a. If the address is 10-bit, only most significant bits with the 10-bit identi
 810://MAC/Home/Downloads/getstarted-optiga-trust-m/xmc1400-getstarted-optiga-trust-m/Dave/Generated/I2C_MASTER/i2c_master.h ****  * For example, if the 10-bit address is 0x305, the address should be provided as 0xf6(prepend with
 811://MAC/Home/Downloads/getstarted-optiga-trust-m/xmc1400-getstarted-optiga-trust-m/Dave/Generated/I2C_MASTER/i2c_master.h ****  * followed by 1-bit field for read/write).
 812://MAC/Home/Downloads/getstarted-optiga-trust-m/xmc1400-getstarted-optiga-trust-m/Dave/Generated/I2C_MASTER/i2c_master.h ****  *
 813://MAC/Home/Downloads/getstarted-optiga-trust-m/xmc1400-getstarted-optiga-trust-m/Dave/Generated/I2C_MASTER/i2c_master.h ****  * @code
 814://MAC/Home/Downloads/getstarted-optiga-trust-m/xmc1400-getstarted-optiga-trust-m/Dave/Generated/I2C_MASTER/i2c_master.h ****  *
 815://MAC/Home/Downloads/getstarted-optiga-trust-m/xmc1400-getstarted-optiga-trust-m/Dave/Generated/I2C_MASTER/i2c_master.h ****  *  #include <DAVE.h>
 816://MAC/Home/Downloads/getstarted-optiga-trust-m/xmc1400-getstarted-optiga-trust-m/Dave/Generated/I2C_MASTER/i2c_master.h ****  *  #define SLAVE_ADDRESS 0xA0
 817://MAC/Home/Downloads/getstarted-optiga-trust-m/xmc1400-getstarted-optiga-trust-m/Dave/Generated/I2C_MASTER/i2c_master.h ****  *  uint8_t tx_buffer[64] = {0x01,0x02,0x03,0x04,0x05};
 818://MAC/Home/Downloads/getstarted-optiga-trust-m/xmc1400-getstarted-optiga-trust-m/Dave/Generated/I2C_MASTER/i2c_master.h ****  *  uint8_t mem_address[2];
 819://MAC/Home/Downloads/getstarted-optiga-trust-m/xmc1400-getstarted-optiga-trust-m/Dave/Generated/I2C_MASTER/i2c_master.h ****  *
 820://MAC/Home/Downloads/getstarted-optiga-trust-m/xmc1400-getstarted-optiga-trust-m/Dave/Generated/I2C_MASTER/i2c_master.h ****  *  int main(void)
 821://MAC/Home/Downloads/getstarted-optiga-trust-m/xmc1400-getstarted-optiga-trust-m/Dave/Generated/I2C_MASTER/i2c_master.h ****  *  {
 822://MAC/Home/Downloads/getstarted-optiga-trust-m/xmc1400-getstarted-optiga-trust-m/Dave/Generated/I2C_MASTER/i2c_master.h ****  *    DAVE_STATUS_t init_status;
 823://MAC/Home/Downloads/getstarted-optiga-trust-m/xmc1400-getstarted-optiga-trust-m/Dave/Generated/I2C_MASTER/i2c_master.h ****  *    init_status = DAVE_Init();
 824://MAC/Home/Downloads/getstarted-optiga-trust-m/xmc1400-getstarted-optiga-trust-m/Dave/Generated/I2C_MASTER/i2c_master.h ****  *    if(init_status == DAVE_STATUS_SUCCESS)
 825://MAC/Home/Downloads/getstarted-optiga-trust-m/xmc1400-getstarted-optiga-trust-m/Dave/Generated/I2C_MASTER/i2c_master.h ****  *    {
 826://MAC/Home/Downloads/getstarted-optiga-trust-m/xmc1400-getstarted-optiga-trust-m/Dave/Generated/I2C_MASTER/i2c_master.h ****  *      mem_address[0] = 0x00;//memory which need to be read from slave
 827://MAC/Home/Downloads/getstarted-optiga-trust-m/xmc1400-getstarted-optiga-trust-m/Dave/Generated/I2C_MASTER/i2c_master.h ****  *      //Write data to IO EXPANDER
 828://MAC/Home/Downloads/getstarted-optiga-trust-m/xmc1400-getstarted-optiga-trust-m/Dave/Generated/I2C_MASTER/i2c_master.h ****  *      I2C_MASTER_StartTransmitIRQ(&I2C_MASTER_0,true,SLAVE_ADDRESS,mem_address,1,false);
 829://MAC/Home/Downloads/getstarted-optiga-trust-m/xmc1400-getstarted-optiga-trust-m/Dave/Generated/I2C_MASTER/i2c_master.h ****  *      while(I2C_MASTER_IsTxBusy(&I2C_MASTER_0));
 830://MAC/Home/Downloads/getstarted-optiga-trust-m/xmc1400-getstarted-optiga-trust-m/Dave/Generated/I2C_MASTER/i2c_master.h ****  *
 831://MAC/Home/Downloads/getstarted-optiga-trust-m/xmc1400-getstarted-optiga-trust-m/Dave/Generated/I2C_MASTER/i2c_master.h ****  *      I2C_MASTER_StartTransmitIRQ(&I2C_MASTER_0,false,SLAVE_ADDRESS,tx_buffer,64,true);
 832://MAC/Home/Downloads/getstarted-optiga-trust-m/xmc1400-getstarted-optiga-trust-m/Dave/Generated/I2C_MASTER/i2c_master.h ****  *      while(I2C_MASTER_IsTxBusy(&I2C_MASTER_0));
 833://MAC/Home/Downloads/getstarted-optiga-trust-m/xmc1400-getstarted-optiga-trust-m/Dave/Generated/I2C_MASTER/i2c_master.h ****  *    }
 834://MAC/Home/Downloads/getstarted-optiga-trust-m/xmc1400-getstarted-optiga-trust-m/Dave/Generated/I2C_MASTER/i2c_master.h ****  *    while(1)
 835://MAC/Home/Downloads/getstarted-optiga-trust-m/xmc1400-getstarted-optiga-trust-m/Dave/Generated/I2C_MASTER/i2c_master.h ****  *    { }
 836://MAC/Home/Downloads/getstarted-optiga-trust-m/xmc1400-getstarted-optiga-trust-m/Dave/Generated/I2C_MASTER/i2c_master.h **** 
 837://MAC/Home/Downloads/getstarted-optiga-trust-m/xmc1400-getstarted-optiga-trust-m/Dave/Generated/I2C_MASTER/i2c_master.h ****  *    return 0;
 838://MAC/Home/Downloads/getstarted-optiga-trust-m/xmc1400-getstarted-optiga-trust-m/Dave/Generated/I2C_MASTER/i2c_master.h ****  *  }
 839://MAC/Home/Downloads/getstarted-optiga-trust-m/xmc1400-getstarted-optiga-trust-m/Dave/Generated/I2C_MASTER/i2c_master.h ****  *
 840://MAC/Home/Downloads/getstarted-optiga-trust-m/xmc1400-getstarted-optiga-trust-m/Dave/Generated/I2C_MASTER/i2c_master.h ****  * @endcode<BR> </p>
 841://MAC/Home/Downloads/getstarted-optiga-trust-m/xmc1400-getstarted-optiga-trust-m/Dave/Generated/I2C_MASTER/i2c_master.h ****  *
 842://MAC/Home/Downloads/getstarted-optiga-trust-m/xmc1400-getstarted-optiga-trust-m/Dave/Generated/I2C_MASTER/i2c_master.h ****  */
 843://MAC/Home/Downloads/getstarted-optiga-trust-m/xmc1400-getstarted-optiga-trust-m/Dave/Generated/I2C_MASTER/i2c_master.h **** 
 844://MAC/Home/Downloads/getstarted-optiga-trust-m/xmc1400-getstarted-optiga-trust-m/Dave/Generated/I2C_MASTER/i2c_master.h **** I2C_MASTER_STATUS_t I2C_MASTER_StartTransmitIRQ(I2C_MASTER_t *handle, bool send_start, const uint32
 845://MAC/Home/Downloads/getstarted-optiga-trust-m/xmc1400-getstarted-optiga-trust-m/Dave/Generated/I2C_MASTER/i2c_master.h ****                                                 uint8_t *data, const uint32_t size, bool send_stop)
 846://MAC/Home/Downloads/getstarted-optiga-trust-m/xmc1400-getstarted-optiga-trust-m/Dave/Generated/I2C_MASTER/i2c_master.h **** #endif
 847://MAC/Home/Downloads/getstarted-optiga-trust-m/xmc1400-getstarted-optiga-trust-m/Dave/Generated/I2C_MASTER/i2c_master.h **** #if (I2C_MASTER_INTERRUPT_RX_ENABLED == 1U)
 848://MAC/Home/Downloads/getstarted-optiga-trust-m/xmc1400-getstarted-optiga-trust-m/Dave/Generated/I2C_MASTER/i2c_master.h **** /**
 849://MAC/Home/Downloads/getstarted-optiga-trust-m/xmc1400-getstarted-optiga-trust-m/Dave/Generated/I2C_MASTER/i2c_master.h ****  * @brief Registers a request for receiving data over I2C_MASTER channel.
 850://MAC/Home/Downloads/getstarted-optiga-trust-m/xmc1400-getstarted-optiga-trust-m/Dave/Generated/I2C_MASTER/i2c_master.h ****  *
 851://MAC/Home/Downloads/getstarted-optiga-trust-m/xmc1400-getstarted-optiga-trust-m/Dave/Generated/I2C_MASTER/i2c_master.h ****  *
 852://MAC/Home/Downloads/getstarted-optiga-trust-m/xmc1400-getstarted-optiga-trust-m/Dave/Generated/I2C_MASTER/i2c_master.h ****  * @param  handle  Pointer to I2C_MASTER_t handle structure
 853://MAC/Home/Downloads/getstarted-optiga-trust-m/xmc1400-getstarted-optiga-trust-m/Dave/Generated/I2C_MASTER/i2c_master.h ****  * @param  send_start flag to indicate the start condition
 854://MAC/Home/Downloads/getstarted-optiga-trust-m/xmc1400-getstarted-optiga-trust-m/Dave/Generated/I2C_MASTER/i2c_master.h ****  * @param  address slave address
 855://MAC/Home/Downloads/getstarted-optiga-trust-m/xmc1400-getstarted-optiga-trust-m/Dave/Generated/I2C_MASTER/i2c_master.h ****  * @param  data    pointer to buffer
 856://MAC/Home/Downloads/getstarted-optiga-trust-m/xmc1400-getstarted-optiga-trust-m/Dave/Generated/I2C_MASTER/i2c_master.h ****  * @param  count    number of bytes
 857://MAC/Home/Downloads/getstarted-optiga-trust-m/xmc1400-getstarted-optiga-trust-m/Dave/Generated/I2C_MASTER/i2c_master.h ****  * @param  send_stop flag to indicate the stop condition
 858://MAC/Home/Downloads/getstarted-optiga-trust-m/xmc1400-getstarted-optiga-trust-m/Dave/Generated/I2C_MASTER/i2c_master.h ****  * @param  send_nack flag to indicate the nack condition\n
 859://MAC/Home/Downloads/getstarted-optiga-trust-m/xmc1400-getstarted-optiga-trust-m/Dave/Generated/I2C_MASTER/i2c_master.h ****  * \b Range: minimum= 1, maximum= maximum value supported by type uint32_t.
 860://MAC/Home/Downloads/getstarted-optiga-trust-m/xmc1400-getstarted-optiga-trust-m/Dave/Generated/I2C_MASTER/i2c_master.h ****  *
 861://MAC/Home/Downloads/getstarted-optiga-trust-m/xmc1400-getstarted-optiga-trust-m/Dave/Generated/I2C_MASTER/i2c_master.h ****  * @return  I2C_MASTER_STATUS_t: Status for receive request.\n
 862://MAC/Home/Downloads/getstarted-optiga-trust-m/xmc1400-getstarted-optiga-trust-m/Dave/Generated/I2C_MASTER/i2c_master.h ****  *                        @ref I2C_MASTER_STATUS_SUCCESS if the request is accepted.\n
 863://MAC/Home/Downloads/getstarted-optiga-trust-m/xmc1400-getstarted-optiga-trust-m/Dave/Generated/I2C_MASTER/i2c_master.h ****  *                        @ref I2C_MASTER_STATUS_BUSY if a reception is in progress.\n
 864://MAC/Home/Downloads/getstarted-optiga-trust-m/xmc1400-getstarted-optiga-trust-m/Dave/Generated/I2C_MASTER/i2c_master.h ****  *
 865://MAC/Home/Downloads/getstarted-optiga-trust-m/xmc1400-getstarted-optiga-trust-m/Dave/Generated/I2C_MASTER/i2c_master.h ****  *
 866://MAC/Home/Downloads/getstarted-optiga-trust-m/xmc1400-getstarted-optiga-trust-m/Dave/Generated/I2C_MASTER/i2c_master.h ****  * \par<b>Description:</b><br>
 867://MAC/Home/Downloads/getstarted-optiga-trust-m/xmc1400-getstarted-optiga-trust-m/Dave/Generated/I2C_MASTER/i2c_master.h ****  * Data will be received asynchronously. When the requested number of data bytes are received, opti
 868://MAC/Home/Downloads/getstarted-optiga-trust-m/xmc1400-getstarted-optiga-trust-m/Dave/Generated/I2C_MASTER/i2c_master.h ****  * configured callback function will be executed. Based on the UI configuration, either standard re
 869://MAC/Home/Downloads/getstarted-optiga-trust-m/xmc1400-getstarted-optiga-trust-m/Dave/Generated/I2C_MASTER/i2c_master.h ****  * receive FIFO is used for data reception. An interrupt is configured for reading received data fr
 870://MAC/Home/Downloads/getstarted-optiga-trust-m/xmc1400-getstarted-optiga-trust-m/Dave/Generated/I2C_MASTER/i2c_master.h ****  * function only registers a request to receive a number of data bytes from a USIC channel. If FIFO
 871://MAC/Home/Downloads/getstarted-optiga-trust-m/xmc1400-getstarted-optiga-trust-m/Dave/Generated/I2C_MASTER/i2c_master.h ****  * reception, the FIFO limit is dynamically configured to optimally utilize the CPU load.  When all
 872://MAC/Home/Downloads/getstarted-optiga-trust-m/xmc1400-getstarted-optiga-trust-m/Dave/Generated/I2C_MASTER/i2c_master.h ****  * of data bytes are received, the configured callback function will be executed. If a callback fun
 873://MAC/Home/Downloads/getstarted-optiga-trust-m/xmc1400-getstarted-optiga-trust-m/Dave/Generated/I2C_MASTER/i2c_master.h ****  * configured, the user has to poll for the value of the variable, \a handle->runtime->rx_busy to b
 874://MAC/Home/Downloads/getstarted-optiga-trust-m/xmc1400-getstarted-optiga-trust-m/Dave/Generated/I2C_MASTER/i2c_master.h ****  * is updated to \a false when all the requested number of data bytes are received.<br>
 875://MAC/Home/Downloads/getstarted-optiga-trust-m/xmc1400-getstarted-optiga-trust-m/Dave/Generated/I2C_MASTER/i2c_master.h ****  * \par<b>NOTE: </b><br>: I2C_MASTER_StartReceiveIRQ API can be used only in Interrupt mode.
 876://MAC/Home/Downloads/getstarted-optiga-trust-m/xmc1400-getstarted-optiga-trust-m/Dave/Generated/I2C_MASTER/i2c_master.h ****  * Receive should be configured as "Interrupt" mode in advanced settings tab.\n
 877://MAC/Home/Downloads/getstarted-optiga-trust-m/xmc1400-getstarted-optiga-trust-m/Dave/Generated/I2C_MASTER/i2c_master.h ****  * Address(address) should reserve an additional bit at the LSB for read/write indication. For exam
 878://MAC/Home/Downloads/getstarted-optiga-trust-m/xmc1400-getstarted-optiga-trust-m/Dave/Generated/I2C_MASTER/i2c_master.h ****  * be provided as 0x0a. If the address is 10-bit, only most significant bits with the 10-bit identi
 879://MAC/Home/Downloads/getstarted-optiga-trust-m/xmc1400-getstarted-optiga-trust-m/Dave/Generated/I2C_MASTER/i2c_master.h ****  * For example, if the 10-bit address is 0x305, the address should be provided as 0xf6(prepend with
 880://MAC/Home/Downloads/getstarted-optiga-trust-m/xmc1400-getstarted-optiga-trust-m/Dave/Generated/I2C_MASTER/i2c_master.h ****  * followed by 1-bit field for read/write).
 881://MAC/Home/Downloads/getstarted-optiga-trust-m/xmc1400-getstarted-optiga-trust-m/Dave/Generated/I2C_MASTER/i2c_master.h ****  *
 882://MAC/Home/Downloads/getstarted-optiga-trust-m/xmc1400-getstarted-optiga-trust-m/Dave/Generated/I2C_MASTER/i2c_master.h ****  * @code
 883://MAC/Home/Downloads/getstarted-optiga-trust-m/xmc1400-getstarted-optiga-trust-m/Dave/Generated/I2C_MASTER/i2c_master.h ****  *
 884://MAC/Home/Downloads/getstarted-optiga-trust-m/xmc1400-getstarted-optiga-trust-m/Dave/Generated/I2C_MASTER/i2c_master.h ****  *  #include <DAVE.h>
 885://MAC/Home/Downloads/getstarted-optiga-trust-m/xmc1400-getstarted-optiga-trust-m/Dave/Generated/I2C_MASTER/i2c_master.h ****  *  #define SLAVE_ADDRESS 0xA0
 886://MAC/Home/Downloads/getstarted-optiga-trust-m/xmc1400-getstarted-optiga-trust-m/Dave/Generated/I2C_MASTER/i2c_master.h ****  *  uint8_t rx_buffer[64];
 887://MAC/Home/Downloads/getstarted-optiga-trust-m/xmc1400-getstarted-optiga-trust-m/Dave/Generated/I2C_MASTER/i2c_master.h ****  *  uint8_t mem_address[2];
 888://MAC/Home/Downloads/getstarted-optiga-trust-m/xmc1400-getstarted-optiga-trust-m/Dave/Generated/I2C_MASTER/i2c_master.h ****  *
 889://MAC/Home/Downloads/getstarted-optiga-trust-m/xmc1400-getstarted-optiga-trust-m/Dave/Generated/I2C_MASTER/i2c_master.h ****  *  int main(void)
 890://MAC/Home/Downloads/getstarted-optiga-trust-m/xmc1400-getstarted-optiga-trust-m/Dave/Generated/I2C_MASTER/i2c_master.h ****  *  {
 891://MAC/Home/Downloads/getstarted-optiga-trust-m/xmc1400-getstarted-optiga-trust-m/Dave/Generated/I2C_MASTER/i2c_master.h ****  *    DAVE_STATUS_t init_status;
 892://MAC/Home/Downloads/getstarted-optiga-trust-m/xmc1400-getstarted-optiga-trust-m/Dave/Generated/I2C_MASTER/i2c_master.h ****  *    init_status = DAVE_Init();
 893://MAC/Home/Downloads/getstarted-optiga-trust-m/xmc1400-getstarted-optiga-trust-m/Dave/Generated/I2C_MASTER/i2c_master.h ****  *    if(init_status == DAVE_STATUS_SUCCESS)
 894://MAC/Home/Downloads/getstarted-optiga-trust-m/xmc1400-getstarted-optiga-trust-m/Dave/Generated/I2C_MASTER/i2c_master.h ****  *    {
 895://MAC/Home/Downloads/getstarted-optiga-trust-m/xmc1400-getstarted-optiga-trust-m/Dave/Generated/I2C_MASTER/i2c_master.h ****  *      mem_address[0] = 0x00;//memory which need to be read from slave
 896://MAC/Home/Downloads/getstarted-optiga-trust-m/xmc1400-getstarted-optiga-trust-m/Dave/Generated/I2C_MASTER/i2c_master.h ****  *     //Write data to IO EXPANDER
 897://MAC/Home/Downloads/getstarted-optiga-trust-m/xmc1400-getstarted-optiga-trust-m/Dave/Generated/I2C_MASTER/i2c_master.h ****  *     I2C_MASTER_StartTransmitIRQ(&I2C_MASTER_0,true,SLAVE_ADDRESS,mem_address,1,false);
 898://MAC/Home/Downloads/getstarted-optiga-trust-m/xmc1400-getstarted-optiga-trust-m/Dave/Generated/I2C_MASTER/i2c_master.h ****  *     while(I2C_MASTER_IsTxBusy(&I2C_MASTER_0));
 899://MAC/Home/Downloads/getstarted-optiga-trust-m/xmc1400-getstarted-optiga-trust-m/Dave/Generated/I2C_MASTER/i2c_master.h ****  *
 900://MAC/Home/Downloads/getstarted-optiga-trust-m/xmc1400-getstarted-optiga-trust-m/Dave/Generated/I2C_MASTER/i2c_master.h ****  *     I2C_MASTER_StartReceiveIRQ(&I2C_MASTER_0,true,SLAVE_ADDRESS,rx_buffer,64,true, true);
 901://MAC/Home/Downloads/getstarted-optiga-trust-m/xmc1400-getstarted-optiga-trust-m/Dave/Generated/I2C_MASTER/i2c_master.h ****  *     while(I2C_MASTER_IsRxBusy(&I2C_MASTER_0));
 902://MAC/Home/Downloads/getstarted-optiga-trust-m/xmc1400-getstarted-optiga-trust-m/Dave/Generated/I2C_MASTER/i2c_master.h ****  *    }
 903://MAC/Home/Downloads/getstarted-optiga-trust-m/xmc1400-getstarted-optiga-trust-m/Dave/Generated/I2C_MASTER/i2c_master.h ****  *    while(1)
 904://MAC/Home/Downloads/getstarted-optiga-trust-m/xmc1400-getstarted-optiga-trust-m/Dave/Generated/I2C_MASTER/i2c_master.h ****  *    { }
 905://MAC/Home/Downloads/getstarted-optiga-trust-m/xmc1400-getstarted-optiga-trust-m/Dave/Generated/I2C_MASTER/i2c_master.h ****  *    return 0;
 906://MAC/Home/Downloads/getstarted-optiga-trust-m/xmc1400-getstarted-optiga-trust-m/Dave/Generated/I2C_MASTER/i2c_master.h ****  *  }
 907://MAC/Home/Downloads/getstarted-optiga-trust-m/xmc1400-getstarted-optiga-trust-m/Dave/Generated/I2C_MASTER/i2c_master.h ****  *
 908://MAC/Home/Downloads/getstarted-optiga-trust-m/xmc1400-getstarted-optiga-trust-m/Dave/Generated/I2C_MASTER/i2c_master.h ****  * @endcode<BR> </p>
 909://MAC/Home/Downloads/getstarted-optiga-trust-m/xmc1400-getstarted-optiga-trust-m/Dave/Generated/I2C_MASTER/i2c_master.h ****  *
 910://MAC/Home/Downloads/getstarted-optiga-trust-m/xmc1400-getstarted-optiga-trust-m/Dave/Generated/I2C_MASTER/i2c_master.h ****  */
 911://MAC/Home/Downloads/getstarted-optiga-trust-m/xmc1400-getstarted-optiga-trust-m/Dave/Generated/I2C_MASTER/i2c_master.h ****  I2C_MASTER_STATUS_t I2C_MASTER_StartReceiveIRQ(I2C_MASTER_t *handle, bool send_start, const uint32
 912://MAC/Home/Downloads/getstarted-optiga-trust-m/xmc1400-getstarted-optiga-trust-m/Dave/Generated/I2C_MASTER/i2c_master.h ****                                                uint8_t * data, const uint32_t count, bool send_stop
 913://MAC/Home/Downloads/getstarted-optiga-trust-m/xmc1400-getstarted-optiga-trust-m/Dave/Generated/I2C_MASTER/i2c_master.h **** #endif
 914://MAC/Home/Downloads/getstarted-optiga-trust-m/xmc1400-getstarted-optiga-trust-m/Dave/Generated/I2C_MASTER/i2c_master.h **** 
 915://MAC/Home/Downloads/getstarted-optiga-trust-m/xmc1400-getstarted-optiga-trust-m/Dave/Generated/I2C_MASTER/i2c_master.h **** 
 916://MAC/Home/Downloads/getstarted-optiga-trust-m/xmc1400-getstarted-optiga-trust-m/Dave/Generated/I2C_MASTER/i2c_master.h **** /**
 917://MAC/Home/Downloads/getstarted-optiga-trust-m/xmc1400-getstarted-optiga-trust-m/Dave/Generated/I2C_MASTER/i2c_master.h ****  * @brief Gets the transmit FIFO event flags.
 918://MAC/Home/Downloads/getstarted-optiga-trust-m/xmc1400-getstarted-optiga-trust-m/Dave/Generated/I2C_MASTER/i2c_master.h ****  *
 919://MAC/Home/Downloads/getstarted-optiga-trust-m/xmc1400-getstarted-optiga-trust-m/Dave/Generated/I2C_MASTER/i2c_master.h ****  * @param  handle I2C_MASTER APP handle pointer of type @ref I2C_MASTER_t
 920://MAC/Home/Downloads/getstarted-optiga-trust-m/xmc1400-getstarted-optiga-trust-m/Dave/Generated/I2C_MASTER/i2c_master.h ****  *
 921://MAC/Home/Downloads/getstarted-optiga-trust-m/xmc1400-getstarted-optiga-trust-m/Dave/Generated/I2C_MASTER/i2c_master.h ****  * @return uint32_t: Status of the STBI and TBERI bits in TRBSR register in
 922://MAC/Home/Downloads/getstarted-optiga-trust-m/xmc1400-getstarted-optiga-trust-m/Dave/Generated/I2C_MASTER/i2c_master.h ****  *                      their bit positions.\n
 923://MAC/Home/Downloads/getstarted-optiga-trust-m/xmc1400-getstarted-optiga-trust-m/Dave/Generated/I2C_MASTER/i2c_master.h ****  *                      \b Range: Use type @ref XMC_USIC_CH_TXFIFO_EVENT_t for the bitmask of event
 924://MAC/Home/Downloads/getstarted-optiga-trust-m/xmc1400-getstarted-optiga-trust-m/Dave/Generated/I2C_MASTER/i2c_master.h ****  *
 925://MAC/Home/Downloads/getstarted-optiga-trust-m/xmc1400-getstarted-optiga-trust-m/Dave/Generated/I2C_MASTER/i2c_master.h ****  * \par<b>Description:</b><br>
 926://MAC/Home/Downloads/getstarted-optiga-trust-m/xmc1400-getstarted-optiga-trust-m/Dave/Generated/I2C_MASTER/i2c_master.h ****  * Function reads the value of TRBSR register. It masks the standard transmit buffer interrupt flag
 927://MAC/Home/Downloads/getstarted-optiga-trust-m/xmc1400-getstarted-optiga-trust-m/Dave/Generated/I2C_MASTER/i2c_master.h ****  * buffer error flag before providing the value.
 928://MAC/Home/Downloads/getstarted-optiga-trust-m/xmc1400-getstarted-optiga-trust-m/Dave/Generated/I2C_MASTER/i2c_master.h ****  * User has to mask the bits of interest before checking the status.
 929://MAC/Home/Downloads/getstarted-optiga-trust-m/xmc1400-getstarted-optiga-trust-m/Dave/Generated/I2C_MASTER/i2c_master.h ****  * \par<b>NOTE: </b><br>: Enable transmit fifo in Advanced settings tab. <br>
 930://MAC/Home/Downloads/getstarted-optiga-trust-m/xmc1400-getstarted-optiga-trust-m/Dave/Generated/I2C_MASTER/i2c_master.h ****  * Example Usage:
 931://MAC/Home/Downloads/getstarted-optiga-trust-m/xmc1400-getstarted-optiga-trust-m/Dave/Generated/I2C_MASTER/i2c_master.h ****  *
 932://MAC/Home/Downloads/getstarted-optiga-trust-m/xmc1400-getstarted-optiga-trust-m/Dave/Generated/I2C_MASTER/i2c_master.h ****  * @code
 933://MAC/Home/Downloads/getstarted-optiga-trust-m/xmc1400-getstarted-optiga-trust-m/Dave/Generated/I2C_MASTER/i2c_master.h ****  *
 934://MAC/Home/Downloads/getstarted-optiga-trust-m/xmc1400-getstarted-optiga-trust-m/Dave/Generated/I2C_MASTER/i2c_master.h ****  *  #include <DAVE.h>         //Declarations from DAVE Code Generation (includes SFR declaration)
 935://MAC/Home/Downloads/getstarted-optiga-trust-m/xmc1400-getstarted-optiga-trust-m/Dave/Generated/I2C_MASTER/i2c_master.h ****  *  #define SLAVE_ADDRESS 0xA0
 936://MAC/Home/Downloads/getstarted-optiga-trust-m/xmc1400-getstarted-optiga-trust-m/Dave/Generated/I2C_MASTER/i2c_master.h ****  *  uint8_t mem_address[2];
 937://MAC/Home/Downloads/getstarted-optiga-trust-m/xmc1400-getstarted-optiga-trust-m/Dave/Generated/I2C_MASTER/i2c_master.h ****  *  int main(void)
 938://MAC/Home/Downloads/getstarted-optiga-trust-m/xmc1400-getstarted-optiga-trust-m/Dave/Generated/I2C_MASTER/i2c_master.h ****  *  {
 939://MAC/Home/Downloads/getstarted-optiga-trust-m/xmc1400-getstarted-optiga-trust-m/Dave/Generated/I2C_MASTER/i2c_master.h ****  *    DAVE_STATUS_t init_status;
 940://MAC/Home/Downloads/getstarted-optiga-trust-m/xmc1400-getstarted-optiga-trust-m/Dave/Generated/I2C_MASTER/i2c_master.h ****  *    init_status = DAVE_Init();
 941://MAC/Home/Downloads/getstarted-optiga-trust-m/xmc1400-getstarted-optiga-trust-m/Dave/Generated/I2C_MASTER/i2c_master.h ****  *    if(init_status == DAVE_STATUS_SUCCESS)
 942://MAC/Home/Downloads/getstarted-optiga-trust-m/xmc1400-getstarted-optiga-trust-m/Dave/Generated/I2C_MASTER/i2c_master.h ****  *    {
 943://MAC/Home/Downloads/getstarted-optiga-trust-m/xmc1400-getstarted-optiga-trust-m/Dave/Generated/I2C_MASTER/i2c_master.h ****  *      mem_address[0] = 0x00;//memory which need to be read from slave
 944://MAC/Home/Downloads/getstarted-optiga-trust-m/xmc1400-getstarted-optiga-trust-m/Dave/Generated/I2C_MASTER/i2c_master.h ****  *      //Configure transmit fifo trigger limit as 10
 945://MAC/Home/Downloads/getstarted-optiga-trust-m/xmc1400-getstarted-optiga-trust-m/Dave/Generated/I2C_MASTER/i2c_master.h ****  *      I2C_MASTER_SetTXFIFOTriggerLimit(&I2C_MASTER_0, 16, 10);
 946://MAC/Home/Downloads/getstarted-optiga-trust-m/xmc1400-getstarted-optiga-trust-m/Dave/Generated/I2C_MASTER/i2c_master.h ****  *      I2C_MASTER_StartTransmitIRQ(&I2C_MASTER_0,true,SLAVE_ADDRESS,mem_address,1,false);
 947://MAC/Home/Downloads/getstarted-optiga-trust-m/xmc1400-getstarted-optiga-trust-m/Dave/Generated/I2C_MASTER/i2c_master.h ****  *      while(I2C_MASTER_IsTxBusy(&I2C_MASTER_0));
 948://MAC/Home/Downloads/getstarted-optiga-trust-m/xmc1400-getstarted-optiga-trust-m/Dave/Generated/I2C_MASTER/i2c_master.h ****  *      I2C_MASTER_StartTransmitIRQ(&I2C_MASTER_0,true,SLAVE_ADDRESS,mem_address,16,false);
 949://MAC/Home/Downloads/getstarted-optiga-trust-m/xmc1400-getstarted-optiga-trust-m/Dave/Generated/I2C_MASTER/i2c_master.h ****  *      //Wait for FIFO transmit standard buffer interrupt to fill it again with remaining data
 950://MAC/Home/Downloads/getstarted-optiga-trust-m/xmc1400-getstarted-optiga-trust-m/Dave/Generated/I2C_MASTER/i2c_master.h ****  *      while((I2C_MASTER_GetTXFIFOStatus(&I2C_MASTER_0) & XMC_USIC_CH_TXFIFO_EVENT_STANDARD) == 0)
 951://MAC/Home/Downloads/getstarted-optiga-trust-m/xmc1400-getstarted-optiga-trust-m/Dave/Generated/I2C_MASTER/i2c_master.h ****  *      I2C_MASTER_ClearTXFIFOStatus(&I2C_MASTER_0, XMC_USIC_CH_TXFIFO_EVENT_STANDARD);
 952://MAC/Home/Downloads/getstarted-optiga-trust-m/xmc1400-getstarted-optiga-trust-m/Dave/Generated/I2C_MASTER/i2c_master.h ****  *      I2C_MASTER_StartTransmitIRQ(&I2C_MASTER_0,true,SLAVE_ADDRESS,mem_address,6,false);
 953://MAC/Home/Downloads/getstarted-optiga-trust-m/xmc1400-getstarted-optiga-trust-m/Dave/Generated/I2C_MASTER/i2c_master.h ****  *    }
 954://MAC/Home/Downloads/getstarted-optiga-trust-m/xmc1400-getstarted-optiga-trust-m/Dave/Generated/I2C_MASTER/i2c_master.h ****  *    else
 955://MAC/Home/Downloads/getstarted-optiga-trust-m/xmc1400-getstarted-optiga-trust-m/Dave/Generated/I2C_MASTER/i2c_master.h ****  *    {
 956://MAC/Home/Downloads/getstarted-optiga-trust-m/xmc1400-getstarted-optiga-trust-m/Dave/Generated/I2C_MASTER/i2c_master.h ****  *      XMC_DEBUG("main: Application initialization failed");
 957://MAC/Home/Downloads/getstarted-optiga-trust-m/xmc1400-getstarted-optiga-trust-m/Dave/Generated/I2C_MASTER/i2c_master.h ****  *      while(1U)
 958://MAC/Home/Downloads/getstarted-optiga-trust-m/xmc1400-getstarted-optiga-trust-m/Dave/Generated/I2C_MASTER/i2c_master.h ****  *      {
 959://MAC/Home/Downloads/getstarted-optiga-trust-m/xmc1400-getstarted-optiga-trust-m/Dave/Generated/I2C_MASTER/i2c_master.h ****  *      }
 960://MAC/Home/Downloads/getstarted-optiga-trust-m/xmc1400-getstarted-optiga-trust-m/Dave/Generated/I2C_MASTER/i2c_master.h ****  *    }
 961://MAC/Home/Downloads/getstarted-optiga-trust-m/xmc1400-getstarted-optiga-trust-m/Dave/Generated/I2C_MASTER/i2c_master.h ****  *    return 1U;
 962://MAC/Home/Downloads/getstarted-optiga-trust-m/xmc1400-getstarted-optiga-trust-m/Dave/Generated/I2C_MASTER/i2c_master.h ****  *  }
 963://MAC/Home/Downloads/getstarted-optiga-trust-m/xmc1400-getstarted-optiga-trust-m/Dave/Generated/I2C_MASTER/i2c_master.h ****  * @endcode
 964://MAC/Home/Downloads/getstarted-optiga-trust-m/xmc1400-getstarted-optiga-trust-m/Dave/Generated/I2C_MASTER/i2c_master.h ****  *
 965://MAC/Home/Downloads/getstarted-optiga-trust-m/xmc1400-getstarted-optiga-trust-m/Dave/Generated/I2C_MASTER/i2c_master.h ****  */
 966://MAC/Home/Downloads/getstarted-optiga-trust-m/xmc1400-getstarted-optiga-trust-m/Dave/Generated/I2C_MASTER/i2c_master.h **** __STATIC_INLINE uint32_t I2C_MASTER_GetTXFIFOStatus(const I2C_MASTER_t* const handle)
 967://MAC/Home/Downloads/getstarted-optiga-trust-m/xmc1400-getstarted-optiga-trust-m/Dave/Generated/I2C_MASTER/i2c_master.h **** {
 968://MAC/Home/Downloads/getstarted-optiga-trust-m/xmc1400-getstarted-optiga-trust-m/Dave/Generated/I2C_MASTER/i2c_master.h ****   XMC_ASSERT("I2C_MASTER_GetTXFIFOStatus: invalid handle", (handle != NULL))
 969://MAC/Home/Downloads/getstarted-optiga-trust-m/xmc1400-getstarted-optiga-trust-m/Dave/Generated/I2C_MASTER/i2c_master.h ****   return XMC_USIC_CH_TXFIFO_GetEvent(handle->channel);
 970://MAC/Home/Downloads/getstarted-optiga-trust-m/xmc1400-getstarted-optiga-trust-m/Dave/Generated/I2C_MASTER/i2c_master.h **** }
 971://MAC/Home/Downloads/getstarted-optiga-trust-m/xmc1400-getstarted-optiga-trust-m/Dave/Generated/I2C_MASTER/i2c_master.h **** 
 972://MAC/Home/Downloads/getstarted-optiga-trust-m/xmc1400-getstarted-optiga-trust-m/Dave/Generated/I2C_MASTER/i2c_master.h **** /**
 973://MAC/Home/Downloads/getstarted-optiga-trust-m/xmc1400-getstarted-optiga-trust-m/Dave/Generated/I2C_MASTER/i2c_master.h ****  * @brief Configures trigger limit for the transmit FIFO.
 974://MAC/Home/Downloads/getstarted-optiga-trust-m/xmc1400-getstarted-optiga-trust-m/Dave/Generated/I2C_MASTER/i2c_master.h ****  *
 975://MAC/Home/Downloads/getstarted-optiga-trust-m/xmc1400-getstarted-optiga-trust-m/Dave/Generated/I2C_MASTER/i2c_master.h ****  * @param  handle I2C_MASTER APP handle pointer of type @ref I2C_MASTER_t
 976://MAC/Home/Downloads/getstarted-optiga-trust-m/xmc1400-getstarted-optiga-trust-m/Dave/Generated/I2C_MASTER/i2c_master.h ****  * @param  size   FIFO size
 977://MAC/Home/Downloads/getstarted-optiga-trust-m/xmc1400-getstarted-optiga-trust-m/Dave/Generated/I2C_MASTER/i2c_master.h ****  * @param  limit Value of transmit FIFO filling level, transition below which the interrupt should 
 978://MAC/Home/Downloads/getstarted-optiga-trust-m/xmc1400-getstarted-optiga-trust-m/Dave/Generated/I2C_MASTER/i2c_master.h ****  *               \bRange: 0 to transmit FIFO size.\n
 979://MAC/Home/Downloads/getstarted-optiga-trust-m/xmc1400-getstarted-optiga-trust-m/Dave/Generated/I2C_MASTER/i2c_master.h ****  *               e.g, If transmit FIFO size is 16, and limit is configured as 8, FIFO standard tran
 980://MAC/Home/Downloads/getstarted-optiga-trust-m/xmc1400-getstarted-optiga-trust-m/Dave/Generated/I2C_MASTER/i2c_master.h ****  *               will be generated when the FIFO filling level drops from 8 to 7.\n
 981://MAC/Home/Downloads/getstarted-optiga-trust-m/xmc1400-getstarted-optiga-trust-m/Dave/Generated/I2C_MASTER/i2c_master.h ****  *
 982://MAC/Home/Downloads/getstarted-optiga-trust-m/xmc1400-getstarted-optiga-trust-m/Dave/Generated/I2C_MASTER/i2c_master.h ****  * @return None\n
 983://MAC/Home/Downloads/getstarted-optiga-trust-m/xmc1400-getstarted-optiga-trust-m/Dave/Generated/I2C_MASTER/i2c_master.h ****  *
 984://MAC/Home/Downloads/getstarted-optiga-trust-m/xmc1400-getstarted-optiga-trust-m/Dave/Generated/I2C_MASTER/i2c_master.h ****  * \par<b>Description:</b><br>
 985://MAC/Home/Downloads/getstarted-optiga-trust-m/xmc1400-getstarted-optiga-trust-m/Dave/Generated/I2C_MASTER/i2c_master.h ****  * Transmit FIFO trigger limit is configured by setting its value in the TBCTR register.
 986://MAC/Home/Downloads/getstarted-optiga-trust-m/xmc1400-getstarted-optiga-trust-m/Dave/Generated/I2C_MASTER/i2c_master.h ****  * Transmit FIFO is configured to generate interrupt when the FIFO filling level drops
 987://MAC/Home/Downloads/getstarted-optiga-trust-m/xmc1400-getstarted-optiga-trust-m/Dave/Generated/I2C_MASTER/i2c_master.h ****  * below the trigger limit.
 988://MAC/Home/Downloads/getstarted-optiga-trust-m/xmc1400-getstarted-optiga-trust-m/Dave/Generated/I2C_MASTER/i2c_master.h ****  *
 989://MAC/Home/Downloads/getstarted-optiga-trust-m/xmc1400-getstarted-optiga-trust-m/Dave/Generated/I2C_MASTER/i2c_master.h ****  * Example Usage:
 990://MAC/Home/Downloads/getstarted-optiga-trust-m/xmc1400-getstarted-optiga-trust-m/Dave/Generated/I2C_MASTER/i2c_master.h ****  * @code
 991://MAC/Home/Downloads/getstarted-optiga-trust-m/xmc1400-getstarted-optiga-trust-m/Dave/Generated/I2C_MASTER/i2c_master.h ****  *
 992://MAC/Home/Downloads/getstarted-optiga-trust-m/xmc1400-getstarted-optiga-trust-m/Dave/Generated/I2C_MASTER/i2c_master.h ****  *  #include <DAVE.h>         //Declarations from DAVE Code Generation (includes SFR declaration)
 993://MAC/Home/Downloads/getstarted-optiga-trust-m/xmc1400-getstarted-optiga-trust-m/Dave/Generated/I2C_MASTER/i2c_master.h ****  *
 994://MAC/Home/Downloads/getstarted-optiga-trust-m/xmc1400-getstarted-optiga-trust-m/Dave/Generated/I2C_MASTER/i2c_master.h ****  *  #define SLAVE_ADDRESS 0xA0
 995://MAC/Home/Downloads/getstarted-optiga-trust-m/xmc1400-getstarted-optiga-trust-m/Dave/Generated/I2C_MASTER/i2c_master.h ****  *  uint8_t Send_Data[] = "Infineon Technologies";
 996://MAC/Home/Downloads/getstarted-optiga-trust-m/xmc1400-getstarted-optiga-trust-m/Dave/Generated/I2C_MASTER/i2c_master.h ****  *  int main(void)
 997://MAC/Home/Downloads/getstarted-optiga-trust-m/xmc1400-getstarted-optiga-trust-m/Dave/Generated/I2C_MASTER/i2c_master.h ****  *  {
 998://MAC/Home/Downloads/getstarted-optiga-trust-m/xmc1400-getstarted-optiga-trust-m/Dave/Generated/I2C_MASTER/i2c_master.h ****  *    DAVE_STATUS_t init_status;
 999://MAC/Home/Downloads/getstarted-optiga-trust-m/xmc1400-getstarted-optiga-trust-m/Dave/Generated/I2C_MASTER/i2c_master.h ****  *
1000://MAC/Home/Downloads/getstarted-optiga-trust-m/xmc1400-getstarted-optiga-trust-m/Dave/Generated/I2C_MASTER/i2c_master.h ****  *    init_status = DAVE_Init();
1001://MAC/Home/Downloads/getstarted-optiga-trust-m/xmc1400-getstarted-optiga-trust-m/Dave/Generated/I2C_MASTER/i2c_master.h ****  *    if(init_status == DAVE_STATUS_SUCCESS)
1002://MAC/Home/Downloads/getstarted-optiga-trust-m/xmc1400-getstarted-optiga-trust-m/Dave/Generated/I2C_MASTER/i2c_master.h ****  *    {
1003://MAC/Home/Downloads/getstarted-optiga-trust-m/xmc1400-getstarted-optiga-trust-m/Dave/Generated/I2C_MASTER/i2c_master.h ****  *      //Configure transmit fifo trigger limit, draining level as 10
1004://MAC/Home/Downloads/getstarted-optiga-trust-m/xmc1400-getstarted-optiga-trust-m/Dave/Generated/I2C_MASTER/i2c_master.h ****  *      I2C_MASTER_SetTXFIFOTriggerLimit(&I2C_MASTER_0, 16, 10);
1005://MAC/Home/Downloads/getstarted-optiga-trust-m/xmc1400-getstarted-optiga-trust-m/Dave/Generated/I2C_MASTER/i2c_master.h ****  *      // Execution will happen two times in the interrupt handler as the limit is set to 10
1006://MAC/Home/Downloads/getstarted-optiga-trust-m/xmc1400-getstarted-optiga-trust-m/Dave/Generated/I2C_MASTER/i2c_master.h ****  *      I2C_MASTER_Transmit(&I2C_MASTER_0, true, SLAVE_ADDRESS, Send_Data, 16, true);
1007://MAC/Home/Downloads/getstarted-optiga-trust-m/xmc1400-getstarted-optiga-trust-m/Dave/Generated/I2C_MASTER/i2c_master.h ****  *      while(I2C_MASTER_IsTxBusy(&I2C_MASTER_0));
1008://MAC/Home/Downloads/getstarted-optiga-trust-m/xmc1400-getstarted-optiga-trust-m/Dave/Generated/I2C_MASTER/i2c_master.h ****  *    }
1009://MAC/Home/Downloads/getstarted-optiga-trust-m/xmc1400-getstarted-optiga-trust-m/Dave/Generated/I2C_MASTER/i2c_master.h ****  *    else
1010://MAC/Home/Downloads/getstarted-optiga-trust-m/xmc1400-getstarted-optiga-trust-m/Dave/Generated/I2C_MASTER/i2c_master.h ****  *    {
1011://MAC/Home/Downloads/getstarted-optiga-trust-m/xmc1400-getstarted-optiga-trust-m/Dave/Generated/I2C_MASTER/i2c_master.h ****  *      XMC_DEBUG("main: Application initialization failed");
1012://MAC/Home/Downloads/getstarted-optiga-trust-m/xmc1400-getstarted-optiga-trust-m/Dave/Generated/I2C_MASTER/i2c_master.h ****  *      while(1U)
1013://MAC/Home/Downloads/getstarted-optiga-trust-m/xmc1400-getstarted-optiga-trust-m/Dave/Generated/I2C_MASTER/i2c_master.h ****  *      {
1014://MAC/Home/Downloads/getstarted-optiga-trust-m/xmc1400-getstarted-optiga-trust-m/Dave/Generated/I2C_MASTER/i2c_master.h ****  *      }
1015://MAC/Home/Downloads/getstarted-optiga-trust-m/xmc1400-getstarted-optiga-trust-m/Dave/Generated/I2C_MASTER/i2c_master.h ****  *    }
1016://MAC/Home/Downloads/getstarted-optiga-trust-m/xmc1400-getstarted-optiga-trust-m/Dave/Generated/I2C_MASTER/i2c_master.h ****  *    return 1U;
1017://MAC/Home/Downloads/getstarted-optiga-trust-m/xmc1400-getstarted-optiga-trust-m/Dave/Generated/I2C_MASTER/i2c_master.h ****  *  }
1018://MAC/Home/Downloads/getstarted-optiga-trust-m/xmc1400-getstarted-optiga-trust-m/Dave/Generated/I2C_MASTER/i2c_master.h ****  *
1019://MAC/Home/Downloads/getstarted-optiga-trust-m/xmc1400-getstarted-optiga-trust-m/Dave/Generated/I2C_MASTER/i2c_master.h ****  * @endcode
1020://MAC/Home/Downloads/getstarted-optiga-trust-m/xmc1400-getstarted-optiga-trust-m/Dave/Generated/I2C_MASTER/i2c_master.h ****  */
1021://MAC/Home/Downloads/getstarted-optiga-trust-m/xmc1400-getstarted-optiga-trust-m/Dave/Generated/I2C_MASTER/i2c_master.h **** __STATIC_INLINE void I2C_MASTER_SetTXFIFOTriggerLimit(I2C_MASTER_t * const handle, const uint32_t s
1022://MAC/Home/Downloads/getstarted-optiga-trust-m/xmc1400-getstarted-optiga-trust-m/Dave/Generated/I2C_MASTER/i2c_master.h **** 		                                              const uint32_t limit)
1023://MAC/Home/Downloads/getstarted-optiga-trust-m/xmc1400-getstarted-optiga-trust-m/Dave/Generated/I2C_MASTER/i2c_master.h **** {
1024://MAC/Home/Downloads/getstarted-optiga-trust-m/xmc1400-getstarted-optiga-trust-m/Dave/Generated/I2C_MASTER/i2c_master.h ****   XMC_ASSERT("I2C_MASTER_SetTXFIFOTriggerLimit: invalid handle", (handle != NULL))
1025://MAC/Home/Downloads/getstarted-optiga-trust-m/xmc1400-getstarted-optiga-trust-m/Dave/Generated/I2C_MASTER/i2c_master.h ****   XMC_USIC_CH_TXFIFO_SetSizeTriggerLimit(handle->channel, (XMC_USIC_CH_FIFO_SIZE_t)size, limit);
1026://MAC/Home/Downloads/getstarted-optiga-trust-m/xmc1400-getstarted-optiga-trust-m/Dave/Generated/I2C_MASTER/i2c_master.h **** }
1027://MAC/Home/Downloads/getstarted-optiga-trust-m/xmc1400-getstarted-optiga-trust-m/Dave/Generated/I2C_MASTER/i2c_master.h **** /**
1028://MAC/Home/Downloads/getstarted-optiga-trust-m/xmc1400-getstarted-optiga-trust-m/Dave/Generated/I2C_MASTER/i2c_master.h ****  * @brief Configures trigger limit for the receive FIFO.
1029://MAC/Home/Downloads/getstarted-optiga-trust-m/xmc1400-getstarted-optiga-trust-m/Dave/Generated/I2C_MASTER/i2c_master.h ****  *
1030://MAC/Home/Downloads/getstarted-optiga-trust-m/xmc1400-getstarted-optiga-trust-m/Dave/Generated/I2C_MASTER/i2c_master.h ****  * @param  handle I2C_MASTER APP handle pointer of type @ref I2C_MASTER_t
1031://MAC/Home/Downloads/getstarted-optiga-trust-m/xmc1400-getstarted-optiga-trust-m/Dave/Generated/I2C_MASTER/i2c_master.h ****  * @param  size   FIFO size
1032://MAC/Home/Downloads/getstarted-optiga-trust-m/xmc1400-getstarted-optiga-trust-m/Dave/Generated/I2C_MASTER/i2c_master.h ****  * @param  limit Value of receive FIFO filling level, transition above which the interrupt should b
1033://MAC/Home/Downloads/getstarted-optiga-trust-m/xmc1400-getstarted-optiga-trust-m/Dave/Generated/I2C_MASTER/i2c_master.h ****  *               \bRange: 0 to receive FIFO size.\n
1034://MAC/Home/Downloads/getstarted-optiga-trust-m/xmc1400-getstarted-optiga-trust-m/Dave/Generated/I2C_MASTER/i2c_master.h ****  *               e.g, If receive FIFO size is 16, and limit is configured as 8, FIFO receive buffer
1035://MAC/Home/Downloads/getstarted-optiga-trust-m/xmc1400-getstarted-optiga-trust-m/Dave/Generated/I2C_MASTER/i2c_master.h ****  *               will be generated when the FIFO filling level rises from 8 to 9.\n
1036://MAC/Home/Downloads/getstarted-optiga-trust-m/xmc1400-getstarted-optiga-trust-m/Dave/Generated/I2C_MASTER/i2c_master.h ****  *
1037://MAC/Home/Downloads/getstarted-optiga-trust-m/xmc1400-getstarted-optiga-trust-m/Dave/Generated/I2C_MASTER/i2c_master.h ****  * @return None\n
1038://MAC/Home/Downloads/getstarted-optiga-trust-m/xmc1400-getstarted-optiga-trust-m/Dave/Generated/I2C_MASTER/i2c_master.h ****  *
1039://MAC/Home/Downloads/getstarted-optiga-trust-m/xmc1400-getstarted-optiga-trust-m/Dave/Generated/I2C_MASTER/i2c_master.h ****  * \par<b>Description:</b><br>
1040://MAC/Home/Downloads/getstarted-optiga-trust-m/xmc1400-getstarted-optiga-trust-m/Dave/Generated/I2C_MASTER/i2c_master.h ****  * Receive FIFO trigger limit is configured by setting its value in the RBCTR register.
1041://MAC/Home/Downloads/getstarted-optiga-trust-m/xmc1400-getstarted-optiga-trust-m/Dave/Generated/I2C_MASTER/i2c_master.h ****  * Receive FIFO is configured to generate interrupt when the FIFO filling level rises
1042://MAC/Home/Downloads/getstarted-optiga-trust-m/xmc1400-getstarted-optiga-trust-m/Dave/Generated/I2C_MASTER/i2c_master.h ****  * above the trigger limit.
1043://MAC/Home/Downloads/getstarted-optiga-trust-m/xmc1400-getstarted-optiga-trust-m/Dave/Generated/I2C_MASTER/i2c_master.h ****  *
1044://MAC/Home/Downloads/getstarted-optiga-trust-m/xmc1400-getstarted-optiga-trust-m/Dave/Generated/I2C_MASTER/i2c_master.h ****  * Example Usage:
1045://MAC/Home/Downloads/getstarted-optiga-trust-m/xmc1400-getstarted-optiga-trust-m/Dave/Generated/I2C_MASTER/i2c_master.h ****  * @code
1046://MAC/Home/Downloads/getstarted-optiga-trust-m/xmc1400-getstarted-optiga-trust-m/Dave/Generated/I2C_MASTER/i2c_master.h ****  *
1047://MAC/Home/Downloads/getstarted-optiga-trust-m/xmc1400-getstarted-optiga-trust-m/Dave/Generated/I2C_MASTER/i2c_master.h ****  *  #include <DAVE.h>         //Declarations from DAVE Code Generation (includes SFR declaration)
1048://MAC/Home/Downloads/getstarted-optiga-trust-m/xmc1400-getstarted-optiga-trust-m/Dave/Generated/I2C_MASTER/i2c_master.h ****  *
1049://MAC/Home/Downloads/getstarted-optiga-trust-m/xmc1400-getstarted-optiga-trust-m/Dave/Generated/I2C_MASTER/i2c_master.h ****  *  #define SLAVE_ADDRESS 0xA0
1050://MAC/Home/Downloads/getstarted-optiga-trust-m/xmc1400-getstarted-optiga-trust-m/Dave/Generated/I2C_MASTER/i2c_master.h ****  *
1051://MAC/Home/Downloads/getstarted-optiga-trust-m/xmc1400-getstarted-optiga-trust-m/Dave/Generated/I2C_MASTER/i2c_master.h ****  *  uint8_t Rx_Data[256];
1052://MAC/Home/Downloads/getstarted-optiga-trust-m/xmc1400-getstarted-optiga-trust-m/Dave/Generated/I2C_MASTER/i2c_master.h ****  *  int main(void)
1053://MAC/Home/Downloads/getstarted-optiga-trust-m/xmc1400-getstarted-optiga-trust-m/Dave/Generated/I2C_MASTER/i2c_master.h ****  *  {
1054://MAC/Home/Downloads/getstarted-optiga-trust-m/xmc1400-getstarted-optiga-trust-m/Dave/Generated/I2C_MASTER/i2c_master.h ****  *    DAVE_STATUS_t init_status;
1055://MAC/Home/Downloads/getstarted-optiga-trust-m/xmc1400-getstarted-optiga-trust-m/Dave/Generated/I2C_MASTER/i2c_master.h ****  *
1056://MAC/Home/Downloads/getstarted-optiga-trust-m/xmc1400-getstarted-optiga-trust-m/Dave/Generated/I2C_MASTER/i2c_master.h ****  *    init_status = DAVE_Init();
1057://MAC/Home/Downloads/getstarted-optiga-trust-m/xmc1400-getstarted-optiga-trust-m/Dave/Generated/I2C_MASTER/i2c_master.h ****  *    if(init_status == DAVE_STATUS_SUCCESS)
1058://MAC/Home/Downloads/getstarted-optiga-trust-m/xmc1400-getstarted-optiga-trust-m/Dave/Generated/I2C_MASTER/i2c_master.h ****  *    {
1059://MAC/Home/Downloads/getstarted-optiga-trust-m/xmc1400-getstarted-optiga-trust-m/Dave/Generated/I2C_MASTER/i2c_master.h ****  *      //Configure receive fifo trigger limit to filling level as 10
1060://MAC/Home/Downloads/getstarted-optiga-trust-m/xmc1400-getstarted-optiga-trust-m/Dave/Generated/I2C_MASTER/i2c_master.h ****  *      I2C_MASTER_SetRXFIFOTriggerLimit(&I2C_MASTER_0, 16, 10);
1061://MAC/Home/Downloads/getstarted-optiga-trust-m/xmc1400-getstarted-optiga-trust-m/Dave/Generated/I2C_MASTER/i2c_master.h ****  *      // Execution will happen two times in the receive interrupt handler as the limit is set to 
1062://MAC/Home/Downloads/getstarted-optiga-trust-m/xmc1400-getstarted-optiga-trust-m/Dave/Generated/I2C_MASTER/i2c_master.h ****  *      I2C_MASTER_Receive(&I2C_MASTER_0, true, SLAVE_ADDRESS, Rx_Data, 16, true, true);
1063://MAC/Home/Downloads/getstarted-optiga-trust-m/xmc1400-getstarted-optiga-trust-m/Dave/Generated/I2C_MASTER/i2c_master.h ****  *      while(I2C_MASTER_IsRxBusy(&I2C_MASTER_0));
1064://MAC/Home/Downloads/getstarted-optiga-trust-m/xmc1400-getstarted-optiga-trust-m/Dave/Generated/I2C_MASTER/i2c_master.h ****  *    }
1065://MAC/Home/Downloads/getstarted-optiga-trust-m/xmc1400-getstarted-optiga-trust-m/Dave/Generated/I2C_MASTER/i2c_master.h ****  *    else
1066://MAC/Home/Downloads/getstarted-optiga-trust-m/xmc1400-getstarted-optiga-trust-m/Dave/Generated/I2C_MASTER/i2c_master.h ****  *    {
1067://MAC/Home/Downloads/getstarted-optiga-trust-m/xmc1400-getstarted-optiga-trust-m/Dave/Generated/I2C_MASTER/i2c_master.h ****  *      XMC_DEBUG("main: Application initialization failed");
1068://MAC/Home/Downloads/getstarted-optiga-trust-m/xmc1400-getstarted-optiga-trust-m/Dave/Generated/I2C_MASTER/i2c_master.h ****  *      while(1U)
1069://MAC/Home/Downloads/getstarted-optiga-trust-m/xmc1400-getstarted-optiga-trust-m/Dave/Generated/I2C_MASTER/i2c_master.h ****  *      {
1070://MAC/Home/Downloads/getstarted-optiga-trust-m/xmc1400-getstarted-optiga-trust-m/Dave/Generated/I2C_MASTER/i2c_master.h ****  *      }
1071://MAC/Home/Downloads/getstarted-optiga-trust-m/xmc1400-getstarted-optiga-trust-m/Dave/Generated/I2C_MASTER/i2c_master.h ****  *    }
1072://MAC/Home/Downloads/getstarted-optiga-trust-m/xmc1400-getstarted-optiga-trust-m/Dave/Generated/I2C_MASTER/i2c_master.h ****  *    return 1U;
1073://MAC/Home/Downloads/getstarted-optiga-trust-m/xmc1400-getstarted-optiga-trust-m/Dave/Generated/I2C_MASTER/i2c_master.h ****  *  }
1074://MAC/Home/Downloads/getstarted-optiga-trust-m/xmc1400-getstarted-optiga-trust-m/Dave/Generated/I2C_MASTER/i2c_master.h ****  *
1075://MAC/Home/Downloads/getstarted-optiga-trust-m/xmc1400-getstarted-optiga-trust-m/Dave/Generated/I2C_MASTER/i2c_master.h ****  * @endcode
1076://MAC/Home/Downloads/getstarted-optiga-trust-m/xmc1400-getstarted-optiga-trust-m/Dave/Generated/I2C_MASTER/i2c_master.h ****  */
1077://MAC/Home/Downloads/getstarted-optiga-trust-m/xmc1400-getstarted-optiga-trust-m/Dave/Generated/I2C_MASTER/i2c_master.h **** __STATIC_INLINE void I2C_MASTER_SetRXFIFOTriggerLimit(I2C_MASTER_t * const handle, const uint32_t s
1078://MAC/Home/Downloads/getstarted-optiga-trust-m/xmc1400-getstarted-optiga-trust-m/Dave/Generated/I2C_MASTER/i2c_master.h **** 		                                              const uint32_t limit)
1079://MAC/Home/Downloads/getstarted-optiga-trust-m/xmc1400-getstarted-optiga-trust-m/Dave/Generated/I2C_MASTER/i2c_master.h **** {
1080://MAC/Home/Downloads/getstarted-optiga-trust-m/xmc1400-getstarted-optiga-trust-m/Dave/Generated/I2C_MASTER/i2c_master.h ****   XMC_ASSERT("I2C_MASTER_SetRXFIFOTriggerLimit: invalid handle", (handle != NULL))
1081://MAC/Home/Downloads/getstarted-optiga-trust-m/xmc1400-getstarted-optiga-trust-m/Dave/Generated/I2C_MASTER/i2c_master.h ****   XMC_USIC_CH_RXFIFO_SetSizeTriggerLimit(handle->channel, (XMC_USIC_CH_FIFO_SIZE_t)size, limit);
1082://MAC/Home/Downloads/getstarted-optiga-trust-m/xmc1400-getstarted-optiga-trust-m/Dave/Generated/I2C_MASTER/i2c_master.h **** }
1083://MAC/Home/Downloads/getstarted-optiga-trust-m/xmc1400-getstarted-optiga-trust-m/Dave/Generated/I2C_MASTER/i2c_master.h **** 
1084://MAC/Home/Downloads/getstarted-optiga-trust-m/xmc1400-getstarted-optiga-trust-m/Dave/Generated/I2C_MASTER/i2c_master.h **** /**
1085://MAC/Home/Downloads/getstarted-optiga-trust-m/xmc1400-getstarted-optiga-trust-m/Dave/Generated/I2C_MASTER/i2c_master.h ****  * @brief Checks if the transmit FIFO is full.
1086://MAC/Home/Downloads/getstarted-optiga-trust-m/xmc1400-getstarted-optiga-trust-m/Dave/Generated/I2C_MASTER/i2c_master.h ****  *
1087://MAC/Home/Downloads/getstarted-optiga-trust-m/xmc1400-getstarted-optiga-trust-m/Dave/Generated/I2C_MASTER/i2c_master.h ****  * @param  handle I2C_MASTER APP handle pointer of type @ref I2C_MASTER_t
1088://MAC/Home/Downloads/getstarted-optiga-trust-m/xmc1400-getstarted-optiga-trust-m/Dave/Generated/I2C_MASTER/i2c_master.h ****  *
1089://MAC/Home/Downloads/getstarted-optiga-trust-m/xmc1400-getstarted-optiga-trust-m/Dave/Generated/I2C_MASTER/i2c_master.h ****  * @return bool Status of transmit FIFO filling level.
1090://MAC/Home/Downloads/getstarted-optiga-trust-m/xmc1400-getstarted-optiga-trust-m/Dave/Generated/I2C_MASTER/i2c_master.h ****  *              \bRange: \atrue- if transmit FIFO is full.<br>
1091://MAC/Home/Downloads/getstarted-optiga-trust-m/xmc1400-getstarted-optiga-trust-m/Dave/Generated/I2C_MASTER/i2c_master.h ****  *                       \afalse- if transmit FIFO is not full.<br>
1092://MAC/Home/Downloads/getstarted-optiga-trust-m/xmc1400-getstarted-optiga-trust-m/Dave/Generated/I2C_MASTER/i2c_master.h ****  * \par<b>Description:</b><br>
1093://MAC/Home/Downloads/getstarted-optiga-trust-m/xmc1400-getstarted-optiga-trust-m/Dave/Generated/I2C_MASTER/i2c_master.h ****  * Checks the status using the register TRBSR. Can be used while filling
1094://MAC/Home/Downloads/getstarted-optiga-trust-m/xmc1400-getstarted-optiga-trust-m/Dave/Generated/I2C_MASTER/i2c_master.h ****  * data to the transmit FIFO.
1095://MAC/Home/Downloads/getstarted-optiga-trust-m/xmc1400-getstarted-optiga-trust-m/Dave/Generated/I2C_MASTER/i2c_master.h ****  * \par<b>NOTE: </b><br>: Transmit should be "Direct" mode in advanced settings tab.<br>
1096://MAC/Home/Downloads/getstarted-optiga-trust-m/xmc1400-getstarted-optiga-trust-m/Dave/Generated/I2C_MASTER/i2c_master.h ****  * Example Usage:
1097://MAC/Home/Downloads/getstarted-optiga-trust-m/xmc1400-getstarted-optiga-trust-m/Dave/Generated/I2C_MASTER/i2c_master.h ****  *
1098://MAC/Home/Downloads/getstarted-optiga-trust-m/xmc1400-getstarted-optiga-trust-m/Dave/Generated/I2C_MASTER/i2c_master.h ****  * @code
1099://MAC/Home/Downloads/getstarted-optiga-trust-m/xmc1400-getstarted-optiga-trust-m/Dave/Generated/I2C_MASTER/i2c_master.h ****  *
1100://MAC/Home/Downloads/getstarted-optiga-trust-m/xmc1400-getstarted-optiga-trust-m/Dave/Generated/I2C_MASTER/i2c_master.h ****  *  #include <DAVE.h>                 //Declarations from DAVE Code Generation (includes SFR declar
1101://MAC/Home/Downloads/getstarted-optiga-trust-m/xmc1400-getstarted-optiga-trust-m/Dave/Generated/I2C_MASTER/i2c_master.h ****  *  #define SLAVE_ADDRESS 0xA0
1102://MAC/Home/Downloads/getstarted-optiga-trust-m/xmc1400-getstarted-optiga-trust-m/Dave/Generated/I2C_MASTER/i2c_master.h **** 
1103://MAC/Home/Downloads/getstarted-optiga-trust-m/xmc1400-getstarted-optiga-trust-m/Dave/Generated/I2C_MASTER/i2c_master.h ****  *
1104://MAC/Home/Downloads/getstarted-optiga-trust-m/xmc1400-getstarted-optiga-trust-m/Dave/Generated/I2C_MASTER/i2c_master.h ****  *  uint8_t send_data[] = "Infineon Technologies";
1105://MAC/Home/Downloads/getstarted-optiga-trust-m/xmc1400-getstarted-optiga-trust-m/Dave/Generated/I2C_MASTER/i2c_master.h ****  *  int main(void)
1106://MAC/Home/Downloads/getstarted-optiga-trust-m/xmc1400-getstarted-optiga-trust-m/Dave/Generated/I2C_MASTER/i2c_master.h ****  *  {
1107://MAC/Home/Downloads/getstarted-optiga-trust-m/xmc1400-getstarted-optiga-trust-m/Dave/Generated/I2C_MASTER/i2c_master.h ****  *    DAVE_STATUS_t status;
1108://MAC/Home/Downloads/getstarted-optiga-trust-m/xmc1400-getstarted-optiga-trust-m/Dave/Generated/I2C_MASTER/i2c_master.h ****  *    status = DAVE_Init();           // Initialization of DAVE APPs
1109://MAC/Home/Downloads/getstarted-optiga-trust-m/xmc1400-getstarted-optiga-trust-m/Dave/Generated/I2C_MASTER/i2c_master.h ****  *
1110://MAC/Home/Downloads/getstarted-optiga-trust-m/xmc1400-getstarted-optiga-trust-m/Dave/Generated/I2C_MASTER/i2c_master.h ****  *    if(status == DAVE_STATUS_FAILURE)
1111://MAC/Home/Downloads/getstarted-optiga-trust-m/xmc1400-getstarted-optiga-trust-m/Dave/Generated/I2C_MASTER/i2c_master.h ****  *    {
1112://MAC/Home/Downloads/getstarted-optiga-trust-m/xmc1400-getstarted-optiga-trust-m/Dave/Generated/I2C_MASTER/i2c_master.h ****  *      XMC_DEBUG("DAVE APPs initialization failed\n");
1113://MAC/Home/Downloads/getstarted-optiga-trust-m/xmc1400-getstarted-optiga-trust-m/Dave/Generated/I2C_MASTER/i2c_master.h ****  *
1114://MAC/Home/Downloads/getstarted-optiga-trust-m/xmc1400-getstarted-optiga-trust-m/Dave/Generated/I2C_MASTER/i2c_master.h ****  *      while(1U)
1115://MAC/Home/Downloads/getstarted-optiga-trust-m/xmc1400-getstarted-optiga-trust-m/Dave/Generated/I2C_MASTER/i2c_master.h ****  *      {
1116://MAC/Home/Downloads/getstarted-optiga-trust-m/xmc1400-getstarted-optiga-trust-m/Dave/Generated/I2C_MASTER/i2c_master.h ****  *      }
1117://MAC/Home/Downloads/getstarted-optiga-trust-m/xmc1400-getstarted-optiga-trust-m/Dave/Generated/I2C_MASTER/i2c_master.h ****  *  }
1118://MAC/Home/Downloads/getstarted-optiga-trust-m/xmc1400-getstarted-optiga-trust-m/Dave/Generated/I2C_MASTER/i2c_master.h ****  *  I2C_MASTER_Transmit(&I2C_MASTER_0, true, SLAVE_ADDRESS, &send_data[0], 10, false);
1119://MAC/Home/Downloads/getstarted-optiga-trust-m/xmc1400-getstarted-optiga-trust-m/Dave/Generated/I2C_MASTER/i2c_master.h ****  *  //Wait when Tx FIFO is full
1120://MAC/Home/Downloads/getstarted-optiga-trust-m/xmc1400-getstarted-optiga-trust-m/Dave/Generated/I2C_MASTER/i2c_master.h ****  *  while(!I2C_MASTER_IsTXFIFOFull(&I2C_MASTER_0))
1121://MAC/Home/Downloads/getstarted-optiga-trust-m/xmc1400-getstarted-optiga-trust-m/Dave/Generated/I2C_MASTER/i2c_master.h ****  *  {
1122://MAC/Home/Downloads/getstarted-optiga-trust-m/xmc1400-getstarted-optiga-trust-m/Dave/Generated/I2C_MASTER/i2c_master.h ****  *    I2C_MASTER_Transmit(&I2C_MASTER_0, false, SLAVE_ADDRESS, &send_data[0], 10, false);
1123://MAC/Home/Downloads/getstarted-optiga-trust-m/xmc1400-getstarted-optiga-trust-m/Dave/Generated/I2C_MASTER/i2c_master.h ****  *  }
1124://MAC/Home/Downloads/getstarted-optiga-trust-m/xmc1400-getstarted-optiga-trust-m/Dave/Generated/I2C_MASTER/i2c_master.h ****  *  while(1U)
1125://MAC/Home/Downloads/getstarted-optiga-trust-m/xmc1400-getstarted-optiga-trust-m/Dave/Generated/I2C_MASTER/i2c_master.h ****  *  {
1126://MAC/Home/Downloads/getstarted-optiga-trust-m/xmc1400-getstarted-optiga-trust-m/Dave/Generated/I2C_MASTER/i2c_master.h ****  *  }
1127://MAC/Home/Downloads/getstarted-optiga-trust-m/xmc1400-getstarted-optiga-trust-m/Dave/Generated/I2C_MASTER/i2c_master.h ****  * }
1128://MAC/Home/Downloads/getstarted-optiga-trust-m/xmc1400-getstarted-optiga-trust-m/Dave/Generated/I2C_MASTER/i2c_master.h ****  * @endcode
1129://MAC/Home/Downloads/getstarted-optiga-trust-m/xmc1400-getstarted-optiga-trust-m/Dave/Generated/I2C_MASTER/i2c_master.h ****  */
1130://MAC/Home/Downloads/getstarted-optiga-trust-m/xmc1400-getstarted-optiga-trust-m/Dave/Generated/I2C_MASTER/i2c_master.h **** __STATIC_INLINE bool I2C_MASTER_IsTXFIFOFull(const I2C_MASTER_t* const handle)
1131://MAC/Home/Downloads/getstarted-optiga-trust-m/xmc1400-getstarted-optiga-trust-m/Dave/Generated/I2C_MASTER/i2c_master.h **** {
1132://MAC/Home/Downloads/getstarted-optiga-trust-m/xmc1400-getstarted-optiga-trust-m/Dave/Generated/I2C_MASTER/i2c_master.h ****   XMC_ASSERT("I2C_MASTER_IsTXFIFOFull: invalid handle", (handle != NULL))
1133://MAC/Home/Downloads/getstarted-optiga-trust-m/xmc1400-getstarted-optiga-trust-m/Dave/Generated/I2C_MASTER/i2c_master.h ****   return XMC_USIC_CH_TXFIFO_IsFull(handle->channel);
1134://MAC/Home/Downloads/getstarted-optiga-trust-m/xmc1400-getstarted-optiga-trust-m/Dave/Generated/I2C_MASTER/i2c_master.h **** }
1135://MAC/Home/Downloads/getstarted-optiga-trust-m/xmc1400-getstarted-optiga-trust-m/Dave/Generated/I2C_MASTER/i2c_master.h **** 
1136://MAC/Home/Downloads/getstarted-optiga-trust-m/xmc1400-getstarted-optiga-trust-m/Dave/Generated/I2C_MASTER/i2c_master.h **** /**
1137://MAC/Home/Downloads/getstarted-optiga-trust-m/xmc1400-getstarted-optiga-trust-m/Dave/Generated/I2C_MASTER/i2c_master.h ****  * @brief Checks if the receive FIFO is empty.
1138://MAC/Home/Downloads/getstarted-optiga-trust-m/xmc1400-getstarted-optiga-trust-m/Dave/Generated/I2C_MASTER/i2c_master.h ****  *
1139://MAC/Home/Downloads/getstarted-optiga-trust-m/xmc1400-getstarted-optiga-trust-m/Dave/Generated/I2C_MASTER/i2c_master.h ****  * @param  handle I2C_MASTER APP handle pointer of type @ref I2C_MASTER_t
1140://MAC/Home/Downloads/getstarted-optiga-trust-m/xmc1400-getstarted-optiga-trust-m/Dave/Generated/I2C_MASTER/i2c_master.h ****  *
1141://MAC/Home/Downloads/getstarted-optiga-trust-m/xmc1400-getstarted-optiga-trust-m/Dave/Generated/I2C_MASTER/i2c_master.h ****  * @return bool Status of receive FIFO filling level.
1142://MAC/Home/Downloads/getstarted-optiga-trust-m/xmc1400-getstarted-optiga-trust-m/Dave/Generated/I2C_MASTER/i2c_master.h ****  *              \bRange: \atrue- if receive FIFO is empty.<br>
1143://MAC/Home/Downloads/getstarted-optiga-trust-m/xmc1400-getstarted-optiga-trust-m/Dave/Generated/I2C_MASTER/i2c_master.h ****  *                       \afalse- if receive FIFO still has data.<br>
1144://MAC/Home/Downloads/getstarted-optiga-trust-m/xmc1400-getstarted-optiga-trust-m/Dave/Generated/I2C_MASTER/i2c_master.h ****  * \par<b>Description:</b><br>
1145://MAC/Home/Downloads/getstarted-optiga-trust-m/xmc1400-getstarted-optiga-trust-m/Dave/Generated/I2C_MASTER/i2c_master.h ****  * Checks the status using the register TRBSR. Can be used while reading data from the receive FIFO
1146://MAC/Home/Downloads/getstarted-optiga-trust-m/xmc1400-getstarted-optiga-trust-m/Dave/Generated/I2C_MASTER/i2c_master.h ****  *
1147://MAC/Home/Downloads/getstarted-optiga-trust-m/xmc1400-getstarted-optiga-trust-m/Dave/Generated/I2C_MASTER/i2c_master.h ****  * Example Usage:
1148://MAC/Home/Downloads/getstarted-optiga-trust-m/xmc1400-getstarted-optiga-trust-m/Dave/Generated/I2C_MASTER/i2c_master.h ****  * @code
1149://MAC/Home/Downloads/getstarted-optiga-trust-m/xmc1400-getstarted-optiga-trust-m/Dave/Generated/I2C_MASTER/i2c_master.h ****  *
1150://MAC/Home/Downloads/getstarted-optiga-trust-m/xmc1400-getstarted-optiga-trust-m/Dave/Generated/I2C_MASTER/i2c_master.h ****  *  #include <DAVE.h>                 //Declarations from DAVE Code Generation (includes SFR declar
1151://MAC/Home/Downloads/getstarted-optiga-trust-m/xmc1400-getstarted-optiga-trust-m/Dave/Generated/I2C_MASTER/i2c_master.h ****  *  #define SLAVE_ADDRESS (0xA0)
1152://MAC/Home/Downloads/getstarted-optiga-trust-m/xmc1400-getstarted-optiga-trust-m/Dave/Generated/I2C_MASTER/i2c_master.h ****  *  int main(void)
1153://MAC/Home/Downloads/getstarted-optiga-trust-m/xmc1400-getstarted-optiga-trust-m/Dave/Generated/I2C_MASTER/i2c_master.h ****  *  {
1154://MAC/Home/Downloads/getstarted-optiga-trust-m/xmc1400-getstarted-optiga-trust-m/Dave/Generated/I2C_MASTER/i2c_master.h ****  *    DAVE_STATUS_t init_status;
1155://MAC/Home/Downloads/getstarted-optiga-trust-m/xmc1400-getstarted-optiga-trust-m/Dave/Generated/I2C_MASTER/i2c_master.h ****  *    uint8_t rec_data[64];
1156://MAC/Home/Downloads/getstarted-optiga-trust-m/xmc1400-getstarted-optiga-trust-m/Dave/Generated/I2C_MASTER/i2c_master.h ****  *    uint8_t index = 0, loc_index = 0;
1157://MAC/Home/Downloads/getstarted-optiga-trust-m/xmc1400-getstarted-optiga-trust-m/Dave/Generated/I2C_MASTER/i2c_master.h ****  *    init_status = DAVE_Init();
1158://MAC/Home/Downloads/getstarted-optiga-trust-m/xmc1400-getstarted-optiga-trust-m/Dave/Generated/I2C_MASTER/i2c_master.h ****  *    if(init_status == DAVE_STATUS_SUCCESS)
1159://MAC/Home/Downloads/getstarted-optiga-trust-m/xmc1400-getstarted-optiga-trust-m/Dave/Generated/I2C_MASTER/i2c_master.h ****  *    {
1160://MAC/Home/Downloads/getstarted-optiga-trust-m/xmc1400-getstarted-optiga-trust-m/Dave/Generated/I2C_MASTER/i2c_master.h ****  *      I2C_MASTER_SendStart(&I2C_MASTER_0, SLAVE_ADDRESS, XMC_I2C_CH_CMD_WRITE);
1161://MAC/Home/Downloads/getstarted-optiga-trust-m/xmc1400-getstarted-optiga-trust-m/Dave/Generated/I2C_MASTER/i2c_master.h ****  *      while(I2C_MASTER_GetFlagStatus(&I2C_MASTER_0, XMC_I2C_CH_STATUS_FLAG_ACK_RECEIVED) == 0U)
1162://MAC/Home/Downloads/getstarted-optiga-trust-m/xmc1400-getstarted-optiga-trust-m/Dave/Generated/I2C_MASTER/i2c_master.h ****  *      {
1163://MAC/Home/Downloads/getstarted-optiga-trust-m/xmc1400-getstarted-optiga-trust-m/Dave/Generated/I2C_MASTER/i2c_master.h ****  *       // wait for ACK
1164://MAC/Home/Downloads/getstarted-optiga-trust-m/xmc1400-getstarted-optiga-trust-m/Dave/Generated/I2C_MASTER/i2c_master.h ****  *      }
1165://MAC/Home/Downloads/getstarted-optiga-trust-m/xmc1400-getstarted-optiga-trust-m/Dave/Generated/I2C_MASTER/i2c_master.h ****  *      I2C_MASTER_ClearFlag(&I2C_MASTER_0,XMC_I2C_CH_STATUS_FLAG_ACK_RECEIVED);
1166://MAC/Home/Downloads/getstarted-optiga-trust-m/xmc1400-getstarted-optiga-trust-m/Dave/Generated/I2C_MASTER/i2c_master.h ****  *      // write to address 0
1167://MAC/Home/Downloads/getstarted-optiga-trust-m/xmc1400-getstarted-optiga-trust-m/Dave/Generated/I2C_MASTER/i2c_master.h ****  *      I2C_MASTER_TransmitByte(&I2C_MASTER_0, 0x00);
1168://MAC/Home/Downloads/getstarted-optiga-trust-m/xmc1400-getstarted-optiga-trust-m/Dave/Generated/I2C_MASTER/i2c_master.h ****  *      while(I2C_MASTER_GetFlagStatus(&I2C_MASTER_0, XMC_I2C_CH_STATUS_FLAG_ACK_RECEIVED) == 0U)
1169://MAC/Home/Downloads/getstarted-optiga-trust-m/xmc1400-getstarted-optiga-trust-m/Dave/Generated/I2C_MASTER/i2c_master.h ****  *      {
1170://MAC/Home/Downloads/getstarted-optiga-trust-m/xmc1400-getstarted-optiga-trust-m/Dave/Generated/I2C_MASTER/i2c_master.h ****  *       // wait for ACK
1171://MAC/Home/Downloads/getstarted-optiga-trust-m/xmc1400-getstarted-optiga-trust-m/Dave/Generated/I2C_MASTER/i2c_master.h ****  *      }
1172://MAC/Home/Downloads/getstarted-optiga-trust-m/xmc1400-getstarted-optiga-trust-m/Dave/Generated/I2C_MASTER/i2c_master.h ****  *      I2C_MASTER_ClearFlag(&I2C_MASTER_0,XMC_I2C_CH_STATUS_FLAG_ACK_RECEIVED);
1173://MAC/Home/Downloads/getstarted-optiga-trust-m/xmc1400-getstarted-optiga-trust-m/Dave/Generated/I2C_MASTER/i2c_master.h ****  *      I2C_MASTER_SendRepeatedStart(&I2C_MASTER_0, SLAVE_ADDRESS, XMC_I2C_CH_CMD_READ);
1174://MAC/Home/Downloads/getstarted-optiga-trust-m/xmc1400-getstarted-optiga-trust-m/Dave/Generated/I2C_MASTER/i2c_master.h ****  *      while(I2C_MASTER_GetFlagStatus(&I2C_MASTER_0, XMC_I2C_CH_STATUS_FLAG_ACK_RECEIVED) == 0U)
1175://MAC/Home/Downloads/getstarted-optiga-trust-m/xmc1400-getstarted-optiga-trust-m/Dave/Generated/I2C_MASTER/i2c_master.h ****  *      {
1176://MAC/Home/Downloads/getstarted-optiga-trust-m/xmc1400-getstarted-optiga-trust-m/Dave/Generated/I2C_MASTER/i2c_master.h ****  *       // wait for ACK
1177://MAC/Home/Downloads/getstarted-optiga-trust-m/xmc1400-getstarted-optiga-trust-m/Dave/Generated/I2C_MASTER/i2c_master.h ****  *      }
1178://MAC/Home/Downloads/getstarted-optiga-trust-m/xmc1400-getstarted-optiga-trust-m/Dave/Generated/I2C_MASTER/i2c_master.h ****  *      I2C_MASTER_ClearFlag(&I2C_MASTER_0,XMC_I2C_CH_STATUS_FLAG_ACK_RECEIVED);
1179://MAC/Home/Downloads/getstarted-optiga-trust-m/xmc1400-getstarted-optiga-trust-m/Dave/Generated/I2C_MASTER/i2c_master.h ****  *      while(index < 16)
1180://MAC/Home/Downloads/getstarted-optiga-trust-m/xmc1400-getstarted-optiga-trust-m/Dave/Generated/I2C_MASTER/i2c_master.h ****  *      {
1181://MAC/Home/Downloads/getstarted-optiga-trust-m/xmc1400-getstarted-optiga-trust-m/Dave/Generated/I2C_MASTER/i2c_master.h ****  *        I2C_MASTER_ReceiveACK(&I2C_MASTER_0);
1182://MAC/Home/Downloads/getstarted-optiga-trust-m/xmc1400-getstarted-optiga-trust-m/Dave/Generated/I2C_MASTER/i2c_master.h ****  *        index++;
1183://MAC/Home/Downloads/getstarted-optiga-trust-m/xmc1400-getstarted-optiga-trust-m/Dave/Generated/I2C_MASTER/i2c_master.h ****  *      }
1184://MAC/Home/Downloads/getstarted-optiga-trust-m/xmc1400-getstarted-optiga-trust-m/Dave/Generated/I2C_MASTER/i2c_master.h ****  *      //Wait when Rx FIFO is empty
1185://MAC/Home/Downloads/getstarted-optiga-trust-m/xmc1400-getstarted-optiga-trust-m/Dave/Generated/I2C_MASTER/i2c_master.h ****  *      while(!I2C_MASTER_IsRXFIFOEmpty(&I2C_MASTER_0))
1186://MAC/Home/Downloads/getstarted-optiga-trust-m/xmc1400-getstarted-optiga-trust-m/Dave/Generated/I2C_MASTER/i2c_master.h ****  *      {
1187://MAC/Home/Downloads/getstarted-optiga-trust-m/xmc1400-getstarted-optiga-trust-m/Dave/Generated/I2C_MASTER/i2c_master.h ****  *        rec_data[loc_index++] = I2C_MASTER_GetReceivedByte(&I2C_MASTER_0);
1188://MAC/Home/Downloads/getstarted-optiga-trust-m/xmc1400-getstarted-optiga-trust-m/Dave/Generated/I2C_MASTER/i2c_master.h ****  *      }
1189://MAC/Home/Downloads/getstarted-optiga-trust-m/xmc1400-getstarted-optiga-trust-m/Dave/Generated/I2C_MASTER/i2c_master.h ****  *    }
1190://MAC/Home/Downloads/getstarted-optiga-trust-m/xmc1400-getstarted-optiga-trust-m/Dave/Generated/I2C_MASTER/i2c_master.h ****  *   while(1U)
1191://MAC/Home/Downloads/getstarted-optiga-trust-m/xmc1400-getstarted-optiga-trust-m/Dave/Generated/I2C_MASTER/i2c_master.h ****  *   {
1192://MAC/Home/Downloads/getstarted-optiga-trust-m/xmc1400-getstarted-optiga-trust-m/Dave/Generated/I2C_MASTER/i2c_master.h ****  *   }
1193://MAC/Home/Downloads/getstarted-optiga-trust-m/xmc1400-getstarted-optiga-trust-m/Dave/Generated/I2C_MASTER/i2c_master.h ****  *  }
1194://MAC/Home/Downloads/getstarted-optiga-trust-m/xmc1400-getstarted-optiga-trust-m/Dave/Generated/I2C_MASTER/i2c_master.h ****  * @endcode
1195://MAC/Home/Downloads/getstarted-optiga-trust-m/xmc1400-getstarted-optiga-trust-m/Dave/Generated/I2C_MASTER/i2c_master.h ****  */
1196://MAC/Home/Downloads/getstarted-optiga-trust-m/xmc1400-getstarted-optiga-trust-m/Dave/Generated/I2C_MASTER/i2c_master.h **** __STATIC_INLINE bool I2C_MASTER_IsRXFIFOEmpty(const I2C_MASTER_t* const handle)
1197://MAC/Home/Downloads/getstarted-optiga-trust-m/xmc1400-getstarted-optiga-trust-m/Dave/Generated/I2C_MASTER/i2c_master.h **** {
1198://MAC/Home/Downloads/getstarted-optiga-trust-m/xmc1400-getstarted-optiga-trust-m/Dave/Generated/I2C_MASTER/i2c_master.h ****   XMC_ASSERT("I2C_MASTER_IsRXFIFOEmpty: invalid handle", (handle != NULL))
1199://MAC/Home/Downloads/getstarted-optiga-trust-m/xmc1400-getstarted-optiga-trust-m/Dave/Generated/I2C_MASTER/i2c_master.h ****   return XMC_USIC_CH_RXFIFO_IsEmpty(handle->channel);
1200://MAC/Home/Downloads/getstarted-optiga-trust-m/xmc1400-getstarted-optiga-trust-m/Dave/Generated/I2C_MASTER/i2c_master.h **** }
1201://MAC/Home/Downloads/getstarted-optiga-trust-m/xmc1400-getstarted-optiga-trust-m/Dave/Generated/I2C_MASTER/i2c_master.h **** 
1202://MAC/Home/Downloads/getstarted-optiga-trust-m/xmc1400-getstarted-optiga-trust-m/Dave/Generated/I2C_MASTER/i2c_master.h **** /**
1203://MAC/Home/Downloads/getstarted-optiga-trust-m/xmc1400-getstarted-optiga-trust-m/Dave/Generated/I2C_MASTER/i2c_master.h ****  * @brief Gets the status of event flags related to receive FIFO.
1204://MAC/Home/Downloads/getstarted-optiga-trust-m/xmc1400-getstarted-optiga-trust-m/Dave/Generated/I2C_MASTER/i2c_master.h ****  *
1205://MAC/Home/Downloads/getstarted-optiga-trust-m/xmc1400-getstarted-optiga-trust-m/Dave/Generated/I2C_MASTER/i2c_master.h ****  *
1206://MAC/Home/Downloads/getstarted-optiga-trust-m/xmc1400-getstarted-optiga-trust-m/Dave/Generated/I2C_MASTER/i2c_master.h ****  * @param  handle I2C_MASTER APP handle pointer of type @ref I2C_MASTER_t
1207://MAC/Home/Downloads/getstarted-optiga-trust-m/xmc1400-getstarted-optiga-trust-m/Dave/Generated/I2C_MASTER/i2c_master.h ****  *
1208://MAC/Home/Downloads/getstarted-optiga-trust-m/xmc1400-getstarted-optiga-trust-m/Dave/Generated/I2C_MASTER/i2c_master.h ****  * @return uint32_t: Status of standard receive buffer event, alternative receive buffer event and 
1209://MAC/Home/Downloads/getstarted-optiga-trust-m/xmc1400-getstarted-optiga-trust-m/Dave/Generated/I2C_MASTER/i2c_master.h ****  * error event in their bit positions in TRBSR register.\n
1210://MAC/Home/Downloads/getstarted-optiga-trust-m/xmc1400-getstarted-optiga-trust-m/Dave/Generated/I2C_MASTER/i2c_master.h ****  * \b Range: Use type @ref XMC_USIC_CH_RXFIFO_EVENT_t for event bitmasks. Multiple events' status c
1211://MAC/Home/Downloads/getstarted-optiga-trust-m/xmc1400-getstarted-optiga-trust-m/Dave/Generated/I2C_MASTER/i2c_master.h ****  * comparison using \a OR operation.
1212://MAC/Home/Downloads/getstarted-optiga-trust-m/xmc1400-getstarted-optiga-trust-m/Dave/Generated/I2C_MASTER/i2c_master.h ****  *
1213://MAC/Home/Downloads/getstarted-optiga-trust-m/xmc1400-getstarted-optiga-trust-m/Dave/Generated/I2C_MASTER/i2c_master.h ****  * \par<b>Description:</b><br>
1214://MAC/Home/Downloads/getstarted-optiga-trust-m/xmc1400-getstarted-optiga-trust-m/Dave/Generated/I2C_MASTER/i2c_master.h ****  * It provides the status of standard receive buffer event, alternative receive buffer event and re
1215://MAC/Home/Downloads/getstarted-optiga-trust-m/xmc1400-getstarted-optiga-trust-m/Dave/Generated/I2C_MASTER/i2c_master.h ****  * event.
1216://MAC/Home/Downloads/getstarted-optiga-trust-m/xmc1400-getstarted-optiga-trust-m/Dave/Generated/I2C_MASTER/i2c_master.h ****  * Function masks the TRBSR register with the bitmask of SRBI, ARBI and RBERI flags. User has to ma
1217://MAC/Home/Downloads/getstarted-optiga-trust-m/xmc1400-getstarted-optiga-trust-m/Dave/Generated/I2C_MASTER/i2c_master.h ****  * interest before checking the status.
1218://MAC/Home/Downloads/getstarted-optiga-trust-m/xmc1400-getstarted-optiga-trust-m/Dave/Generated/I2C_MASTER/i2c_master.h ****  *
1219://MAC/Home/Downloads/getstarted-optiga-trust-m/xmc1400-getstarted-optiga-trust-m/Dave/Generated/I2C_MASTER/i2c_master.h ****  * Example Usage:
1220://MAC/Home/Downloads/getstarted-optiga-trust-m/xmc1400-getstarted-optiga-trust-m/Dave/Generated/I2C_MASTER/i2c_master.h ****  * @code
1221://MAC/Home/Downloads/getstarted-optiga-trust-m/xmc1400-getstarted-optiga-trust-m/Dave/Generated/I2C_MASTER/i2c_master.h ****  *
1222://MAC/Home/Downloads/getstarted-optiga-trust-m/xmc1400-getstarted-optiga-trust-m/Dave/Generated/I2C_MASTER/i2c_master.h ****  *   #include <DAVE.h>         //Declarations from DAVE Code Generation (includes SFR declaration)
1223://MAC/Home/Downloads/getstarted-optiga-trust-m/xmc1400-getstarted-optiga-trust-m/Dave/Generated/I2C_MASTER/i2c_master.h ****  *   #define SLAVE_ADDRESS 0xA0
1224://MAC/Home/Downloads/getstarted-optiga-trust-m/xmc1400-getstarted-optiga-trust-m/Dave/Generated/I2C_MASTER/i2c_master.h ****  *   uint8_t mem_address[2];
1225://MAC/Home/Downloads/getstarted-optiga-trust-m/xmc1400-getstarted-optiga-trust-m/Dave/Generated/I2C_MASTER/i2c_master.h ****  *   int main(void)
1226://MAC/Home/Downloads/getstarted-optiga-trust-m/xmc1400-getstarted-optiga-trust-m/Dave/Generated/I2C_MASTER/i2c_master.h ****  *   {
1227://MAC/Home/Downloads/getstarted-optiga-trust-m/xmc1400-getstarted-optiga-trust-m/Dave/Generated/I2C_MASTER/i2c_master.h ****  *     DAVE_STATUS_t init_status;
1228://MAC/Home/Downloads/getstarted-optiga-trust-m/xmc1400-getstarted-optiga-trust-m/Dave/Generated/I2C_MASTER/i2c_master.h ****  *
1229://MAC/Home/Downloads/getstarted-optiga-trust-m/xmc1400-getstarted-optiga-trust-m/Dave/Generated/I2C_MASTER/i2c_master.h ****  *     init_status = DAVE_Init();
1230://MAC/Home/Downloads/getstarted-optiga-trust-m/xmc1400-getstarted-optiga-trust-m/Dave/Generated/I2C_MASTER/i2c_master.h ****  *     if(init_status == DAVE_STATUS_SUCCESS)
1231://MAC/Home/Downloads/getstarted-optiga-trust-m/xmc1400-getstarted-optiga-trust-m/Dave/Generated/I2C_MASTER/i2c_master.h ****  *     {
1232://MAC/Home/Downloads/getstarted-optiga-trust-m/xmc1400-getstarted-optiga-trust-m/Dave/Generated/I2C_MASTER/i2c_master.h ****  *       mem_address[0] = 0x00;//memory which need to be read from slave
1233://MAC/Home/Downloads/getstarted-optiga-trust-m/xmc1400-getstarted-optiga-trust-m/Dave/Generated/I2C_MASTER/i2c_master.h ****  *       //Configure receive fifo trigger limit as 10
1234://MAC/Home/Downloads/getstarted-optiga-trust-m/xmc1400-getstarted-optiga-trust-m/Dave/Generated/I2C_MASTER/i2c_master.h ****  *       I2C_MASTER_SetRXFIFOTriggerLimit(&I2C_MASTER_0, 16, 10);
1235://MAC/Home/Downloads/getstarted-optiga-trust-m/xmc1400-getstarted-optiga-trust-m/Dave/Generated/I2C_MASTER/i2c_master.h ****  *       I2C_MASTER_StartTransmitIRQ(&I2C_MASTER_0,true,SLAVE_ADDRESS,mem_address,1,false);
1236://MAC/Home/Downloads/getstarted-optiga-trust-m/xmc1400-getstarted-optiga-trust-m/Dave/Generated/I2C_MASTER/i2c_master.h ****  *       while(I2C_MASTER_IsTxBusy(&I2C_MASTER_0));
1237://MAC/Home/Downloads/getstarted-optiga-trust-m/xmc1400-getstarted-optiga-trust-m/Dave/Generated/I2C_MASTER/i2c_master.h ****  *       I2C_MASTER_StartReceiveIRQ(&I2C_MASTER_0,true,SLAVE_ADDRESS,mem_address,16,true, true);
1238://MAC/Home/Downloads/getstarted-optiga-trust-m/xmc1400-getstarted-optiga-trust-m/Dave/Generated/I2C_MASTER/i2c_master.h ****  *       //Wait for FIFO transmit standard buffer interrupt to fill it again with remaining data
1239://MAC/Home/Downloads/getstarted-optiga-trust-m/xmc1400-getstarted-optiga-trust-m/Dave/Generated/I2C_MASTER/i2c_master.h ****  *       while((I2C_MASTER_GetRXFIFOStatus(&I2C_MASTER_0) & XMC_USIC_CH_RXFIFO_EVENT_STANDARD) == 0
1240://MAC/Home/Downloads/getstarted-optiga-trust-m/xmc1400-getstarted-optiga-trust-m/Dave/Generated/I2C_MASTER/i2c_master.h ****  *       I2C_MASTER_ClearRXFIFOStatus(&I2C_MASTER_0, XMC_USIC_CH_RXFIFO_EVENT_STANDARD);
1241://MAC/Home/Downloads/getstarted-optiga-trust-m/xmc1400-getstarted-optiga-trust-m/Dave/Generated/I2C_MASTER/i2c_master.h ****  *       I2C_MASTER_StartReceiveIRQ(&I2C_MASTER_0,true,SLAVE_ADDRESS,mem_address,6,false, false);
1242://MAC/Home/Downloads/getstarted-optiga-trust-m/xmc1400-getstarted-optiga-trust-m/Dave/Generated/I2C_MASTER/i2c_master.h ****  *     }
1243://MAC/Home/Downloads/getstarted-optiga-trust-m/xmc1400-getstarted-optiga-trust-m/Dave/Generated/I2C_MASTER/i2c_master.h ****  *     else
1244://MAC/Home/Downloads/getstarted-optiga-trust-m/xmc1400-getstarted-optiga-trust-m/Dave/Generated/I2C_MASTER/i2c_master.h ****  *     {
1245://MAC/Home/Downloads/getstarted-optiga-trust-m/xmc1400-getstarted-optiga-trust-m/Dave/Generated/I2C_MASTER/i2c_master.h ****  *      XMC_DEBUG("main: Application initialization failed");
1246://MAC/Home/Downloads/getstarted-optiga-trust-m/xmc1400-getstarted-optiga-trust-m/Dave/Generated/I2C_MASTER/i2c_master.h ****  *      while(1U)
1247://MAC/Home/Downloads/getstarted-optiga-trust-m/xmc1400-getstarted-optiga-trust-m/Dave/Generated/I2C_MASTER/i2c_master.h ****  *      {
1248://MAC/Home/Downloads/getstarted-optiga-trust-m/xmc1400-getstarted-optiga-trust-m/Dave/Generated/I2C_MASTER/i2c_master.h ****  *      }
1249://MAC/Home/Downloads/getstarted-optiga-trust-m/xmc1400-getstarted-optiga-trust-m/Dave/Generated/I2C_MASTER/i2c_master.h ****  *     }
1250://MAC/Home/Downloads/getstarted-optiga-trust-m/xmc1400-getstarted-optiga-trust-m/Dave/Generated/I2C_MASTER/i2c_master.h ****  *      return 1U;
1251://MAC/Home/Downloads/getstarted-optiga-trust-m/xmc1400-getstarted-optiga-trust-m/Dave/Generated/I2C_MASTER/i2c_master.h ****  *   }
1252://MAC/Home/Downloads/getstarted-optiga-trust-m/xmc1400-getstarted-optiga-trust-m/Dave/Generated/I2C_MASTER/i2c_master.h ****  * @endcode
1253://MAC/Home/Downloads/getstarted-optiga-trust-m/xmc1400-getstarted-optiga-trust-m/Dave/Generated/I2C_MASTER/i2c_master.h ****  *
1254://MAC/Home/Downloads/getstarted-optiga-trust-m/xmc1400-getstarted-optiga-trust-m/Dave/Generated/I2C_MASTER/i2c_master.h ****  */
1255://MAC/Home/Downloads/getstarted-optiga-trust-m/xmc1400-getstarted-optiga-trust-m/Dave/Generated/I2C_MASTER/i2c_master.h **** __STATIC_INLINE uint32_t I2C_MASTER_GetRXFIFOStatus(const I2C_MASTER_t* const handle)
1256://MAC/Home/Downloads/getstarted-optiga-trust-m/xmc1400-getstarted-optiga-trust-m/Dave/Generated/I2C_MASTER/i2c_master.h **** {
1257://MAC/Home/Downloads/getstarted-optiga-trust-m/xmc1400-getstarted-optiga-trust-m/Dave/Generated/I2C_MASTER/i2c_master.h ****   XMC_ASSERT("I2C_MASTER_GetRXFIFOStatus: invalid handle", (handle != NULL))
1258://MAC/Home/Downloads/getstarted-optiga-trust-m/xmc1400-getstarted-optiga-trust-m/Dave/Generated/I2C_MASTER/i2c_master.h ****   return XMC_USIC_CH_RXFIFO_GetEvent(handle->channel);
1259://MAC/Home/Downloads/getstarted-optiga-trust-m/xmc1400-getstarted-optiga-trust-m/Dave/Generated/I2C_MASTER/i2c_master.h **** }
1260://MAC/Home/Downloads/getstarted-optiga-trust-m/xmc1400-getstarted-optiga-trust-m/Dave/Generated/I2C_MASTER/i2c_master.h **** 
1261://MAC/Home/Downloads/getstarted-optiga-trust-m/xmc1400-getstarted-optiga-trust-m/Dave/Generated/I2C_MASTER/i2c_master.h **** /**
1262://MAC/Home/Downloads/getstarted-optiga-trust-m/xmc1400-getstarted-optiga-trust-m/Dave/Generated/I2C_MASTER/i2c_master.h ****  * @brief Function clears the specified FIFO event flag related to
1263://MAC/Home/Downloads/getstarted-optiga-trust-m/xmc1400-getstarted-optiga-trust-m/Dave/Generated/I2C_MASTER/i2c_master.h ****  * transmit FIFO.
1264://MAC/Home/Downloads/getstarted-optiga-trust-m/xmc1400-getstarted-optiga-trust-m/Dave/Generated/I2C_MASTER/i2c_master.h ****  *
1265://MAC/Home/Downloads/getstarted-optiga-trust-m/xmc1400-getstarted-optiga-trust-m/Dave/Generated/I2C_MASTER/i2c_master.h ****  *
1266://MAC/Home/Downloads/getstarted-optiga-trust-m/xmc1400-getstarted-optiga-trust-m/Dave/Generated/I2C_MASTER/i2c_master.h ****  * @param  handle I2C_MASTER APP handle pointer of type @ref I2C_MASTER_t
1267://MAC/Home/Downloads/getstarted-optiga-trust-m/xmc1400-getstarted-optiga-trust-m/Dave/Generated/I2C_MASTER/i2c_master.h ****  * @param  flag Value with event bits at their bit positions in TRBSR register to be cleared.\n
1268://MAC/Home/Downloads/getstarted-optiga-trust-m/xmc1400-getstarted-optiga-trust-m/Dave/Generated/I2C_MASTER/i2c_master.h ****  *             \b Range: Use type @ref XMC_USIC_CH_TXFIFO_EVENT_t. Multiple events can be combined 
1269://MAC/Home/Downloads/getstarted-optiga-trust-m/xmc1400-getstarted-optiga-trust-m/Dave/Generated/I2C_MASTER/i2c_master.h ****  *             \a OR operation.
1270://MAC/Home/Downloads/getstarted-optiga-trust-m/xmc1400-getstarted-optiga-trust-m/Dave/Generated/I2C_MASTER/i2c_master.h ****  *
1271://MAC/Home/Downloads/getstarted-optiga-trust-m/xmc1400-getstarted-optiga-trust-m/Dave/Generated/I2C_MASTER/i2c_master.h ****  * @return    None
1272://MAC/Home/Downloads/getstarted-optiga-trust-m/xmc1400-getstarted-optiga-trust-m/Dave/Generated/I2C_MASTER/i2c_master.h ****  *
1273://MAC/Home/Downloads/getstarted-optiga-trust-m/xmc1400-getstarted-optiga-trust-m/Dave/Generated/I2C_MASTER/i2c_master.h ****  * \par<b>Description:</b><br>
1274://MAC/Home/Downloads/getstarted-optiga-trust-m/xmc1400-getstarted-optiga-trust-m/Dave/Generated/I2C_MASTER/i2c_master.h ****  * Function clears a status bit in TRBSR register using the TRBSCR register. But the function does 
1275://MAC/Home/Downloads/getstarted-optiga-trust-m/xmc1400-getstarted-optiga-trust-m/Dave/Generated/I2C_MASTER/i2c_master.h ****  * value with the bit positions restricted to transmit FIFO status bits. User should ensure that th
1276://MAC/Home/Downloads/getstarted-optiga-trust-m/xmc1400-getstarted-optiga-trust-m/Dave/Generated/I2C_MASTER/i2c_master.h ****  * appropriately masked.
1277://MAC/Home/Downloads/getstarted-optiga-trust-m/xmc1400-getstarted-optiga-trust-m/Dave/Generated/I2C_MASTER/i2c_master.h ****  *
1278://MAC/Home/Downloads/getstarted-optiga-trust-m/xmc1400-getstarted-optiga-trust-m/Dave/Generated/I2C_MASTER/i2c_master.h ****  * Example Usage:
1279://MAC/Home/Downloads/getstarted-optiga-trust-m/xmc1400-getstarted-optiga-trust-m/Dave/Generated/I2C_MASTER/i2c_master.h ****  * @code
1280://MAC/Home/Downloads/getstarted-optiga-trust-m/xmc1400-getstarted-optiga-trust-m/Dave/Generated/I2C_MASTER/i2c_master.h ****  *
1281://MAC/Home/Downloads/getstarted-optiga-trust-m/xmc1400-getstarted-optiga-trust-m/Dave/Generated/I2C_MASTER/i2c_master.h ****  *  #include <DAVE.h>         //Declarations from DAVE Code Generation (includes SFR declaration)
1282://MAC/Home/Downloads/getstarted-optiga-trust-m/xmc1400-getstarted-optiga-trust-m/Dave/Generated/I2C_MASTER/i2c_master.h ****  *  #define SLAVE_ADDRESS 0xA0
1283://MAC/Home/Downloads/getstarted-optiga-trust-m/xmc1400-getstarted-optiga-trust-m/Dave/Generated/I2C_MASTER/i2c_master.h ****  *  uint8_t mem_address[2];
1284://MAC/Home/Downloads/getstarted-optiga-trust-m/xmc1400-getstarted-optiga-trust-m/Dave/Generated/I2C_MASTER/i2c_master.h ****  *  int main(void)
1285://MAC/Home/Downloads/getstarted-optiga-trust-m/xmc1400-getstarted-optiga-trust-m/Dave/Generated/I2C_MASTER/i2c_master.h ****  *  {
1286://MAC/Home/Downloads/getstarted-optiga-trust-m/xmc1400-getstarted-optiga-trust-m/Dave/Generated/I2C_MASTER/i2c_master.h ****  *    DAVE_STATUS_t init_status;
1287://MAC/Home/Downloads/getstarted-optiga-trust-m/xmc1400-getstarted-optiga-trust-m/Dave/Generated/I2C_MASTER/i2c_master.h ****  *
1288://MAC/Home/Downloads/getstarted-optiga-trust-m/xmc1400-getstarted-optiga-trust-m/Dave/Generated/I2C_MASTER/i2c_master.h ****  *    init_status = DAVE_Init();
1289://MAC/Home/Downloads/getstarted-optiga-trust-m/xmc1400-getstarted-optiga-trust-m/Dave/Generated/I2C_MASTER/i2c_master.h ****  *    if(init_status == DAVE_STATUS_SUCCESS)
1290://MAC/Home/Downloads/getstarted-optiga-trust-m/xmc1400-getstarted-optiga-trust-m/Dave/Generated/I2C_MASTER/i2c_master.h ****  *    {
1291://MAC/Home/Downloads/getstarted-optiga-trust-m/xmc1400-getstarted-optiga-trust-m/Dave/Generated/I2C_MASTER/i2c_master.h ****  *      mem_address[0] = 0x00; //memory which need to be read from slave
1292://MAC/Home/Downloads/getstarted-optiga-trust-m/xmc1400-getstarted-optiga-trust-m/Dave/Generated/I2C_MASTER/i2c_master.h ****  *      //Configure transmit fifo trigger limit as 10
1293://MAC/Home/Downloads/getstarted-optiga-trust-m/xmc1400-getstarted-optiga-trust-m/Dave/Generated/I2C_MASTER/i2c_master.h ****  *      I2C_MASTER_SetTXFIFOTriggerLimit(&I2C_MASTER_0, 16, 10);
1294://MAC/Home/Downloads/getstarted-optiga-trust-m/xmc1400-getstarted-optiga-trust-m/Dave/Generated/I2C_MASTER/i2c_master.h ****  *      I2C_MASTER_StartTransmitIRQ(&I2C_MASTER_0,true,SLAVE_ADDRESS,mem_address,1,false);
1295://MAC/Home/Downloads/getstarted-optiga-trust-m/xmc1400-getstarted-optiga-trust-m/Dave/Generated/I2C_MASTER/i2c_master.h ****  *      while(I2C_MASTER_IsTxBusy(&I2C_MASTER_0));
1296://MAC/Home/Downloads/getstarted-optiga-trust-m/xmc1400-getstarted-optiga-trust-m/Dave/Generated/I2C_MASTER/i2c_master.h ****  *      I2C_MASTER_StartTransmitIRQ(&I2C_MASTER_0,true,SLAVE_ADDRESS,mem_address,16,false);
1297://MAC/Home/Downloads/getstarted-optiga-trust-m/xmc1400-getstarted-optiga-trust-m/Dave/Generated/I2C_MASTER/i2c_master.h ****  *      //Wait for FIFO transmit standard buffer interrupt to fill it again with remaining data
1298://MAC/Home/Downloads/getstarted-optiga-trust-m/xmc1400-getstarted-optiga-trust-m/Dave/Generated/I2C_MASTER/i2c_master.h ****  *      while((I2C_MASTER_GetTXFIFOStatus(&I2C_MASTER_0) & XMC_USIC_CH_TXFIFO_EVENT_STANDARD) == 0)
1299://MAC/Home/Downloads/getstarted-optiga-trust-m/xmc1400-getstarted-optiga-trust-m/Dave/Generated/I2C_MASTER/i2c_master.h ****  *      I2C_MASTER_ClearTXFIFOStatus(&I2C_MASTER_0, XMC_USIC_CH_TXFIFO_EVENT_STANDARD);
1300://MAC/Home/Downloads/getstarted-optiga-trust-m/xmc1400-getstarted-optiga-trust-m/Dave/Generated/I2C_MASTER/i2c_master.h ****  *      I2C_MASTER_StartTransmitIRQ(&I2C_MASTER_0,true,SLAVE_ADDRESS,mem_address,6,false);
1301://MAC/Home/Downloads/getstarted-optiga-trust-m/xmc1400-getstarted-optiga-trust-m/Dave/Generated/I2C_MASTER/i2c_master.h ****  *    }
1302://MAC/Home/Downloads/getstarted-optiga-trust-m/xmc1400-getstarted-optiga-trust-m/Dave/Generated/I2C_MASTER/i2c_master.h ****  *    else
1303://MAC/Home/Downloads/getstarted-optiga-trust-m/xmc1400-getstarted-optiga-trust-m/Dave/Generated/I2C_MASTER/i2c_master.h ****  *    {
1304://MAC/Home/Downloads/getstarted-optiga-trust-m/xmc1400-getstarted-optiga-trust-m/Dave/Generated/I2C_MASTER/i2c_master.h ****  *      XMC_DEBUG("main: Application initialization failed");
1305://MAC/Home/Downloads/getstarted-optiga-trust-m/xmc1400-getstarted-optiga-trust-m/Dave/Generated/I2C_MASTER/i2c_master.h ****  *      while(1U)
1306://MAC/Home/Downloads/getstarted-optiga-trust-m/xmc1400-getstarted-optiga-trust-m/Dave/Generated/I2C_MASTER/i2c_master.h ****  *      {
1307://MAC/Home/Downloads/getstarted-optiga-trust-m/xmc1400-getstarted-optiga-trust-m/Dave/Generated/I2C_MASTER/i2c_master.h ****  *      }
1308://MAC/Home/Downloads/getstarted-optiga-trust-m/xmc1400-getstarted-optiga-trust-m/Dave/Generated/I2C_MASTER/i2c_master.h ****  *    }
1309://MAC/Home/Downloads/getstarted-optiga-trust-m/xmc1400-getstarted-optiga-trust-m/Dave/Generated/I2C_MASTER/i2c_master.h ****  *    return 1U;
1310://MAC/Home/Downloads/getstarted-optiga-trust-m/xmc1400-getstarted-optiga-trust-m/Dave/Generated/I2C_MASTER/i2c_master.h ****  *  }
1311://MAC/Home/Downloads/getstarted-optiga-trust-m/xmc1400-getstarted-optiga-trust-m/Dave/Generated/I2C_MASTER/i2c_master.h ****  * @endcode
1312://MAC/Home/Downloads/getstarted-optiga-trust-m/xmc1400-getstarted-optiga-trust-m/Dave/Generated/I2C_MASTER/i2c_master.h ****  *
1313://MAC/Home/Downloads/getstarted-optiga-trust-m/xmc1400-getstarted-optiga-trust-m/Dave/Generated/I2C_MASTER/i2c_master.h ****  */
1314://MAC/Home/Downloads/getstarted-optiga-trust-m/xmc1400-getstarted-optiga-trust-m/Dave/Generated/I2C_MASTER/i2c_master.h **** __STATIC_INLINE void I2C_MASTER_ClearTXFIFOStatus(const I2C_MASTER_t* const handle, const uint32_t 
1315://MAC/Home/Downloads/getstarted-optiga-trust-m/xmc1400-getstarted-optiga-trust-m/Dave/Generated/I2C_MASTER/i2c_master.h **** {
1316://MAC/Home/Downloads/getstarted-optiga-trust-m/xmc1400-getstarted-optiga-trust-m/Dave/Generated/I2C_MASTER/i2c_master.h ****   XMC_ASSERT("I2C_MASTER_ClearTXFIFOStatus: invalid handle", (handle != NULL))
1317://MAC/Home/Downloads/getstarted-optiga-trust-m/xmc1400-getstarted-optiga-trust-m/Dave/Generated/I2C_MASTER/i2c_master.h ****   XMC_USIC_CH_TXFIFO_ClearEvent(handle->channel, flag);
1318://MAC/Home/Downloads/getstarted-optiga-trust-m/xmc1400-getstarted-optiga-trust-m/Dave/Generated/I2C_MASTER/i2c_master.h **** }
1319://MAC/Home/Downloads/getstarted-optiga-trust-m/xmc1400-getstarted-optiga-trust-m/Dave/Generated/I2C_MASTER/i2c_master.h **** 
1320://MAC/Home/Downloads/getstarted-optiga-trust-m/xmc1400-getstarted-optiga-trust-m/Dave/Generated/I2C_MASTER/i2c_master.h **** /**
1321://MAC/Home/Downloads/getstarted-optiga-trust-m/xmc1400-getstarted-optiga-trust-m/Dave/Generated/I2C_MASTER/i2c_master.h ****  * @brief Function clears the specified FIFO event flag related to receive FIFO. It should be used 
1322://MAC/Home/Downloads/getstarted-optiga-trust-m/xmc1400-getstarted-optiga-trust-m/Dave/Generated/I2C_MASTER/i2c_master.h ****  * of standard receive buffer interrupt, alternative receive buffer interrupt and receive buffer er
1323://MAC/Home/Downloads/getstarted-optiga-trust-m/xmc1400-getstarted-optiga-trust-m/Dave/Generated/I2C_MASTER/i2c_master.h ****  *
1324://MAC/Home/Downloads/getstarted-optiga-trust-m/xmc1400-getstarted-optiga-trust-m/Dave/Generated/I2C_MASTER/i2c_master.h ****  *
1325://MAC/Home/Downloads/getstarted-optiga-trust-m/xmc1400-getstarted-optiga-trust-m/Dave/Generated/I2C_MASTER/i2c_master.h ****  * @param  handle I2C_MASTER APP handle pointer of type @ref I2C_MASTER_t
1326://MAC/Home/Downloads/getstarted-optiga-trust-m/xmc1400-getstarted-optiga-trust-m/Dave/Generated/I2C_MASTER/i2c_master.h ****  * @param  flag Value with event bits at the bit positions in TRBSR register to be cleared.\n
1327://MAC/Home/Downloads/getstarted-optiga-trust-m/xmc1400-getstarted-optiga-trust-m/Dave/Generated/I2C_MASTER/i2c_master.h ****  *             \b Range: Use type @ref XMC_USIC_CH_RXFIFO_EVENT_t for providing events.
1328://MAC/Home/Downloads/getstarted-optiga-trust-m/xmc1400-getstarted-optiga-trust-m/Dave/Generated/I2C_MASTER/i2c_master.h ****  *             Multiple events can be input by using \a OR operation.
1329://MAC/Home/Downloads/getstarted-optiga-trust-m/xmc1400-getstarted-optiga-trust-m/Dave/Generated/I2C_MASTER/i2c_master.h ****  *
1330://MAC/Home/Downloads/getstarted-optiga-trust-m/xmc1400-getstarted-optiga-trust-m/Dave/Generated/I2C_MASTER/i2c_master.h ****  * @return    None
1331://MAC/Home/Downloads/getstarted-optiga-trust-m/xmc1400-getstarted-optiga-trust-m/Dave/Generated/I2C_MASTER/i2c_master.h ****  *
1332://MAC/Home/Downloads/getstarted-optiga-trust-m/xmc1400-getstarted-optiga-trust-m/Dave/Generated/I2C_MASTER/i2c_master.h ****  * \par<b>Description:</b><br>
1333://MAC/Home/Downloads/getstarted-optiga-trust-m/xmc1400-getstarted-optiga-trust-m/Dave/Generated/I2C_MASTER/i2c_master.h ****  * Function clears a status bit in TRBSR using the TRBSCR register.
1334://MAC/Home/Downloads/getstarted-optiga-trust-m/xmc1400-getstarted-optiga-trust-m/Dave/Generated/I2C_MASTER/i2c_master.h ****  * The function does not mask the input value to clear only receive buffer
1335://MAC/Home/Downloads/getstarted-optiga-trust-m/xmc1400-getstarted-optiga-trust-m/Dave/Generated/I2C_MASTER/i2c_master.h ****  * events. So user should appropriately mask the input value before calling
1336://MAC/Home/Downloads/getstarted-optiga-trust-m/xmc1400-getstarted-optiga-trust-m/Dave/Generated/I2C_MASTER/i2c_master.h ****  * the function.
1337://MAC/Home/Downloads/getstarted-optiga-trust-m/xmc1400-getstarted-optiga-trust-m/Dave/Generated/I2C_MASTER/i2c_master.h ****  *
1338://MAC/Home/Downloads/getstarted-optiga-trust-m/xmc1400-getstarted-optiga-trust-m/Dave/Generated/I2C_MASTER/i2c_master.h ****  * Example Usage:
1339://MAC/Home/Downloads/getstarted-optiga-trust-m/xmc1400-getstarted-optiga-trust-m/Dave/Generated/I2C_MASTER/i2c_master.h ****  * @code
1340://MAC/Home/Downloads/getstarted-optiga-trust-m/xmc1400-getstarted-optiga-trust-m/Dave/Generated/I2C_MASTER/i2c_master.h ****  *
1341://MAC/Home/Downloads/getstarted-optiga-trust-m/xmc1400-getstarted-optiga-trust-m/Dave/Generated/I2C_MASTER/i2c_master.h ****  *  #include <DAVE.h>         //Declarations from DAVE Code Generation (includes SFR declaration)
1342://MAC/Home/Downloads/getstarted-optiga-trust-m/xmc1400-getstarted-optiga-trust-m/Dave/Generated/I2C_MASTER/i2c_master.h ****  *  #define SLAVE_ADDRESS 0xA0
1343://MAC/Home/Downloads/getstarted-optiga-trust-m/xmc1400-getstarted-optiga-trust-m/Dave/Generated/I2C_MASTER/i2c_master.h ****  *  uint8_t mem_address[2];
1344://MAC/Home/Downloads/getstarted-optiga-trust-m/xmc1400-getstarted-optiga-trust-m/Dave/Generated/I2C_MASTER/i2c_master.h ****  *  int main(void)
1345://MAC/Home/Downloads/getstarted-optiga-trust-m/xmc1400-getstarted-optiga-trust-m/Dave/Generated/I2C_MASTER/i2c_master.h ****  *  {
1346://MAC/Home/Downloads/getstarted-optiga-trust-m/xmc1400-getstarted-optiga-trust-m/Dave/Generated/I2C_MASTER/i2c_master.h ****  *    DAVE_STATUS_t init_status;
1347://MAC/Home/Downloads/getstarted-optiga-trust-m/xmc1400-getstarted-optiga-trust-m/Dave/Generated/I2C_MASTER/i2c_master.h ****  *
1348://MAC/Home/Downloads/getstarted-optiga-trust-m/xmc1400-getstarted-optiga-trust-m/Dave/Generated/I2C_MASTER/i2c_master.h ****  *    init_status = DAVE_Init();
1349://MAC/Home/Downloads/getstarted-optiga-trust-m/xmc1400-getstarted-optiga-trust-m/Dave/Generated/I2C_MASTER/i2c_master.h ****  *    if(init_status == DAVE_STATUS_SUCCESS)
1350://MAC/Home/Downloads/getstarted-optiga-trust-m/xmc1400-getstarted-optiga-trust-m/Dave/Generated/I2C_MASTER/i2c_master.h ****  *    {
1351://MAC/Home/Downloads/getstarted-optiga-trust-m/xmc1400-getstarted-optiga-trust-m/Dave/Generated/I2C_MASTER/i2c_master.h ****  *      mem_address[0] = 0x00;//memory which need to be read from slave
1352://MAC/Home/Downloads/getstarted-optiga-trust-m/xmc1400-getstarted-optiga-trust-m/Dave/Generated/I2C_MASTER/i2c_master.h ****  *      //Configure receive fifo trigger limit as 10
1353://MAC/Home/Downloads/getstarted-optiga-trust-m/xmc1400-getstarted-optiga-trust-m/Dave/Generated/I2C_MASTER/i2c_master.h ****  *      I2C_MASTER_SetRXFIFOTriggerLimit(&I2C_MASTER_0, 16, 10);
