   1              	 .cpu cortex-m0
   2              	 .fpu softvfp
   3              	 .eabi_attribute 20,1
   4              	 .eabi_attribute 21,1
   5              	 .eabi_attribute 23,3
   6              	 .eabi_attribute 24,1
   7              	 .eabi_attribute 25,1
   8              	 .eabi_attribute 26,1
   9              	 .eabi_attribute 30,4
  10              	 .eabi_attribute 34,0
  11              	 .eabi_attribute 18,4
  12              	 .code 16
  13              	 .file "optiga_util.c"
  14              	 .text
  15              	.Ltext0:
  16              	 .cfi_sections .debug_frame
  17              	 .section .text.optiga_util_generic_event_handler,"ax",%progbits
  18              	 .align 1
  19              	 .code 16
  20              	 .thumb_func
  22              	optiga_util_generic_event_handler:
  23              	.LFB0:
  24              	 .file 1 "C:/Workspace/DAVE-4.4.2-64Bit/optiga-trust-m/optiga/util/optiga_util.c"
   1:C:/Workspace/DAVE-4.4.2-64Bit/optiga-trust-m/optiga/util\optiga_util.c **** /**
   2:C:/Workspace/DAVE-4.4.2-64Bit/optiga-trust-m/optiga/util\optiga_util.c **** * \copyright
   3:C:/Workspace/DAVE-4.4.2-64Bit/optiga-trust-m/optiga/util\optiga_util.c **** * MIT License
   4:C:/Workspace/DAVE-4.4.2-64Bit/optiga-trust-m/optiga/util\optiga_util.c **** *
   5:C:/Workspace/DAVE-4.4.2-64Bit/optiga-trust-m/optiga/util\optiga_util.c **** * Copyright (c) 2019 Infineon Technologies AG
   6:C:/Workspace/DAVE-4.4.2-64Bit/optiga-trust-m/optiga/util\optiga_util.c **** *
   7:C:/Workspace/DAVE-4.4.2-64Bit/optiga-trust-m/optiga/util\optiga_util.c **** * Permission is hereby granted, free of charge, to any person obtaining a copy
   8:C:/Workspace/DAVE-4.4.2-64Bit/optiga-trust-m/optiga/util\optiga_util.c **** * of this software and associated documentation files (the "Software"), to deal
   9:C:/Workspace/DAVE-4.4.2-64Bit/optiga-trust-m/optiga/util\optiga_util.c **** * in the Software without restriction, including without limitation the rights
  10:C:/Workspace/DAVE-4.4.2-64Bit/optiga-trust-m/optiga/util\optiga_util.c **** * to use, copy, modify, merge, publish, distribute, sublicense, and/or sell
  11:C:/Workspace/DAVE-4.4.2-64Bit/optiga-trust-m/optiga/util\optiga_util.c **** * copies of the Software, and to permit persons to whom the Software is
  12:C:/Workspace/DAVE-4.4.2-64Bit/optiga-trust-m/optiga/util\optiga_util.c **** * furnished to do so, subject to the following conditions:
  13:C:/Workspace/DAVE-4.4.2-64Bit/optiga-trust-m/optiga/util\optiga_util.c **** *
  14:C:/Workspace/DAVE-4.4.2-64Bit/optiga-trust-m/optiga/util\optiga_util.c **** * The above copyright notice and this permission notice shall be included in all
  15:C:/Workspace/DAVE-4.4.2-64Bit/optiga-trust-m/optiga/util\optiga_util.c **** * copies or substantial portions of the Software.
  16:C:/Workspace/DAVE-4.4.2-64Bit/optiga-trust-m/optiga/util\optiga_util.c **** *
  17:C:/Workspace/DAVE-4.4.2-64Bit/optiga-trust-m/optiga/util\optiga_util.c **** * THE SOFTWARE IS PROVIDED "AS IS", WITHOUT WARRANTY OF ANY KIND, EXPRESS OR
  18:C:/Workspace/DAVE-4.4.2-64Bit/optiga-trust-m/optiga/util\optiga_util.c **** * IMPLIED, INCLUDING BUT NOT LIMITED TO THE WARRANTIES OF MERCHANTABILITY,
  19:C:/Workspace/DAVE-4.4.2-64Bit/optiga-trust-m/optiga/util\optiga_util.c **** * FITNESS FOR A PARTICULAR PURPOSE AND NONINFRINGEMENT. IN NO EVENT SHALL THE
  20:C:/Workspace/DAVE-4.4.2-64Bit/optiga-trust-m/optiga/util\optiga_util.c **** * AUTHORS OR COPYRIGHT HOLDERS BE LIABLE FOR ANY CLAIM, DAMAGES OR OTHER
  21:C:/Workspace/DAVE-4.4.2-64Bit/optiga-trust-m/optiga/util\optiga_util.c **** * LIABILITY, WHETHER IN AN ACTION OF CONTRACT, TORT OR OTHERWISE, ARISING FROM,
  22:C:/Workspace/DAVE-4.4.2-64Bit/optiga-trust-m/optiga/util\optiga_util.c **** * OUT OF OR IN CONNECTION WITH THE SOFTWARE OR THE USE OR OTHER DEALINGS IN THE
  23:C:/Workspace/DAVE-4.4.2-64Bit/optiga-trust-m/optiga/util\optiga_util.c **** * SOFTWARE
  24:C:/Workspace/DAVE-4.4.2-64Bit/optiga-trust-m/optiga/util\optiga_util.c **** *
  25:C:/Workspace/DAVE-4.4.2-64Bit/optiga-trust-m/optiga/util\optiga_util.c **** * \endcopyright
  26:C:/Workspace/DAVE-4.4.2-64Bit/optiga-trust-m/optiga/util\optiga_util.c **** *
  27:C:/Workspace/DAVE-4.4.2-64Bit/optiga-trust-m/optiga/util\optiga_util.c **** * \author Infineon Technologies AG
  28:C:/Workspace/DAVE-4.4.2-64Bit/optiga-trust-m/optiga/util\optiga_util.c **** *
  29:C:/Workspace/DAVE-4.4.2-64Bit/optiga-trust-m/optiga/util\optiga_util.c **** * \file optiga_util.c
  30:C:/Workspace/DAVE-4.4.2-64Bit/optiga-trust-m/optiga/util\optiga_util.c **** *
  31:C:/Workspace/DAVE-4.4.2-64Bit/optiga-trust-m/optiga/util\optiga_util.c **** * \brief   This file implements the OPTIGA utility module functionalities
  32:C:/Workspace/DAVE-4.4.2-64Bit/optiga-trust-m/optiga/util\optiga_util.c **** *
  33:C:/Workspace/DAVE-4.4.2-64Bit/optiga-trust-m/optiga/util\optiga_util.c **** * \ingroup  grOptigaUtil
  34:C:/Workspace/DAVE-4.4.2-64Bit/optiga-trust-m/optiga/util\optiga_util.c **** *
  35:C:/Workspace/DAVE-4.4.2-64Bit/optiga-trust-m/optiga/util\optiga_util.c **** * @{
  36:C:/Workspace/DAVE-4.4.2-64Bit/optiga-trust-m/optiga/util\optiga_util.c **** */
  37:C:/Workspace/DAVE-4.4.2-64Bit/optiga-trust-m/optiga/util\optiga_util.c **** 
  38:C:/Workspace/DAVE-4.4.2-64Bit/optiga-trust-m/optiga/util\optiga_util.c **** #include "optiga/optiga_util.h"
  39:C:/Workspace/DAVE-4.4.2-64Bit/optiga-trust-m/optiga/util\optiga_util.c **** #include "optiga/common/optiga_lib_logger.h"
  40:C:/Workspace/DAVE-4.4.2-64Bit/optiga-trust-m/optiga/util\optiga_util.c **** #include "optiga/common/optiga_lib_common_internal.h"
  41:C:/Workspace/DAVE-4.4.2-64Bit/optiga-trust-m/optiga/util\optiga_util.c **** #include "optiga/pal/pal_os_memory.h"
  42:C:/Workspace/DAVE-4.4.2-64Bit/optiga-trust-m/optiga/util\optiga_util.c **** 
  43:C:/Workspace/DAVE-4.4.2-64Bit/optiga-trust-m/optiga/util\optiga_util.c **** extern void optiga_cmd_set_shielded_connection_option(optiga_cmd_t * me, uint8_t value,
  44:C:/Workspace/DAVE-4.4.2-64Bit/optiga-trust-m/optiga/util\optiga_util.c ****                                                       uint8_t shielded_connection_option);
  45:C:/Workspace/DAVE-4.4.2-64Bit/optiga-trust-m/optiga/util\optiga_util.c **** 
  46:C:/Workspace/DAVE-4.4.2-64Bit/optiga-trust-m/optiga/util\optiga_util.c **** 
  47:C:/Workspace/DAVE-4.4.2-64Bit/optiga-trust-m/optiga/util\optiga_util.c **** 
  48:C:/Workspace/DAVE-4.4.2-64Bit/optiga-trust-m/optiga/util\optiga_util.c **** _STATIC_H void optiga_util_generic_event_handler(void * me,
  49:C:/Workspace/DAVE-4.4.2-64Bit/optiga-trust-m/optiga/util\optiga_util.c ****                                                  optiga_lib_status_t event)
  50:C:/Workspace/DAVE-4.4.2-64Bit/optiga-trust-m/optiga/util\optiga_util.c **** {
  25              	 .loc 1 50 0
  26              	 .cfi_startproc
  27              	.LVL0:
  28 0000 10B5     	 push {r4,lr}
  29              	.LCFI0:
  30              	 .cfi_def_cfa_offset 8
  31              	 .cfi_offset 4,-8
  32              	 .cfi_offset 14,-4
  33              	 .loc 1 50 0
  34 0002 041C     	 mov r4,r0
  51:C:/Workspace/DAVE-4.4.2-64Bit/optiga-trust-m/optiga/util\optiga_util.c ****     optiga_util_t * p_optiga_util = (optiga_util_t *)me;
  52:C:/Workspace/DAVE-4.4.2-64Bit/optiga-trust-m/optiga/util\optiga_util.c **** 
  53:C:/Workspace/DAVE-4.4.2-64Bit/optiga-trust-m/optiga/util\optiga_util.c ****     p_optiga_util->handler(p_optiga_util->caller_context, event);
  35              	 .loc 1 53 0
  36 0004 8069     	 ldr r0,[r0,#24]
  37              	.LVL1:
  38 0006 E369     	 ldr r3,[r4,#28]
  39 0008 9847     	 blx r3
  40              	.LVL2:
  54:C:/Workspace/DAVE-4.4.2-64Bit/optiga-trust-m/optiga/util\optiga_util.c ****     p_optiga_util->instance_state = OPTIGA_LIB_INSTANCE_FREE;
  41              	 .loc 1 54 0
  42 000a 0023     	 mov r3,#0
  55:C:/Workspace/DAVE-4.4.2-64Bit/optiga-trust-m/optiga/util\optiga_util.c **** }
  43              	 .loc 1 55 0
  44              	 
  54:C:/Workspace/DAVE-4.4.2-64Bit/optiga-trust-m/optiga/util\optiga_util.c ****     p_optiga_util->instance_state = OPTIGA_LIB_INSTANCE_FREE;
  45              	 .loc 1 54 0
  46 000c 2384     	 strh r3,[r4,#32]
  47              	.LVL3:
  48              	 .loc 1 55 0
  49 000e 10BD     	 pop {r4,pc}
  50              	 .cfi_endproc
  51              	.LFE0:
  53              	 .section .text.optiga_util_reset_protection_level,"ax",%progbits
  54              	 .align 1
  55              	 .code 16
  56              	 .thumb_func
  58              	optiga_util_reset_protection_level:
  59              	.LFB1:
  56:C:/Workspace/DAVE-4.4.2-64Bit/optiga-trust-m/optiga/util\optiga_util.c **** 
  57:C:/Workspace/DAVE-4.4.2-64Bit/optiga-trust-m/optiga/util\optiga_util.c **** _STATIC_H void optiga_util_reset_protection_level(optiga_util_t * me)
  58:C:/Workspace/DAVE-4.4.2-64Bit/optiga-trust-m/optiga/util\optiga_util.c **** {
  60              	 .loc 1 58 0
  61              	 .cfi_startproc
  62              	.LVL4:
  59:C:/Workspace/DAVE-4.4.2-64Bit/optiga-trust-m/optiga/util\optiga_util.c **** #ifdef OPTIGA_LIB_DEBUG_NULL_CHECK
  60:C:/Workspace/DAVE-4.4.2-64Bit/optiga-trust-m/optiga/util\optiga_util.c ****     if (NULL != me)
  63              	 .loc 1 60 0
  64 0000 0028     	 cmp r0,#0
  65 0002 02D0     	 beq .L2
  66              	.LVL5:
  67              	.LBB4:
  68              	.LBB5:
  61:C:/Workspace/DAVE-4.4.2-64Bit/optiga-trust-m/optiga/util\optiga_util.c **** #endif
  62:C:/Workspace/DAVE-4.4.2-64Bit/optiga-trust-m/optiga/util\optiga_util.c ****     {
  63:C:/Workspace/DAVE-4.4.2-64Bit/optiga-trust-m/optiga/util\optiga_util.c ****         OPTIGA_UTIL_SET_COMMS_PROTECTION_LEVEL(me, OPTIGA_COMMS_DEFAULT_PROTECTION_LEVEL);
  64:C:/Workspace/DAVE-4.4.2-64Bit/optiga-trust-m/optiga/util\optiga_util.c ****     }
  65:C:/Workspace/DAVE-4.4.2-64Bit/optiga-trust-m/optiga/util\optiga_util.c **** }
  66:C:/Workspace/DAVE-4.4.2-64Bit/optiga-trust-m/optiga/util\optiga_util.c **** 
  67:C:/Workspace/DAVE-4.4.2-64Bit/optiga-trust-m/optiga/util\optiga_util.c **** _STATIC_H optiga_lib_status_t optiga_util_write_data_wrapper(optiga_util_t * me,
  68:C:/Workspace/DAVE-4.4.2-64Bit/optiga-trust-m/optiga/util\optiga_util.c ****                                                              uint16_t optiga_oid,
  69:C:/Workspace/DAVE-4.4.2-64Bit/optiga-trust-m/optiga/util\optiga_util.c ****                                                              uint8_t write_type,
  70:C:/Workspace/DAVE-4.4.2-64Bit/optiga-trust-m/optiga/util\optiga_util.c ****                                                              uint16_t offset,
  71:C:/Workspace/DAVE-4.4.2-64Bit/optiga-trust-m/optiga/util\optiga_util.c ****                                                              const uint8_t * p_buffer,
  72:C:/Workspace/DAVE-4.4.2-64Bit/optiga-trust-m/optiga/util\optiga_util.c ****                                                              uint16_t length)
  73:C:/Workspace/DAVE-4.4.2-64Bit/optiga-trust-m/optiga/util\optiga_util.c **** {
  74:C:/Workspace/DAVE-4.4.2-64Bit/optiga-trust-m/optiga/util\optiga_util.c ****     optiga_lib_status_t return_value = OPTIGA_UTIL_ERROR;
  75:C:/Workspace/DAVE-4.4.2-64Bit/optiga-trust-m/optiga/util\optiga_util.c ****     optiga_set_data_object_params_t * p_params;
  76:C:/Workspace/DAVE-4.4.2-64Bit/optiga-trust-m/optiga/util\optiga_util.c **** 
  77:C:/Workspace/DAVE-4.4.2-64Bit/optiga-trust-m/optiga/util\optiga_util.c ****     do
  78:C:/Workspace/DAVE-4.4.2-64Bit/optiga-trust-m/optiga/util\optiga_util.c ****     {
  79:C:/Workspace/DAVE-4.4.2-64Bit/optiga-trust-m/optiga/util\optiga_util.c **** #ifdef OPTIGA_LIB_DEBUG_NULL_CHECK
  80:C:/Workspace/DAVE-4.4.2-64Bit/optiga-trust-m/optiga/util\optiga_util.c ****         if ((NULL == me) || (NULL == me->my_cmd) || (NULL == p_buffer))
  81:C:/Workspace/DAVE-4.4.2-64Bit/optiga-trust-m/optiga/util\optiga_util.c ****         {
  82:C:/Workspace/DAVE-4.4.2-64Bit/optiga-trust-m/optiga/util\optiga_util.c ****             return_value = OPTIGA_UTIL_ERROR_INVALID_INPUT;
  83:C:/Workspace/DAVE-4.4.2-64Bit/optiga-trust-m/optiga/util\optiga_util.c ****             break;
  84:C:/Workspace/DAVE-4.4.2-64Bit/optiga-trust-m/optiga/util\optiga_util.c ****         }
  85:C:/Workspace/DAVE-4.4.2-64Bit/optiga-trust-m/optiga/util\optiga_util.c **** #endif
  86:C:/Workspace/DAVE-4.4.2-64Bit/optiga-trust-m/optiga/util\optiga_util.c **** 
  87:C:/Workspace/DAVE-4.4.2-64Bit/optiga-trust-m/optiga/util\optiga_util.c ****         if (OPTIGA_LIB_INSTANCE_BUSY == me->instance_state)
  88:C:/Workspace/DAVE-4.4.2-64Bit/optiga-trust-m/optiga/util\optiga_util.c ****         {
  89:C:/Workspace/DAVE-4.4.2-64Bit/optiga-trust-m/optiga/util\optiga_util.c ****             return_value = OPTIGA_UTIL_ERROR_INSTANCE_IN_USE;
  90:C:/Workspace/DAVE-4.4.2-64Bit/optiga-trust-m/optiga/util\optiga_util.c ****             break;
  91:C:/Workspace/DAVE-4.4.2-64Bit/optiga-trust-m/optiga/util\optiga_util.c ****         }
  92:C:/Workspace/DAVE-4.4.2-64Bit/optiga-trust-m/optiga/util\optiga_util.c **** 
  93:C:/Workspace/DAVE-4.4.2-64Bit/optiga-trust-m/optiga/util\optiga_util.c ****         me->instance_state = OPTIGA_LIB_INSTANCE_BUSY;
  94:C:/Workspace/DAVE-4.4.2-64Bit/optiga-trust-m/optiga/util\optiga_util.c ****         p_params = (optiga_set_data_object_params_t *)&(me->params.optiga_set_data_object_params);
  95:C:/Workspace/DAVE-4.4.2-64Bit/optiga-trust-m/optiga/util\optiga_util.c ****         pal_os_memset(&me->params,0x00,sizeof(optiga_util_params_t));
  96:C:/Workspace/DAVE-4.4.2-64Bit/optiga-trust-m/optiga/util\optiga_util.c **** 
  97:C:/Workspace/DAVE-4.4.2-64Bit/optiga-trust-m/optiga/util\optiga_util.c ****         if (OPTIGA_UTIL_COUNT_DATA_OBJECT == write_type)
  98:C:/Workspace/DAVE-4.4.2-64Bit/optiga-trust-m/optiga/util\optiga_util.c ****         {
  99:C:/Workspace/DAVE-4.4.2-64Bit/optiga-trust-m/optiga/util\optiga_util.c ****             p_params->count = p_buffer[0];
 100:C:/Workspace/DAVE-4.4.2-64Bit/optiga-trust-m/optiga/util\optiga_util.c ****             p_params->buffer = NULL;
 101:C:/Workspace/DAVE-4.4.2-64Bit/optiga-trust-m/optiga/util\optiga_util.c ****         }
 102:C:/Workspace/DAVE-4.4.2-64Bit/optiga-trust-m/optiga/util\optiga_util.c ****         else
 103:C:/Workspace/DAVE-4.4.2-64Bit/optiga-trust-m/optiga/util\optiga_util.c ****         {
 104:C:/Workspace/DAVE-4.4.2-64Bit/optiga-trust-m/optiga/util\optiga_util.c ****             p_params->count = 0;
 105:C:/Workspace/DAVE-4.4.2-64Bit/optiga-trust-m/optiga/util\optiga_util.c ****             p_params->buffer = p_buffer;
 106:C:/Workspace/DAVE-4.4.2-64Bit/optiga-trust-m/optiga/util\optiga_util.c ****         }
 107:C:/Workspace/DAVE-4.4.2-64Bit/optiga-trust-m/optiga/util\optiga_util.c ****         p_params->oid = optiga_oid;
 108:C:/Workspace/DAVE-4.4.2-64Bit/optiga-trust-m/optiga/util\optiga_util.c ****         p_params->offset = offset;
 109:C:/Workspace/DAVE-4.4.2-64Bit/optiga-trust-m/optiga/util\optiga_util.c ****         p_params->data_or_metadata = 0;//for Data
 110:C:/Workspace/DAVE-4.4.2-64Bit/optiga-trust-m/optiga/util\optiga_util.c ****         p_params->size = length;
 111:C:/Workspace/DAVE-4.4.2-64Bit/optiga-trust-m/optiga/util\optiga_util.c ****         p_params->written_size = 0;
 112:C:/Workspace/DAVE-4.4.2-64Bit/optiga-trust-m/optiga/util\optiga_util.c ****         p_params->write_type = write_type;
 113:C:/Workspace/DAVE-4.4.2-64Bit/optiga-trust-m/optiga/util\optiga_util.c **** 
 114:C:/Workspace/DAVE-4.4.2-64Bit/optiga-trust-m/optiga/util\optiga_util.c ****         OPTIGA_PROTECTION_ENABLE(me->my_cmd, me);
 115:C:/Workspace/DAVE-4.4.2-64Bit/optiga-trust-m/optiga/util\optiga_util.c ****         OPTIGA_PROTECTION_SET_VERSION(me->my_cmd, me);
 116:C:/Workspace/DAVE-4.4.2-64Bit/optiga-trust-m/optiga/util\optiga_util.c **** 
 117:C:/Workspace/DAVE-4.4.2-64Bit/optiga-trust-m/optiga/util\optiga_util.c ****         return_value = optiga_cmd_set_data_object(me->my_cmd, write_type, (optiga_set_data_object_p
 118:C:/Workspace/DAVE-4.4.2-64Bit/optiga-trust-m/optiga/util\optiga_util.c ****         if (OPTIGA_LIB_SUCCESS != return_value)
 119:C:/Workspace/DAVE-4.4.2-64Bit/optiga-trust-m/optiga/util\optiga_util.c ****         {
 120:C:/Workspace/DAVE-4.4.2-64Bit/optiga-trust-m/optiga/util\optiga_util.c ****             me->instance_state = OPTIGA_LIB_INSTANCE_FREE;
 121:C:/Workspace/DAVE-4.4.2-64Bit/optiga-trust-m/optiga/util\optiga_util.c ****         }
 122:C:/Workspace/DAVE-4.4.2-64Bit/optiga-trust-m/optiga/util\optiga_util.c ****     } while (FALSE);
 123:C:/Workspace/DAVE-4.4.2-64Bit/optiga-trust-m/optiga/util\optiga_util.c ****     optiga_util_reset_protection_level(me);
 124:C:/Workspace/DAVE-4.4.2-64Bit/optiga-trust-m/optiga/util\optiga_util.c **** 
 125:C:/Workspace/DAVE-4.4.2-64Bit/optiga-trust-m/optiga/util\optiga_util.c ****     return (return_value);
 126:C:/Workspace/DAVE-4.4.2-64Bit/optiga-trust-m/optiga/util\optiga_util.c **** }
 127:C:/Workspace/DAVE-4.4.2-64Bit/optiga-trust-m/optiga/util\optiga_util.c **** 
 128:C:/Workspace/DAVE-4.4.2-64Bit/optiga-trust-m/optiga/util\optiga_util.c **** #ifdef OPTIGA_COMMS_SHIELDED_CONNECTION
 129:C:/Workspace/DAVE-4.4.2-64Bit/optiga-trust-m/optiga/util\optiga_util.c **** void optiga_util_set_comms_params(optiga_util_t * me,
 130:C:/Workspace/DAVE-4.4.2-64Bit/optiga-trust-m/optiga/util\optiga_util.c ****                                   uint8_t parameter_type,
 131:C:/Workspace/DAVE-4.4.2-64Bit/optiga-trust-m/optiga/util\optiga_util.c ****                                   uint8_t value)
 132:C:/Workspace/DAVE-4.4.2-64Bit/optiga-trust-m/optiga/util\optiga_util.c **** {
 133:C:/Workspace/DAVE-4.4.2-64Bit/optiga-trust-m/optiga/util\optiga_util.c ****     switch (parameter_type)
 134:C:/Workspace/DAVE-4.4.2-64Bit/optiga-trust-m/optiga/util\optiga_util.c ****     {
 135:C:/Workspace/DAVE-4.4.2-64Bit/optiga-trust-m/optiga/util\optiga_util.c ****         case OPTIGA_COMMS_PROTECTION_LEVEL:
 136:C:/Workspace/DAVE-4.4.2-64Bit/optiga-trust-m/optiga/util\optiga_util.c ****         {
 137:C:/Workspace/DAVE-4.4.2-64Bit/optiga-trust-m/optiga/util\optiga_util.c ****             me->protection_level = value;
  69              	 .loc 1 137 0
  70 0004 0023     	 mov r3,#0
  71 0006 0330     	 add r0,r0,#3
  72              	.LVL6:
  73 0008 C377     	 strb r3,[r0,#31]
  74              	.LVL7:
  75              	.L2:
  76              	.LBE5:
  77              	.LBE4:
  65:C:/Workspace/DAVE-4.4.2-64Bit/optiga-trust-m/optiga/util\optiga_util.c **** 
  78              	 .loc 1 65 0
  79              	 
  80 000a 7047     	 bx lr
  81              	 .cfi_endproc
  82              	.LFE1:
  84              	 .section .text.optiga_util_write_data_wrapper,"ax",%progbits
  85              	 .align 1
  86              	 .code 16
  87              	 .thumb_func
  89              	optiga_util_write_data_wrapper:
  90              	.LFB2:
  73:C:/Workspace/DAVE-4.4.2-64Bit/optiga-trust-m/optiga/util\optiga_util.c ****     optiga_lib_status_t return_value = OPTIGA_UTIL_ERROR;
  91              	 .loc 1 73 0
  92              	 .cfi_startproc
  93              	.LVL8:
  94 0000 F0B5     	 push {r4,r5,r6,r7,lr}
  95              	.LCFI1:
  96              	 .cfi_def_cfa_offset 20
  97              	 .cfi_offset 4,-20
  98              	 .cfi_offset 5,-16
  99              	 .cfi_offset 6,-12
 100              	 .cfi_offset 7,-8
 101              	 .cfi_offset 14,-4
 102 0002 85B0     	 sub sp,sp,#20
 103              	.LCFI2:
 104              	 .cfi_def_cfa_offset 40
  73:C:/Workspace/DAVE-4.4.2-64Bit/optiga-trust-m/optiga/util\optiga_util.c ****     optiga_lib_status_t return_value = OPTIGA_UTIL_ERROR;
 105              	 .loc 1 73 0
 106 0004 0293     	 str r3,[sp,#8]
 107 0006 0AAB     	 add r3,sp,#40
 108              	.LVL9:
 109 0008 40CB     	 ldmia r3!,{r6}
 110              	.LVL10:
 111 000a 041C     	 mov r4,r0
 112 000c 1B88     	 ldrh r3,[r3]
 113              	.LVL11:
 114 000e 0191     	 str r1,[sp,#4]
 115 0010 151C     	 mov r5,r2
 116 0012 0393     	 str r3,[sp,#12]
  80:C:/Workspace/DAVE-4.4.2-64Bit/optiga-trust-m/optiga/util\optiga_util.c ****         {
 117              	 .loc 1 80 0
 118 0014 0028     	 cmp r0,#0
 119 0016 39D0     	 beq .L14
  80:C:/Workspace/DAVE-4.4.2-64Bit/optiga-trust-m/optiga/util\optiga_util.c ****         {
 120              	 .loc 1 80 0 is_stmt 0 discriminator 1
 121 0018 4769     	 ldr r7,[r0,#20]
 122 001a 002F     	 cmp r7,#0
 123 001c 36D0     	 beq .L14
  80:C:/Workspace/DAVE-4.4.2-64Bit/optiga-trust-m/optiga/util\optiga_util.c ****         {
 124              	 .loc 1 80 0 discriminator 2
 125 001e 002E     	 cmp r6,#0
 126 0020 34D0     	 beq .L14
  87:C:/Workspace/DAVE-4.4.2-64Bit/optiga-trust-m/optiga/util\optiga_util.c ****         {
 127              	 .loc 1 87 0 is_stmt 1
 128 0022 038C     	 ldrh r3,[r0,#32]
 129 0024 012B     	 cmp r3,#1
 130 0026 33D0     	 beq .L15
  93:C:/Workspace/DAVE-4.4.2-64Bit/optiga-trust-m/optiga/util\optiga_util.c ****         p_params = (optiga_set_data_object_params_t *)&(me->params.optiga_set_data_object_params);
 131              	 .loc 1 93 0
 132 0028 0123     	 mov r3,#1
  95:C:/Workspace/DAVE-4.4.2-64Bit/optiga-trust-m/optiga/util\optiga_util.c **** 
 133              	 .loc 1 95 0
 134 002a 0021     	 mov r1,#0
 135              	.LVL12:
  93:C:/Workspace/DAVE-4.4.2-64Bit/optiga-trust-m/optiga/util\optiga_util.c ****         p_params = (optiga_set_data_object_params_t *)&(me->params.optiga_set_data_object_params);
 136              	 .loc 1 93 0
 137 002c 0384     	 strh r3,[r0,#32]
 138              	.LVL13:
  95:C:/Workspace/DAVE-4.4.2-64Bit/optiga-trust-m/optiga/util\optiga_util.c **** 
 139              	 .loc 1 95 0
 140 002e 1422     	 mov r2,#20
 141              	.LVL14:
 142 0030 FFF7FEFF 	 bl memset
 143              	.LVL15:
 144 0034 0023     	 mov r3,#0
  97:C:/Workspace/DAVE-4.4.2-64Bit/optiga-trust-m/optiga/util\optiga_util.c ****         {
 145              	 .loc 1 97 0
 146 0036 022D     	 cmp r5,#2
 147 0038 03D1     	 bne .L10
  99:C:/Workspace/DAVE-4.4.2-64Bit/optiga-trust-m/optiga/util\optiga_util.c ****             p_params->buffer = NULL;
 148              	 .loc 1 99 0
 149 003a 3278     	 ldrb r2,[r6]
 100:C:/Workspace/DAVE-4.4.2-64Bit/optiga-trust-m/optiga/util\optiga_util.c ****         }
 150              	 .loc 1 100 0
 151 003c A360     	 str r3,[r4,#8]
  99:C:/Workspace/DAVE-4.4.2-64Bit/optiga-trust-m/optiga/util\optiga_util.c ****             p_params->buffer = NULL;
 152              	 .loc 1 99 0
 153 003e A273     	 strb r2,[r4,#14]
 154 0040 01E0     	 b .L11
 155              	.L10:
 104:C:/Workspace/DAVE-4.4.2-64Bit/optiga-trust-m/optiga/util\optiga_util.c ****             p_params->buffer = p_buffer;
 156              	 .loc 1 104 0
 157 0042 A373     	 strb r3,[r4,#14]
 105:C:/Workspace/DAVE-4.4.2-64Bit/optiga-trust-m/optiga/util\optiga_util.c ****         }
 158              	 .loc 1 105 0
 159 0044 A660     	 str r6,[r4,#8]
 160              	.L11:
 107:C:/Workspace/DAVE-4.4.2-64Bit/optiga-trust-m/optiga/util\optiga_util.c ****         p_params->offset = offset;
 161              	 .loc 1 107 0
 162 0046 6B46     	 mov r3,sp
 163 0048 9B88     	 ldrh r3,[r3,#4]
 109:C:/Workspace/DAVE-4.4.2-64Bit/optiga-trust-m/optiga/util\optiga_util.c ****         p_params->size = length;
 164              	 .loc 1 109 0
 165 004a 0026     	 mov r6,#0
 107:C:/Workspace/DAVE-4.4.2-64Bit/optiga-trust-m/optiga/util\optiga_util.c ****         p_params->offset = offset;
 166              	 .loc 1 107 0
 167 004c 2380     	 strh r3,[r4]
 108:C:/Workspace/DAVE-4.4.2-64Bit/optiga-trust-m/optiga/util\optiga_util.c ****         p_params->data_or_metadata = 0;//for Data
 168              	 .loc 1 108 0
 169 004e 6B46     	 mov r3,sp
 170 0050 1B89     	 ldrh r3,[r3,#8]
 112:C:/Workspace/DAVE-4.4.2-64Bit/optiga-trust-m/optiga/util\optiga_util.c **** 
 171              	 .loc 1 112 0
 172 0052 6573     	 strb r5,[r4,#13]
 108:C:/Workspace/DAVE-4.4.2-64Bit/optiga-trust-m/optiga/util\optiga_util.c ****         p_params->data_or_metadata = 0;//for Data
 173              	 .loc 1 108 0
 174 0054 6380     	 strh r3,[r4,#2]
 110:C:/Workspace/DAVE-4.4.2-64Bit/optiga-trust-m/optiga/util\optiga_util.c ****         p_params->written_size = 0;
 175              	 .loc 1 110 0
 176 0056 6B46     	 mov r3,sp
 177 0058 9B89     	 ldrh r3,[r3,#12]
 109:C:/Workspace/DAVE-4.4.2-64Bit/optiga-trust-m/optiga/util\optiga_util.c ****         p_params->size = length;
 178              	 .loc 1 109 0
 179 005a 2673     	 strb r6,[r4,#12]
 110:C:/Workspace/DAVE-4.4.2-64Bit/optiga-trust-m/optiga/util\optiga_util.c ****         p_params->written_size = 0;
 180              	 .loc 1 110 0
 181 005c A380     	 strh r3,[r4,#4]
 111:C:/Workspace/DAVE-4.4.2-64Bit/optiga-trust-m/optiga/util\optiga_util.c ****         p_params->write_type = write_type;
 182              	 .loc 1 111 0
 183 005e E680     	 strh r6,[r4,#6]
 114:C:/Workspace/DAVE-4.4.2-64Bit/optiga-trust-m/optiga/util\optiga_util.c ****         OPTIGA_PROTECTION_SET_VERSION(me->my_cmd, me);
 184              	 .loc 1 114 0
 185 0060 E31C     	 add r3,r4,#3
 186 0062 D97F     	 ldrb r1,[r3,#31]
 187 0064 381C     	 mov r0,r7
 188 0066 321C     	 mov r2,r6
 189 0068 FFF7FEFF 	 bl optiga_cmd_set_shielded_connection_option
 190              	.LVL16:
 115:C:/Workspace/DAVE-4.4.2-64Bit/optiga-trust-m/optiga/util\optiga_util.c **** 
 191              	 .loc 1 115 0
 192 006c 231D     	 add r3,r4,#4
 193 006e D97F     	 ldrb r1,[r3,#31]
 194 0070 6069     	 ldr r0,[r4,#20]
 195 0072 0122     	 mov r2,#1
 196 0074 FFF7FEFF 	 bl optiga_cmd_set_shielded_connection_option
 197              	.LVL17:
 117:C:/Workspace/DAVE-4.4.2-64Bit/optiga-trust-m/optiga/util\optiga_util.c ****         if (OPTIGA_LIB_SUCCESS != return_value)
 198              	 .loc 1 117 0
 199 0078 291C     	 mov r1,r5
 200 007a 6069     	 ldr r0,[r4,#20]
 201 007c 221C     	 mov r2,r4
 202 007e FFF7FEFF 	 bl optiga_cmd_set_data_object
 203              	.LVL18:
 204 0082 051E     	 sub r5,r0,#0
 205              	.LVL19:
 118:C:/Workspace/DAVE-4.4.2-64Bit/optiga-trust-m/optiga/util\optiga_util.c ****         {
 206              	 .loc 1 118 0
 207 0084 B542     	 cmp r5,r6
 208 0086 04D0     	 beq .L9
 120:C:/Workspace/DAVE-4.4.2-64Bit/optiga-trust-m/optiga/util\optiga_util.c ****         }
 209              	 .loc 1 120 0
 210 0088 2684     	 strh r6,[r4,#32]
 211 008a 02E0     	 b .L9
 212              	.LVL20:
 213              	.L14:
  82:C:/Workspace/DAVE-4.4.2-64Bit/optiga-trust-m/optiga/util\optiga_util.c ****             break;
 214              	 .loc 1 82 0
 215 008c 044D     	 ldr r5,.L19
 216 008e 00E0     	 b .L9
 217              	.L15:
  89:C:/Workspace/DAVE-4.4.2-64Bit/optiga-trust-m/optiga/util\optiga_util.c ****             break;
 218              	 .loc 1 89 0
 219 0090 044D     	 ldr r5,.L19+4
 220              	.LVL21:
 221              	.L9:
 123:C:/Workspace/DAVE-4.4.2-64Bit/optiga-trust-m/optiga/util\optiga_util.c **** 
 222              	 .loc 1 123 0
 223 0092 201C     	 mov r0,r4
 224 0094 FFF7FEFF 	 bl optiga_util_reset_protection_level
 225              	.LVL22:
 126:C:/Workspace/DAVE-4.4.2-64Bit/optiga-trust-m/optiga/util\optiga_util.c **** 
 226              	 .loc 1 126 0
 227 0098 281C     	 mov r0,r5
 228 009a 05B0     	 add sp,sp,#20
 229              	 
 230              	.LVL23:
 231              	.LVL24:
 232 009c F0BD     	 pop {r4,r5,r6,r7,pc}
 233              	.L20:
 234 009e C046     	 .align 2
 235              	.L19:
 236 00a0 03030000 	 .word 771
 237 00a4 05030000 	 .word 773
 238              	 .cfi_endproc
 239              	.LFE2:
 241              	 .section .text.optiga_util_set_comms_params,"ax",%progbits
 242              	 .align 1
 243              	 .global optiga_util_set_comms_params
 244              	 .code 16
 245              	 .thumb_func
 247              	optiga_util_set_comms_params:
 248              	.LFB3:
 132:C:/Workspace/DAVE-4.4.2-64Bit/optiga-trust-m/optiga/util\optiga_util.c ****     switch (parameter_type)
 249              	 .loc 1 132 0
 250              	 .cfi_startproc
 251              	.LVL25:
 133:C:/Workspace/DAVE-4.4.2-64Bit/optiga-trust-m/optiga/util\optiga_util.c ****     {
 252              	 .loc 1 133 0
 253 0000 0129     	 cmp r1,#1
 254 0002 03D0     	 beq .L23
 255 0004 0229     	 cmp r1,#2
 256 0006 03D1     	 bne .L21
 138:C:/Workspace/DAVE-4.4.2-64Bit/optiga-trust-m/optiga/util\optiga_util.c ****             break;
 139:C:/Workspace/DAVE-4.4.2-64Bit/optiga-trust-m/optiga/util\optiga_util.c ****         }
 140:C:/Workspace/DAVE-4.4.2-64Bit/optiga-trust-m/optiga/util\optiga_util.c ****         case OPTIGA_COMMS_PROTOCOL_VERSION:
 141:C:/Workspace/DAVE-4.4.2-64Bit/optiga-trust-m/optiga/util\optiga_util.c ****         {
 142:C:/Workspace/DAVE-4.4.2-64Bit/optiga-trust-m/optiga/util\optiga_util.c ****             me->protocol_version = value;
 257              	 .loc 1 142 0
 258 0008 0430     	 add r0,r0,#4
 259              	.LVL26:
 260 000a 00E0     	 b .L25
 261              	.LVL27:
 262              	.L23:
 137:C:/Workspace/DAVE-4.4.2-64Bit/optiga-trust-m/optiga/util\optiga_util.c ****             break;
 263              	 .loc 1 137 0
 264 000c 0330     	 add r0,r0,#3
 265              	.LVL28:
 266              	.L25:
 267              	 .loc 1 142 0
 268 000e C277     	 strb r2,[r0,#31]
 269              	.L21:
 143:C:/Workspace/DAVE-4.4.2-64Bit/optiga-trust-m/optiga/util\optiga_util.c ****             break;
 144:C:/Workspace/DAVE-4.4.2-64Bit/optiga-trust-m/optiga/util\optiga_util.c ****         }
 145:C:/Workspace/DAVE-4.4.2-64Bit/optiga-trust-m/optiga/util\optiga_util.c ****         default:
 146:C:/Workspace/DAVE-4.4.2-64Bit/optiga-trust-m/optiga/util\optiga_util.c ****         {
 147:C:/Workspace/DAVE-4.4.2-64Bit/optiga-trust-m/optiga/util\optiga_util.c ****             break;
 148:C:/Workspace/DAVE-4.4.2-64Bit/optiga-trust-m/optiga/util\optiga_util.c ****         }
 149:C:/Workspace/DAVE-4.4.2-64Bit/optiga-trust-m/optiga/util\optiga_util.c ****     }
 150:C:/Workspace/DAVE-4.4.2-64Bit/optiga-trust-m/optiga/util\optiga_util.c **** }
 270              	 .loc 1 150 0
 271              	 
 272 0010 7047     	 bx lr
 273              	 .cfi_endproc
 274              	.LFE3:
 276              	 .section .text.optiga_util_create,"ax",%progbits
 277              	 .align 1
 278              	 .global optiga_util_create
 279              	 .code 16
 280              	 .thumb_func
 282              	optiga_util_create:
 283              	.LFB4:
 151:C:/Workspace/DAVE-4.4.2-64Bit/optiga-trust-m/optiga/util\optiga_util.c **** #endif
 152:C:/Workspace/DAVE-4.4.2-64Bit/optiga-trust-m/optiga/util\optiga_util.c **** 
 153:C:/Workspace/DAVE-4.4.2-64Bit/optiga-trust-m/optiga/util\optiga_util.c **** optiga_util_t * optiga_util_create(uint8_t optiga_instance_id,
 154:C:/Workspace/DAVE-4.4.2-64Bit/optiga-trust-m/optiga/util\optiga_util.c ****                                    callback_handler_t handler,
 155:C:/Workspace/DAVE-4.4.2-64Bit/optiga-trust-m/optiga/util\optiga_util.c ****                                    void * caller_context)
 156:C:/Workspace/DAVE-4.4.2-64Bit/optiga-trust-m/optiga/util\optiga_util.c **** {
 284              	 .loc 1 156 0
 285              	 .cfi_startproc
 286              	.LVL29:
 287 0000 F8B5     	 push {r3,r4,r5,r6,r7,lr}
 288              	.LCFI3:
 289              	 .cfi_def_cfa_offset 24
 290              	 .cfi_offset 3,-24
 291              	 .cfi_offset 4,-20
 292              	 .cfi_offset 5,-16
 293              	 .cfi_offset 6,-12
 294              	 .cfi_offset 7,-8
 295              	 .cfi_offset 14,-4
 157:C:/Workspace/DAVE-4.4.2-64Bit/optiga-trust-m/optiga/util\optiga_util.c ****     optiga_util_t * me = NULL;
 158:C:/Workspace/DAVE-4.4.2-64Bit/optiga-trust-m/optiga/util\optiga_util.c **** 
 159:C:/Workspace/DAVE-4.4.2-64Bit/optiga-trust-m/optiga/util\optiga_util.c ****     do
 160:C:/Workspace/DAVE-4.4.2-64Bit/optiga-trust-m/optiga/util\optiga_util.c ****     {
 161:C:/Workspace/DAVE-4.4.2-64Bit/optiga-trust-m/optiga/util\optiga_util.c **** #ifdef OPTIGA_LIB_DEBUG_NULL_CHECK
 162:C:/Workspace/DAVE-4.4.2-64Bit/optiga-trust-m/optiga/util\optiga_util.c ****         if (NULL == handler)
 296              	 .loc 1 162 0
 297 0002 0029     	 cmp r1,#0
 298 0004 01D1     	 bne .L27
 299              	.LVL30:
 300              	.L29:
 157:C:/Workspace/DAVE-4.4.2-64Bit/optiga-trust-m/optiga/util\optiga_util.c ****     optiga_util_t * me = NULL;
 301              	 .loc 1 157 0
 302 0006 0024     	 mov r4,#0
 303 0008 1DE0     	 b .L28
 304              	.LVL31:
 305              	.L27:
 306 000a 0F1C     	 mov r7,r1
 307 000c 051C     	 mov r5,r0
 163:C:/Workspace/DAVE-4.4.2-64Bit/optiga-trust-m/optiga/util\optiga_util.c ****         {
 164:C:/Workspace/DAVE-4.4.2-64Bit/optiga-trust-m/optiga/util\optiga_util.c ****             break;
 165:C:/Workspace/DAVE-4.4.2-64Bit/optiga-trust-m/optiga/util\optiga_util.c ****         }
 166:C:/Workspace/DAVE-4.4.2-64Bit/optiga-trust-m/optiga/util\optiga_util.c **** #endif
 167:C:/Workspace/DAVE-4.4.2-64Bit/optiga-trust-m/optiga/util\optiga_util.c ****         me = (optiga_util_t *)pal_os_calloc(1, sizeof(optiga_util_t));
 308              	 .loc 1 167 0
 309 000e 2421     	 mov r1,#36
 310              	.LVL32:
 311 0010 0120     	 mov r0,#1
 312              	.LVL33:
 313 0012 161C     	 mov r6,r2
 314 0014 FFF7FEFF 	 bl calloc
 315              	.LVL34:
 316 0018 041E     	 sub r4,r0,#0
 317              	.LVL35:
 168:C:/Workspace/DAVE-4.4.2-64Bit/optiga-trust-m/optiga/util\optiga_util.c ****         if (NULL == me)
 318              	 .loc 1 168 0
 319 001a F4D0     	 beq .L29
 169:C:/Workspace/DAVE-4.4.2-64Bit/optiga-trust-m/optiga/util\optiga_util.c ****         {
 170:C:/Workspace/DAVE-4.4.2-64Bit/optiga-trust-m/optiga/util\optiga_util.c ****             break;
 171:C:/Workspace/DAVE-4.4.2-64Bit/optiga-trust-m/optiga/util\optiga_util.c ****         }
 172:C:/Workspace/DAVE-4.4.2-64Bit/optiga-trust-m/optiga/util\optiga_util.c **** 
 173:C:/Workspace/DAVE-4.4.2-64Bit/optiga-trust-m/optiga/util\optiga_util.c ****         me->handler = handler;
 174:C:/Workspace/DAVE-4.4.2-64Bit/optiga-trust-m/optiga/util\optiga_util.c ****         me->caller_context = caller_context;
 175:C:/Workspace/DAVE-4.4.2-64Bit/optiga-trust-m/optiga/util\optiga_util.c ****         me->instance_state = OPTIGA_LIB_SUCCESS;
 320              	 .loc 1 175 0
 321 001c 0022     	 mov r2,#0
 176:C:/Workspace/DAVE-4.4.2-64Bit/optiga-trust-m/optiga/util\optiga_util.c **** #ifdef OPTIGA_COMMS_SHIELDED_CONNECTION
 177:C:/Workspace/DAVE-4.4.2-64Bit/optiga-trust-m/optiga/util\optiga_util.c ****         me->protocol_version = OPTIGA_COMMS_PROTOCOL_VERSION_PRE_SHARED_SECRET;
 322              	 .loc 1 177 0
 323 001e 0121     	 mov r1,#1
 324 0020 031D     	 add r3,r0,#4
 175:C:/Workspace/DAVE-4.4.2-64Bit/optiga-trust-m/optiga/util\optiga_util.c **** #ifdef OPTIGA_COMMS_SHIELDED_CONNECTION
 325              	 .loc 1 175 0
 326 0022 0284     	 strh r2,[r0,#32]
 173:C:/Workspace/DAVE-4.4.2-64Bit/optiga-trust-m/optiga/util\optiga_util.c ****         me->caller_context = caller_context;
 327              	 .loc 1 173 0
 328 0024 C761     	 str r7,[r0,#28]
 174:C:/Workspace/DAVE-4.4.2-64Bit/optiga-trust-m/optiga/util\optiga_util.c ****         me->instance_state = OPTIGA_LIB_SUCCESS;
 329              	 .loc 1 174 0
 330 0026 8661     	 str r6,[r0,#24]
 331              	 .loc 1 177 0
 332 0028 D977     	 strb r1,[r3,#31]
 178:C:/Workspace/DAVE-4.4.2-64Bit/optiga-trust-m/optiga/util\optiga_util.c ****         me->protection_level = OPTIGA_COMMS_DEFAULT_PROTECTION_LEVEL;
 333              	 .loc 1 178 0
 334 002a C31C     	 add r3,r0,#3
 335 002c DA77     	 strb r2,[r3,#31]
 179:C:/Workspace/DAVE-4.4.2-64Bit/optiga-trust-m/optiga/util\optiga_util.c **** #endif
 180:C:/Workspace/DAVE-4.4.2-64Bit/optiga-trust-m/optiga/util\optiga_util.c ****         me->my_cmd = optiga_cmd_create(optiga_instance_id, optiga_util_generic_event_handler, me);
 336              	 .loc 1 180 0
 337 002e 281C     	 mov r0,r5
 338              	.LVL36:
 339 0030 0649     	 ldr r1,.L33
 340 0032 221C     	 mov r2,r4
 341 0034 FFF7FEFF 	 bl optiga_cmd_create
 342              	.LVL37:
 343 0038 051E     	 sub r5,r0,#0
 344 003a 6061     	 str r0,[r4,#20]
 181:C:/Workspace/DAVE-4.4.2-64Bit/optiga-trust-m/optiga/util\optiga_util.c ****         if (NULL == me->my_cmd)
 345              	 .loc 1 181 0
 346 003c 03D1     	 bne .L28
 182:C:/Workspace/DAVE-4.4.2-64Bit/optiga-trust-m/optiga/util\optiga_util.c ****         {
 183:C:/Workspace/DAVE-4.4.2-64Bit/optiga-trust-m/optiga/util\optiga_util.c ****             pal_os_free(me);
 347              	 .loc 1 183 0
 348 003e 201C     	 mov r0,r4
 349 0040 FFF7FEFF 	 bl free
 350              	.LVL38:
 184:C:/Workspace/DAVE-4.4.2-64Bit/optiga-trust-m/optiga/util\optiga_util.c ****             me = NULL;
 351              	 .loc 1 184 0
 352 0044 2C1C     	 mov r4,r5
 353              	.LVL39:
 354              	.L28:
 185:C:/Workspace/DAVE-4.4.2-64Bit/optiga-trust-m/optiga/util\optiga_util.c ****         }
 186:C:/Workspace/DAVE-4.4.2-64Bit/optiga-trust-m/optiga/util\optiga_util.c ****     } while (FALSE);
 187:C:/Workspace/DAVE-4.4.2-64Bit/optiga-trust-m/optiga/util\optiga_util.c **** 
 188:C:/Workspace/DAVE-4.4.2-64Bit/optiga-trust-m/optiga/util\optiga_util.c ****     return (me);
 189:C:/Workspace/DAVE-4.4.2-64Bit/optiga-trust-m/optiga/util\optiga_util.c **** }
 355              	 .loc 1 189 0
 356 0046 201C     	 mov r0,r4
 357              	 
 358              	.LVL40:
 359 0048 F8BD     	 pop {r3,r4,r5,r6,r7,pc}
 360              	.L34:
 361 004a C046     	 .align 2
 362              	.L33:
 363 004c 00000000 	 .word optiga_util_generic_event_handler
 364              	 .cfi_endproc
 365              	.LFE4:
 367              	 .section .text.optiga_util_destroy,"ax",%progbits
 368              	 .align 1
 369              	 .global optiga_util_destroy
 370              	 .code 16
 371              	 .thumb_func
 373              	optiga_util_destroy:
 374              	.LFB5:
 190:C:/Workspace/DAVE-4.4.2-64Bit/optiga-trust-m/optiga/util\optiga_util.c **** 
 191:C:/Workspace/DAVE-4.4.2-64Bit/optiga-trust-m/optiga/util\optiga_util.c **** optiga_lib_status_t optiga_util_destroy(optiga_util_t * me)
 192:C:/Workspace/DAVE-4.4.2-64Bit/optiga-trust-m/optiga/util\optiga_util.c **** {
 375              	 .loc 1 192 0
 376              	 .cfi_startproc
 377              	.LVL41:
 378 0000 38B5     	 push {r3,r4,r5,lr}
 379              	.LCFI4:
 380              	 .cfi_def_cfa_offset 16
 381              	 .cfi_offset 3,-16
 382              	 .cfi_offset 4,-12
 383              	 .cfi_offset 5,-8
 384              	 .cfi_offset 14,-4
 193:C:/Workspace/DAVE-4.4.2-64Bit/optiga-trust-m/optiga/util\optiga_util.c ****     optiga_lib_status_t return_value;
 194:C:/Workspace/DAVE-4.4.2-64Bit/optiga-trust-m/optiga/util\optiga_util.c **** 
 195:C:/Workspace/DAVE-4.4.2-64Bit/optiga-trust-m/optiga/util\optiga_util.c ****     do
 196:C:/Workspace/DAVE-4.4.2-64Bit/optiga-trust-m/optiga/util\optiga_util.c ****     {
 197:C:/Workspace/DAVE-4.4.2-64Bit/optiga-trust-m/optiga/util\optiga_util.c **** #ifdef OPTIGA_LIB_DEBUG_NULL_CHECK
 198:C:/Workspace/DAVE-4.4.2-64Bit/optiga-trust-m/optiga/util\optiga_util.c ****         if (NULL == me)
 385              	 .loc 1 198 0
 386 0002 0028     	 cmp r0,#0
 387 0004 0BD0     	 beq .L37
 199:C:/Workspace/DAVE-4.4.2-64Bit/optiga-trust-m/optiga/util\optiga_util.c ****         {
 200:C:/Workspace/DAVE-4.4.2-64Bit/optiga-trust-m/optiga/util\optiga_util.c ****             return_value = OPTIGA_UTIL_ERROR_INVALID_INPUT;
 201:C:/Workspace/DAVE-4.4.2-64Bit/optiga-trust-m/optiga/util\optiga_util.c ****             break;
 202:C:/Workspace/DAVE-4.4.2-64Bit/optiga-trust-m/optiga/util\optiga_util.c ****         }
 203:C:/Workspace/DAVE-4.4.2-64Bit/optiga-trust-m/optiga/util\optiga_util.c **** #endif
 204:C:/Workspace/DAVE-4.4.2-64Bit/optiga-trust-m/optiga/util\optiga_util.c ****         if (OPTIGA_LIB_INSTANCE_BUSY == me->instance_state)
 388              	 .loc 1 204 0
 389 0006 038C     	 ldrh r3,[r0,#32]
 390 0008 012B     	 cmp r3,#1
 391 000a 0AD0     	 beq .L38
 392 000c 041C     	 mov r4,r0
 205:C:/Workspace/DAVE-4.4.2-64Bit/optiga-trust-m/optiga/util\optiga_util.c ****         {
 206:C:/Workspace/DAVE-4.4.2-64Bit/optiga-trust-m/optiga/util\optiga_util.c ****             return_value = OPTIGA_UTIL_ERROR_INSTANCE_IN_USE;
 207:C:/Workspace/DAVE-4.4.2-64Bit/optiga-trust-m/optiga/util\optiga_util.c ****             break;
 208:C:/Workspace/DAVE-4.4.2-64Bit/optiga-trust-m/optiga/util\optiga_util.c ****         }
 209:C:/Workspace/DAVE-4.4.2-64Bit/optiga-trust-m/optiga/util\optiga_util.c ****         return_value = optiga_cmd_destroy(me->my_cmd);
 393              	 .loc 1 209 0
 394 000e 4069     	 ldr r0,[r0,#20]
 395              	.LVL42:
 396 0010 FFF7FEFF 	 bl optiga_cmd_destroy
 397              	.LVL43:
 398 0014 051C     	 mov r5,r0
 399              	.LVL44:
 210:C:/Workspace/DAVE-4.4.2-64Bit/optiga-trust-m/optiga/util\optiga_util.c ****         pal_os_free(me);
 400              	 .loc 1 210 0
 401 0016 201C     	 mov r0,r4
 402              	.LVL45:
 403 0018 FFF7FEFF 	 bl free
 404              	.LVL46:
 405 001c 02E0     	 b .L36
 406              	.LVL47:
 407              	.L37:
 200:C:/Workspace/DAVE-4.4.2-64Bit/optiga-trust-m/optiga/util\optiga_util.c ****             break;
 408              	 .loc 1 200 0
 409 001e 024D     	 ldr r5,.L39
 410 0020 00E0     	 b .L36
 411              	.L38:
 206:C:/Workspace/DAVE-4.4.2-64Bit/optiga-trust-m/optiga/util\optiga_util.c ****             break;
 412              	 .loc 1 206 0
 413 0022 024D     	 ldr r5,.L39+4
 414              	.LVL48:
 415              	.L36:
 211:C:/Workspace/DAVE-4.4.2-64Bit/optiga-trust-m/optiga/util\optiga_util.c ****     } while (FALSE);
 212:C:/Workspace/DAVE-4.4.2-64Bit/optiga-trust-m/optiga/util\optiga_util.c ****     return (return_value);
 213:C:/Workspace/DAVE-4.4.2-64Bit/optiga-trust-m/optiga/util\optiga_util.c **** }
 416              	 .loc 1 213 0
 417 0024 281C     	 mov r0,r5
 418              	 
 419              	.LVL49:
 420 0026 38BD     	 pop {r3,r4,r5,pc}
 421              	.L40:
 422              	 .align 2
 423              	.L39:
 424 0028 03030000 	 .word 771
 425 002c 05030000 	 .word 773
 426              	 .cfi_endproc
 427              	.LFE5:
 429              	 .section .text.optiga_util_open_application,"ax",%progbits
 430              	 .align 1
 431              	 .global optiga_util_open_application
 432              	 .code 16
 433              	 .thumb_func
 435              	optiga_util_open_application:
 436              	.LFB6:
 214:C:/Workspace/DAVE-4.4.2-64Bit/optiga-trust-m/optiga/util\optiga_util.c **** 
 215:C:/Workspace/DAVE-4.4.2-64Bit/optiga-trust-m/optiga/util\optiga_util.c **** optiga_lib_status_t optiga_util_open_application(optiga_util_t * me,
 216:C:/Workspace/DAVE-4.4.2-64Bit/optiga-trust-m/optiga/util\optiga_util.c ****                                                  bool_t perform_restore)
 217:C:/Workspace/DAVE-4.4.2-64Bit/optiga-trust-m/optiga/util\optiga_util.c **** {
 437              	 .loc 1 217 0
 438              	 .cfi_startproc
 439              	.LVL50:
 440 0000 70B5     	 push {r4,r5,r6,lr}
 441              	.LCFI5:
 442              	 .cfi_def_cfa_offset 16
 443              	 .cfi_offset 4,-16
 444              	 .cfi_offset 5,-12
 445              	 .cfi_offset 6,-8
 446              	 .cfi_offset 14,-4
 218:C:/Workspace/DAVE-4.4.2-64Bit/optiga-trust-m/optiga/util\optiga_util.c ****     optiga_lib_status_t return_value = OPTIGA_UTIL_ERROR;
 219:C:/Workspace/DAVE-4.4.2-64Bit/optiga-trust-m/optiga/util\optiga_util.c **** 
 220:C:/Workspace/DAVE-4.4.2-64Bit/optiga-trust-m/optiga/util\optiga_util.c ****     OPTIGA_UTIL_LOG_MESSAGE(__FUNCTION__);
 447              	 .loc 1 220 0
 448 0002 1B4A     	 ldr r2,.L52
 217:C:/Workspace/DAVE-4.4.2-64Bit/optiga-trust-m/optiga/util\optiga_util.c ****     optiga_lib_status_t return_value = OPTIGA_UTIL_ERROR;
 449              	 .loc 1 217 0
 450 0004 041C     	 mov r4,r0
 451 0006 0D1C     	 mov r5,r1
 452              	 .loc 1 220 0
 453 0008 1A48     	 ldr r0,.L52+4
 454              	.LVL51:
 455 000a 1B49     	 ldr r1,.L52+8
 456              	.LVL52:
 457 000c FFF7FEFF 	 bl optiga_lib_print_message
 458              	.LVL53:
 221:C:/Workspace/DAVE-4.4.2-64Bit/optiga-trust-m/optiga/util\optiga_util.c ****     do
 222:C:/Workspace/DAVE-4.4.2-64Bit/optiga-trust-m/optiga/util\optiga_util.c ****     {
 223:C:/Workspace/DAVE-4.4.2-64Bit/optiga-trust-m/optiga/util\optiga_util.c **** #ifdef OPTIGA_LIB_DEBUG_NULL_CHECK
 224:C:/Workspace/DAVE-4.4.2-64Bit/optiga-trust-m/optiga/util\optiga_util.c ****         if ((NULL == me) || (NULL == me->my_cmd))
 459              	 .loc 1 224 0
 460 0010 002C     	 cmp r4,#0
 461 0012 24D0     	 beq .L46
 462              	 .loc 1 224 0 is_stmt 0 discriminator 1
 463 0014 6069     	 ldr r0,[r4,#20]
 464 0016 0028     	 cmp r0,#0
 465 0018 21D0     	 beq .L46
 225:C:/Workspace/DAVE-4.4.2-64Bit/optiga-trust-m/optiga/util\optiga_util.c ****         {
 226:C:/Workspace/DAVE-4.4.2-64Bit/optiga-trust-m/optiga/util\optiga_util.c ****             return_value = OPTIGA_UTIL_ERROR_INVALID_INPUT;
 227:C:/Workspace/DAVE-4.4.2-64Bit/optiga-trust-m/optiga/util\optiga_util.c ****             break;
 228:C:/Workspace/DAVE-4.4.2-64Bit/optiga-trust-m/optiga/util\optiga_util.c ****         }
 229:C:/Workspace/DAVE-4.4.2-64Bit/optiga-trust-m/optiga/util\optiga_util.c **** #endif
 230:C:/Workspace/DAVE-4.4.2-64Bit/optiga-trust-m/optiga/util\optiga_util.c **** 
 231:C:/Workspace/DAVE-4.4.2-64Bit/optiga-trust-m/optiga/util\optiga_util.c ****         if (OPTIGA_LIB_INSTANCE_BUSY == me->instance_state)
 466              	 .loc 1 231 0 is_stmt 1
 467 001a 238C     	 ldrh r3,[r4,#32]
 468 001c 012B     	 cmp r3,#1
 469 001e 20D0     	 beq .L47
 232:C:/Workspace/DAVE-4.4.2-64Bit/optiga-trust-m/optiga/util\optiga_util.c ****         {
 233:C:/Workspace/DAVE-4.4.2-64Bit/optiga-trust-m/optiga/util\optiga_util.c ****             return_value = OPTIGA_UTIL_ERROR_INSTANCE_IN_USE;
 234:C:/Workspace/DAVE-4.4.2-64Bit/optiga-trust-m/optiga/util\optiga_util.c ****             break;
 235:C:/Workspace/DAVE-4.4.2-64Bit/optiga-trust-m/optiga/util\optiga_util.c ****         }
 236:C:/Workspace/DAVE-4.4.2-64Bit/optiga-trust-m/optiga/util\optiga_util.c **** 
 237:C:/Workspace/DAVE-4.4.2-64Bit/optiga-trust-m/optiga/util\optiga_util.c ****         me->instance_state = OPTIGA_LIB_INSTANCE_BUSY;
 470              	 .loc 1 237 0
 471 0020 0126     	 mov r6,#1
 238:C:/Workspace/DAVE-4.4.2-64Bit/optiga-trust-m/optiga/util\optiga_util.c ****         OPTIGA_PROTECTION_ENABLE(me->my_cmd, me);
 472              	 .loc 1 238 0
 473 0022 E31C     	 add r3,r4,#3
 237:C:/Workspace/DAVE-4.4.2-64Bit/optiga-trust-m/optiga/util\optiga_util.c ****         OPTIGA_PROTECTION_ENABLE(me->my_cmd, me);
 474              	 .loc 1 237 0
 475 0024 2684     	 strh r6,[r4,#32]
 476              	 .loc 1 238 0
 477 0026 D97F     	 ldrb r1,[r3,#31]
 478 0028 0022     	 mov r2,#0
 479 002a FFF7FEFF 	 bl optiga_cmd_set_shielded_connection_option
 480              	.LVL54:
 239:C:/Workspace/DAVE-4.4.2-64Bit/optiga-trust-m/optiga/util\optiga_util.c ****         OPTIGA_PROTECTION_SET_VERSION(me->my_cmd, me);
 481              	 .loc 1 239 0
 482 002e 231D     	 add r3,r4,#4
 483 0030 D97F     	 ldrb r1,[r3,#31]
 484 0032 6069     	 ldr r0,[r4,#20]
 485 0034 321C     	 mov r2,r6
 486 0036 FFF7FEFF 	 bl optiga_cmd_set_shielded_connection_option
 487              	.LVL55:
 240:C:/Workspace/DAVE-4.4.2-64Bit/optiga-trust-m/optiga/util\optiga_util.c **** #ifdef OPTIGA_COMMS_SHIELDED_CONNECTION
 241:C:/Workspace/DAVE-4.4.2-64Bit/optiga-trust-m/optiga/util\optiga_util.c ****         if (FALSE == perform_restore)
 242:C:/Workspace/DAVE-4.4.2-64Bit/optiga-trust-m/optiga/util\optiga_util.c ****         {
 243:C:/Workspace/DAVE-4.4.2-64Bit/optiga-trust-m/optiga/util\optiga_util.c ****             OPTIGA_PROTECTION_MANAGE_CONTEXT(me->my_cmd, OPTIGA_COMMS_SESSION_CONTEXT_NONE);
 488              	 .loc 1 243 0
 489 003a 6069     	 ldr r0,[r4,#20]
 490 003c 3321     	 mov r1,#51
 241:C:/Workspace/DAVE-4.4.2-64Bit/optiga-trust-m/optiga/util\optiga_util.c ****         {
 491              	 .loc 1 241 0
 492 003e 002D     	 cmp r5,#0
 493 0040 00D0     	 beq .L51
 244:C:/Workspace/DAVE-4.4.2-64Bit/optiga-trust-m/optiga/util\optiga_util.c ****         }
 245:C:/Workspace/DAVE-4.4.2-64Bit/optiga-trust-m/optiga/util\optiga_util.c ****         else
 246:C:/Workspace/DAVE-4.4.2-64Bit/optiga-trust-m/optiga/util\optiga_util.c ****         {
 247:C:/Workspace/DAVE-4.4.2-64Bit/optiga-trust-m/optiga/util\optiga_util.c ****              OPTIGA_PROTECTION_MANAGE_CONTEXT(me->my_cmd, OPTIGA_COMMS_SESSION_CONTEXT_RESTORE);
 494              	 .loc 1 247 0
 495 0042 1121     	 mov r1,#17
 496              	.L51:
 497 0044 0222     	 mov r2,#2
 498 0046 FFF7FEFF 	 bl optiga_cmd_set_shielded_connection_option
 499              	.LVL56:
 248:C:/Workspace/DAVE-4.4.2-64Bit/optiga-trust-m/optiga/util\optiga_util.c ****         }
 249:C:/Workspace/DAVE-4.4.2-64Bit/optiga-trust-m/optiga/util\optiga_util.c **** #endif //OPTIGA_COMMS_SHIELDED_CONNECTION
 250:C:/Workspace/DAVE-4.4.2-64Bit/optiga-trust-m/optiga/util\optiga_util.c **** 
 251:C:/Workspace/DAVE-4.4.2-64Bit/optiga-trust-m/optiga/util\optiga_util.c ****         return_value = optiga_cmd_open_application(me->my_cmd, perform_restore, NULL);
 500              	 .loc 1 251 0
 501 004a 291C     	 mov r1,r5
 502 004c 6069     	 ldr r0,[r4,#20]
 503 004e 0022     	 mov r2,#0
 504 0050 FFF7FEFF 	 bl optiga_cmd_open_application
 505              	.LVL57:
 506 0054 051E     	 sub r5,r0,#0
 507              	.LVL58:
 252:C:/Workspace/DAVE-4.4.2-64Bit/optiga-trust-m/optiga/util\optiga_util.c ****         if (OPTIGA_LIB_SUCCESS != return_value)
 508              	 .loc 1 252 0
 509 0056 05D0     	 beq .L42
 253:C:/Workspace/DAVE-4.4.2-64Bit/optiga-trust-m/optiga/util\optiga_util.c ****         {
 254:C:/Workspace/DAVE-4.4.2-64Bit/optiga-trust-m/optiga/util\optiga_util.c ****             me->instance_state = OPTIGA_LIB_INSTANCE_FREE;
 510              	 .loc 1 254 0
 511 0058 0023     	 mov r3,#0
 512 005a 2384     	 strh r3,[r4,#32]
 513 005c 02E0     	 b .L42
 514              	.LVL59:
 515              	.L46:
 226:C:/Workspace/DAVE-4.4.2-64Bit/optiga-trust-m/optiga/util\optiga_util.c ****             break;
 516              	 .loc 1 226 0
 517 005e 074D     	 ldr r5,.L52+12
 518 0060 00E0     	 b .L42
 519              	.L47:
 233:C:/Workspace/DAVE-4.4.2-64Bit/optiga-trust-m/optiga/util\optiga_util.c ****             break;
 520              	 .loc 1 233 0
 521 0062 074D     	 ldr r5,.L52+16
 522              	.LVL60:
 523              	.L42:
 255:C:/Workspace/DAVE-4.4.2-64Bit/optiga-trust-m/optiga/util\optiga_util.c ****         }
 256:C:/Workspace/DAVE-4.4.2-64Bit/optiga-trust-m/optiga/util\optiga_util.c **** 
 257:C:/Workspace/DAVE-4.4.2-64Bit/optiga-trust-m/optiga/util\optiga_util.c ****     } while (FALSE);
 258:C:/Workspace/DAVE-4.4.2-64Bit/optiga-trust-m/optiga/util\optiga_util.c ****     optiga_util_reset_protection_level(me);
 524              	 .loc 1 258 0
 525 0064 201C     	 mov r0,r4
 526 0066 FFF7FEFF 	 bl optiga_util_reset_protection_level
 527              	.LVL61:
 259:C:/Workspace/DAVE-4.4.2-64Bit/optiga-trust-m/optiga/util\optiga_util.c **** 
 260:C:/Workspace/DAVE-4.4.2-64Bit/optiga-trust-m/optiga/util\optiga_util.c ****     return (return_value);
 261:C:/Workspace/DAVE-4.4.2-64Bit/optiga-trust-m/optiga/util\optiga_util.c **** }
 528              	 .loc 1 261 0
 529              	 
 530 006a 281C     	 mov r0,r5
 531              	.LVL62:
 532              	.LVL63:
 533 006c 70BD     	 pop {r4,r5,r6,pc}
 534              	.L53:
 535 006e C046     	 .align 2
 536              	.L52:
 537 0070 15000000 	 .word .LC4
 538 0074 00000000 	 .word .LANCHOR0
 539 0078 00000000 	 .word .LC2
 540 007c 03030000 	 .word 771
 541 0080 05030000 	 .word 773
 542              	 .cfi_endproc
 543              	.LFE6:
 545              	 .section .text.optiga_util_close_application,"ax",%progbits
 546              	 .align 1
 547              	 .global optiga_util_close_application
 548              	 .code 16
 549              	 .thumb_func
 551              	optiga_util_close_application:
 552              	.LFB7:
 262:C:/Workspace/DAVE-4.4.2-64Bit/optiga-trust-m/optiga/util\optiga_util.c **** 
 263:C:/Workspace/DAVE-4.4.2-64Bit/optiga-trust-m/optiga/util\optiga_util.c **** optiga_lib_status_t optiga_util_close_application(optiga_util_t * me,
 264:C:/Workspace/DAVE-4.4.2-64Bit/optiga-trust-m/optiga/util\optiga_util.c ****                                                   bool_t perform_hibernate)
 265:C:/Workspace/DAVE-4.4.2-64Bit/optiga-trust-m/optiga/util\optiga_util.c **** {
 553              	 .loc 1 265 0
 554              	 .cfi_startproc
 555              	.LVL64:
 556 0000 70B5     	 push {r4,r5,r6,lr}
 557              	.LCFI6:
 558              	 .cfi_def_cfa_offset 16
 559              	 .cfi_offset 4,-16
 560              	 .cfi_offset 5,-12
 561              	 .cfi_offset 6,-8
 562              	 .cfi_offset 14,-4
 266:C:/Workspace/DAVE-4.4.2-64Bit/optiga-trust-m/optiga/util\optiga_util.c ****     optiga_lib_status_t return_value = OPTIGA_UTIL_ERROR;
 267:C:/Workspace/DAVE-4.4.2-64Bit/optiga-trust-m/optiga/util\optiga_util.c ****     OPTIGA_UTIL_LOG_MESSAGE(__FUNCTION__);
 563              	 .loc 1 267 0
 564 0002 1B4A     	 ldr r2,.L65
 265:C:/Workspace/DAVE-4.4.2-64Bit/optiga-trust-m/optiga/util\optiga_util.c ****     optiga_lib_status_t return_value = OPTIGA_UTIL_ERROR;
 565              	 .loc 1 265 0
 566 0004 041C     	 mov r4,r0
 567 0006 0D1C     	 mov r5,r1
 568              	 .loc 1 267 0
 569 0008 1A48     	 ldr r0,.L65+4
 570              	.LVL65:
 571 000a 1B49     	 ldr r1,.L65+8
 572              	.LVL66:
 573 000c FFF7FEFF 	 bl optiga_lib_print_message
 574              	.LVL67:
 268:C:/Workspace/DAVE-4.4.2-64Bit/optiga-trust-m/optiga/util\optiga_util.c **** 
 269:C:/Workspace/DAVE-4.4.2-64Bit/optiga-trust-m/optiga/util\optiga_util.c ****     do
 270:C:/Workspace/DAVE-4.4.2-64Bit/optiga-trust-m/optiga/util\optiga_util.c ****     {
 271:C:/Workspace/DAVE-4.4.2-64Bit/optiga-trust-m/optiga/util\optiga_util.c **** #ifdef OPTIGA_LIB_DEBUG_NULL_CHECK
 272:C:/Workspace/DAVE-4.4.2-64Bit/optiga-trust-m/optiga/util\optiga_util.c ****         if ((NULL == me) || (NULL == me->my_cmd))
 575              	 .loc 1 272 0
 576 0010 002C     	 cmp r4,#0
 577 0012 24D0     	 beq .L59
 578              	 .loc 1 272 0 is_stmt 0 discriminator 1
 579 0014 6069     	 ldr r0,[r4,#20]
 580 0016 0028     	 cmp r0,#0
 581 0018 21D0     	 beq .L59
 273:C:/Workspace/DAVE-4.4.2-64Bit/optiga-trust-m/optiga/util\optiga_util.c ****         {
 274:C:/Workspace/DAVE-4.4.2-64Bit/optiga-trust-m/optiga/util\optiga_util.c ****             return_value = OPTIGA_UTIL_ERROR_INVALID_INPUT;
 275:C:/Workspace/DAVE-4.4.2-64Bit/optiga-trust-m/optiga/util\optiga_util.c ****             break;
 276:C:/Workspace/DAVE-4.4.2-64Bit/optiga-trust-m/optiga/util\optiga_util.c ****         }
 277:C:/Workspace/DAVE-4.4.2-64Bit/optiga-trust-m/optiga/util\optiga_util.c **** #endif
 278:C:/Workspace/DAVE-4.4.2-64Bit/optiga-trust-m/optiga/util\optiga_util.c **** 
 279:C:/Workspace/DAVE-4.4.2-64Bit/optiga-trust-m/optiga/util\optiga_util.c ****         if (OPTIGA_LIB_INSTANCE_BUSY == me->instance_state)
 582              	 .loc 1 279 0 is_stmt 1
 583 001a 238C     	 ldrh r3,[r4,#32]
 584 001c 012B     	 cmp r3,#1
 585 001e 20D0     	 beq .L60
 280:C:/Workspace/DAVE-4.4.2-64Bit/optiga-trust-m/optiga/util\optiga_util.c ****         {
 281:C:/Workspace/DAVE-4.4.2-64Bit/optiga-trust-m/optiga/util\optiga_util.c ****             return_value = OPTIGA_UTIL_ERROR_INSTANCE_IN_USE;
 282:C:/Workspace/DAVE-4.4.2-64Bit/optiga-trust-m/optiga/util\optiga_util.c ****             break;
 283:C:/Workspace/DAVE-4.4.2-64Bit/optiga-trust-m/optiga/util\optiga_util.c ****         }
 284:C:/Workspace/DAVE-4.4.2-64Bit/optiga-trust-m/optiga/util\optiga_util.c **** 
 285:C:/Workspace/DAVE-4.4.2-64Bit/optiga-trust-m/optiga/util\optiga_util.c ****         me->instance_state = OPTIGA_LIB_INSTANCE_BUSY;
 586              	 .loc 1 285 0
 587 0020 0126     	 mov r6,#1
 286:C:/Workspace/DAVE-4.4.2-64Bit/optiga-trust-m/optiga/util\optiga_util.c ****         OPTIGA_PROTECTION_ENABLE(me->my_cmd, me);
 588              	 .loc 1 286 0
 589 0022 E31C     	 add r3,r4,#3
 285:C:/Workspace/DAVE-4.4.2-64Bit/optiga-trust-m/optiga/util\optiga_util.c ****         OPTIGA_PROTECTION_ENABLE(me->my_cmd, me);
 590              	 .loc 1 285 0
 591 0024 2684     	 strh r6,[r4,#32]
 592              	 .loc 1 286 0
 593 0026 D97F     	 ldrb r1,[r3,#31]
 594 0028 0022     	 mov r2,#0
 595 002a FFF7FEFF 	 bl optiga_cmd_set_shielded_connection_option
 596              	.LVL68:
 287:C:/Workspace/DAVE-4.4.2-64Bit/optiga-trust-m/optiga/util\optiga_util.c ****         OPTIGA_PROTECTION_SET_VERSION(me->my_cmd, me);
 597              	 .loc 1 287 0
 598 002e 231D     	 add r3,r4,#4
 599 0030 D97F     	 ldrb r1,[r3,#31]
 600 0032 6069     	 ldr r0,[r4,#20]
 601 0034 321C     	 mov r2,r6
 602 0036 FFF7FEFF 	 bl optiga_cmd_set_shielded_connection_option
 603              	.LVL69:
 288:C:/Workspace/DAVE-4.4.2-64Bit/optiga-trust-m/optiga/util\optiga_util.c **** 
 289:C:/Workspace/DAVE-4.4.2-64Bit/optiga-trust-m/optiga/util\optiga_util.c **** #ifdef OPTIGA_COMMS_SHIELDED_CONNECTION
 290:C:/Workspace/DAVE-4.4.2-64Bit/optiga-trust-m/optiga/util\optiga_util.c ****         if (FALSE == perform_hibernate)
 291:C:/Workspace/DAVE-4.4.2-64Bit/optiga-trust-m/optiga/util\optiga_util.c ****         {
 292:C:/Workspace/DAVE-4.4.2-64Bit/optiga-trust-m/optiga/util\optiga_util.c ****             OPTIGA_PROTECTION_MANAGE_CONTEXT(me->my_cmd, OPTIGA_COMMS_SESSION_CONTEXT_NONE);
 604              	 .loc 1 292 0
 605 003a 6069     	 ldr r0,[r4,#20]
 606 003c 3321     	 mov r1,#51
 290:C:/Workspace/DAVE-4.4.2-64Bit/optiga-trust-m/optiga/util\optiga_util.c ****         {
 607              	 .loc 1 290 0
 608 003e 002D     	 cmp r5,#0
 609 0040 00D0     	 beq .L64
 293:C:/Workspace/DAVE-4.4.2-64Bit/optiga-trust-m/optiga/util\optiga_util.c ****         }
 294:C:/Workspace/DAVE-4.4.2-64Bit/optiga-trust-m/optiga/util\optiga_util.c ****         else
 295:C:/Workspace/DAVE-4.4.2-64Bit/optiga-trust-m/optiga/util\optiga_util.c ****         {
 296:C:/Workspace/DAVE-4.4.2-64Bit/optiga-trust-m/optiga/util\optiga_util.c ****             OPTIGA_PROTECTION_MANAGE_CONTEXT(me->my_cmd, OPTIGA_COMMS_SESSION_CONTEXT_SAVE);
 610              	 .loc 1 296 0
 611 0042 2221     	 mov r1,#34
 612              	.L64:
 613 0044 0222     	 mov r2,#2
 614 0046 FFF7FEFF 	 bl optiga_cmd_set_shielded_connection_option
 615              	.LVL70:
 297:C:/Workspace/DAVE-4.4.2-64Bit/optiga-trust-m/optiga/util\optiga_util.c ****         }
 298:C:/Workspace/DAVE-4.4.2-64Bit/optiga-trust-m/optiga/util\optiga_util.c **** #endif //OPTIGA_COMMS_SHIELDED_CONNECTION
 299:C:/Workspace/DAVE-4.4.2-64Bit/optiga-trust-m/optiga/util\optiga_util.c **** 
 300:C:/Workspace/DAVE-4.4.2-64Bit/optiga-trust-m/optiga/util\optiga_util.c ****         return_value = optiga_cmd_close_application(me->my_cmd, perform_hibernate, NULL);
 616              	 .loc 1 300 0
 617 004a 291C     	 mov r1,r5
 618 004c 6069     	 ldr r0,[r4,#20]
 619 004e 0022     	 mov r2,#0
 620 0050 FFF7FEFF 	 bl optiga_cmd_close_application
 621              	.LVL71:
 622 0054 051E     	 sub r5,r0,#0
 623              	.LVL72:
 301:C:/Workspace/DAVE-4.4.2-64Bit/optiga-trust-m/optiga/util\optiga_util.c ****         if (OPTIGA_LIB_SUCCESS != return_value)
 624              	 .loc 1 301 0
 625 0056 05D0     	 beq .L55
 302:C:/Workspace/DAVE-4.4.2-64Bit/optiga-trust-m/optiga/util\optiga_util.c ****         {
 303:C:/Workspace/DAVE-4.4.2-64Bit/optiga-trust-m/optiga/util\optiga_util.c ****             me->instance_state = OPTIGA_LIB_INSTANCE_FREE;
 626              	 .loc 1 303 0
 627 0058 0023     	 mov r3,#0
 628 005a 2384     	 strh r3,[r4,#32]
 629 005c 02E0     	 b .L55
 630              	.LVL73:
 631              	.L59:
 274:C:/Workspace/DAVE-4.4.2-64Bit/optiga-trust-m/optiga/util\optiga_util.c ****             break;
 632              	 .loc 1 274 0
 633 005e 074D     	 ldr r5,.L65+12
 634 0060 00E0     	 b .L55
 635              	.L60:
 281:C:/Workspace/DAVE-4.4.2-64Bit/optiga-trust-m/optiga/util\optiga_util.c ****             break;
 636              	 .loc 1 281 0
 637 0062 074D     	 ldr r5,.L65+16
 638              	.LVL74:
 639              	.L55:
 304:C:/Workspace/DAVE-4.4.2-64Bit/optiga-trust-m/optiga/util\optiga_util.c ****         }
 305:C:/Workspace/DAVE-4.4.2-64Bit/optiga-trust-m/optiga/util\optiga_util.c **** 
 306:C:/Workspace/DAVE-4.4.2-64Bit/optiga-trust-m/optiga/util\optiga_util.c ****     } while (FALSE);
 307:C:/Workspace/DAVE-4.4.2-64Bit/optiga-trust-m/optiga/util\optiga_util.c ****     optiga_util_reset_protection_level(me);
 640              	 .loc 1 307 0
 641 0064 201C     	 mov r0,r4
 642 0066 FFF7FEFF 	 bl optiga_util_reset_protection_level
 643              	.LVL75:
 308:C:/Workspace/DAVE-4.4.2-64Bit/optiga-trust-m/optiga/util\optiga_util.c **** 
 309:C:/Workspace/DAVE-4.4.2-64Bit/optiga-trust-m/optiga/util\optiga_util.c ****     return (return_value);
 310:C:/Workspace/DAVE-4.4.2-64Bit/optiga-trust-m/optiga/util\optiga_util.c **** }
 644              	 .loc 1 310 0
 645              	 
 646 006a 281C     	 mov r0,r5
 647              	.LVL76:
 648              	.LVL77:
 649 006c 70BD     	 pop {r4,r5,r6,pc}
 650              	.L66:
 651 006e C046     	 .align 2
 652              	.L65:
 653 0070 15000000 	 .word .LC4
 654 0074 00000000 	 .word .LANCHOR1
 655 0078 00000000 	 .word .LC2
 656 007c 03030000 	 .word 771
 657 0080 05030000 	 .word 773
 658              	 .cfi_endproc
 659              	.LFE7:
 661              	 .section .text.optiga_util_read_data,"ax",%progbits
 662              	 .align 1
 663              	 .global optiga_util_read_data
 664              	 .code 16
 665              	 .thumb_func
 667              	optiga_util_read_data:
 668              	.LFB8:
 311:C:/Workspace/DAVE-4.4.2-64Bit/optiga-trust-m/optiga/util\optiga_util.c **** 
 312:C:/Workspace/DAVE-4.4.2-64Bit/optiga-trust-m/optiga/util\optiga_util.c **** optiga_lib_status_t optiga_util_read_data(optiga_util_t * me,
 313:C:/Workspace/DAVE-4.4.2-64Bit/optiga-trust-m/optiga/util\optiga_util.c ****                                           uint16_t optiga_oid,
 314:C:/Workspace/DAVE-4.4.2-64Bit/optiga-trust-m/optiga/util\optiga_util.c ****                                           uint16_t offset,
 315:C:/Workspace/DAVE-4.4.2-64Bit/optiga-trust-m/optiga/util\optiga_util.c ****                                           uint8_t * buffer,
 316:C:/Workspace/DAVE-4.4.2-64Bit/optiga-trust-m/optiga/util\optiga_util.c ****                                           uint16_t * length)
 317:C:/Workspace/DAVE-4.4.2-64Bit/optiga-trust-m/optiga/util\optiga_util.c **** {
 669              	 .loc 1 317 0
 670              	 .cfi_startproc
 671              	.LVL78:
 672 0000 F7B5     	 push {r0,r1,r2,r4,r5,r6,r7,lr}
 673              	.LCFI7:
 674              	 .cfi_def_cfa_offset 32
 675              	 .cfi_offset 0,-32
 676              	 .cfi_offset 1,-28
 677              	 .cfi_offset 2,-24
 678              	 .cfi_offset 4,-20
 679              	 .cfi_offset 5,-16
 680              	 .cfi_offset 6,-12
 681              	 .cfi_offset 7,-8
 682              	 .cfi_offset 14,-4
 683              	 .loc 1 317 0
 684 0002 041C     	 mov r4,r0
 685 0004 0D1C     	 mov r5,r1
 686 0006 0192     	 str r2,[sp,#4]
 318:C:/Workspace/DAVE-4.4.2-64Bit/optiga-trust-m/optiga/util\optiga_util.c ****     optiga_lib_status_t return_value = OPTIGA_UTIL_ERROR;
 319:C:/Workspace/DAVE-4.4.2-64Bit/optiga-trust-m/optiga/util\optiga_util.c ****     optiga_get_data_object_params_t * p_params;
 320:C:/Workspace/DAVE-4.4.2-64Bit/optiga-trust-m/optiga/util\optiga_util.c ****     OPTIGA_UTIL_LOG_MESSAGE(__FUNCTION__);
 687              	 .loc 1 320 0
 688 0008 2348     	 ldr r0,.L77
 689              	.LVL79:
 690 000a 2449     	 ldr r1,.L77+4
 691              	.LVL80:
 692 000c 244A     	 ldr r2,.L77+8
 693              	.LVL81:
 317:C:/Workspace/DAVE-4.4.2-64Bit/optiga-trust-m/optiga/util\optiga_util.c ****     optiga_lib_status_t return_value = OPTIGA_UTIL_ERROR;
 694              	 .loc 1 317 0
 695 000e 0093     	 str r3,[sp]
 696              	 .loc 1 320 0
 697 0010 FFF7FEFF 	 bl optiga_lib_print_message
 698              	.LVL82:
 321:C:/Workspace/DAVE-4.4.2-64Bit/optiga-trust-m/optiga/util\optiga_util.c ****     do
 322:C:/Workspace/DAVE-4.4.2-64Bit/optiga-trust-m/optiga/util\optiga_util.c ****     {
 323:C:/Workspace/DAVE-4.4.2-64Bit/optiga-trust-m/optiga/util\optiga_util.c **** #ifdef OPTIGA_LIB_DEBUG_NULL_CHECK
 324:C:/Workspace/DAVE-4.4.2-64Bit/optiga-trust-m/optiga/util\optiga_util.c ****         if ((NULL == me) || (NULL == me->my_cmd) ||
 699              	 .loc 1 324 0
 700 0014 002C     	 cmp r4,#0
 701 0016 37D0     	 beq .L72
 702              	 .loc 1 324 0 is_stmt 0 discriminator 1
 703 0018 6769     	 ldr r7,[r4,#20]
 704 001a 002F     	 cmp r7,#0
 705 001c 34D0     	 beq .L72
 706              	 .loc 1 324 0 discriminator 2
 707 001e 009B     	 ldr r3,[sp]
 708 0020 002B     	 cmp r3,#0
 709 0022 31D0     	 beq .L72
 325:C:/Workspace/DAVE-4.4.2-64Bit/optiga-trust-m/optiga/util\optiga_util.c ****             (NULL == buffer) || (NULL == length))
 710              	 .loc 1 325 0 is_stmt 1
 711 0024 089B     	 ldr r3,[sp,#32]
 712 0026 002B     	 cmp r3,#0
 713 0028 2ED0     	 beq .L72
 326:C:/Workspace/DAVE-4.4.2-64Bit/optiga-trust-m/optiga/util\optiga_util.c ****         {
 327:C:/Workspace/DAVE-4.4.2-64Bit/optiga-trust-m/optiga/util\optiga_util.c ****             return_value = OPTIGA_UTIL_ERROR_INVALID_INPUT;
 328:C:/Workspace/DAVE-4.4.2-64Bit/optiga-trust-m/optiga/util\optiga_util.c ****             break;
 329:C:/Workspace/DAVE-4.4.2-64Bit/optiga-trust-m/optiga/util\optiga_util.c ****         }
 330:C:/Workspace/DAVE-4.4.2-64Bit/optiga-trust-m/optiga/util\optiga_util.c **** #endif
 331:C:/Workspace/DAVE-4.4.2-64Bit/optiga-trust-m/optiga/util\optiga_util.c **** 
 332:C:/Workspace/DAVE-4.4.2-64Bit/optiga-trust-m/optiga/util\optiga_util.c ****         if (OPTIGA_LIB_INSTANCE_BUSY == me->instance_state)
 714              	 .loc 1 332 0
 715 002a 238C     	 ldrh r3,[r4,#32]
 716 002c 012B     	 cmp r3,#1
 717 002e 2DD0     	 beq .L73
 333:C:/Workspace/DAVE-4.4.2-64Bit/optiga-trust-m/optiga/util\optiga_util.c ****         {
 334:C:/Workspace/DAVE-4.4.2-64Bit/optiga-trust-m/optiga/util\optiga_util.c ****             return_value = OPTIGA_UTIL_ERROR_INSTANCE_IN_USE;
 335:C:/Workspace/DAVE-4.4.2-64Bit/optiga-trust-m/optiga/util\optiga_util.c ****             break;
 336:C:/Workspace/DAVE-4.4.2-64Bit/optiga-trust-m/optiga/util\optiga_util.c ****         }
 337:C:/Workspace/DAVE-4.4.2-64Bit/optiga-trust-m/optiga/util\optiga_util.c **** 
 338:C:/Workspace/DAVE-4.4.2-64Bit/optiga-trust-m/optiga/util\optiga_util.c ****         me->instance_state = OPTIGA_LIB_INSTANCE_BUSY;
 718              	 .loc 1 338 0
 719 0030 0126     	 mov r6,#1
 339:C:/Workspace/DAVE-4.4.2-64Bit/optiga-trust-m/optiga/util\optiga_util.c ****         p_params = (optiga_get_data_object_params_t *)&(me->params.optiga_get_data_object_params);
 340:C:/Workspace/DAVE-4.4.2-64Bit/optiga-trust-m/optiga/util\optiga_util.c ****         pal_os_memset(&me->params,0x00,sizeof(optiga_util_params_t));
 720              	 .loc 1 340 0
 721 0032 0021     	 mov r1,#0
 338:C:/Workspace/DAVE-4.4.2-64Bit/optiga-trust-m/optiga/util\optiga_util.c ****         p_params = (optiga_get_data_object_params_t *)&(me->params.optiga_get_data_object_params);
 722              	 .loc 1 338 0
 723 0034 2684     	 strh r6,[r4,#32]
 724              	.LVL83:
 725              	 .loc 1 340 0
 726 0036 1422     	 mov r2,#20
 727 0038 201C     	 mov r0,r4
 728 003a FFF7FEFF 	 bl memset
 729              	.LVL84:
 341:C:/Workspace/DAVE-4.4.2-64Bit/optiga-trust-m/optiga/util\optiga_util.c **** 
 342:C:/Workspace/DAVE-4.4.2-64Bit/optiga-trust-m/optiga/util\optiga_util.c ****         p_params->oid = optiga_oid;
 343:C:/Workspace/DAVE-4.4.2-64Bit/optiga-trust-m/optiga/util\optiga_util.c ****         p_params->offset = offset;
 730              	 .loc 1 343 0
 731 003e 6B46     	 mov r3,sp
 342:C:/Workspace/DAVE-4.4.2-64Bit/optiga-trust-m/optiga/util\optiga_util.c ****         p_params->offset = offset;
 732              	 .loc 1 342 0
 733 0040 2580     	 strh r5,[r4]
 344:C:/Workspace/DAVE-4.4.2-64Bit/optiga-trust-m/optiga/util\optiga_util.c ****         // set option to read data
 345:C:/Workspace/DAVE-4.4.2-64Bit/optiga-trust-m/optiga/util\optiga_util.c ****         p_params->data_or_metadata = 0;
 734              	 .loc 1 345 0
 735 0042 0025     	 mov r5,#0
 343:C:/Workspace/DAVE-4.4.2-64Bit/optiga-trust-m/optiga/util\optiga_util.c ****         // set option to read data
 736              	 .loc 1 343 0
 737 0044 9B88     	 ldrh r3,[r3,#4]
 738              	 .loc 1 345 0
 739 0046 A572     	 strb r5,[r4,#10]
 343:C:/Workspace/DAVE-4.4.2-64Bit/optiga-trust-m/optiga/util\optiga_util.c ****         // set option to read data
 740              	 .loc 1 343 0
 741 0048 6380     	 strh r3,[r4,#2]
 346:C:/Workspace/DAVE-4.4.2-64Bit/optiga-trust-m/optiga/util\optiga_util.c ****         p_params->buffer = buffer;
 742              	 .loc 1 346 0
 743 004a 009B     	 ldr r3,[sp]
 347:C:/Workspace/DAVE-4.4.2-64Bit/optiga-trust-m/optiga/util\optiga_util.c ****         p_params->bytes_to_read = *length;
 348:C:/Workspace/DAVE-4.4.2-64Bit/optiga-trust-m/optiga/util\optiga_util.c ****         p_params->ref_bytes_to_read = length;
 349:C:/Workspace/DAVE-4.4.2-64Bit/optiga-trust-m/optiga/util\optiga_util.c ****         p_params->accumulated_size = 0;
 350:C:/Workspace/DAVE-4.4.2-64Bit/optiga-trust-m/optiga/util\optiga_util.c ****         p_params->last_read_size = 0;
 351:C:/Workspace/DAVE-4.4.2-64Bit/optiga-trust-m/optiga/util\optiga_util.c **** 
 352:C:/Workspace/DAVE-4.4.2-64Bit/optiga-trust-m/optiga/util\optiga_util.c ****         OPTIGA_PROTECTION_ENABLE(me->my_cmd, me);
 744              	 .loc 1 352 0
 745 004c 381C     	 mov r0,r7
 346:C:/Workspace/DAVE-4.4.2-64Bit/optiga-trust-m/optiga/util\optiga_util.c ****         p_params->buffer = buffer;
 746              	 .loc 1 346 0
 747 004e 2361     	 str r3,[r4,#16]
 347:C:/Workspace/DAVE-4.4.2-64Bit/optiga-trust-m/optiga/util\optiga_util.c ****         p_params->bytes_to_read = *length;
 748              	 .loc 1 347 0
 749 0050 089B     	 ldr r3,[sp,#32]
 750              	 .loc 1 352 0
 751 0052 2A1C     	 mov r2,r5
 347:C:/Workspace/DAVE-4.4.2-64Bit/optiga-trust-m/optiga/util\optiga_util.c ****         p_params->bytes_to_read = *length;
 752              	 .loc 1 347 0
 753 0054 1B88     	 ldrh r3,[r3]
 349:C:/Workspace/DAVE-4.4.2-64Bit/optiga-trust-m/optiga/util\optiga_util.c ****         p_params->last_read_size = 0;
 754              	 .loc 1 349 0
 755 0056 E580     	 strh r5,[r4,#6]
 347:C:/Workspace/DAVE-4.4.2-64Bit/optiga-trust-m/optiga/util\optiga_util.c ****         p_params->bytes_to_read = *length;
 756              	 .loc 1 347 0
 757 0058 A380     	 strh r3,[r4,#4]
 348:C:/Workspace/DAVE-4.4.2-64Bit/optiga-trust-m/optiga/util\optiga_util.c ****         p_params->accumulated_size = 0;
 758              	 .loc 1 348 0
 759 005a 089B     	 ldr r3,[sp,#32]
 350:C:/Workspace/DAVE-4.4.2-64Bit/optiga-trust-m/optiga/util\optiga_util.c **** 
 760              	 .loc 1 350 0
 761 005c 2581     	 strh r5,[r4,#8]
 348:C:/Workspace/DAVE-4.4.2-64Bit/optiga-trust-m/optiga/util\optiga_util.c ****         p_params->accumulated_size = 0;
 762              	 .loc 1 348 0
 763 005e E360     	 str r3,[r4,#12]
 764              	 .loc 1 352 0
 765 0060 E31C     	 add r3,r4,#3
 766 0062 D97F     	 ldrb r1,[r3,#31]
 767 0064 FFF7FEFF 	 bl optiga_cmd_set_shielded_connection_option
 768              	.LVL85:
 353:C:/Workspace/DAVE-4.4.2-64Bit/optiga-trust-m/optiga/util\optiga_util.c ****         OPTIGA_PROTECTION_SET_VERSION(me->my_cmd, me);
 769              	 .loc 1 353 0
 770 0068 231D     	 add r3,r4,#4
 771 006a D97F     	 ldrb r1,[r3,#31]
 772 006c 321C     	 mov r2,r6
 773 006e 6069     	 ldr r0,[r4,#20]
 774 0070 FFF7FEFF 	 bl optiga_cmd_set_shielded_connection_option
 775              	.LVL86:
 354:C:/Workspace/DAVE-4.4.2-64Bit/optiga-trust-m/optiga/util\optiga_util.c **** 
 355:C:/Workspace/DAVE-4.4.2-64Bit/optiga-trust-m/optiga/util\optiga_util.c ****         return_value = optiga_cmd_get_data_object(me->my_cmd, p_params->data_or_metadata, p_params)
 776              	 .loc 1 355 0
 777 0074 A17A     	 ldrb r1,[r4,#10]
 778 0076 6069     	 ldr r0,[r4,#20]
 779 0078 221C     	 mov r2,r4
 780 007a FFF7FEFF 	 bl optiga_cmd_get_data_object
 781              	.LVL87:
 782 007e 061E     	 sub r6,r0,#0
 783              	.LVL88:
 356:C:/Workspace/DAVE-4.4.2-64Bit/optiga-trust-m/optiga/util\optiga_util.c ****         if (OPTIGA_LIB_SUCCESS != return_value)
 784              	 .loc 1 356 0
 785 0080 AE42     	 cmp r6,r5
 786 0082 04D0     	 beq .L68
 357:C:/Workspace/DAVE-4.4.2-64Bit/optiga-trust-m/optiga/util\optiga_util.c ****         {
 358:C:/Workspace/DAVE-4.4.2-64Bit/optiga-trust-m/optiga/util\optiga_util.c ****             me->instance_state = OPTIGA_LIB_INSTANCE_FREE;
 787              	 .loc 1 358 0
 788 0084 2584     	 strh r5,[r4,#32]
 789 0086 02E0     	 b .L68
 790              	.LVL89:
 791              	.L72:
 327:C:/Workspace/DAVE-4.4.2-64Bit/optiga-trust-m/optiga/util\optiga_util.c ****             break;
 792              	 .loc 1 327 0
 793 0088 064E     	 ldr r6,.L77+12
 794 008a 00E0     	 b .L68
 795              	.L73:
 334:C:/Workspace/DAVE-4.4.2-64Bit/optiga-trust-m/optiga/util\optiga_util.c ****             break;
 796              	 .loc 1 334 0
 797 008c 064E     	 ldr r6,.L77+16
 798              	.LVL90:
 799              	.L68:
 359:C:/Workspace/DAVE-4.4.2-64Bit/optiga-trust-m/optiga/util\optiga_util.c ****         }
 360:C:/Workspace/DAVE-4.4.2-64Bit/optiga-trust-m/optiga/util\optiga_util.c **** 
 361:C:/Workspace/DAVE-4.4.2-64Bit/optiga-trust-m/optiga/util\optiga_util.c ****     } while (FALSE);
 362:C:/Workspace/DAVE-4.4.2-64Bit/optiga-trust-m/optiga/util\optiga_util.c ****     optiga_util_reset_protection_level(me);
 800              	 .loc 1 362 0
 801 008e 201C     	 mov r0,r4
 802 0090 FFF7FEFF 	 bl optiga_util_reset_protection_level
 803              	.LVL91:
 363:C:/Workspace/DAVE-4.4.2-64Bit/optiga-trust-m/optiga/util\optiga_util.c **** 
 364:C:/Workspace/DAVE-4.4.2-64Bit/optiga-trust-m/optiga/util\optiga_util.c ****     return (return_value);
 365:C:/Workspace/DAVE-4.4.2-64Bit/optiga-trust-m/optiga/util\optiga_util.c **** }
 804              	 .loc 1 365 0
 805              	 
 806 0094 301C     	 mov r0,r6
 807              	.LVL92:
 808              	.LVL93:
 809 0096 FEBD     	 pop {r1,r2,r3,r4,r5,r6,r7,pc}
 810              	.L78:
 811              	 .align 2
 812              	.L77:
 813 0098 00000000 	 .word .LANCHOR2
 814 009c 00000000 	 .word .LC2
 815 00a0 15000000 	 .word .LC4
 816 00a4 03030000 	 .word 771
 817 00a8 05030000 	 .word 773
 818              	 .cfi_endproc
 819              	.LFE8:
 821              	 .section .text.optiga_util_read_metadata,"ax",%progbits
 822              	 .align 1
 823              	 .global optiga_util_read_metadata
 824              	 .code 16
 825              	 .thumb_func
 827              	optiga_util_read_metadata:
 828              	.LFB9:
 366:C:/Workspace/DAVE-4.4.2-64Bit/optiga-trust-m/optiga/util\optiga_util.c **** 
 367:C:/Workspace/DAVE-4.4.2-64Bit/optiga-trust-m/optiga/util\optiga_util.c **** optiga_lib_status_t optiga_util_read_metadata(optiga_util_t * me,
 368:C:/Workspace/DAVE-4.4.2-64Bit/optiga-trust-m/optiga/util\optiga_util.c ****                                               uint16_t optiga_oid,
 369:C:/Workspace/DAVE-4.4.2-64Bit/optiga-trust-m/optiga/util\optiga_util.c ****                                               uint8_t * buffer,
 370:C:/Workspace/DAVE-4.4.2-64Bit/optiga-trust-m/optiga/util\optiga_util.c ****                                               uint16_t * length)
 371:C:/Workspace/DAVE-4.4.2-64Bit/optiga-trust-m/optiga/util\optiga_util.c **** {
 829              	 .loc 1 371 0
 830              	 .cfi_startproc
 831              	.LVL94:
 832 0000 F7B5     	 push {r0,r1,r2,r4,r5,r6,r7,lr}
 833              	.LCFI8:
 834              	 .cfi_def_cfa_offset 32
 835              	 .cfi_offset 0,-32
 836              	 .cfi_offset 1,-28
 837              	 .cfi_offset 2,-24
 838              	 .cfi_offset 4,-20
 839              	 .cfi_offset 5,-16
 840              	 .cfi_offset 6,-12
 841              	 .cfi_offset 7,-8
 842              	 .cfi_offset 14,-4
 843              	 .loc 1 371 0
 844 0002 041C     	 mov r4,r0
 845 0004 0D1C     	 mov r5,r1
 846 0006 0192     	 str r2,[sp,#4]
 372:C:/Workspace/DAVE-4.4.2-64Bit/optiga-trust-m/optiga/util\optiga_util.c ****     optiga_lib_status_t return_value = OPTIGA_UTIL_ERROR;
 373:C:/Workspace/DAVE-4.4.2-64Bit/optiga-trust-m/optiga/util\optiga_util.c ****     optiga_get_data_object_params_t * p_params;
 374:C:/Workspace/DAVE-4.4.2-64Bit/optiga-trust-m/optiga/util\optiga_util.c ****     OPTIGA_UTIL_LOG_MESSAGE(__FUNCTION__);
 847              	 .loc 1 374 0
 848 0008 2148     	 ldr r0,.L89
 849              	.LVL95:
 850 000a 2249     	 ldr r1,.L89+4
 851              	.LVL96:
 852 000c 224A     	 ldr r2,.L89+8
 853              	.LVL97:
 371:C:/Workspace/DAVE-4.4.2-64Bit/optiga-trust-m/optiga/util\optiga_util.c ****     optiga_lib_status_t return_value = OPTIGA_UTIL_ERROR;
 854              	 .loc 1 371 0
 855 000e 1F1C     	 mov r7,r3
 856              	 .loc 1 374 0
 857 0010 FFF7FEFF 	 bl optiga_lib_print_message
 858              	.LVL98:
 375:C:/Workspace/DAVE-4.4.2-64Bit/optiga-trust-m/optiga/util\optiga_util.c ****     do
 376:C:/Workspace/DAVE-4.4.2-64Bit/optiga-trust-m/optiga/util\optiga_util.c ****     {
 377:C:/Workspace/DAVE-4.4.2-64Bit/optiga-trust-m/optiga/util\optiga_util.c **** #ifdef OPTIGA_LIB_DEBUG_NULL_CHECK
 378:C:/Workspace/DAVE-4.4.2-64Bit/optiga-trust-m/optiga/util\optiga_util.c ****         if ((NULL == me) || (NULL == me->my_cmd) ||
 859              	 .loc 1 378 0
 860 0014 002C     	 cmp r4,#0
 861 0016 33D0     	 beq .L84
 862              	 .loc 1 378 0 is_stmt 0 discriminator 1
 863 0018 6369     	 ldr r3,[r4,#20]
 864 001a 0093     	 str r3,[sp]
 865 001c 002B     	 cmp r3,#0
 866 001e 2FD0     	 beq .L84
 867              	 .loc 1 378 0 discriminator 2
 868 0020 019B     	 ldr r3,[sp,#4]
 869 0022 002B     	 cmp r3,#0
 870 0024 2CD0     	 beq .L84
 379:C:/Workspace/DAVE-4.4.2-64Bit/optiga-trust-m/optiga/util\optiga_util.c ****             (NULL == buffer) || (NULL == length))
 871              	 .loc 1 379 0 is_stmt 1
 872 0026 002F     	 cmp r7,#0
 873 0028 2AD0     	 beq .L84
 380:C:/Workspace/DAVE-4.4.2-64Bit/optiga-trust-m/optiga/util\optiga_util.c ****         {
 381:C:/Workspace/DAVE-4.4.2-64Bit/optiga-trust-m/optiga/util\optiga_util.c ****             return_value = OPTIGA_UTIL_ERROR_INVALID_INPUT;
 382:C:/Workspace/DAVE-4.4.2-64Bit/optiga-trust-m/optiga/util\optiga_util.c ****             break;
 383:C:/Workspace/DAVE-4.4.2-64Bit/optiga-trust-m/optiga/util\optiga_util.c ****         }
 384:C:/Workspace/DAVE-4.4.2-64Bit/optiga-trust-m/optiga/util\optiga_util.c **** #endif
 385:C:/Workspace/DAVE-4.4.2-64Bit/optiga-trust-m/optiga/util\optiga_util.c **** 
 386:C:/Workspace/DAVE-4.4.2-64Bit/optiga-trust-m/optiga/util\optiga_util.c ****         if (OPTIGA_LIB_INSTANCE_BUSY == me->instance_state)
 874              	 .loc 1 386 0
 875 002a 238C     	 ldrh r3,[r4,#32]
 876 002c 012B     	 cmp r3,#1
 877 002e 29D0     	 beq .L85
 387:C:/Workspace/DAVE-4.4.2-64Bit/optiga-trust-m/optiga/util\optiga_util.c ****         {
 388:C:/Workspace/DAVE-4.4.2-64Bit/optiga-trust-m/optiga/util\optiga_util.c ****             return_value = OPTIGA_UTIL_ERROR_INSTANCE_IN_USE;
 389:C:/Workspace/DAVE-4.4.2-64Bit/optiga-trust-m/optiga/util\optiga_util.c ****             break;
 390:C:/Workspace/DAVE-4.4.2-64Bit/optiga-trust-m/optiga/util\optiga_util.c ****         }
 391:C:/Workspace/DAVE-4.4.2-64Bit/optiga-trust-m/optiga/util\optiga_util.c **** 
 392:C:/Workspace/DAVE-4.4.2-64Bit/optiga-trust-m/optiga/util\optiga_util.c ****         me->instance_state = OPTIGA_LIB_INSTANCE_BUSY;
 878              	 .loc 1 392 0
 879 0030 0126     	 mov r6,#1
 393:C:/Workspace/DAVE-4.4.2-64Bit/optiga-trust-m/optiga/util\optiga_util.c ****         p_params = (optiga_get_data_object_params_t *)&(me->params.optiga_get_data_object_params);
 394:C:/Workspace/DAVE-4.4.2-64Bit/optiga-trust-m/optiga/util\optiga_util.c ****         pal_os_memset(&me->params,0x00,sizeof(optiga_util_params_t));
 880              	 .loc 1 394 0
 881 0032 0021     	 mov r1,#0
 392:C:/Workspace/DAVE-4.4.2-64Bit/optiga-trust-m/optiga/util\optiga_util.c ****         p_params = (optiga_get_data_object_params_t *)&(me->params.optiga_get_data_object_params);
 882              	 .loc 1 392 0
 883 0034 2684     	 strh r6,[r4,#32]
 884              	.LVL99:
 885              	 .loc 1 394 0
 886 0036 1422     	 mov r2,#20
 887 0038 201C     	 mov r0,r4
 888 003a FFF7FEFF 	 bl memset
 889              	.LVL100:
 395:C:/Workspace/DAVE-4.4.2-64Bit/optiga-trust-m/optiga/util\optiga_util.c **** 
 396:C:/Workspace/DAVE-4.4.2-64Bit/optiga-trust-m/optiga/util\optiga_util.c ****         p_params->oid = optiga_oid;
 890              	 .loc 1 396 0
 891 003e 2580     	 strh r5,[r4]
 397:C:/Workspace/DAVE-4.4.2-64Bit/optiga-trust-m/optiga/util\optiga_util.c ****         p_params->offset = 0;
 892              	 .loc 1 397 0
 893 0040 0025     	 mov r5,#0
 398:C:/Workspace/DAVE-4.4.2-64Bit/optiga-trust-m/optiga/util\optiga_util.c ****         // set option to read metadata
 399:C:/Workspace/DAVE-4.4.2-64Bit/optiga-trust-m/optiga/util\optiga_util.c ****         p_params->data_or_metadata = 1;//for metadata
 400:C:/Workspace/DAVE-4.4.2-64Bit/optiga-trust-m/optiga/util\optiga_util.c ****         p_params->buffer = buffer;
 894              	 .loc 1 400 0
 895 0042 019B     	 ldr r3,[sp,#4]
 399:C:/Workspace/DAVE-4.4.2-64Bit/optiga-trust-m/optiga/util\optiga_util.c ****         p_params->buffer = buffer;
 896              	 .loc 1 399 0
 897 0044 A672     	 strb r6,[r4,#10]
 397:C:/Workspace/DAVE-4.4.2-64Bit/optiga-trust-m/optiga/util\optiga_util.c ****         p_params->offset = 0;
 898              	 .loc 1 397 0
 899 0046 6580     	 strh r5,[r4,#2]
 900              	 .loc 1 400 0
 901 0048 2361     	 str r3,[r4,#16]
 401:C:/Workspace/DAVE-4.4.2-64Bit/optiga-trust-m/optiga/util\optiga_util.c ****         p_params->bytes_to_read = *length;
 902              	 .loc 1 401 0
 903 004a 3B88     	 ldrh r3,[r7]
 402:C:/Workspace/DAVE-4.4.2-64Bit/optiga-trust-m/optiga/util\optiga_util.c ****         p_params->ref_bytes_to_read = length;
 904              	 .loc 1 402 0
 905 004c E760     	 str r7,[r4,#12]
 401:C:/Workspace/DAVE-4.4.2-64Bit/optiga-trust-m/optiga/util\optiga_util.c ****         p_params->bytes_to_read = *length;
 906              	 .loc 1 401 0
 907 004e A380     	 strh r3,[r4,#4]
 403:C:/Workspace/DAVE-4.4.2-64Bit/optiga-trust-m/optiga/util\optiga_util.c ****         p_params->accumulated_size = 0;
 908              	 .loc 1 403 0
 909 0050 E580     	 strh r5,[r4,#6]
 404:C:/Workspace/DAVE-4.4.2-64Bit/optiga-trust-m/optiga/util\optiga_util.c ****         p_params->last_read_size = 0;
 405:C:/Workspace/DAVE-4.4.2-64Bit/optiga-trust-m/optiga/util\optiga_util.c ****         OPTIGA_PROTECTION_ENABLE(me->my_cmd, me);
 910              	 .loc 1 405 0
 911 0052 E31C     	 add r3,r4,#3
 404:C:/Workspace/DAVE-4.4.2-64Bit/optiga-trust-m/optiga/util\optiga_util.c ****         p_params->last_read_size = 0;
 912              	 .loc 1 404 0
 913 0054 2581     	 strh r5,[r4,#8]
 914              	 .loc 1 405 0
 915 0056 D97F     	 ldrb r1,[r3,#31]
 916 0058 0098     	 ldr r0,[sp]
 917 005a 2A1C     	 mov r2,r5
 918 005c FFF7FEFF 	 bl optiga_cmd_set_shielded_connection_option
 919              	.LVL101:
 406:C:/Workspace/DAVE-4.4.2-64Bit/optiga-trust-m/optiga/util\optiga_util.c ****         OPTIGA_PROTECTION_SET_VERSION(me->my_cmd, me);
 920              	 .loc 1 406 0
 921 0060 231D     	 add r3,r4,#4
 922 0062 D97F     	 ldrb r1,[r3,#31]
 923 0064 321C     	 mov r2,r6
 924 0066 6069     	 ldr r0,[r4,#20]
 925 0068 FFF7FEFF 	 bl optiga_cmd_set_shielded_connection_option
 926              	.LVL102:
 407:C:/Workspace/DAVE-4.4.2-64Bit/optiga-trust-m/optiga/util\optiga_util.c **** 
 408:C:/Workspace/DAVE-4.4.2-64Bit/optiga-trust-m/optiga/util\optiga_util.c ****         return_value = optiga_cmd_get_data_object(me->my_cmd, p_params->data_or_metadata,
 927              	 .loc 1 408 0
 928 006c A17A     	 ldrb r1,[r4,#10]
 929 006e 6069     	 ldr r0,[r4,#20]
 930 0070 221C     	 mov r2,r4
 931 0072 FFF7FEFF 	 bl optiga_cmd_get_data_object
 932              	.LVL103:
 933 0076 061E     	 sub r6,r0,#0
 934              	.LVL104:
 409:C:/Workspace/DAVE-4.4.2-64Bit/optiga-trust-m/optiga/util\optiga_util.c ****                                                   (optiga_get_data_object_params_t *)p_params);
 410:C:/Workspace/DAVE-4.4.2-64Bit/optiga-trust-m/optiga/util\optiga_util.c ****         if (OPTIGA_LIB_SUCCESS != return_value)
 935              	 .loc 1 410 0
 936 0078 AE42     	 cmp r6,r5
 937 007a 04D0     	 beq .L80
 411:C:/Workspace/DAVE-4.4.2-64Bit/optiga-trust-m/optiga/util\optiga_util.c ****         {
 412:C:/Workspace/DAVE-4.4.2-64Bit/optiga-trust-m/optiga/util\optiga_util.c ****             me->instance_state = OPTIGA_LIB_INSTANCE_FREE;
 938              	 .loc 1 412 0
 939 007c 2584     	 strh r5,[r4,#32]
 940 007e 02E0     	 b .L80
 941              	.LVL105:
 942              	.L84:
 381:C:/Workspace/DAVE-4.4.2-64Bit/optiga-trust-m/optiga/util\optiga_util.c ****             break;
 943              	 .loc 1 381 0
 944 0080 064E     	 ldr r6,.L89+12
 945 0082 00E0     	 b .L80
 946              	.L85:
 388:C:/Workspace/DAVE-4.4.2-64Bit/optiga-trust-m/optiga/util\optiga_util.c ****             break;
 947              	 .loc 1 388 0
 948 0084 064E     	 ldr r6,.L89+16
 949              	.LVL106:
 950              	.L80:
 413:C:/Workspace/DAVE-4.4.2-64Bit/optiga-trust-m/optiga/util\optiga_util.c ****         }
 414:C:/Workspace/DAVE-4.4.2-64Bit/optiga-trust-m/optiga/util\optiga_util.c ****     } while (FALSE);
 415:C:/Workspace/DAVE-4.4.2-64Bit/optiga-trust-m/optiga/util\optiga_util.c ****     optiga_util_reset_protection_level(me);
 951              	 .loc 1 415 0
 952 0086 201C     	 mov r0,r4
 953 0088 FFF7FEFF 	 bl optiga_util_reset_protection_level
 954              	.LVL107:
 416:C:/Workspace/DAVE-4.4.2-64Bit/optiga-trust-m/optiga/util\optiga_util.c **** 
 417:C:/Workspace/DAVE-4.4.2-64Bit/optiga-trust-m/optiga/util\optiga_util.c ****     return (return_value);
 418:C:/Workspace/DAVE-4.4.2-64Bit/optiga-trust-m/optiga/util\optiga_util.c **** }
 955              	 .loc 1 418 0
 956              	 
 957 008c 301C     	 mov r0,r6
 958              	.LVL108:
 959              	.LVL109:
 960              	.LVL110:
 961 008e FEBD     	 pop {r1,r2,r3,r4,r5,r6,r7,pc}
 962              	.L90:
 963              	 .align 2
 964              	.L89:
 965 0090 00000000 	 .word .LANCHOR3
 966 0094 00000000 	 .word .LC2
 967 0098 15000000 	 .word .LC4
 968 009c 03030000 	 .word 771
 969 00a0 05030000 	 .word 773
 970              	 .cfi_endproc
 971              	.LFE9:
 973              	 .section .text.optiga_util_write_data,"ax",%progbits
 974              	 .align 1
 975              	 .global optiga_util_write_data
 976              	 .code 16
 977              	 .thumb_func
 979              	optiga_util_write_data:
 980              	.LFB10:
 419:C:/Workspace/DAVE-4.4.2-64Bit/optiga-trust-m/optiga/util\optiga_util.c **** 
 420:C:/Workspace/DAVE-4.4.2-64Bit/optiga-trust-m/optiga/util\optiga_util.c **** optiga_lib_status_t optiga_util_write_data(optiga_util_t * me,
 421:C:/Workspace/DAVE-4.4.2-64Bit/optiga-trust-m/optiga/util\optiga_util.c ****                                            uint16_t optiga_oid,
 422:C:/Workspace/DAVE-4.4.2-64Bit/optiga-trust-m/optiga/util\optiga_util.c ****                                            uint8_t write_type,
 423:C:/Workspace/DAVE-4.4.2-64Bit/optiga-trust-m/optiga/util\optiga_util.c ****                                            uint16_t offset,
 424:C:/Workspace/DAVE-4.4.2-64Bit/optiga-trust-m/optiga/util\optiga_util.c ****                                            const uint8_t * buffer,
 425:C:/Workspace/DAVE-4.4.2-64Bit/optiga-trust-m/optiga/util\optiga_util.c ****                                            uint16_t length)
 426:C:/Workspace/DAVE-4.4.2-64Bit/optiga-trust-m/optiga/util\optiga_util.c **** {
 981              	 .loc 1 426 0
 982              	 .cfi_startproc
 983              	.LVL111:
 984 0000 F0B5     	 push {r4,r5,r6,r7,lr}
 985              	.LCFI9:
 986              	 .cfi_def_cfa_offset 20
 987              	 .cfi_offset 4,-20
 988              	 .cfi_offset 5,-16
 989              	 .cfi_offset 6,-12
 990              	 .cfi_offset 7,-8
 991              	 .cfi_offset 14,-4
 992 0002 141C     	 mov r4,r2
 993 0004 85B0     	 sub sp,sp,#20
 994              	.LCFI10:
 995              	 .cfi_def_cfa_offset 40
 996              	 .loc 1 426 0
 997 0006 0293     	 str r3,[sp,#8]
 998 0008 0AAB     	 add r3,sp,#40
 999              	.LVL112:
 1000 000a 80CB     	 ldmia r3!,{r7}
 1001              	.LVL113:
 427:C:/Workspace/DAVE-4.4.2-64Bit/optiga-trust-m/optiga/util\optiga_util.c ****     optiga_lib_status_t return_value = OPTIGA_UTIL_ERROR_INVALID_INPUT;
 428:C:/Workspace/DAVE-4.4.2-64Bit/optiga-trust-m/optiga/util\optiga_util.c ****     OPTIGA_UTIL_LOG_MESSAGE(__FUNCTION__);
 1002              	 .loc 1 428 0
 1003 000c 0C4A     	 ldr r2,.L94
 1004              	.LVL114:
 426:C:/Workspace/DAVE-4.4.2-64Bit/optiga-trust-m/optiga/util\optiga_util.c ****     optiga_lib_status_t return_value = OPTIGA_UTIL_ERROR_INVALID_INPUT;
 1005              	 .loc 1 426 0
 1006 000e 1B88     	 ldrh r3,[r3]
 1007              	.LVL115:
 1008 0010 061C     	 mov r6,r0
 1009 0012 0D1C     	 mov r5,r1
 1010              	 .loc 1 428 0
 1011 0014 0B48     	 ldr r0,.L94+4
 1012              	.LVL116:
 1013 0016 0C49     	 ldr r1,.L94+8
 1014              	.LVL117:
 426:C:/Workspace/DAVE-4.4.2-64Bit/optiga-trust-m/optiga/util\optiga_util.c ****     optiga_lib_status_t return_value = OPTIGA_UTIL_ERROR_INVALID_INPUT;
 1015              	 .loc 1 426 0
 1016 0018 0393     	 str r3,[sp,#12]
 1017              	 .loc 1 428 0
 1018 001a FFF7FEFF 	 bl optiga_lib_print_message
 1019              	.LVL118:
 429:C:/Workspace/DAVE-4.4.2-64Bit/optiga-trust-m/optiga/util\optiga_util.c ****     do
 430:C:/Workspace/DAVE-4.4.2-64Bit/optiga-trust-m/optiga/util\optiga_util.c ****     {
 431:C:/Workspace/DAVE-4.4.2-64Bit/optiga-trust-m/optiga/util\optiga_util.c ****         if ((OPTIGA_UTIL_WRITE_ONLY != write_type) && (OPTIGA_UTIL_ERASE_AND_WRITE != write_type))
 1020              	 .loc 1 431 0
 1021 001e 4023     	 mov r3,#64
 1022 0020 221C     	 mov r2,r4
 1023 0022 9A43     	 bic r2,r3
 1024 0024 09D1     	 bne .L93
 432:C:/Workspace/DAVE-4.4.2-64Bit/optiga-trust-m/optiga/util\optiga_util.c ****         {
 433:C:/Workspace/DAVE-4.4.2-64Bit/optiga-trust-m/optiga/util\optiga_util.c ****             break;
 434:C:/Workspace/DAVE-4.4.2-64Bit/optiga-trust-m/optiga/util\optiga_util.c ****         }
 435:C:/Workspace/DAVE-4.4.2-64Bit/optiga-trust-m/optiga/util\optiga_util.c ****         return_value =  optiga_util_write_data_wrapper(me,
 1025              	 .loc 1 435 0
 1026 0026 039B     	 ldr r3,[sp,#12]
 1027 0028 0097     	 str r7,[sp]
 1028 002a 0193     	 str r3,[sp,#4]
 1029 002c 301C     	 mov r0,r6
 1030 002e 291C     	 mov r1,r5
 1031 0030 221C     	 mov r2,r4
 1032 0032 029B     	 ldr r3,[sp,#8]
 1033 0034 FFF7FEFF 	 bl optiga_util_write_data_wrapper
 1034              	.LVL119:
 1035 0038 00E0     	 b .L92
 1036              	.LVL120:
 1037              	.L93:
 427:C:/Workspace/DAVE-4.4.2-64Bit/optiga-trust-m/optiga/util\optiga_util.c ****     OPTIGA_UTIL_LOG_MESSAGE(__FUNCTION__);
 1038              	 .loc 1 427 0
 1039 003a 0448     	 ldr r0,.L94+12
 1040              	.LVL121:
 1041              	.L92:
 436:C:/Workspace/DAVE-4.4.2-64Bit/optiga-trust-m/optiga/util\optiga_util.c ****                                                        optiga_oid,
 437:C:/Workspace/DAVE-4.4.2-64Bit/optiga-trust-m/optiga/util\optiga_util.c ****                                                        write_type,
 438:C:/Workspace/DAVE-4.4.2-64Bit/optiga-trust-m/optiga/util\optiga_util.c ****                                                        offset,
 439:C:/Workspace/DAVE-4.4.2-64Bit/optiga-trust-m/optiga/util\optiga_util.c ****                                                        buffer,
 440:C:/Workspace/DAVE-4.4.2-64Bit/optiga-trust-m/optiga/util\optiga_util.c ****                                                        length);
 441:C:/Workspace/DAVE-4.4.2-64Bit/optiga-trust-m/optiga/util\optiga_util.c ****     } while (FALSE);
 442:C:/Workspace/DAVE-4.4.2-64Bit/optiga-trust-m/optiga/util\optiga_util.c ****     return (return_value);
 443:C:/Workspace/DAVE-4.4.2-64Bit/optiga-trust-m/optiga/util\optiga_util.c **** }
 1042              	 .loc 1 443 0
 1043 003c 05B0     	 add sp,sp,#20
 1044              	 
 1045              	.LVL122:
 1046 003e F0BD     	 pop {r4,r5,r6,r7,pc}
 1047              	.L95:
 1048              	 .align 2
 1049              	.L94:
 1050 0040 15000000 	 .word .LC4
 1051 0044 00000000 	 .word .LANCHOR4
 1052 0048 00000000 	 .word .LC2
 1053 004c 03030000 	 .word 771
 1054              	 .cfi_endproc
 1055              	.LFE10:
 1057              	 .section .text.optiga_util_write_metadata,"ax",%progbits
 1058              	 .align 1
 1059              	 .global optiga_util_write_metadata
 1060              	 .code 16
 1061              	 .thumb_func
 1063              	optiga_util_write_metadata:
 1064              	.LFB11:
 444:C:/Workspace/DAVE-4.4.2-64Bit/optiga-trust-m/optiga/util\optiga_util.c **** 
 445:C:/Workspace/DAVE-4.4.2-64Bit/optiga-trust-m/optiga/util\optiga_util.c **** optiga_lib_status_t optiga_util_write_metadata(optiga_util_t * me,
 446:C:/Workspace/DAVE-4.4.2-64Bit/optiga-trust-m/optiga/util\optiga_util.c ****                                                uint16_t optiga_oid,
 447:C:/Workspace/DAVE-4.4.2-64Bit/optiga-trust-m/optiga/util\optiga_util.c ****                                                const uint8_t * buffer,
 448:C:/Workspace/DAVE-4.4.2-64Bit/optiga-trust-m/optiga/util\optiga_util.c ****                                                uint8_t length)
 449:C:/Workspace/DAVE-4.4.2-64Bit/optiga-trust-m/optiga/util\optiga_util.c **** {
 1065              	 .loc 1 449 0
 1066              	 .cfi_startproc
 1067              	.LVL123:
 1068 0000 F7B5     	 push {r0,r1,r2,r4,r5,r6,r7,lr}
 1069              	.LCFI11:
 1070              	 .cfi_def_cfa_offset 32
 1071              	 .cfi_offset 0,-32
 1072              	 .cfi_offset 1,-28
 1073              	 .cfi_offset 2,-24
 1074              	 .cfi_offset 4,-20
 1075              	 .cfi_offset 5,-16
 1076              	 .cfi_offset 6,-12
 1077              	 .cfi_offset 7,-8
 1078              	 .cfi_offset 14,-4
 1079              	 .loc 1 449 0
 1080 0002 041C     	 mov r4,r0
 1081 0004 0D1C     	 mov r5,r1
 1082 0006 171C     	 mov r7,r2
 450:C:/Workspace/DAVE-4.4.2-64Bit/optiga-trust-m/optiga/util\optiga_util.c ****     optiga_lib_status_t return_value = OPTIGA_UTIL_ERROR;
 451:C:/Workspace/DAVE-4.4.2-64Bit/optiga-trust-m/optiga/util\optiga_util.c ****     optiga_set_data_object_params_t * p_params;
 452:C:/Workspace/DAVE-4.4.2-64Bit/optiga-trust-m/optiga/util\optiga_util.c ****     OPTIGA_UTIL_LOG_MESSAGE(__FUNCTION__);
 1083              	 .loc 1 452 0
 1084 0008 1F48     	 ldr r0,.L105
 1085              	.LVL124:
 1086 000a 2049     	 ldr r1,.L105+4
 1087              	.LVL125:
 1088 000c 204A     	 ldr r2,.L105+8
 1089              	.LVL126:
 449:C:/Workspace/DAVE-4.4.2-64Bit/optiga-trust-m/optiga/util\optiga_util.c ****     optiga_lib_status_t return_value = OPTIGA_UTIL_ERROR;
 1090              	 .loc 1 449 0
 1091 000e 0193     	 str r3,[sp,#4]
 1092              	 .loc 1 452 0
 1093 0010 FFF7FEFF 	 bl optiga_lib_print_message
 1094              	.LVL127:
 453:C:/Workspace/DAVE-4.4.2-64Bit/optiga-trust-m/optiga/util\optiga_util.c ****     do
 454:C:/Workspace/DAVE-4.4.2-64Bit/optiga-trust-m/optiga/util\optiga_util.c ****     {
 455:C:/Workspace/DAVE-4.4.2-64Bit/optiga-trust-m/optiga/util\optiga_util.c **** #ifdef OPTIGA_LIB_DEBUG_NULL_CHECK
 456:C:/Workspace/DAVE-4.4.2-64Bit/optiga-trust-m/optiga/util\optiga_util.c ****         if ((NULL == me) || (NULL == me->my_cmd) || (NULL == buffer))
 1095              	 .loc 1 456 0
 1096 0014 002C     	 cmp r4,#0
 1097 0016 2FD0     	 beq .L100
 1098              	 .loc 1 456 0 is_stmt 0 discriminator 1
 1099 0018 6369     	 ldr r3,[r4,#20]
 1100 001a 0093     	 str r3,[sp]
 1101 001c 002B     	 cmp r3,#0
 1102 001e 2BD0     	 beq .L100
 1103              	 .loc 1 456 0 discriminator 2
 1104 0020 002F     	 cmp r7,#0
 1105 0022 29D0     	 beq .L100
 457:C:/Workspace/DAVE-4.4.2-64Bit/optiga-trust-m/optiga/util\optiga_util.c ****         {
 458:C:/Workspace/DAVE-4.4.2-64Bit/optiga-trust-m/optiga/util\optiga_util.c ****             return_value = OPTIGA_UTIL_ERROR_INVALID_INPUT;
 459:C:/Workspace/DAVE-4.4.2-64Bit/optiga-trust-m/optiga/util\optiga_util.c ****             break;
 460:C:/Workspace/DAVE-4.4.2-64Bit/optiga-trust-m/optiga/util\optiga_util.c ****         }
 461:C:/Workspace/DAVE-4.4.2-64Bit/optiga-trust-m/optiga/util\optiga_util.c **** #endif
 462:C:/Workspace/DAVE-4.4.2-64Bit/optiga-trust-m/optiga/util\optiga_util.c **** 
 463:C:/Workspace/DAVE-4.4.2-64Bit/optiga-trust-m/optiga/util\optiga_util.c ****         if (OPTIGA_LIB_INSTANCE_BUSY == me->instance_state)
 1106              	 .loc 1 463 0 is_stmt 1
 1107 0024 238C     	 ldrh r3,[r4,#32]
 1108 0026 012B     	 cmp r3,#1
 1109 0028 28D0     	 beq .L101
 464:C:/Workspace/DAVE-4.4.2-64Bit/optiga-trust-m/optiga/util\optiga_util.c ****         {
 465:C:/Workspace/DAVE-4.4.2-64Bit/optiga-trust-m/optiga/util\optiga_util.c ****             return_value = OPTIGA_UTIL_ERROR_INSTANCE_IN_USE;
 466:C:/Workspace/DAVE-4.4.2-64Bit/optiga-trust-m/optiga/util\optiga_util.c ****             break;
 467:C:/Workspace/DAVE-4.4.2-64Bit/optiga-trust-m/optiga/util\optiga_util.c ****         }
 468:C:/Workspace/DAVE-4.4.2-64Bit/optiga-trust-m/optiga/util\optiga_util.c **** 
 469:C:/Workspace/DAVE-4.4.2-64Bit/optiga-trust-m/optiga/util\optiga_util.c ****         me->instance_state = OPTIGA_LIB_INSTANCE_BUSY;
 1110              	 .loc 1 469 0
 1111 002a 0126     	 mov r6,#1
 470:C:/Workspace/DAVE-4.4.2-64Bit/optiga-trust-m/optiga/util\optiga_util.c ****         p_params = (optiga_set_data_object_params_t *)&(me->params.optiga_set_data_object_params);
 471:C:/Workspace/DAVE-4.4.2-64Bit/optiga-trust-m/optiga/util\optiga_util.c ****         pal_os_memset(&me->params,0x00,sizeof(optiga_util_params_t));
 1112              	 .loc 1 471 0
 1113 002c 0021     	 mov r1,#0
 469:C:/Workspace/DAVE-4.4.2-64Bit/optiga-trust-m/optiga/util\optiga_util.c ****         p_params = (optiga_set_data_object_params_t *)&(me->params.optiga_set_data_object_params);
 1114              	 .loc 1 469 0
 1115 002e 2684     	 strh r6,[r4,#32]
 1116              	.LVL128:
 1117              	 .loc 1 471 0
 1118 0030 1422     	 mov r2,#20
 1119 0032 201C     	 mov r0,r4
 1120 0034 FFF7FEFF 	 bl memset
 1121              	.LVL129:
 472:C:/Workspace/DAVE-4.4.2-64Bit/optiga-trust-m/optiga/util\optiga_util.c **** 
 473:C:/Workspace/DAVE-4.4.2-64Bit/optiga-trust-m/optiga/util\optiga_util.c ****         p_params->oid = optiga_oid;
 474:C:/Workspace/DAVE-4.4.2-64Bit/optiga-trust-m/optiga/util\optiga_util.c ****         p_params->offset = 0;
 475:C:/Workspace/DAVE-4.4.2-64Bit/optiga-trust-m/optiga/util\optiga_util.c ****         //for Metadata
 476:C:/Workspace/DAVE-4.4.2-64Bit/optiga-trust-m/optiga/util\optiga_util.c ****         p_params->data_or_metadata = 1;
 477:C:/Workspace/DAVE-4.4.2-64Bit/optiga-trust-m/optiga/util\optiga_util.c ****         p_params->buffer = buffer;
 478:C:/Workspace/DAVE-4.4.2-64Bit/optiga-trust-m/optiga/util\optiga_util.c ****         p_params->size = length;
 1122              	 .loc 1 478 0
 1123 0038 6B46     	 mov r3,sp
 473:C:/Workspace/DAVE-4.4.2-64Bit/optiga-trust-m/optiga/util\optiga_util.c ****         p_params->offset = 0;
 1124              	 .loc 1 473 0
 1125 003a 2580     	 strh r5,[r4]
 474:C:/Workspace/DAVE-4.4.2-64Bit/optiga-trust-m/optiga/util\optiga_util.c ****         //for Metadata
 1126              	 .loc 1 474 0
 1127 003c 0025     	 mov r5,#0
 1128              	 .loc 1 478 0
 1129 003e 9B88     	 ldrh r3,[r3,#4]
 476:C:/Workspace/DAVE-4.4.2-64Bit/optiga-trust-m/optiga/util\optiga_util.c ****         p_params->buffer = buffer;
 1130              	 .loc 1 476 0
 1131 0040 2673     	 strb r6,[r4,#12]
 1132              	 .loc 1 478 0
 1133 0042 A380     	 strh r3,[r4,#4]
 479:C:/Workspace/DAVE-4.4.2-64Bit/optiga-trust-m/optiga/util\optiga_util.c ****         p_params->write_type = 1;
 1134              	 .loc 1 479 0
 1135 0044 6673     	 strb r6,[r4,#13]
 480:C:/Workspace/DAVE-4.4.2-64Bit/optiga-trust-m/optiga/util\optiga_util.c ****         p_params->written_size = 0;
 481:C:/Workspace/DAVE-4.4.2-64Bit/optiga-trust-m/optiga/util\optiga_util.c ****         OPTIGA_PROTECTION_ENABLE(me->my_cmd, me);
 1136              	 .loc 1 481 0
 1137 0046 E31C     	 add r3,r4,#3
 474:C:/Workspace/DAVE-4.4.2-64Bit/optiga-trust-m/optiga/util\optiga_util.c ****         //for Metadata
 1138              	 .loc 1 474 0
 1139 0048 6580     	 strh r5,[r4,#2]
 477:C:/Workspace/DAVE-4.4.2-64Bit/optiga-trust-m/optiga/util\optiga_util.c ****         p_params->size = length;
 1140              	 .loc 1 477 0
 1141 004a A760     	 str r7,[r4,#8]
 480:C:/Workspace/DAVE-4.4.2-64Bit/optiga-trust-m/optiga/util\optiga_util.c ****         p_params->written_size = 0;
 1142              	 .loc 1 480 0
 1143 004c E580     	 strh r5,[r4,#6]
 1144              	 .loc 1 481 0
 1145 004e D97F     	 ldrb r1,[r3,#31]
 1146 0050 0098     	 ldr r0,[sp]
 1147 0052 2A1C     	 mov r2,r5
 1148 0054 FFF7FEFF 	 bl optiga_cmd_set_shielded_connection_option
 1149              	.LVL130:
 482:C:/Workspace/DAVE-4.4.2-64Bit/optiga-trust-m/optiga/util\optiga_util.c ****         OPTIGA_PROTECTION_SET_VERSION(me->my_cmd, me);
 1150              	 .loc 1 482 0
 1151 0058 231D     	 add r3,r4,#4
 1152 005a D97F     	 ldrb r1,[r3,#31]
 1153 005c 321C     	 mov r2,r6
 1154 005e 6069     	 ldr r0,[r4,#20]
 1155 0060 FFF7FEFF 	 bl optiga_cmd_set_shielded_connection_option
 1156              	.LVL131:
 483:C:/Workspace/DAVE-4.4.2-64Bit/optiga-trust-m/optiga/util\optiga_util.c **** 
 484:C:/Workspace/DAVE-4.4.2-64Bit/optiga-trust-m/optiga/util\optiga_util.c ****         return_value = optiga_cmd_set_data_object(me->my_cmd, p_params->write_type,
 1157              	 .loc 1 484 0
 1158 0064 617B     	 ldrb r1,[r4,#13]
 1159 0066 6069     	 ldr r0,[r4,#20]
 1160 0068 221C     	 mov r2,r4
 1161 006a FFF7FEFF 	 bl optiga_cmd_set_data_object
 1162              	.LVL132:
 1163 006e 061E     	 sub r6,r0,#0
 1164              	.LVL133:
 485:C:/Workspace/DAVE-4.4.2-64Bit/optiga-trust-m/optiga/util\optiga_util.c ****                                                   (optiga_set_data_object_params_t *)p_params);
 486:C:/Workspace/DAVE-4.4.2-64Bit/optiga-trust-m/optiga/util\optiga_util.c ****         if (OPTIGA_LIB_SUCCESS != return_value)
 1165              	 .loc 1 486 0
 1166 0070 AE42     	 cmp r6,r5
 1167 0072 04D0     	 beq .L97
 487:C:/Workspace/DAVE-4.4.2-64Bit/optiga-trust-m/optiga/util\optiga_util.c ****         {
 488:C:/Workspace/DAVE-4.4.2-64Bit/optiga-trust-m/optiga/util\optiga_util.c ****             me->instance_state = OPTIGA_LIB_INSTANCE_FREE;
 1168              	 .loc 1 488 0
 1169 0074 2584     	 strh r5,[r4,#32]
 1170 0076 02E0     	 b .L97
 1171              	.LVL134:
 1172              	.L100:
 458:C:/Workspace/DAVE-4.4.2-64Bit/optiga-trust-m/optiga/util\optiga_util.c ****             break;
 1173              	 .loc 1 458 0
 1174 0078 064E     	 ldr r6,.L105+12
 1175 007a 00E0     	 b .L97
 1176              	.L101:
 465:C:/Workspace/DAVE-4.4.2-64Bit/optiga-trust-m/optiga/util\optiga_util.c ****             break;
 1177              	 .loc 1 465 0
 1178 007c 064E     	 ldr r6,.L105+16
 1179              	.LVL135:
 1180              	.L97:
 489:C:/Workspace/DAVE-4.4.2-64Bit/optiga-trust-m/optiga/util\optiga_util.c ****         }
 490:C:/Workspace/DAVE-4.4.2-64Bit/optiga-trust-m/optiga/util\optiga_util.c ****     } while (FALSE);
 491:C:/Workspace/DAVE-4.4.2-64Bit/optiga-trust-m/optiga/util\optiga_util.c ****     optiga_util_reset_protection_level(me);
 1181              	 .loc 1 491 0
 1182 007e 201C     	 mov r0,r4
 1183 0080 FFF7FEFF 	 bl optiga_util_reset_protection_level
 1184              	.LVL136:
 492:C:/Workspace/DAVE-4.4.2-64Bit/optiga-trust-m/optiga/util\optiga_util.c **** 
 493:C:/Workspace/DAVE-4.4.2-64Bit/optiga-trust-m/optiga/util\optiga_util.c ****     return (return_value);
 494:C:/Workspace/DAVE-4.4.2-64Bit/optiga-trust-m/optiga/util\optiga_util.c **** }
 1185              	 .loc 1 494 0
 1186              	 
 1187 0084 301C     	 mov r0,r6
 1188              	.LVL137:
 1189              	.LVL138:
 1190              	.LVL139:
 1191 0086 FEBD     	 pop {r1,r2,r3,r4,r5,r6,r7,pc}
 1192              	.L106:
 1193              	 .align 2
 1194              	.L105:
 1195 0088 00000000 	 .word .LANCHOR5
 1196 008c 00000000 	 .word .LC2
 1197 0090 15000000 	 .word .LC4
 1198 0094 03030000 	 .word 771
 1199 0098 05030000 	 .word 773
 1200              	 .cfi_endproc
 1201              	.LFE11:
 1203              	 .section .text.optiga_util_protected_update_start,"ax",%progbits
 1204              	 .align 1
 1205              	 .global optiga_util_protected_update_start
 1206              	 .code 16
 1207              	 .thumb_func
 1209              	optiga_util_protected_update_start:
 1210              	.LFB13:
 495:C:/Workspace/DAVE-4.4.2-64Bit/optiga-trust-m/optiga/util\optiga_util.c **** 
 496:C:/Workspace/DAVE-4.4.2-64Bit/optiga-trust-m/optiga/util\optiga_util.c **** _STATIC_H optiga_lib_status_t optiga_util_protected_update(optiga_util_t * me,
 497:C:/Workspace/DAVE-4.4.2-64Bit/optiga-trust-m/optiga/util\optiga_util.c ****                                                            uint8_t manifest_version,
 498:C:/Workspace/DAVE-4.4.2-64Bit/optiga-trust-m/optiga/util\optiga_util.c ****                                                            const uint8_t * p_buffer,
 499:C:/Workspace/DAVE-4.4.2-64Bit/optiga-trust-m/optiga/util\optiga_util.c ****                                                            uint16_t buffer_length,
 500:C:/Workspace/DAVE-4.4.2-64Bit/optiga-trust-m/optiga/util\optiga_util.c ****                                                            optiga_set_obj_protected_tag_t set_obj_t
 501:C:/Workspace/DAVE-4.4.2-64Bit/optiga-trust-m/optiga/util\optiga_util.c **** {
 502:C:/Workspace/DAVE-4.4.2-64Bit/optiga-trust-m/optiga/util\optiga_util.c ****     optiga_lib_status_t return_value = OPTIGA_UTIL_ERROR;
 503:C:/Workspace/DAVE-4.4.2-64Bit/optiga-trust-m/optiga/util\optiga_util.c ****     optiga_set_object_protected_params_t * p_params;
 504:C:/Workspace/DAVE-4.4.2-64Bit/optiga-trust-m/optiga/util\optiga_util.c **** 
 505:C:/Workspace/DAVE-4.4.2-64Bit/optiga-trust-m/optiga/util\optiga_util.c ****     do
 506:C:/Workspace/DAVE-4.4.2-64Bit/optiga-trust-m/optiga/util\optiga_util.c ****     {
 507:C:/Workspace/DAVE-4.4.2-64Bit/optiga-trust-m/optiga/util\optiga_util.c ****         if (OPTIGA_LIB_INSTANCE_BUSY == me->instance_state)
 508:C:/Workspace/DAVE-4.4.2-64Bit/optiga-trust-m/optiga/util\optiga_util.c ****         {
 509:C:/Workspace/DAVE-4.4.2-64Bit/optiga-trust-m/optiga/util\optiga_util.c ****             return_value = OPTIGA_UTIL_ERROR_INSTANCE_IN_USE;
 510:C:/Workspace/DAVE-4.4.2-64Bit/optiga-trust-m/optiga/util\optiga_util.c ****             break;
 511:C:/Workspace/DAVE-4.4.2-64Bit/optiga-trust-m/optiga/util\optiga_util.c ****         }
 512:C:/Workspace/DAVE-4.4.2-64Bit/optiga-trust-m/optiga/util\optiga_util.c **** 
 513:C:/Workspace/DAVE-4.4.2-64Bit/optiga-trust-m/optiga/util\optiga_util.c ****         me->instance_state = OPTIGA_LIB_INSTANCE_BUSY;
 514:C:/Workspace/DAVE-4.4.2-64Bit/optiga-trust-m/optiga/util\optiga_util.c ****         p_params = (optiga_set_object_protected_params_t *)&(me->params.optiga_set_object_protected
 515:C:/Workspace/DAVE-4.4.2-64Bit/optiga-trust-m/optiga/util\optiga_util.c **** 
 516:C:/Workspace/DAVE-4.4.2-64Bit/optiga-trust-m/optiga/util\optiga_util.c ****         if(OPTIGA_SET_PROTECTED_UPDATE_START == set_obj_tag)
 517:C:/Workspace/DAVE-4.4.2-64Bit/optiga-trust-m/optiga/util\optiga_util.c ****         {
 518:C:/Workspace/DAVE-4.4.2-64Bit/optiga-trust-m/optiga/util\optiga_util.c ****             pal_os_memset(&me->params,0x00,sizeof(optiga_util_params_t));
 519:C:/Workspace/DAVE-4.4.2-64Bit/optiga-trust-m/optiga/util\optiga_util.c ****             p_params->manifest_version = manifest_version;
 520:C:/Workspace/DAVE-4.4.2-64Bit/optiga-trust-m/optiga/util\optiga_util.c ****             OPTIGA_PROTECTION_ENABLE(me->my_cmd, me);
 521:C:/Workspace/DAVE-4.4.2-64Bit/optiga-trust-m/optiga/util\optiga_util.c ****             OPTIGA_PROTECTION_SET_VERSION(me->my_cmd, me);
 522:C:/Workspace/DAVE-4.4.2-64Bit/optiga-trust-m/optiga/util\optiga_util.c ****         }
 523:C:/Workspace/DAVE-4.4.2-64Bit/optiga-trust-m/optiga/util\optiga_util.c **** 
 524:C:/Workspace/DAVE-4.4.2-64Bit/optiga-trust-m/optiga/util\optiga_util.c ****         p_params->p_protected_update_buffer = p_buffer;
 525:C:/Workspace/DAVE-4.4.2-64Bit/optiga-trust-m/optiga/util\optiga_util.c ****         p_params->p_protected_update_buffer_length = buffer_length;
 526:C:/Workspace/DAVE-4.4.2-64Bit/optiga-trust-m/optiga/util\optiga_util.c ****         p_params->set_obj_protected_tag = set_obj_tag;
 527:C:/Workspace/DAVE-4.4.2-64Bit/optiga-trust-m/optiga/util\optiga_util.c **** 
 528:C:/Workspace/DAVE-4.4.2-64Bit/optiga-trust-m/optiga/util\optiga_util.c ****         return_value = optiga_cmd_set_object_protected(me->my_cmd, p_params->manifest_version,p_par
 529:C:/Workspace/DAVE-4.4.2-64Bit/optiga-trust-m/optiga/util\optiga_util.c ****         if (OPTIGA_LIB_SUCCESS != return_value)
 530:C:/Workspace/DAVE-4.4.2-64Bit/optiga-trust-m/optiga/util\optiga_util.c ****         {
 531:C:/Workspace/DAVE-4.4.2-64Bit/optiga-trust-m/optiga/util\optiga_util.c ****             me->instance_state = OPTIGA_LIB_INSTANCE_FREE;
 532:C:/Workspace/DAVE-4.4.2-64Bit/optiga-trust-m/optiga/util\optiga_util.c ****         }
 533:C:/Workspace/DAVE-4.4.2-64Bit/optiga-trust-m/optiga/util\optiga_util.c ****     } while (FALSE);
 534:C:/Workspace/DAVE-4.4.2-64Bit/optiga-trust-m/optiga/util\optiga_util.c **** 
 535:C:/Workspace/DAVE-4.4.2-64Bit/optiga-trust-m/optiga/util\optiga_util.c ****     return (return_value);
 536:C:/Workspace/DAVE-4.4.2-64Bit/optiga-trust-m/optiga/util\optiga_util.c **** }
 537:C:/Workspace/DAVE-4.4.2-64Bit/optiga-trust-m/optiga/util\optiga_util.c **** 
 538:C:/Workspace/DAVE-4.4.2-64Bit/optiga-trust-m/optiga/util\optiga_util.c **** optiga_lib_status_t optiga_util_protected_update_start(optiga_util_t * me,
 539:C:/Workspace/DAVE-4.4.2-64Bit/optiga-trust-m/optiga/util\optiga_util.c ****                                                        uint8_t manifest_version,
 540:C:/Workspace/DAVE-4.4.2-64Bit/optiga-trust-m/optiga/util\optiga_util.c ****                                                        const uint8_t * manifest,
 541:C:/Workspace/DAVE-4.4.2-64Bit/optiga-trust-m/optiga/util\optiga_util.c ****                                                        uint16_t manifest_length)
 542:C:/Workspace/DAVE-4.4.2-64Bit/optiga-trust-m/optiga/util\optiga_util.c **** {
 1211              	 .loc 1 542 0
 1212              	 .cfi_startproc
 1213              	.LVL140:
 1214 0000 F7B5     	 push {r0,r1,r2,r4,r5,r6,r7,lr}
 1215              	.LCFI12:
 1216              	 .cfi_def_cfa_offset 32
 1217              	 .cfi_offset 0,-32
 1218              	 .cfi_offset 1,-28
 1219              	 .cfi_offset 2,-24
 1220              	 .cfi_offset 4,-20
 1221              	 .cfi_offset 5,-16
 1222              	 .cfi_offset 6,-12
 1223              	 .cfi_offset 7,-8
 1224              	 .cfi_offset 14,-4
 1225              	 .loc 1 542 0
 1226 0002 041C     	 mov r4,r0
 1227 0004 0091     	 str r1,[sp]
 1228 0006 151C     	 mov r5,r2
 543:C:/Workspace/DAVE-4.4.2-64Bit/optiga-trust-m/optiga/util\optiga_util.c ****     optiga_lib_status_t return_value = OPTIGA_UTIL_ERROR;
 544:C:/Workspace/DAVE-4.4.2-64Bit/optiga-trust-m/optiga/util\optiga_util.c ****     OPTIGA_UTIL_LOG_MESSAGE(__FUNCTION__);
 1229              	 .loc 1 544 0
 1230 0008 1E48     	 ldr r0,.L116
 1231              	.LVL141:
 1232 000a 1F49     	 ldr r1,.L116+4
 1233              	.LVL142:
 1234 000c 1F4A     	 ldr r2,.L116+8
 1235              	.LVL143:
 542:C:/Workspace/DAVE-4.4.2-64Bit/optiga-trust-m/optiga/util\optiga_util.c ****     optiga_lib_status_t return_value = OPTIGA_UTIL_ERROR;
 1236              	 .loc 1 542 0
 1237 000e 0193     	 str r3,[sp,#4]
 1238              	 .loc 1 544 0
 1239 0010 FFF7FEFF 	 bl optiga_lib_print_message
 1240              	.LVL144:
 545:C:/Workspace/DAVE-4.4.2-64Bit/optiga-trust-m/optiga/util\optiga_util.c **** 
 546:C:/Workspace/DAVE-4.4.2-64Bit/optiga-trust-m/optiga/util\optiga_util.c ****     do
 547:C:/Workspace/DAVE-4.4.2-64Bit/optiga-trust-m/optiga/util\optiga_util.c ****     {
 548:C:/Workspace/DAVE-4.4.2-64Bit/optiga-trust-m/optiga/util\optiga_util.c **** #ifdef OPTIGA_LIB_DEBUG_NULL_CHECK
 549:C:/Workspace/DAVE-4.4.2-64Bit/optiga-trust-m/optiga/util\optiga_util.c ****         if ((NULL == me) || (NULL == me->my_cmd) || (NULL == manifest))
 1241              	 .loc 1 549 0
 1242 0014 002C     	 cmp r4,#0
 1243 0016 2DD0     	 beq .L111
 1244              	 .loc 1 549 0 is_stmt 0 discriminator 1
 1245 0018 6769     	 ldr r7,[r4,#20]
 1246 001a 002F     	 cmp r7,#0
 1247 001c 2AD0     	 beq .L111
 1248              	 .loc 1 549 0 discriminator 2
 1249 001e 002D     	 cmp r5,#0
 1250 0020 28D0     	 beq .L111
 1251              	.LVL145:
 1252              	.LBB10:
 1253              	.LBB11:
 507:C:/Workspace/DAVE-4.4.2-64Bit/optiga-trust-m/optiga/util\optiga_util.c ****         {
 1254              	 .loc 1 507 0 is_stmt 1
 1255 0022 238C     	 ldrh r3,[r4,#32]
 1256 0024 012B     	 cmp r3,#1
 1257 0026 27D0     	 beq .L112
 1258              	.LVL146:
 1259              	.LBB12:
 1260              	.LBB13:
 513:C:/Workspace/DAVE-4.4.2-64Bit/optiga-trust-m/optiga/util\optiga_util.c ****         p_params = (optiga_set_object_protected_params_t *)&(me->params.optiga_set_object_protected
 1261              	 .loc 1 513 0
 1262 0028 0126     	 mov r6,#1
 518:C:/Workspace/DAVE-4.4.2-64Bit/optiga-trust-m/optiga/util\optiga_util.c ****             p_params->manifest_version = manifest_version;
 1263              	 .loc 1 518 0
 1264 002a 0021     	 mov r1,#0
 513:C:/Workspace/DAVE-4.4.2-64Bit/optiga-trust-m/optiga/util\optiga_util.c ****         p_params = (optiga_set_object_protected_params_t *)&(me->params.optiga_set_object_protected
 1265              	 .loc 1 513 0
 1266 002c 2684     	 strh r6,[r4,#32]
 1267              	.LVL147:
 518:C:/Workspace/DAVE-4.4.2-64Bit/optiga-trust-m/optiga/util\optiga_util.c ****             p_params->manifest_version = manifest_version;
 1268              	 .loc 1 518 0
 1269 002e 1422     	 mov r2,#20
 1270 0030 201C     	 mov r0,r4
 1271 0032 FFF7FEFF 	 bl memset
 1272              	.LVL148:
 519:C:/Workspace/DAVE-4.4.2-64Bit/optiga-trust-m/optiga/util\optiga_util.c ****             OPTIGA_PROTECTION_ENABLE(me->my_cmd, me);
 1273              	 .loc 1 519 0
 1274 0036 6B46     	 mov r3,sp
 1275 0038 1B78     	 ldrb r3,[r3]
 520:C:/Workspace/DAVE-4.4.2-64Bit/optiga-trust-m/optiga/util\optiga_util.c ****             OPTIGA_PROTECTION_SET_VERSION(me->my_cmd, me);
 1276              	 .loc 1 520 0
 1277 003a 381C     	 mov r0,r7
 519:C:/Workspace/DAVE-4.4.2-64Bit/optiga-trust-m/optiga/util\optiga_util.c ****             OPTIGA_PROTECTION_ENABLE(me->my_cmd, me);
 1278              	 .loc 1 519 0
 1279 003c E371     	 strb r3,[r4,#7]
 520:C:/Workspace/DAVE-4.4.2-64Bit/optiga-trust-m/optiga/util\optiga_util.c ****             OPTIGA_PROTECTION_SET_VERSION(me->my_cmd, me);
 1280              	 .loc 1 520 0
 1281 003e E31C     	 add r3,r4,#3
 1282 0040 D97F     	 ldrb r1,[r3,#31]
 1283 0042 0022     	 mov r2,#0
 1284 0044 FFF7FEFF 	 bl optiga_cmd_set_shielded_connection_option
 1285              	.LVL149:
 521:C:/Workspace/DAVE-4.4.2-64Bit/optiga-trust-m/optiga/util\optiga_util.c ****         }
 1286              	 .loc 1 521 0
 1287 0048 231D     	 add r3,r4,#4
 1288 004a D97F     	 ldrb r1,[r3,#31]
 1289 004c 321C     	 mov r2,r6
 1290 004e 6069     	 ldr r0,[r4,#20]
 1291 0050 FFF7FEFF 	 bl optiga_cmd_set_shielded_connection_option
 1292              	.LVL150:
 525:C:/Workspace/DAVE-4.4.2-64Bit/optiga-trust-m/optiga/util\optiga_util.c ****         p_params->set_obj_protected_tag = set_obj_tag;
 1293              	 .loc 1 525 0
 1294 0054 6B46     	 mov r3,sp
 526:C:/Workspace/DAVE-4.4.2-64Bit/optiga-trust-m/optiga/util\optiga_util.c **** 
 1295              	 .loc 1 526 0
 1296 0056 0026     	 mov r6,#0
 525:C:/Workspace/DAVE-4.4.2-64Bit/optiga-trust-m/optiga/util\optiga_util.c ****         p_params->set_obj_protected_tag = set_obj_tag;
 1297              	 .loc 1 525 0
 1298 0058 9B88     	 ldrh r3,[r3,#4]
 524:C:/Workspace/DAVE-4.4.2-64Bit/optiga-trust-m/optiga/util\optiga_util.c ****         p_params->p_protected_update_buffer_length = buffer_length;
 1299              	 .loc 1 524 0
 1300 005a 2560     	 str r5,[r4]
 525:C:/Workspace/DAVE-4.4.2-64Bit/optiga-trust-m/optiga/util\optiga_util.c ****         p_params->set_obj_protected_tag = set_obj_tag;
 1301              	 .loc 1 525 0
 1302 005c A380     	 strh r3,[r4,#4]
 526:C:/Workspace/DAVE-4.4.2-64Bit/optiga-trust-m/optiga/util\optiga_util.c **** 
 1303              	 .loc 1 526 0
 1304 005e A671     	 strb r6,[r4,#6]
 528:C:/Workspace/DAVE-4.4.2-64Bit/optiga-trust-m/optiga/util\optiga_util.c ****         if (OPTIGA_LIB_SUCCESS != return_value)
 1305              	 .loc 1 528 0
 1306 0060 E179     	 ldrb r1,[r4,#7]
 1307 0062 6069     	 ldr r0,[r4,#20]
 1308 0064 221C     	 mov r2,r4
 1309 0066 FFF7FEFF 	 bl optiga_cmd_set_object_protected
 1310              	.LVL151:
 1311 006a 051E     	 sub r5,r0,#0
 1312              	.LVL152:
 529:C:/Workspace/DAVE-4.4.2-64Bit/optiga-trust-m/optiga/util\optiga_util.c ****         {
 1313              	 .loc 1 529 0
 1314 006c B542     	 cmp r5,r6
 1315 006e 04D0     	 beq .L108
 531:C:/Workspace/DAVE-4.4.2-64Bit/optiga-trust-m/optiga/util\optiga_util.c ****         }
 1316              	 .loc 1 531 0
 1317 0070 2684     	 strh r6,[r4,#32]
 1318 0072 02E0     	 b .L108
 1319              	.LVL153:
 1320              	.L111:
 1321              	.LBE13:
 1322              	.LBE12:
 1323              	.LBE11:
 1324              	.LBE10:
 550:C:/Workspace/DAVE-4.4.2-64Bit/optiga-trust-m/optiga/util\optiga_util.c ****         {
 551:C:/Workspace/DAVE-4.4.2-64Bit/optiga-trust-m/optiga/util\optiga_util.c ****             return_value = OPTIGA_UTIL_ERROR_INVALID_INPUT;
 1325              	 .loc 1 551 0
 1326 0074 064D     	 ldr r5,.L116+12
 1327              	.LVL154:
 1328 0076 00E0     	 b .L108
 1329              	.LVL155:
 1330              	.L112:
 1331              	.LBB15:
 1332              	.LBB14:
 509:C:/Workspace/DAVE-4.4.2-64Bit/optiga-trust-m/optiga/util\optiga_util.c ****             break;
 1333              	 .loc 1 509 0
 1334 0078 064D     	 ldr r5,.L116+16
 1335              	.LVL156:
 1336              	.L108:
 1337              	.LBE14:
 1338              	.LBE15:
 552:C:/Workspace/DAVE-4.4.2-64Bit/optiga-trust-m/optiga/util\optiga_util.c ****             break;
 553:C:/Workspace/DAVE-4.4.2-64Bit/optiga-trust-m/optiga/util\optiga_util.c ****         }
 554:C:/Workspace/DAVE-4.4.2-64Bit/optiga-trust-m/optiga/util\optiga_util.c **** #endif
 555:C:/Workspace/DAVE-4.4.2-64Bit/optiga-trust-m/optiga/util\optiga_util.c **** 
 556:C:/Workspace/DAVE-4.4.2-64Bit/optiga-trust-m/optiga/util\optiga_util.c ****         return_value = optiga_util_protected_update(me,
 557:C:/Workspace/DAVE-4.4.2-64Bit/optiga-trust-m/optiga/util\optiga_util.c ****                                                     manifest_version,
 558:C:/Workspace/DAVE-4.4.2-64Bit/optiga-trust-m/optiga/util\optiga_util.c ****                                                     manifest,
 559:C:/Workspace/DAVE-4.4.2-64Bit/optiga-trust-m/optiga/util\optiga_util.c ****                                                     manifest_length,
 560:C:/Workspace/DAVE-4.4.2-64Bit/optiga-trust-m/optiga/util\optiga_util.c ****                                                     OPTIGA_SET_PROTECTED_UPDATE_START
 561:C:/Workspace/DAVE-4.4.2-64Bit/optiga-trust-m/optiga/util\optiga_util.c ****                                                     );
 562:C:/Workspace/DAVE-4.4.2-64Bit/optiga-trust-m/optiga/util\optiga_util.c ****     } while (FALSE);
 563:C:/Workspace/DAVE-4.4.2-64Bit/optiga-trust-m/optiga/util\optiga_util.c ****     optiga_util_reset_protection_level(me);
 1339              	 .loc 1 563 0
 1340 007a 201C     	 mov r0,r4
 1341 007c FFF7FEFF 	 bl optiga_util_reset_protection_level
 1342              	.LVL157:
 564:C:/Workspace/DAVE-4.4.2-64Bit/optiga-trust-m/optiga/util\optiga_util.c ****     return (return_value);
 565:C:/Workspace/DAVE-4.4.2-64Bit/optiga-trust-m/optiga/util\optiga_util.c **** }
 1343              	 .loc 1 565 0
 1344              	 
 1345 0080 281C     	 mov r0,r5
 1346              	.LVL158:
 1347              	.LVL159:
 1348 0082 FEBD     	 pop {r1,r2,r3,r4,r5,r6,r7,pc}
 1349              	.L117:
 1350              	 .align 2
 1351              	.L116:
 1352 0084 00000000 	 .word .LANCHOR6
 1353 0088 00000000 	 .word .LC2
 1354 008c 15000000 	 .word .LC4
 1355 0090 03030000 	 .word 771
 1356 0094 05030000 	 .word 773
 1357              	 .cfi_endproc
 1358              	.LFE13:
 1360              	 .section .text.optiga_util_protected_update_continue,"ax",%progbits
 1361              	 .align 1
 1362              	 .global optiga_util_protected_update_continue
 1363              	 .code 16
 1364              	 .thumb_func
 1366              	optiga_util_protected_update_continue:
 1367              	.LFB14:
 566:C:/Workspace/DAVE-4.4.2-64Bit/optiga-trust-m/optiga/util\optiga_util.c **** 
 567:C:/Workspace/DAVE-4.4.2-64Bit/optiga-trust-m/optiga/util\optiga_util.c **** optiga_lib_status_t optiga_util_protected_update_continue(optiga_util_t * me,
 568:C:/Workspace/DAVE-4.4.2-64Bit/optiga-trust-m/optiga/util\optiga_util.c ****                                                           const uint8_t * fragment,
 569:C:/Workspace/DAVE-4.4.2-64Bit/optiga-trust-m/optiga/util\optiga_util.c ****                                                           uint16_t fragment_length)
 570:C:/Workspace/DAVE-4.4.2-64Bit/optiga-trust-m/optiga/util\optiga_util.c **** {
 1368              	 .loc 1 570 0
 1369              	 .cfi_startproc
 1370              	.LVL160:
 1371 0000 70B5     	 push {r4,r5,r6,lr}
 1372              	.LCFI13:
 1373              	 .cfi_def_cfa_offset 16
 1374              	 .cfi_offset 4,-16
 1375              	 .cfi_offset 5,-12
 1376              	 .cfi_offset 6,-8
 1377              	 .cfi_offset 14,-4
 1378              	 .loc 1 570 0
 1379 0002 041C     	 mov r4,r0
 1380 0004 0D1C     	 mov r5,r1
 1381 0006 161C     	 mov r6,r2
 571:C:/Workspace/DAVE-4.4.2-64Bit/optiga-trust-m/optiga/util\optiga_util.c ****     optiga_lib_status_t return_value = OPTIGA_UTIL_ERROR;
 572:C:/Workspace/DAVE-4.4.2-64Bit/optiga-trust-m/optiga/util\optiga_util.c ****     OPTIGA_UTIL_LOG_MESSAGE(__FUNCTION__);
 1382              	 .loc 1 572 0
 1383 0008 1048     	 ldr r0,.L127
 1384              	.LVL161:
 1385 000a 1149     	 ldr r1,.L127+4
 1386              	.LVL162:
 1387 000c 114A     	 ldr r2,.L127+8
 1388              	.LVL163:
 1389 000e FFF7FEFF 	 bl optiga_lib_print_message
 1390              	.LVL164:
 573:C:/Workspace/DAVE-4.4.2-64Bit/optiga-trust-m/optiga/util\optiga_util.c **** 
 574:C:/Workspace/DAVE-4.4.2-64Bit/optiga-trust-m/optiga/util\optiga_util.c ****     do
 575:C:/Workspace/DAVE-4.4.2-64Bit/optiga-trust-m/optiga/util\optiga_util.c ****     {
 576:C:/Workspace/DAVE-4.4.2-64Bit/optiga-trust-m/optiga/util\optiga_util.c **** #ifdef OPTIGA_LIB_DEBUG_NULL_CHECK
 577:C:/Workspace/DAVE-4.4.2-64Bit/optiga-trust-m/optiga/util\optiga_util.c ****         if ((NULL == me) || (NULL == me->my_cmd) || (NULL == fragment))
 1391              	 .loc 1 577 0
 1392 0012 002C     	 cmp r4,#0
 1393 0014 16D0     	 beq .L122
 1394              	 .loc 1 577 0 is_stmt 0 discriminator 1
 1395 0016 6069     	 ldr r0,[r4,#20]
 1396 0018 0028     	 cmp r0,#0
 1397 001a 13D0     	 beq .L122
 1398              	 .loc 1 577 0 discriminator 2
 1399 001c 002D     	 cmp r5,#0
 1400 001e 11D0     	 beq .L122
 1401              	.LVL165:
 1402              	.LBB20:
 1403              	.LBB21:
 507:C:/Workspace/DAVE-4.4.2-64Bit/optiga-trust-m/optiga/util\optiga_util.c ****         {
 1404              	 .loc 1 507 0 is_stmt 1
 1405 0020 238C     	 ldrh r3,[r4,#32]
 1406 0022 012B     	 cmp r3,#1
 1407 0024 10D0     	 beq .L123
 1408              	.LVL166:
 1409              	.LBB22:
 1410              	.LBB23:
 513:C:/Workspace/DAVE-4.4.2-64Bit/optiga-trust-m/optiga/util\optiga_util.c ****         p_params = (optiga_set_object_protected_params_t *)&(me->params.optiga_set_object_protected
 1411              	 .loc 1 513 0
 1412 0026 0123     	 mov r3,#1
 1413 0028 2384     	 strh r3,[r4,#32]
 1414              	.LVL167:
 526:C:/Workspace/DAVE-4.4.2-64Bit/optiga-trust-m/optiga/util\optiga_util.c **** 
 1415              	 .loc 1 526 0
 1416 002a DB18     	 add r3,r3,r3
 524:C:/Workspace/DAVE-4.4.2-64Bit/optiga-trust-m/optiga/util\optiga_util.c ****         p_params->p_protected_update_buffer_length = buffer_length;
 1417              	 .loc 1 524 0
 1418 002c 2560     	 str r5,[r4]
 525:C:/Workspace/DAVE-4.4.2-64Bit/optiga-trust-m/optiga/util\optiga_util.c ****         p_params->set_obj_protected_tag = set_obj_tag;
 1419              	 .loc 1 525 0
 1420 002e A680     	 strh r6,[r4,#4]
 526:C:/Workspace/DAVE-4.4.2-64Bit/optiga-trust-m/optiga/util\optiga_util.c **** 
 1421              	 .loc 1 526 0
 1422 0030 A371     	 strb r3,[r4,#6]
 528:C:/Workspace/DAVE-4.4.2-64Bit/optiga-trust-m/optiga/util\optiga_util.c ****         if (OPTIGA_LIB_SUCCESS != return_value)
 1423              	 .loc 1 528 0
 1424 0032 E179     	 ldrb r1,[r4,#7]
 1425 0034 221C     	 mov r2,r4
 1426 0036 FFF7FEFF 	 bl optiga_cmd_set_object_protected
 1427              	.LVL168:
 529:C:/Workspace/DAVE-4.4.2-64Bit/optiga-trust-m/optiga/util\optiga_util.c ****         {
 1428              	 .loc 1 529 0
 1429 003a 0028     	 cmp r0,#0
 1430 003c 05D0     	 beq .L119
 531:C:/Workspace/DAVE-4.4.2-64Bit/optiga-trust-m/optiga/util\optiga_util.c ****         }
 1431              	 .loc 1 531 0
 1432 003e 0023     	 mov r3,#0
 1433 0040 2384     	 strh r3,[r4,#32]
 1434 0042 02E0     	 b .L119
 1435              	.LVL169:
 1436              	.L122:
 1437              	.LBE23:
 1438              	.LBE22:
 1439              	.LBE21:
 1440              	.LBE20:
 578:C:/Workspace/DAVE-4.4.2-64Bit/optiga-trust-m/optiga/util\optiga_util.c ****         {
 579:C:/Workspace/DAVE-4.4.2-64Bit/optiga-trust-m/optiga/util\optiga_util.c ****             return_value = OPTIGA_UTIL_ERROR_INVALID_INPUT;
 1441              	 .loc 1 579 0
 1442 0044 0448     	 ldr r0,.L127+12
 1443 0046 00E0     	 b .L119
 1444              	.LVL170:
 1445              	.L123:
 1446              	.LBB25:
 1447              	.LBB24:
 509:C:/Workspace/DAVE-4.4.2-64Bit/optiga-trust-m/optiga/util\optiga_util.c ****             break;
 1448              	 .loc 1 509 0
 1449 0048 0448     	 ldr r0,.L127+16
 1450              	.LVL171:
 1451              	.L119:
 1452              	.LBE24:
 1453              	.LBE25:
 580:C:/Workspace/DAVE-4.4.2-64Bit/optiga-trust-m/optiga/util\optiga_util.c ****             break;
 581:C:/Workspace/DAVE-4.4.2-64Bit/optiga-trust-m/optiga/util\optiga_util.c ****         }
 582:C:/Workspace/DAVE-4.4.2-64Bit/optiga-trust-m/optiga/util\optiga_util.c **** #endif
 583:C:/Workspace/DAVE-4.4.2-64Bit/optiga-trust-m/optiga/util\optiga_util.c **** 
 584:C:/Workspace/DAVE-4.4.2-64Bit/optiga-trust-m/optiga/util\optiga_util.c ****         return_value = optiga_util_protected_update(me,
 585:C:/Workspace/DAVE-4.4.2-64Bit/optiga-trust-m/optiga/util\optiga_util.c ****                                                     0x00,
 586:C:/Workspace/DAVE-4.4.2-64Bit/optiga-trust-m/optiga/util\optiga_util.c ****                                                     fragment,
 587:C:/Workspace/DAVE-4.4.2-64Bit/optiga-trust-m/optiga/util\optiga_util.c ****                                                     fragment_length,
 588:C:/Workspace/DAVE-4.4.2-64Bit/optiga-trust-m/optiga/util\optiga_util.c ****                                                     OPTIGA_SET_PROTECTED_UPDATE_CONTINUE);
 589:C:/Workspace/DAVE-4.4.2-64Bit/optiga-trust-m/optiga/util\optiga_util.c ****     } while (FALSE);
 590:C:/Workspace/DAVE-4.4.2-64Bit/optiga-trust-m/optiga/util\optiga_util.c ****     return (return_value);
 591:C:/Workspace/DAVE-4.4.2-64Bit/optiga-trust-m/optiga/util\optiga_util.c **** }
 1454              	 .loc 1 591 0
 1455              	 
 1456              	.LVL172:
 1457              	.LVL173:
 1458 004a 70BD     	 pop {r4,r5,r6,pc}
 1459              	.L128:
 1460              	 .align 2
 1461              	.L127:
 1462 004c 00000000 	 .word .LANCHOR7
 1463 0050 00000000 	 .word .LC2
 1464 0054 15000000 	 .word .LC4
 1465 0058 03030000 	 .word 771
 1466 005c 05030000 	 .word 773
 1467              	 .cfi_endproc
 1468              	.LFE14:
 1470              	 .section .text.optiga_util_protected_update_final,"ax",%progbits
 1471              	 .align 1
 1472              	 .global optiga_util_protected_update_final
 1473              	 .code 16
 1474              	 .thumb_func
 1476              	optiga_util_protected_update_final:
 1477              	.LFB15:
 592:C:/Workspace/DAVE-4.4.2-64Bit/optiga-trust-m/optiga/util\optiga_util.c **** 
 593:C:/Workspace/DAVE-4.4.2-64Bit/optiga-trust-m/optiga/util\optiga_util.c **** optiga_lib_status_t optiga_util_protected_update_final(optiga_util_t * me,
 594:C:/Workspace/DAVE-4.4.2-64Bit/optiga-trust-m/optiga/util\optiga_util.c ****                                                        const uint8_t * fragment,
 595:C:/Workspace/DAVE-4.4.2-64Bit/optiga-trust-m/optiga/util\optiga_util.c ****                                                        uint16_t fragment_length)
 596:C:/Workspace/DAVE-4.4.2-64Bit/optiga-trust-m/optiga/util\optiga_util.c **** {
 1478              	 .loc 1 596 0
 1479              	 .cfi_startproc
 1480              	.LVL174:
 1481 0000 70B5     	 push {r4,r5,r6,lr}
 1482              	.LCFI14:
 1483              	 .cfi_def_cfa_offset 16
 1484              	 .cfi_offset 4,-16
 1485              	 .cfi_offset 5,-12
 1486              	 .cfi_offset 6,-8
 1487              	 .cfi_offset 14,-4
 1488              	 .loc 1 596 0
 1489 0002 041C     	 mov r4,r0
 1490 0004 0E1C     	 mov r6,r1
 1491 0006 151C     	 mov r5,r2
 597:C:/Workspace/DAVE-4.4.2-64Bit/optiga-trust-m/optiga/util\optiga_util.c ****     optiga_lib_status_t return_value = OPTIGA_UTIL_ERROR;
 598:C:/Workspace/DAVE-4.4.2-64Bit/optiga-trust-m/optiga/util\optiga_util.c ****     OPTIGA_UTIL_LOG_MESSAGE(__FUNCTION__);
 1492              	 .loc 1 598 0
 1493 0008 0F48     	 ldr r0,.L137
 1494              	.LVL175:
 1495 000a 1049     	 ldr r1,.L137+4
 1496              	.LVL176:
 1497 000c 104A     	 ldr r2,.L137+8
 1498              	.LVL177:
 1499 000e FFF7FEFF 	 bl optiga_lib_print_message
 1500              	.LVL178:
 599:C:/Workspace/DAVE-4.4.2-64Bit/optiga-trust-m/optiga/util\optiga_util.c **** 
 600:C:/Workspace/DAVE-4.4.2-64Bit/optiga-trust-m/optiga/util\optiga_util.c ****     do
 601:C:/Workspace/DAVE-4.4.2-64Bit/optiga-trust-m/optiga/util\optiga_util.c ****     {
 602:C:/Workspace/DAVE-4.4.2-64Bit/optiga-trust-m/optiga/util\optiga_util.c **** #ifdef OPTIGA_LIB_DEBUG_NULL_CHECK
 603:C:/Workspace/DAVE-4.4.2-64Bit/optiga-trust-m/optiga/util\optiga_util.c ****         if ((NULL == me) || (NULL == me->my_cmd))
 1501              	 .loc 1 603 0
 1502 0012 002C     	 cmp r4,#0
 1503 0014 13D0     	 beq .L132
 1504              	 .loc 1 603 0 is_stmt 0 discriminator 1
 1505 0016 6069     	 ldr r0,[r4,#20]
 1506 0018 0028     	 cmp r0,#0
 1507 001a 10D0     	 beq .L132
 1508              	.LVL179:
 1509              	.LBB30:
 1510              	.LBB31:
 507:C:/Workspace/DAVE-4.4.2-64Bit/optiga-trust-m/optiga/util\optiga_util.c ****         {
 1511              	 .loc 1 507 0 is_stmt 1
 1512 001c 238C     	 ldrh r3,[r4,#32]
 1513 001e 012B     	 cmp r3,#1
 1514 0020 0FD0     	 beq .L133
 1515              	.LVL180:
 1516              	.LBB32:
 1517              	.LBB33:
 513:C:/Workspace/DAVE-4.4.2-64Bit/optiga-trust-m/optiga/util\optiga_util.c ****         p_params = (optiga_set_object_protected_params_t *)&(me->params.optiga_set_object_protected
 1518              	 .loc 1 513 0
 1519 0022 0123     	 mov r3,#1
 524:C:/Workspace/DAVE-4.4.2-64Bit/optiga-trust-m/optiga/util\optiga_util.c ****         p_params->p_protected_update_buffer_length = buffer_length;
 1520              	 .loc 1 524 0
 1521 0024 2660     	 str r6,[r4]
 513:C:/Workspace/DAVE-4.4.2-64Bit/optiga-trust-m/optiga/util\optiga_util.c ****         p_params = (optiga_set_object_protected_params_t *)&(me->params.optiga_set_object_protected
 1522              	 .loc 1 513 0
 1523 0026 2384     	 strh r3,[r4,#32]
 1524              	.LVL181:
 525:C:/Workspace/DAVE-4.4.2-64Bit/optiga-trust-m/optiga/util\optiga_util.c ****         p_params->set_obj_protected_tag = set_obj_tag;
 1525              	 .loc 1 525 0
 1526 0028 A580     	 strh r5,[r4,#4]
 526:C:/Workspace/DAVE-4.4.2-64Bit/optiga-trust-m/optiga/util\optiga_util.c **** 
 1527              	 .loc 1 526 0
 1528 002a A371     	 strb r3,[r4,#6]
 528:C:/Workspace/DAVE-4.4.2-64Bit/optiga-trust-m/optiga/util\optiga_util.c ****         if (OPTIGA_LIB_SUCCESS != return_value)
 1529              	 .loc 1 528 0
 1530 002c E179     	 ldrb r1,[r4,#7]
 1531 002e 221C     	 mov r2,r4
 1532 0030 FFF7FEFF 	 bl optiga_cmd_set_object_protected
 1533              	.LVL182:
 529:C:/Workspace/DAVE-4.4.2-64Bit/optiga-trust-m/optiga/util\optiga_util.c ****         {
 1534              	 .loc 1 529 0
 1535 0034 0028     	 cmp r0,#0
 1536 0036 05D0     	 beq .L130
 531:C:/Workspace/DAVE-4.4.2-64Bit/optiga-trust-m/optiga/util\optiga_util.c ****         }
 1537              	 .loc 1 531 0
 1538 0038 0023     	 mov r3,#0
 1539 003a 2384     	 strh r3,[r4,#32]
 1540 003c 02E0     	 b .L130
 1541              	.LVL183:
 1542              	.L132:
 1543              	.LBE33:
 1544              	.LBE32:
 1545              	.LBE31:
 1546              	.LBE30:
 604:C:/Workspace/DAVE-4.4.2-64Bit/optiga-trust-m/optiga/util\optiga_util.c ****         {
 605:C:/Workspace/DAVE-4.4.2-64Bit/optiga-trust-m/optiga/util\optiga_util.c ****             return_value = OPTIGA_UTIL_ERROR_INVALID_INPUT;
 1547              	 .loc 1 605 0
 1548 003e 0548     	 ldr r0,.L137+12
 1549 0040 00E0     	 b .L130
 1550              	.LVL184:
 1551              	.L133:
 1552              	.LBB35:
 1553              	.LBB34:
 509:C:/Workspace/DAVE-4.4.2-64Bit/optiga-trust-m/optiga/util\optiga_util.c ****             break;
 1554              	 .loc 1 509 0
 1555 0042 0548     	 ldr r0,.L137+16
 1556              	.LVL185:
 1557              	.L130:
 1558              	.LBE34:
 1559              	.LBE35:
 606:C:/Workspace/DAVE-4.4.2-64Bit/optiga-trust-m/optiga/util\optiga_util.c ****             break;
 607:C:/Workspace/DAVE-4.4.2-64Bit/optiga-trust-m/optiga/util\optiga_util.c ****         }
 608:C:/Workspace/DAVE-4.4.2-64Bit/optiga-trust-m/optiga/util\optiga_util.c **** #endif
 609:C:/Workspace/DAVE-4.4.2-64Bit/optiga-trust-m/optiga/util\optiga_util.c **** 
 610:C:/Workspace/DAVE-4.4.2-64Bit/optiga-trust-m/optiga/util\optiga_util.c ****         return_value = optiga_util_protected_update(me,
 611:C:/Workspace/DAVE-4.4.2-64Bit/optiga-trust-m/optiga/util\optiga_util.c ****                                                     0x00,
 612:C:/Workspace/DAVE-4.4.2-64Bit/optiga-trust-m/optiga/util\optiga_util.c ****                                                     fragment,
 613:C:/Workspace/DAVE-4.4.2-64Bit/optiga-trust-m/optiga/util\optiga_util.c ****                                                     fragment_length,
 614:C:/Workspace/DAVE-4.4.2-64Bit/optiga-trust-m/optiga/util\optiga_util.c ****                                                     OPTIGA_SET_PROTECTED_UPDATE_FINAL);
 615:C:/Workspace/DAVE-4.4.2-64Bit/optiga-trust-m/optiga/util\optiga_util.c ****     } while (FALSE);
 616:C:/Workspace/DAVE-4.4.2-64Bit/optiga-trust-m/optiga/util\optiga_util.c ****     return (return_value);
 617:C:/Workspace/DAVE-4.4.2-64Bit/optiga-trust-m/optiga/util\optiga_util.c **** }
 1560              	 .loc 1 617 0
 1561              	 
 1562              	.LVL186:
 1563              	.LVL187:
 1564 0044 70BD     	 pop {r4,r5,r6,pc}
 1565              	.L138:
 1566 0046 C046     	 .align 2
 1567              	.L137:
 1568 0048 00000000 	 .word .LANCHOR8
 1569 004c 00000000 	 .word .LC2
 1570 0050 15000000 	 .word .LC4
 1571 0054 03030000 	 .word 771
 1572 0058 05030000 	 .word 773
 1573              	 .cfi_endproc
 1574              	.LFE15:
 1576              	 .section .text.optiga_util_update_count,"ax",%progbits
 1577              	 .align 1
 1578              	 .global optiga_util_update_count
 1579              	 .code 16
 1580              	 .thumb_func
 1582              	optiga_util_update_count:
 1583              	.LFB16:
 618:C:/Workspace/DAVE-4.4.2-64Bit/optiga-trust-m/optiga/util\optiga_util.c **** 
 619:C:/Workspace/DAVE-4.4.2-64Bit/optiga-trust-m/optiga/util\optiga_util.c **** optiga_lib_status_t optiga_util_update_count(optiga_util_t * me,
 620:C:/Workspace/DAVE-4.4.2-64Bit/optiga-trust-m/optiga/util\optiga_util.c ****                                              uint16_t optiga_counter_oid,
 621:C:/Workspace/DAVE-4.4.2-64Bit/optiga-trust-m/optiga/util\optiga_util.c ****                                              uint8_t count)
 622:C:/Workspace/DAVE-4.4.2-64Bit/optiga-trust-m/optiga/util\optiga_util.c **** {
 1584              	 .loc 1 622 0
 1585              	 .cfi_startproc
 1586              	.LVL188:
 1587 0000 7FB5     	 push {r0,r1,r2,r3,r4,r5,r6,lr}
 1588              	.LCFI15:
 1589              	 .cfi_def_cfa_offset 32
 1590              	 .cfi_offset 0,-32
 1591              	 .cfi_offset 1,-28
 1592              	 .cfi_offset 2,-24
 1593              	 .cfi_offset 3,-20
 1594              	 .cfi_offset 4,-16
 1595              	 .cfi_offset 5,-12
 1596              	 .cfi_offset 6,-8
 1597              	 .cfi_offset 14,-4
 623:C:/Workspace/DAVE-4.4.2-64Bit/optiga-trust-m/optiga/util\optiga_util.c ****     const uint8_t count_value[] = {count};
 1598              	 .loc 1 623 0
 1599 0002 03AC     	 add r4,sp,#12
 622:C:/Workspace/DAVE-4.4.2-64Bit/optiga-trust-m/optiga/util\optiga_util.c ****     const uint8_t count_value[] = {count};
 1600              	 .loc 1 622 0
 1601 0004 061C     	 mov r6,r0
 1602 0006 0D1C     	 mov r5,r1
 1603              	 .loc 1 623 0
 1604 0008 2270     	 strb r2,[r4]
 624:C:/Workspace/DAVE-4.4.2-64Bit/optiga-trust-m/optiga/util\optiga_util.c ****     OPTIGA_UTIL_LOG_MESSAGE(__FUNCTION__);
 1605              	 .loc 1 624 0
 1606 000a 0848     	 ldr r0,.L140
 1607              	.LVL189:
 1608 000c 0849     	 ldr r1,.L140+4
 1609              	.LVL190:
 1610 000e 094A     	 ldr r2,.L140+8
 1611              	.LVL191:
 1612 0010 FFF7FEFF 	 bl optiga_lib_print_message
 1613              	.LVL192:
 625:C:/Workspace/DAVE-4.4.2-64Bit/optiga-trust-m/optiga/util\optiga_util.c ****     return (optiga_util_write_data_wrapper(me,
 1614              	 .loc 1 625 0
 1615 0014 0123     	 mov r3,#1
 1616 0016 0094     	 str r4,[sp]
 1617 0018 0193     	 str r3,[sp,#4]
 1618 001a 301C     	 mov r0,r6
 1619 001c 291C     	 mov r1,r5
 1620 001e 0222     	 mov r2,#2
 1621 0020 0023     	 mov r3,#0
 1622 0022 FFF7FEFF 	 bl optiga_util_write_data_wrapper
 1623              	.LVL193:
 626:C:/Workspace/DAVE-4.4.2-64Bit/optiga-trust-m/optiga/util\optiga_util.c ****                                           optiga_counter_oid,
 627:C:/Workspace/DAVE-4.4.2-64Bit/optiga-trust-m/optiga/util\optiga_util.c ****                                           OPTIGA_UTIL_COUNT_DATA_OBJECT,
 628:C:/Workspace/DAVE-4.4.2-64Bit/optiga-trust-m/optiga/util\optiga_util.c ****                                           0x0000,
 629:C:/Workspace/DAVE-4.4.2-64Bit/optiga-trust-m/optiga/util\optiga_util.c ****                                           count_value,
 630:C:/Workspace/DAVE-4.4.2-64Bit/optiga-trust-m/optiga/util\optiga_util.c ****                                           sizeof(count_value)));
 631:C:/Workspace/DAVE-4.4.2-64Bit/optiga-trust-m/optiga/util\optiga_util.c **** }
 1624              	 .loc 1 631 0
 1625 0026 04B0     	 add sp,sp,#16
 1626              	 
 1627              	.LVL194:
 1628 0028 70BD     	 pop {r4,r5,r6,pc}
 1629              	.L141:
 1630 002a C046     	 .align 2
 1631              	.L140:
 1632 002c 00000000 	 .word .LANCHOR9
 1633 0030 00000000 	 .word .LC2
 1634 0034 15000000 	 .word .LC4
 1635              	 .cfi_endproc
 1636              	.LFE16:
 1638              	 .section .rodata.__FUNCTION__.5961,"a",%progbits
 1639              	 .set .LANCHOR1,.+0
 1642              	__FUNCTION__.5961:
 1643 0000 6F707469 	 .ascii "optiga_util_close_application\000"
 1643      67615F75 
 1643      74696C5F 
 1643      636C6F73 
 1643      655F6170 
 1644              	 .section .rodata.__FUNCTION__.6022,"a",%progbits
 1645              	 .set .LANCHOR6,.+0
 1648              	__FUNCTION__.6022:
 1649 0000 6F707469 	 .ascii "optiga_util_protected_update_start\000"
 1649      67615F75 
 1649      74696C5F 
 1649      70726F74 
 1649      65637465 
 1650              	 .section .rodata.__FUNCTION__.5972,"a",%progbits
 1651              	 .set .LANCHOR2,.+0
 1654              	__FUNCTION__.5972:
 1655 0000 6F707469 	 .ascii "optiga_util_read_data\000"
 1655      67615F75 
 1655      74696C5F 
 1655      72656164 
 1655      5F646174 
 1656              	 .section .rodata.__FUNCTION__.6030,"a",%progbits
 1657              	 .set .LANCHOR7,.+0
 1660              	__FUNCTION__.6030:
 1661 0000 6F707469 	 .ascii "optiga_util_protected_update_continue\000"
 1661      67615F75 
 1661      74696C5F 
 1661      70726F74 
 1661      65637465 
 1662              	 .section .rodata.__FUNCTION__.5982,"a",%progbits
 1663              	 .set .LANCHOR3,.+0
 1666              	__FUNCTION__.5982:
 1667 0000 6F707469 	 .ascii "optiga_util_read_metadata\000"
 1667      67615F75 
 1667      74696C5F 
 1667      72656164 
 1667      5F6D6574 
 1668              	 .section .rodata.str1.1,"aMS",%progbits,1
 1669              	.LC2:
 1670 0000 5B6F7074 	 .ascii "[optiga util]     : \000"
 1670      69676120 
 1670      7574696C 
 1670      5D202020 
 1670      20203A20 
 1671              	.LC4:
 1672 0015 1B5B306D 	 .ascii "\033[0m\000"
 1672      00
 1673              	 .section .rodata.__FUNCTION__.6038,"a",%progbits
 1674              	 .set .LANCHOR8,.+0
 1677              	__FUNCTION__.6038:
 1678 0000 6F707469 	 .ascii "optiga_util_protected_update_final\000"
 1678      67615F75 
 1678      74696C5F 
 1678      70726F74 
 1678      65637465 
 1679              	 .section .rodata.__FUNCTION__.5993,"a",%progbits
 1680              	 .set .LANCHOR4,.+0
 1683              	__FUNCTION__.5993:
 1684 0000 6F707469 	 .ascii "optiga_util_write_data\000"
 1684      67615F75 
 1684      74696C5F 
 1684      77726974 
 1684      655F6461 
 1685              	 .section .rodata.__FUNCTION__.6046,"a",%progbits
 1686              	 .set .LANCHOR9,.+0
 1689              	__FUNCTION__.6046:
 1690 0000 6F707469 	 .ascii "optiga_util_update_count\000"
 1690      67615F75 
 1690      74696C5F 
 1690      75706461 
 1690      74655F63 
 1691              	 .section .rodata.__FUNCTION__.6003,"a",%progbits
 1692              	 .set .LANCHOR5,.+0
 1695              	__FUNCTION__.6003:
 1696 0000 6F707469 	 .ascii "optiga_util_write_metadata\000"
 1696      67615F75 
 1696      74696C5F 
 1696      77726974 
 1696      655F6D65 
 1697              	 .section .rodata.__FUNCTION__.5954,"a",%progbits
 1698              	 .set .LANCHOR0,.+0
 1701              	__FUNCTION__.5954:
 1702 0000 6F707469 	 .ascii "optiga_util_open_application\000"
 1702      67615F75 
 1702      74696C5F 
 1702      6F70656E 
 1702      5F617070 
 1703              	 .text
 1704              	.Letext0:
 1705              	 .file 2 "c:\\dave_4-4-2_64bit\\dave-ide-4.4.2-64bit\\eclipse\\arm-gcc-49\\arm-none-eabi\\include\\machine\\_default_types.h"
 1706              	 .file 3 "c:\\dave_4-4-2_64bit\\dave-ide-4.4.2-64bit\\eclipse\\arm-gcc-49\\lib\\gcc\\arm-none-eabi\\4.9.3\\include\\stddef.h"
 1707              	 .file 4 "c:\\dave_4-4-2_64bit\\dave-ide-4.4.2-64bit\\eclipse\\arm-gcc-49\\arm-none-eabi\\include\\stdint.h"
 1708              	 .file 5 "C:/Workspace/DAVE-4.4.2-64Bit/optiga-trust-m/optiga/include/optiga/common/optiga_lib_types.h"
 1709              	 .file 6 "C:/Workspace/DAVE-4.4.2-64Bit/optiga-trust-m/optiga/include/optiga/common/optiga_lib_common.h"
 1710              	 .file 7 "C:/Workspace/DAVE-4.4.2-64Bit/optiga-trust-m/optiga/include/optiga/cmd/optiga_cmd.h"
 1711              	 .file 8 "C:/Workspace/DAVE-4.4.2-64Bit/optiga-trust-m/optiga/include/optiga/optiga_util.h"
 1712              	 .file 9 "c:\\dave_4-4-2_64bit\\dave-ide-4.4.2-64bit\\eclipse\\arm-gcc-49\\arm-none-eabi\\include\\stdlib.h"
 1713              	 .file 10 "C:/Workspace/DAVE-4.4.2-64Bit/optiga-trust-m/optiga/include/optiga/common/optiga_lib_logger.h"