   1              	 .cpu cortex-m0
   2              	 .fpu softvfp
   3              	 .eabi_attribute 20,1
   4              	 .eabi_attribute 21,1
   5              	 .eabi_attribute 23,3
   6              	 .eabi_attribute 24,1
   7              	 .eabi_attribute 25,1
   8              	 .eabi_attribute 26,1
   9              	 .eabi_attribute 30,4
  10              	 .eabi_attribute 34,0
  11              	 .eabi_attribute 18,4
  12              	 .code 16
  13              	 .file "optiga_comms_ifx_i2c.c"
  14              	 .text
  15              	.Ltext0:
  16              	 .cfi_sections .debug_frame
  17              	 .section .text.ifx_i2c_event_handler,"ax",%progbits
  18              	 .align 1
  19              	 .code 16
  20              	 .thumb_func
  22              	ifx_i2c_event_handler:
  23              	.LFB9:
  24              	 .file 1 "//MAC/Home/Downloads/getstarted-optiga-trust-m/optiga-trust-m-1/optiga/comms/optiga_comms_ifx_i2c.c"
   1://MAC/Home/Downloads/getstarted-optiga-trust-m/optiga-trust-m-1/optiga/comms/optiga_comms_ifx_i2c.c **** /**
   2://MAC/Home/Downloads/getstarted-optiga-trust-m/optiga-trust-m-1/optiga/comms/optiga_comms_ifx_i2c.c **** * \copyright
   3://MAC/Home/Downloads/getstarted-optiga-trust-m/optiga-trust-m-1/optiga/comms/optiga_comms_ifx_i2c.c **** * MIT License
   4://MAC/Home/Downloads/getstarted-optiga-trust-m/optiga-trust-m-1/optiga/comms/optiga_comms_ifx_i2c.c **** *
   5://MAC/Home/Downloads/getstarted-optiga-trust-m/optiga-trust-m-1/optiga/comms/optiga_comms_ifx_i2c.c **** * Copyright (c) 2019 Infineon Technologies AG
   6://MAC/Home/Downloads/getstarted-optiga-trust-m/optiga-trust-m-1/optiga/comms/optiga_comms_ifx_i2c.c **** *
   7://MAC/Home/Downloads/getstarted-optiga-trust-m/optiga-trust-m-1/optiga/comms/optiga_comms_ifx_i2c.c **** * Permission is hereby granted, free of charge, to any person obtaining a copy
   8://MAC/Home/Downloads/getstarted-optiga-trust-m/optiga-trust-m-1/optiga/comms/optiga_comms_ifx_i2c.c **** * of this software and associated documentation files (the "Software"), to deal
   9://MAC/Home/Downloads/getstarted-optiga-trust-m/optiga-trust-m-1/optiga/comms/optiga_comms_ifx_i2c.c **** * in the Software without restriction, including without limitation the rights
  10://MAC/Home/Downloads/getstarted-optiga-trust-m/optiga-trust-m-1/optiga/comms/optiga_comms_ifx_i2c.c **** * to use, copy, modify, merge, publish, distribute, sublicense, and/or sell
  11://MAC/Home/Downloads/getstarted-optiga-trust-m/optiga-trust-m-1/optiga/comms/optiga_comms_ifx_i2c.c **** * copies of the Software, and to permit persons to whom the Software is
  12://MAC/Home/Downloads/getstarted-optiga-trust-m/optiga-trust-m-1/optiga/comms/optiga_comms_ifx_i2c.c **** * furnished to do so, subject to the following conditions:
  13://MAC/Home/Downloads/getstarted-optiga-trust-m/optiga-trust-m-1/optiga/comms/optiga_comms_ifx_i2c.c **** *
  14://MAC/Home/Downloads/getstarted-optiga-trust-m/optiga-trust-m-1/optiga/comms/optiga_comms_ifx_i2c.c **** * The above copyright notice and this permission notice shall be included in all
  15://MAC/Home/Downloads/getstarted-optiga-trust-m/optiga-trust-m-1/optiga/comms/optiga_comms_ifx_i2c.c **** * copies or substantial portions of the Software.
  16://MAC/Home/Downloads/getstarted-optiga-trust-m/optiga-trust-m-1/optiga/comms/optiga_comms_ifx_i2c.c **** *
  17://MAC/Home/Downloads/getstarted-optiga-trust-m/optiga-trust-m-1/optiga/comms/optiga_comms_ifx_i2c.c **** * THE SOFTWARE IS PROVIDED "AS IS", WITHOUT WARRANTY OF ANY KIND, EXPRESS OR
  18://MAC/Home/Downloads/getstarted-optiga-trust-m/optiga-trust-m-1/optiga/comms/optiga_comms_ifx_i2c.c **** * IMPLIED, INCLUDING BUT NOT LIMITED TO THE WARRANTIES OF MERCHANTABILITY,
  19://MAC/Home/Downloads/getstarted-optiga-trust-m/optiga-trust-m-1/optiga/comms/optiga_comms_ifx_i2c.c **** * FITNESS FOR A PARTICULAR PURPOSE AND NONINFRINGEMENT. IN NO EVENT SHALL THE
  20://MAC/Home/Downloads/getstarted-optiga-trust-m/optiga-trust-m-1/optiga/comms/optiga_comms_ifx_i2c.c **** * AUTHORS OR COPYRIGHT HOLDERS BE LIABLE FOR ANY CLAIM, DAMAGES OR OTHER
  21://MAC/Home/Downloads/getstarted-optiga-trust-m/optiga-trust-m-1/optiga/comms/optiga_comms_ifx_i2c.c **** * LIABILITY, WHETHER IN AN ACTION OF CONTRACT, TORT OR OTHERWISE, ARISING FROM,
  22://MAC/Home/Downloads/getstarted-optiga-trust-m/optiga-trust-m-1/optiga/comms/optiga_comms_ifx_i2c.c **** * OUT OF OR IN CONNECTION WITH THE SOFTWARE OR THE USE OR OTHER DEALINGS IN THE
  23://MAC/Home/Downloads/getstarted-optiga-trust-m/optiga-trust-m-1/optiga/comms/optiga_comms_ifx_i2c.c **** * SOFTWARE
  24://MAC/Home/Downloads/getstarted-optiga-trust-m/optiga-trust-m-1/optiga/comms/optiga_comms_ifx_i2c.c **** *
  25://MAC/Home/Downloads/getstarted-optiga-trust-m/optiga-trust-m-1/optiga/comms/optiga_comms_ifx_i2c.c **** * \endcopyright
  26://MAC/Home/Downloads/getstarted-optiga-trust-m/optiga-trust-m-1/optiga/comms/optiga_comms_ifx_i2c.c **** *
  27://MAC/Home/Downloads/getstarted-optiga-trust-m/optiga-trust-m-1/optiga/comms/optiga_comms_ifx_i2c.c **** * \author Infineon Technologies AG
  28://MAC/Home/Downloads/getstarted-optiga-trust-m/optiga-trust-m-1/optiga/comms/optiga_comms_ifx_i2c.c **** *
  29://MAC/Home/Downloads/getstarted-optiga-trust-m/optiga-trust-m-1/optiga/comms/optiga_comms_ifx_i2c.c **** * \file optiga_comms_ifx_i2c.c
  30://MAC/Home/Downloads/getstarted-optiga-trust-m/optiga-trust-m-1/optiga/comms/optiga_comms_ifx_i2c.c **** *
  31://MAC/Home/Downloads/getstarted-optiga-trust-m/optiga-trust-m-1/optiga/comms/optiga_comms_ifx_i2c.c **** * \brief   This file implements optiga comms abstraction layer for IFX I2C Protocol.
  32://MAC/Home/Downloads/getstarted-optiga-trust-m/optiga-trust-m-1/optiga/comms/optiga_comms_ifx_i2c.c **** *
  33://MAC/Home/Downloads/getstarted-optiga-trust-m/optiga-trust-m-1/optiga/comms/optiga_comms_ifx_i2c.c **** * \ingroup  grOptigaComms
  34://MAC/Home/Downloads/getstarted-optiga-trust-m/optiga-trust-m-1/optiga/comms/optiga_comms_ifx_i2c.c **** *
  35://MAC/Home/Downloads/getstarted-optiga-trust-m/optiga-trust-m-1/optiga/comms/optiga_comms_ifx_i2c.c **** * @{
  36://MAC/Home/Downloads/getstarted-optiga-trust-m/optiga-trust-m-1/optiga/comms/optiga_comms_ifx_i2c.c **** */
  37://MAC/Home/Downloads/getstarted-optiga-trust-m/optiga-trust-m-1/optiga/comms/optiga_comms_ifx_i2c.c **** 
  38://MAC/Home/Downloads/getstarted-optiga-trust-m/optiga-trust-m-1/optiga/comms/optiga_comms_ifx_i2c.c **** /**************************************************************************************************
  39://MAC/Home/Downloads/getstarted-optiga-trust-m/optiga-trust-m-1/optiga/comms/optiga_comms_ifx_i2c.c ****  * HEADER FILES
  40://MAC/Home/Downloads/getstarted-optiga-trust-m/optiga-trust-m-1/optiga/comms/optiga_comms_ifx_i2c.c ****  **************************************************************************************************
  41://MAC/Home/Downloads/getstarted-optiga-trust-m/optiga-trust-m-1/optiga/comms/optiga_comms_ifx_i2c.c **** #include "optiga/comms/optiga_comms.h"
  42://MAC/Home/Downloads/getstarted-optiga-trust-m/optiga-trust-m-1/optiga/comms/optiga_comms_ifx_i2c.c **** #include "optiga/common/optiga_lib_logger.h"
  43://MAC/Home/Downloads/getstarted-optiga-trust-m/optiga-trust-m-1/optiga/comms/optiga_comms_ifx_i2c.c **** #include "optiga/ifx_i2c/ifx_i2c.h"
  44://MAC/Home/Downloads/getstarted-optiga-trust-m/optiga-trust-m-1/optiga/comms/optiga_comms_ifx_i2c.c **** #include "optiga/pal/pal_os_event.h"
  45://MAC/Home/Downloads/getstarted-optiga-trust-m/optiga-trust-m-1/optiga/comms/optiga_comms_ifx_i2c.c **** 
  46://MAC/Home/Downloads/getstarted-optiga-trust-m/optiga-trust-m-1/optiga/comms/optiga_comms_ifx_i2c.c **** /// @cond hidden
  47://MAC/Home/Downloads/getstarted-optiga-trust-m/optiga-trust-m-1/optiga/comms/optiga_comms_ifx_i2c.c **** 
  48://MAC/Home/Downloads/getstarted-optiga-trust-m/optiga-trust-m-1/optiga/comms/optiga_comms_ifx_i2c.c ****  /// Optiga comms is in use
  49://MAC/Home/Downloads/getstarted-optiga-trust-m/optiga-trust-m-1/optiga/comms/optiga_comms_ifx_i2c.c ****  #define OPTIGA_COMMS_INUSE     (0x01)
  50://MAC/Home/Downloads/getstarted-optiga-trust-m/optiga-trust-m-1/optiga/comms/optiga_comms_ifx_i2c.c ****  /// Optiga comms is free
  51://MAC/Home/Downloads/getstarted-optiga-trust-m/optiga-trust-m-1/optiga/comms/optiga_comms_ifx_i2c.c ****  #define OPTIGA_COMMS_FREE      (0x00)
  52://MAC/Home/Downloads/getstarted-optiga-trust-m/optiga-trust-m-1/optiga/comms/optiga_comms_ifx_i2c.c **** 
  53://MAC/Home/Downloads/getstarted-optiga-trust-m/optiga-trust-m-1/optiga/comms/optiga_comms_ifx_i2c.c **** optiga_comms_t optiga_comms = {
  54://MAC/Home/Downloads/getstarted-optiga-trust-m/optiga-trust-m-1/optiga/comms/optiga_comms_ifx_i2c.c ****                                (void *)&ifx_i2c_context_0,
  55://MAC/Home/Downloads/getstarted-optiga-trust-m/optiga-trust-m-1/optiga/comms/optiga_comms_ifx_i2c.c ****                                NULL,
  56://MAC/Home/Downloads/getstarted-optiga-trust-m/optiga-trust-m-1/optiga/comms/optiga_comms_ifx_i2c.c ****                                NULL,
  57://MAC/Home/Downloads/getstarted-optiga-trust-m/optiga-trust-m-1/optiga/comms/optiga_comms_ifx_i2c.c ****                                0,
  58://MAC/Home/Downloads/getstarted-optiga-trust-m/optiga-trust-m-1/optiga/comms/optiga_comms_ifx_i2c.c ****                                0,
  59://MAC/Home/Downloads/getstarted-optiga-trust-m/optiga-trust-m-1/optiga/comms/optiga_comms_ifx_i2c.c **** #ifdef OPTIGA_COMMS_SHIELDED_CONNECTION
  60://MAC/Home/Downloads/getstarted-optiga-trust-m/optiga-trust-m-1/optiga/comms/optiga_comms_ifx_i2c.c ****                                0,
  61://MAC/Home/Downloads/getstarted-optiga-trust-m/optiga-trust-m-1/optiga/comms/optiga_comms_ifx_i2c.c ****                                0,
  62://MAC/Home/Downloads/getstarted-optiga-trust-m/optiga-trust-m-1/optiga/comms/optiga_comms_ifx_i2c.c ****                                0,
  63://MAC/Home/Downloads/getstarted-optiga-trust-m/optiga-trust-m-1/optiga/comms/optiga_comms_ifx_i2c.c **** #endif
  64://MAC/Home/Downloads/getstarted-optiga-trust-m/optiga-trust-m-1/optiga/comms/optiga_comms_ifx_i2c.c ****                                NULL};
  65://MAC/Home/Downloads/getstarted-optiga-trust-m/optiga-trust-m-1/optiga/comms/optiga_comms_ifx_i2c.c **** 
  66://MAC/Home/Downloads/getstarted-optiga-trust-m/optiga-trust-m-1/optiga/comms/optiga_comms_ifx_i2c.c **** _STATIC_H optiga_lib_status_t check_optiga_comms_state(optiga_comms_t *p_ctx);
  67://MAC/Home/Downloads/getstarted-optiga-trust-m/optiga-trust-m-1/optiga/comms/optiga_comms_ifx_i2c.c **** _STATIC_H void ifx_i2c_event_handler(void* p_ctx, optiga_lib_status_t event);
  68://MAC/Home/Downloads/getstarted-optiga-trust-m/optiga-trust-m-1/optiga/comms/optiga_comms_ifx_i2c.c **** 
  69://MAC/Home/Downloads/getstarted-optiga-trust-m/optiga-trust-m-1/optiga/comms/optiga_comms_ifx_i2c.c **** optiga_comms_t * optiga_comms_create(callback_handler_t callback, void * context)
  70://MAC/Home/Downloads/getstarted-optiga-trust-m/optiga-trust-m-1/optiga/comms/optiga_comms_ifx_i2c.c **** {
  71://MAC/Home/Downloads/getstarted-optiga-trust-m/optiga-trust-m-1/optiga/comms/optiga_comms_ifx_i2c.c ****     optiga_comms_t * p_optiga_comms = NULL;
  72://MAC/Home/Downloads/getstarted-optiga-trust-m/optiga-trust-m-1/optiga/comms/optiga_comms_ifx_i2c.c **** 
  73://MAC/Home/Downloads/getstarted-optiga-trust-m/optiga-trust-m-1/optiga/comms/optiga_comms_ifx_i2c.c ****     do
  74://MAC/Home/Downloads/getstarted-optiga-trust-m/optiga-trust-m-1/optiga/comms/optiga_comms_ifx_i2c.c ****     {
  75://MAC/Home/Downloads/getstarted-optiga-trust-m/optiga-trust-m-1/optiga/comms/optiga_comms_ifx_i2c.c ****         p_optiga_comms = &optiga_comms;
  76://MAC/Home/Downloads/getstarted-optiga-trust-m/optiga-trust-m-1/optiga/comms/optiga_comms_ifx_i2c.c **** 
  77://MAC/Home/Downloads/getstarted-optiga-trust-m/optiga-trust-m-1/optiga/comms/optiga_comms_ifx_i2c.c ****         if (FALSE == p_optiga_comms->instance_init_state)
  78://MAC/Home/Downloads/getstarted-optiga-trust-m/optiga-trust-m-1/optiga/comms/optiga_comms_ifx_i2c.c ****         {
  79://MAC/Home/Downloads/getstarted-optiga-trust-m/optiga-trust-m-1/optiga/comms/optiga_comms_ifx_i2c.c ****             p_optiga_comms->upper_layer_handler = callback;
  80://MAC/Home/Downloads/getstarted-optiga-trust-m/optiga-trust-m-1/optiga/comms/optiga_comms_ifx_i2c.c ****             p_optiga_comms->p_upper_layer_ctx = context;
  81://MAC/Home/Downloads/getstarted-optiga-trust-m/optiga-trust-m-1/optiga/comms/optiga_comms_ifx_i2c.c ****             p_optiga_comms->instance_init_state = TRUE;
  82://MAC/Home/Downloads/getstarted-optiga-trust-m/optiga-trust-m-1/optiga/comms/optiga_comms_ifx_i2c.c ****         }
  83://MAC/Home/Downloads/getstarted-optiga-trust-m/optiga-trust-m-1/optiga/comms/optiga_comms_ifx_i2c.c ****     } while (FALSE);
  84://MAC/Home/Downloads/getstarted-optiga-trust-m/optiga-trust-m-1/optiga/comms/optiga_comms_ifx_i2c.c ****     return (p_optiga_comms);
  85://MAC/Home/Downloads/getstarted-optiga-trust-m/optiga-trust-m-1/optiga/comms/optiga_comms_ifx_i2c.c **** }
  86://MAC/Home/Downloads/getstarted-optiga-trust-m/optiga-trust-m-1/optiga/comms/optiga_comms_ifx_i2c.c **** 
  87://MAC/Home/Downloads/getstarted-optiga-trust-m/optiga-trust-m-1/optiga/comms/optiga_comms_ifx_i2c.c **** //lint --e{715} suppress "p_optiga_cmd is not used here as it is placeholder for future."
  88://MAC/Home/Downloads/getstarted-optiga-trust-m/optiga-trust-m-1/optiga/comms/optiga_comms_ifx_i2c.c **** //lint --e{818} suppress "Not declared as pointer as nothing needs to be updated in the pointer."
  89://MAC/Home/Downloads/getstarted-optiga-trust-m/optiga-trust-m-1/optiga/comms/optiga_comms_ifx_i2c.c **** void optiga_comms_destroy(optiga_comms_t * p_optiga_cmd)
  90://MAC/Home/Downloads/getstarted-optiga-trust-m/optiga-trust-m-1/optiga/comms/optiga_comms_ifx_i2c.c **** {
  91://MAC/Home/Downloads/getstarted-optiga-trust-m/optiga-trust-m-1/optiga/comms/optiga_comms_ifx_i2c.c **** }
  92://MAC/Home/Downloads/getstarted-optiga-trust-m/optiga-trust-m-1/optiga/comms/optiga_comms_ifx_i2c.c **** 
  93://MAC/Home/Downloads/getstarted-optiga-trust-m/optiga-trust-m-1/optiga/comms/optiga_comms_ifx_i2c.c **** optiga_lib_status_t optiga_comms_set_callback_handler(optiga_comms_t * p_optiga_comms, callback_han
  94://MAC/Home/Downloads/getstarted-optiga-trust-m/optiga-trust-m-1/optiga/comms/optiga_comms_ifx_i2c.c **** {
  95://MAC/Home/Downloads/getstarted-optiga-trust-m/optiga-trust-m-1/optiga/comms/optiga_comms_ifx_i2c.c ****     p_optiga_comms->upper_layer_handler = handler;
  96://MAC/Home/Downloads/getstarted-optiga-trust-m/optiga-trust-m-1/optiga/comms/optiga_comms_ifx_i2c.c ****     return (0);
  97://MAC/Home/Downloads/getstarted-optiga-trust-m/optiga-trust-m-1/optiga/comms/optiga_comms_ifx_i2c.c **** }
  98://MAC/Home/Downloads/getstarted-optiga-trust-m/optiga-trust-m-1/optiga/comms/optiga_comms_ifx_i2c.c **** 
  99://MAC/Home/Downloads/getstarted-optiga-trust-m/optiga-trust-m-1/optiga/comms/optiga_comms_ifx_i2c.c **** optiga_lib_status_t optiga_comms_set_callback_context(optiga_comms_t * p_optiga_comms, void * conte
 100://MAC/Home/Downloads/getstarted-optiga-trust-m/optiga-trust-m-1/optiga/comms/optiga_comms_ifx_i2c.c **** {
 101://MAC/Home/Downloads/getstarted-optiga-trust-m/optiga-trust-m-1/optiga/comms/optiga_comms_ifx_i2c.c ****     p_optiga_comms->p_upper_layer_ctx = context;
 102://MAC/Home/Downloads/getstarted-optiga-trust-m/optiga-trust-m-1/optiga/comms/optiga_comms_ifx_i2c.c ****     return (0);
 103://MAC/Home/Downloads/getstarted-optiga-trust-m/optiga-trust-m-1/optiga/comms/optiga_comms_ifx_i2c.c **** }
 104://MAC/Home/Downloads/getstarted-optiga-trust-m/optiga-trust-m-1/optiga/comms/optiga_comms_ifx_i2c.c **** 
 105://MAC/Home/Downloads/getstarted-optiga-trust-m/optiga-trust-m-1/optiga/comms/optiga_comms_ifx_i2c.c **** 
 106://MAC/Home/Downloads/getstarted-optiga-trust-m/optiga-trust-m-1/optiga/comms/optiga_comms_ifx_i2c.c **** /// @endcond
 107://MAC/Home/Downloads/getstarted-optiga-trust-m/optiga-trust-m-1/optiga/comms/optiga_comms_ifx_i2c.c **** /**************************************************************************************************
 108://MAC/Home/Downloads/getstarted-optiga-trust-m/optiga-trust-m-1/optiga/comms/optiga_comms_ifx_i2c.c ****  * API IMPLEMENTATION
 109://MAC/Home/Downloads/getstarted-optiga-trust-m/optiga-trust-m-1/optiga/comms/optiga_comms_ifx_i2c.c ****  **************************************************************************************************
 110://MAC/Home/Downloads/getstarted-optiga-trust-m/optiga-trust-m-1/optiga/comms/optiga_comms_ifx_i2c.c **** 
 111://MAC/Home/Downloads/getstarted-optiga-trust-m/optiga-trust-m-1/optiga/comms/optiga_comms_ifx_i2c.c **** 
 112://MAC/Home/Downloads/getstarted-optiga-trust-m/optiga-trust-m-1/optiga/comms/optiga_comms_ifx_i2c.c **** optiga_lib_status_t optiga_comms_open(optiga_comms_t * p_ctx)
 113://MAC/Home/Downloads/getstarted-optiga-trust-m/optiga-trust-m-1/optiga/comms/optiga_comms_ifx_i2c.c **** {
 114://MAC/Home/Downloads/getstarted-optiga-trust-m/optiga-trust-m-1/optiga/comms/optiga_comms_ifx_i2c.c ****     optiga_lib_status_t status = OPTIGA_COMMS_ERROR;
 115://MAC/Home/Downloads/getstarted-optiga-trust-m/optiga-trust-m-1/optiga/comms/optiga_comms_ifx_i2c.c ****     if (OPTIGA_COMMS_SUCCESS == check_optiga_comms_state(p_ctx))
 116://MAC/Home/Downloads/getstarted-optiga-trust-m/optiga-trust-m-1/optiga/comms/optiga_comms_ifx_i2c.c ****     {
 117://MAC/Home/Downloads/getstarted-optiga-trust-m/optiga-trust-m-1/optiga/comms/optiga_comms_ifx_i2c.c ****         if (PAL_STATUS_SUCCESS == pal_init())
 118://MAC/Home/Downloads/getstarted-optiga-trust-m/optiga-trust-m-1/optiga/comms/optiga_comms_ifx_i2c.c ****         {
 119://MAC/Home/Downloads/getstarted-optiga-trust-m/optiga-trust-m-1/optiga/comms/optiga_comms_ifx_i2c.c ****             ((ifx_i2c_context_t * )(p_ctx->p_comms_ctx))->p_upper_layer_ctx = (void * )p_ctx;
 120://MAC/Home/Downloads/getstarted-optiga-trust-m/optiga-trust-m-1/optiga/comms/optiga_comms_ifx_i2c.c ****             ((ifx_i2c_context_t * )(p_ctx->p_comms_ctx))->upper_layer_event_handler = ifx_i2c_event
 121://MAC/Home/Downloads/getstarted-optiga-trust-m/optiga-trust-m-1/optiga/comms/optiga_comms_ifx_i2c.c **** #ifdef OPTIGA_COMMS_SHIELDED_CONNECTION
 122://MAC/Home/Downloads/getstarted-optiga-trust-m/optiga-trust-m-1/optiga/comms/optiga_comms_ifx_i2c.c ****             ((ifx_i2c_context_t * )(p_ctx->p_comms_ctx))->manage_context_operation = p_ctx->manage_
 123://MAC/Home/Downloads/getstarted-optiga-trust-m/optiga-trust-m-1/optiga/comms/optiga_comms_ifx_i2c.c **** #endif
 124://MAC/Home/Downloads/getstarted-optiga-trust-m/optiga-trust-m-1/optiga/comms/optiga_comms_ifx_i2c.c ****             ((ifx_i2c_context_t * )(p_ctx->p_comms_ctx))->pal_os_event_ctx = p_ctx->p_pal_os_event_
 125://MAC/Home/Downloads/getstarted-optiga-trust-m/optiga-trust-m-1/optiga/comms/optiga_comms_ifx_i2c.c **** 
 126://MAC/Home/Downloads/getstarted-optiga-trust-m/optiga-trust-m-1/optiga/comms/optiga_comms_ifx_i2c.c ****             status = ifx_i2c_open((ifx_i2c_context_t * )(p_ctx->p_comms_ctx));
 127://MAC/Home/Downloads/getstarted-optiga-trust-m/optiga-trust-m-1/optiga/comms/optiga_comms_ifx_i2c.c ****             if (IFX_I2C_STACK_SUCCESS != status)
 128://MAC/Home/Downloads/getstarted-optiga-trust-m/optiga-trust-m-1/optiga/comms/optiga_comms_ifx_i2c.c ****             {
 129://MAC/Home/Downloads/getstarted-optiga-trust-m/optiga-trust-m-1/optiga/comms/optiga_comms_ifx_i2c.c ****                 p_ctx->state = OPTIGA_COMMS_FREE;
 130://MAC/Home/Downloads/getstarted-optiga-trust-m/optiga-trust-m-1/optiga/comms/optiga_comms_ifx_i2c.c ****             }
 131://MAC/Home/Downloads/getstarted-optiga-trust-m/optiga-trust-m-1/optiga/comms/optiga_comms_ifx_i2c.c ****         }
 132://MAC/Home/Downloads/getstarted-optiga-trust-m/optiga-trust-m-1/optiga/comms/optiga_comms_ifx_i2c.c ****     }
 133://MAC/Home/Downloads/getstarted-optiga-trust-m/optiga-trust-m-1/optiga/comms/optiga_comms_ifx_i2c.c ****     return (status);
 134://MAC/Home/Downloads/getstarted-optiga-trust-m/optiga-trust-m-1/optiga/comms/optiga_comms_ifx_i2c.c **** }
 135://MAC/Home/Downloads/getstarted-optiga-trust-m/optiga-trust-m-1/optiga/comms/optiga_comms_ifx_i2c.c **** 
 136://MAC/Home/Downloads/getstarted-optiga-trust-m/optiga-trust-m-1/optiga/comms/optiga_comms_ifx_i2c.c **** optiga_lib_status_t optiga_comms_reset(optiga_comms_t * p_ctx, uint8_t reset_type)
 137://MAC/Home/Downloads/getstarted-optiga-trust-m/optiga-trust-m-1/optiga/comms/optiga_comms_ifx_i2c.c **** {
 138://MAC/Home/Downloads/getstarted-optiga-trust-m/optiga-trust-m-1/optiga/comms/optiga_comms_ifx_i2c.c ****     optiga_lib_status_t status = OPTIGA_COMMS_ERROR;
 139://MAC/Home/Downloads/getstarted-optiga-trust-m/optiga-trust-m-1/optiga/comms/optiga_comms_ifx_i2c.c ****     if (OPTIGA_COMMS_SUCCESS == check_optiga_comms_state(p_ctx))
 140://MAC/Home/Downloads/getstarted-optiga-trust-m/optiga-trust-m-1/optiga/comms/optiga_comms_ifx_i2c.c ****     {
 141://MAC/Home/Downloads/getstarted-optiga-trust-m/optiga-trust-m-1/optiga/comms/optiga_comms_ifx_i2c.c ****         ((ifx_i2c_context_t * )(p_ctx->p_comms_ctx))->p_upper_layer_ctx = (void * )p_ctx;
 142://MAC/Home/Downloads/getstarted-optiga-trust-m/optiga-trust-m-1/optiga/comms/optiga_comms_ifx_i2c.c ****         ((ifx_i2c_context_t * )(p_ctx->p_comms_ctx))->upper_layer_event_handler = ifx_i2c_event_han
 143://MAC/Home/Downloads/getstarted-optiga-trust-m/optiga-trust-m-1/optiga/comms/optiga_comms_ifx_i2c.c ****         status = ifx_i2c_reset((ifx_i2c_context_t * )(p_ctx->p_comms_ctx), (ifx_i2c_reset_type_t)re
 144://MAC/Home/Downloads/getstarted-optiga-trust-m/optiga-trust-m-1/optiga/comms/optiga_comms_ifx_i2c.c ****         if (IFX_I2C_STACK_SUCCESS != status)
 145://MAC/Home/Downloads/getstarted-optiga-trust-m/optiga-trust-m-1/optiga/comms/optiga_comms_ifx_i2c.c ****         {
 146://MAC/Home/Downloads/getstarted-optiga-trust-m/optiga-trust-m-1/optiga/comms/optiga_comms_ifx_i2c.c ****             p_ctx->state = OPTIGA_COMMS_FREE;
 147://MAC/Home/Downloads/getstarted-optiga-trust-m/optiga-trust-m-1/optiga/comms/optiga_comms_ifx_i2c.c ****         }
 148://MAC/Home/Downloads/getstarted-optiga-trust-m/optiga-trust-m-1/optiga/comms/optiga_comms_ifx_i2c.c ****     }
 149://MAC/Home/Downloads/getstarted-optiga-trust-m/optiga-trust-m-1/optiga/comms/optiga_comms_ifx_i2c.c ****     return (status);
 150://MAC/Home/Downloads/getstarted-optiga-trust-m/optiga-trust-m-1/optiga/comms/optiga_comms_ifx_i2c.c **** }
 151://MAC/Home/Downloads/getstarted-optiga-trust-m/optiga-trust-m-1/optiga/comms/optiga_comms_ifx_i2c.c **** 
 152://MAC/Home/Downloads/getstarted-optiga-trust-m/optiga-trust-m-1/optiga/comms/optiga_comms_ifx_i2c.c **** 
 153://MAC/Home/Downloads/getstarted-optiga-trust-m/optiga-trust-m-1/optiga/comms/optiga_comms_ifx_i2c.c **** optiga_lib_status_t optiga_comms_transceive(optiga_comms_t * p_ctx,
 154://MAC/Home/Downloads/getstarted-optiga-trust-m/optiga-trust-m-1/optiga/comms/optiga_comms_ifx_i2c.c ****                                             const uint8_t * p_tx_data,
 155://MAC/Home/Downloads/getstarted-optiga-trust-m/optiga-trust-m-1/optiga/comms/optiga_comms_ifx_i2c.c ****                                             uint16_t tx_data_length,
 156://MAC/Home/Downloads/getstarted-optiga-trust-m/optiga-trust-m-1/optiga/comms/optiga_comms_ifx_i2c.c ****                                             uint8_t * p_rx_data,
 157://MAC/Home/Downloads/getstarted-optiga-trust-m/optiga-trust-m-1/optiga/comms/optiga_comms_ifx_i2c.c ****                                             uint16_t * p_rx_data_len)
 158://MAC/Home/Downloads/getstarted-optiga-trust-m/optiga-trust-m-1/optiga/comms/optiga_comms_ifx_i2c.c **** {
 159://MAC/Home/Downloads/getstarted-optiga-trust-m/optiga-trust-m-1/optiga/comms/optiga_comms_ifx_i2c.c ****     optiga_lib_status_t status = OPTIGA_COMMS_ERROR;
 160://MAC/Home/Downloads/getstarted-optiga-trust-m/optiga-trust-m-1/optiga/comms/optiga_comms_ifx_i2c.c ****     if (OPTIGA_COMMS_SUCCESS == check_optiga_comms_state(p_ctx))
 161://MAC/Home/Downloads/getstarted-optiga-trust-m/optiga-trust-m-1/optiga/comms/optiga_comms_ifx_i2c.c ****     {
 162://MAC/Home/Downloads/getstarted-optiga-trust-m/optiga-trust-m-1/optiga/comms/optiga_comms_ifx_i2c.c ****         ((ifx_i2c_context_t * )(p_ctx->p_comms_ctx))->p_upper_layer_ctx = (void * )p_ctx;
 163://MAC/Home/Downloads/getstarted-optiga-trust-m/optiga-trust-m-1/optiga/comms/optiga_comms_ifx_i2c.c ****         ((ifx_i2c_context_t * )(p_ctx->p_comms_ctx))->upper_layer_event_handler = ifx_i2c_event_han
 164://MAC/Home/Downloads/getstarted-optiga-trust-m/optiga-trust-m-1/optiga/comms/optiga_comms_ifx_i2c.c **** #ifdef OPTIGA_COMMS_SHIELDED_CONNECTION
 165://MAC/Home/Downloads/getstarted-optiga-trust-m/optiga-trust-m-1/optiga/comms/optiga_comms_ifx_i2c.c ****         ((ifx_i2c_context_t * )(p_ctx->p_comms_ctx))->protection_level = p_ctx->protection_level;
 166://MAC/Home/Downloads/getstarted-optiga-trust-m/optiga-trust-m-1/optiga/comms/optiga_comms_ifx_i2c.c ****         ((ifx_i2c_context_t * )(p_ctx->p_comms_ctx))->protocol_version = p_ctx->protocol_version;
 167://MAC/Home/Downloads/getstarted-optiga-trust-m/optiga-trust-m-1/optiga/comms/optiga_comms_ifx_i2c.c ****         ((ifx_i2c_context_t * )(p_ctx->p_comms_ctx))->manage_context_operation = p_ctx->manage_cont
 168://MAC/Home/Downloads/getstarted-optiga-trust-m/optiga-trust-m-1/optiga/comms/optiga_comms_ifx_i2c.c **** #endif
 169://MAC/Home/Downloads/getstarted-optiga-trust-m/optiga-trust-m-1/optiga/comms/optiga_comms_ifx_i2c.c ****         status = (ifx_i2c_transceive((ifx_i2c_context_t * )(p_ctx->p_comms_ctx),
 170://MAC/Home/Downloads/getstarted-optiga-trust-m/optiga-trust-m-1/optiga/comms/optiga_comms_ifx_i2c.c ****                                      p_tx_data,
 171://MAC/Home/Downloads/getstarted-optiga-trust-m/optiga-trust-m-1/optiga/comms/optiga_comms_ifx_i2c.c ****                                      tx_data_length,
 172://MAC/Home/Downloads/getstarted-optiga-trust-m/optiga-trust-m-1/optiga/comms/optiga_comms_ifx_i2c.c ****                                      p_rx_data,
 173://MAC/Home/Downloads/getstarted-optiga-trust-m/optiga-trust-m-1/optiga/comms/optiga_comms_ifx_i2c.c ****                                      p_rx_data_len));
 174://MAC/Home/Downloads/getstarted-optiga-trust-m/optiga-trust-m-1/optiga/comms/optiga_comms_ifx_i2c.c ****         if (IFX_I2C_STACK_SUCCESS != status)
 175://MAC/Home/Downloads/getstarted-optiga-trust-m/optiga-trust-m-1/optiga/comms/optiga_comms_ifx_i2c.c ****         {
 176://MAC/Home/Downloads/getstarted-optiga-trust-m/optiga-trust-m-1/optiga/comms/optiga_comms_ifx_i2c.c ****             p_ctx->state = OPTIGA_COMMS_FREE;
 177://MAC/Home/Downloads/getstarted-optiga-trust-m/optiga-trust-m-1/optiga/comms/optiga_comms_ifx_i2c.c ****         }
 178://MAC/Home/Downloads/getstarted-optiga-trust-m/optiga-trust-m-1/optiga/comms/optiga_comms_ifx_i2c.c ****     }
 179://MAC/Home/Downloads/getstarted-optiga-trust-m/optiga-trust-m-1/optiga/comms/optiga_comms_ifx_i2c.c ****     return (status);
 180://MAC/Home/Downloads/getstarted-optiga-trust-m/optiga-trust-m-1/optiga/comms/optiga_comms_ifx_i2c.c **** }
 181://MAC/Home/Downloads/getstarted-optiga-trust-m/optiga-trust-m-1/optiga/comms/optiga_comms_ifx_i2c.c **** 
 182://MAC/Home/Downloads/getstarted-optiga-trust-m/optiga-trust-m-1/optiga/comms/optiga_comms_ifx_i2c.c **** 
 183://MAC/Home/Downloads/getstarted-optiga-trust-m/optiga-trust-m-1/optiga/comms/optiga_comms_ifx_i2c.c **** optiga_lib_status_t optiga_comms_close(optiga_comms_t * p_ctx)
 184://MAC/Home/Downloads/getstarted-optiga-trust-m/optiga-trust-m-1/optiga/comms/optiga_comms_ifx_i2c.c **** {
 185://MAC/Home/Downloads/getstarted-optiga-trust-m/optiga-trust-m-1/optiga/comms/optiga_comms_ifx_i2c.c ****     optiga_lib_status_t status = OPTIGA_COMMS_ERROR;
 186://MAC/Home/Downloads/getstarted-optiga-trust-m/optiga-trust-m-1/optiga/comms/optiga_comms_ifx_i2c.c ****     if (OPTIGA_COMMS_SUCCESS == check_optiga_comms_state(p_ctx))
 187://MAC/Home/Downloads/getstarted-optiga-trust-m/optiga-trust-m-1/optiga/comms/optiga_comms_ifx_i2c.c ****     {
 188://MAC/Home/Downloads/getstarted-optiga-trust-m/optiga-trust-m-1/optiga/comms/optiga_comms_ifx_i2c.c ****         ((ifx_i2c_context_t * )(p_ctx->p_comms_ctx))->p_upper_layer_ctx = (void * )p_ctx;
 189://MAC/Home/Downloads/getstarted-optiga-trust-m/optiga-trust-m-1/optiga/comms/optiga_comms_ifx_i2c.c ****         ((ifx_i2c_context_t * )(p_ctx->p_comms_ctx))->upper_layer_event_handler = ifx_i2c_event_han
 190://MAC/Home/Downloads/getstarted-optiga-trust-m/optiga-trust-m-1/optiga/comms/optiga_comms_ifx_i2c.c **** #ifdef OPTIGA_COMMS_SHIELDED_CONNECTION
 191://MAC/Home/Downloads/getstarted-optiga-trust-m/optiga-trust-m-1/optiga/comms/optiga_comms_ifx_i2c.c ****         ((ifx_i2c_context_t * )(p_ctx->p_comms_ctx))->manage_context_operation = p_ctx->manage_cont
 192://MAC/Home/Downloads/getstarted-optiga-trust-m/optiga-trust-m-1/optiga/comms/optiga_comms_ifx_i2c.c **** #endif
 193://MAC/Home/Downloads/getstarted-optiga-trust-m/optiga-trust-m-1/optiga/comms/optiga_comms_ifx_i2c.c ****         status = ifx_i2c_close((ifx_i2c_context_t * )(p_ctx->p_comms_ctx));
 194://MAC/Home/Downloads/getstarted-optiga-trust-m/optiga-trust-m-1/optiga/comms/optiga_comms_ifx_i2c.c ****         if (IFX_I2C_STACK_SUCCESS != status)
 195://MAC/Home/Downloads/getstarted-optiga-trust-m/optiga-trust-m-1/optiga/comms/optiga_comms_ifx_i2c.c ****         {
 196://MAC/Home/Downloads/getstarted-optiga-trust-m/optiga-trust-m-1/optiga/comms/optiga_comms_ifx_i2c.c ****             p_ctx->state = OPTIGA_COMMS_FREE;
 197://MAC/Home/Downloads/getstarted-optiga-trust-m/optiga-trust-m-1/optiga/comms/optiga_comms_ifx_i2c.c ****         }
 198://MAC/Home/Downloads/getstarted-optiga-trust-m/optiga-trust-m-1/optiga/comms/optiga_comms_ifx_i2c.c ****     }
 199://MAC/Home/Downloads/getstarted-optiga-trust-m/optiga-trust-m-1/optiga/comms/optiga_comms_ifx_i2c.c ****     return (status);
 200://MAC/Home/Downloads/getstarted-optiga-trust-m/optiga-trust-m-1/optiga/comms/optiga_comms_ifx_i2c.c **** }
 201://MAC/Home/Downloads/getstarted-optiga-trust-m/optiga-trust-m-1/optiga/comms/optiga_comms_ifx_i2c.c **** 
 202://MAC/Home/Downloads/getstarted-optiga-trust-m/optiga-trust-m-1/optiga/comms/optiga_comms_ifx_i2c.c **** /// @cond hidden
 203://MAC/Home/Downloads/getstarted-optiga-trust-m/optiga-trust-m-1/optiga/comms/optiga_comms_ifx_i2c.c **** _STATIC_H optiga_lib_status_t check_optiga_comms_state(optiga_comms_t * p_ctx)
 204://MAC/Home/Downloads/getstarted-optiga-trust-m/optiga-trust-m-1/optiga/comms/optiga_comms_ifx_i2c.c **** {
 205://MAC/Home/Downloads/getstarted-optiga-trust-m/optiga-trust-m-1/optiga/comms/optiga_comms_ifx_i2c.c ****     optiga_lib_status_t status = OPTIGA_COMMS_ERROR;
 206://MAC/Home/Downloads/getstarted-optiga-trust-m/optiga-trust-m-1/optiga/comms/optiga_comms_ifx_i2c.c ****     if ((NULL != p_ctx) && (OPTIGA_COMMS_INUSE != p_ctx->state))
 207://MAC/Home/Downloads/getstarted-optiga-trust-m/optiga-trust-m-1/optiga/comms/optiga_comms_ifx_i2c.c ****     {
 208://MAC/Home/Downloads/getstarted-optiga-trust-m/optiga-trust-m-1/optiga/comms/optiga_comms_ifx_i2c.c ****         p_ctx->state = OPTIGA_COMMS_INUSE;
 209://MAC/Home/Downloads/getstarted-optiga-trust-m/optiga-trust-m-1/optiga/comms/optiga_comms_ifx_i2c.c ****         status = OPTIGA_COMMS_SUCCESS;
 210://MAC/Home/Downloads/getstarted-optiga-trust-m/optiga-trust-m-1/optiga/comms/optiga_comms_ifx_i2c.c ****     }
 211://MAC/Home/Downloads/getstarted-optiga-trust-m/optiga-trust-m-1/optiga/comms/optiga_comms_ifx_i2c.c ****     return (status);
 212://MAC/Home/Downloads/getstarted-optiga-trust-m/optiga-trust-m-1/optiga/comms/optiga_comms_ifx_i2c.c **** }
 213://MAC/Home/Downloads/getstarted-optiga-trust-m/optiga-trust-m-1/optiga/comms/optiga_comms_ifx_i2c.c **** 
 214://MAC/Home/Downloads/getstarted-optiga-trust-m/optiga-trust-m-1/optiga/comms/optiga_comms_ifx_i2c.c **** //lint --e{818} suppress "This is ignored as upper layer handler function prototype requires this a
 215://MAC/Home/Downloads/getstarted-optiga-trust-m/optiga-trust-m-1/optiga/comms/optiga_comms_ifx_i2c.c **** _STATIC_H void ifx_i2c_event_handler(void * p_upper_layer_ctx, optiga_lib_status_t event)
 216://MAC/Home/Downloads/getstarted-optiga-trust-m/optiga-trust-m-1/optiga/comms/optiga_comms_ifx_i2c.c **** {
  25              	 .loc 1 216 0
  26              	 .cfi_startproc
  27              	.LVL0:
  28 0000 10B5     	 push {r4,lr}
  29              	.LCFI0:
  30              	 .cfi_def_cfa_offset 8
  31              	 .cfi_offset 4,-8
  32              	 .cfi_offset 14,-4
  33              	 .loc 1 216 0
  34 0002 041C     	 mov r4,r0
 217://MAC/Home/Downloads/getstarted-optiga-trust-m/optiga-trust-m-1/optiga/comms/optiga_comms_ifx_i2c.c ****     void * ctx = ((optiga_comms_t * )p_upper_layer_ctx)->p_upper_layer_ctx;
 218://MAC/Home/Downloads/getstarted-optiga-trust-m/optiga-trust-m-1/optiga/comms/optiga_comms_ifx_i2c.c ****     ((optiga_comms_t * )p_upper_layer_ctx)->upper_layer_handler(ctx, event);
  35              	 .loc 1 218 0
  36 0004 4068     	 ldr r0,[r0,#4]
  37              	.LVL1:
  38 0006 A368     	 ldr r3,[r4,#8]
  39 0008 9847     	 blx r3
  40              	.LVL2:
 219://MAC/Home/Downloads/getstarted-optiga-trust-m/optiga-trust-m-1/optiga/comms/optiga_comms_ifx_i2c.c ****     ((optiga_comms_t * )p_upper_layer_ctx)->state = OPTIGA_COMMS_FREE;
  41              	 .loc 1 219 0
  42 000a 0023     	 mov r3,#0
 220://MAC/Home/Downloads/getstarted-optiga-trust-m/optiga-trust-m-1/optiga/comms/optiga_comms_ifx_i2c.c **** }
  43              	 .loc 1 220 0
  44              	 
 219://MAC/Home/Downloads/getstarted-optiga-trust-m/optiga-trust-m-1/optiga/comms/optiga_comms_ifx_i2c.c ****     ((optiga_comms_t * )p_upper_layer_ctx)->state = OPTIGA_COMMS_FREE;
  45              	 .loc 1 219 0
  46 000c 6373     	 strb r3,[r4,#13]
  47              	.LVL3:
  48              	 .loc 1 220 0
  49 000e 10BD     	 pop {r4,pc}
  50              	 .cfi_endproc
  51              	.LFE9:
  53              	 .section .text.optiga_comms_create,"ax",%progbits
  54              	 .align 1
  55              	 .global optiga_comms_create
  56              	 .code 16
  57              	 .thumb_func
  59              	optiga_comms_create:
  60              	.LFB0:
  70://MAC/Home/Downloads/getstarted-optiga-trust-m/optiga-trust-m-1/optiga/comms/optiga_comms_ifx_i2c.c ****     optiga_comms_t * p_optiga_comms = NULL;
  61              	 .loc 1 70 0
  62              	 .cfi_startproc
  63              	.LVL4:
  64 0000 10B5     	 push {r4,lr}
  65              	.LCFI1:
  66              	 .cfi_def_cfa_offset 8
  67              	 .cfi_offset 4,-8
  68              	 .cfi_offset 14,-4
  77://MAC/Home/Downloads/getstarted-optiga-trust-m/optiga-trust-m-1/optiga/comms/optiga_comms_ifx_i2c.c ****         {
  69              	 .loc 1 77 0
  70 0002 054B     	 ldr r3,.L5
  70://MAC/Home/Downloads/getstarted-optiga-trust-m/optiga-trust-m-1/optiga/comms/optiga_comms_ifx_i2c.c ****     optiga_comms_t * p_optiga_comms = NULL;
  71              	 .loc 1 70 0
  72 0004 021C     	 mov r2,r0
  77://MAC/Home/Downloads/getstarted-optiga-trust-m/optiga-trust-m-1/optiga/comms/optiga_comms_ifx_i2c.c ****         {
  73              	 .loc 1 77 0
  74 0006 1C7B     	 ldrb r4,[r3,#12]
  75 0008 181C     	 mov r0,r3
  76              	.LVL5:
  77 000a 002C     	 cmp r4,#0
  78 000c 03D1     	 bne .L3
  79://MAC/Home/Downloads/getstarted-optiga-trust-m/optiga-trust-m-1/optiga/comms/optiga_comms_ifx_i2c.c ****             p_optiga_comms->p_upper_layer_ctx = context;
  79              	 .loc 1 79 0
  80 000e 9A60     	 str r2,[r3,#8]
  80://MAC/Home/Downloads/getstarted-optiga-trust-m/optiga-trust-m-1/optiga/comms/optiga_comms_ifx_i2c.c ****             p_optiga_comms->instance_init_state = TRUE;
  81              	 .loc 1 80 0
  82 0010 5960     	 str r1,[r3,#4]
  81://MAC/Home/Downloads/getstarted-optiga-trust-m/optiga-trust-m-1/optiga/comms/optiga_comms_ifx_i2c.c ****         }
  83              	 .loc 1 81 0
  84 0012 0123     	 mov r3,#1
  85 0014 0373     	 strb r3,[r0,#12]
  86              	.L3:
  85://MAC/Home/Downloads/getstarted-optiga-trust-m/optiga-trust-m-1/optiga/comms/optiga_comms_ifx_i2c.c **** 
  87              	 .loc 1 85 0
  88              	 
  89 0016 10BD     	 pop {r4,pc}
  90              	.L6:
  91              	 .align 2
  92              	.L5:
  93 0018 00000000 	 .word .LANCHOR0
  94              	 .cfi_endproc
  95              	.LFE0:
  97              	 .section .text.optiga_comms_destroy,"ax",%progbits
  98              	 .align 1
  99              	 .global optiga_comms_destroy
 100              	 .code 16
 101              	 .thumb_func
 103              	optiga_comms_destroy:
 104              	.LFB1:
  90://MAC/Home/Downloads/getstarted-optiga-trust-m/optiga-trust-m-1/optiga/comms/optiga_comms_ifx_i2c.c **** }
 105              	 .loc 1 90 0
 106              	 .cfi_startproc
 107              	.LVL6:
  91://MAC/Home/Downloads/getstarted-optiga-trust-m/optiga-trust-m-1/optiga/comms/optiga_comms_ifx_i2c.c **** 
 108              	 .loc 1 91 0
 109              	 
 110 0000 7047     	 bx lr
 111              	 .cfi_endproc
 112              	.LFE1:
 114              	 .section .text.optiga_comms_set_callback_handler,"ax",%progbits
 115              	 .align 1
 116              	 .global optiga_comms_set_callback_handler
 117              	 .code 16
 118              	 .thumb_func
 120              	optiga_comms_set_callback_handler:
 121              	.LFB2:
  94://MAC/Home/Downloads/getstarted-optiga-trust-m/optiga-trust-m-1/optiga/comms/optiga_comms_ifx_i2c.c ****     p_optiga_comms->upper_layer_handler = handler;
 122              	 .loc 1 94 0
 123              	 .cfi_startproc
 124              	.LVL7:
  95://MAC/Home/Downloads/getstarted-optiga-trust-m/optiga-trust-m-1/optiga/comms/optiga_comms_ifx_i2c.c ****     return (0);
 125              	 .loc 1 95 0
 126 0000 8160     	 str r1,[r0,#8]
  97://MAC/Home/Downloads/getstarted-optiga-trust-m/optiga-trust-m-1/optiga/comms/optiga_comms_ifx_i2c.c **** 
 127              	 .loc 1 97 0
 128              	 
 129 0002 0020     	 mov r0,#0
 130              	.LVL8:
 131 0004 7047     	 bx lr
 132              	 .cfi_endproc
 133              	.LFE2:
 135              	 .section .text.optiga_comms_set_callback_context,"ax",%progbits
 136              	 .align 1
 137              	 .global optiga_comms_set_callback_context
 138              	 .code 16
 139              	 .thumb_func
 141              	optiga_comms_set_callback_context:
 142              	.LFB3:
 100://MAC/Home/Downloads/getstarted-optiga-trust-m/optiga-trust-m-1/optiga/comms/optiga_comms_ifx_i2c.c ****     p_optiga_comms->p_upper_layer_ctx = context;
 143              	 .loc 1 100 0
 144              	 .cfi_startproc
 145              	.LVL9:
 101://MAC/Home/Downloads/getstarted-optiga-trust-m/optiga-trust-m-1/optiga/comms/optiga_comms_ifx_i2c.c ****     return (0);
 146              	 .loc 1 101 0
 147 0000 4160     	 str r1,[r0,#4]
 103://MAC/Home/Downloads/getstarted-optiga-trust-m/optiga-trust-m-1/optiga/comms/optiga_comms_ifx_i2c.c **** 
 148              	 .loc 1 103 0
 149              	 
 150 0002 0020     	 mov r0,#0
 151              	.LVL10:
 152 0004 7047     	 bx lr
 153              	 .cfi_endproc
 154              	.LFE3:
 156              	 .section .text.optiga_comms_open,"ax",%progbits
 157              	 .align 1
 158              	 .global optiga_comms_open
 159              	 .code 16
 160              	 .thumb_func
 162              	optiga_comms_open:
 163              	.LFB4:
 113://MAC/Home/Downloads/getstarted-optiga-trust-m/optiga-trust-m-1/optiga/comms/optiga_comms_ifx_i2c.c ****     optiga_lib_status_t status = OPTIGA_COMMS_ERROR;
 164              	 .loc 1 113 0
 165              	 .cfi_startproc
 166              	.LVL11:
 167 0000 38B5     	 push {r3,r4,r5,lr}
 168              	.LCFI2:
 169              	 .cfi_def_cfa_offset 16
 170              	 .cfi_offset 3,-16
 171              	 .cfi_offset 4,-12
 172              	 .cfi_offset 5,-8
 173              	 .cfi_offset 14,-4
 174              	.LBB4:
 175              	.LBB5:
 206://MAC/Home/Downloads/getstarted-optiga-trust-m/optiga-trust-m-1/optiga/comms/optiga_comms_ifx_i2c.c ****     {
 176              	 .loc 1 206 0
 177 0002 0028     	 cmp r0,#0
 178 0004 02D1     	 bne .L11
 179              	.LVL12:
 180              	.L13:
 181              	.LBE5:
 182              	.LBE4:
 114://MAC/Home/Downloads/getstarted-optiga-trust-m/optiga-trust-m-1/optiga/comms/optiga_comms_ifx_i2c.c ****     if (OPTIGA_COMMS_SUCCESS == check_optiga_comms_state(p_ctx))
 183              	 .loc 1 114 0
 184 0006 8120     	 mov r0,#129
 185 0008 4000     	 lsl r0,r0,#1
 186 000a 1AE0     	 b .L12
 187              	.LVL13:
 188              	.L11:
 189              	.LBB7:
 190              	.LBB6:
 206://MAC/Home/Downloads/getstarted-optiga-trust-m/optiga-trust-m-1/optiga/comms/optiga_comms_ifx_i2c.c ****     {
 191              	 .loc 1 206 0
 192 000c 437B     	 ldrb r3,[r0,#13]
 193 000e 012B     	 cmp r3,#1
 194 0010 F9D0     	 beq .L13
 208://MAC/Home/Downloads/getstarted-optiga-trust-m/optiga-trust-m-1/optiga/comms/optiga_comms_ifx_i2c.c ****         status = OPTIGA_COMMS_SUCCESS;
 195              	 .loc 1 208 0
 196 0012 0123     	 mov r3,#1
 197 0014 4373     	 strb r3,[r0,#13]
 198              	.LVL14:
 199 0016 041C     	 mov r4,r0
 200              	.LBE6:
 201              	.LBE7:
 117://MAC/Home/Downloads/getstarted-optiga-trust-m/optiga-trust-m-1/optiga/comms/optiga_comms_ifx_i2c.c ****         {
 202              	 .loc 1 117 0
 203 0018 FFF7FEFF 	 bl pal_init
 204              	.LVL15:
 205 001c 051E     	 sub r5,r0,#0
 206 001e F2D1     	 bne .L13
 119://MAC/Home/Downloads/getstarted-optiga-trust-m/optiga-trust-m-1/optiga/comms/optiga_comms_ifx_i2c.c ****             ((ifx_i2c_context_t * )(p_ctx->p_comms_ctx))->upper_layer_event_handler = ifx_i2c_event
 207              	 .loc 1 119 0
 208 0020 2368     	 ldr r3,[r4]
 120://MAC/Home/Downloads/getstarted-optiga-trust-m/optiga-trust-m-1/optiga/comms/optiga_comms_ifx_i2c.c **** #ifdef OPTIGA_COMMS_SHIELDED_CONNECTION
 209              	 .loc 1 120 0
 210 0022 084A     	 ldr r2,.L20
 119://MAC/Home/Downloads/getstarted-optiga-trust-m/optiga-trust-m-1/optiga/comms/optiga_comms_ifx_i2c.c ****             ((ifx_i2c_context_t * )(p_ctx->p_comms_ctx))->upper_layer_event_handler = ifx_i2c_event
 211              	 .loc 1 119 0
 212 0024 DC61     	 str r4,[r3,#28]
 120://MAC/Home/Downloads/getstarted-optiga-trust-m/optiga-trust-m-1/optiga/comms/optiga_comms_ifx_i2c.c **** #ifdef OPTIGA_COMMS_SHIELDED_CONNECTION
 213              	 .loc 1 120 0
 214 0026 9A61     	 str r2,[r3,#24]
 122://MAC/Home/Downloads/getstarted-optiga-trust-m/optiga-trust-m-1/optiga/comms/optiga_comms_ifx_i2c.c **** #endif
 215              	 .loc 1 122 0
 216 0028 227C     	 ldrb r2,[r4,#16]
 217 002a 3233     	 add r3,r3,#50
 218 002c 1A70     	 strb r2,[r3]
 124://MAC/Home/Downloads/getstarted-optiga-trust-m/optiga-trust-m-1/optiga/comms/optiga_comms_ifx_i2c.c **** 
 219              	 .loc 1 124 0
 220 002e 9A23     	 mov r3,#154
 221 0030 2068     	 ldr r0,[r4]
 222 0032 6269     	 ldr r2,[r4,#20]
 223 0034 DB00     	 lsl r3,r3,#3
 224 0036 C250     	 str r2,[r0,r3]
 126://MAC/Home/Downloads/getstarted-optiga-trust-m/optiga-trust-m-1/optiga/comms/optiga_comms_ifx_i2c.c ****             if (IFX_I2C_STACK_SUCCESS != status)
 225              	 .loc 1 126 0
 226 0038 FFF7FEFF 	 bl ifx_i2c_open
 227              	.LVL16:
 127://MAC/Home/Downloads/getstarted-optiga-trust-m/optiga-trust-m-1/optiga/comms/optiga_comms_ifx_i2c.c ****             {
 228              	 .loc 1 127 0
 229 003c 0028     	 cmp r0,#0
 230 003e 00D0     	 beq .L12
 129://MAC/Home/Downloads/getstarted-optiga-trust-m/optiga-trust-m-1/optiga/comms/optiga_comms_ifx_i2c.c ****             }
 231              	 .loc 1 129 0
 232 0040 6573     	 strb r5,[r4,#13]
 233              	.LVL17:
 234              	.L12:
 134://MAC/Home/Downloads/getstarted-optiga-trust-m/optiga-trust-m-1/optiga/comms/optiga_comms_ifx_i2c.c **** 
 235              	 .loc 1 134 0
 236              	 
 237 0042 38BD     	 pop {r3,r4,r5,pc}
 238              	.L21:
 239              	 .align 2
 240              	.L20:
 241 0044 00000000 	 .word ifx_i2c_event_handler
 242              	 .cfi_endproc
 243              	.LFE4:
 245              	 .section .text.optiga_comms_reset,"ax",%progbits
 246              	 .align 1
 247              	 .global optiga_comms_reset
 248              	 .code 16
 249              	 .thumb_func
 251              	optiga_comms_reset:
 252              	.LFB5:
 137://MAC/Home/Downloads/getstarted-optiga-trust-m/optiga-trust-m-1/optiga/comms/optiga_comms_ifx_i2c.c ****     optiga_lib_status_t status = OPTIGA_COMMS_ERROR;
 253              	 .loc 1 137 0
 254              	 .cfi_startproc
 255              	.LVL18:
 256 0000 10B5     	 push {r4,lr}
 257              	.LCFI3:
 258              	 .cfi_def_cfa_offset 8
 259              	 .cfi_offset 4,-8
 260              	 .cfi_offset 14,-4
 261              	.LBB10:
 262              	.LBB11:
 206://MAC/Home/Downloads/getstarted-optiga-trust-m/optiga-trust-m-1/optiga/comms/optiga_comms_ifx_i2c.c ****     {
 263              	 .loc 1 206 0
 264 0002 0028     	 cmp r0,#0
 265 0004 10D0     	 beq .L25
 266 0006 437B     	 ldrb r3,[r0,#13]
 267 0008 012B     	 cmp r3,#1
 268 000a 0DD0     	 beq .L25
 208://MAC/Home/Downloads/getstarted-optiga-trust-m/optiga-trust-m-1/optiga/comms/optiga_comms_ifx_i2c.c ****         status = OPTIGA_COMMS_SUCCESS;
 269              	 .loc 1 208 0
 270 000c 0123     	 mov r3,#1
 271 000e 041C     	 mov r4,r0
 272 0010 4373     	 strb r3,[r0,#13]
 273              	.LVL19:
 274              	.LBE11:
 275              	.LBE10:
 141://MAC/Home/Downloads/getstarted-optiga-trust-m/optiga-trust-m-1/optiga/comms/optiga_comms_ifx_i2c.c ****         ((ifx_i2c_context_t * )(p_ctx->p_comms_ctx))->upper_layer_event_handler = ifx_i2c_event_han
 276              	 .loc 1 141 0
 277 0012 0068     	 ldr r0,[r0]
 278              	.LVL20:
 142://MAC/Home/Downloads/getstarted-optiga-trust-m/optiga-trust-m-1/optiga/comms/optiga_comms_ifx_i2c.c ****         status = ifx_i2c_reset((ifx_i2c_context_t * )(p_ctx->p_comms_ctx), (ifx_i2c_reset_type_t)re
 279              	 .loc 1 142 0
 280 0014 064B     	 ldr r3,.L29
 141://MAC/Home/Downloads/getstarted-optiga-trust-m/optiga-trust-m-1/optiga/comms/optiga_comms_ifx_i2c.c ****         ((ifx_i2c_context_t * )(p_ctx->p_comms_ctx))->upper_layer_event_handler = ifx_i2c_event_han
 281              	 .loc 1 141 0
 282 0016 C461     	 str r4,[r0,#28]
 142://MAC/Home/Downloads/getstarted-optiga-trust-m/optiga-trust-m-1/optiga/comms/optiga_comms_ifx_i2c.c ****         status = ifx_i2c_reset((ifx_i2c_context_t * )(p_ctx->p_comms_ctx), (ifx_i2c_reset_type_t)re
 283              	 .loc 1 142 0
 284 0018 8361     	 str r3,[r0,#24]
 143://MAC/Home/Downloads/getstarted-optiga-trust-m/optiga-trust-m-1/optiga/comms/optiga_comms_ifx_i2c.c ****         if (IFX_I2C_STACK_SUCCESS != status)
 285              	 .loc 1 143 0
 286 001a FFF7FEFF 	 bl ifx_i2c_reset
 287              	.LVL21:
 144://MAC/Home/Downloads/getstarted-optiga-trust-m/optiga-trust-m-1/optiga/comms/optiga_comms_ifx_i2c.c ****         {
 288              	 .loc 1 144 0
 289 001e 0028     	 cmp r0,#0
 290 0020 04D0     	 beq .L23
 146://MAC/Home/Downloads/getstarted-optiga-trust-m/optiga-trust-m-1/optiga/comms/optiga_comms_ifx_i2c.c ****         }
 291              	 .loc 1 146 0
 292 0022 0023     	 mov r3,#0
 293 0024 6373     	 strb r3,[r4,#13]
 294 0026 01E0     	 b .L23
 295              	.LVL22:
 296              	.L25:
 138://MAC/Home/Downloads/getstarted-optiga-trust-m/optiga-trust-m-1/optiga/comms/optiga_comms_ifx_i2c.c ****     if (OPTIGA_COMMS_SUCCESS == check_optiga_comms_state(p_ctx))
 297              	 .loc 1 138 0
 298 0028 8120     	 mov r0,#129
 299              	.LVL23:
 300 002a 4000     	 lsl r0,r0,#1
 301              	.LVL24:
 302              	.L23:
 150://MAC/Home/Downloads/getstarted-optiga-trust-m/optiga-trust-m-1/optiga/comms/optiga_comms_ifx_i2c.c **** 
 303              	 .loc 1 150 0
 304              	 
 305 002c 10BD     	 pop {r4,pc}
 306              	.L30:
 307 002e C046     	 .align 2
 308              	.L29:
 309 0030 00000000 	 .word ifx_i2c_event_handler
 310              	 .cfi_endproc
 311              	.LFE5:
 313              	 .section .text.optiga_comms_transceive,"ax",%progbits
 314              	 .align 1
 315              	 .global optiga_comms_transceive
 316              	 .code 16
 317              	 .thumb_func
 319              	optiga_comms_transceive:
 320              	.LFB6:
 158://MAC/Home/Downloads/getstarted-optiga-trust-m/optiga-trust-m-1/optiga/comms/optiga_comms_ifx_i2c.c ****     optiga_lib_status_t status = OPTIGA_COMMS_ERROR;
 321              	 .loc 1 158 0
 322              	 .cfi_startproc
 323              	.LVL25:
 324 0000 37B5     	 push {r0,r1,r2,r4,r5,lr}
 325              	.LCFI4:
 326              	 .cfi_def_cfa_offset 24
 327              	 .cfi_offset 0,-24
 328              	 .cfi_offset 1,-20
 329              	 .cfi_offset 2,-16
 330              	 .cfi_offset 4,-12
 331              	 .cfi_offset 5,-8
 332              	 .cfi_offset 14,-4
 333              	.LBB14:
 334              	.LBB15:
 206://MAC/Home/Downloads/getstarted-optiga-trust-m/optiga-trust-m-1/optiga/comms/optiga_comms_ifx_i2c.c ****     {
 335              	 .loc 1 206 0
 336 0002 0028     	 cmp r0,#0
 337 0004 1ED0     	 beq .L34
 338 0006 447B     	 ldrb r4,[r0,#13]
 339 0008 012C     	 cmp r4,#1
 340 000a 1BD0     	 beq .L34
 341 000c 041C     	 mov r4,r0
 208://MAC/Home/Downloads/getstarted-optiga-trust-m/optiga-trust-m-1/optiga/comms/optiga_comms_ifx_i2c.c ****         status = OPTIGA_COMMS_SUCCESS;
 342              	 .loc 1 208 0
 343 000e 0120     	 mov r0,#1
 344              	.LVL26:
 345              	.LBE15:
 346              	.LBE14:
 163://MAC/Home/Downloads/getstarted-optiga-trust-m/optiga-trust-m-1/optiga/comms/optiga_comms_ifx_i2c.c **** #ifdef OPTIGA_COMMS_SHIELDED_CONNECTION
 347              	 .loc 1 163 0
 348 0010 0E4D     	 ldr r5,.L38
 349              	.LBB17:
 350              	.LBB16:
 208://MAC/Home/Downloads/getstarted-optiga-trust-m/optiga-trust-m-1/optiga/comms/optiga_comms_ifx_i2c.c ****         status = OPTIGA_COMMS_SUCCESS;
 351              	 .loc 1 208 0
 352 0012 6073     	 strb r0,[r4,#13]
 353              	.LVL27:
 354              	.LBE16:
 355              	.LBE17:
 162://MAC/Home/Downloads/getstarted-optiga-trust-m/optiga-trust-m-1/optiga/comms/optiga_comms_ifx_i2c.c ****         ((ifx_i2c_context_t * )(p_ctx->p_comms_ctx))->upper_layer_event_handler = ifx_i2c_event_han
 356              	 .loc 1 162 0
 357 0014 2068     	 ldr r0,[r4]
 358 0016 C461     	 str r4,[r0,#28]
 163://MAC/Home/Downloads/getstarted-optiga-trust-m/optiga-trust-m-1/optiga/comms/optiga_comms_ifx_i2c.c **** #ifdef OPTIGA_COMMS_SHIELDED_CONNECTION
 359              	 .loc 1 163 0
 360 0018 8561     	 str r5,[r0,#24]
 165://MAC/Home/Downloads/getstarted-optiga-trust-m/optiga-trust-m-1/optiga/comms/optiga_comms_ifx_i2c.c ****         ((ifx_i2c_context_t * )(p_ctx->p_comms_ctx))->protocol_version = p_ctx->protocol_version;
 361              	 .loc 1 165 0
 362 001a A57B     	 ldrb r5,[r4,#14]
 363 001c 3030     	 add r0,r0,#48
 364 001e 0570     	 strb r5,[r0]
 166://MAC/Home/Downloads/getstarted-optiga-trust-m/optiga-trust-m-1/optiga/comms/optiga_comms_ifx_i2c.c ****         ((ifx_i2c_context_t * )(p_ctx->p_comms_ctx))->manage_context_operation = p_ctx->manage_cont
 365              	 .loc 1 166 0
 366 0020 2068     	 ldr r0,[r4]
 367 0022 E57B     	 ldrb r5,[r4,#15]
 368 0024 3130     	 add r0,r0,#49
 369 0026 0570     	 strb r5,[r0]
 167://MAC/Home/Downloads/getstarted-optiga-trust-m/optiga-trust-m-1/optiga/comms/optiga_comms_ifx_i2c.c **** #endif
 370              	 .loc 1 167 0
 371 0028 2068     	 ldr r0,[r4]
 372 002a 257C     	 ldrb r5,[r4,#16]
 373 002c 3230     	 add r0,r0,#50
 374 002e 0570     	 strb r5,[r0]
 169://MAC/Home/Downloads/getstarted-optiga-trust-m/optiga-trust-m-1/optiga/comms/optiga_comms_ifx_i2c.c ****                                      p_tx_data,
 375              	 .loc 1 169 0
 376 0030 0698     	 ldr r0,[sp,#24]
 377 0032 0090     	 str r0,[sp]
 378 0034 2068     	 ldr r0,[r4]
 379 0036 FFF7FEFF 	 bl ifx_i2c_transceive
 380              	.LVL28:
 174://MAC/Home/Downloads/getstarted-optiga-trust-m/optiga-trust-m-1/optiga/comms/optiga_comms_ifx_i2c.c ****         {
 381              	 .loc 1 174 0
 382 003a 0028     	 cmp r0,#0
 383 003c 04D0     	 beq .L32
 176://MAC/Home/Downloads/getstarted-optiga-trust-m/optiga-trust-m-1/optiga/comms/optiga_comms_ifx_i2c.c ****         }
 384              	 .loc 1 176 0
 385 003e 0023     	 mov r3,#0
 386 0040 6373     	 strb r3,[r4,#13]
 387 0042 01E0     	 b .L32
 388              	.LVL29:
 389              	.L34:
 159://MAC/Home/Downloads/getstarted-optiga-trust-m/optiga-trust-m-1/optiga/comms/optiga_comms_ifx_i2c.c ****     if (OPTIGA_COMMS_SUCCESS == check_optiga_comms_state(p_ctx))
 390              	 .loc 1 159 0
 391 0044 8120     	 mov r0,#129
 392              	.LVL30:
 393 0046 4000     	 lsl r0,r0,#1
 394              	.LVL31:
 395              	.L32:
 180://MAC/Home/Downloads/getstarted-optiga-trust-m/optiga-trust-m-1/optiga/comms/optiga_comms_ifx_i2c.c **** 
 396              	 .loc 1 180 0
 397              	 
 398 0048 3EBD     	 pop {r1,r2,r3,r4,r5,pc}
 399              	.L39:
 400 004a C046     	 .align 2
 401              	.L38:
 402 004c 00000000 	 .word ifx_i2c_event_handler
 403              	 .cfi_endproc
 404              	.LFE6:
 406              	 .section .text.optiga_comms_close,"ax",%progbits
 407              	 .align 1
 408              	 .global optiga_comms_close
 409              	 .code 16
 410              	 .thumb_func
 412              	optiga_comms_close:
 413              	.LFB7:
 184://MAC/Home/Downloads/getstarted-optiga-trust-m/optiga-trust-m-1/optiga/comms/optiga_comms_ifx_i2c.c ****     optiga_lib_status_t status = OPTIGA_COMMS_ERROR;
 414              	 .loc 1 184 0
 415              	 .cfi_startproc
 416              	.LVL32:
 417 0000 10B5     	 push {r4,lr}
 418              	.LCFI5:
 419              	 .cfi_def_cfa_offset 8
 420              	 .cfi_offset 4,-8
 421              	 .cfi_offset 14,-4
 422              	.LBB20:
 423              	.LBB21:
 206://MAC/Home/Downloads/getstarted-optiga-trust-m/optiga-trust-m-1/optiga/comms/optiga_comms_ifx_i2c.c ****     {
 424              	 .loc 1 206 0
 425 0002 0028     	 cmp r0,#0
 426 0004 14D0     	 beq .L43
 427 0006 437B     	 ldrb r3,[r0,#13]
 428 0008 012B     	 cmp r3,#1
 429 000a 11D0     	 beq .L43
 208://MAC/Home/Downloads/getstarted-optiga-trust-m/optiga-trust-m-1/optiga/comms/optiga_comms_ifx_i2c.c ****         status = OPTIGA_COMMS_SUCCESS;
 430              	 .loc 1 208 0
 431 000c 0123     	 mov r3,#1
 432              	.LBE21:
 433              	.LBE20:
 189://MAC/Home/Downloads/getstarted-optiga-trust-m/optiga-trust-m-1/optiga/comms/optiga_comms_ifx_i2c.c **** #ifdef OPTIGA_COMMS_SHIELDED_CONNECTION
 434              	 .loc 1 189 0
 435 000e 0A4A     	 ldr r2,.L47
 436              	.LBB23:
 437              	.LBB22:
 208://MAC/Home/Downloads/getstarted-optiga-trust-m/optiga-trust-m-1/optiga/comms/optiga_comms_ifx_i2c.c ****         status = OPTIGA_COMMS_SUCCESS;
 438              	 .loc 1 208 0
 439 0010 4373     	 strb r3,[r0,#13]
 440              	.LVL33:
 441              	.LBE22:
 442              	.LBE23:
 188://MAC/Home/Downloads/getstarted-optiga-trust-m/optiga-trust-m-1/optiga/comms/optiga_comms_ifx_i2c.c ****         ((ifx_i2c_context_t * )(p_ctx->p_comms_ctx))->upper_layer_event_handler = ifx_i2c_event_han
 443              	 .loc 1 188 0
 444 0012 0368     	 ldr r3,[r0]
 445 0014 041C     	 mov r4,r0
 446 0016 D861     	 str r0,[r3,#28]
 189://MAC/Home/Downloads/getstarted-optiga-trust-m/optiga-trust-m-1/optiga/comms/optiga_comms_ifx_i2c.c **** #ifdef OPTIGA_COMMS_SHIELDED_CONNECTION
 447              	 .loc 1 189 0
 448 0018 9A61     	 str r2,[r3,#24]
 191://MAC/Home/Downloads/getstarted-optiga-trust-m/optiga-trust-m-1/optiga/comms/optiga_comms_ifx_i2c.c **** #endif
 449              	 .loc 1 191 0
 450 001a 027C     	 ldrb r2,[r0,#16]
 451 001c 3233     	 add r3,r3,#50
 452 001e 1A70     	 strb r2,[r3]
 193://MAC/Home/Downloads/getstarted-optiga-trust-m/optiga-trust-m-1/optiga/comms/optiga_comms_ifx_i2c.c ****         if (IFX_I2C_STACK_SUCCESS != status)
 453              	 .loc 1 193 0
 454 0020 0068     	 ldr r0,[r0]
 455              	.LVL34:
 456 0022 FFF7FEFF 	 bl ifx_i2c_close
 457              	.LVL35:
 194://MAC/Home/Downloads/getstarted-optiga-trust-m/optiga-trust-m-1/optiga/comms/optiga_comms_ifx_i2c.c ****         {
 458              	 .loc 1 194 0
 459 0026 0028     	 cmp r0,#0
 460 0028 04D0     	 beq .L41
 196://MAC/Home/Downloads/getstarted-optiga-trust-m/optiga-trust-m-1/optiga/comms/optiga_comms_ifx_i2c.c ****         }
 461              	 .loc 1 196 0
 462 002a 0023     	 mov r3,#0
 463 002c 6373     	 strb r3,[r4,#13]
 464 002e 01E0     	 b .L41
 465              	.LVL36:
 466              	.L43:
 185://MAC/Home/Downloads/getstarted-optiga-trust-m/optiga-trust-m-1/optiga/comms/optiga_comms_ifx_i2c.c ****     if (OPTIGA_COMMS_SUCCESS == check_optiga_comms_state(p_ctx))
 467              	 .loc 1 185 0
 468 0030 8120     	 mov r0,#129
 469              	.LVL37:
 470 0032 4000     	 lsl r0,r0,#1
 471              	.LVL38:
 472              	.L41:
 200://MAC/Home/Downloads/getstarted-optiga-trust-m/optiga-trust-m-1/optiga/comms/optiga_comms_ifx_i2c.c **** 
 473              	 .loc 1 200 0
 474              	 
 475 0034 10BD     	 pop {r4,pc}
 476              	.L48:
 477 0036 C046     	 .align 2
 478              	.L47:
 479 0038 00000000 	 .word ifx_i2c_event_handler
 480              	 .cfi_endproc
 481              	.LFE7:
 483              	 .global optiga_comms
 484              	 .section .data.optiga_comms,"aw",%progbits
 485              	 .align 2
 486              	 .set .LANCHOR0,.+0
 489              	optiga_comms:
 490 0000 00000000 	 .word ifx_i2c_context_0
 491 0004 00000000 	 .word 0
 492 0008 00000000 	 .word 0
 493 000c 00       	 .byte 0
 494 000d 00       	 .byte 0
 495 000e 00       	 .byte 0
 496 000f 00       	 .byte 0
 497 0010 00       	 .byte 0
 498 0011 000000   	 .space 3
 499 0014 00000000 	 .word 0
 500              	 .text
 501              	.Letext0:
 502              	 .file 2 "c:\\dave_4-4-2_64bit\\dave-ide-4.4.2-64bit\\eclipse\\arm-gcc-49\\arm-none-eabi\\include\\machine\\_default_types.h"
 503              	 .file 3 "c:\\dave_4-4-2_64bit\\dave-ide-4.4.2-64bit\\eclipse\\arm-gcc-49\\arm-none-eabi\\include\\stdint.h"
 504              	 .file 4 "//MAC/Home/Downloads/getstarted-optiga-trust-m/optiga-trust-m-1/optiga/include/optiga/common/optiga_lib_types.h"
 505              	 .file 5 "//MAC/Home/Downloads/getstarted-optiga-trust-m/optiga-trust-m-1/optiga/include/optiga/comms/optiga_comms.h"
 506              	 .file 6 "//MAC/Home/Downloads/getstarted-optiga-trust-m/optiga-trust-m-1/optiga/include/optiga/pal/pal.h"
 507              	 .file 7 "//MAC/Home/Downloads/getstarted-optiga-trust-m/optiga-trust-m-1/optiga/include/optiga/pal/pal_i2c.h"
 508              	 .file 8 "//MAC/Home/Downloads/getstarted-optiga-trust-m/optiga-trust-m-1/optiga/include/optiga/pal/pal_gpio.h"
 509              	 .file 9 "//MAC/Home/Downloads/getstarted-optiga-trust-m/optiga-trust-m-1/optiga/include/optiga/ifx_i2c/ifx_i2c_config.h"
 510              	 .file 10 "//MAC/Home/Downloads/getstarted-optiga-trust-m/optiga-trust-m-1/optiga/include/optiga/ifx_i2c/ifx_i2c.h"