   1              	 .cpu cortex-m0
   2              	 .fpu softvfp
   3              	 .eabi_attribute 20,1
   4              	 .eabi_attribute 21,1
   5              	 .eabi_attribute 23,3
   6              	 .eabi_attribute 24,1
   7              	 .eabi_attribute 25,1
   8              	 .eabi_attribute 26,1
   9              	 .eabi_attribute 30,4
  10              	 .eabi_attribute 34,0
  11              	 .eabi_attribute 18,4
  12              	 .code 16
  13              	 .file "aes.c"
  14              	 .text
  15              	.Ltext0:
  16              	 .cfi_sections .debug_frame
  17              	 .section .text.mbedtls_aes_init,"ax",%progbits
  18              	 .align 1
  19              	 .global mbedtls_aes_init
  20              	 .code 16
  21              	 .thumb_func
  23              	mbedtls_aes_init:
  24              	.LFB0:
  25              	 .file 1 "C:/Workspace/DAVE-4.4.2-64Bit/optiga-trust-m/externals/mbedtls/library/aes.c"
   1:C:/Workspace/DAVE-4.4.2-64Bit/optiga-trust-m/externals/mbedtls/library\aes.c **** /*
   2:C:/Workspace/DAVE-4.4.2-64Bit/optiga-trust-m/externals/mbedtls/library\aes.c ****  *  FIPS-197 compliant AES implementation
   3:C:/Workspace/DAVE-4.4.2-64Bit/optiga-trust-m/externals/mbedtls/library\aes.c ****  *
   4:C:/Workspace/DAVE-4.4.2-64Bit/optiga-trust-m/externals/mbedtls/library\aes.c ****  *  Copyright (C) 2006-2015, ARM Limited, All Rights Reserved
   5:C:/Workspace/DAVE-4.4.2-64Bit/optiga-trust-m/externals/mbedtls/library\aes.c ****  *  SPDX-License-Identifier: Apache-2.0
   6:C:/Workspace/DAVE-4.4.2-64Bit/optiga-trust-m/externals/mbedtls/library\aes.c ****  *
   7:C:/Workspace/DAVE-4.4.2-64Bit/optiga-trust-m/externals/mbedtls/library\aes.c ****  *  Licensed under the Apache License, Version 2.0 (the "License"); you may
   8:C:/Workspace/DAVE-4.4.2-64Bit/optiga-trust-m/externals/mbedtls/library\aes.c ****  *  not use this file except in compliance with the License.
   9:C:/Workspace/DAVE-4.4.2-64Bit/optiga-trust-m/externals/mbedtls/library\aes.c ****  *  You may obtain a copy of the License at
  10:C:/Workspace/DAVE-4.4.2-64Bit/optiga-trust-m/externals/mbedtls/library\aes.c ****  *
  11:C:/Workspace/DAVE-4.4.2-64Bit/optiga-trust-m/externals/mbedtls/library\aes.c ****  *  http://www.apache.org/licenses/LICENSE-2.0
  12:C:/Workspace/DAVE-4.4.2-64Bit/optiga-trust-m/externals/mbedtls/library\aes.c ****  *
  13:C:/Workspace/DAVE-4.4.2-64Bit/optiga-trust-m/externals/mbedtls/library\aes.c ****  *  Unless required by applicable law or agreed to in writing, software
  14:C:/Workspace/DAVE-4.4.2-64Bit/optiga-trust-m/externals/mbedtls/library\aes.c ****  *  distributed under the License is distributed on an "AS IS" BASIS, WITHOUT
  15:C:/Workspace/DAVE-4.4.2-64Bit/optiga-trust-m/externals/mbedtls/library\aes.c ****  *  WARRANTIES OR CONDITIONS OF ANY KIND, either express or implied.
  16:C:/Workspace/DAVE-4.4.2-64Bit/optiga-trust-m/externals/mbedtls/library\aes.c ****  *  See the License for the specific language governing permissions and
  17:C:/Workspace/DAVE-4.4.2-64Bit/optiga-trust-m/externals/mbedtls/library\aes.c ****  *  limitations under the License.
  18:C:/Workspace/DAVE-4.4.2-64Bit/optiga-trust-m/externals/mbedtls/library\aes.c ****  *
  19:C:/Workspace/DAVE-4.4.2-64Bit/optiga-trust-m/externals/mbedtls/library\aes.c ****  *  This file is part of mbed TLS (https://tls.mbed.org)
  20:C:/Workspace/DAVE-4.4.2-64Bit/optiga-trust-m/externals/mbedtls/library\aes.c ****  */
  21:C:/Workspace/DAVE-4.4.2-64Bit/optiga-trust-m/externals/mbedtls/library\aes.c **** /*
  22:C:/Workspace/DAVE-4.4.2-64Bit/optiga-trust-m/externals/mbedtls/library\aes.c ****  *  The AES block cipher was designed by Vincent Rijmen and Joan Daemen.
  23:C:/Workspace/DAVE-4.4.2-64Bit/optiga-trust-m/externals/mbedtls/library\aes.c ****  *
  24:C:/Workspace/DAVE-4.4.2-64Bit/optiga-trust-m/externals/mbedtls/library\aes.c ****  *  http://csrc.nist.gov/encryption/aes/rijndael/Rijndael.pdf
  25:C:/Workspace/DAVE-4.4.2-64Bit/optiga-trust-m/externals/mbedtls/library\aes.c ****  *  http://csrc.nist.gov/publications/fips/fips197/fips-197.pdf
  26:C:/Workspace/DAVE-4.4.2-64Bit/optiga-trust-m/externals/mbedtls/library\aes.c ****  */
  27:C:/Workspace/DAVE-4.4.2-64Bit/optiga-trust-m/externals/mbedtls/library\aes.c **** 
  28:C:/Workspace/DAVE-4.4.2-64Bit/optiga-trust-m/externals/mbedtls/library\aes.c **** #if !defined(MBEDTLS_CONFIG_FILE)
  29:C:/Workspace/DAVE-4.4.2-64Bit/optiga-trust-m/externals/mbedtls/library\aes.c **** #include "mbedtls/config.h"
  30:C:/Workspace/DAVE-4.4.2-64Bit/optiga-trust-m/externals/mbedtls/library\aes.c **** #else
  31:C:/Workspace/DAVE-4.4.2-64Bit/optiga-trust-m/externals/mbedtls/library\aes.c **** #include MBEDTLS_CONFIG_FILE
  32:C:/Workspace/DAVE-4.4.2-64Bit/optiga-trust-m/externals/mbedtls/library\aes.c **** #endif
  33:C:/Workspace/DAVE-4.4.2-64Bit/optiga-trust-m/externals/mbedtls/library\aes.c **** 
  34:C:/Workspace/DAVE-4.4.2-64Bit/optiga-trust-m/externals/mbedtls/library\aes.c **** #if defined(MBEDTLS_AES_C)
  35:C:/Workspace/DAVE-4.4.2-64Bit/optiga-trust-m/externals/mbedtls/library\aes.c **** 
  36:C:/Workspace/DAVE-4.4.2-64Bit/optiga-trust-m/externals/mbedtls/library\aes.c **** #include <string.h>
  37:C:/Workspace/DAVE-4.4.2-64Bit/optiga-trust-m/externals/mbedtls/library\aes.c **** 
  38:C:/Workspace/DAVE-4.4.2-64Bit/optiga-trust-m/externals/mbedtls/library\aes.c **** #include "mbedtls/aes.h"
  39:C:/Workspace/DAVE-4.4.2-64Bit/optiga-trust-m/externals/mbedtls/library\aes.c **** #include "mbedtls/platform.h"
  40:C:/Workspace/DAVE-4.4.2-64Bit/optiga-trust-m/externals/mbedtls/library\aes.c **** #include "mbedtls/platform_util.h"
  41:C:/Workspace/DAVE-4.4.2-64Bit/optiga-trust-m/externals/mbedtls/library\aes.c **** #if defined(MBEDTLS_PADLOCK_C)
  42:C:/Workspace/DAVE-4.4.2-64Bit/optiga-trust-m/externals/mbedtls/library\aes.c **** #include "mbedtls/padlock.h"
  43:C:/Workspace/DAVE-4.4.2-64Bit/optiga-trust-m/externals/mbedtls/library\aes.c **** #endif
  44:C:/Workspace/DAVE-4.4.2-64Bit/optiga-trust-m/externals/mbedtls/library\aes.c **** #if defined(MBEDTLS_AESNI_C)
  45:C:/Workspace/DAVE-4.4.2-64Bit/optiga-trust-m/externals/mbedtls/library\aes.c **** #include "mbedtls/aesni.h"
  46:C:/Workspace/DAVE-4.4.2-64Bit/optiga-trust-m/externals/mbedtls/library\aes.c **** #endif
  47:C:/Workspace/DAVE-4.4.2-64Bit/optiga-trust-m/externals/mbedtls/library\aes.c **** 
  48:C:/Workspace/DAVE-4.4.2-64Bit/optiga-trust-m/externals/mbedtls/library\aes.c **** #if defined(MBEDTLS_SELF_TEST)
  49:C:/Workspace/DAVE-4.4.2-64Bit/optiga-trust-m/externals/mbedtls/library\aes.c **** #if defined(MBEDTLS_PLATFORM_C)
  50:C:/Workspace/DAVE-4.4.2-64Bit/optiga-trust-m/externals/mbedtls/library\aes.c **** #include "mbedtls/platform.h"
  51:C:/Workspace/DAVE-4.4.2-64Bit/optiga-trust-m/externals/mbedtls/library\aes.c **** #else
  52:C:/Workspace/DAVE-4.4.2-64Bit/optiga-trust-m/externals/mbedtls/library\aes.c **** #include <stdio.h>
  53:C:/Workspace/DAVE-4.4.2-64Bit/optiga-trust-m/externals/mbedtls/library\aes.c **** #define mbedtls_printf printf
  54:C:/Workspace/DAVE-4.4.2-64Bit/optiga-trust-m/externals/mbedtls/library\aes.c **** #endif /* MBEDTLS_PLATFORM_C */
  55:C:/Workspace/DAVE-4.4.2-64Bit/optiga-trust-m/externals/mbedtls/library\aes.c **** #endif /* MBEDTLS_SELF_TEST */
  56:C:/Workspace/DAVE-4.4.2-64Bit/optiga-trust-m/externals/mbedtls/library\aes.c **** 
  57:C:/Workspace/DAVE-4.4.2-64Bit/optiga-trust-m/externals/mbedtls/library\aes.c **** #if !defined(MBEDTLS_AES_ALT)
  58:C:/Workspace/DAVE-4.4.2-64Bit/optiga-trust-m/externals/mbedtls/library\aes.c **** 
  59:C:/Workspace/DAVE-4.4.2-64Bit/optiga-trust-m/externals/mbedtls/library\aes.c **** /* Parameter validation macros based on platform_util.h */
  60:C:/Workspace/DAVE-4.4.2-64Bit/optiga-trust-m/externals/mbedtls/library\aes.c **** #define AES_VALIDATE_RET( cond )    \
  61:C:/Workspace/DAVE-4.4.2-64Bit/optiga-trust-m/externals/mbedtls/library\aes.c ****     MBEDTLS_INTERNAL_VALIDATE_RET( cond, MBEDTLS_ERR_AES_BAD_INPUT_DATA )
  62:C:/Workspace/DAVE-4.4.2-64Bit/optiga-trust-m/externals/mbedtls/library\aes.c **** #define AES_VALIDATE( cond )        \
  63:C:/Workspace/DAVE-4.4.2-64Bit/optiga-trust-m/externals/mbedtls/library\aes.c ****     MBEDTLS_INTERNAL_VALIDATE( cond )
  64:C:/Workspace/DAVE-4.4.2-64Bit/optiga-trust-m/externals/mbedtls/library\aes.c **** 
  65:C:/Workspace/DAVE-4.4.2-64Bit/optiga-trust-m/externals/mbedtls/library\aes.c **** /*
  66:C:/Workspace/DAVE-4.4.2-64Bit/optiga-trust-m/externals/mbedtls/library\aes.c ****  * 32-bit integer manipulation macros (little endian)
  67:C:/Workspace/DAVE-4.4.2-64Bit/optiga-trust-m/externals/mbedtls/library\aes.c ****  */
  68:C:/Workspace/DAVE-4.4.2-64Bit/optiga-trust-m/externals/mbedtls/library\aes.c **** #ifndef GET_UINT32_LE
  69:C:/Workspace/DAVE-4.4.2-64Bit/optiga-trust-m/externals/mbedtls/library\aes.c **** #define GET_UINT32_LE(n,b,i)                            \
  70:C:/Workspace/DAVE-4.4.2-64Bit/optiga-trust-m/externals/mbedtls/library\aes.c **** {                                                       \
  71:C:/Workspace/DAVE-4.4.2-64Bit/optiga-trust-m/externals/mbedtls/library\aes.c ****     (n) = ( (uint32_t) (b)[(i)    ]       )             \
  72:C:/Workspace/DAVE-4.4.2-64Bit/optiga-trust-m/externals/mbedtls/library\aes.c ****         | ( (uint32_t) (b)[(i) + 1] <<  8 )             \
  73:C:/Workspace/DAVE-4.4.2-64Bit/optiga-trust-m/externals/mbedtls/library\aes.c ****         | ( (uint32_t) (b)[(i) + 2] << 16 )             \
  74:C:/Workspace/DAVE-4.4.2-64Bit/optiga-trust-m/externals/mbedtls/library\aes.c ****         | ( (uint32_t) (b)[(i) + 3] << 24 );            \
  75:C:/Workspace/DAVE-4.4.2-64Bit/optiga-trust-m/externals/mbedtls/library\aes.c **** }
  76:C:/Workspace/DAVE-4.4.2-64Bit/optiga-trust-m/externals/mbedtls/library\aes.c **** #endif
  77:C:/Workspace/DAVE-4.4.2-64Bit/optiga-trust-m/externals/mbedtls/library\aes.c **** 
  78:C:/Workspace/DAVE-4.4.2-64Bit/optiga-trust-m/externals/mbedtls/library\aes.c **** #ifndef PUT_UINT32_LE
  79:C:/Workspace/DAVE-4.4.2-64Bit/optiga-trust-m/externals/mbedtls/library\aes.c **** #define PUT_UINT32_LE(n,b,i)                                    \
  80:C:/Workspace/DAVE-4.4.2-64Bit/optiga-trust-m/externals/mbedtls/library\aes.c **** {                                                               \
  81:C:/Workspace/DAVE-4.4.2-64Bit/optiga-trust-m/externals/mbedtls/library\aes.c ****     (b)[(i)    ] = (unsigned char) ( ( (n)       ) & 0xFF );    \
  82:C:/Workspace/DAVE-4.4.2-64Bit/optiga-trust-m/externals/mbedtls/library\aes.c ****     (b)[(i) + 1] = (unsigned char) ( ( (n) >>  8 ) & 0xFF );    \
  83:C:/Workspace/DAVE-4.4.2-64Bit/optiga-trust-m/externals/mbedtls/library\aes.c ****     (b)[(i) + 2] = (unsigned char) ( ( (n) >> 16 ) & 0xFF );    \
  84:C:/Workspace/DAVE-4.4.2-64Bit/optiga-trust-m/externals/mbedtls/library\aes.c ****     (b)[(i) + 3] = (unsigned char) ( ( (n) >> 24 ) & 0xFF );    \
  85:C:/Workspace/DAVE-4.4.2-64Bit/optiga-trust-m/externals/mbedtls/library\aes.c **** }
  86:C:/Workspace/DAVE-4.4.2-64Bit/optiga-trust-m/externals/mbedtls/library\aes.c **** #endif
  87:C:/Workspace/DAVE-4.4.2-64Bit/optiga-trust-m/externals/mbedtls/library\aes.c **** 
  88:C:/Workspace/DAVE-4.4.2-64Bit/optiga-trust-m/externals/mbedtls/library\aes.c **** #if defined(MBEDTLS_PADLOCK_C) &&                      \
  89:C:/Workspace/DAVE-4.4.2-64Bit/optiga-trust-m/externals/mbedtls/library\aes.c ****     ( defined(MBEDTLS_HAVE_X86) || defined(MBEDTLS_PADLOCK_ALIGN16) )
  90:C:/Workspace/DAVE-4.4.2-64Bit/optiga-trust-m/externals/mbedtls/library\aes.c **** static int aes_padlock_ace = -1;
  91:C:/Workspace/DAVE-4.4.2-64Bit/optiga-trust-m/externals/mbedtls/library\aes.c **** #endif
  92:C:/Workspace/DAVE-4.4.2-64Bit/optiga-trust-m/externals/mbedtls/library\aes.c **** 
  93:C:/Workspace/DAVE-4.4.2-64Bit/optiga-trust-m/externals/mbedtls/library\aes.c **** #if defined(MBEDTLS_AES_ROM_TABLES)
  94:C:/Workspace/DAVE-4.4.2-64Bit/optiga-trust-m/externals/mbedtls/library\aes.c **** /*
  95:C:/Workspace/DAVE-4.4.2-64Bit/optiga-trust-m/externals/mbedtls/library\aes.c ****  * Forward S-box
  96:C:/Workspace/DAVE-4.4.2-64Bit/optiga-trust-m/externals/mbedtls/library\aes.c ****  */
  97:C:/Workspace/DAVE-4.4.2-64Bit/optiga-trust-m/externals/mbedtls/library\aes.c **** static const unsigned char FSb[256] =
  98:C:/Workspace/DAVE-4.4.2-64Bit/optiga-trust-m/externals/mbedtls/library\aes.c **** {
  99:C:/Workspace/DAVE-4.4.2-64Bit/optiga-trust-m/externals/mbedtls/library\aes.c ****     0x63, 0x7C, 0x77, 0x7B, 0xF2, 0x6B, 0x6F, 0xC5,
 100:C:/Workspace/DAVE-4.4.2-64Bit/optiga-trust-m/externals/mbedtls/library\aes.c ****     0x30, 0x01, 0x67, 0x2B, 0xFE, 0xD7, 0xAB, 0x76,
 101:C:/Workspace/DAVE-4.4.2-64Bit/optiga-trust-m/externals/mbedtls/library\aes.c ****     0xCA, 0x82, 0xC9, 0x7D, 0xFA, 0x59, 0x47, 0xF0,
 102:C:/Workspace/DAVE-4.4.2-64Bit/optiga-trust-m/externals/mbedtls/library\aes.c ****     0xAD, 0xD4, 0xA2, 0xAF, 0x9C, 0xA4, 0x72, 0xC0,
 103:C:/Workspace/DAVE-4.4.2-64Bit/optiga-trust-m/externals/mbedtls/library\aes.c ****     0xB7, 0xFD, 0x93, 0x26, 0x36, 0x3F, 0xF7, 0xCC,
 104:C:/Workspace/DAVE-4.4.2-64Bit/optiga-trust-m/externals/mbedtls/library\aes.c ****     0x34, 0xA5, 0xE5, 0xF1, 0x71, 0xD8, 0x31, 0x15,
 105:C:/Workspace/DAVE-4.4.2-64Bit/optiga-trust-m/externals/mbedtls/library\aes.c ****     0x04, 0xC7, 0x23, 0xC3, 0x18, 0x96, 0x05, 0x9A,
 106:C:/Workspace/DAVE-4.4.2-64Bit/optiga-trust-m/externals/mbedtls/library\aes.c ****     0x07, 0x12, 0x80, 0xE2, 0xEB, 0x27, 0xB2, 0x75,
 107:C:/Workspace/DAVE-4.4.2-64Bit/optiga-trust-m/externals/mbedtls/library\aes.c ****     0x09, 0x83, 0x2C, 0x1A, 0x1B, 0x6E, 0x5A, 0xA0,
 108:C:/Workspace/DAVE-4.4.2-64Bit/optiga-trust-m/externals/mbedtls/library\aes.c ****     0x52, 0x3B, 0xD6, 0xB3, 0x29, 0xE3, 0x2F, 0x84,
 109:C:/Workspace/DAVE-4.4.2-64Bit/optiga-trust-m/externals/mbedtls/library\aes.c ****     0x53, 0xD1, 0x00, 0xED, 0x20, 0xFC, 0xB1, 0x5B,
 110:C:/Workspace/DAVE-4.4.2-64Bit/optiga-trust-m/externals/mbedtls/library\aes.c ****     0x6A, 0xCB, 0xBE, 0x39, 0x4A, 0x4C, 0x58, 0xCF,
 111:C:/Workspace/DAVE-4.4.2-64Bit/optiga-trust-m/externals/mbedtls/library\aes.c ****     0xD0, 0xEF, 0xAA, 0xFB, 0x43, 0x4D, 0x33, 0x85,
 112:C:/Workspace/DAVE-4.4.2-64Bit/optiga-trust-m/externals/mbedtls/library\aes.c ****     0x45, 0xF9, 0x02, 0x7F, 0x50, 0x3C, 0x9F, 0xA8,
 113:C:/Workspace/DAVE-4.4.2-64Bit/optiga-trust-m/externals/mbedtls/library\aes.c ****     0x51, 0xA3, 0x40, 0x8F, 0x92, 0x9D, 0x38, 0xF5,
 114:C:/Workspace/DAVE-4.4.2-64Bit/optiga-trust-m/externals/mbedtls/library\aes.c ****     0xBC, 0xB6, 0xDA, 0x21, 0x10, 0xFF, 0xF3, 0xD2,
 115:C:/Workspace/DAVE-4.4.2-64Bit/optiga-trust-m/externals/mbedtls/library\aes.c ****     0xCD, 0x0C, 0x13, 0xEC, 0x5F, 0x97, 0x44, 0x17,
 116:C:/Workspace/DAVE-4.4.2-64Bit/optiga-trust-m/externals/mbedtls/library\aes.c ****     0xC4, 0xA7, 0x7E, 0x3D, 0x64, 0x5D, 0x19, 0x73,
 117:C:/Workspace/DAVE-4.4.2-64Bit/optiga-trust-m/externals/mbedtls/library\aes.c ****     0x60, 0x81, 0x4F, 0xDC, 0x22, 0x2A, 0x90, 0x88,
 118:C:/Workspace/DAVE-4.4.2-64Bit/optiga-trust-m/externals/mbedtls/library\aes.c ****     0x46, 0xEE, 0xB8, 0x14, 0xDE, 0x5E, 0x0B, 0xDB,
 119:C:/Workspace/DAVE-4.4.2-64Bit/optiga-trust-m/externals/mbedtls/library\aes.c ****     0xE0, 0x32, 0x3A, 0x0A, 0x49, 0x06, 0x24, 0x5C,
 120:C:/Workspace/DAVE-4.4.2-64Bit/optiga-trust-m/externals/mbedtls/library\aes.c ****     0xC2, 0xD3, 0xAC, 0x62, 0x91, 0x95, 0xE4, 0x79,
 121:C:/Workspace/DAVE-4.4.2-64Bit/optiga-trust-m/externals/mbedtls/library\aes.c ****     0xE7, 0xC8, 0x37, 0x6D, 0x8D, 0xD5, 0x4E, 0xA9,
 122:C:/Workspace/DAVE-4.4.2-64Bit/optiga-trust-m/externals/mbedtls/library\aes.c ****     0x6C, 0x56, 0xF4, 0xEA, 0x65, 0x7A, 0xAE, 0x08,
 123:C:/Workspace/DAVE-4.4.2-64Bit/optiga-trust-m/externals/mbedtls/library\aes.c ****     0xBA, 0x78, 0x25, 0x2E, 0x1C, 0xA6, 0xB4, 0xC6,
 124:C:/Workspace/DAVE-4.4.2-64Bit/optiga-trust-m/externals/mbedtls/library\aes.c ****     0xE8, 0xDD, 0x74, 0x1F, 0x4B, 0xBD, 0x8B, 0x8A,
 125:C:/Workspace/DAVE-4.4.2-64Bit/optiga-trust-m/externals/mbedtls/library\aes.c ****     0x70, 0x3E, 0xB5, 0x66, 0x48, 0x03, 0xF6, 0x0E,
 126:C:/Workspace/DAVE-4.4.2-64Bit/optiga-trust-m/externals/mbedtls/library\aes.c ****     0x61, 0x35, 0x57, 0xB9, 0x86, 0xC1, 0x1D, 0x9E,
 127:C:/Workspace/DAVE-4.4.2-64Bit/optiga-trust-m/externals/mbedtls/library\aes.c ****     0xE1, 0xF8, 0x98, 0x11, 0x69, 0xD9, 0x8E, 0x94,
 128:C:/Workspace/DAVE-4.4.2-64Bit/optiga-trust-m/externals/mbedtls/library\aes.c ****     0x9B, 0x1E, 0x87, 0xE9, 0xCE, 0x55, 0x28, 0xDF,
 129:C:/Workspace/DAVE-4.4.2-64Bit/optiga-trust-m/externals/mbedtls/library\aes.c ****     0x8C, 0xA1, 0x89, 0x0D, 0xBF, 0xE6, 0x42, 0x68,
 130:C:/Workspace/DAVE-4.4.2-64Bit/optiga-trust-m/externals/mbedtls/library\aes.c ****     0x41, 0x99, 0x2D, 0x0F, 0xB0, 0x54, 0xBB, 0x16
 131:C:/Workspace/DAVE-4.4.2-64Bit/optiga-trust-m/externals/mbedtls/library\aes.c **** };
 132:C:/Workspace/DAVE-4.4.2-64Bit/optiga-trust-m/externals/mbedtls/library\aes.c **** 
 133:C:/Workspace/DAVE-4.4.2-64Bit/optiga-trust-m/externals/mbedtls/library\aes.c **** /*
 134:C:/Workspace/DAVE-4.4.2-64Bit/optiga-trust-m/externals/mbedtls/library\aes.c ****  * Forward tables
 135:C:/Workspace/DAVE-4.4.2-64Bit/optiga-trust-m/externals/mbedtls/library\aes.c ****  */
 136:C:/Workspace/DAVE-4.4.2-64Bit/optiga-trust-m/externals/mbedtls/library\aes.c **** #define FT \
 137:C:/Workspace/DAVE-4.4.2-64Bit/optiga-trust-m/externals/mbedtls/library\aes.c **** \
 138:C:/Workspace/DAVE-4.4.2-64Bit/optiga-trust-m/externals/mbedtls/library\aes.c ****     V(A5,63,63,C6), V(84,7C,7C,F8), V(99,77,77,EE), V(8D,7B,7B,F6), \
 139:C:/Workspace/DAVE-4.4.2-64Bit/optiga-trust-m/externals/mbedtls/library\aes.c ****     V(0D,F2,F2,FF), V(BD,6B,6B,D6), V(B1,6F,6F,DE), V(54,C5,C5,91), \
 140:C:/Workspace/DAVE-4.4.2-64Bit/optiga-trust-m/externals/mbedtls/library\aes.c ****     V(50,30,30,60), V(03,01,01,02), V(A9,67,67,CE), V(7D,2B,2B,56), \
 141:C:/Workspace/DAVE-4.4.2-64Bit/optiga-trust-m/externals/mbedtls/library\aes.c ****     V(19,FE,FE,E7), V(62,D7,D7,B5), V(E6,AB,AB,4D), V(9A,76,76,EC), \
 142:C:/Workspace/DAVE-4.4.2-64Bit/optiga-trust-m/externals/mbedtls/library\aes.c ****     V(45,CA,CA,8F), V(9D,82,82,1F), V(40,C9,C9,89), V(87,7D,7D,FA), \
 143:C:/Workspace/DAVE-4.4.2-64Bit/optiga-trust-m/externals/mbedtls/library\aes.c ****     V(15,FA,FA,EF), V(EB,59,59,B2), V(C9,47,47,8E), V(0B,F0,F0,FB), \
 144:C:/Workspace/DAVE-4.4.2-64Bit/optiga-trust-m/externals/mbedtls/library\aes.c ****     V(EC,AD,AD,41), V(67,D4,D4,B3), V(FD,A2,A2,5F), V(EA,AF,AF,45), \
 145:C:/Workspace/DAVE-4.4.2-64Bit/optiga-trust-m/externals/mbedtls/library\aes.c ****     V(BF,9C,9C,23), V(F7,A4,A4,53), V(96,72,72,E4), V(5B,C0,C0,9B), \
 146:C:/Workspace/DAVE-4.4.2-64Bit/optiga-trust-m/externals/mbedtls/library\aes.c ****     V(C2,B7,B7,75), V(1C,FD,FD,E1), V(AE,93,93,3D), V(6A,26,26,4C), \
 147:C:/Workspace/DAVE-4.4.2-64Bit/optiga-trust-m/externals/mbedtls/library\aes.c ****     V(5A,36,36,6C), V(41,3F,3F,7E), V(02,F7,F7,F5), V(4F,CC,CC,83), \
 148:C:/Workspace/DAVE-4.4.2-64Bit/optiga-trust-m/externals/mbedtls/library\aes.c ****     V(5C,34,34,68), V(F4,A5,A5,51), V(34,E5,E5,D1), V(08,F1,F1,F9), \
 149:C:/Workspace/DAVE-4.4.2-64Bit/optiga-trust-m/externals/mbedtls/library\aes.c ****     V(93,71,71,E2), V(73,D8,D8,AB), V(53,31,31,62), V(3F,15,15,2A), \
 150:C:/Workspace/DAVE-4.4.2-64Bit/optiga-trust-m/externals/mbedtls/library\aes.c ****     V(0C,04,04,08), V(52,C7,C7,95), V(65,23,23,46), V(5E,C3,C3,9D), \
 151:C:/Workspace/DAVE-4.4.2-64Bit/optiga-trust-m/externals/mbedtls/library\aes.c ****     V(28,18,18,30), V(A1,96,96,37), V(0F,05,05,0A), V(B5,9A,9A,2F), \
 152:C:/Workspace/DAVE-4.4.2-64Bit/optiga-trust-m/externals/mbedtls/library\aes.c ****     V(09,07,07,0E), V(36,12,12,24), V(9B,80,80,1B), V(3D,E2,E2,DF), \
 153:C:/Workspace/DAVE-4.4.2-64Bit/optiga-trust-m/externals/mbedtls/library\aes.c ****     V(26,EB,EB,CD), V(69,27,27,4E), V(CD,B2,B2,7F), V(9F,75,75,EA), \
 154:C:/Workspace/DAVE-4.4.2-64Bit/optiga-trust-m/externals/mbedtls/library\aes.c ****     V(1B,09,09,12), V(9E,83,83,1D), V(74,2C,2C,58), V(2E,1A,1A,34), \
 155:C:/Workspace/DAVE-4.4.2-64Bit/optiga-trust-m/externals/mbedtls/library\aes.c ****     V(2D,1B,1B,36), V(B2,6E,6E,DC), V(EE,5A,5A,B4), V(FB,A0,A0,5B), \
 156:C:/Workspace/DAVE-4.4.2-64Bit/optiga-trust-m/externals/mbedtls/library\aes.c ****     V(F6,52,52,A4), V(4D,3B,3B,76), V(61,D6,D6,B7), V(CE,B3,B3,7D), \
 157:C:/Workspace/DAVE-4.4.2-64Bit/optiga-trust-m/externals/mbedtls/library\aes.c ****     V(7B,29,29,52), V(3E,E3,E3,DD), V(71,2F,2F,5E), V(97,84,84,13), \
 158:C:/Workspace/DAVE-4.4.2-64Bit/optiga-trust-m/externals/mbedtls/library\aes.c ****     V(F5,53,53,A6), V(68,D1,D1,B9), V(00,00,00,00), V(2C,ED,ED,C1), \
 159:C:/Workspace/DAVE-4.4.2-64Bit/optiga-trust-m/externals/mbedtls/library\aes.c ****     V(60,20,20,40), V(1F,FC,FC,E3), V(C8,B1,B1,79), V(ED,5B,5B,B6), \
 160:C:/Workspace/DAVE-4.4.2-64Bit/optiga-trust-m/externals/mbedtls/library\aes.c ****     V(BE,6A,6A,D4), V(46,CB,CB,8D), V(D9,BE,BE,67), V(4B,39,39,72), \
 161:C:/Workspace/DAVE-4.4.2-64Bit/optiga-trust-m/externals/mbedtls/library\aes.c ****     V(DE,4A,4A,94), V(D4,4C,4C,98), V(E8,58,58,B0), V(4A,CF,CF,85), \
 162:C:/Workspace/DAVE-4.4.2-64Bit/optiga-trust-m/externals/mbedtls/library\aes.c ****     V(6B,D0,D0,BB), V(2A,EF,EF,C5), V(E5,AA,AA,4F), V(16,FB,FB,ED), \
 163:C:/Workspace/DAVE-4.4.2-64Bit/optiga-trust-m/externals/mbedtls/library\aes.c ****     V(C5,43,43,86), V(D7,4D,4D,9A), V(55,33,33,66), V(94,85,85,11), \
 164:C:/Workspace/DAVE-4.4.2-64Bit/optiga-trust-m/externals/mbedtls/library\aes.c ****     V(CF,45,45,8A), V(10,F9,F9,E9), V(06,02,02,04), V(81,7F,7F,FE), \
 165:C:/Workspace/DAVE-4.4.2-64Bit/optiga-trust-m/externals/mbedtls/library\aes.c ****     V(F0,50,50,A0), V(44,3C,3C,78), V(BA,9F,9F,25), V(E3,A8,A8,4B), \
 166:C:/Workspace/DAVE-4.4.2-64Bit/optiga-trust-m/externals/mbedtls/library\aes.c ****     V(F3,51,51,A2), V(FE,A3,A3,5D), V(C0,40,40,80), V(8A,8F,8F,05), \
 167:C:/Workspace/DAVE-4.4.2-64Bit/optiga-trust-m/externals/mbedtls/library\aes.c ****     V(AD,92,92,3F), V(BC,9D,9D,21), V(48,38,38,70), V(04,F5,F5,F1), \
 168:C:/Workspace/DAVE-4.4.2-64Bit/optiga-trust-m/externals/mbedtls/library\aes.c ****     V(DF,BC,BC,63), V(C1,B6,B6,77), V(75,DA,DA,AF), V(63,21,21,42), \
 169:C:/Workspace/DAVE-4.4.2-64Bit/optiga-trust-m/externals/mbedtls/library\aes.c ****     V(30,10,10,20), V(1A,FF,FF,E5), V(0E,F3,F3,FD), V(6D,D2,D2,BF), \
 170:C:/Workspace/DAVE-4.4.2-64Bit/optiga-trust-m/externals/mbedtls/library\aes.c ****     V(4C,CD,CD,81), V(14,0C,0C,18), V(35,13,13,26), V(2F,EC,EC,C3), \
 171:C:/Workspace/DAVE-4.4.2-64Bit/optiga-trust-m/externals/mbedtls/library\aes.c ****     V(E1,5F,5F,BE), V(A2,97,97,35), V(CC,44,44,88), V(39,17,17,2E), \
 172:C:/Workspace/DAVE-4.4.2-64Bit/optiga-trust-m/externals/mbedtls/library\aes.c ****     V(57,C4,C4,93), V(F2,A7,A7,55), V(82,7E,7E,FC), V(47,3D,3D,7A), \
 173:C:/Workspace/DAVE-4.4.2-64Bit/optiga-trust-m/externals/mbedtls/library\aes.c ****     V(AC,64,64,C8), V(E7,5D,5D,BA), V(2B,19,19,32), V(95,73,73,E6), \
 174:C:/Workspace/DAVE-4.4.2-64Bit/optiga-trust-m/externals/mbedtls/library\aes.c ****     V(A0,60,60,C0), V(98,81,81,19), V(D1,4F,4F,9E), V(7F,DC,DC,A3), \
 175:C:/Workspace/DAVE-4.4.2-64Bit/optiga-trust-m/externals/mbedtls/library\aes.c ****     V(66,22,22,44), V(7E,2A,2A,54), V(AB,90,90,3B), V(83,88,88,0B), \
 176:C:/Workspace/DAVE-4.4.2-64Bit/optiga-trust-m/externals/mbedtls/library\aes.c ****     V(CA,46,46,8C), V(29,EE,EE,C7), V(D3,B8,B8,6B), V(3C,14,14,28), \
 177:C:/Workspace/DAVE-4.4.2-64Bit/optiga-trust-m/externals/mbedtls/library\aes.c ****     V(79,DE,DE,A7), V(E2,5E,5E,BC), V(1D,0B,0B,16), V(76,DB,DB,AD), \
 178:C:/Workspace/DAVE-4.4.2-64Bit/optiga-trust-m/externals/mbedtls/library\aes.c ****     V(3B,E0,E0,DB), V(56,32,32,64), V(4E,3A,3A,74), V(1E,0A,0A,14), \
 179:C:/Workspace/DAVE-4.4.2-64Bit/optiga-trust-m/externals/mbedtls/library\aes.c ****     V(DB,49,49,92), V(0A,06,06,0C), V(6C,24,24,48), V(E4,5C,5C,B8), \
 180:C:/Workspace/DAVE-4.4.2-64Bit/optiga-trust-m/externals/mbedtls/library\aes.c ****     V(5D,C2,C2,9F), V(6E,D3,D3,BD), V(EF,AC,AC,43), V(A6,62,62,C4), \
 181:C:/Workspace/DAVE-4.4.2-64Bit/optiga-trust-m/externals/mbedtls/library\aes.c ****     V(A8,91,91,39), V(A4,95,95,31), V(37,E4,E4,D3), V(8B,79,79,F2), \
 182:C:/Workspace/DAVE-4.4.2-64Bit/optiga-trust-m/externals/mbedtls/library\aes.c ****     V(32,E7,E7,D5), V(43,C8,C8,8B), V(59,37,37,6E), V(B7,6D,6D,DA), \
 183:C:/Workspace/DAVE-4.4.2-64Bit/optiga-trust-m/externals/mbedtls/library\aes.c ****     V(8C,8D,8D,01), V(64,D5,D5,B1), V(D2,4E,4E,9C), V(E0,A9,A9,49), \
 184:C:/Workspace/DAVE-4.4.2-64Bit/optiga-trust-m/externals/mbedtls/library\aes.c ****     V(B4,6C,6C,D8), V(FA,56,56,AC), V(07,F4,F4,F3), V(25,EA,EA,CF), \
 185:C:/Workspace/DAVE-4.4.2-64Bit/optiga-trust-m/externals/mbedtls/library\aes.c ****     V(AF,65,65,CA), V(8E,7A,7A,F4), V(E9,AE,AE,47), V(18,08,08,10), \
 186:C:/Workspace/DAVE-4.4.2-64Bit/optiga-trust-m/externals/mbedtls/library\aes.c ****     V(D5,BA,BA,6F), V(88,78,78,F0), V(6F,25,25,4A), V(72,2E,2E,5C), \
 187:C:/Workspace/DAVE-4.4.2-64Bit/optiga-trust-m/externals/mbedtls/library\aes.c ****     V(24,1C,1C,38), V(F1,A6,A6,57), V(C7,B4,B4,73), V(51,C6,C6,97), \
 188:C:/Workspace/DAVE-4.4.2-64Bit/optiga-trust-m/externals/mbedtls/library\aes.c ****     V(23,E8,E8,CB), V(7C,DD,DD,A1), V(9C,74,74,E8), V(21,1F,1F,3E), \
 189:C:/Workspace/DAVE-4.4.2-64Bit/optiga-trust-m/externals/mbedtls/library\aes.c ****     V(DD,4B,4B,96), V(DC,BD,BD,61), V(86,8B,8B,0D), V(85,8A,8A,0F), \
 190:C:/Workspace/DAVE-4.4.2-64Bit/optiga-trust-m/externals/mbedtls/library\aes.c ****     V(90,70,70,E0), V(42,3E,3E,7C), V(C4,B5,B5,71), V(AA,66,66,CC), \
 191:C:/Workspace/DAVE-4.4.2-64Bit/optiga-trust-m/externals/mbedtls/library\aes.c ****     V(D8,48,48,90), V(05,03,03,06), V(01,F6,F6,F7), V(12,0E,0E,1C), \
 192:C:/Workspace/DAVE-4.4.2-64Bit/optiga-trust-m/externals/mbedtls/library\aes.c ****     V(A3,61,61,C2), V(5F,35,35,6A), V(F9,57,57,AE), V(D0,B9,B9,69), \
 193:C:/Workspace/DAVE-4.4.2-64Bit/optiga-trust-m/externals/mbedtls/library\aes.c ****     V(91,86,86,17), V(58,C1,C1,99), V(27,1D,1D,3A), V(B9,9E,9E,27), \
 194:C:/Workspace/DAVE-4.4.2-64Bit/optiga-trust-m/externals/mbedtls/library\aes.c ****     V(38,E1,E1,D9), V(13,F8,F8,EB), V(B3,98,98,2B), V(33,11,11,22), \
 195:C:/Workspace/DAVE-4.4.2-64Bit/optiga-trust-m/externals/mbedtls/library\aes.c ****     V(BB,69,69,D2), V(70,D9,D9,A9), V(89,8E,8E,07), V(A7,94,94,33), \
 196:C:/Workspace/DAVE-4.4.2-64Bit/optiga-trust-m/externals/mbedtls/library\aes.c ****     V(B6,9B,9B,2D), V(22,1E,1E,3C), V(92,87,87,15), V(20,E9,E9,C9), \
 197:C:/Workspace/DAVE-4.4.2-64Bit/optiga-trust-m/externals/mbedtls/library\aes.c ****     V(49,CE,CE,87), V(FF,55,55,AA), V(78,28,28,50), V(7A,DF,DF,A5), \
 198:C:/Workspace/DAVE-4.4.2-64Bit/optiga-trust-m/externals/mbedtls/library\aes.c ****     V(8F,8C,8C,03), V(F8,A1,A1,59), V(80,89,89,09), V(17,0D,0D,1A), \
 199:C:/Workspace/DAVE-4.4.2-64Bit/optiga-trust-m/externals/mbedtls/library\aes.c ****     V(DA,BF,BF,65), V(31,E6,E6,D7), V(C6,42,42,84), V(B8,68,68,D0), \
 200:C:/Workspace/DAVE-4.4.2-64Bit/optiga-trust-m/externals/mbedtls/library\aes.c ****     V(C3,41,41,82), V(B0,99,99,29), V(77,2D,2D,5A), V(11,0F,0F,1E), \
 201:C:/Workspace/DAVE-4.4.2-64Bit/optiga-trust-m/externals/mbedtls/library\aes.c ****     V(CB,B0,B0,7B), V(FC,54,54,A8), V(D6,BB,BB,6D), V(3A,16,16,2C)
 202:C:/Workspace/DAVE-4.4.2-64Bit/optiga-trust-m/externals/mbedtls/library\aes.c **** 
 203:C:/Workspace/DAVE-4.4.2-64Bit/optiga-trust-m/externals/mbedtls/library\aes.c **** #define V(a,b,c,d) 0x##a##b##c##d
 204:C:/Workspace/DAVE-4.4.2-64Bit/optiga-trust-m/externals/mbedtls/library\aes.c **** static const uint32_t FT0[256] = { FT };
 205:C:/Workspace/DAVE-4.4.2-64Bit/optiga-trust-m/externals/mbedtls/library\aes.c **** #undef V
 206:C:/Workspace/DAVE-4.4.2-64Bit/optiga-trust-m/externals/mbedtls/library\aes.c **** 
 207:C:/Workspace/DAVE-4.4.2-64Bit/optiga-trust-m/externals/mbedtls/library\aes.c **** #if !defined(MBEDTLS_AES_FEWER_TABLES)
 208:C:/Workspace/DAVE-4.4.2-64Bit/optiga-trust-m/externals/mbedtls/library\aes.c **** 
 209:C:/Workspace/DAVE-4.4.2-64Bit/optiga-trust-m/externals/mbedtls/library\aes.c **** #define V(a,b,c,d) 0x##b##c##d##a
 210:C:/Workspace/DAVE-4.4.2-64Bit/optiga-trust-m/externals/mbedtls/library\aes.c **** static const uint32_t FT1[256] = { FT };
 211:C:/Workspace/DAVE-4.4.2-64Bit/optiga-trust-m/externals/mbedtls/library\aes.c **** #undef V
 212:C:/Workspace/DAVE-4.4.2-64Bit/optiga-trust-m/externals/mbedtls/library\aes.c **** 
 213:C:/Workspace/DAVE-4.4.2-64Bit/optiga-trust-m/externals/mbedtls/library\aes.c **** #define V(a,b,c,d) 0x##c##d##a##b
 214:C:/Workspace/DAVE-4.4.2-64Bit/optiga-trust-m/externals/mbedtls/library\aes.c **** static const uint32_t FT2[256] = { FT };
 215:C:/Workspace/DAVE-4.4.2-64Bit/optiga-trust-m/externals/mbedtls/library\aes.c **** #undef V
 216:C:/Workspace/DAVE-4.4.2-64Bit/optiga-trust-m/externals/mbedtls/library\aes.c **** 
 217:C:/Workspace/DAVE-4.4.2-64Bit/optiga-trust-m/externals/mbedtls/library\aes.c **** #define V(a,b,c,d) 0x##d##a##b##c
 218:C:/Workspace/DAVE-4.4.2-64Bit/optiga-trust-m/externals/mbedtls/library\aes.c **** static const uint32_t FT3[256] = { FT };
 219:C:/Workspace/DAVE-4.4.2-64Bit/optiga-trust-m/externals/mbedtls/library\aes.c **** #undef V
 220:C:/Workspace/DAVE-4.4.2-64Bit/optiga-trust-m/externals/mbedtls/library\aes.c **** 
 221:C:/Workspace/DAVE-4.4.2-64Bit/optiga-trust-m/externals/mbedtls/library\aes.c **** #endif /* !MBEDTLS_AES_FEWER_TABLES */
 222:C:/Workspace/DAVE-4.4.2-64Bit/optiga-trust-m/externals/mbedtls/library\aes.c **** 
 223:C:/Workspace/DAVE-4.4.2-64Bit/optiga-trust-m/externals/mbedtls/library\aes.c **** #undef FT
 224:C:/Workspace/DAVE-4.4.2-64Bit/optiga-trust-m/externals/mbedtls/library\aes.c **** 
 225:C:/Workspace/DAVE-4.4.2-64Bit/optiga-trust-m/externals/mbedtls/library\aes.c **** /*
 226:C:/Workspace/DAVE-4.4.2-64Bit/optiga-trust-m/externals/mbedtls/library\aes.c ****  * Reverse S-box
 227:C:/Workspace/DAVE-4.4.2-64Bit/optiga-trust-m/externals/mbedtls/library\aes.c ****  */
 228:C:/Workspace/DAVE-4.4.2-64Bit/optiga-trust-m/externals/mbedtls/library\aes.c **** static const unsigned char RSb[256] =
 229:C:/Workspace/DAVE-4.4.2-64Bit/optiga-trust-m/externals/mbedtls/library\aes.c **** {
 230:C:/Workspace/DAVE-4.4.2-64Bit/optiga-trust-m/externals/mbedtls/library\aes.c ****     0x52, 0x09, 0x6A, 0xD5, 0x30, 0x36, 0xA5, 0x38,
 231:C:/Workspace/DAVE-4.4.2-64Bit/optiga-trust-m/externals/mbedtls/library\aes.c ****     0xBF, 0x40, 0xA3, 0x9E, 0x81, 0xF3, 0xD7, 0xFB,
 232:C:/Workspace/DAVE-4.4.2-64Bit/optiga-trust-m/externals/mbedtls/library\aes.c ****     0x7C, 0xE3, 0x39, 0x82, 0x9B, 0x2F, 0xFF, 0x87,
 233:C:/Workspace/DAVE-4.4.2-64Bit/optiga-trust-m/externals/mbedtls/library\aes.c ****     0x34, 0x8E, 0x43, 0x44, 0xC4, 0xDE, 0xE9, 0xCB,
 234:C:/Workspace/DAVE-4.4.2-64Bit/optiga-trust-m/externals/mbedtls/library\aes.c ****     0x54, 0x7B, 0x94, 0x32, 0xA6, 0xC2, 0x23, 0x3D,
 235:C:/Workspace/DAVE-4.4.2-64Bit/optiga-trust-m/externals/mbedtls/library\aes.c ****     0xEE, 0x4C, 0x95, 0x0B, 0x42, 0xFA, 0xC3, 0x4E,
 236:C:/Workspace/DAVE-4.4.2-64Bit/optiga-trust-m/externals/mbedtls/library\aes.c ****     0x08, 0x2E, 0xA1, 0x66, 0x28, 0xD9, 0x24, 0xB2,
 237:C:/Workspace/DAVE-4.4.2-64Bit/optiga-trust-m/externals/mbedtls/library\aes.c ****     0x76, 0x5B, 0xA2, 0x49, 0x6D, 0x8B, 0xD1, 0x25,
 238:C:/Workspace/DAVE-4.4.2-64Bit/optiga-trust-m/externals/mbedtls/library\aes.c ****     0x72, 0xF8, 0xF6, 0x64, 0x86, 0x68, 0x98, 0x16,
 239:C:/Workspace/DAVE-4.4.2-64Bit/optiga-trust-m/externals/mbedtls/library\aes.c ****     0xD4, 0xA4, 0x5C, 0xCC, 0x5D, 0x65, 0xB6, 0x92,
 240:C:/Workspace/DAVE-4.4.2-64Bit/optiga-trust-m/externals/mbedtls/library\aes.c ****     0x6C, 0x70, 0x48, 0x50, 0xFD, 0xED, 0xB9, 0xDA,
 241:C:/Workspace/DAVE-4.4.2-64Bit/optiga-trust-m/externals/mbedtls/library\aes.c ****     0x5E, 0x15, 0x46, 0x57, 0xA7, 0x8D, 0x9D, 0x84,
 242:C:/Workspace/DAVE-4.4.2-64Bit/optiga-trust-m/externals/mbedtls/library\aes.c ****     0x90, 0xD8, 0xAB, 0x00, 0x8C, 0xBC, 0xD3, 0x0A,
 243:C:/Workspace/DAVE-4.4.2-64Bit/optiga-trust-m/externals/mbedtls/library\aes.c ****     0xF7, 0xE4, 0x58, 0x05, 0xB8, 0xB3, 0x45, 0x06,
 244:C:/Workspace/DAVE-4.4.2-64Bit/optiga-trust-m/externals/mbedtls/library\aes.c ****     0xD0, 0x2C, 0x1E, 0x8F, 0xCA, 0x3F, 0x0F, 0x02,
 245:C:/Workspace/DAVE-4.4.2-64Bit/optiga-trust-m/externals/mbedtls/library\aes.c ****     0xC1, 0xAF, 0xBD, 0x03, 0x01, 0x13, 0x8A, 0x6B,
 246:C:/Workspace/DAVE-4.4.2-64Bit/optiga-trust-m/externals/mbedtls/library\aes.c ****     0x3A, 0x91, 0x11, 0x41, 0x4F, 0x67, 0xDC, 0xEA,
 247:C:/Workspace/DAVE-4.4.2-64Bit/optiga-trust-m/externals/mbedtls/library\aes.c ****     0x97, 0xF2, 0xCF, 0xCE, 0xF0, 0xB4, 0xE6, 0x73,
 248:C:/Workspace/DAVE-4.4.2-64Bit/optiga-trust-m/externals/mbedtls/library\aes.c ****     0x96, 0xAC, 0x74, 0x22, 0xE7, 0xAD, 0x35, 0x85,
 249:C:/Workspace/DAVE-4.4.2-64Bit/optiga-trust-m/externals/mbedtls/library\aes.c ****     0xE2, 0xF9, 0x37, 0xE8, 0x1C, 0x75, 0xDF, 0x6E,
 250:C:/Workspace/DAVE-4.4.2-64Bit/optiga-trust-m/externals/mbedtls/library\aes.c ****     0x47, 0xF1, 0x1A, 0x71, 0x1D, 0x29, 0xC5, 0x89,
 251:C:/Workspace/DAVE-4.4.2-64Bit/optiga-trust-m/externals/mbedtls/library\aes.c ****     0x6F, 0xB7, 0x62, 0x0E, 0xAA, 0x18, 0xBE, 0x1B,
 252:C:/Workspace/DAVE-4.4.2-64Bit/optiga-trust-m/externals/mbedtls/library\aes.c ****     0xFC, 0x56, 0x3E, 0x4B, 0xC6, 0xD2, 0x79, 0x20,
 253:C:/Workspace/DAVE-4.4.2-64Bit/optiga-trust-m/externals/mbedtls/library\aes.c ****     0x9A, 0xDB, 0xC0, 0xFE, 0x78, 0xCD, 0x5A, 0xF4,
 254:C:/Workspace/DAVE-4.4.2-64Bit/optiga-trust-m/externals/mbedtls/library\aes.c ****     0x1F, 0xDD, 0xA8, 0x33, 0x88, 0x07, 0xC7, 0x31,
 255:C:/Workspace/DAVE-4.4.2-64Bit/optiga-trust-m/externals/mbedtls/library\aes.c ****     0xB1, 0x12, 0x10, 0x59, 0x27, 0x80, 0xEC, 0x5F,
 256:C:/Workspace/DAVE-4.4.2-64Bit/optiga-trust-m/externals/mbedtls/library\aes.c ****     0x60, 0x51, 0x7F, 0xA9, 0x19, 0xB5, 0x4A, 0x0D,
 257:C:/Workspace/DAVE-4.4.2-64Bit/optiga-trust-m/externals/mbedtls/library\aes.c ****     0x2D, 0xE5, 0x7A, 0x9F, 0x93, 0xC9, 0x9C, 0xEF,
 258:C:/Workspace/DAVE-4.4.2-64Bit/optiga-trust-m/externals/mbedtls/library\aes.c ****     0xA0, 0xE0, 0x3B, 0x4D, 0xAE, 0x2A, 0xF5, 0xB0,
 259:C:/Workspace/DAVE-4.4.2-64Bit/optiga-trust-m/externals/mbedtls/library\aes.c ****     0xC8, 0xEB, 0xBB, 0x3C, 0x83, 0x53, 0x99, 0x61,
 260:C:/Workspace/DAVE-4.4.2-64Bit/optiga-trust-m/externals/mbedtls/library\aes.c ****     0x17, 0x2B, 0x04, 0x7E, 0xBA, 0x77, 0xD6, 0x26,
 261:C:/Workspace/DAVE-4.4.2-64Bit/optiga-trust-m/externals/mbedtls/library\aes.c ****     0xE1, 0x69, 0x14, 0x63, 0x55, 0x21, 0x0C, 0x7D
 262:C:/Workspace/DAVE-4.4.2-64Bit/optiga-trust-m/externals/mbedtls/library\aes.c **** };
 263:C:/Workspace/DAVE-4.4.2-64Bit/optiga-trust-m/externals/mbedtls/library\aes.c **** 
 264:C:/Workspace/DAVE-4.4.2-64Bit/optiga-trust-m/externals/mbedtls/library\aes.c **** /*
 265:C:/Workspace/DAVE-4.4.2-64Bit/optiga-trust-m/externals/mbedtls/library\aes.c ****  * Reverse tables
 266:C:/Workspace/DAVE-4.4.2-64Bit/optiga-trust-m/externals/mbedtls/library\aes.c ****  */
 267:C:/Workspace/DAVE-4.4.2-64Bit/optiga-trust-m/externals/mbedtls/library\aes.c **** #define RT \
 268:C:/Workspace/DAVE-4.4.2-64Bit/optiga-trust-m/externals/mbedtls/library\aes.c **** \
 269:C:/Workspace/DAVE-4.4.2-64Bit/optiga-trust-m/externals/mbedtls/library\aes.c ****     V(50,A7,F4,51), V(53,65,41,7E), V(C3,A4,17,1A), V(96,5E,27,3A), \
 270:C:/Workspace/DAVE-4.4.2-64Bit/optiga-trust-m/externals/mbedtls/library\aes.c ****     V(CB,6B,AB,3B), V(F1,45,9D,1F), V(AB,58,FA,AC), V(93,03,E3,4B), \
 271:C:/Workspace/DAVE-4.4.2-64Bit/optiga-trust-m/externals/mbedtls/library\aes.c ****     V(55,FA,30,20), V(F6,6D,76,AD), V(91,76,CC,88), V(25,4C,02,F5), \
 272:C:/Workspace/DAVE-4.4.2-64Bit/optiga-trust-m/externals/mbedtls/library\aes.c ****     V(FC,D7,E5,4F), V(D7,CB,2A,C5), V(80,44,35,26), V(8F,A3,62,B5), \
 273:C:/Workspace/DAVE-4.4.2-64Bit/optiga-trust-m/externals/mbedtls/library\aes.c ****     V(49,5A,B1,DE), V(67,1B,BA,25), V(98,0E,EA,45), V(E1,C0,FE,5D), \
 274:C:/Workspace/DAVE-4.4.2-64Bit/optiga-trust-m/externals/mbedtls/library\aes.c ****     V(02,75,2F,C3), V(12,F0,4C,81), V(A3,97,46,8D), V(C6,F9,D3,6B), \
 275:C:/Workspace/DAVE-4.4.2-64Bit/optiga-trust-m/externals/mbedtls/library\aes.c ****     V(E7,5F,8F,03), V(95,9C,92,15), V(EB,7A,6D,BF), V(DA,59,52,95), \
 276:C:/Workspace/DAVE-4.4.2-64Bit/optiga-trust-m/externals/mbedtls/library\aes.c ****     V(2D,83,BE,D4), V(D3,21,74,58), V(29,69,E0,49), V(44,C8,C9,8E), \
 277:C:/Workspace/DAVE-4.4.2-64Bit/optiga-trust-m/externals/mbedtls/library\aes.c ****     V(6A,89,C2,75), V(78,79,8E,F4), V(6B,3E,58,99), V(DD,71,B9,27), \
 278:C:/Workspace/DAVE-4.4.2-64Bit/optiga-trust-m/externals/mbedtls/library\aes.c ****     V(B6,4F,E1,BE), V(17,AD,88,F0), V(66,AC,20,C9), V(B4,3A,CE,7D), \
 279:C:/Workspace/DAVE-4.4.2-64Bit/optiga-trust-m/externals/mbedtls/library\aes.c ****     V(18,4A,DF,63), V(82,31,1A,E5), V(60,33,51,97), V(45,7F,53,62), \
 280:C:/Workspace/DAVE-4.4.2-64Bit/optiga-trust-m/externals/mbedtls/library\aes.c ****     V(E0,77,64,B1), V(84,AE,6B,BB), V(1C,A0,81,FE), V(94,2B,08,F9), \
 281:C:/Workspace/DAVE-4.4.2-64Bit/optiga-trust-m/externals/mbedtls/library\aes.c ****     V(58,68,48,70), V(19,FD,45,8F), V(87,6C,DE,94), V(B7,F8,7B,52), \
 282:C:/Workspace/DAVE-4.4.2-64Bit/optiga-trust-m/externals/mbedtls/library\aes.c ****     V(23,D3,73,AB), V(E2,02,4B,72), V(57,8F,1F,E3), V(2A,AB,55,66), \
 283:C:/Workspace/DAVE-4.4.2-64Bit/optiga-trust-m/externals/mbedtls/library\aes.c ****     V(07,28,EB,B2), V(03,C2,B5,2F), V(9A,7B,C5,86), V(A5,08,37,D3), \
 284:C:/Workspace/DAVE-4.4.2-64Bit/optiga-trust-m/externals/mbedtls/library\aes.c ****     V(F2,87,28,30), V(B2,A5,BF,23), V(BA,6A,03,02), V(5C,82,16,ED), \
 285:C:/Workspace/DAVE-4.4.2-64Bit/optiga-trust-m/externals/mbedtls/library\aes.c ****     V(2B,1C,CF,8A), V(92,B4,79,A7), V(F0,F2,07,F3), V(A1,E2,69,4E), \
 286:C:/Workspace/DAVE-4.4.2-64Bit/optiga-trust-m/externals/mbedtls/library\aes.c ****     V(CD,F4,DA,65), V(D5,BE,05,06), V(1F,62,34,D1), V(8A,FE,A6,C4), \
 287:C:/Workspace/DAVE-4.4.2-64Bit/optiga-trust-m/externals/mbedtls/library\aes.c ****     V(9D,53,2E,34), V(A0,55,F3,A2), V(32,E1,8A,05), V(75,EB,F6,A4), \
 288:C:/Workspace/DAVE-4.4.2-64Bit/optiga-trust-m/externals/mbedtls/library\aes.c ****     V(39,EC,83,0B), V(AA,EF,60,40), V(06,9F,71,5E), V(51,10,6E,BD), \
 289:C:/Workspace/DAVE-4.4.2-64Bit/optiga-trust-m/externals/mbedtls/library\aes.c ****     V(F9,8A,21,3E), V(3D,06,DD,96), V(AE,05,3E,DD), V(46,BD,E6,4D), \
 290:C:/Workspace/DAVE-4.4.2-64Bit/optiga-trust-m/externals/mbedtls/library\aes.c ****     V(B5,8D,54,91), V(05,5D,C4,71), V(6F,D4,06,04), V(FF,15,50,60), \
 291:C:/Workspace/DAVE-4.4.2-64Bit/optiga-trust-m/externals/mbedtls/library\aes.c ****     V(24,FB,98,19), V(97,E9,BD,D6), V(CC,43,40,89), V(77,9E,D9,67), \
 292:C:/Workspace/DAVE-4.4.2-64Bit/optiga-trust-m/externals/mbedtls/library\aes.c ****     V(BD,42,E8,B0), V(88,8B,89,07), V(38,5B,19,E7), V(DB,EE,C8,79), \
 293:C:/Workspace/DAVE-4.4.2-64Bit/optiga-trust-m/externals/mbedtls/library\aes.c ****     V(47,0A,7C,A1), V(E9,0F,42,7C), V(C9,1E,84,F8), V(00,00,00,00), \
 294:C:/Workspace/DAVE-4.4.2-64Bit/optiga-trust-m/externals/mbedtls/library\aes.c ****     V(83,86,80,09), V(48,ED,2B,32), V(AC,70,11,1E), V(4E,72,5A,6C), \
 295:C:/Workspace/DAVE-4.4.2-64Bit/optiga-trust-m/externals/mbedtls/library\aes.c ****     V(FB,FF,0E,FD), V(56,38,85,0F), V(1E,D5,AE,3D), V(27,39,2D,36), \
 296:C:/Workspace/DAVE-4.4.2-64Bit/optiga-trust-m/externals/mbedtls/library\aes.c ****     V(64,D9,0F,0A), V(21,A6,5C,68), V(D1,54,5B,9B), V(3A,2E,36,24), \
 297:C:/Workspace/DAVE-4.4.2-64Bit/optiga-trust-m/externals/mbedtls/library\aes.c ****     V(B1,67,0A,0C), V(0F,E7,57,93), V(D2,96,EE,B4), V(9E,91,9B,1B), \
 298:C:/Workspace/DAVE-4.4.2-64Bit/optiga-trust-m/externals/mbedtls/library\aes.c ****     V(4F,C5,C0,80), V(A2,20,DC,61), V(69,4B,77,5A), V(16,1A,12,1C), \
 299:C:/Workspace/DAVE-4.4.2-64Bit/optiga-trust-m/externals/mbedtls/library\aes.c ****     V(0A,BA,93,E2), V(E5,2A,A0,C0), V(43,E0,22,3C), V(1D,17,1B,12), \
 300:C:/Workspace/DAVE-4.4.2-64Bit/optiga-trust-m/externals/mbedtls/library\aes.c ****     V(0B,0D,09,0E), V(AD,C7,8B,F2), V(B9,A8,B6,2D), V(C8,A9,1E,14), \
 301:C:/Workspace/DAVE-4.4.2-64Bit/optiga-trust-m/externals/mbedtls/library\aes.c ****     V(85,19,F1,57), V(4C,07,75,AF), V(BB,DD,99,EE), V(FD,60,7F,A3), \
 302:C:/Workspace/DAVE-4.4.2-64Bit/optiga-trust-m/externals/mbedtls/library\aes.c ****     V(9F,26,01,F7), V(BC,F5,72,5C), V(C5,3B,66,44), V(34,7E,FB,5B), \
 303:C:/Workspace/DAVE-4.4.2-64Bit/optiga-trust-m/externals/mbedtls/library\aes.c ****     V(76,29,43,8B), V(DC,C6,23,CB), V(68,FC,ED,B6), V(63,F1,E4,B8), \
 304:C:/Workspace/DAVE-4.4.2-64Bit/optiga-trust-m/externals/mbedtls/library\aes.c ****     V(CA,DC,31,D7), V(10,85,63,42), V(40,22,97,13), V(20,11,C6,84), \
 305:C:/Workspace/DAVE-4.4.2-64Bit/optiga-trust-m/externals/mbedtls/library\aes.c ****     V(7D,24,4A,85), V(F8,3D,BB,D2), V(11,32,F9,AE), V(6D,A1,29,C7), \
 306:C:/Workspace/DAVE-4.4.2-64Bit/optiga-trust-m/externals/mbedtls/library\aes.c ****     V(4B,2F,9E,1D), V(F3,30,B2,DC), V(EC,52,86,0D), V(D0,E3,C1,77), \
 307:C:/Workspace/DAVE-4.4.2-64Bit/optiga-trust-m/externals/mbedtls/library\aes.c ****     V(6C,16,B3,2B), V(99,B9,70,A9), V(FA,48,94,11), V(22,64,E9,47), \
 308:C:/Workspace/DAVE-4.4.2-64Bit/optiga-trust-m/externals/mbedtls/library\aes.c ****     V(C4,8C,FC,A8), V(1A,3F,F0,A0), V(D8,2C,7D,56), V(EF,90,33,22), \
 309:C:/Workspace/DAVE-4.4.2-64Bit/optiga-trust-m/externals/mbedtls/library\aes.c ****     V(C7,4E,49,87), V(C1,D1,38,D9), V(FE,A2,CA,8C), V(36,0B,D4,98), \
 310:C:/Workspace/DAVE-4.4.2-64Bit/optiga-trust-m/externals/mbedtls/library\aes.c ****     V(CF,81,F5,A6), V(28,DE,7A,A5), V(26,8E,B7,DA), V(A4,BF,AD,3F), \
 311:C:/Workspace/DAVE-4.4.2-64Bit/optiga-trust-m/externals/mbedtls/library\aes.c ****     V(E4,9D,3A,2C), V(0D,92,78,50), V(9B,CC,5F,6A), V(62,46,7E,54), \
 312:C:/Workspace/DAVE-4.4.2-64Bit/optiga-trust-m/externals/mbedtls/library\aes.c ****     V(C2,13,8D,F6), V(E8,B8,D8,90), V(5E,F7,39,2E), V(F5,AF,C3,82), \
 313:C:/Workspace/DAVE-4.4.2-64Bit/optiga-trust-m/externals/mbedtls/library\aes.c ****     V(BE,80,5D,9F), V(7C,93,D0,69), V(A9,2D,D5,6F), V(B3,12,25,CF), \
 314:C:/Workspace/DAVE-4.4.2-64Bit/optiga-trust-m/externals/mbedtls/library\aes.c ****     V(3B,99,AC,C8), V(A7,7D,18,10), V(6E,63,9C,E8), V(7B,BB,3B,DB), \
 315:C:/Workspace/DAVE-4.4.2-64Bit/optiga-trust-m/externals/mbedtls/library\aes.c ****     V(09,78,26,CD), V(F4,18,59,6E), V(01,B7,9A,EC), V(A8,9A,4F,83), \
 316:C:/Workspace/DAVE-4.4.2-64Bit/optiga-trust-m/externals/mbedtls/library\aes.c ****     V(65,6E,95,E6), V(7E,E6,FF,AA), V(08,CF,BC,21), V(E6,E8,15,EF), \
 317:C:/Workspace/DAVE-4.4.2-64Bit/optiga-trust-m/externals/mbedtls/library\aes.c ****     V(D9,9B,E7,BA), V(CE,36,6F,4A), V(D4,09,9F,EA), V(D6,7C,B0,29), \
 318:C:/Workspace/DAVE-4.4.2-64Bit/optiga-trust-m/externals/mbedtls/library\aes.c ****     V(AF,B2,A4,31), V(31,23,3F,2A), V(30,94,A5,C6), V(C0,66,A2,35), \
 319:C:/Workspace/DAVE-4.4.2-64Bit/optiga-trust-m/externals/mbedtls/library\aes.c ****     V(37,BC,4E,74), V(A6,CA,82,FC), V(B0,D0,90,E0), V(15,D8,A7,33), \
 320:C:/Workspace/DAVE-4.4.2-64Bit/optiga-trust-m/externals/mbedtls/library\aes.c ****     V(4A,98,04,F1), V(F7,DA,EC,41), V(0E,50,CD,7F), V(2F,F6,91,17), \
 321:C:/Workspace/DAVE-4.4.2-64Bit/optiga-trust-m/externals/mbedtls/library\aes.c ****     V(8D,D6,4D,76), V(4D,B0,EF,43), V(54,4D,AA,CC), V(DF,04,96,E4), \
 322:C:/Workspace/DAVE-4.4.2-64Bit/optiga-trust-m/externals/mbedtls/library\aes.c ****     V(E3,B5,D1,9E), V(1B,88,6A,4C), V(B8,1F,2C,C1), V(7F,51,65,46), \
 323:C:/Workspace/DAVE-4.4.2-64Bit/optiga-trust-m/externals/mbedtls/library\aes.c ****     V(04,EA,5E,9D), V(5D,35,8C,01), V(73,74,87,FA), V(2E,41,0B,FB), \
 324:C:/Workspace/DAVE-4.4.2-64Bit/optiga-trust-m/externals/mbedtls/library\aes.c ****     V(5A,1D,67,B3), V(52,D2,DB,92), V(33,56,10,E9), V(13,47,D6,6D), \
 325:C:/Workspace/DAVE-4.4.2-64Bit/optiga-trust-m/externals/mbedtls/library\aes.c ****     V(8C,61,D7,9A), V(7A,0C,A1,37), V(8E,14,F8,59), V(89,3C,13,EB), \
 326:C:/Workspace/DAVE-4.4.2-64Bit/optiga-trust-m/externals/mbedtls/library\aes.c ****     V(EE,27,A9,CE), V(35,C9,61,B7), V(ED,E5,1C,E1), V(3C,B1,47,7A), \
 327:C:/Workspace/DAVE-4.4.2-64Bit/optiga-trust-m/externals/mbedtls/library\aes.c ****     V(59,DF,D2,9C), V(3F,73,F2,55), V(79,CE,14,18), V(BF,37,C7,73), \
 328:C:/Workspace/DAVE-4.4.2-64Bit/optiga-trust-m/externals/mbedtls/library\aes.c ****     V(EA,CD,F7,53), V(5B,AA,FD,5F), V(14,6F,3D,DF), V(86,DB,44,78), \
 329:C:/Workspace/DAVE-4.4.2-64Bit/optiga-trust-m/externals/mbedtls/library\aes.c ****     V(81,F3,AF,CA), V(3E,C4,68,B9), V(2C,34,24,38), V(5F,40,A3,C2), \
 330:C:/Workspace/DAVE-4.4.2-64Bit/optiga-trust-m/externals/mbedtls/library\aes.c ****     V(72,C3,1D,16), V(0C,25,E2,BC), V(8B,49,3C,28), V(41,95,0D,FF), \
 331:C:/Workspace/DAVE-4.4.2-64Bit/optiga-trust-m/externals/mbedtls/library\aes.c ****     V(71,01,A8,39), V(DE,B3,0C,08), V(9C,E4,B4,D8), V(90,C1,56,64), \
 332:C:/Workspace/DAVE-4.4.2-64Bit/optiga-trust-m/externals/mbedtls/library\aes.c ****     V(61,84,CB,7B), V(70,B6,32,D5), V(74,5C,6C,48), V(42,57,B8,D0)
 333:C:/Workspace/DAVE-4.4.2-64Bit/optiga-trust-m/externals/mbedtls/library\aes.c **** 
 334:C:/Workspace/DAVE-4.4.2-64Bit/optiga-trust-m/externals/mbedtls/library\aes.c **** #define V(a,b,c,d) 0x##a##b##c##d
 335:C:/Workspace/DAVE-4.4.2-64Bit/optiga-trust-m/externals/mbedtls/library\aes.c **** static const uint32_t RT0[256] = { RT };
 336:C:/Workspace/DAVE-4.4.2-64Bit/optiga-trust-m/externals/mbedtls/library\aes.c **** #undef V
 337:C:/Workspace/DAVE-4.4.2-64Bit/optiga-trust-m/externals/mbedtls/library\aes.c **** 
 338:C:/Workspace/DAVE-4.4.2-64Bit/optiga-trust-m/externals/mbedtls/library\aes.c **** #if !defined(MBEDTLS_AES_FEWER_TABLES)
 339:C:/Workspace/DAVE-4.4.2-64Bit/optiga-trust-m/externals/mbedtls/library\aes.c **** 
 340:C:/Workspace/DAVE-4.4.2-64Bit/optiga-trust-m/externals/mbedtls/library\aes.c **** #define V(a,b,c,d) 0x##b##c##d##a
 341:C:/Workspace/DAVE-4.4.2-64Bit/optiga-trust-m/externals/mbedtls/library\aes.c **** static const uint32_t RT1[256] = { RT };
 342:C:/Workspace/DAVE-4.4.2-64Bit/optiga-trust-m/externals/mbedtls/library\aes.c **** #undef V
 343:C:/Workspace/DAVE-4.4.2-64Bit/optiga-trust-m/externals/mbedtls/library\aes.c **** 
 344:C:/Workspace/DAVE-4.4.2-64Bit/optiga-trust-m/externals/mbedtls/library\aes.c **** #define V(a,b,c,d) 0x##c##d##a##b
 345:C:/Workspace/DAVE-4.4.2-64Bit/optiga-trust-m/externals/mbedtls/library\aes.c **** static const uint32_t RT2[256] = { RT };
 346:C:/Workspace/DAVE-4.4.2-64Bit/optiga-trust-m/externals/mbedtls/library\aes.c **** #undef V
 347:C:/Workspace/DAVE-4.4.2-64Bit/optiga-trust-m/externals/mbedtls/library\aes.c **** 
 348:C:/Workspace/DAVE-4.4.2-64Bit/optiga-trust-m/externals/mbedtls/library\aes.c **** #define V(a,b,c,d) 0x##d##a##b##c
 349:C:/Workspace/DAVE-4.4.2-64Bit/optiga-trust-m/externals/mbedtls/library\aes.c **** static const uint32_t RT3[256] = { RT };
 350:C:/Workspace/DAVE-4.4.2-64Bit/optiga-trust-m/externals/mbedtls/library\aes.c **** #undef V
 351:C:/Workspace/DAVE-4.4.2-64Bit/optiga-trust-m/externals/mbedtls/library\aes.c **** 
 352:C:/Workspace/DAVE-4.4.2-64Bit/optiga-trust-m/externals/mbedtls/library\aes.c **** #endif /* !MBEDTLS_AES_FEWER_TABLES */
 353:C:/Workspace/DAVE-4.4.2-64Bit/optiga-trust-m/externals/mbedtls/library\aes.c **** 
 354:C:/Workspace/DAVE-4.4.2-64Bit/optiga-trust-m/externals/mbedtls/library\aes.c **** #undef RT
 355:C:/Workspace/DAVE-4.4.2-64Bit/optiga-trust-m/externals/mbedtls/library\aes.c **** 
 356:C:/Workspace/DAVE-4.4.2-64Bit/optiga-trust-m/externals/mbedtls/library\aes.c **** /*
 357:C:/Workspace/DAVE-4.4.2-64Bit/optiga-trust-m/externals/mbedtls/library\aes.c ****  * Round constants
 358:C:/Workspace/DAVE-4.4.2-64Bit/optiga-trust-m/externals/mbedtls/library\aes.c ****  */
 359:C:/Workspace/DAVE-4.4.2-64Bit/optiga-trust-m/externals/mbedtls/library\aes.c **** static const uint32_t RCON[10] =
 360:C:/Workspace/DAVE-4.4.2-64Bit/optiga-trust-m/externals/mbedtls/library\aes.c **** {
 361:C:/Workspace/DAVE-4.4.2-64Bit/optiga-trust-m/externals/mbedtls/library\aes.c ****     0x00000001, 0x00000002, 0x00000004, 0x00000008,
 362:C:/Workspace/DAVE-4.4.2-64Bit/optiga-trust-m/externals/mbedtls/library\aes.c ****     0x00000010, 0x00000020, 0x00000040, 0x00000080,
 363:C:/Workspace/DAVE-4.4.2-64Bit/optiga-trust-m/externals/mbedtls/library\aes.c ****     0x0000001B, 0x00000036
 364:C:/Workspace/DAVE-4.4.2-64Bit/optiga-trust-m/externals/mbedtls/library\aes.c **** };
 365:C:/Workspace/DAVE-4.4.2-64Bit/optiga-trust-m/externals/mbedtls/library\aes.c **** 
 366:C:/Workspace/DAVE-4.4.2-64Bit/optiga-trust-m/externals/mbedtls/library\aes.c **** #else /* MBEDTLS_AES_ROM_TABLES */
 367:C:/Workspace/DAVE-4.4.2-64Bit/optiga-trust-m/externals/mbedtls/library\aes.c **** 
 368:C:/Workspace/DAVE-4.4.2-64Bit/optiga-trust-m/externals/mbedtls/library\aes.c **** /*
 369:C:/Workspace/DAVE-4.4.2-64Bit/optiga-trust-m/externals/mbedtls/library\aes.c ****  * Forward S-box & tables
 370:C:/Workspace/DAVE-4.4.2-64Bit/optiga-trust-m/externals/mbedtls/library\aes.c ****  */
 371:C:/Workspace/DAVE-4.4.2-64Bit/optiga-trust-m/externals/mbedtls/library\aes.c **** static unsigned char FSb[256];
 372:C:/Workspace/DAVE-4.4.2-64Bit/optiga-trust-m/externals/mbedtls/library\aes.c **** static uint32_t FT0[256];
 373:C:/Workspace/DAVE-4.4.2-64Bit/optiga-trust-m/externals/mbedtls/library\aes.c **** #if !defined(MBEDTLS_AES_FEWER_TABLES)
 374:C:/Workspace/DAVE-4.4.2-64Bit/optiga-trust-m/externals/mbedtls/library\aes.c **** static uint32_t FT1[256];
 375:C:/Workspace/DAVE-4.4.2-64Bit/optiga-trust-m/externals/mbedtls/library\aes.c **** static uint32_t FT2[256];
 376:C:/Workspace/DAVE-4.4.2-64Bit/optiga-trust-m/externals/mbedtls/library\aes.c **** static uint32_t FT3[256];
 377:C:/Workspace/DAVE-4.4.2-64Bit/optiga-trust-m/externals/mbedtls/library\aes.c **** #endif /* !MBEDTLS_AES_FEWER_TABLES */
 378:C:/Workspace/DAVE-4.4.2-64Bit/optiga-trust-m/externals/mbedtls/library\aes.c **** 
 379:C:/Workspace/DAVE-4.4.2-64Bit/optiga-trust-m/externals/mbedtls/library\aes.c **** /*
 380:C:/Workspace/DAVE-4.4.2-64Bit/optiga-trust-m/externals/mbedtls/library\aes.c ****  * Reverse S-box & tables
 381:C:/Workspace/DAVE-4.4.2-64Bit/optiga-trust-m/externals/mbedtls/library\aes.c ****  */
 382:C:/Workspace/DAVE-4.4.2-64Bit/optiga-trust-m/externals/mbedtls/library\aes.c **** static unsigned char RSb[256];
 383:C:/Workspace/DAVE-4.4.2-64Bit/optiga-trust-m/externals/mbedtls/library\aes.c **** static uint32_t RT0[256];
 384:C:/Workspace/DAVE-4.4.2-64Bit/optiga-trust-m/externals/mbedtls/library\aes.c **** #if !defined(MBEDTLS_AES_FEWER_TABLES)
 385:C:/Workspace/DAVE-4.4.2-64Bit/optiga-trust-m/externals/mbedtls/library\aes.c **** static uint32_t RT1[256];
 386:C:/Workspace/DAVE-4.4.2-64Bit/optiga-trust-m/externals/mbedtls/library\aes.c **** static uint32_t RT2[256];
 387:C:/Workspace/DAVE-4.4.2-64Bit/optiga-trust-m/externals/mbedtls/library\aes.c **** static uint32_t RT3[256];
 388:C:/Workspace/DAVE-4.4.2-64Bit/optiga-trust-m/externals/mbedtls/library\aes.c **** #endif /* !MBEDTLS_AES_FEWER_TABLES */
 389:C:/Workspace/DAVE-4.4.2-64Bit/optiga-trust-m/externals/mbedtls/library\aes.c **** 
 390:C:/Workspace/DAVE-4.4.2-64Bit/optiga-trust-m/externals/mbedtls/library\aes.c **** /*
 391:C:/Workspace/DAVE-4.4.2-64Bit/optiga-trust-m/externals/mbedtls/library\aes.c ****  * Round constants
 392:C:/Workspace/DAVE-4.4.2-64Bit/optiga-trust-m/externals/mbedtls/library\aes.c ****  */
 393:C:/Workspace/DAVE-4.4.2-64Bit/optiga-trust-m/externals/mbedtls/library\aes.c **** static uint32_t RCON[10];
 394:C:/Workspace/DAVE-4.4.2-64Bit/optiga-trust-m/externals/mbedtls/library\aes.c **** 
 395:C:/Workspace/DAVE-4.4.2-64Bit/optiga-trust-m/externals/mbedtls/library\aes.c **** /*
 396:C:/Workspace/DAVE-4.4.2-64Bit/optiga-trust-m/externals/mbedtls/library\aes.c ****  * Tables generation code
 397:C:/Workspace/DAVE-4.4.2-64Bit/optiga-trust-m/externals/mbedtls/library\aes.c ****  */
 398:C:/Workspace/DAVE-4.4.2-64Bit/optiga-trust-m/externals/mbedtls/library\aes.c **** #define ROTL8(x) ( ( x << 8 ) & 0xFFFFFFFF ) | ( x >> 24 )
 399:C:/Workspace/DAVE-4.4.2-64Bit/optiga-trust-m/externals/mbedtls/library\aes.c **** #define XTIME(x) ( ( x << 1 ) ^ ( ( x & 0x80 ) ? 0x1B : 0x00 ) )
 400:C:/Workspace/DAVE-4.4.2-64Bit/optiga-trust-m/externals/mbedtls/library\aes.c **** #define MUL(x,y) ( ( x && y ) ? pow[(log[x]+log[y]) % 255] : 0 )
 401:C:/Workspace/DAVE-4.4.2-64Bit/optiga-trust-m/externals/mbedtls/library\aes.c **** 
 402:C:/Workspace/DAVE-4.4.2-64Bit/optiga-trust-m/externals/mbedtls/library\aes.c **** static int aes_init_done = 0;
 403:C:/Workspace/DAVE-4.4.2-64Bit/optiga-trust-m/externals/mbedtls/library\aes.c **** 
 404:C:/Workspace/DAVE-4.4.2-64Bit/optiga-trust-m/externals/mbedtls/library\aes.c **** static void aes_gen_tables( void )
 405:C:/Workspace/DAVE-4.4.2-64Bit/optiga-trust-m/externals/mbedtls/library\aes.c **** {
 406:C:/Workspace/DAVE-4.4.2-64Bit/optiga-trust-m/externals/mbedtls/library\aes.c ****     int i, x, y, z;
 407:C:/Workspace/DAVE-4.4.2-64Bit/optiga-trust-m/externals/mbedtls/library\aes.c ****     int pow[256];
 408:C:/Workspace/DAVE-4.4.2-64Bit/optiga-trust-m/externals/mbedtls/library\aes.c ****     int log[256];
 409:C:/Workspace/DAVE-4.4.2-64Bit/optiga-trust-m/externals/mbedtls/library\aes.c **** 
 410:C:/Workspace/DAVE-4.4.2-64Bit/optiga-trust-m/externals/mbedtls/library\aes.c ****     /*
 411:C:/Workspace/DAVE-4.4.2-64Bit/optiga-trust-m/externals/mbedtls/library\aes.c ****      * compute pow and log tables over GF(2^8)
 412:C:/Workspace/DAVE-4.4.2-64Bit/optiga-trust-m/externals/mbedtls/library\aes.c ****      */
 413:C:/Workspace/DAVE-4.4.2-64Bit/optiga-trust-m/externals/mbedtls/library\aes.c ****     for( i = 0, x = 1; i < 256; i++ )
 414:C:/Workspace/DAVE-4.4.2-64Bit/optiga-trust-m/externals/mbedtls/library\aes.c ****     {
 415:C:/Workspace/DAVE-4.4.2-64Bit/optiga-trust-m/externals/mbedtls/library\aes.c ****         pow[i] = x;
 416:C:/Workspace/DAVE-4.4.2-64Bit/optiga-trust-m/externals/mbedtls/library\aes.c ****         log[x] = i;
 417:C:/Workspace/DAVE-4.4.2-64Bit/optiga-trust-m/externals/mbedtls/library\aes.c ****         x = ( x ^ XTIME( x ) ) & 0xFF;
 418:C:/Workspace/DAVE-4.4.2-64Bit/optiga-trust-m/externals/mbedtls/library\aes.c ****     }
 419:C:/Workspace/DAVE-4.4.2-64Bit/optiga-trust-m/externals/mbedtls/library\aes.c **** 
 420:C:/Workspace/DAVE-4.4.2-64Bit/optiga-trust-m/externals/mbedtls/library\aes.c ****     /*
 421:C:/Workspace/DAVE-4.4.2-64Bit/optiga-trust-m/externals/mbedtls/library\aes.c ****      * calculate the round constants
 422:C:/Workspace/DAVE-4.4.2-64Bit/optiga-trust-m/externals/mbedtls/library\aes.c ****      */
 423:C:/Workspace/DAVE-4.4.2-64Bit/optiga-trust-m/externals/mbedtls/library\aes.c ****     for( i = 0, x = 1; i < 10; i++ )
 424:C:/Workspace/DAVE-4.4.2-64Bit/optiga-trust-m/externals/mbedtls/library\aes.c ****     {
 425:C:/Workspace/DAVE-4.4.2-64Bit/optiga-trust-m/externals/mbedtls/library\aes.c ****         RCON[i] = (uint32_t) x;
 426:C:/Workspace/DAVE-4.4.2-64Bit/optiga-trust-m/externals/mbedtls/library\aes.c ****         x = XTIME( x ) & 0xFF;
 427:C:/Workspace/DAVE-4.4.2-64Bit/optiga-trust-m/externals/mbedtls/library\aes.c ****     }
 428:C:/Workspace/DAVE-4.4.2-64Bit/optiga-trust-m/externals/mbedtls/library\aes.c **** 
 429:C:/Workspace/DAVE-4.4.2-64Bit/optiga-trust-m/externals/mbedtls/library\aes.c ****     /*
 430:C:/Workspace/DAVE-4.4.2-64Bit/optiga-trust-m/externals/mbedtls/library\aes.c ****      * generate the forward and reverse S-boxes
 431:C:/Workspace/DAVE-4.4.2-64Bit/optiga-trust-m/externals/mbedtls/library\aes.c ****      */
 432:C:/Workspace/DAVE-4.4.2-64Bit/optiga-trust-m/externals/mbedtls/library\aes.c ****     FSb[0x00] = 0x63;
 433:C:/Workspace/DAVE-4.4.2-64Bit/optiga-trust-m/externals/mbedtls/library\aes.c ****     RSb[0x63] = 0x00;
 434:C:/Workspace/DAVE-4.4.2-64Bit/optiga-trust-m/externals/mbedtls/library\aes.c **** 
 435:C:/Workspace/DAVE-4.4.2-64Bit/optiga-trust-m/externals/mbedtls/library\aes.c ****     for( i = 1; i < 256; i++ )
 436:C:/Workspace/DAVE-4.4.2-64Bit/optiga-trust-m/externals/mbedtls/library\aes.c ****     {
 437:C:/Workspace/DAVE-4.4.2-64Bit/optiga-trust-m/externals/mbedtls/library\aes.c ****         x = pow[255 - log[i]];
 438:C:/Workspace/DAVE-4.4.2-64Bit/optiga-trust-m/externals/mbedtls/library\aes.c **** 
 439:C:/Workspace/DAVE-4.4.2-64Bit/optiga-trust-m/externals/mbedtls/library\aes.c ****         y  = x; y = ( ( y << 1 ) | ( y >> 7 ) ) & 0xFF;
 440:C:/Workspace/DAVE-4.4.2-64Bit/optiga-trust-m/externals/mbedtls/library\aes.c ****         x ^= y; y = ( ( y << 1 ) | ( y >> 7 ) ) & 0xFF;
 441:C:/Workspace/DAVE-4.4.2-64Bit/optiga-trust-m/externals/mbedtls/library\aes.c ****         x ^= y; y = ( ( y << 1 ) | ( y >> 7 ) ) & 0xFF;
 442:C:/Workspace/DAVE-4.4.2-64Bit/optiga-trust-m/externals/mbedtls/library\aes.c ****         x ^= y; y = ( ( y << 1 ) | ( y >> 7 ) ) & 0xFF;
 443:C:/Workspace/DAVE-4.4.2-64Bit/optiga-trust-m/externals/mbedtls/library\aes.c ****         x ^= y ^ 0x63;
 444:C:/Workspace/DAVE-4.4.2-64Bit/optiga-trust-m/externals/mbedtls/library\aes.c **** 
 445:C:/Workspace/DAVE-4.4.2-64Bit/optiga-trust-m/externals/mbedtls/library\aes.c ****         FSb[i] = (unsigned char) x;
 446:C:/Workspace/DAVE-4.4.2-64Bit/optiga-trust-m/externals/mbedtls/library\aes.c ****         RSb[x] = (unsigned char) i;
 447:C:/Workspace/DAVE-4.4.2-64Bit/optiga-trust-m/externals/mbedtls/library\aes.c ****     }
 448:C:/Workspace/DAVE-4.4.2-64Bit/optiga-trust-m/externals/mbedtls/library\aes.c **** 
 449:C:/Workspace/DAVE-4.4.2-64Bit/optiga-trust-m/externals/mbedtls/library\aes.c ****     /*
 450:C:/Workspace/DAVE-4.4.2-64Bit/optiga-trust-m/externals/mbedtls/library\aes.c ****      * generate the forward and reverse tables
 451:C:/Workspace/DAVE-4.4.2-64Bit/optiga-trust-m/externals/mbedtls/library\aes.c ****      */
 452:C:/Workspace/DAVE-4.4.2-64Bit/optiga-trust-m/externals/mbedtls/library\aes.c ****     for( i = 0; i < 256; i++ )
 453:C:/Workspace/DAVE-4.4.2-64Bit/optiga-trust-m/externals/mbedtls/library\aes.c ****     {
 454:C:/Workspace/DAVE-4.4.2-64Bit/optiga-trust-m/externals/mbedtls/library\aes.c ****         x = FSb[i];
 455:C:/Workspace/DAVE-4.4.2-64Bit/optiga-trust-m/externals/mbedtls/library\aes.c ****         y = XTIME( x ) & 0xFF;
 456:C:/Workspace/DAVE-4.4.2-64Bit/optiga-trust-m/externals/mbedtls/library\aes.c ****         z =  ( y ^ x ) & 0xFF;
 457:C:/Workspace/DAVE-4.4.2-64Bit/optiga-trust-m/externals/mbedtls/library\aes.c **** 
 458:C:/Workspace/DAVE-4.4.2-64Bit/optiga-trust-m/externals/mbedtls/library\aes.c ****         FT0[i] = ( (uint32_t) y       ) ^
 459:C:/Workspace/DAVE-4.4.2-64Bit/optiga-trust-m/externals/mbedtls/library\aes.c ****                  ( (uint32_t) x <<  8 ) ^
 460:C:/Workspace/DAVE-4.4.2-64Bit/optiga-trust-m/externals/mbedtls/library\aes.c ****                  ( (uint32_t) x << 16 ) ^
 461:C:/Workspace/DAVE-4.4.2-64Bit/optiga-trust-m/externals/mbedtls/library\aes.c ****                  ( (uint32_t) z << 24 );
 462:C:/Workspace/DAVE-4.4.2-64Bit/optiga-trust-m/externals/mbedtls/library\aes.c **** 
 463:C:/Workspace/DAVE-4.4.2-64Bit/optiga-trust-m/externals/mbedtls/library\aes.c **** #if !defined(MBEDTLS_AES_FEWER_TABLES)
 464:C:/Workspace/DAVE-4.4.2-64Bit/optiga-trust-m/externals/mbedtls/library\aes.c ****         FT1[i] = ROTL8( FT0[i] );
 465:C:/Workspace/DAVE-4.4.2-64Bit/optiga-trust-m/externals/mbedtls/library\aes.c ****         FT2[i] = ROTL8( FT1[i] );
 466:C:/Workspace/DAVE-4.4.2-64Bit/optiga-trust-m/externals/mbedtls/library\aes.c ****         FT3[i] = ROTL8( FT2[i] );
 467:C:/Workspace/DAVE-4.4.2-64Bit/optiga-trust-m/externals/mbedtls/library\aes.c **** #endif /* !MBEDTLS_AES_FEWER_TABLES */
 468:C:/Workspace/DAVE-4.4.2-64Bit/optiga-trust-m/externals/mbedtls/library\aes.c **** 
 469:C:/Workspace/DAVE-4.4.2-64Bit/optiga-trust-m/externals/mbedtls/library\aes.c ****         x = RSb[i];
 470:C:/Workspace/DAVE-4.4.2-64Bit/optiga-trust-m/externals/mbedtls/library\aes.c **** 
 471:C:/Workspace/DAVE-4.4.2-64Bit/optiga-trust-m/externals/mbedtls/library\aes.c ****         RT0[i] = ( (uint32_t) MUL( 0x0E, x )       ) ^
 472:C:/Workspace/DAVE-4.4.2-64Bit/optiga-trust-m/externals/mbedtls/library\aes.c ****                  ( (uint32_t) MUL( 0x09, x ) <<  8 ) ^
 473:C:/Workspace/DAVE-4.4.2-64Bit/optiga-trust-m/externals/mbedtls/library\aes.c ****                  ( (uint32_t) MUL( 0x0D, x ) << 16 ) ^
 474:C:/Workspace/DAVE-4.4.2-64Bit/optiga-trust-m/externals/mbedtls/library\aes.c ****                  ( (uint32_t) MUL( 0x0B, x ) << 24 );
 475:C:/Workspace/DAVE-4.4.2-64Bit/optiga-trust-m/externals/mbedtls/library\aes.c **** 
 476:C:/Workspace/DAVE-4.4.2-64Bit/optiga-trust-m/externals/mbedtls/library\aes.c **** #if !defined(MBEDTLS_AES_FEWER_TABLES)
 477:C:/Workspace/DAVE-4.4.2-64Bit/optiga-trust-m/externals/mbedtls/library\aes.c ****         RT1[i] = ROTL8( RT0[i] );
 478:C:/Workspace/DAVE-4.4.2-64Bit/optiga-trust-m/externals/mbedtls/library\aes.c ****         RT2[i] = ROTL8( RT1[i] );
 479:C:/Workspace/DAVE-4.4.2-64Bit/optiga-trust-m/externals/mbedtls/library\aes.c ****         RT3[i] = ROTL8( RT2[i] );
 480:C:/Workspace/DAVE-4.4.2-64Bit/optiga-trust-m/externals/mbedtls/library\aes.c **** #endif /* !MBEDTLS_AES_FEWER_TABLES */
 481:C:/Workspace/DAVE-4.4.2-64Bit/optiga-trust-m/externals/mbedtls/library\aes.c ****     }
 482:C:/Workspace/DAVE-4.4.2-64Bit/optiga-trust-m/externals/mbedtls/library\aes.c **** }
 483:C:/Workspace/DAVE-4.4.2-64Bit/optiga-trust-m/externals/mbedtls/library\aes.c **** 
 484:C:/Workspace/DAVE-4.4.2-64Bit/optiga-trust-m/externals/mbedtls/library\aes.c **** #undef ROTL8
 485:C:/Workspace/DAVE-4.4.2-64Bit/optiga-trust-m/externals/mbedtls/library\aes.c **** 
 486:C:/Workspace/DAVE-4.4.2-64Bit/optiga-trust-m/externals/mbedtls/library\aes.c **** #endif /* MBEDTLS_AES_ROM_TABLES */
 487:C:/Workspace/DAVE-4.4.2-64Bit/optiga-trust-m/externals/mbedtls/library\aes.c **** 
 488:C:/Workspace/DAVE-4.4.2-64Bit/optiga-trust-m/externals/mbedtls/library\aes.c **** #if defined(MBEDTLS_AES_FEWER_TABLES)
 489:C:/Workspace/DAVE-4.4.2-64Bit/optiga-trust-m/externals/mbedtls/library\aes.c **** 
 490:C:/Workspace/DAVE-4.4.2-64Bit/optiga-trust-m/externals/mbedtls/library\aes.c **** #define ROTL8(x)  ( (uint32_t)( ( x ) <<  8 ) + (uint32_t)( ( x ) >> 24 ) )
 491:C:/Workspace/DAVE-4.4.2-64Bit/optiga-trust-m/externals/mbedtls/library\aes.c **** #define ROTL16(x) ( (uint32_t)( ( x ) << 16 ) + (uint32_t)( ( x ) >> 16 ) )
 492:C:/Workspace/DAVE-4.4.2-64Bit/optiga-trust-m/externals/mbedtls/library\aes.c **** #define ROTL24(x) ( (uint32_t)( ( x ) << 24 ) + (uint32_t)( ( x ) >>  8 ) )
 493:C:/Workspace/DAVE-4.4.2-64Bit/optiga-trust-m/externals/mbedtls/library\aes.c **** 
 494:C:/Workspace/DAVE-4.4.2-64Bit/optiga-trust-m/externals/mbedtls/library\aes.c **** #define AES_RT0(idx) RT0[idx]
 495:C:/Workspace/DAVE-4.4.2-64Bit/optiga-trust-m/externals/mbedtls/library\aes.c **** #define AES_RT1(idx) ROTL8(  RT0[idx] )
 496:C:/Workspace/DAVE-4.4.2-64Bit/optiga-trust-m/externals/mbedtls/library\aes.c **** #define AES_RT2(idx) ROTL16( RT0[idx] )
 497:C:/Workspace/DAVE-4.4.2-64Bit/optiga-trust-m/externals/mbedtls/library\aes.c **** #define AES_RT3(idx) ROTL24( RT0[idx] )
 498:C:/Workspace/DAVE-4.4.2-64Bit/optiga-trust-m/externals/mbedtls/library\aes.c **** 
 499:C:/Workspace/DAVE-4.4.2-64Bit/optiga-trust-m/externals/mbedtls/library\aes.c **** #define AES_FT0(idx) FT0[idx]
 500:C:/Workspace/DAVE-4.4.2-64Bit/optiga-trust-m/externals/mbedtls/library\aes.c **** #define AES_FT1(idx) ROTL8(  FT0[idx] )
 501:C:/Workspace/DAVE-4.4.2-64Bit/optiga-trust-m/externals/mbedtls/library\aes.c **** #define AES_FT2(idx) ROTL16( FT0[idx] )
 502:C:/Workspace/DAVE-4.4.2-64Bit/optiga-trust-m/externals/mbedtls/library\aes.c **** #define AES_FT3(idx) ROTL24( FT0[idx] )
 503:C:/Workspace/DAVE-4.4.2-64Bit/optiga-trust-m/externals/mbedtls/library\aes.c **** 
 504:C:/Workspace/DAVE-4.4.2-64Bit/optiga-trust-m/externals/mbedtls/library\aes.c **** #else /* MBEDTLS_AES_FEWER_TABLES */
 505:C:/Workspace/DAVE-4.4.2-64Bit/optiga-trust-m/externals/mbedtls/library\aes.c **** 
 506:C:/Workspace/DAVE-4.4.2-64Bit/optiga-trust-m/externals/mbedtls/library\aes.c **** #define AES_RT0(idx) RT0[idx]
 507:C:/Workspace/DAVE-4.4.2-64Bit/optiga-trust-m/externals/mbedtls/library\aes.c **** #define AES_RT1(idx) RT1[idx]
 508:C:/Workspace/DAVE-4.4.2-64Bit/optiga-trust-m/externals/mbedtls/library\aes.c **** #define AES_RT2(idx) RT2[idx]
 509:C:/Workspace/DAVE-4.4.2-64Bit/optiga-trust-m/externals/mbedtls/library\aes.c **** #define AES_RT3(idx) RT3[idx]
 510:C:/Workspace/DAVE-4.4.2-64Bit/optiga-trust-m/externals/mbedtls/library\aes.c **** 
 511:C:/Workspace/DAVE-4.4.2-64Bit/optiga-trust-m/externals/mbedtls/library\aes.c **** #define AES_FT0(idx) FT0[idx]
 512:C:/Workspace/DAVE-4.4.2-64Bit/optiga-trust-m/externals/mbedtls/library\aes.c **** #define AES_FT1(idx) FT1[idx]
 513:C:/Workspace/DAVE-4.4.2-64Bit/optiga-trust-m/externals/mbedtls/library\aes.c **** #define AES_FT2(idx) FT2[idx]
 514:C:/Workspace/DAVE-4.4.2-64Bit/optiga-trust-m/externals/mbedtls/library\aes.c **** #define AES_FT3(idx) FT3[idx]
 515:C:/Workspace/DAVE-4.4.2-64Bit/optiga-trust-m/externals/mbedtls/library\aes.c **** 
 516:C:/Workspace/DAVE-4.4.2-64Bit/optiga-trust-m/externals/mbedtls/library\aes.c **** #endif /* MBEDTLS_AES_FEWER_TABLES */
 517:C:/Workspace/DAVE-4.4.2-64Bit/optiga-trust-m/externals/mbedtls/library\aes.c **** 
 518:C:/Workspace/DAVE-4.4.2-64Bit/optiga-trust-m/externals/mbedtls/library\aes.c **** void mbedtls_aes_init( mbedtls_aes_context *ctx )
 519:C:/Workspace/DAVE-4.4.2-64Bit/optiga-trust-m/externals/mbedtls/library\aes.c **** {
  26              	 .loc 1 519 0
  27              	 .cfi_startproc
  28              	.LVL0:
 520:C:/Workspace/DAVE-4.4.2-64Bit/optiga-trust-m/externals/mbedtls/library\aes.c ****     AES_VALIDATE( ctx != NULL );
 521:C:/Workspace/DAVE-4.4.2-64Bit/optiga-trust-m/externals/mbedtls/library\aes.c **** 
 522:C:/Workspace/DAVE-4.4.2-64Bit/optiga-trust-m/externals/mbedtls/library\aes.c ****     memset( ctx, 0, sizeof( mbedtls_aes_context ) );
  29              	 .loc 1 522 0
  30 0000 8C22     	 mov r2,#140
 519:C:/Workspace/DAVE-4.4.2-64Bit/optiga-trust-m/externals/mbedtls/library\aes.c ****     AES_VALIDATE( ctx != NULL );
  31              	 .loc 1 519 0
  32 0002 08B5     	 push {r3,lr}
  33              	.LCFI0:
  34              	 .cfi_def_cfa_offset 8
  35              	 .cfi_offset 3,-8
  36              	 .cfi_offset 14,-4
  37              	 .loc 1 522 0
  38 0004 0021     	 mov r1,#0
  39 0006 5200     	 lsl r2,r2,#1
  40 0008 FFF7FEFF 	 bl memset
  41              	.LVL1:
 523:C:/Workspace/DAVE-4.4.2-64Bit/optiga-trust-m/externals/mbedtls/library\aes.c **** }
  42              	 .loc 1 523 0
  43              	 
  44 000c 08BD     	 pop {r3,pc}
  45              	 .cfi_endproc
  46              	.LFE0:
  48              	 .section .text.mbedtls_aes_free,"ax",%progbits
  49              	 .align 1
  50              	 .global mbedtls_aes_free
  51              	 .code 16
  52              	 .thumb_func
  54              	mbedtls_aes_free:
  55              	.LFB1:
 524:C:/Workspace/DAVE-4.4.2-64Bit/optiga-trust-m/externals/mbedtls/library\aes.c **** 
 525:C:/Workspace/DAVE-4.4.2-64Bit/optiga-trust-m/externals/mbedtls/library\aes.c **** void mbedtls_aes_free( mbedtls_aes_context *ctx )
 526:C:/Workspace/DAVE-4.4.2-64Bit/optiga-trust-m/externals/mbedtls/library\aes.c **** {
  56              	 .loc 1 526 0
  57              	 .cfi_startproc
  58              	.LVL2:
  59 0000 08B5     	 push {r3,lr}
  60              	.LCFI1:
  61              	 .cfi_def_cfa_offset 8
  62              	 .cfi_offset 3,-8
  63              	 .cfi_offset 14,-4
 527:C:/Workspace/DAVE-4.4.2-64Bit/optiga-trust-m/externals/mbedtls/library\aes.c ****     if( ctx == NULL )
  64              	 .loc 1 527 0
  65 0002 0028     	 cmp r0,#0
  66 0004 03D0     	 beq .L2
 528:C:/Workspace/DAVE-4.4.2-64Bit/optiga-trust-m/externals/mbedtls/library\aes.c ****         return;
 529:C:/Workspace/DAVE-4.4.2-64Bit/optiga-trust-m/externals/mbedtls/library\aes.c **** 
 530:C:/Workspace/DAVE-4.4.2-64Bit/optiga-trust-m/externals/mbedtls/library\aes.c ****     mbedtls_platform_zeroize( ctx, sizeof( mbedtls_aes_context ) );
  67              	 .loc 1 530 0
  68 0006 8C21     	 mov r1,#140
  69 0008 4900     	 lsl r1,r1,#1
  70 000a FFF7FEFF 	 bl mbedtls_platform_zeroize
  71              	.LVL3:
  72              	.L2:
 531:C:/Workspace/DAVE-4.4.2-64Bit/optiga-trust-m/externals/mbedtls/library\aes.c **** }
  73              	 .loc 1 531 0
  74              	 
  75 000e 08BD     	 pop {r3,pc}
  76              	 .cfi_endproc
  77              	.LFE1:
  79              	 .section .text.mbedtls_aes_setkey_enc,"ax",%progbits
  80              	 .align 1
  81              	 .global mbedtls_aes_setkey_enc
  82              	 .code 16
  83              	 .thumb_func
  85              	mbedtls_aes_setkey_enc:
  86              	.LFB2:
 532:C:/Workspace/DAVE-4.4.2-64Bit/optiga-trust-m/externals/mbedtls/library\aes.c **** 
 533:C:/Workspace/DAVE-4.4.2-64Bit/optiga-trust-m/externals/mbedtls/library\aes.c **** #if defined(MBEDTLS_CIPHER_MODE_XTS)
 534:C:/Workspace/DAVE-4.4.2-64Bit/optiga-trust-m/externals/mbedtls/library\aes.c **** void mbedtls_aes_xts_init( mbedtls_aes_xts_context *ctx )
 535:C:/Workspace/DAVE-4.4.2-64Bit/optiga-trust-m/externals/mbedtls/library\aes.c **** {
 536:C:/Workspace/DAVE-4.4.2-64Bit/optiga-trust-m/externals/mbedtls/library\aes.c ****     AES_VALIDATE( ctx != NULL );
 537:C:/Workspace/DAVE-4.4.2-64Bit/optiga-trust-m/externals/mbedtls/library\aes.c **** 
 538:C:/Workspace/DAVE-4.4.2-64Bit/optiga-trust-m/externals/mbedtls/library\aes.c ****     mbedtls_aes_init( &ctx->crypt );
 539:C:/Workspace/DAVE-4.4.2-64Bit/optiga-trust-m/externals/mbedtls/library\aes.c ****     mbedtls_aes_init( &ctx->tweak );
 540:C:/Workspace/DAVE-4.4.2-64Bit/optiga-trust-m/externals/mbedtls/library\aes.c **** }
 541:C:/Workspace/DAVE-4.4.2-64Bit/optiga-trust-m/externals/mbedtls/library\aes.c **** 
 542:C:/Workspace/DAVE-4.4.2-64Bit/optiga-trust-m/externals/mbedtls/library\aes.c **** void mbedtls_aes_xts_free( mbedtls_aes_xts_context *ctx )
 543:C:/Workspace/DAVE-4.4.2-64Bit/optiga-trust-m/externals/mbedtls/library\aes.c **** {
 544:C:/Workspace/DAVE-4.4.2-64Bit/optiga-trust-m/externals/mbedtls/library\aes.c ****     if( ctx == NULL )
 545:C:/Workspace/DAVE-4.4.2-64Bit/optiga-trust-m/externals/mbedtls/library\aes.c ****         return;
 546:C:/Workspace/DAVE-4.4.2-64Bit/optiga-trust-m/externals/mbedtls/library\aes.c **** 
 547:C:/Workspace/DAVE-4.4.2-64Bit/optiga-trust-m/externals/mbedtls/library\aes.c ****     mbedtls_aes_free( &ctx->crypt );
 548:C:/Workspace/DAVE-4.4.2-64Bit/optiga-trust-m/externals/mbedtls/library\aes.c ****     mbedtls_aes_free( &ctx->tweak );
 549:C:/Workspace/DAVE-4.4.2-64Bit/optiga-trust-m/externals/mbedtls/library\aes.c **** }
 550:C:/Workspace/DAVE-4.4.2-64Bit/optiga-trust-m/externals/mbedtls/library\aes.c **** #endif /* MBEDTLS_CIPHER_MODE_XTS */
 551:C:/Workspace/DAVE-4.4.2-64Bit/optiga-trust-m/externals/mbedtls/library\aes.c **** 
 552:C:/Workspace/DAVE-4.4.2-64Bit/optiga-trust-m/externals/mbedtls/library\aes.c **** /*
 553:C:/Workspace/DAVE-4.4.2-64Bit/optiga-trust-m/externals/mbedtls/library\aes.c ****  * AES key schedule (encryption)
 554:C:/Workspace/DAVE-4.4.2-64Bit/optiga-trust-m/externals/mbedtls/library\aes.c ****  */
 555:C:/Workspace/DAVE-4.4.2-64Bit/optiga-trust-m/externals/mbedtls/library\aes.c **** #if !defined(MBEDTLS_AES_SETKEY_ENC_ALT)
 556:C:/Workspace/DAVE-4.4.2-64Bit/optiga-trust-m/externals/mbedtls/library\aes.c **** int mbedtls_aes_setkey_enc( mbedtls_aes_context *ctx, const unsigned char *key,
 557:C:/Workspace/DAVE-4.4.2-64Bit/optiga-trust-m/externals/mbedtls/library\aes.c ****                     unsigned int keybits )
 558:C:/Workspace/DAVE-4.4.2-64Bit/optiga-trust-m/externals/mbedtls/library\aes.c **** {
  87              	 .loc 1 558 0
  88              	 .cfi_startproc
  89              	.LVL4:
  90 0000 F7B5     	 push {r0,r1,r2,r4,r5,r6,r7,lr}
  91              	.LCFI2:
  92              	 .cfi_def_cfa_offset 32
  93              	 .cfi_offset 0,-32
  94              	 .cfi_offset 1,-28
  95              	 .cfi_offset 2,-24
  96              	 .cfi_offset 4,-20
  97              	 .cfi_offset 5,-16
  98              	 .cfi_offset 6,-12
  99              	 .cfi_offset 7,-8
 100              	 .cfi_offset 14,-4
 559:C:/Workspace/DAVE-4.4.2-64Bit/optiga-trust-m/externals/mbedtls/library\aes.c ****     unsigned int i;
 560:C:/Workspace/DAVE-4.4.2-64Bit/optiga-trust-m/externals/mbedtls/library\aes.c ****     uint32_t *RK;
 561:C:/Workspace/DAVE-4.4.2-64Bit/optiga-trust-m/externals/mbedtls/library\aes.c **** 
 562:C:/Workspace/DAVE-4.4.2-64Bit/optiga-trust-m/externals/mbedtls/library\aes.c ****     AES_VALIDATE_RET( ctx != NULL );
 563:C:/Workspace/DAVE-4.4.2-64Bit/optiga-trust-m/externals/mbedtls/library\aes.c ****     AES_VALIDATE_RET( key != NULL );
 564:C:/Workspace/DAVE-4.4.2-64Bit/optiga-trust-m/externals/mbedtls/library\aes.c **** 
 565:C:/Workspace/DAVE-4.4.2-64Bit/optiga-trust-m/externals/mbedtls/library\aes.c ****     switch( keybits )
 101              	 .loc 1 565 0
 102 0002 C02A     	 cmp r2,#192
 103 0004 08D0     	 beq .L10
 104 0006 8023     	 mov r3,#128
 105 0008 5B00     	 lsl r3,r3,#1
 106 000a 9A42     	 cmp r2,r3
 107 000c 06D0     	 beq .L11
 566:C:/Workspace/DAVE-4.4.2-64Bit/optiga-trust-m/externals/mbedtls/library\aes.c ****     {
 567:C:/Workspace/DAVE-4.4.2-64Bit/optiga-trust-m/externals/mbedtls/library\aes.c ****         case 128: ctx->nr = 10; break;
 108              	 .loc 1 567 0
 109 000e F63B     	 sub r3,r3,#246
 565:C:/Workspace/DAVE-4.4.2-64Bit/optiga-trust-m/externals/mbedtls/library\aes.c ****     {
 110              	 .loc 1 565 0
 111 0010 802A     	 cmp r2,#128
 112 0012 00D0     	 beq .LCB71
 113 0014 C5E0     	 b .L28
 114              	.LCB71:
 115 0016 02E0     	 b .L27
 116              	.L10:
 568:C:/Workspace/DAVE-4.4.2-64Bit/optiga-trust-m/externals/mbedtls/library\aes.c ****         case 192: ctx->nr = 12; break;
 117              	 .loc 1 568 0
 118 0018 0C23     	 mov r3,#12
 119 001a 00E0     	 b .L27
 120              	.L11:
 569:C:/Workspace/DAVE-4.4.2-64Bit/optiga-trust-m/externals/mbedtls/library\aes.c ****         case 256: ctx->nr = 14; break;
 121              	 .loc 1 569 0
 122 001c 0E23     	 mov r3,#14
 123              	.L27:
 124 001e 0360     	 str r3,[r0]
 570:C:/Workspace/DAVE-4.4.2-64Bit/optiga-trust-m/externals/mbedtls/library\aes.c ****         default : return( MBEDTLS_ERR_AES_INVALID_KEY_LENGTH );
 571:C:/Workspace/DAVE-4.4.2-64Bit/optiga-trust-m/externals/mbedtls/library\aes.c ****     }
 572:C:/Workspace/DAVE-4.4.2-64Bit/optiga-trust-m/externals/mbedtls/library\aes.c **** 
 573:C:/Workspace/DAVE-4.4.2-64Bit/optiga-trust-m/externals/mbedtls/library\aes.c **** #if !defined(MBEDTLS_AES_ROM_TABLES)
 574:C:/Workspace/DAVE-4.4.2-64Bit/optiga-trust-m/externals/mbedtls/library\aes.c ****     if( aes_init_done == 0 )
 575:C:/Workspace/DAVE-4.4.2-64Bit/optiga-trust-m/externals/mbedtls/library\aes.c ****     {
 576:C:/Workspace/DAVE-4.4.2-64Bit/optiga-trust-m/externals/mbedtls/library\aes.c ****         aes_gen_tables();
 577:C:/Workspace/DAVE-4.4.2-64Bit/optiga-trust-m/externals/mbedtls/library\aes.c ****         aes_init_done = 1;
 578:C:/Workspace/DAVE-4.4.2-64Bit/optiga-trust-m/externals/mbedtls/library\aes.c ****     }
 579:C:/Workspace/DAVE-4.4.2-64Bit/optiga-trust-m/externals/mbedtls/library\aes.c **** #endif
 580:C:/Workspace/DAVE-4.4.2-64Bit/optiga-trust-m/externals/mbedtls/library\aes.c **** 
 581:C:/Workspace/DAVE-4.4.2-64Bit/optiga-trust-m/externals/mbedtls/library\aes.c **** #if defined(MBEDTLS_PADLOCK_C) && defined(MBEDTLS_PADLOCK_ALIGN16)
 582:C:/Workspace/DAVE-4.4.2-64Bit/optiga-trust-m/externals/mbedtls/library\aes.c ****     if( aes_padlock_ace == -1 )
 583:C:/Workspace/DAVE-4.4.2-64Bit/optiga-trust-m/externals/mbedtls/library\aes.c ****         aes_padlock_ace = mbedtls_padlock_has_support( MBEDTLS_PADLOCK_ACE );
 584:C:/Workspace/DAVE-4.4.2-64Bit/optiga-trust-m/externals/mbedtls/library\aes.c **** 
 585:C:/Workspace/DAVE-4.4.2-64Bit/optiga-trust-m/externals/mbedtls/library\aes.c ****     if( aes_padlock_ace )
 586:C:/Workspace/DAVE-4.4.2-64Bit/optiga-trust-m/externals/mbedtls/library\aes.c ****         ctx->rk = RK = MBEDTLS_PADLOCK_ALIGN16( ctx->buf );
 587:C:/Workspace/DAVE-4.4.2-64Bit/optiga-trust-m/externals/mbedtls/library\aes.c ****     else
 588:C:/Workspace/DAVE-4.4.2-64Bit/optiga-trust-m/externals/mbedtls/library\aes.c **** #endif
 589:C:/Workspace/DAVE-4.4.2-64Bit/optiga-trust-m/externals/mbedtls/library\aes.c ****     ctx->rk = RK = ctx->buf;
 125              	 .loc 1 589 0
 126 0020 031C     	 mov r3,r0
 590:C:/Workspace/DAVE-4.4.2-64Bit/optiga-trust-m/externals/mbedtls/library\aes.c **** 
 591:C:/Workspace/DAVE-4.4.2-64Bit/optiga-trust-m/externals/mbedtls/library\aes.c **** #if defined(MBEDTLS_AESNI_C) && defined(MBEDTLS_HAVE_X86_64)
 592:C:/Workspace/DAVE-4.4.2-64Bit/optiga-trust-m/externals/mbedtls/library\aes.c ****     if( mbedtls_aesni_has_support( MBEDTLS_AESNI_AES ) )
 593:C:/Workspace/DAVE-4.4.2-64Bit/optiga-trust-m/externals/mbedtls/library\aes.c ****         return( mbedtls_aesni_setkey_enc( (unsigned char *) ctx->rk, key, keybits ) );
 594:C:/Workspace/DAVE-4.4.2-64Bit/optiga-trust-m/externals/mbedtls/library\aes.c **** #endif
 595:C:/Workspace/DAVE-4.4.2-64Bit/optiga-trust-m/externals/mbedtls/library\aes.c **** 
 596:C:/Workspace/DAVE-4.4.2-64Bit/optiga-trust-m/externals/mbedtls/library\aes.c ****     for( i = 0; i < ( keybits >> 5 ); i++ )
 127              	 .loc 1 596 0
 128 0022 0026     	 mov r6,#0
 589:C:/Workspace/DAVE-4.4.2-64Bit/optiga-trust-m/externals/mbedtls/library\aes.c **** 
 129              	 .loc 1 589 0
 130 0024 0833     	 add r3,r3,#8
 131              	.LVL5:
 132              	 .loc 1 596 0
 133 0026 5209     	 lsr r2,r2,#5
 134              	.LVL6:
 589:C:/Workspace/DAVE-4.4.2-64Bit/optiga-trust-m/externals/mbedtls/library\aes.c **** 
 135              	 .loc 1 589 0
 136 0028 4360     	 str r3,[r0,#4]
 137              	.LVL7:
 138              	 .loc 1 596 0
 139 002a 0192     	 str r2,[sp,#4]
 140              	.LVL8:
 141              	.L14:
 142              	 .loc 1 596 0 is_stmt 0 discriminator 1
 143 002c 019A     	 ldr r2,[sp,#4]
 144 002e 9642     	 cmp r6,r2
 145 0030 10D0     	 beq .L29
 597:C:/Workspace/DAVE-4.4.2-64Bit/optiga-trust-m/externals/mbedtls/library\aes.c ****     {
 598:C:/Workspace/DAVE-4.4.2-64Bit/optiga-trust-m/externals/mbedtls/library\aes.c ****         GET_UINT32_LE( RK[i], key, i << 2 );
 146              	 .loc 1 598 0 is_stmt 1 discriminator 3
 147 0032 B700     	 lsl r7,r6,#2
 148 0034 CD19     	 add r5,r1,r7
 149 0036 6C78     	 ldrb r4,[r5,#1]
 596:C:/Workspace/DAVE-4.4.2-64Bit/optiga-trust-m/externals/mbedtls/library\aes.c ****     {
 150              	 .loc 1 596 0 discriminator 3
 151 0038 0136     	 add r6,r6,#1
 152              	.LVL9:
 153              	 .loc 1 598 0 discriminator 3
 154 003a 2402     	 lsl r4,r4,#8
 155 003c A446     	 mov ip,r4
 156 003e 6246     	 mov r2,ip
 157 0040 AC78     	 ldrb r4,[r5,#2]
 158 0042 ED78     	 ldrb r5,[r5,#3]
 159 0044 2404     	 lsl r4,r4,#16
 160 0046 1443     	 orr r4,r2
 161 0048 CA5D     	 ldrb r2,[r1,r7]
 162 004a 2D06     	 lsl r5,r5,#24
 163 004c 1443     	 orr r4,r2
 164 004e 2C43     	 orr r4,r5
 165 0050 DC51     	 str r4,[r3,r7]
 166 0052 EBE7     	 b .L14
 167              	.L29:
 599:C:/Workspace/DAVE-4.4.2-64Bit/optiga-trust-m/externals/mbedtls/library\aes.c ****     }
 600:C:/Workspace/DAVE-4.4.2-64Bit/optiga-trust-m/externals/mbedtls/library\aes.c **** 
 601:C:/Workspace/DAVE-4.4.2-64Bit/optiga-trust-m/externals/mbedtls/library\aes.c ****     switch( ctx->nr )
 168              	 .loc 1 601 0
 169 0054 0268     	 ldr r2,[r0]
 170 0056 0C2A     	 cmp r2,#12
 171 0058 2DD0     	 beq .L16
 172 005a 0E2A     	 cmp r2,#14
 173 005c 5AD0     	 beq .L17
 174 005e 0A2A     	 cmp r2,#10
 175 0060 00D0     	 beq .LCB132
 176 0062 A1E0     	 b .L26
 177              	.LCB132:
 178              	 .loc 1 601 0 is_stmt 0 discriminator 3
 179 0064 0024     	 mov r4,#0
 180              	.LVL10:
 181              	.L19:
 602:C:/Workspace/DAVE-4.4.2-64Bit/optiga-trust-m/externals/mbedtls/library\aes.c ****     {
 603:C:/Workspace/DAVE-4.4.2-64Bit/optiga-trust-m/externals/mbedtls/library\aes.c ****         case 10:
 604:C:/Workspace/DAVE-4.4.2-64Bit/optiga-trust-m/externals/mbedtls/library\aes.c **** 
 605:C:/Workspace/DAVE-4.4.2-64Bit/optiga-trust-m/externals/mbedtls/library\aes.c ****             for( i = 0; i < 10; i++, RK += 4 )
 606:C:/Workspace/DAVE-4.4.2-64Bit/optiga-trust-m/externals/mbedtls/library\aes.c ****             {
 607:C:/Workspace/DAVE-4.4.2-64Bit/optiga-trust-m/externals/mbedtls/library\aes.c ****                 RK[4]  = RK[0] ^ RCON[i] ^
 182              	 .loc 1 607 0 is_stmt 1 discriminator 3
 183 0066 5149     	 ldr r1,.L30
 184 0068 1868     	 ldr r0,[r3]
 185 006a 6158     	 ldr r1,[r4,r1]
 608:C:/Workspace/DAVE-4.4.2-64Bit/optiga-trust-m/externals/mbedtls/library\aes.c ****                 ( (uint32_t) FSb[ ( RK[3] >>  8 ) & 0xFF ]       ) ^
 186              	 .loc 1 608 0 discriminator 3
 187 006c DA68     	 ldr r2,[r3,#12]
 188 006e 4140     	 eor r1,r0
 189 0070 FF20     	 mov r0,#255
 190 0072 4F4F     	 ldr r7,.L30+4
 191 0074 150A     	 lsr r5,r2,#8
 192 0076 0540     	 and r5,r0
 193 0078 7E5D     	 ldrb r6,[r7,r5]
 609:C:/Workspace/DAVE-4.4.2-64Bit/optiga-trust-m/externals/mbedtls/library\aes.c ****                 ( (uint32_t) FSb[ ( RK[3] >> 16 ) & 0xFF ] <<  8 ) ^
 610:C:/Workspace/DAVE-4.4.2-64Bit/optiga-trust-m/externals/mbedtls/library\aes.c ****                 ( (uint32_t) FSb[ ( RK[3] >> 24 ) & 0xFF ] << 16 ) ^
 194              	 .loc 1 610 0 discriminator 3
 195 007a 150E     	 lsr r5,r2,#24
 196 007c 7140     	 eor r1,r6
 197 007e 7E5D     	 ldrb r6,[r7,r5]
 198 0080 0434     	 add r4,r4,#4
 199 0082 3604     	 lsl r6,r6,#16
 200 0084 7140     	 eor r1,r6
 201 0086 0D1C     	 mov r5,r1
 611:C:/Workspace/DAVE-4.4.2-64Bit/optiga-trust-m/externals/mbedtls/library\aes.c ****                 ( (uint32_t) FSb[ ( RK[3]       ) & 0xFF ] << 24 );
 202              	 .loc 1 611 0 discriminator 3
 203 0088 111C     	 mov r1,r2
 204 008a 0140     	 and r1,r0
 205 008c 795C     	 ldrb r1,[r7,r1]
 206 008e 0906     	 lsl r1,r1,#24
 207 0090 6940     	 eor r1,r5
 609:C:/Workspace/DAVE-4.4.2-64Bit/optiga-trust-m/externals/mbedtls/library\aes.c ****                 ( (uint32_t) FSb[ ( RK[3] >> 16 ) & 0xFF ] <<  8 ) ^
 208              	 .loc 1 609 0 discriminator 3
 209 0092 150C     	 lsr r5,r2,#16
 210 0094 2840     	 and r0,r5
 211 0096 385C     	 ldrb r0,[r7,r0]
 212 0098 0002     	 lsl r0,r0,#8
 610:C:/Workspace/DAVE-4.4.2-64Bit/optiga-trust-m/externals/mbedtls/library\aes.c ****                 ( (uint32_t) FSb[ ( RK[3]       ) & 0xFF ] << 24 );
 213              	 .loc 1 610 0 discriminator 3
 214 009a 4140     	 eor r1,r0
 612:C:/Workspace/DAVE-4.4.2-64Bit/optiga-trust-m/externals/mbedtls/library\aes.c **** 
 613:C:/Workspace/DAVE-4.4.2-64Bit/optiga-trust-m/externals/mbedtls/library\aes.c ****                 RK[5]  = RK[1] ^ RK[4];
 215              	 .loc 1 613 0 discriminator 3
 216 009c 5868     	 ldr r0,[r3,#4]
 607:C:/Workspace/DAVE-4.4.2-64Bit/optiga-trust-m/externals/mbedtls/library\aes.c ****                 ( (uint32_t) FSb[ ( RK[3] >>  8 ) & 0xFF ]       ) ^
 217              	 .loc 1 607 0 discriminator 3
 218 009e 1961     	 str r1,[r3,#16]
 219              	 .loc 1 613 0 discriminator 3
 220 00a0 4140     	 eor r1,r0
 614:C:/Workspace/DAVE-4.4.2-64Bit/optiga-trust-m/externals/mbedtls/library\aes.c ****                 RK[6]  = RK[2] ^ RK[5];
 221              	 .loc 1 614 0 discriminator 3
 222 00a2 9868     	 ldr r0,[r3,#8]
 613:C:/Workspace/DAVE-4.4.2-64Bit/optiga-trust-m/externals/mbedtls/library\aes.c ****                 RK[6]  = RK[2] ^ RK[5];
 223              	 .loc 1 613 0 discriminator 3
 224 00a4 5961     	 str r1,[r3,#20]
 225              	 .loc 1 614 0 discriminator 3
 226 00a6 4140     	 eor r1,r0
 615:C:/Workspace/DAVE-4.4.2-64Bit/optiga-trust-m/externals/mbedtls/library\aes.c ****                 RK[7]  = RK[3] ^ RK[6];
 227              	 .loc 1 615 0 discriminator 3
 228 00a8 4A40     	 eor r2,r1
 614:C:/Workspace/DAVE-4.4.2-64Bit/optiga-trust-m/externals/mbedtls/library\aes.c ****                 RK[6]  = RK[2] ^ RK[5];
 229              	 .loc 1 614 0 discriminator 3
 230 00aa 9961     	 str r1,[r3,#24]
 231              	 .loc 1 615 0 discriminator 3
 232 00ac DA61     	 str r2,[r3,#28]
 605:C:/Workspace/DAVE-4.4.2-64Bit/optiga-trust-m/externals/mbedtls/library\aes.c ****             {
 233              	 .loc 1 605 0 discriminator 3
 234 00ae 1033     	 add r3,r3,#16
 235              	.LVL11:
 236 00b0 282C     	 cmp r4,#40
 237 00b2 D8D1     	 bne .L19
 238 00b4 78E0     	 b .L26
 239              	.LVL12:
 240              	.L16:
 601:C:/Workspace/DAVE-4.4.2-64Bit/optiga-trust-m/externals/mbedtls/library\aes.c ****     {
 241              	 .loc 1 601 0 discriminator 3
 242 00b6 0024     	 mov r4,#0
 243              	.LVL13:
 244              	.L20:
 616:C:/Workspace/DAVE-4.4.2-64Bit/optiga-trust-m/externals/mbedtls/library\aes.c ****             }
 617:C:/Workspace/DAVE-4.4.2-64Bit/optiga-trust-m/externals/mbedtls/library\aes.c ****             break;
 618:C:/Workspace/DAVE-4.4.2-64Bit/optiga-trust-m/externals/mbedtls/library\aes.c **** 
 619:C:/Workspace/DAVE-4.4.2-64Bit/optiga-trust-m/externals/mbedtls/library\aes.c ****         case 12:
 620:C:/Workspace/DAVE-4.4.2-64Bit/optiga-trust-m/externals/mbedtls/library\aes.c **** 
 621:C:/Workspace/DAVE-4.4.2-64Bit/optiga-trust-m/externals/mbedtls/library\aes.c ****             for( i = 0; i < 8; i++, RK += 6 )
 622:C:/Workspace/DAVE-4.4.2-64Bit/optiga-trust-m/externals/mbedtls/library\aes.c ****             {
 623:C:/Workspace/DAVE-4.4.2-64Bit/optiga-trust-m/externals/mbedtls/library\aes.c ****                 RK[6]  = RK[0] ^ RCON[i] ^
 245              	 .loc 1 623 0 discriminator 3
 246 00b8 3C49     	 ldr r1,.L30
 247 00ba 1868     	 ldr r0,[r3]
 248 00bc 6158     	 ldr r1,[r4,r1]
 624:C:/Workspace/DAVE-4.4.2-64Bit/optiga-trust-m/externals/mbedtls/library\aes.c ****                 ( (uint32_t) FSb[ ( RK[5] >>  8 ) & 0xFF ]       ) ^
 249              	 .loc 1 624 0 discriminator 3
 250 00be 5A69     	 ldr r2,[r3,#20]
 251 00c0 4140     	 eor r1,r0
 252 00c2 FF20     	 mov r0,#255
 253 00c4 3A4F     	 ldr r7,.L30+4
 254 00c6 150A     	 lsr r5,r2,#8
 255 00c8 0540     	 and r5,r0
 256 00ca 7E5D     	 ldrb r6,[r7,r5]
 625:C:/Workspace/DAVE-4.4.2-64Bit/optiga-trust-m/externals/mbedtls/library\aes.c ****                 ( (uint32_t) FSb[ ( RK[5] >> 16 ) & 0xFF ] <<  8 ) ^
 626:C:/Workspace/DAVE-4.4.2-64Bit/optiga-trust-m/externals/mbedtls/library\aes.c ****                 ( (uint32_t) FSb[ ( RK[5] >> 24 ) & 0xFF ] << 16 ) ^
 257              	 .loc 1 626 0 discriminator 3
 258 00cc 150E     	 lsr r5,r2,#24
 259 00ce 7140     	 eor r1,r6
 260 00d0 7E5D     	 ldrb r6,[r7,r5]
 261 00d2 0434     	 add r4,r4,#4
 262 00d4 3604     	 lsl r6,r6,#16
 263 00d6 7140     	 eor r1,r6
 264 00d8 0D1C     	 mov r5,r1
 627:C:/Workspace/DAVE-4.4.2-64Bit/optiga-trust-m/externals/mbedtls/library\aes.c ****                 ( (uint32_t) FSb[ ( RK[5]       ) & 0xFF ] << 24 );
 265              	 .loc 1 627 0 discriminator 3
 266 00da 111C     	 mov r1,r2
 267 00dc 0140     	 and r1,r0
 268 00de 795C     	 ldrb r1,[r7,r1]
 269 00e0 0906     	 lsl r1,r1,#24
 270 00e2 6940     	 eor r1,r5
 625:C:/Workspace/DAVE-4.4.2-64Bit/optiga-trust-m/externals/mbedtls/library\aes.c ****                 ( (uint32_t) FSb[ ( RK[5] >> 16 ) & 0xFF ] <<  8 ) ^
 271              	 .loc 1 625 0 discriminator 3
 272 00e4 150C     	 lsr r5,r2,#16
 273 00e6 2840     	 and r0,r5
 274 00e8 385C     	 ldrb r0,[r7,r0]
 275 00ea 0002     	 lsl r0,r0,#8
 626:C:/Workspace/DAVE-4.4.2-64Bit/optiga-trust-m/externals/mbedtls/library\aes.c ****                 ( (uint32_t) FSb[ ( RK[5]       ) & 0xFF ] << 24 );
 276              	 .loc 1 626 0 discriminator 3
 277 00ec 4140     	 eor r1,r0
 628:C:/Workspace/DAVE-4.4.2-64Bit/optiga-trust-m/externals/mbedtls/library\aes.c **** 
 629:C:/Workspace/DAVE-4.4.2-64Bit/optiga-trust-m/externals/mbedtls/library\aes.c ****                 RK[7]  = RK[1] ^ RK[6];
 278              	 .loc 1 629 0 discriminator 3
 279 00ee 5868     	 ldr r0,[r3,#4]
 623:C:/Workspace/DAVE-4.4.2-64Bit/optiga-trust-m/externals/mbedtls/library\aes.c ****                 ( (uint32_t) FSb[ ( RK[5] >>  8 ) & 0xFF ]       ) ^
 280              	 .loc 1 623 0 discriminator 3
 281 00f0 9961     	 str r1,[r3,#24]
 282              	 .loc 1 629 0 discriminator 3
 283 00f2 4140     	 eor r1,r0
 630:C:/Workspace/DAVE-4.4.2-64Bit/optiga-trust-m/externals/mbedtls/library\aes.c ****                 RK[8]  = RK[2] ^ RK[7];
 284              	 .loc 1 630 0 discriminator 3
 285 00f4 9868     	 ldr r0,[r3,#8]
 629:C:/Workspace/DAVE-4.4.2-64Bit/optiga-trust-m/externals/mbedtls/library\aes.c ****                 RK[8]  = RK[2] ^ RK[7];
 286              	 .loc 1 629 0 discriminator 3
 287 00f6 D961     	 str r1,[r3,#28]
 288              	 .loc 1 630 0 discriminator 3
 289 00f8 4140     	 eor r1,r0
 631:C:/Workspace/DAVE-4.4.2-64Bit/optiga-trust-m/externals/mbedtls/library\aes.c ****                 RK[9]  = RK[3] ^ RK[8];
 290              	 .loc 1 631 0 discriminator 3
 291 00fa D868     	 ldr r0,[r3,#12]
 630:C:/Workspace/DAVE-4.4.2-64Bit/optiga-trust-m/externals/mbedtls/library\aes.c ****                 RK[8]  = RK[2] ^ RK[7];
 292              	 .loc 1 630 0 discriminator 3
 293 00fc 1962     	 str r1,[r3,#32]
 294              	 .loc 1 631 0 discriminator 3
 295 00fe 4140     	 eor r1,r0
 632:C:/Workspace/DAVE-4.4.2-64Bit/optiga-trust-m/externals/mbedtls/library\aes.c ****                 RK[10] = RK[4] ^ RK[9];
 296              	 .loc 1 632 0 discriminator 3
 297 0100 1869     	 ldr r0,[r3,#16]
 631:C:/Workspace/DAVE-4.4.2-64Bit/optiga-trust-m/externals/mbedtls/library\aes.c ****                 RK[9]  = RK[3] ^ RK[8];
 298              	 .loc 1 631 0 discriminator 3
 299 0102 5962     	 str r1,[r3,#36]
 300              	 .loc 1 632 0 discriminator 3
 301 0104 4140     	 eor r1,r0
 633:C:/Workspace/DAVE-4.4.2-64Bit/optiga-trust-m/externals/mbedtls/library\aes.c ****                 RK[11] = RK[5] ^ RK[10];
 302              	 .loc 1 633 0 discriminator 3
 303 0106 4A40     	 eor r2,r1
 632:C:/Workspace/DAVE-4.4.2-64Bit/optiga-trust-m/externals/mbedtls/library\aes.c ****                 RK[10] = RK[4] ^ RK[9];
 304              	 .loc 1 632 0 discriminator 3
 305 0108 9962     	 str r1,[r3,#40]
 306              	 .loc 1 633 0 discriminator 3
 307 010a DA62     	 str r2,[r3,#44]
 621:C:/Workspace/DAVE-4.4.2-64Bit/optiga-trust-m/externals/mbedtls/library\aes.c ****             {
 308              	 .loc 1 621 0 discriminator 3
 309 010c 1833     	 add r3,r3,#24
 310              	.LVL14:
 311 010e 202C     	 cmp r4,#32
 312 0110 D2D1     	 bne .L20
 313 0112 49E0     	 b .L26
 314              	.LVL15:
 315              	.L17:
 601:C:/Workspace/DAVE-4.4.2-64Bit/optiga-trust-m/externals/mbedtls/library\aes.c ****     {
 316              	 .loc 1 601 0 discriminator 3
 317 0114 0026     	 mov r6,#0
 318              	.LVL16:
 319              	.L22:
 634:C:/Workspace/DAVE-4.4.2-64Bit/optiga-trust-m/externals/mbedtls/library\aes.c ****             }
 635:C:/Workspace/DAVE-4.4.2-64Bit/optiga-trust-m/externals/mbedtls/library\aes.c ****             break;
 636:C:/Workspace/DAVE-4.4.2-64Bit/optiga-trust-m/externals/mbedtls/library\aes.c **** 
 637:C:/Workspace/DAVE-4.4.2-64Bit/optiga-trust-m/externals/mbedtls/library\aes.c ****         case 14:
 638:C:/Workspace/DAVE-4.4.2-64Bit/optiga-trust-m/externals/mbedtls/library\aes.c **** 
 639:C:/Workspace/DAVE-4.4.2-64Bit/optiga-trust-m/externals/mbedtls/library\aes.c ****             for( i = 0; i < 7; i++, RK += 8 )
 640:C:/Workspace/DAVE-4.4.2-64Bit/optiga-trust-m/externals/mbedtls/library\aes.c ****             {
 641:C:/Workspace/DAVE-4.4.2-64Bit/optiga-trust-m/externals/mbedtls/library\aes.c ****                 RK[8]  = RK[0] ^ RCON[i] ^
 642:C:/Workspace/DAVE-4.4.2-64Bit/optiga-trust-m/externals/mbedtls/library\aes.c ****                 ( (uint32_t) FSb[ ( RK[7] >>  8 ) & 0xFF ]       ) ^
 320              	 .loc 1 642 0 discriminator 3
 321 0116 FF20     	 mov r0,#255
 641:C:/Workspace/DAVE-4.4.2-64Bit/optiga-trust-m/externals/mbedtls/library\aes.c ****                 ( (uint32_t) FSb[ ( RK[7] >>  8 ) & 0xFF ]       ) ^
 322              	 .loc 1 641 0 discriminator 3
 323 0118 244A     	 ldr r2,.L30
 324              	 .loc 1 642 0 discriminator 3
 325 011a DD69     	 ldr r5,[r3,#28]
 326 011c 1968     	 ldr r1,[r3]
 327 011e B258     	 ldr r2,[r6,r2]
 328 0120 234C     	 ldr r4,.L30+4
 329 0122 4A40     	 eor r2,r1
 330 0124 290A     	 lsr r1,r5,#8
 331 0126 0140     	 and r1,r0
 332 0128 675C     	 ldrb r7,[r4,r1]
 643:C:/Workspace/DAVE-4.4.2-64Bit/optiga-trust-m/externals/mbedtls/library\aes.c ****                 ( (uint32_t) FSb[ ( RK[7] >> 16 ) & 0xFF ] <<  8 ) ^
 644:C:/Workspace/DAVE-4.4.2-64Bit/optiga-trust-m/externals/mbedtls/library\aes.c ****                 ( (uint32_t) FSb[ ( RK[7] >> 24 ) & 0xFF ] << 16 ) ^
 333              	 .loc 1 644 0 discriminator 3
 334 012a 290E     	 lsr r1,r5,#24
 335 012c 7A40     	 eor r2,r7
 336 012e 675C     	 ldrb r7,[r4,r1]
 337 0130 0436     	 add r6,r6,#4
 338 0132 3F04     	 lsl r7,r7,#16
 339 0134 7A40     	 eor r2,r7
 340 0136 111C     	 mov r1,r2
 645:C:/Workspace/DAVE-4.4.2-64Bit/optiga-trust-m/externals/mbedtls/library\aes.c ****                 ( (uint32_t) FSb[ ( RK[7]       ) & 0xFF ] << 24 );
 341              	 .loc 1 645 0 discriminator 3
 342 0138 2A1C     	 mov r2,r5
 343 013a 0240     	 and r2,r0
 344 013c A25C     	 ldrb r2,[r4,r2]
 345 013e 1206     	 lsl r2,r2,#24
 346 0140 4A40     	 eor r2,r1
 643:C:/Workspace/DAVE-4.4.2-64Bit/optiga-trust-m/externals/mbedtls/library\aes.c ****                 ( (uint32_t) FSb[ ( RK[7] >> 16 ) & 0xFF ] <<  8 ) ^
 347              	 .loc 1 643 0 discriminator 3
 348 0142 290C     	 lsr r1,r5,#16
 349 0144 0140     	 and r1,r0
 350 0146 615C     	 ldrb r1,[r4,r1]
 351 0148 0902     	 lsl r1,r1,#8
 644:C:/Workspace/DAVE-4.4.2-64Bit/optiga-trust-m/externals/mbedtls/library\aes.c ****                 ( (uint32_t) FSb[ ( RK[7]       ) & 0xFF ] << 24 );
 352              	 .loc 1 644 0 discriminator 3
 353 014a 4A40     	 eor r2,r1
 646:C:/Workspace/DAVE-4.4.2-64Bit/optiga-trust-m/externals/mbedtls/library\aes.c **** 
 647:C:/Workspace/DAVE-4.4.2-64Bit/optiga-trust-m/externals/mbedtls/library\aes.c ****                 RK[9]  = RK[1] ^ RK[8];
 354              	 .loc 1 647 0 discriminator 3
 355 014c 5968     	 ldr r1,[r3,#4]
 641:C:/Workspace/DAVE-4.4.2-64Bit/optiga-trust-m/externals/mbedtls/library\aes.c ****                 ( (uint32_t) FSb[ ( RK[7] >>  8 ) & 0xFF ]       ) ^
 356              	 .loc 1 641 0 discriminator 3
 357 014e 1A62     	 str r2,[r3,#32]
 358              	 .loc 1 647 0 discriminator 3
 359 0150 4A40     	 eor r2,r1
 648:C:/Workspace/DAVE-4.4.2-64Bit/optiga-trust-m/externals/mbedtls/library\aes.c ****                 RK[10] = RK[2] ^ RK[9];
 360              	 .loc 1 648 0 discriminator 3
 361 0152 9968     	 ldr r1,[r3,#8]
 647:C:/Workspace/DAVE-4.4.2-64Bit/optiga-trust-m/externals/mbedtls/library\aes.c ****                 RK[10] = RK[2] ^ RK[9];
 362              	 .loc 1 647 0 discriminator 3
 363 0154 5A62     	 str r2,[r3,#36]
 364              	 .loc 1 648 0 discriminator 3
 365 0156 4A40     	 eor r2,r1
 649:C:/Workspace/DAVE-4.4.2-64Bit/optiga-trust-m/externals/mbedtls/library\aes.c ****                 RK[11] = RK[3] ^ RK[10];
 366              	 .loc 1 649 0 discriminator 3
 367 0158 D968     	 ldr r1,[r3,#12]
 648:C:/Workspace/DAVE-4.4.2-64Bit/optiga-trust-m/externals/mbedtls/library\aes.c ****                 RK[10] = RK[2] ^ RK[9];
 368              	 .loc 1 648 0 discriminator 3
 369 015a 9A62     	 str r2,[r3,#40]
 370              	 .loc 1 649 0 discriminator 3
 371 015c 4A40     	 eor r2,r1
 650:C:/Workspace/DAVE-4.4.2-64Bit/optiga-trust-m/externals/mbedtls/library\aes.c **** 
 651:C:/Workspace/DAVE-4.4.2-64Bit/optiga-trust-m/externals/mbedtls/library\aes.c ****                 RK[12] = RK[4] ^
 652:C:/Workspace/DAVE-4.4.2-64Bit/optiga-trust-m/externals/mbedtls/library\aes.c ****                 ( (uint32_t) FSb[ ( RK[11]       ) & 0xFF ]       ) ^
 372              	 .loc 1 652 0 discriminator 3
 373 015e 111C     	 mov r1,r2
 374 0160 0140     	 and r1,r0
 375 0162 675C     	 ldrb r7,[r4,r1]
 376 0164 1969     	 ldr r1,[r3,#16]
 649:C:/Workspace/DAVE-4.4.2-64Bit/optiga-trust-m/externals/mbedtls/library\aes.c ****                 RK[11] = RK[3] ^ RK[10];
 377              	 .loc 1 649 0 discriminator 3
 378 0166 DA62     	 str r2,[r3,#44]
 379 0168 4F40     	 eor r7,r1
 653:C:/Workspace/DAVE-4.4.2-64Bit/optiga-trust-m/externals/mbedtls/library\aes.c ****                 ( (uint32_t) FSb[ ( RK[11] >>  8 ) & 0xFF ] <<  8 ) ^
 654:C:/Workspace/DAVE-4.4.2-64Bit/optiga-trust-m/externals/mbedtls/library\aes.c ****                 ( (uint32_t) FSb[ ( RK[11] >> 16 ) & 0xFF ] << 16 ) ^
 655:C:/Workspace/DAVE-4.4.2-64Bit/optiga-trust-m/externals/mbedtls/library\aes.c ****                 ( (uint32_t) FSb[ ( RK[11] >> 24 ) & 0xFF ] << 24 );
 380              	 .loc 1 655 0 discriminator 3
 381 016a 110E     	 lsr r1,r2,#24
 382 016c 615C     	 ldrb r1,[r4,r1]
 383 016e 0906     	 lsl r1,r1,#24
 384 0170 7940     	 eor r1,r7
 653:C:/Workspace/DAVE-4.4.2-64Bit/optiga-trust-m/externals/mbedtls/library\aes.c ****                 ( (uint32_t) FSb[ ( RK[11] >>  8 ) & 0xFF ] <<  8 ) ^
 385              	 .loc 1 653 0 discriminator 3
 386 0172 170A     	 lsr r7,r2,#8
 387 0174 0740     	 and r7,r0
 388 0176 E75D     	 ldrb r7,[r4,r7]
 389 0178 3F02     	 lsl r7,r7,#8
 390 017a 4F40     	 eor r7,r1
 654:C:/Workspace/DAVE-4.4.2-64Bit/optiga-trust-m/externals/mbedtls/library\aes.c ****                 ( (uint32_t) FSb[ ( RK[11] >> 24 ) & 0xFF ] << 24 );
 391              	 .loc 1 654 0 discriminator 3
 392 017c 110C     	 lsr r1,r2,#16
 393 017e 0A1C     	 mov r2,r1
 394 0180 0240     	 and r2,r0
 395 0182 A25C     	 ldrb r2,[r4,r2]
 656:C:/Workspace/DAVE-4.4.2-64Bit/optiga-trust-m/externals/mbedtls/library\aes.c **** 
 657:C:/Workspace/DAVE-4.4.2-64Bit/optiga-trust-m/externals/mbedtls/library\aes.c ****                 RK[13] = RK[5] ^ RK[12];
 396              	 .loc 1 657 0 discriminator 3
 397 0184 5969     	 ldr r1,[r3,#20]
 654:C:/Workspace/DAVE-4.4.2-64Bit/optiga-trust-m/externals/mbedtls/library\aes.c ****                 ( (uint32_t) FSb[ ( RK[11] >> 24 ) & 0xFF ] << 24 );
 398              	 .loc 1 654 0 discriminator 3
 399 0186 1204     	 lsl r2,r2,#16
 400 0188 7A40     	 eor r2,r7
 651:C:/Workspace/DAVE-4.4.2-64Bit/optiga-trust-m/externals/mbedtls/library\aes.c ****                 ( (uint32_t) FSb[ ( RK[11]       ) & 0xFF ]       ) ^
 401              	 .loc 1 651 0 discriminator 3
 402 018a 1A63     	 str r2,[r3,#48]
 403              	 .loc 1 657 0 discriminator 3
 404 018c 4A40     	 eor r2,r1
 658:C:/Workspace/DAVE-4.4.2-64Bit/optiga-trust-m/externals/mbedtls/library\aes.c ****                 RK[14] = RK[6] ^ RK[13];
 405              	 .loc 1 658 0 discriminator 3
 406 018e 9969     	 ldr r1,[r3,#24]
 657:C:/Workspace/DAVE-4.4.2-64Bit/optiga-trust-m/externals/mbedtls/library\aes.c ****                 RK[14] = RK[6] ^ RK[13];
 407              	 .loc 1 657 0 discriminator 3
 408 0190 5A63     	 str r2,[r3,#52]
 409              	 .loc 1 658 0 discriminator 3
 410 0192 4A40     	 eor r2,r1
 411 0194 9A63     	 str r2,[r3,#56]
 659:C:/Workspace/DAVE-4.4.2-64Bit/optiga-trust-m/externals/mbedtls/library\aes.c ****                 RK[15] = RK[7] ^ RK[14];
 412              	 .loc 1 659 0 discriminator 3
 413 0196 6A40     	 eor r2,r5
 414 0198 DA63     	 str r2,[r3,#60]
 639:C:/Workspace/DAVE-4.4.2-64Bit/optiga-trust-m/externals/mbedtls/library\aes.c ****             {
 415              	 .loc 1 639 0 discriminator 3
 416 019a 2033     	 add r3,r3,#32
 417              	.LVL17:
 418 019c 1C2E     	 cmp r6,#28
 419 019e BAD1     	 bne .L22
 420 01a0 02E0     	 b .L26
 421              	.LVL18:
 422              	.L28:
 570:C:/Workspace/DAVE-4.4.2-64Bit/optiga-trust-m/externals/mbedtls/library\aes.c ****     }
 423              	 .loc 1 570 0
 424 01a2 2020     	 mov r0,#32
 425              	.LVL19:
 426 01a4 4042     	 neg r0,r0
 427 01a6 00E0     	 b .L9
 428              	.LVL20:
 429              	.L26:
 660:C:/Workspace/DAVE-4.4.2-64Bit/optiga-trust-m/externals/mbedtls/library\aes.c ****             }
 661:C:/Workspace/DAVE-4.4.2-64Bit/optiga-trust-m/externals/mbedtls/library\aes.c ****             break;
 662:C:/Workspace/DAVE-4.4.2-64Bit/optiga-trust-m/externals/mbedtls/library\aes.c ****     }
 663:C:/Workspace/DAVE-4.4.2-64Bit/optiga-trust-m/externals/mbedtls/library\aes.c **** 
 664:C:/Workspace/DAVE-4.4.2-64Bit/optiga-trust-m/externals/mbedtls/library\aes.c ****     return( 0 );
 430              	 .loc 1 664 0
 431 01a8 0020     	 mov r0,#0
 432              	.LVL21:
 433              	.L9:
 665:C:/Workspace/DAVE-4.4.2-64Bit/optiga-trust-m/externals/mbedtls/library\aes.c **** }
 434              	 .loc 1 665 0
 435              	 
 436 01aa FEBD     	 pop {r1,r2,r3,r4,r5,r6,r7,pc}
 437              	.L31:
 438              	 .align 2
 439              	.L30:
 440 01ac 00000000 	 .word .LANCHOR0
 441 01b0 00000000 	 .word .LANCHOR1
 442              	 .cfi_endproc
 443              	.LFE2:
 445              	 .section .text.mbedtls_aes_setkey_dec,"ax",%progbits
 446              	 .align 1
 447              	 .global mbedtls_aes_setkey_dec
 448              	 .code 16
 449              	 .thumb_func
 451              	mbedtls_aes_setkey_dec:
 452              	.LFB3:
 666:C:/Workspace/DAVE-4.4.2-64Bit/optiga-trust-m/externals/mbedtls/library\aes.c **** #endif /* !MBEDTLS_AES_SETKEY_ENC_ALT */
 667:C:/Workspace/DAVE-4.4.2-64Bit/optiga-trust-m/externals/mbedtls/library\aes.c **** 
 668:C:/Workspace/DAVE-4.4.2-64Bit/optiga-trust-m/externals/mbedtls/library\aes.c **** /*
 669:C:/Workspace/DAVE-4.4.2-64Bit/optiga-trust-m/externals/mbedtls/library\aes.c ****  * AES key schedule (decryption)
 670:C:/Workspace/DAVE-4.4.2-64Bit/optiga-trust-m/externals/mbedtls/library\aes.c ****  */
 671:C:/Workspace/DAVE-4.4.2-64Bit/optiga-trust-m/externals/mbedtls/library\aes.c **** #if !defined(MBEDTLS_AES_SETKEY_DEC_ALT)
 672:C:/Workspace/DAVE-4.4.2-64Bit/optiga-trust-m/externals/mbedtls/library\aes.c **** int mbedtls_aes_setkey_dec( mbedtls_aes_context *ctx, const unsigned char *key,
 673:C:/Workspace/DAVE-4.4.2-64Bit/optiga-trust-m/externals/mbedtls/library\aes.c ****                     unsigned int keybits )
 674:C:/Workspace/DAVE-4.4.2-64Bit/optiga-trust-m/externals/mbedtls/library\aes.c **** {
 453              	 .loc 1 674 0
 454              	 .cfi_startproc
 455              	.LVL22:
 456 0000 F0B5     	 push {r4,r5,r6,r7,lr}
 457              	.LCFI3:
 458              	 .cfi_def_cfa_offset 20
 459              	 .cfi_offset 4,-20
 460              	 .cfi_offset 5,-16
 461              	 .cfi_offset 6,-12
 462              	 .cfi_offset 7,-8
 463              	 .cfi_offset 14,-4
 464 0002 051C     	 mov r5,r0
 465 0004 C9B0     	 sub sp,sp,#292
 466              	.LCFI4:
 467              	 .cfi_def_cfa_offset 312
 675:C:/Workspace/DAVE-4.4.2-64Bit/optiga-trust-m/externals/mbedtls/library\aes.c ****     int i, j, ret;
 676:C:/Workspace/DAVE-4.4.2-64Bit/optiga-trust-m/externals/mbedtls/library\aes.c ****     mbedtls_aes_context cty;
 677:C:/Workspace/DAVE-4.4.2-64Bit/optiga-trust-m/externals/mbedtls/library\aes.c ****     uint32_t *RK;
 678:C:/Workspace/DAVE-4.4.2-64Bit/optiga-trust-m/externals/mbedtls/library\aes.c ****     uint32_t *SK;
 679:C:/Workspace/DAVE-4.4.2-64Bit/optiga-trust-m/externals/mbedtls/library\aes.c **** 
 680:C:/Workspace/DAVE-4.4.2-64Bit/optiga-trust-m/externals/mbedtls/library\aes.c ****     AES_VALIDATE_RET( ctx != NULL );
 681:C:/Workspace/DAVE-4.4.2-64Bit/optiga-trust-m/externals/mbedtls/library\aes.c ****     AES_VALIDATE_RET( key != NULL );
 682:C:/Workspace/DAVE-4.4.2-64Bit/optiga-trust-m/externals/mbedtls/library\aes.c **** 
 683:C:/Workspace/DAVE-4.4.2-64Bit/optiga-trust-m/externals/mbedtls/library\aes.c ****     mbedtls_aes_init( &cty );
 468              	 .loc 1 683 0
 469 0006 02A8     	 add r0,sp,#8
 470              	.LVL23:
 674:C:/Workspace/DAVE-4.4.2-64Bit/optiga-trust-m/externals/mbedtls/library\aes.c ****     int i, j, ret;
 471              	 .loc 1 674 0
 472 0008 0E1C     	 mov r6,r1
 473 000a 141C     	 mov r4,r2
 474              	 .loc 1 683 0
 475 000c FFF7FEFF 	 bl mbedtls_aes_init
 476              	.LVL24:
 684:C:/Workspace/DAVE-4.4.2-64Bit/optiga-trust-m/externals/mbedtls/library\aes.c **** 
 685:C:/Workspace/DAVE-4.4.2-64Bit/optiga-trust-m/externals/mbedtls/library\aes.c **** #if defined(MBEDTLS_PADLOCK_C) && defined(MBEDTLS_PADLOCK_ALIGN16)
 686:C:/Workspace/DAVE-4.4.2-64Bit/optiga-trust-m/externals/mbedtls/library\aes.c ****     if( aes_padlock_ace == -1 )
 687:C:/Workspace/DAVE-4.4.2-64Bit/optiga-trust-m/externals/mbedtls/library\aes.c ****         aes_padlock_ace = mbedtls_padlock_has_support( MBEDTLS_PADLOCK_ACE );
 688:C:/Workspace/DAVE-4.4.2-64Bit/optiga-trust-m/externals/mbedtls/library\aes.c **** 
 689:C:/Workspace/DAVE-4.4.2-64Bit/optiga-trust-m/externals/mbedtls/library\aes.c ****     if( aes_padlock_ace )
 690:C:/Workspace/DAVE-4.4.2-64Bit/optiga-trust-m/externals/mbedtls/library\aes.c ****         ctx->rk = RK = MBEDTLS_PADLOCK_ALIGN16( ctx->buf );
 691:C:/Workspace/DAVE-4.4.2-64Bit/optiga-trust-m/externals/mbedtls/library\aes.c ****     else
 692:C:/Workspace/DAVE-4.4.2-64Bit/optiga-trust-m/externals/mbedtls/library\aes.c **** #endif
 693:C:/Workspace/DAVE-4.4.2-64Bit/optiga-trust-m/externals/mbedtls/library\aes.c ****     ctx->rk = RK = ctx->buf;
 477              	 .loc 1 693 0
 478 0010 2B1C     	 mov r3,r5
 479 0012 0833     	 add r3,r3,#8
 480              	.LVL25:
 481 0014 6B60     	 str r3,[r5,#4]
 694:C:/Workspace/DAVE-4.4.2-64Bit/optiga-trust-m/externals/mbedtls/library\aes.c **** 
 695:C:/Workspace/DAVE-4.4.2-64Bit/optiga-trust-m/externals/mbedtls/library\aes.c ****     /* Also checks keybits */
 696:C:/Workspace/DAVE-4.4.2-64Bit/optiga-trust-m/externals/mbedtls/library\aes.c ****     if( ( ret = mbedtls_aes_setkey_enc( &cty, key, keybits ) ) != 0 )
 482              	 .loc 1 696 0
 483 0016 02A8     	 add r0,sp,#8
 484 0018 311C     	 mov r1,r6
 485 001a 221C     	 mov r2,r4
 486 001c FFF7FEFF 	 bl mbedtls_aes_setkey_enc
 487              	.LVL26:
 488 0020 0190     	 str r0,[sp,#4]
 489              	.LVL27:
 490 0022 0028     	 cmp r0,#0
 491 0024 42D1     	 bne .L33
 697:C:/Workspace/DAVE-4.4.2-64Bit/optiga-trust-m/externals/mbedtls/library\aes.c ****         goto exit;
 698:C:/Workspace/DAVE-4.4.2-64Bit/optiga-trust-m/externals/mbedtls/library\aes.c **** 
 699:C:/Workspace/DAVE-4.4.2-64Bit/optiga-trust-m/externals/mbedtls/library\aes.c ****     ctx->nr = cty.nr;
 492              	 .loc 1 699 0
 493 0026 0299     	 ldr r1,[sp,#8]
 700:C:/Workspace/DAVE-4.4.2-64Bit/optiga-trust-m/externals/mbedtls/library\aes.c **** 
 701:C:/Workspace/DAVE-4.4.2-64Bit/optiga-trust-m/externals/mbedtls/library\aes.c **** #if defined(MBEDTLS_AESNI_C) && defined(MBEDTLS_HAVE_X86_64)
 702:C:/Workspace/DAVE-4.4.2-64Bit/optiga-trust-m/externals/mbedtls/library\aes.c ****     if( mbedtls_aesni_has_support( MBEDTLS_AESNI_AES ) )
 703:C:/Workspace/DAVE-4.4.2-64Bit/optiga-trust-m/externals/mbedtls/library\aes.c ****     {
 704:C:/Workspace/DAVE-4.4.2-64Bit/optiga-trust-m/externals/mbedtls/library\aes.c ****         mbedtls_aesni_inverse_key( (unsigned char *) ctx->rk,
 705:C:/Workspace/DAVE-4.4.2-64Bit/optiga-trust-m/externals/mbedtls/library\aes.c ****                            (const unsigned char *) cty.rk, ctx->nr );
 706:C:/Workspace/DAVE-4.4.2-64Bit/optiga-trust-m/externals/mbedtls/library\aes.c ****         goto exit;
 707:C:/Workspace/DAVE-4.4.2-64Bit/optiga-trust-m/externals/mbedtls/library\aes.c ****     }
 708:C:/Workspace/DAVE-4.4.2-64Bit/optiga-trust-m/externals/mbedtls/library\aes.c **** #endif
 709:C:/Workspace/DAVE-4.4.2-64Bit/optiga-trust-m/externals/mbedtls/library\aes.c **** 
 710:C:/Workspace/DAVE-4.4.2-64Bit/optiga-trust-m/externals/mbedtls/library\aes.c ****     SK = cty.rk + cty.nr * 4;
 494              	 .loc 1 710 0
 495 0028 039A     	 ldr r2,[sp,#12]
 496 002a 0B01     	 lsl r3,r1,#4
 497 002c D318     	 add r3,r2,r3
 498              	.LVL28:
 711:C:/Workspace/DAVE-4.4.2-64Bit/optiga-trust-m/externals/mbedtls/library\aes.c **** 
 712:C:/Workspace/DAVE-4.4.2-64Bit/optiga-trust-m/externals/mbedtls/library\aes.c ****     *RK++ = *SK++;
 499              	 .loc 1 712 0
 500 002e 1A68     	 ldr r2,[r3]
 699:C:/Workspace/DAVE-4.4.2-64Bit/optiga-trust-m/externals/mbedtls/library\aes.c **** 
 501              	 .loc 1 699 0
 502 0030 2960     	 str r1,[r5]
 503              	 .loc 1 712 0
 504 0032 AA60     	 str r2,[r5,#8]
 505              	.LVL29:
 713:C:/Workspace/DAVE-4.4.2-64Bit/optiga-trust-m/externals/mbedtls/library\aes.c ****     *RK++ = *SK++;
 506              	 .loc 1 713 0
 507 0034 5A68     	 ldr r2,[r3,#4]
 508 0036 EA60     	 str r2,[r5,#12]
 509              	.LVL30:
 714:C:/Workspace/DAVE-4.4.2-64Bit/optiga-trust-m/externals/mbedtls/library\aes.c ****     *RK++ = *SK++;
 510              	 .loc 1 714 0
 511 0038 9A68     	 ldr r2,[r3,#8]
 512 003a 2A61     	 str r2,[r5,#16]
 715:C:/Workspace/DAVE-4.4.2-64Bit/optiga-trust-m/externals/mbedtls/library\aes.c ****     *RK++ = *SK++;
 513              	 .loc 1 715 0
 514 003c 2A1C     	 mov r2,r5
 515 003e D868     	 ldr r0,[r3,#12]
 516              	.LVL31:
 517 0040 1832     	 add r2,r2,#24
 518              	.LVL32:
 519 0042 6861     	 str r0,[r5,#20]
 520              	.LVL33:
 521              	.L37:
 716:C:/Workspace/DAVE-4.4.2-64Bit/optiga-trust-m/externals/mbedtls/library\aes.c **** 
 717:C:/Workspace/DAVE-4.4.2-64Bit/optiga-trust-m/externals/mbedtls/library\aes.c ****     for( i = ctx->nr - 1, SK -= 8; i > 0; i--, SK -= 8 )
 522              	 .loc 1 717 0
 523 0044 0139     	 sub r1,r1,#1
 524 0046 0091     	 str r1,[sp]
 525              	.LVL34:
 526 0048 0099     	 ldr r1,[sp]
 527 004a 103B     	 sub r3,r3,#16
 528              	.LVL35:
 529 004c 0029     	 cmp r1,#0
 530 004e 25DD     	 ble .L38
 531 0050 0020     	 mov r0,#0
 532              	.LVL36:
 533              	.L35:
 718:C:/Workspace/DAVE-4.4.2-64Bit/optiga-trust-m/externals/mbedtls/library\aes.c ****     {
 719:C:/Workspace/DAVE-4.4.2-64Bit/optiga-trust-m/externals/mbedtls/library\aes.c ****         for( j = 0; j < 4; j++, SK++ )
 720:C:/Workspace/DAVE-4.4.2-64Bit/optiga-trust-m/externals/mbedtls/library\aes.c ****         {
 721:C:/Workspace/DAVE-4.4.2-64Bit/optiga-trust-m/externals/mbedtls/library\aes.c ****             *RK++ = AES_RT0( FSb[ ( *SK       ) & 0xFF ] ) ^
 534              	 .loc 1 721 0 discriminator 3
 535 0052 FF27     	 mov r7,#255
 536 0054 1958     	 ldr r1,[r3,r0]
 722:C:/Workspace/DAVE-4.4.2-64Bit/optiga-trust-m/externals/mbedtls/library\aes.c ****                     AES_RT1( FSb[ ( *SK >>  8 ) & 0xFF ] ) ^
 723:C:/Workspace/DAVE-4.4.2-64Bit/optiga-trust-m/externals/mbedtls/library\aes.c ****                     AES_RT2( FSb[ ( *SK >> 16 ) & 0xFF ] ) ^
 724:C:/Workspace/DAVE-4.4.2-64Bit/optiga-trust-m/externals/mbedtls/library\aes.c ****                     AES_RT3( FSb[ ( *SK >> 24 ) & 0xFF ] );
 537              	 .loc 1 724 0 discriminator 3
 538 0056 184D     	 ldr r5,.L39
 539 0058 0E0E     	 lsr r6,r1,#24
 540 005a AE5D     	 ldrb r6,[r5,r6]
 721:C:/Workspace/DAVE-4.4.2-64Bit/optiga-trust-m/externals/mbedtls/library\aes.c ****                     AES_RT1( FSb[ ( *SK >>  8 ) & 0xFF ] ) ^
 541              	 .loc 1 721 0 discriminator 3
 542 005c 0F40     	 and r7,r1
 543 005e 174C     	 ldr r4,.L39+4
 544 0060 EF5D     	 ldrb r7,[r5,r7]
 545              	 .loc 1 724 0 discriminator 3
 546 0062 B600     	 lsl r6,r6,#2
 547 0064 3659     	 ldr r6,[r6,r4]
 548 0066 164C     	 ldr r4,.L39+8
 721:C:/Workspace/DAVE-4.4.2-64Bit/optiga-trust-m/externals/mbedtls/library\aes.c ****                     AES_RT1( FSb[ ( *SK >>  8 ) & 0xFF ] ) ^
 549              	 .loc 1 721 0 discriminator 3
 550 0068 BF00     	 lsl r7,r7,#2
 551 006a 3F59     	 ldr r7,[r7,r4]
 722:C:/Workspace/DAVE-4.4.2-64Bit/optiga-trust-m/externals/mbedtls/library\aes.c ****                     AES_RT1( FSb[ ( *SK >>  8 ) & 0xFF ] ) ^
 552              	 .loc 1 722 0 discriminator 3
 553 006c FF24     	 mov r4,#255
 554 006e 7E40     	 eor r6,r7
 555 0070 0F0A     	 lsr r7,r1,#8
 556 0072 2740     	 and r7,r4
 557 0074 EF5D     	 ldrb r7,[r5,r7]
 558 0076 134C     	 ldr r4,.L39+12
 559 0078 BF00     	 lsl r7,r7,#2
 560 007a 3F59     	 ldr r7,[r7,r4]
 723:C:/Workspace/DAVE-4.4.2-64Bit/optiga-trust-m/externals/mbedtls/library\aes.c ****                     AES_RT3( FSb[ ( *SK >> 24 ) & 0xFF ] );
 561              	 .loc 1 723 0 discriminator 3
 562 007c FF24     	 mov r4,#255
 563 007e 090C     	 lsr r1,r1,#16
 564 0080 2140     	 and r1,r4
 565 0082 695C     	 ldrb r1,[r5,r1]
 566 0084 104D     	 ldr r5,.L39+16
 567 0086 8900     	 lsl r1,r1,#2
 568 0088 7E40     	 eor r6,r7
 569 008a 4F59     	 ldr r7,[r1,r5]
 570 008c 7E40     	 eor r6,r7
 721:C:/Workspace/DAVE-4.4.2-64Bit/optiga-trust-m/externals/mbedtls/library\aes.c ****                     AES_RT1( FSb[ ( *SK >>  8 ) & 0xFF ] ) ^
 571              	 .loc 1 721 0 discriminator 3
 572 008e 1650     	 str r6,[r2,r0]
 573              	.LVL37:
 574 0090 0430     	 add r0,r0,#4
 575              	.LVL38:
 719:C:/Workspace/DAVE-4.4.2-64Bit/optiga-trust-m/externals/mbedtls/library\aes.c ****         {
 576              	 .loc 1 719 0 discriminator 3
 577 0092 1028     	 cmp r0,#16
 578 0094 DDD1     	 bne .L35
 579 0096 1032     	 add r2,r2,#16
 580              	.LVL39:
 717:C:/Workspace/DAVE-4.4.2-64Bit/optiga-trust-m/externals/mbedtls/library\aes.c ****     {
 581              	 .loc 1 717 0
 582 0098 0099     	 ldr r1,[sp]
 583 009a D3E7     	 b .L37
 584              	.LVL40:
 585              	.L38:
 725:C:/Workspace/DAVE-4.4.2-64Bit/optiga-trust-m/externals/mbedtls/library\aes.c ****         }
 726:C:/Workspace/DAVE-4.4.2-64Bit/optiga-trust-m/externals/mbedtls/library\aes.c ****     }
 727:C:/Workspace/DAVE-4.4.2-64Bit/optiga-trust-m/externals/mbedtls/library\aes.c **** 
 728:C:/Workspace/DAVE-4.4.2-64Bit/optiga-trust-m/externals/mbedtls/library\aes.c ****     *RK++ = *SK++;
 586              	 .loc 1 728 0
 587 009c 1968     	 ldr r1,[r3]
 588              	.LVL41:
 589 009e 1160     	 str r1,[r2]
 590              	.LVL42:
 729:C:/Workspace/DAVE-4.4.2-64Bit/optiga-trust-m/externals/mbedtls/library\aes.c ****     *RK++ = *SK++;
 591              	 .loc 1 729 0
 592 00a0 5968     	 ldr r1,[r3,#4]
 593 00a2 5160     	 str r1,[r2,#4]
 594              	.LVL43:
 730:C:/Workspace/DAVE-4.4.2-64Bit/optiga-trust-m/externals/mbedtls/library\aes.c ****     *RK++ = *SK++;
 595              	 .loc 1 730 0
 596 00a4 9968     	 ldr r1,[r3,#8]
 597 00a6 9160     	 str r1,[r2,#8]
 598              	.LVL44:
 731:C:/Workspace/DAVE-4.4.2-64Bit/optiga-trust-m/externals/mbedtls/library\aes.c ****     *RK++ = *SK++;
 599              	 .loc 1 731 0
 600 00a8 DB68     	 ldr r3,[r3,#12]
 601              	.LVL45:
 602 00aa D360     	 str r3,[r2,#12]
 603              	.LVL46:
 604              	.L33:
 732:C:/Workspace/DAVE-4.4.2-64Bit/optiga-trust-m/externals/mbedtls/library\aes.c **** 
 733:C:/Workspace/DAVE-4.4.2-64Bit/optiga-trust-m/externals/mbedtls/library\aes.c **** exit:
 734:C:/Workspace/DAVE-4.4.2-64Bit/optiga-trust-m/externals/mbedtls/library\aes.c ****     mbedtls_aes_free( &cty );
 605              	 .loc 1 734 0
 606 00ac 02A8     	 add r0,sp,#8
 607 00ae FFF7FEFF 	 bl mbedtls_aes_free
 608              	.LVL47:
 735:C:/Workspace/DAVE-4.4.2-64Bit/optiga-trust-m/externals/mbedtls/library\aes.c **** 
 736:C:/Workspace/DAVE-4.4.2-64Bit/optiga-trust-m/externals/mbedtls/library\aes.c ****     return( ret );
 737:C:/Workspace/DAVE-4.4.2-64Bit/optiga-trust-m/externals/mbedtls/library\aes.c **** }
 609              	 .loc 1 737 0
 610 00b2 0198     	 ldr r0,[sp,#4]
 611 00b4 49B0     	 add sp,sp,#292
 612              	 
 613 00b6 F0BD     	 pop {r4,r5,r6,r7,pc}
 614              	.L40:
 615              	 .align 2
 616              	.L39:
 617 00b8 00000000 	 .word .LANCHOR1
 618 00bc 00000000 	 .word .LANCHOR2
 619 00c0 00000000 	 .word .LANCHOR3
 620 00c4 00000000 	 .word .LANCHOR4
 621 00c8 00000000 	 .word .LANCHOR5
 622              	 .cfi_endproc
 623              	.LFE3:
 625              	 .section .text.mbedtls_internal_aes_encrypt,"ax",%progbits
 626              	 .align 1
 627              	 .global mbedtls_internal_aes_encrypt
 628              	 .code 16
 629              	 .thumb_func
 631              	mbedtls_internal_aes_encrypt:
 632              	.LFB4:
 738:C:/Workspace/DAVE-4.4.2-64Bit/optiga-trust-m/externals/mbedtls/library\aes.c **** 
 739:C:/Workspace/DAVE-4.4.2-64Bit/optiga-trust-m/externals/mbedtls/library\aes.c **** #if defined(MBEDTLS_CIPHER_MODE_XTS)
 740:C:/Workspace/DAVE-4.4.2-64Bit/optiga-trust-m/externals/mbedtls/library\aes.c **** static int mbedtls_aes_xts_decode_keys( const unsigned char *key,
 741:C:/Workspace/DAVE-4.4.2-64Bit/optiga-trust-m/externals/mbedtls/library\aes.c ****                                         unsigned int keybits,
 742:C:/Workspace/DAVE-4.4.2-64Bit/optiga-trust-m/externals/mbedtls/library\aes.c ****                                         const unsigned char **key1,
 743:C:/Workspace/DAVE-4.4.2-64Bit/optiga-trust-m/externals/mbedtls/library\aes.c ****                                         unsigned int *key1bits,
 744:C:/Workspace/DAVE-4.4.2-64Bit/optiga-trust-m/externals/mbedtls/library\aes.c ****                                         const unsigned char **key2,
 745:C:/Workspace/DAVE-4.4.2-64Bit/optiga-trust-m/externals/mbedtls/library\aes.c ****                                         unsigned int *key2bits )
 746:C:/Workspace/DAVE-4.4.2-64Bit/optiga-trust-m/externals/mbedtls/library\aes.c **** {
 747:C:/Workspace/DAVE-4.4.2-64Bit/optiga-trust-m/externals/mbedtls/library\aes.c ****     const unsigned int half_keybits = keybits / 2;
 748:C:/Workspace/DAVE-4.4.2-64Bit/optiga-trust-m/externals/mbedtls/library\aes.c ****     const unsigned int half_keybytes = half_keybits / 8;
 749:C:/Workspace/DAVE-4.4.2-64Bit/optiga-trust-m/externals/mbedtls/library\aes.c **** 
 750:C:/Workspace/DAVE-4.4.2-64Bit/optiga-trust-m/externals/mbedtls/library\aes.c ****     switch( keybits )
 751:C:/Workspace/DAVE-4.4.2-64Bit/optiga-trust-m/externals/mbedtls/library\aes.c ****     {
 752:C:/Workspace/DAVE-4.4.2-64Bit/optiga-trust-m/externals/mbedtls/library\aes.c ****         case 256: break;
 753:C:/Workspace/DAVE-4.4.2-64Bit/optiga-trust-m/externals/mbedtls/library\aes.c ****         case 512: break;
 754:C:/Workspace/DAVE-4.4.2-64Bit/optiga-trust-m/externals/mbedtls/library\aes.c ****         default : return( MBEDTLS_ERR_AES_INVALID_KEY_LENGTH );
 755:C:/Workspace/DAVE-4.4.2-64Bit/optiga-trust-m/externals/mbedtls/library\aes.c ****     }
 756:C:/Workspace/DAVE-4.4.2-64Bit/optiga-trust-m/externals/mbedtls/library\aes.c **** 
 757:C:/Workspace/DAVE-4.4.2-64Bit/optiga-trust-m/externals/mbedtls/library\aes.c ****     *key1bits = half_keybits;
 758:C:/Workspace/DAVE-4.4.2-64Bit/optiga-trust-m/externals/mbedtls/library\aes.c ****     *key2bits = half_keybits;
 759:C:/Workspace/DAVE-4.4.2-64Bit/optiga-trust-m/externals/mbedtls/library\aes.c ****     *key1 = &key[0];
 760:C:/Workspace/DAVE-4.4.2-64Bit/optiga-trust-m/externals/mbedtls/library\aes.c ****     *key2 = &key[half_keybytes];
 761:C:/Workspace/DAVE-4.4.2-64Bit/optiga-trust-m/externals/mbedtls/library\aes.c **** 
 762:C:/Workspace/DAVE-4.4.2-64Bit/optiga-trust-m/externals/mbedtls/library\aes.c ****     return 0;
 763:C:/Workspace/DAVE-4.4.2-64Bit/optiga-trust-m/externals/mbedtls/library\aes.c **** }
 764:C:/Workspace/DAVE-4.4.2-64Bit/optiga-trust-m/externals/mbedtls/library\aes.c **** 
 765:C:/Workspace/DAVE-4.4.2-64Bit/optiga-trust-m/externals/mbedtls/library\aes.c **** int mbedtls_aes_xts_setkey_enc( mbedtls_aes_xts_context *ctx,
 766:C:/Workspace/DAVE-4.4.2-64Bit/optiga-trust-m/externals/mbedtls/library\aes.c ****                                 const unsigned char *key,
 767:C:/Workspace/DAVE-4.4.2-64Bit/optiga-trust-m/externals/mbedtls/library\aes.c ****                                 unsigned int keybits)
 768:C:/Workspace/DAVE-4.4.2-64Bit/optiga-trust-m/externals/mbedtls/library\aes.c **** {
 769:C:/Workspace/DAVE-4.4.2-64Bit/optiga-trust-m/externals/mbedtls/library\aes.c ****     int ret;
 770:C:/Workspace/DAVE-4.4.2-64Bit/optiga-trust-m/externals/mbedtls/library\aes.c ****     const unsigned char *key1, *key2;
 771:C:/Workspace/DAVE-4.4.2-64Bit/optiga-trust-m/externals/mbedtls/library\aes.c ****     unsigned int key1bits, key2bits;
 772:C:/Workspace/DAVE-4.4.2-64Bit/optiga-trust-m/externals/mbedtls/library\aes.c **** 
 773:C:/Workspace/DAVE-4.4.2-64Bit/optiga-trust-m/externals/mbedtls/library\aes.c ****     AES_VALIDATE_RET( ctx != NULL );
 774:C:/Workspace/DAVE-4.4.2-64Bit/optiga-trust-m/externals/mbedtls/library\aes.c ****     AES_VALIDATE_RET( key != NULL );
 775:C:/Workspace/DAVE-4.4.2-64Bit/optiga-trust-m/externals/mbedtls/library\aes.c **** 
 776:C:/Workspace/DAVE-4.4.2-64Bit/optiga-trust-m/externals/mbedtls/library\aes.c ****     ret = mbedtls_aes_xts_decode_keys( key, keybits, &key1, &key1bits,
 777:C:/Workspace/DAVE-4.4.2-64Bit/optiga-trust-m/externals/mbedtls/library\aes.c ****                                        &key2, &key2bits );
 778:C:/Workspace/DAVE-4.4.2-64Bit/optiga-trust-m/externals/mbedtls/library\aes.c ****     if( ret != 0 )
 779:C:/Workspace/DAVE-4.4.2-64Bit/optiga-trust-m/externals/mbedtls/library\aes.c ****         return( ret );
 780:C:/Workspace/DAVE-4.4.2-64Bit/optiga-trust-m/externals/mbedtls/library\aes.c **** 
 781:C:/Workspace/DAVE-4.4.2-64Bit/optiga-trust-m/externals/mbedtls/library\aes.c ****     /* Set the tweak key. Always set tweak key for the encryption mode. */
 782:C:/Workspace/DAVE-4.4.2-64Bit/optiga-trust-m/externals/mbedtls/library\aes.c ****     ret = mbedtls_aes_setkey_enc( &ctx->tweak, key2, key2bits );
 783:C:/Workspace/DAVE-4.4.2-64Bit/optiga-trust-m/externals/mbedtls/library\aes.c ****     if( ret != 0 )
 784:C:/Workspace/DAVE-4.4.2-64Bit/optiga-trust-m/externals/mbedtls/library\aes.c ****         return( ret );
 785:C:/Workspace/DAVE-4.4.2-64Bit/optiga-trust-m/externals/mbedtls/library\aes.c **** 
 786:C:/Workspace/DAVE-4.4.2-64Bit/optiga-trust-m/externals/mbedtls/library\aes.c ****     /* Set crypt key for encryption. */
 787:C:/Workspace/DAVE-4.4.2-64Bit/optiga-trust-m/externals/mbedtls/library\aes.c ****     return mbedtls_aes_setkey_enc( &ctx->crypt, key1, key1bits );
 788:C:/Workspace/DAVE-4.4.2-64Bit/optiga-trust-m/externals/mbedtls/library\aes.c **** }
 789:C:/Workspace/DAVE-4.4.2-64Bit/optiga-trust-m/externals/mbedtls/library\aes.c **** 
 790:C:/Workspace/DAVE-4.4.2-64Bit/optiga-trust-m/externals/mbedtls/library\aes.c **** int mbedtls_aes_xts_setkey_dec( mbedtls_aes_xts_context *ctx,
 791:C:/Workspace/DAVE-4.4.2-64Bit/optiga-trust-m/externals/mbedtls/library\aes.c ****                                 const unsigned char *key,
 792:C:/Workspace/DAVE-4.4.2-64Bit/optiga-trust-m/externals/mbedtls/library\aes.c ****                                 unsigned int keybits)
 793:C:/Workspace/DAVE-4.4.2-64Bit/optiga-trust-m/externals/mbedtls/library\aes.c **** {
 794:C:/Workspace/DAVE-4.4.2-64Bit/optiga-trust-m/externals/mbedtls/library\aes.c ****     int ret;
 795:C:/Workspace/DAVE-4.4.2-64Bit/optiga-trust-m/externals/mbedtls/library\aes.c ****     const unsigned char *key1, *key2;
 796:C:/Workspace/DAVE-4.4.2-64Bit/optiga-trust-m/externals/mbedtls/library\aes.c ****     unsigned int key1bits, key2bits;
 797:C:/Workspace/DAVE-4.4.2-64Bit/optiga-trust-m/externals/mbedtls/library\aes.c **** 
 798:C:/Workspace/DAVE-4.4.2-64Bit/optiga-trust-m/externals/mbedtls/library\aes.c ****     AES_VALIDATE_RET( ctx != NULL );
 799:C:/Workspace/DAVE-4.4.2-64Bit/optiga-trust-m/externals/mbedtls/library\aes.c ****     AES_VALIDATE_RET( key != NULL );
 800:C:/Workspace/DAVE-4.4.2-64Bit/optiga-trust-m/externals/mbedtls/library\aes.c **** 
 801:C:/Workspace/DAVE-4.4.2-64Bit/optiga-trust-m/externals/mbedtls/library\aes.c ****     ret = mbedtls_aes_xts_decode_keys( key, keybits, &key1, &key1bits,
 802:C:/Workspace/DAVE-4.4.2-64Bit/optiga-trust-m/externals/mbedtls/library\aes.c ****                                        &key2, &key2bits );
 803:C:/Workspace/DAVE-4.4.2-64Bit/optiga-trust-m/externals/mbedtls/library\aes.c ****     if( ret != 0 )
 804:C:/Workspace/DAVE-4.4.2-64Bit/optiga-trust-m/externals/mbedtls/library\aes.c ****         return( ret );
 805:C:/Workspace/DAVE-4.4.2-64Bit/optiga-trust-m/externals/mbedtls/library\aes.c **** 
 806:C:/Workspace/DAVE-4.4.2-64Bit/optiga-trust-m/externals/mbedtls/library\aes.c ****     /* Set the tweak key. Always set tweak key for encryption. */
 807:C:/Workspace/DAVE-4.4.2-64Bit/optiga-trust-m/externals/mbedtls/library\aes.c ****     ret = mbedtls_aes_setkey_enc( &ctx->tweak, key2, key2bits );
 808:C:/Workspace/DAVE-4.4.2-64Bit/optiga-trust-m/externals/mbedtls/library\aes.c ****     if( ret != 0 )
 809:C:/Workspace/DAVE-4.4.2-64Bit/optiga-trust-m/externals/mbedtls/library\aes.c ****         return( ret );
 810:C:/Workspace/DAVE-4.4.2-64Bit/optiga-trust-m/externals/mbedtls/library\aes.c **** 
 811:C:/Workspace/DAVE-4.4.2-64Bit/optiga-trust-m/externals/mbedtls/library\aes.c ****     /* Set crypt key for decryption. */
 812:C:/Workspace/DAVE-4.4.2-64Bit/optiga-trust-m/externals/mbedtls/library\aes.c ****     return mbedtls_aes_setkey_dec( &ctx->crypt, key1, key1bits );
 813:C:/Workspace/DAVE-4.4.2-64Bit/optiga-trust-m/externals/mbedtls/library\aes.c **** }
 814:C:/Workspace/DAVE-4.4.2-64Bit/optiga-trust-m/externals/mbedtls/library\aes.c **** #endif /* MBEDTLS_CIPHER_MODE_XTS */
 815:C:/Workspace/DAVE-4.4.2-64Bit/optiga-trust-m/externals/mbedtls/library\aes.c **** 
 816:C:/Workspace/DAVE-4.4.2-64Bit/optiga-trust-m/externals/mbedtls/library\aes.c **** #endif /* !MBEDTLS_AES_SETKEY_DEC_ALT */
 817:C:/Workspace/DAVE-4.4.2-64Bit/optiga-trust-m/externals/mbedtls/library\aes.c **** 
 818:C:/Workspace/DAVE-4.4.2-64Bit/optiga-trust-m/externals/mbedtls/library\aes.c **** #define AES_FROUND(X0,X1,X2,X3,Y0,Y1,Y2,Y3)         \
 819:C:/Workspace/DAVE-4.4.2-64Bit/optiga-trust-m/externals/mbedtls/library\aes.c **** {                                                   \
 820:C:/Workspace/DAVE-4.4.2-64Bit/optiga-trust-m/externals/mbedtls/library\aes.c ****     X0 = *RK++ ^ AES_FT0( ( Y0       ) & 0xFF ) ^   \
 821:C:/Workspace/DAVE-4.4.2-64Bit/optiga-trust-m/externals/mbedtls/library\aes.c ****                  AES_FT1( ( Y1 >>  8 ) & 0xFF ) ^   \
 822:C:/Workspace/DAVE-4.4.2-64Bit/optiga-trust-m/externals/mbedtls/library\aes.c ****                  AES_FT2( ( Y2 >> 16 ) & 0xFF ) ^   \
 823:C:/Workspace/DAVE-4.4.2-64Bit/optiga-trust-m/externals/mbedtls/library\aes.c ****                  AES_FT3( ( Y3 >> 24 ) & 0xFF );    \
 824:C:/Workspace/DAVE-4.4.2-64Bit/optiga-trust-m/externals/mbedtls/library\aes.c ****                                                     \
 825:C:/Workspace/DAVE-4.4.2-64Bit/optiga-trust-m/externals/mbedtls/library\aes.c ****     X1 = *RK++ ^ AES_FT0( ( Y1       ) & 0xFF ) ^   \
 826:C:/Workspace/DAVE-4.4.2-64Bit/optiga-trust-m/externals/mbedtls/library\aes.c ****                  AES_FT1( ( Y2 >>  8 ) & 0xFF ) ^   \
 827:C:/Workspace/DAVE-4.4.2-64Bit/optiga-trust-m/externals/mbedtls/library\aes.c ****                  AES_FT2( ( Y3 >> 16 ) & 0xFF ) ^   \
 828:C:/Workspace/DAVE-4.4.2-64Bit/optiga-trust-m/externals/mbedtls/library\aes.c ****                  AES_FT3( ( Y0 >> 24 ) & 0xFF );    \
 829:C:/Workspace/DAVE-4.4.2-64Bit/optiga-trust-m/externals/mbedtls/library\aes.c ****                                                     \
 830:C:/Workspace/DAVE-4.4.2-64Bit/optiga-trust-m/externals/mbedtls/library\aes.c ****     X2 = *RK++ ^ AES_FT0( ( Y2       ) & 0xFF ) ^   \
 831:C:/Workspace/DAVE-4.4.2-64Bit/optiga-trust-m/externals/mbedtls/library\aes.c ****                  AES_FT1( ( Y3 >>  8 ) & 0xFF ) ^   \
 832:C:/Workspace/DAVE-4.4.2-64Bit/optiga-trust-m/externals/mbedtls/library\aes.c ****                  AES_FT2( ( Y0 >> 16 ) & 0xFF ) ^   \
 833:C:/Workspace/DAVE-4.4.2-64Bit/optiga-trust-m/externals/mbedtls/library\aes.c ****                  AES_FT3( ( Y1 >> 24 ) & 0xFF );    \
 834:C:/Workspace/DAVE-4.4.2-64Bit/optiga-trust-m/externals/mbedtls/library\aes.c ****                                                     \
 835:C:/Workspace/DAVE-4.4.2-64Bit/optiga-trust-m/externals/mbedtls/library\aes.c ****     X3 = *RK++ ^ AES_FT0( ( Y3       ) & 0xFF ) ^   \
 836:C:/Workspace/DAVE-4.4.2-64Bit/optiga-trust-m/externals/mbedtls/library\aes.c ****                  AES_FT1( ( Y0 >>  8 ) & 0xFF ) ^   \
 837:C:/Workspace/DAVE-4.4.2-64Bit/optiga-trust-m/externals/mbedtls/library\aes.c ****                  AES_FT2( ( Y1 >> 16 ) & 0xFF ) ^   \
 838:C:/Workspace/DAVE-4.4.2-64Bit/optiga-trust-m/externals/mbedtls/library\aes.c ****                  AES_FT3( ( Y2 >> 24 ) & 0xFF );    \
 839:C:/Workspace/DAVE-4.4.2-64Bit/optiga-trust-m/externals/mbedtls/library\aes.c **** }
 840:C:/Workspace/DAVE-4.4.2-64Bit/optiga-trust-m/externals/mbedtls/library\aes.c **** 
 841:C:/Workspace/DAVE-4.4.2-64Bit/optiga-trust-m/externals/mbedtls/library\aes.c **** #define AES_RROUND(X0,X1,X2,X3,Y0,Y1,Y2,Y3)         \
 842:C:/Workspace/DAVE-4.4.2-64Bit/optiga-trust-m/externals/mbedtls/library\aes.c **** {                                                   \
 843:C:/Workspace/DAVE-4.4.2-64Bit/optiga-trust-m/externals/mbedtls/library\aes.c ****     X0 = *RK++ ^ AES_RT0( ( Y0       ) & 0xFF ) ^   \
 844:C:/Workspace/DAVE-4.4.2-64Bit/optiga-trust-m/externals/mbedtls/library\aes.c ****                  AES_RT1( ( Y3 >>  8 ) & 0xFF ) ^   \
 845:C:/Workspace/DAVE-4.4.2-64Bit/optiga-trust-m/externals/mbedtls/library\aes.c ****                  AES_RT2( ( Y2 >> 16 ) & 0xFF ) ^   \
 846:C:/Workspace/DAVE-4.4.2-64Bit/optiga-trust-m/externals/mbedtls/library\aes.c ****                  AES_RT3( ( Y1 >> 24 ) & 0xFF );    \
 847:C:/Workspace/DAVE-4.4.2-64Bit/optiga-trust-m/externals/mbedtls/library\aes.c ****                                                     \
 848:C:/Workspace/DAVE-4.4.2-64Bit/optiga-trust-m/externals/mbedtls/library\aes.c ****     X1 = *RK++ ^ AES_RT0( ( Y1       ) & 0xFF ) ^   \
 849:C:/Workspace/DAVE-4.4.2-64Bit/optiga-trust-m/externals/mbedtls/library\aes.c ****                  AES_RT1( ( Y0 >>  8 ) & 0xFF ) ^   \
 850:C:/Workspace/DAVE-4.4.2-64Bit/optiga-trust-m/externals/mbedtls/library\aes.c ****                  AES_RT2( ( Y3 >> 16 ) & 0xFF ) ^   \
 851:C:/Workspace/DAVE-4.4.2-64Bit/optiga-trust-m/externals/mbedtls/library\aes.c ****                  AES_RT3( ( Y2 >> 24 ) & 0xFF );    \
 852:C:/Workspace/DAVE-4.4.2-64Bit/optiga-trust-m/externals/mbedtls/library\aes.c ****                                                     \
 853:C:/Workspace/DAVE-4.4.2-64Bit/optiga-trust-m/externals/mbedtls/library\aes.c ****     X2 = *RK++ ^ AES_RT0( ( Y2       ) & 0xFF ) ^   \
 854:C:/Workspace/DAVE-4.4.2-64Bit/optiga-trust-m/externals/mbedtls/library\aes.c ****                  AES_RT1( ( Y1 >>  8 ) & 0xFF ) ^   \
 855:C:/Workspace/DAVE-4.4.2-64Bit/optiga-trust-m/externals/mbedtls/library\aes.c ****                  AES_RT2( ( Y0 >> 16 ) & 0xFF ) ^   \
 856:C:/Workspace/DAVE-4.4.2-64Bit/optiga-trust-m/externals/mbedtls/library\aes.c ****                  AES_RT3( ( Y3 >> 24 ) & 0xFF );    \
 857:C:/Workspace/DAVE-4.4.2-64Bit/optiga-trust-m/externals/mbedtls/library\aes.c ****                                                     \
 858:C:/Workspace/DAVE-4.4.2-64Bit/optiga-trust-m/externals/mbedtls/library\aes.c ****     X3 = *RK++ ^ AES_RT0( ( Y3       ) & 0xFF ) ^   \
 859:C:/Workspace/DAVE-4.4.2-64Bit/optiga-trust-m/externals/mbedtls/library\aes.c ****                  AES_RT1( ( Y2 >>  8 ) & 0xFF ) ^   \
 860:C:/Workspace/DAVE-4.4.2-64Bit/optiga-trust-m/externals/mbedtls/library\aes.c ****                  AES_RT2( ( Y1 >> 16 ) & 0xFF ) ^   \
 861:C:/Workspace/DAVE-4.4.2-64Bit/optiga-trust-m/externals/mbedtls/library\aes.c ****                  AES_RT3( ( Y0 >> 24 ) & 0xFF );    \
 862:C:/Workspace/DAVE-4.4.2-64Bit/optiga-trust-m/externals/mbedtls/library\aes.c **** }
 863:C:/Workspace/DAVE-4.4.2-64Bit/optiga-trust-m/externals/mbedtls/library\aes.c **** 
 864:C:/Workspace/DAVE-4.4.2-64Bit/optiga-trust-m/externals/mbedtls/library\aes.c **** /*
 865:C:/Workspace/DAVE-4.4.2-64Bit/optiga-trust-m/externals/mbedtls/library\aes.c ****  * AES-ECB block encryption
 866:C:/Workspace/DAVE-4.4.2-64Bit/optiga-trust-m/externals/mbedtls/library\aes.c ****  */
 867:C:/Workspace/DAVE-4.4.2-64Bit/optiga-trust-m/externals/mbedtls/library\aes.c **** #if !defined(MBEDTLS_AES_ENCRYPT_ALT)
 868:C:/Workspace/DAVE-4.4.2-64Bit/optiga-trust-m/externals/mbedtls/library\aes.c **** int mbedtls_internal_aes_encrypt( mbedtls_aes_context *ctx,
 869:C:/Workspace/DAVE-4.4.2-64Bit/optiga-trust-m/externals/mbedtls/library\aes.c ****                                   const unsigned char input[16],
 870:C:/Workspace/DAVE-4.4.2-64Bit/optiga-trust-m/externals/mbedtls/library\aes.c ****                                   unsigned char output[16] )
 871:C:/Workspace/DAVE-4.4.2-64Bit/optiga-trust-m/externals/mbedtls/library\aes.c **** {
 633              	 .loc 1 871 0
 634              	 .cfi_startproc
 635              	.LVL48:
 636 0000 F0B5     	 push {r4,r5,r6,r7,lr}
 637              	.LCFI5:
 638              	 .cfi_def_cfa_offset 20
 639              	 .cfi_offset 4,-20
 640              	 .cfi_offset 5,-16
 641              	 .cfi_offset 6,-12
 642              	 .cfi_offset 7,-8
 643              	 .cfi_offset 14,-4
 872:C:/Workspace/DAVE-4.4.2-64Bit/optiga-trust-m/externals/mbedtls/library\aes.c ****     int i;
 873:C:/Workspace/DAVE-4.4.2-64Bit/optiga-trust-m/externals/mbedtls/library\aes.c ****     uint32_t *RK, X0, X1, X2, X3, Y0, Y1, Y2, Y3;
 874:C:/Workspace/DAVE-4.4.2-64Bit/optiga-trust-m/externals/mbedtls/library\aes.c **** 
 875:C:/Workspace/DAVE-4.4.2-64Bit/optiga-trust-m/externals/mbedtls/library\aes.c ****     RK = ctx->rk;
 876:C:/Workspace/DAVE-4.4.2-64Bit/optiga-trust-m/externals/mbedtls/library\aes.c **** 
 877:C:/Workspace/DAVE-4.4.2-64Bit/optiga-trust-m/externals/mbedtls/library\aes.c ****     GET_UINT32_LE( X0, input,  0 ); X0 ^= *RK++;
 644              	 .loc 1 877 0
 645 0002 4C78     	 ldrb r4,[r1,#1]
 646 0004 8B78     	 ldrb r3,[r1,#2]
 647 0006 2402     	 lsl r4,r4,#8
 648 0008 1B04     	 lsl r3,r3,#16
 871:C:/Workspace/DAVE-4.4.2-64Bit/optiga-trust-m/externals/mbedtls/library\aes.c ****     int i;
 649              	 .loc 1 871 0
 650 000a 87B0     	 sub sp,sp,#28
 651              	.LCFI6:
 652              	 .cfi_def_cfa_offset 48
 653              	 .loc 1 877 0
 654 000c 0E78     	 ldrb r6,[r1]
 655 000e 1C43     	 orr r4,r3
 656 0010 CB78     	 ldrb r3,[r1,#3]
 871:C:/Workspace/DAVE-4.4.2-64Bit/optiga-trust-m/externals/mbedtls/library\aes.c ****     int i;
 657              	 .loc 1 871 0
 658 0012 0092     	 str r2,[sp]
 875:C:/Workspace/DAVE-4.4.2-64Bit/optiga-trust-m/externals/mbedtls/library\aes.c **** 
 659              	 .loc 1 875 0
 660 0014 4268     	 ldr r2,[r0,#4]
 661              	.LVL49:
 662              	 .loc 1 877 0
 663 0016 3443     	 orr r4,r6
 664 0018 1B06     	 lsl r3,r3,#24
 665 001a 1C43     	 orr r4,r3
 666              	.LVL50:
 667 001c 1368     	 ldr r3,[r2]
 878:C:/Workspace/DAVE-4.4.2-64Bit/optiga-trust-m/externals/mbedtls/library\aes.c ****     GET_UINT32_LE( X1, input,  4 ); X1 ^= *RK++;
 668              	 .loc 1 878 0
 669 001e 4E79     	 ldrb r6,[r1,#5]
 877:C:/Workspace/DAVE-4.4.2-64Bit/optiga-trust-m/externals/mbedtls/library\aes.c ****     GET_UINT32_LE( X1, input,  4 ); X1 ^= *RK++;
 670              	 .loc 1 877 0
 671 0020 6340     	 eor r3,r4
 672 0022 0193     	 str r3,[sp,#4]
 673              	.LVL51:
 674              	 .loc 1 878 0
 675 0024 8B79     	 ldrb r3,[r1,#6]
 676              	.LVL52:
 677 0026 3602     	 lsl r6,r6,#8
 678 0028 1B04     	 lsl r3,r3,#16
 679 002a 0C79     	 ldrb r4,[r1,#4]
 680 002c 1E43     	 orr r6,r3
 681 002e CB79     	 ldrb r3,[r1,#7]
 682 0030 2643     	 orr r6,r4
 683 0032 1B06     	 lsl r3,r3,#24
 684 0034 1E43     	 orr r6,r3
 685              	.LVL53:
 686 0036 5368     	 ldr r3,[r2,#4]
 879:C:/Workspace/DAVE-4.4.2-64Bit/optiga-trust-m/externals/mbedtls/library\aes.c ****     GET_UINT32_LE( X2, input,  8 ); X2 ^= *RK++;
 687              	 .loc 1 879 0
 688 0038 4C7A     	 ldrb r4,[r1,#9]
 878:C:/Workspace/DAVE-4.4.2-64Bit/optiga-trust-m/externals/mbedtls/library\aes.c ****     GET_UINT32_LE( X1, input,  4 ); X1 ^= *RK++;
 689              	 .loc 1 878 0
 690 003a 7340     	 eor r3,r6
 691 003c 0293     	 str r3,[sp,#8]
 692              	.LVL54:
 693              	 .loc 1 879 0
 694 003e 8B7A     	 ldrb r3,[r1,#10]
 695              	.LVL55:
 696 0040 2402     	 lsl r4,r4,#8
 697 0042 1B04     	 lsl r3,r3,#16
 698 0044 1C43     	 orr r4,r3
 699 0046 0B7A     	 ldrb r3,[r1,#8]
 880:C:/Workspace/DAVE-4.4.2-64Bit/optiga-trust-m/externals/mbedtls/library\aes.c ****     GET_UINT32_LE( X3, input, 12 ); X3 ^= *RK++;
 700              	 .loc 1 880 0
 701 0048 4D7B     	 ldrb r5,[r1,#13]
 879:C:/Workspace/DAVE-4.4.2-64Bit/optiga-trust-m/externals/mbedtls/library\aes.c ****     GET_UINT32_LE( X2, input,  8 ); X2 ^= *RK++;
 702              	 .loc 1 879 0
 703 004a 1C43     	 orr r4,r3
 704 004c CB7A     	 ldrb r3,[r1,#11]
 705              	 .loc 1 880 0
 706 004e 2D02     	 lsl r5,r5,#8
 879:C:/Workspace/DAVE-4.4.2-64Bit/optiga-trust-m/externals/mbedtls/library\aes.c ****     GET_UINT32_LE( X2, input,  8 ); X2 ^= *RK++;
 707              	 .loc 1 879 0
 708 0050 1B06     	 lsl r3,r3,#24
 709 0052 1C43     	 orr r4,r3
 710              	.LVL56:
 711 0054 9368     	 ldr r3,[r2,#8]
 712 0056 5C40     	 eor r4,r3
 713              	.LVL57:
 714              	 .loc 1 880 0
 715 0058 8B7B     	 ldrb r3,[r1,#14]
 716 005a 1B04     	 lsl r3,r3,#16
 717 005c 1D43     	 orr r5,r3
 718 005e 0B7B     	 ldrb r3,[r1,#12]
 719 0060 C97B     	 ldrb r1,[r1,#15]
 720              	.LVL58:
 721 0062 1D43     	 orr r5,r3
 722 0064 0B06     	 lsl r3,r1,#24
 723 0066 291C     	 mov r1,r5
 724 0068 1943     	 orr r1,r3
 725              	.LVL59:
 726 006a D368     	 ldr r3,[r2,#12]
 727 006c 1032     	 add r2,r2,#16
 728              	.LVL60:
 729 006e 5940     	 eor r1,r3
 730              	.LVL61:
 881:C:/Workspace/DAVE-4.4.2-64Bit/optiga-trust-m/externals/mbedtls/library\aes.c **** 
 882:C:/Workspace/DAVE-4.4.2-64Bit/optiga-trust-m/externals/mbedtls/library\aes.c ****     for( i = ( ctx->nr >> 1 ) - 1; i > 0; i-- )
 731              	 .loc 1 882 0
 732 0070 0368     	 ldr r3,[r0]
 733 0072 5B10     	 asr r3,r3,#1
 734 0074 013B     	 sub r3,r3,#1
 735 0076 0593     	 str r3,[sp,#20]
 736              	.LVL62:
 737              	.L42:
 738              	 .loc 1 882 0 is_stmt 0 discriminator 1
 739 0078 0598     	 ldr r0,[sp,#20]
 740 007a FF23     	 mov r3,#255
 741 007c 0028     	 cmp r0,#0
 742 007e 00DC     	 bgt .LCB720
 743 0080 CDE0     	 b .L44
 744              	.LCB720:
 745              	.LVL63:
 883:C:/Workspace/DAVE-4.4.2-64Bit/optiga-trust-m/externals/mbedtls/library\aes.c ****     {
 884:C:/Workspace/DAVE-4.4.2-64Bit/optiga-trust-m/externals/mbedtls/library\aes.c ****         AES_FROUND( Y0, Y1, Y2, Y3, X0, X1, X2, X3 );
 746              	 .loc 1 884 0 is_stmt 1 discriminator 3
 747 0082 0198     	 ldr r0,[sp,#4]
 748 0084 D74D     	 ldr r5,.L45
 749 0086 1840     	 and r0,r3
 750 0088 8000     	 lsl r0,r0,#2
 751 008a 2F58     	 ldr r7,[r5,r0]
 752 008c 1068     	 ldr r0,[r2]
 753 008e D64D     	 ldr r5,.L45+4
 754 0090 4740     	 eor r7,r0
 755 0092 080E     	 lsr r0,r1,#24
 756 0094 8000     	 lsl r0,r0,#2
 757 0096 4059     	 ldr r0,[r0,r5]
 758 0098 4740     	 eor r7,r0
 759 009a D448     	 ldr r0,.L45+8
 760 009c 8446     	 mov ip,r0
 761 009e 6646     	 mov r6,ip
 762 00a0 0298     	 ldr r0,[sp,#8]
 763 00a2 000A     	 lsr r0,r0,#8
 764 00a4 1840     	 and r0,r3
 765 00a6 8000     	 lsl r0,r0,#2
 766 00a8 8059     	 ldr r0,[r0,r6]
 767 00aa 260C     	 lsr r6,r4,#16
 768 00ac 4740     	 eor r7,r0
 769 00ae 1E40     	 and r6,r3
 770 00b0 CF48     	 ldr r0,.L45+12
 771 00b2 B600     	 lsl r6,r6,#2
 772 00b4 3658     	 ldr r6,[r6,r0]
 773 00b6 6046     	 mov r0,ip
 774 00b8 7740     	 eor r7,r6
 775 00ba 029E     	 ldr r6,[sp,#8]
 776 00bc 0397     	 str r7,[sp,#12]
 777              	.LVL64:
 778 00be 1E40     	 and r6,r3
 779 00c0 C84F     	 ldr r7,.L45
 780              	.LVL65:
 781 00c2 B600     	 lsl r6,r6,#2
 782 00c4 BF59     	 ldr r7,[r7,r6]
 783 00c6 5668     	 ldr r6,[r2,#4]
 784 00c8 7740     	 eor r7,r6
 785 00ca 019E     	 ldr r6,[sp,#4]
 786 00cc 360E     	 lsr r6,r6,#24
 787 00ce B600     	 lsl r6,r6,#2
 788 00d0 7659     	 ldr r6,[r6,r5]
 789 00d2 7740     	 eor r7,r6
 790 00d4 260A     	 lsr r6,r4,#8
 791 00d6 1E40     	 and r6,r3
 792 00d8 B600     	 lsl r6,r6,#2
 793 00da 3658     	 ldr r6,[r6,r0]
 794 00dc C448     	 ldr r0,.L45+12
 795 00de 7740     	 eor r7,r6
 796 00e0 0E0C     	 lsr r6,r1,#16
 797 00e2 1E40     	 and r6,r3
 798 00e4 B600     	 lsl r6,r6,#2
 799 00e6 3658     	 ldr r6,[r6,r0]
 800 00e8 BE48     	 ldr r0,.L45
 801 00ea 7740     	 eor r7,r6
 802 00ec 261C     	 mov r6,r4
 803 00ee 1E40     	 and r6,r3
 804 00f0 B600     	 lsl r6,r6,#2
 805 00f2 0497     	 str r7,[sp,#16]
 806              	.LVL66:
 807 00f4 8759     	 ldr r7,[r0,r6]
 808              	.LVL67:
 809 00f6 9068     	 ldr r0,[r2,#8]
 810 00f8 240E     	 lsr r4,r4,#24
 811              	.LVL68:
 812 00fa 4740     	 eor r7,r0
 813 00fc 0298     	 ldr r0,[sp,#8]
 814 00fe A400     	 lsl r4,r4,#2
 815 0100 060E     	 lsr r6,r0,#24
 816 0102 6046     	 mov r0,ip
 817 0104 B600     	 lsl r6,r6,#2
 818 0106 7659     	 ldr r6,[r6,r5]
 819 0108 7740     	 eor r7,r6
 820 010a 0E0A     	 lsr r6,r1,#8
 821 010c 1E40     	 and r6,r3
 822 010e B600     	 lsl r6,r6,#2
 823 0110 3658     	 ldr r6,[r6,r0]
 824 0112 0198     	 ldr r0,[sp,#4]
 825 0114 7740     	 eor r7,r6
 826 0116 060C     	 lsr r6,r0,#16
 827 0118 1E40     	 and r6,r3
 828 011a B548     	 ldr r0,.L45+12
 829 011c B600     	 lsl r6,r6,#2
 830 011e 3658     	 ldr r6,[r6,r0]
 831 0120 1940     	 and r1,r3
 832              	.LVL69:
 833 0122 B048     	 ldr r0,.L45
 834 0124 8900     	 lsl r1,r1,#2
 835 0126 4158     	 ldr r1,[r0,r1]
 836 0128 D068     	 ldr r0,[r2,#12]
 837 012a 7740     	 eor r7,r6
 838              	.LVL70:
 839 012c 4140     	 eor r1,r0
 840 012e 0198     	 ldr r0,[sp,#4]
 841 0130 6459     	 ldr r4,[r4,r5]
 842 0132 060A     	 lsr r6,r0,#8
 843 0134 6046     	 mov r0,ip
 844 0136 1E40     	 and r6,r3
 845 0138 B600     	 lsl r6,r6,#2
 846 013a 6140     	 eor r1,r4
 847 013c 3458     	 ldr r4,[r6,r0]
 848 013e 0298     	 ldr r0,[sp,#8]
 849 0140 6140     	 eor r1,r4
 850 0142 060C     	 lsr r6,r0,#16
 851 0144 1E40     	 and r6,r3
 852 0146 AA48     	 ldr r0,.L45+12
 853 0148 B600     	 lsl r6,r6,#2
 854 014a 3458     	 ldr r4,[r6,r0]
 885:C:/Workspace/DAVE-4.4.2-64Bit/optiga-trust-m/externals/mbedtls/library\aes.c ****         AES_FROUND( X0, X1, X2, X3, Y0, Y1, Y2, Y3 );
 855              	 .loc 1 885 0 discriminator 3
 856 014c 039E     	 ldr r6,[sp,#12]
 884:C:/Workspace/DAVE-4.4.2-64Bit/optiga-trust-m/externals/mbedtls/library\aes.c ****         AES_FROUND( X0, X1, X2, X3, Y0, Y1, Y2, Y3 );
 857              	 .loc 1 884 0 discriminator 3
 858 014e 6140     	 eor r1,r4
 859              	.LVL71:
 860 0150 A448     	 ldr r0,.L45
 861              	 .loc 1 885 0 discriminator 3
 862 0152 1E40     	 and r6,r3
 863 0154 0C0E     	 lsr r4,r1,#24
 864 0156 B600     	 lsl r6,r6,#2
 865 0158 A400     	 lsl r4,r4,#2
 866 015a 6459     	 ldr r4,[r4,r5]
 867 015c 8659     	 ldr r6,[r0,r6]
 868 015e 1069     	 ldr r0,[r2,#16]
 869 0160 6640     	 eor r6,r4
 870 0162 4640     	 eor r6,r0
 871 0164 0498     	 ldr r0,[sp,#16]
 872 0166 040A     	 lsr r4,r0,#8
 873 0168 6046     	 mov r0,ip
 874 016a 1C40     	 and r4,r3
 875 016c A400     	 lsl r4,r4,#2
 876 016e 2458     	 ldr r4,[r4,r0]
 877 0170 9F48     	 ldr r0,.L45+12
 878 0172 6640     	 eor r6,r4
 879 0174 3C0C     	 lsr r4,r7,#16
 880 0176 1C40     	 and r4,r3
 881 0178 A400     	 lsl r4,r4,#2
 882 017a 2458     	 ldr r4,[r4,r0]
 883 017c 0398     	 ldr r0,[sp,#12]
 884 017e 6640     	 eor r6,r4
 885 0180 0196     	 str r6,[sp,#4]
 886              	.LVL72:
 887 0182 049E     	 ldr r6,[sp,#16]
 888              	.LVL73:
 889 0184 040E     	 lsr r4,r0,#24
 890 0186 1E40     	 and r6,r3
 891 0188 9648     	 ldr r0,.L45
 892 018a B600     	 lsl r6,r6,#2
 893 018c A400     	 lsl r4,r4,#2
 894 018e 6459     	 ldr r4,[r4,r5]
 895 0190 8659     	 ldr r6,[r0,r6]
 896 0192 5069     	 ldr r0,[r2,#20]
 897 0194 6640     	 eor r6,r4
 898 0196 4640     	 eor r6,r0
 899 0198 6046     	 mov r0,ip
 900 019a 3C0A     	 lsr r4,r7,#8
 901 019c 1C40     	 and r4,r3
 902 019e A400     	 lsl r4,r4,#2
 903 01a0 2458     	 ldr r4,[r4,r0]
 904 01a2 9348     	 ldr r0,.L45+12
 905 01a4 6640     	 eor r6,r4
 906 01a6 0C0C     	 lsr r4,r1,#16
 907 01a8 1C40     	 and r4,r3
 908 01aa A400     	 lsl r4,r4,#2
 909 01ac 2458     	 ldr r4,[r4,r0]
 910 01ae 0498     	 ldr r0,[sp,#16]
 911 01b0 6640     	 eor r6,r4
 912 01b2 0296     	 str r6,[sp,#8]
 913              	.LVL74:
 914 01b4 3E1C     	 mov r6,r7
 915              	.LVL75:
 916 01b6 040E     	 lsr r4,r0,#24
 917 01b8 1E40     	 and r6,r3
 918 01ba 8A48     	 ldr r0,.L45
 919 01bc B600     	 lsl r6,r6,#2
 920 01be A400     	 lsl r4,r4,#2
 921 01c0 8659     	 ldr r6,[r0,r6]
 922 01c2 6459     	 ldr r4,[r4,r5]
 923 01c4 9069     	 ldr r0,[r2,#24]
 924 01c6 7440     	 eor r4,r6
 925 01c8 4440     	 eor r4,r0
 926 01ca 6046     	 mov r0,ip
 927 01cc 0E0A     	 lsr r6,r1,#8
 928 01ce 1E40     	 and r6,r3
 929 01d0 B600     	 lsl r6,r6,#2
 930 01d2 3658     	 ldr r6,[r6,r0]
 931 01d4 0398     	 ldr r0,[sp,#12]
 932 01d6 7440     	 eor r4,r6
 933 01d8 060C     	 lsr r6,r0,#16
 934 01da 1E40     	 and r6,r3
 935 01dc 8448     	 ldr r0,.L45+12
 936 01de B600     	 lsl r6,r6,#2
 937 01e0 3658     	 ldr r6,[r6,r0]
 938 01e2 1940     	 and r1,r3
 939              	.LVL76:
 940 01e4 7F48     	 ldr r0,.L45
 941 01e6 3F0E     	 lsr r7,r7,#24
 942              	.LVL77:
 943 01e8 BF00     	 lsl r7,r7,#2
 944 01ea 8900     	 lsl r1,r1,#2
 945 01ec 7D59     	 ldr r5,[r7,r5]
 946 01ee 4158     	 ldr r1,[r0,r1]
 947 01f0 D069     	 ldr r0,[r2,#28]
 948 01f2 6940     	 eor r1,r5
 949 01f4 4140     	 eor r1,r0
 950 01f6 0398     	 ldr r0,[sp,#12]
 951 01f8 7440     	 eor r4,r6
 952              	.LVL78:
 953 01fa 070A     	 lsr r7,r0,#8
 954 01fc 6046     	 mov r0,ip
 955 01fe 1F40     	 and r7,r3
 956 0200 BF00     	 lsl r7,r7,#2
 957 0202 3D58     	 ldr r5,[r7,r0]
 958 0204 0498     	 ldr r0,[sp,#16]
 959 0206 6940     	 eor r1,r5
 960 0208 070C     	 lsr r7,r0,#16
 961 020a 1F40     	 and r7,r3
 962 020c 784B     	 ldr r3,.L45+12
 963 020e BF00     	 lsl r7,r7,#2
 964 0210 FB58     	 ldr r3,[r7,r3]
 965 0212 2032     	 add r2,r2,#32
 966              	.LVL79:
 967 0214 5940     	 eor r1,r3
 968              	.LVL80:
 882:C:/Workspace/DAVE-4.4.2-64Bit/optiga-trust-m/externals/mbedtls/library\aes.c ****     {
 969              	 .loc 1 882 0 discriminator 3
 970 0216 059B     	 ldr r3,[sp,#20]
 971 0218 013B     	 sub r3,r3,#1
 972 021a 0593     	 str r3,[sp,#20]
 973              	.LVL81:
 974 021c 2CE7     	 b .L42
 975              	.LVL82:
 976              	.L44:
 886:C:/Workspace/DAVE-4.4.2-64Bit/optiga-trust-m/externals/mbedtls/library\aes.c ****     }
 887:C:/Workspace/DAVE-4.4.2-64Bit/optiga-trust-m/externals/mbedtls/library\aes.c **** 
 888:C:/Workspace/DAVE-4.4.2-64Bit/optiga-trust-m/externals/mbedtls/library\aes.c ****     AES_FROUND( Y0, Y1, Y2, Y3, X0, X1, X2, X3 );
 977              	 .loc 1 888 0
 978 021e 7248     	 ldr r0,.L45+4
 979              	.LVL83:
 980 0220 019D     	 ldr r5,[sp,#4]
 981 0222 8446     	 mov ip,r0
 982 0224 1D40     	 and r5,r3
 983 0226 6F4E     	 ldr r6,.L45
 984 0228 AD00     	 lsl r5,r5,#2
 985 022a 7659     	 ldr r6,[r6,r5]
 986 022c 6546     	 mov r5,ip
 987 022e 080E     	 lsr r0,r1,#24
 988 0230 8000     	 lsl r0,r0,#2
 989 0232 4059     	 ldr r0,[r0,r5]
 990 0234 6D4F     	 ldr r7,.L45+8
 991 0236 4640     	 eor r6,r0
 992 0238 1068     	 ldr r0,[r2]
 993 023a 6D4D     	 ldr r5,.L45+12
 994 023c 4640     	 eor r6,r0
 995 023e 0298     	 ldr r0,[sp,#8]
 996 0240 000A     	 lsr r0,r0,#8
 997 0242 1840     	 and r0,r3
 998 0244 8000     	 lsl r0,r0,#2
 999 0246 C059     	 ldr r0,[r0,r7]
 1000 0248 4640     	 eor r6,r0
 1001 024a 200C     	 lsr r0,r4,#16
 1002 024c 1840     	 and r0,r3
 1003 024e 8000     	 lsl r0,r0,#2
 1004 0250 4059     	 ldr r0,[r0,r5]
 1005 0252 644D     	 ldr r5,.L45
 1006 0254 4640     	 eor r6,r0
 1007 0256 0396     	 str r6,[sp,#12]
 1008              	.LVL84:
 1009 0258 029E     	 ldr r6,[sp,#8]
 1010              	.LVL85:
 1011 025a 0198     	 ldr r0,[sp,#4]
 1012 025c 1E40     	 and r6,r3
 1013 025e B600     	 lsl r6,r6,#2
 1014 0260 AE59     	 ldr r6,[r5,r6]
 1015 0262 6546     	 mov r5,ip
 1016 0264 000E     	 lsr r0,r0,#24
 1017 0266 8000     	 lsl r0,r0,#2
 1018 0268 4059     	 ldr r0,[r0,r5]
 1019 026a 614D     	 ldr r5,.L45+12
 1020 026c 4640     	 eor r6,r0
 1021 026e 5068     	 ldr r0,[r2,#4]
 1022 0270 4640     	 eor r6,r0
 1023 0272 200A     	 lsr r0,r4,#8
 1024 0274 1840     	 and r0,r3
 1025 0276 8000     	 lsl r0,r0,#2
 1026 0278 C059     	 ldr r0,[r0,r7]
 1027 027a 4640     	 eor r6,r0
 1028 027c 080C     	 lsr r0,r1,#16
 1029 027e 1840     	 and r0,r3
 1030 0280 8000     	 lsl r0,r0,#2
 1031 0282 4059     	 ldr r0,[r0,r5]
 1032 0284 574D     	 ldr r5,.L45
 1033 0286 4640     	 eor r6,r0
 1034 0288 0496     	 str r6,[sp,#16]
 1035              	.LVL86:
 1036 028a 261C     	 mov r6,r4
 1037              	.LVL87:
 1038 028c 1E40     	 and r6,r3
 1039 028e B600     	 lsl r6,r6,#2
 1040 0290 AE59     	 ldr r6,[r5,r6]
 1041 0292 6546     	 mov r5,ip
 1042 0294 0298     	 ldr r0,[sp,#8]
 1043 0296 240E     	 lsr r4,r4,#24
 1044              	.LVL88:
 1045 0298 000E     	 lsr r0,r0,#24
 1046 029a 8000     	 lsl r0,r0,#2
 1047 029c 4059     	 ldr r0,[r0,r5]
 1048 029e 544D     	 ldr r5,.L45+12
 1049 02a0 4640     	 eor r6,r0
 1050 02a2 9068     	 ldr r0,[r2,#8]
 1051 02a4 A400     	 lsl r4,r4,#2
 1052 02a6 4640     	 eor r6,r0
 1053 02a8 080A     	 lsr r0,r1,#8
 1054 02aa 1840     	 and r0,r3
 1055 02ac 8000     	 lsl r0,r0,#2
 1056 02ae C059     	 ldr r0,[r0,r7]
 1057 02b0 1940     	 and r1,r3
 1058              	.LVL89:
 1059 02b2 4640     	 eor r6,r0
 1060 02b4 0198     	 ldr r0,[sp,#4]
 1061 02b6 8900     	 lsl r1,r1,#2
 1062 02b8 000C     	 lsr r0,r0,#16
 1063 02ba 1840     	 and r0,r3
 1064 02bc 8000     	 lsl r0,r0,#2
 1065 02be 4059     	 ldr r0,[r0,r5]
 1066 02c0 4640     	 eor r6,r0
 1067              	.LVL90:
 1068 02c2 4848     	 ldr r0,.L45
 1069 02c4 4158     	 ldr r1,[r0,r1]
 1070 02c6 6046     	 mov r0,ip
 1071 02c8 2058     	 ldr r0,[r4,r0]
 1072 02ca 4140     	 eor r1,r0
 1073 02cc D068     	 ldr r0,[r2,#12]
 1074 02ce 4140     	 eor r1,r0
 1075 02d0 0198     	 ldr r0,[sp,#4]
 1076 02d2 040A     	 lsr r4,r0,#8
 1077 02d4 1C40     	 and r4,r3
 1078 02d6 0298     	 ldr r0,[sp,#8]
 1079 02d8 A400     	 lsl r4,r4,#2
 1080 02da E759     	 ldr r7,[r4,r7]
 1081 02dc 040C     	 lsr r4,r0,#16
 1082 02de 1C40     	 and r4,r3
 1083 02e0 A400     	 lsl r4,r4,#2
 1084 02e2 7940     	 eor r1,r7
 1085 02e4 6759     	 ldr r7,[r4,r5]
 889:C:/Workspace/DAVE-4.4.2-64Bit/optiga-trust-m/externals/mbedtls/library\aes.c **** 
 890:C:/Workspace/DAVE-4.4.2-64Bit/optiga-trust-m/externals/mbedtls/library\aes.c ****     X0 = *RK++ ^ \
 891:C:/Workspace/DAVE-4.4.2-64Bit/optiga-trust-m/externals/mbedtls/library\aes.c ****             ( (uint32_t) FSb[ ( Y0       ) & 0xFF ]       ) ^
 1086              	 .loc 1 891 0
 1087 02e6 0398     	 ldr r0,[sp,#12]
 888:C:/Workspace/DAVE-4.4.2-64Bit/optiga-trust-m/externals/mbedtls/library\aes.c **** 
 1088              	 .loc 1 888 0
 1089 02e8 4F40     	 eor r7,r1
 1090              	.LVL91:
 1091              	 .loc 1 891 0
 1092 02ea 4249     	 ldr r1,.L45+16
 1093 02ec 1840     	 and r0,r3
 1094 02ee 0C5C     	 ldrb r4,[r1,r0]
 1095 02f0 1569     	 ldr r5,[r2,#16]
 892:C:/Workspace/DAVE-4.4.2-64Bit/optiga-trust-m/externals/mbedtls/library\aes.c ****             ( (uint32_t) FSb[ ( Y1 >>  8 ) & 0xFF ] <<  8 ) ^
 893:C:/Workspace/DAVE-4.4.2-64Bit/optiga-trust-m/externals/mbedtls/library\aes.c ****             ( (uint32_t) FSb[ ( Y2 >> 16 ) & 0xFF ] << 16 ) ^
 894:C:/Workspace/DAVE-4.4.2-64Bit/optiga-trust-m/externals/mbedtls/library\aes.c ****             ( (uint32_t) FSb[ ( Y3 >> 24 ) & 0xFF ] << 24 );
 1096              	 .loc 1 894 0
 1097 02f2 380E     	 lsr r0,r7,#24
 1098 02f4 6540     	 eor r5,r4
 1099 02f6 2C1C     	 mov r4,r5
 1100 02f8 085C     	 ldrb r0,[r1,r0]
 1101 02fa 0006     	 lsl r0,r0,#24
 1102 02fc 4440     	 eor r4,r0
 892:C:/Workspace/DAVE-4.4.2-64Bit/optiga-trust-m/externals/mbedtls/library\aes.c ****             ( (uint32_t) FSb[ ( Y1 >>  8 ) & 0xFF ] <<  8 ) ^
 1103              	 .loc 1 892 0
 1104 02fe 0498     	 ldr r0,[sp,#16]
 1105 0300 000A     	 lsr r0,r0,#8
 1106 0302 1840     	 and r0,r3
 1107 0304 0D5C     	 ldrb r5,[r1,r0]
 1108 0306 201C     	 mov r0,r4
 893:C:/Workspace/DAVE-4.4.2-64Bit/optiga-trust-m/externals/mbedtls/library\aes.c ****             ( (uint32_t) FSb[ ( Y3 >> 24 ) & 0xFF ] << 24 );
 1109              	 .loc 1 893 0
 1110 0308 340C     	 lsr r4,r6,#16
 1111 030a 1C40     	 and r4,r3
 892:C:/Workspace/DAVE-4.4.2-64Bit/optiga-trust-m/externals/mbedtls/library\aes.c ****             ( (uint32_t) FSb[ ( Y1 >>  8 ) & 0xFF ] <<  8 ) ^
 1112              	 .loc 1 892 0
 1113 030c 2D02     	 lsl r5,r5,#8
 1114 030e 6840     	 eor r0,r5
 893:C:/Workspace/DAVE-4.4.2-64Bit/optiga-trust-m/externals/mbedtls/library\aes.c ****             ( (uint32_t) FSb[ ( Y3 >> 24 ) & 0xFF ] << 24 );
 1115              	 .loc 1 893 0
 1116 0310 0D5D     	 ldrb r5,[r1,r4]
 1117 0312 5469     	 ldr r4,[r2,#20]
 1118 0314 2D04     	 lsl r5,r5,#16
 890:C:/Workspace/DAVE-4.4.2-64Bit/optiga-trust-m/externals/mbedtls/library\aes.c ****             ( (uint32_t) FSb[ ( Y0       ) & 0xFF ]       ) ^
 1119              	 .loc 1 890 0
 1120 0316 4540     	 eor r5,r0
 1121              	.LVL92:
 895:C:/Workspace/DAVE-4.4.2-64Bit/optiga-trust-m/externals/mbedtls/library\aes.c **** 
 896:C:/Workspace/DAVE-4.4.2-64Bit/optiga-trust-m/externals/mbedtls/library\aes.c ****     X1 = *RK++ ^ \
 897:C:/Workspace/DAVE-4.4.2-64Bit/optiga-trust-m/externals/mbedtls/library\aes.c ****             ( (uint32_t) FSb[ ( Y1       ) & 0xFF ]       ) ^
 1122              	 .loc 1 897 0
 1123 0318 0498     	 ldr r0,[sp,#16]
 1124 031a 1840     	 and r0,r3
 1125 031c 085C     	 ldrb r0,[r1,r0]
 1126 031e 4440     	 eor r4,r0
 898:C:/Workspace/DAVE-4.4.2-64Bit/optiga-trust-m/externals/mbedtls/library\aes.c ****             ( (uint32_t) FSb[ ( Y2 >>  8 ) & 0xFF ] <<  8 ) ^
 899:C:/Workspace/DAVE-4.4.2-64Bit/optiga-trust-m/externals/mbedtls/library\aes.c ****             ( (uint32_t) FSb[ ( Y3 >> 16 ) & 0xFF ] << 16 ) ^
 900:C:/Workspace/DAVE-4.4.2-64Bit/optiga-trust-m/externals/mbedtls/library\aes.c ****             ( (uint32_t) FSb[ ( Y0 >> 24 ) & 0xFF ] << 24 );
 1127              	 .loc 1 900 0
 1128 0320 0398     	 ldr r0,[sp,#12]
 1129 0322 000E     	 lsr r0,r0,#24
 1130 0324 085C     	 ldrb r0,[r1,r0]
 1131 0326 0006     	 lsl r0,r0,#24
 1132 0328 6040     	 eor r0,r4
 898:C:/Workspace/DAVE-4.4.2-64Bit/optiga-trust-m/externals/mbedtls/library\aes.c ****             ( (uint32_t) FSb[ ( Y2 >>  8 ) & 0xFF ] <<  8 ) ^
 1133              	 .loc 1 898 0
 1134 032a 340A     	 lsr r4,r6,#8
 1135 032c 1C40     	 and r4,r3
 1136 032e 0C5D     	 ldrb r4,[r1,r4]
 1137 0330 2402     	 lsl r4,r4,#8
 1138 0332 6040     	 eor r0,r4
 899:C:/Workspace/DAVE-4.4.2-64Bit/optiga-trust-m/externals/mbedtls/library\aes.c ****             ( (uint32_t) FSb[ ( Y0 >> 24 ) & 0xFF ] << 24 );
 1139              	 .loc 1 899 0
 1140 0334 3C0C     	 lsr r4,r7,#16
 1141 0336 1C40     	 and r4,r3
 1142 0338 0C5D     	 ldrb r4,[r1,r4]
 1143 033a 2404     	 lsl r4,r4,#16
 896:C:/Workspace/DAVE-4.4.2-64Bit/optiga-trust-m/externals/mbedtls/library\aes.c ****             ( (uint32_t) FSb[ ( Y1       ) & 0xFF ]       ) ^
 1144              	 .loc 1 896 0
 1145 033c 4440     	 eor r4,r0
 901:C:/Workspace/DAVE-4.4.2-64Bit/optiga-trust-m/externals/mbedtls/library\aes.c **** 
 902:C:/Workspace/DAVE-4.4.2-64Bit/optiga-trust-m/externals/mbedtls/library\aes.c ****     X2 = *RK++ ^ \
 903:C:/Workspace/DAVE-4.4.2-64Bit/optiga-trust-m/externals/mbedtls/library\aes.c ****             ( (uint32_t) FSb[ ( Y2       ) & 0xFF ]       ) ^
 1146              	 .loc 1 903 0
 1147 033e 301C     	 mov r0,r6
 1148 0340 1840     	 and r0,r3
 1149 0342 085C     	 ldrb r0,[r1,r0]
 896:C:/Workspace/DAVE-4.4.2-64Bit/optiga-trust-m/externals/mbedtls/library\aes.c ****             ( (uint32_t) FSb[ ( Y1       ) & 0xFF ]       ) ^
 1150              	 .loc 1 896 0
 1151 0344 0194     	 str r4,[sp,#4]
 1152              	.LVL93:
 1153 0346 9469     	 ldr r4,[r2,#24]
 1154              	.LVL94:
 1155 0348 D269     	 ldr r2,[r2,#28]
 1156              	.LVL95:
 1157 034a 4440     	 eor r4,r0
 904:C:/Workspace/DAVE-4.4.2-64Bit/optiga-trust-m/externals/mbedtls/library\aes.c ****             ( (uint32_t) FSb[ ( Y3 >>  8 ) & 0xFF ] <<  8 ) ^
 905:C:/Workspace/DAVE-4.4.2-64Bit/optiga-trust-m/externals/mbedtls/library\aes.c ****             ( (uint32_t) FSb[ ( Y0 >> 16 ) & 0xFF ] << 16 ) ^
 906:C:/Workspace/DAVE-4.4.2-64Bit/optiga-trust-m/externals/mbedtls/library\aes.c ****             ( (uint32_t) FSb[ ( Y1 >> 24 ) & 0xFF ] << 24 );
 1158              	 .loc 1 906 0
 1159 034c 0498     	 ldr r0,[sp,#16]
 907:C:/Workspace/DAVE-4.4.2-64Bit/optiga-trust-m/externals/mbedtls/library\aes.c **** 
 908:C:/Workspace/DAVE-4.4.2-64Bit/optiga-trust-m/externals/mbedtls/library\aes.c ****     X3 = *RK++ ^ \
 909:C:/Workspace/DAVE-4.4.2-64Bit/optiga-trust-m/externals/mbedtls/library\aes.c ****             ( (uint32_t) FSb[ ( Y3       ) & 0xFF ]       ) ^
 910:C:/Workspace/DAVE-4.4.2-64Bit/optiga-trust-m/externals/mbedtls/library\aes.c ****             ( (uint32_t) FSb[ ( Y0 >>  8 ) & 0xFF ] <<  8 ) ^
 911:C:/Workspace/DAVE-4.4.2-64Bit/optiga-trust-m/externals/mbedtls/library\aes.c ****             ( (uint32_t) FSb[ ( Y1 >> 16 ) & 0xFF ] << 16 ) ^
 912:C:/Workspace/DAVE-4.4.2-64Bit/optiga-trust-m/externals/mbedtls/library\aes.c ****             ( (uint32_t) FSb[ ( Y2 >> 24 ) & 0xFF ] << 24 );
 1160              	 .loc 1 912 0
 1161 034e 360E     	 lsr r6,r6,#24
 1162              	.LVL96:
 906:C:/Workspace/DAVE-4.4.2-64Bit/optiga-trust-m/externals/mbedtls/library\aes.c **** 
 1163              	 .loc 1 906 0
 1164 0350 000E     	 lsr r0,r0,#24
 1165 0352 085C     	 ldrb r0,[r1,r0]
 1166 0354 0006     	 lsl r0,r0,#24
 1167 0356 6040     	 eor r0,r4
 904:C:/Workspace/DAVE-4.4.2-64Bit/optiga-trust-m/externals/mbedtls/library\aes.c ****             ( (uint32_t) FSb[ ( Y3 >>  8 ) & 0xFF ] <<  8 ) ^
 1168              	 .loc 1 904 0
 1169 0358 3C0A     	 lsr r4,r7,#8
 909:C:/Workspace/DAVE-4.4.2-64Bit/optiga-trust-m/externals/mbedtls/library\aes.c ****             ( (uint32_t) FSb[ ( Y0 >>  8 ) & 0xFF ] <<  8 ) ^
 1170              	 .loc 1 909 0
 1171 035a 1F40     	 and r7,r3
 1172              	.LVL97:
 1173 035c CF5D     	 ldrb r7,[r1,r7]
 904:C:/Workspace/DAVE-4.4.2-64Bit/optiga-trust-m/externals/mbedtls/library\aes.c ****             ( (uint32_t) FSb[ ( Y0 >> 16 ) & 0xFF ] << 16 ) ^
 1174              	 .loc 1 904 0
 1175 035e 1C40     	 and r4,r3
 1176 0360 0C5D     	 ldrb r4,[r1,r4]
 1177 0362 5740     	 eor r7,r2
 1178              	 .loc 1 912 0
 1179 0364 8A5D     	 ldrb r2,[r1,r6]
 904:C:/Workspace/DAVE-4.4.2-64Bit/optiga-trust-m/externals/mbedtls/library\aes.c ****             ( (uint32_t) FSb[ ( Y0 >> 16 ) & 0xFF ] << 16 ) ^
 1180              	 .loc 1 904 0
 1181 0366 2402     	 lsl r4,r4,#8
 1182              	 .loc 1 912 0
 1183 0368 1206     	 lsl r2,r2,#24
 1184 036a 4440     	 eor r4,r0
 1185 036c 5740     	 eor r7,r2
 905:C:/Workspace/DAVE-4.4.2-64Bit/optiga-trust-m/externals/mbedtls/library\aes.c ****             ( (uint32_t) FSb[ ( Y1 >> 24 ) & 0xFF ] << 24 );
 1186              	 .loc 1 905 0
 1187 036e 0398     	 ldr r0,[sp,#12]
 910:C:/Workspace/DAVE-4.4.2-64Bit/optiga-trust-m/externals/mbedtls/library\aes.c ****             ( (uint32_t) FSb[ ( Y1 >> 16 ) & 0xFF ] << 16 ) ^
 1188              	 .loc 1 910 0
 1189 0370 039A     	 ldr r2,[sp,#12]
 905:C:/Workspace/DAVE-4.4.2-64Bit/optiga-trust-m/externals/mbedtls/library\aes.c ****             ( (uint32_t) FSb[ ( Y1 >> 24 ) & 0xFF ] << 24 );
 1190              	 .loc 1 905 0
 1191 0372 000C     	 lsr r0,r0,#16
 910:C:/Workspace/DAVE-4.4.2-64Bit/optiga-trust-m/externals/mbedtls/library\aes.c ****             ( (uint32_t) FSb[ ( Y1 >> 16 ) & 0xFF ] << 16 ) ^
 1192              	 .loc 1 910 0
 1193 0374 160A     	 lsr r6,r2,#8
 1194 0376 1E40     	 and r6,r3
 905:C:/Workspace/DAVE-4.4.2-64Bit/optiga-trust-m/externals/mbedtls/library\aes.c ****             ( (uint32_t) FSb[ ( Y1 >> 24 ) & 0xFF ] << 24 );
 1195              	 .loc 1 905 0
 1196 0378 1840     	 and r0,r3
 1197 037a 085C     	 ldrb r0,[r1,r0]
 910:C:/Workspace/DAVE-4.4.2-64Bit/optiga-trust-m/externals/mbedtls/library\aes.c ****             ( (uint32_t) FSb[ ( Y1 >> 16 ) & 0xFF ] << 16 ) ^
 1198              	 .loc 1 910 0
 1199 037c 8A5D     	 ldrb r2,[r1,r6]
 905:C:/Workspace/DAVE-4.4.2-64Bit/optiga-trust-m/externals/mbedtls/library\aes.c ****             ( (uint32_t) FSb[ ( Y1 >> 24 ) & 0xFF ] << 24 );
 1200              	 .loc 1 905 0
 1201 037e 0004     	 lsl r0,r0,#16
 910:C:/Workspace/DAVE-4.4.2-64Bit/optiga-trust-m/externals/mbedtls/library\aes.c ****             ( (uint32_t) FSb[ ( Y1 >> 16 ) & 0xFF ] << 16 ) ^
 1202              	 .loc 1 910 0
 1203 0380 1202     	 lsl r2,r2,#8
 1204 0382 5740     	 eor r7,r2
 911:C:/Workspace/DAVE-4.4.2-64Bit/optiga-trust-m/externals/mbedtls/library\aes.c ****             ( (uint32_t) FSb[ ( Y2 >> 24 ) & 0xFF ] << 24 );
 1205              	 .loc 1 911 0
 1206 0384 049A     	 ldr r2,[sp,#16]
 902:C:/Workspace/DAVE-4.4.2-64Bit/optiga-trust-m/externals/mbedtls/library\aes.c ****             ( (uint32_t) FSb[ ( Y2       ) & 0xFF ]       ) ^
 1207              	 .loc 1 902 0
 1208 0386 6040     	 eor r0,r4
 1209              	.LVL98:
 911:C:/Workspace/DAVE-4.4.2-64Bit/optiga-trust-m/externals/mbedtls/library\aes.c ****             ( (uint32_t) FSb[ ( Y2 >> 24 ) & 0xFF ] << 24 );
 1210              	 .loc 1 911 0
 1211 0388 160C     	 lsr r6,r2,#16
 1212 038a 3340     	 and r3,r6
 1213 038c CA5C     	 ldrb r2,[r1,r3]
 913:C:/Workspace/DAVE-4.4.2-64Bit/optiga-trust-m/externals/mbedtls/library\aes.c **** 
 914:C:/Workspace/DAVE-4.4.2-64Bit/optiga-trust-m/externals/mbedtls/library\aes.c ****     PUT_UINT32_LE( X0, output,  0 );
 1214              	 .loc 1 914 0
 1215 038e 009B     	 ldr r3,[sp]
 1216 0390 0099     	 ldr r1,[sp]
 1217 0392 1D70     	 strb r5,[r3]
 1218 0394 2B0A     	 lsr r3,r5,#8
 1219 0396 4B70     	 strb r3,[r1,#1]
 1220 0398 2B0C     	 lsr r3,r5,#16
 1221 039a 2D0E     	 lsr r5,r5,#24
 1222              	.LVL99:
 1223 039c 8B70     	 strb r3,[r1,#2]
 1224 039e CD70     	 strb r5,[r1,#3]
 1225 03a0 0B1C     	 mov r3,r1
 915:C:/Workspace/DAVE-4.4.2-64Bit/optiga-trust-m/externals/mbedtls/library\aes.c ****     PUT_UINT32_LE( X1, output,  4 );
 1226              	 .loc 1 915 0
 1227 03a2 6946     	 mov r1,sp
 1228 03a4 0979     	 ldrb r1,[r1,#4]
 911:C:/Workspace/DAVE-4.4.2-64Bit/optiga-trust-m/externals/mbedtls/library\aes.c ****             ( (uint32_t) FSb[ ( Y2 >> 24 ) & 0xFF ] << 24 );
 1229              	 .loc 1 911 0
 1230 03a6 1204     	 lsl r2,r2,#16
 1231              	 .loc 1 915 0
 1232 03a8 1971     	 strb r1,[r3,#4]
 1233 03aa 019B     	 ldr r3,[sp,#4]
 1234 03ac 0099     	 ldr r1,[sp]
 1235 03ae 1B0A     	 lsr r3,r3,#8
 1236 03b0 4B71     	 strb r3,[r1,#5]
 1237 03b2 019B     	 ldr r3,[sp,#4]
 916:C:/Workspace/DAVE-4.4.2-64Bit/optiga-trust-m/externals/mbedtls/library\aes.c ****     PUT_UINT32_LE( X2, output,  8 );
 1238              	 .loc 1 916 0
 1239 03b4 0872     	 strb r0,[r1,#8]
 915:C:/Workspace/DAVE-4.4.2-64Bit/optiga-trust-m/externals/mbedtls/library\aes.c ****     PUT_UINT32_LE( X1, output,  4 );
 1240              	 .loc 1 915 0
 1241 03b6 1B0C     	 lsr r3,r3,#16
 1242 03b8 8B71     	 strb r3,[r1,#6]
 1243 03ba 019B     	 ldr r3,[sp,#4]
 908:C:/Workspace/DAVE-4.4.2-64Bit/optiga-trust-m/externals/mbedtls/library\aes.c ****             ( (uint32_t) FSb[ ( Y3       ) & 0xFF ]       ) ^
 1244              	 .loc 1 908 0
 1245 03bc 7A40     	 eor r2,r7
 1246              	.LVL100:
 915:C:/Workspace/DAVE-4.4.2-64Bit/optiga-trust-m/externals/mbedtls/library\aes.c ****     PUT_UINT32_LE( X2, output,  8 );
 1247              	 .loc 1 915 0
 1248 03be 1C0E     	 lsr r4,r3,#24
 1249              	 .loc 1 916 0
 1250 03c0 030A     	 lsr r3,r0,#8
 1251 03c2 4B72     	 strb r3,[r1,#9]
 1252 03c4 030C     	 lsr r3,r0,#16
 1253 03c6 000E     	 lsr r0,r0,#24
 1254              	.LVL101:
 1255 03c8 C872     	 strb r0,[r1,#11]
 917:C:/Workspace/DAVE-4.4.2-64Bit/optiga-trust-m/externals/mbedtls/library\aes.c ****     PUT_UINT32_LE( X3, output, 12 );
 918:C:/Workspace/DAVE-4.4.2-64Bit/optiga-trust-m/externals/mbedtls/library\aes.c **** 
 919:C:/Workspace/DAVE-4.4.2-64Bit/optiga-trust-m/externals/mbedtls/library\aes.c ****     return( 0 );
 920:C:/Workspace/DAVE-4.4.2-64Bit/optiga-trust-m/externals/mbedtls/library\aes.c **** }
 1256              	 .loc 1 920 0
 1257 03ca 0020     	 mov r0,#0
 916:C:/Workspace/DAVE-4.4.2-64Bit/optiga-trust-m/externals/mbedtls/library\aes.c ****     PUT_UINT32_LE( X3, output, 12 );
 1258              	 .loc 1 916 0
 1259 03cc 8B72     	 strb r3,[r1,#10]
 917:C:/Workspace/DAVE-4.4.2-64Bit/optiga-trust-m/externals/mbedtls/library\aes.c ****     PUT_UINT32_LE( X3, output, 12 );
 1260              	 .loc 1 917 0
 1261 03ce 130A     	 lsr r3,r2,#8
 1262 03d0 0A73     	 strb r2,[r1,#12]
 1263 03d2 4B73     	 strb r3,[r1,#13]
 1264 03d4 130C     	 lsr r3,r2,#16
 1265 03d6 120E     	 lsr r2,r2,#24
 1266              	.LVL102:
 915:C:/Workspace/DAVE-4.4.2-64Bit/optiga-trust-m/externals/mbedtls/library\aes.c ****     PUT_UINT32_LE( X2, output,  8 );
 1267              	 .loc 1 915 0
 1268 03d8 CC71     	 strb r4,[r1,#7]
 917:C:/Workspace/DAVE-4.4.2-64Bit/optiga-trust-m/externals/mbedtls/library\aes.c ****     PUT_UINT32_LE( X3, output, 12 );
 1269              	 .loc 1 917 0
 1270 03da 8B73     	 strb r3,[r1,#14]
 1271 03dc CA73     	 strb r2,[r1,#15]
 1272              	 .loc 1 920 0
 1273 03de 07B0     	 add sp,sp,#28
 1274              	.LVL103:
 1275              	 
 1276              	.LVL104:
 1277              	.LVL105:
 1278 03e0 F0BD     	 pop {r4,r5,r6,r7,pc}
 1279              	.L46:
 1280 03e2 C046     	 .align 2
 1281              	.L45:
 1282 03e4 00000000 	 .word .LANCHOR6
 1283 03e8 00000000 	 .word .LANCHOR7
 1284 03ec 00000000 	 .word .LANCHOR8
 1285 03f0 00000000 	 .word .LANCHOR9
 1286 03f4 00000000 	 .word .LANCHOR1
 1287              	 .cfi_endproc
 1288              	.LFE4:
 1290              	 .section .text.mbedtls_aes_encrypt,"ax",%progbits
 1291              	 .align 1
 1292              	 .global mbedtls_aes_encrypt
 1293              	 .code 16
 1294              	 .thumb_func
 1296              	mbedtls_aes_encrypt:
 1297              	.LFB5:
 921:C:/Workspace/DAVE-4.4.2-64Bit/optiga-trust-m/externals/mbedtls/library\aes.c **** #endif /* !MBEDTLS_AES_ENCRYPT_ALT */
 922:C:/Workspace/DAVE-4.4.2-64Bit/optiga-trust-m/externals/mbedtls/library\aes.c **** 
 923:C:/Workspace/DAVE-4.4.2-64Bit/optiga-trust-m/externals/mbedtls/library\aes.c **** #if !defined(MBEDTLS_DEPRECATED_REMOVED)
 924:C:/Workspace/DAVE-4.4.2-64Bit/optiga-trust-m/externals/mbedtls/library\aes.c **** void mbedtls_aes_encrypt( mbedtls_aes_context *ctx,
 925:C:/Workspace/DAVE-4.4.2-64Bit/optiga-trust-m/externals/mbedtls/library\aes.c ****                           const unsigned char input[16],
 926:C:/Workspace/DAVE-4.4.2-64Bit/optiga-trust-m/externals/mbedtls/library\aes.c ****                           unsigned char output[16] )
 927:C:/Workspace/DAVE-4.4.2-64Bit/optiga-trust-m/externals/mbedtls/library\aes.c **** {
 1298              	 .loc 1 927 0
 1299              	 .cfi_startproc
 1300              	.LVL106:
 1301 0000 08B5     	 push {r3,lr}
 1302              	.LCFI7:
 1303              	 .cfi_def_cfa_offset 8
 1304              	 .cfi_offset 3,-8
 1305              	 .cfi_offset 14,-4
 928:C:/Workspace/DAVE-4.4.2-64Bit/optiga-trust-m/externals/mbedtls/library\aes.c ****     mbedtls_internal_aes_encrypt( ctx, input, output );
 1306              	 .loc 1 928 0
 1307 0002 FFF7FEFF 	 bl mbedtls_internal_aes_encrypt
 1308              	.LVL107:
 929:C:/Workspace/DAVE-4.4.2-64Bit/optiga-trust-m/externals/mbedtls/library\aes.c **** }
 1309              	 .loc 1 929 0
 1310              	 
 1311 0006 08BD     	 pop {r3,pc}
 1312              	 .cfi_endproc
 1313              	.LFE5:
 1315              	 .section .text.mbedtls_internal_aes_decrypt,"ax",%progbits
 1316              	 .align 1
 1317              	 .global mbedtls_internal_aes_decrypt
 1318              	 .code 16
 1319              	 .thumb_func
 1321              	mbedtls_internal_aes_decrypt:
 1322              	.LFB6:
 930:C:/Workspace/DAVE-4.4.2-64Bit/optiga-trust-m/externals/mbedtls/library\aes.c **** #endif /* !MBEDTLS_DEPRECATED_REMOVED */
 931:C:/Workspace/DAVE-4.4.2-64Bit/optiga-trust-m/externals/mbedtls/library\aes.c **** 
 932:C:/Workspace/DAVE-4.4.2-64Bit/optiga-trust-m/externals/mbedtls/library\aes.c **** /*
 933:C:/Workspace/DAVE-4.4.2-64Bit/optiga-trust-m/externals/mbedtls/library\aes.c ****  * AES-ECB block decryption
 934:C:/Workspace/DAVE-4.4.2-64Bit/optiga-trust-m/externals/mbedtls/library\aes.c ****  */
 935:C:/Workspace/DAVE-4.4.2-64Bit/optiga-trust-m/externals/mbedtls/library\aes.c **** #if !defined(MBEDTLS_AES_DECRYPT_ALT)
 936:C:/Workspace/DAVE-4.4.2-64Bit/optiga-trust-m/externals/mbedtls/library\aes.c **** int mbedtls_internal_aes_decrypt( mbedtls_aes_context *ctx,
 937:C:/Workspace/DAVE-4.4.2-64Bit/optiga-trust-m/externals/mbedtls/library\aes.c ****                                   const unsigned char input[16],
 938:C:/Workspace/DAVE-4.4.2-64Bit/optiga-trust-m/externals/mbedtls/library\aes.c ****                                   unsigned char output[16] )
 939:C:/Workspace/DAVE-4.4.2-64Bit/optiga-trust-m/externals/mbedtls/library\aes.c **** {
 1323              	 .loc 1 939 0
 1324              	 .cfi_startproc
 1325              	.LVL108:
 1326 0000 F0B5     	 push {r4,r5,r6,r7,lr}
 1327              	.LCFI8:
 1328              	 .cfi_def_cfa_offset 20
 1329              	 .cfi_offset 4,-20
 1330              	 .cfi_offset 5,-16
 1331              	 .cfi_offset 6,-12
 1332              	 .cfi_offset 7,-8
 1333              	 .cfi_offset 14,-4
 1334 0002 89B0     	 sub sp,sp,#36
 1335              	.LCFI9:
 1336              	 .cfi_def_cfa_offset 56
 940:C:/Workspace/DAVE-4.4.2-64Bit/optiga-trust-m/externals/mbedtls/library\aes.c ****     int i;
 941:C:/Workspace/DAVE-4.4.2-64Bit/optiga-trust-m/externals/mbedtls/library\aes.c ****     uint32_t *RK, X0, X1, X2, X3, Y0, Y1, Y2, Y3;
 942:C:/Workspace/DAVE-4.4.2-64Bit/optiga-trust-m/externals/mbedtls/library\aes.c **** 
 943:C:/Workspace/DAVE-4.4.2-64Bit/optiga-trust-m/externals/mbedtls/library\aes.c ****     RK = ctx->rk;
 944:C:/Workspace/DAVE-4.4.2-64Bit/optiga-trust-m/externals/mbedtls/library\aes.c **** 
 945:C:/Workspace/DAVE-4.4.2-64Bit/optiga-trust-m/externals/mbedtls/library\aes.c ****     GET_UINT32_LE( X0, input,  0 ); X0 ^= *RK++;
 1337              	 .loc 1 945 0
 1338 0004 4E78     	 ldrb r6,[r1,#1]
 939:C:/Workspace/DAVE-4.4.2-64Bit/optiga-trust-m/externals/mbedtls/library\aes.c ****     int i;
 1339              	 .loc 1 939 0
 1340 0006 0292     	 str r2,[sp,#8]
 1341              	 .loc 1 945 0
 1342 0008 8A78     	 ldrb r2,[r1,#2]
 1343              	.LVL109:
 1344 000a 3602     	 lsl r6,r6,#8
 1345 000c 1204     	 lsl r2,r2,#16
 943:C:/Workspace/DAVE-4.4.2-64Bit/optiga-trust-m/externals/mbedtls/library\aes.c **** 
 1346              	 .loc 1 943 0
 1347 000e 4368     	 ldr r3,[r0,#4]
 1348              	.LVL110:
 1349 0010 1643     	 orr r6,r2
 1350              	 .loc 1 945 0
 1351 0012 CC78     	 ldrb r4,[r1,#3]
 1352 0014 0A78     	 ldrb r2,[r1]
 1353 0016 2406     	 lsl r4,r4,#24
 1354 0018 1643     	 orr r6,r2
 1355 001a 1A68     	 ldr r2,[r3]
 1356 001c 2643     	 orr r6,r4
 1357              	.LVL111:
 1358 001e 7240     	 eor r2,r6
 1359 0020 0392     	 str r2,[sp,#12]
 1360              	.LVL112:
 946:C:/Workspace/DAVE-4.4.2-64Bit/optiga-trust-m/externals/mbedtls/library\aes.c ****     GET_UINT32_LE( X1, input,  4 ); X1 ^= *RK++;
 1361              	 .loc 1 946 0
 1362 0022 4A79     	 ldrb r2,[r1,#5]
 1363              	.LVL113:
 1364 0024 CC79     	 ldrb r4,[r1,#7]
 1365 0026 1602     	 lsl r6,r2,#8
 1366 0028 8A79     	 ldrb r2,[r1,#6]
 1367 002a 2406     	 lsl r4,r4,#24
 1368 002c 1204     	 lsl r2,r2,#16
 1369 002e 3243     	 orr r2,r6
 1370 0030 0E79     	 ldrb r6,[r1,#4]
 1371 0032 3243     	 orr r2,r6
 1372 0034 2243     	 orr r2,r4
 1373              	.LVL114:
 1374 0036 5C68     	 ldr r4,[r3,#4]
 1375 0038 5440     	 eor r4,r2
 947:C:/Workspace/DAVE-4.4.2-64Bit/optiga-trust-m/externals/mbedtls/library\aes.c ****     GET_UINT32_LE( X2, input,  8 ); X2 ^= *RK++;
 1376              	 .loc 1 947 0
 1377 003a 4A7A     	 ldrb r2,[r1,#9]
 1378              	.LVL115:
 946:C:/Workspace/DAVE-4.4.2-64Bit/optiga-trust-m/externals/mbedtls/library\aes.c ****     GET_UINT32_LE( X1, input,  4 ); X1 ^= *RK++;
 1379              	 .loc 1 946 0
 1380 003c 0494     	 str r4,[sp,#16]
 1381              	.LVL116:
 1382              	 .loc 1 947 0
 1383 003e 1402     	 lsl r4,r2,#8
 1384              	.LVL117:
 1385 0040 8A7A     	 ldrb r2,[r1,#10]
 1386 0042 1204     	 lsl r2,r2,#16
 1387 0044 2243     	 orr r2,r4
 1388 0046 0C7A     	 ldrb r4,[r1,#8]
 1389 0048 2243     	 orr r2,r4
 1390 004a CC7A     	 ldrb r4,[r1,#11]
 1391 004c 2406     	 lsl r4,r4,#24
 1392 004e 2243     	 orr r2,r4
 1393              	.LVL118:
 1394 0050 9C68     	 ldr r4,[r3,#8]
 1395 0052 6240     	 eor r2,r4
 1396              	.LVL119:
 948:C:/Workspace/DAVE-4.4.2-64Bit/optiga-trust-m/externals/mbedtls/library\aes.c ****     GET_UINT32_LE( X3, input, 12 ); X3 ^= *RK++;
 1397              	 .loc 1 948 0
 1398 0054 4C7B     	 ldrb r4,[r1,#13]
 1399 0056 2502     	 lsl r5,r4,#8
 1400 0058 8C7B     	 ldrb r4,[r1,#14]
 1401 005a 2404     	 lsl r4,r4,#16
 1402 005c 2C43     	 orr r4,r5
 1403 005e 0D7B     	 ldrb r5,[r1,#12]
 1404 0060 C97B     	 ldrb r1,[r1,#15]
 1405              	.LVL120:
 1406 0062 2C43     	 orr r4,r5
 1407 0064 0906     	 lsl r1,r1,#24
 1408 0066 0C43     	 orr r4,r1
 1409              	.LVL121:
 1410 0068 D968     	 ldr r1,[r3,#12]
 1411 006a 1033     	 add r3,r3,#16
 1412              	.LVL122:
 1413 006c 4C40     	 eor r4,r1
 1414              	.LVL123:
 949:C:/Workspace/DAVE-4.4.2-64Bit/optiga-trust-m/externals/mbedtls/library\aes.c **** 
 950:C:/Workspace/DAVE-4.4.2-64Bit/optiga-trust-m/externals/mbedtls/library\aes.c ****     for( i = ( ctx->nr >> 1 ) - 1; i > 0; i-- )
 1415              	 .loc 1 950 0
 1416 006e 0168     	 ldr r1,[r0]
 1417 0070 4910     	 asr r1,r1,#1
 1418 0072 0139     	 sub r1,r1,#1
 1419 0074 0791     	 str r1,[sp,#28]
 1420              	.LVL124:
 1421              	.L51:
 1422              	 .loc 1 950 0 is_stmt 0 discriminator 3
 1423 0076 0799     	 ldr r1,[sp,#28]
 1424 0078 0193     	 str r3,[sp,#4]
 1425              	.LVL125:
 1426 007a FF23     	 mov r3,#255
 1427 007c 0029     	 cmp r1,#0
 1428 007e 00DC     	 bgt .LCB1414
 1429 0080 CDE0     	 b .L52
 1430              	.LCB1414:
 1431              	.LVL126:
 951:C:/Workspace/DAVE-4.4.2-64Bit/optiga-trust-m/externals/mbedtls/library\aes.c ****     {
 952:C:/Workspace/DAVE-4.4.2-64Bit/optiga-trust-m/externals/mbedtls/library\aes.c ****         AES_RROUND( Y0, Y1, Y2, Y3, X0, X1, X2, X3 );
 1432              	 .loc 1 952 0 is_stmt 1 discriminator 3
 1433 0082 0398     	 ldr r0,[sp,#12]
 1434 0084 DF49     	 ldr r1,.L53
 1435              	.LVL127:
 1436 0086 1840     	 and r0,r3
 1437 0088 8000     	 lsl r0,r0,#2
 1438 008a 0F58     	 ldr r7,[r1,r0]
 1439 008c 0199     	 ldr r1,[sp,#4]
 1440 008e DE4D     	 ldr r5,.L53+4
 1441 0090 0968     	 ldr r1,[r1]
 1442 0092 160C     	 lsr r6,r2,#16
 1443 0094 4F40     	 eor r7,r1
 1444 0096 0499     	 ldr r1,[sp,#16]
 1445 0098 1E40     	 and r6,r3
 1446 009a 080E     	 lsr r0,r1,#24
 1447 009c DB49     	 ldr r1,.L53+8
 1448 009e 8000     	 lsl r0,r0,#2
 1449 00a0 8C46     	 mov ip,r1
 1450 00a2 4059     	 ldr r0,[r0,r5]
 1451 00a4 B600     	 lsl r6,r6,#2
 1452 00a6 4740     	 eor r7,r0
 1453 00a8 200A     	 lsr r0,r4,#8
 1454 00aa 1840     	 and r0,r3
 1455 00ac 8000     	 lsl r0,r0,#2
 1456 00ae 4058     	 ldr r0,[r0,r1]
 1457 00b0 D449     	 ldr r1,.L53
 1458 00b2 4740     	 eor r7,r0
 1459 00b4 D648     	 ldr r0,.L53+12
 1460 00b6 3658     	 ldr r6,[r6,r0]
 1461 00b8 7740     	 eor r7,r6
 1462 00ba 049E     	 ldr r6,[sp,#16]
 1463 00bc 0597     	 str r7,[sp,#20]
 1464              	.LVL128:
 1465 00be 1E40     	 and r6,r3
 1466 00c0 B600     	 lsl r6,r6,#2
 1467 00c2 8F59     	 ldr r7,[r1,r6]
 1468              	.LVL129:
 1469 00c4 0199     	 ldr r1,[sp,#4]
 1470 00c6 160E     	 lsr r6,r2,#24
 1471 00c8 4968     	 ldr r1,[r1,#4]
 1472 00ca B600     	 lsl r6,r6,#2
 1473 00cc 7659     	 ldr r6,[r6,r5]
 1474 00ce 4F40     	 eor r7,r1
 1475 00d0 0399     	 ldr r1,[sp,#12]
 1476 00d2 7740     	 eor r7,r6
 1477 00d4 0E0A     	 lsr r6,r1,#8
 1478 00d6 6146     	 mov r1,ip
 1479 00d8 1E40     	 and r6,r3
 1480 00da B600     	 lsl r6,r6,#2
 1481 00dc 7658     	 ldr r6,[r6,r1]
 1482 00de C949     	 ldr r1,.L53
 1483 00e0 7740     	 eor r7,r6
 1484 00e2 260C     	 lsr r6,r4,#16
 1485 00e4 1E40     	 and r6,r3
 1486 00e6 B600     	 lsl r6,r6,#2
 1487 00e8 3658     	 ldr r6,[r6,r0]
 1488 00ea 7740     	 eor r7,r6
 1489 00ec 161C     	 mov r6,r2
 1490 00ee 1E40     	 and r6,r3
 1491 00f0 B600     	 lsl r6,r6,#2
 1492 00f2 0697     	 str r7,[sp,#24]
 1493              	.LVL130:
 1494 00f4 8F59     	 ldr r7,[r1,r6]
 1495              	.LVL131:
 1496 00f6 0199     	 ldr r1,[sp,#4]
 1497 00f8 260E     	 lsr r6,r4,#24
 1498 00fa 8968     	 ldr r1,[r1,#8]
 1499 00fc B600     	 lsl r6,r6,#2
 1500 00fe 7659     	 ldr r6,[r6,r5]
 1501 0100 4F40     	 eor r7,r1
 1502 0102 0499     	 ldr r1,[sp,#16]
 1503 0104 7740     	 eor r7,r6
 1504 0106 0E0A     	 lsr r6,r1,#8
 1505 0108 6146     	 mov r1,ip
 1506 010a 1E40     	 and r6,r3
 1507 010c B600     	 lsl r6,r6,#2
 1508 010e 7658     	 ldr r6,[r6,r1]
 1509 0110 0399     	 ldr r1,[sp,#12]
 1510 0112 7740     	 eor r7,r6
 1511 0114 0E0C     	 lsr r6,r1,#16
 1512 0116 1E40     	 and r6,r3
 1513 0118 1C40     	 and r4,r3
 1514              	.LVL132:
 1515 011a BA49     	 ldr r1,.L53
 1516 011c B600     	 lsl r6,r6,#2
 1517 011e A400     	 lsl r4,r4,#2
 1518 0120 3658     	 ldr r6,[r6,r0]
 1519 0122 0C59     	 ldr r4,[r1,r4]
 1520 0124 0199     	 ldr r1,[sp,#4]
 1521 0126 7740     	 eor r7,r6
 1522              	.LVL133:
 1523 0128 C968     	 ldr r1,[r1,#12]
 1524 012a 120A     	 lsr r2,r2,#8
 1525              	.LVL134:
 1526 012c 4C40     	 eor r4,r1
 1527 012e 0399     	 ldr r1,[sp,#12]
 1528 0130 1A40     	 and r2,r3
 1529 0132 0E0E     	 lsr r6,r1,#24
 1530 0134 6146     	 mov r1,ip
 1531 0136 B600     	 lsl r6,r6,#2
 1532 0138 7659     	 ldr r6,[r6,r5]
 1533 013a 9200     	 lsl r2,r2,#2
 1534 013c 6640     	 eor r6,r4
 1535 013e 5458     	 ldr r4,[r2,r1]
 1536 0140 B049     	 ldr r1,.L53
 1537 0142 7440     	 eor r4,r6
 953:C:/Workspace/DAVE-4.4.2-64Bit/optiga-trust-m/externals/mbedtls/library\aes.c ****         AES_RROUND( X0, X1, X2, X3, Y0, Y1, Y2, Y3 );
 1538              	 .loc 1 953 0 discriminator 3
 1539 0144 059E     	 ldr r6,[sp,#20]
 952:C:/Workspace/DAVE-4.4.2-64Bit/optiga-trust-m/externals/mbedtls/library\aes.c ****         AES_RROUND( X0, X1, X2, X3, Y0, Y1, Y2, Y3 );
 1540              	 .loc 1 952 0 discriminator 3
 1541 0146 049A     	 ldr r2,[sp,#16]
 1542              	 .loc 1 953 0 discriminator 3
 1543 0148 1E40     	 and r6,r3
 1544 014a B600     	 lsl r6,r6,#2
 1545 014c 8E59     	 ldr r6,[r1,r6]
 1546 014e 6146     	 mov r1,ip
 952:C:/Workspace/DAVE-4.4.2-64Bit/optiga-trust-m/externals/mbedtls/library\aes.c ****         AES_RROUND( X0, X1, X2, X3, Y0, Y1, Y2, Y3 );
 1547              	 .loc 1 952 0 discriminator 3
 1548 0150 120C     	 lsr r2,r2,#16
 1549 0152 1A40     	 and r2,r3
 1550 0154 9200     	 lsl r2,r2,#2
 1551 0156 1258     	 ldr r2,[r2,r0]
 1552 0158 5440     	 eor r4,r2
 1553              	.LVL135:
 1554              	 .loc 1 953 0 discriminator 3
 1555 015a 069A     	 ldr r2,[sp,#24]
 1556 015c 120E     	 lsr r2,r2,#24
 1557 015e 9200     	 lsl r2,r2,#2
 1558 0160 5259     	 ldr r2,[r2,r5]
 1559 0162 5640     	 eor r6,r2
 1560 0164 019A     	 ldr r2,[sp,#4]
 1561 0166 1269     	 ldr r2,[r2,#16]
 1562 0168 5640     	 eor r6,r2
 1563 016a 220A     	 lsr r2,r4,#8
 1564 016c 1A40     	 and r2,r3
 1565 016e 9200     	 lsl r2,r2,#2
 1566 0170 5258     	 ldr r2,[r2,r1]
 1567 0172 A449     	 ldr r1,.L53
 1568 0174 5640     	 eor r6,r2
 1569 0176 3A0C     	 lsr r2,r7,#16
 1570 0178 1A40     	 and r2,r3
 1571 017a 9200     	 lsl r2,r2,#2
 1572 017c 1258     	 ldr r2,[r2,r0]
 1573 017e 5640     	 eor r6,r2
 1574 0180 0396     	 str r6,[sp,#12]
 1575              	.LVL136:
 1576 0182 069E     	 ldr r6,[sp,#24]
 1577              	.LVL137:
 1578 0184 3A0E     	 lsr r2,r7,#24
 1579 0186 1E40     	 and r6,r3
 1580 0188 B600     	 lsl r6,r6,#2
 1581 018a 8E59     	 ldr r6,[r1,r6]
 1582 018c 6146     	 mov r1,ip
 1583 018e 9200     	 lsl r2,r2,#2
 1584 0190 5259     	 ldr r2,[r2,r5]
 1585 0192 5640     	 eor r6,r2
 1586 0194 019A     	 ldr r2,[sp,#4]
 1587 0196 5269     	 ldr r2,[r2,#20]
 1588 0198 5640     	 eor r6,r2
 1589 019a 059A     	 ldr r2,[sp,#20]
 1590 019c 120A     	 lsr r2,r2,#8
 1591 019e 1A40     	 and r2,r3
 1592 01a0 9200     	 lsl r2,r2,#2
 1593 01a2 5258     	 ldr r2,[r2,r1]
 1594 01a4 9749     	 ldr r1,.L53
 1595 01a6 5640     	 eor r6,r2
 1596 01a8 220C     	 lsr r2,r4,#16
 1597 01aa 1A40     	 and r2,r3
 1598 01ac 9200     	 lsl r2,r2,#2
 1599 01ae 1258     	 ldr r2,[r2,r0]
 1600 01b0 5640     	 eor r6,r2
 1601 01b2 0496     	 str r6,[sp,#16]
 1602              	.LVL138:
 1603 01b4 3E1C     	 mov r6,r7
 1604              	.LVL139:
 1605 01b6 1E40     	 and r6,r3
 1606 01b8 220E     	 lsr r2,r4,#24
 1607 01ba B600     	 lsl r6,r6,#2
 1608 01bc 8E59     	 ldr r6,[r1,r6]
 1609 01be 9200     	 lsl r2,r2,#2
 1610 01c0 0199     	 ldr r1,[sp,#4]
 1611 01c2 5259     	 ldr r2,[r2,r5]
 1612 01c4 8969     	 ldr r1,[r1,#24]
 1613 01c6 7240     	 eor r2,r6
 1614 01c8 4A40     	 eor r2,r1
 1615 01ca 0699     	 ldr r1,[sp,#24]
 1616 01cc 1C40     	 and r4,r3
 1617              	.LVL140:
 1618 01ce 0E0A     	 lsr r6,r1,#8
 1619 01d0 6146     	 mov r1,ip
 1620 01d2 1E40     	 and r6,r3
 1621 01d4 B600     	 lsl r6,r6,#2
 1622 01d6 7658     	 ldr r6,[r6,r1]
 1623 01d8 0599     	 ldr r1,[sp,#20]
 1624 01da 7240     	 eor r2,r6
 1625 01dc 0E0C     	 lsr r6,r1,#16
 1626 01de 1E40     	 and r6,r3
 1627 01e0 B600     	 lsl r6,r6,#2
 1628 01e2 3658     	 ldr r6,[r6,r0]
 1629 01e4 A400     	 lsl r4,r4,#2
 1630 01e6 7240     	 eor r2,r6
 1631              	.LVL141:
 1632 01e8 0E0E     	 lsr r6,r1,#24
 1633 01ea 8649     	 ldr r1,.L53
 1634 01ec B600     	 lsl r6,r6,#2
 1635 01ee 0C59     	 ldr r4,[r1,r4]
 1636 01f0 0199     	 ldr r1,[sp,#4]
 1637 01f2 7559     	 ldr r5,[r6,r5]
 1638 01f4 C969     	 ldr r1,[r1,#28]
 1639 01f6 6C40     	 eor r4,r5
 1640 01f8 4C40     	 eor r4,r1
 1641 01fa 6146     	 mov r1,ip
 1642 01fc 3E0A     	 lsr r6,r7,#8
 1643 01fe 1E40     	 and r6,r3
 1644 0200 B600     	 lsl r6,r6,#2
 1645 0202 7558     	 ldr r5,[r6,r1]
 1646 0204 0699     	 ldr r1,[sp,#24]
 1647 0206 6C40     	 eor r4,r5
 1648 0208 0F0C     	 lsr r7,r1,#16
 1649              	.LVL142:
 1650 020a 1F40     	 and r7,r3
 1651 020c BF00     	 lsl r7,r7,#2
 1652 020e 3B58     	 ldr r3,[r7,r0]
 1653 0210 5C40     	 eor r4,r3
 1654              	.LVL143:
 950:C:/Workspace/DAVE-4.4.2-64Bit/optiga-trust-m/externals/mbedtls/library\aes.c ****     {
 1655              	 .loc 1 950 0 discriminator 3
 1656 0212 079B     	 ldr r3,[sp,#28]
 1657 0214 013B     	 sub r3,r3,#1
 1658 0216 0793     	 str r3,[sp,#28]
 1659              	.LVL144:
 1660 0218 019B     	 ldr r3,[sp,#4]
 1661              	.LVL145:
 1662 021a 2033     	 add r3,r3,#32
 1663              	.LVL146:
 1664 021c 2BE7     	 b .L51
 1665              	.LVL147:
 1666              	.L52:
 954:C:/Workspace/DAVE-4.4.2-64Bit/optiga-trust-m/externals/mbedtls/library\aes.c ****     }
 955:C:/Workspace/DAVE-4.4.2-64Bit/optiga-trust-m/externals/mbedtls/library\aes.c **** 
 956:C:/Workspace/DAVE-4.4.2-64Bit/optiga-trust-m/externals/mbedtls/library\aes.c ****     AES_RROUND( Y0, Y1, Y2, Y3, X0, X1, X2, X3 );
 1667              	 .loc 1 956 0
 1668 021e 0499     	 ldr r1,[sp,#16]
 1669              	.LVL148:
 1670 0220 039D     	 ldr r5,[sp,#12]
 1671 0222 794F     	 ldr r7,.L53+4
 1672 0224 1D40     	 and r5,r3
 1673 0226 080E     	 lsr r0,r1,#24
 1674 0228 7649     	 ldr r1,.L53
 1675 022a AD00     	 lsl r5,r5,#2
 1676 022c 8000     	 lsl r0,r0,#2
 1677 022e C059     	 ldr r0,[r0,r7]
 1678 0230 4D59     	 ldr r5,[r1,r5]
 1679 0232 0199     	 ldr r1,[sp,#4]
 1680 0234 4540     	 eor r5,r0
 1681 0236 200A     	 lsr r0,r4,#8
 1682 0238 744E     	 ldr r6,.L53+8
 1683 023a 1840     	 and r0,r3
 1684 023c 0968     	 ldr r1,[r1]
 1685 023e 8000     	 lsl r0,r0,#2
 1686 0240 8059     	 ldr r0,[r0,r6]
 1687 0242 4D40     	 eor r5,r1
 1688 0244 4540     	 eor r5,r0
 1689 0246 AC46     	 mov ip,r5
 1690 0248 6146     	 mov r1,ip
 1691 024a 100C     	 lsr r0,r2,#16
 1692 024c 704D     	 ldr r5,.L53+12
 1693 024e 1840     	 and r0,r3
 1694 0250 8000     	 lsl r0,r0,#2
 1695 0252 4059     	 ldr r0,[r0,r5]
 1696 0254 4140     	 eor r1,r0
 1697 0256 0498     	 ldr r0,[sp,#16]
 1698 0258 0591     	 str r1,[sp,#20]
 1699              	.LVL149:
 1700 025a 1840     	 and r0,r3
 1701 025c 8100     	 lsl r1,r0,#2
 1702              	.LVL150:
 1703 025e 8C46     	 mov ip,r1
 1704 0260 100E     	 lsr r0,r2,#24
 1705 0262 8100     	 lsl r1,r0,#2
 1706 0264 6046     	 mov r0,ip
 1707 0266 0691     	 str r1,[sp,#24]
 1708 0268 6649     	 ldr r1,.L53
 1709 026a 0958     	 ldr r1,[r1,r0]
 1710 026c 8C46     	 mov ip,r1
 1711 026e 0699     	 ldr r1,[sp,#24]
 1712 0270 C859     	 ldr r0,[r1,r7]
 1713 0272 6146     	 mov r1,ip
 1714 0274 4840     	 eor r0,r1
 1715 0276 0199     	 ldr r1,[sp,#4]
 1716 0278 4968     	 ldr r1,[r1,#4]
 1717 027a 4140     	 eor r1,r0
 1718 027c 8C46     	 mov ip,r1
 1719 027e 0399     	 ldr r1,[sp,#12]
 1720 0280 080A     	 lsr r0,r1,#8
 1721 0282 6146     	 mov r1,ip
 1722 0284 1840     	 and r0,r3
 1723 0286 8000     	 lsl r0,r0,#2
 1724 0288 8059     	 ldr r0,[r0,r6]
 1725 028a 4140     	 eor r1,r0
 1726 028c 200C     	 lsr r0,r4,#16
 1727 028e 1840     	 and r0,r3
 1728 0290 8000     	 lsl r0,r0,#2
 1729 0292 4059     	 ldr r0,[r0,r5]
 1730 0294 4140     	 eor r1,r0
 1731 0296 101C     	 mov r0,r2
 1732 0298 1840     	 and r0,r3
 1733 029a 0691     	 str r1,[sp,#24]
 1734              	.LVL151:
 1735 029c 8100     	 lsl r1,r0,#2
 1736              	.LVL152:
 1737 029e 8C46     	 mov ip,r1
 1738 02a0 200E     	 lsr r0,r4,#24
 1739 02a2 8100     	 lsl r1,r0,#2
 1740 02a4 6046     	 mov r0,ip
 1741 02a6 0791     	 str r1,[sp,#28]
 1742              	.LVL153:
 1743 02a8 5649     	 ldr r1,.L53
 1744 02aa 1C40     	 and r4,r3
 1745              	.LVL154:
 1746 02ac 0958     	 ldr r1,[r1,r0]
 1747 02ae A400     	 lsl r4,r4,#2
 1748 02b0 8C46     	 mov ip,r1
 1749 02b2 0799     	 ldr r1,[sp,#28]
 1750 02b4 120A     	 lsr r2,r2,#8
 1751              	.LVL155:
 1752 02b6 C859     	 ldr r0,[r1,r7]
 1753 02b8 6146     	 mov r1,ip
 1754 02ba 4840     	 eor r0,r1
 1755 02bc 0199     	 ldr r1,[sp,#4]
 1756 02be 1A40     	 and r2,r3
 1757 02c0 8968     	 ldr r1,[r1,#8]
 1758 02c2 9200     	 lsl r2,r2,#2
 1759 02c4 4140     	 eor r1,r0
 1760 02c6 8C46     	 mov ip,r1
 1761 02c8 0499     	 ldr r1,[sp,#16]
 1762 02ca 080A     	 lsr r0,r1,#8
 1763 02cc 6146     	 mov r1,ip
 1764 02ce 1840     	 and r0,r3
 1765 02d0 8000     	 lsl r0,r0,#2
 1766 02d2 8059     	 ldr r0,[r0,r6]
 1767 02d4 4140     	 eor r1,r0
 1768 02d6 8C46     	 mov ip,r1
 1769 02d8 0399     	 ldr r1,[sp,#12]
 1770 02da 080C     	 lsr r0,r1,#16
 1771 02dc 6146     	 mov r1,ip
 1772 02de 1840     	 and r0,r3
 1773 02e0 8000     	 lsl r0,r0,#2
 1774 02e2 4059     	 ldr r0,[r0,r5]
 1775 02e4 4840     	 eor r0,r1
 1776              	.LVL156:
 1777 02e6 0399     	 ldr r1,[sp,#12]
 1778 02e8 090E     	 lsr r1,r1,#24
 1779 02ea 8900     	 lsl r1,r1,#2
 1780 02ec 8C46     	 mov ip,r1
 1781 02ee 4549     	 ldr r1,.L53
 1782 02f0 0C59     	 ldr r4,[r1,r4]
 1783 02f2 6146     	 mov r1,ip
 1784 02f4 CF59     	 ldr r7,[r1,r7]
 1785 02f6 0199     	 ldr r1,[sp,#4]
 1786 02f8 7C40     	 eor r4,r7
 1787 02fa 9759     	 ldr r7,[r2,r6]
 1788 02fc 049A     	 ldr r2,[sp,#16]
 1789 02fe C968     	 ldr r1,[r1,#12]
 1790 0300 120C     	 lsr r2,r2,#16
 1791 0302 1A40     	 and r2,r3
 1792 0304 9200     	 lsl r2,r2,#2
 1793 0306 5259     	 ldr r2,[r2,r5]
 1794 0308 4C40     	 eor r4,r1
 1795 030a 6740     	 eor r7,r4
 957:C:/Workspace/DAVE-4.4.2-64Bit/optiga-trust-m/externals/mbedtls/library\aes.c **** 
 958:C:/Workspace/DAVE-4.4.2-64Bit/optiga-trust-m/externals/mbedtls/library\aes.c ****     X0 = *RK++ ^ \
 959:C:/Workspace/DAVE-4.4.2-64Bit/optiga-trust-m/externals/mbedtls/library\aes.c ****             ( (uint32_t) RSb[ ( Y0       ) & 0xFF ]       ) ^
 1796              	 .loc 1 959 0
 1797 030c 059C     	 ldr r4,[sp,#20]
 956:C:/Workspace/DAVE-4.4.2-64Bit/optiga-trust-m/externals/mbedtls/library\aes.c **** 
 1798              	 .loc 1 956 0
 1799 030e 5740     	 eor r7,r2
 1800              	.LVL157:
 1801 0310 0199     	 ldr r1,[sp,#4]
 1802              	 .loc 1 959 0
 1803 0312 404A     	 ldr r2,.L53+16
 1804 0314 1C40     	 and r4,r3
 1805 0316 155D     	 ldrb r5,[r2,r4]
 1806 0318 0E69     	 ldr r6,[r1,#16]
 960:C:/Workspace/DAVE-4.4.2-64Bit/optiga-trust-m/externals/mbedtls/library\aes.c ****             ( (uint32_t) RSb[ ( Y3 >>  8 ) & 0xFF ] <<  8 ) ^
 961:C:/Workspace/DAVE-4.4.2-64Bit/optiga-trust-m/externals/mbedtls/library\aes.c ****             ( (uint32_t) RSb[ ( Y2 >> 16 ) & 0xFF ] << 16 ) ^
 962:C:/Workspace/DAVE-4.4.2-64Bit/optiga-trust-m/externals/mbedtls/library\aes.c ****             ( (uint32_t) RSb[ ( Y1 >> 24 ) & 0xFF ] << 24 );
 1807              	 .loc 1 962 0
 1808 031a 0699     	 ldr r1,[sp,#24]
 1809 031c 6E40     	 eor r6,r5
 1810 031e 351C     	 mov r5,r6
 1811 0320 0C0E     	 lsr r4,r1,#24
 1812 0322 145D     	 ldrb r4,[r2,r4]
 1813 0324 2406     	 lsl r4,r4,#24
 1814 0326 6540     	 eor r5,r4
 960:C:/Workspace/DAVE-4.4.2-64Bit/optiga-trust-m/externals/mbedtls/library\aes.c ****             ( (uint32_t) RSb[ ( Y3 >>  8 ) & 0xFF ] <<  8 ) ^
 1815              	 .loc 1 960 0
 1816 0328 3C0A     	 lsr r4,r7,#8
 1817 032a 1C40     	 and r4,r3
 1818 032c 165D     	 ldrb r6,[r2,r4]
 1819 032e 2C1C     	 mov r4,r5
 961:C:/Workspace/DAVE-4.4.2-64Bit/optiga-trust-m/externals/mbedtls/library\aes.c ****             ( (uint32_t) RSb[ ( Y1 >> 24 ) & 0xFF ] << 24 );
 1820              	 .loc 1 961 0
 1821 0330 050C     	 lsr r5,r0,#16
 1822 0332 1D40     	 and r5,r3
 960:C:/Workspace/DAVE-4.4.2-64Bit/optiga-trust-m/externals/mbedtls/library\aes.c ****             ( (uint32_t) RSb[ ( Y3 >>  8 ) & 0xFF ] <<  8 ) ^
 1823              	 .loc 1 960 0
 1824 0334 3602     	 lsl r6,r6,#8
 1825 0336 7440     	 eor r4,r6
 961:C:/Workspace/DAVE-4.4.2-64Bit/optiga-trust-m/externals/mbedtls/library\aes.c ****             ( (uint32_t) RSb[ ( Y1 >> 24 ) & 0xFF ] << 24 );
 1826              	 .loc 1 961 0
 1827 0338 565D     	 ldrb r6,[r2,r5]
 1828 033a 3604     	 lsl r6,r6,#16
 958:C:/Workspace/DAVE-4.4.2-64Bit/optiga-trust-m/externals/mbedtls/library\aes.c ****             ( (uint32_t) RSb[ ( Y0       ) & 0xFF ]       ) ^
 1829              	 .loc 1 958 0
 1830 033c 6640     	 eor r6,r4
 1831              	.LVL158:
 963:C:/Workspace/DAVE-4.4.2-64Bit/optiga-trust-m/externals/mbedtls/library\aes.c **** 
 964:C:/Workspace/DAVE-4.4.2-64Bit/optiga-trust-m/externals/mbedtls/library\aes.c ****     X1 = *RK++ ^ \
 965:C:/Workspace/DAVE-4.4.2-64Bit/optiga-trust-m/externals/mbedtls/library\aes.c ****             ( (uint32_t) RSb[ ( Y1       ) & 0xFF ]       ) ^
 1832              	 .loc 1 965 0
 1833 033e 0C1C     	 mov r4,r1
 1834 0340 0199     	 ldr r1,[sp,#4]
 1835 0342 1C40     	 and r4,r3
 1836 0344 145D     	 ldrb r4,[r2,r4]
 1837 0346 4D69     	 ldr r5,[r1,#20]
 966:C:/Workspace/DAVE-4.4.2-64Bit/optiga-trust-m/externals/mbedtls/library\aes.c ****             ( (uint32_t) RSb[ ( Y0 >>  8 ) & 0xFF ] <<  8 ) ^
 1838              	 .loc 1 966 0
 1839 0348 0599     	 ldr r1,[sp,#20]
 1840 034a 6540     	 eor r5,r4
 967:C:/Workspace/DAVE-4.4.2-64Bit/optiga-trust-m/externals/mbedtls/library\aes.c ****             ( (uint32_t) RSb[ ( Y3 >> 16 ) & 0xFF ] << 16 ) ^
 968:C:/Workspace/DAVE-4.4.2-64Bit/optiga-trust-m/externals/mbedtls/library\aes.c ****             ( (uint32_t) RSb[ ( Y2 >> 24 ) & 0xFF ] << 24 );
 1841              	 .loc 1 968 0
 1842 034c 040E     	 lsr r4,r0,#24
 1843 034e 145D     	 ldrb r4,[r2,r4]
 1844 0350 2406     	 lsl r4,r4,#24
 1845 0352 6C40     	 eor r4,r5
 966:C:/Workspace/DAVE-4.4.2-64Bit/optiga-trust-m/externals/mbedtls/library\aes.c ****             ( (uint32_t) RSb[ ( Y0 >>  8 ) & 0xFF ] <<  8 ) ^
 1846              	 .loc 1 966 0
 1847 0354 0D0A     	 lsr r5,r1,#8
 1848 0356 1D40     	 and r5,r3
 1849 0358 555D     	 ldrb r5,[r2,r5]
 1850 035a 0199     	 ldr r1,[sp,#4]
 1851 035c 2D02     	 lsl r5,r5,#8
 1852 035e 6C40     	 eor r4,r5
 967:C:/Workspace/DAVE-4.4.2-64Bit/optiga-trust-m/externals/mbedtls/library\aes.c ****             ( (uint32_t) RSb[ ( Y3 >> 16 ) & 0xFF ] << 16 ) ^
 1853              	 .loc 1 967 0
 1854 0360 3D0C     	 lsr r5,r7,#16
 1855 0362 1D40     	 and r5,r3
 1856 0364 555D     	 ldrb r5,[r2,r5]
 1857 0366 8969     	 ldr r1,[r1,#24]
 1858 0368 2D04     	 lsl r5,r5,#16
 964:C:/Workspace/DAVE-4.4.2-64Bit/optiga-trust-m/externals/mbedtls/library\aes.c ****             ( (uint32_t) RSb[ ( Y1       ) & 0xFF ]       ) ^
 1859              	 .loc 1 964 0
 1860 036a 6540     	 eor r5,r4
 1861              	.LVL159:
 969:C:/Workspace/DAVE-4.4.2-64Bit/optiga-trust-m/externals/mbedtls/library\aes.c **** 
 970:C:/Workspace/DAVE-4.4.2-64Bit/optiga-trust-m/externals/mbedtls/library\aes.c ****     X2 = *RK++ ^ \
 971:C:/Workspace/DAVE-4.4.2-64Bit/optiga-trust-m/externals/mbedtls/library\aes.c ****             ( (uint32_t) RSb[ ( Y2       ) & 0xFF ]       ) ^
 1862              	 .loc 1 971 0
 1863 036c 041C     	 mov r4,r0
 1864 036e 1C40     	 and r4,r3
 1865 0370 145D     	 ldrb r4,[r2,r4]
 972:C:/Workspace/DAVE-4.4.2-64Bit/optiga-trust-m/externals/mbedtls/library\aes.c ****             ( (uint32_t) RSb[ ( Y1 >>  8 ) & 0xFF ] <<  8 ) ^
 973:C:/Workspace/DAVE-4.4.2-64Bit/optiga-trust-m/externals/mbedtls/library\aes.c ****             ( (uint32_t) RSb[ ( Y0 >> 16 ) & 0xFF ] << 16 ) ^
 974:C:/Workspace/DAVE-4.4.2-64Bit/optiga-trust-m/externals/mbedtls/library\aes.c ****             ( (uint32_t) RSb[ ( Y3 >> 24 ) & 0xFF ] << 24 );
 975:C:/Workspace/DAVE-4.4.2-64Bit/optiga-trust-m/externals/mbedtls/library\aes.c **** 
 976:C:/Workspace/DAVE-4.4.2-64Bit/optiga-trust-m/externals/mbedtls/library\aes.c ****     X3 = *RK++ ^ \
 977:C:/Workspace/DAVE-4.4.2-64Bit/optiga-trust-m/externals/mbedtls/library\aes.c ****             ( (uint32_t) RSb[ ( Y3       ) & 0xFF ]       ) ^
 978:C:/Workspace/DAVE-4.4.2-64Bit/optiga-trust-m/externals/mbedtls/library\aes.c ****             ( (uint32_t) RSb[ ( Y2 >>  8 ) & 0xFF ] <<  8 ) ^
 1866              	 .loc 1 978 0
 1867 0372 000A     	 lsr r0,r0,#8
 1868              	.LVL160:
 1869 0374 6140     	 eor r1,r4
 974:C:/Workspace/DAVE-4.4.2-64Bit/optiga-trust-m/externals/mbedtls/library\aes.c **** 
 1870              	 .loc 1 974 0
 1871 0376 3C0E     	 lsr r4,r7,#24
 1872 0378 145D     	 ldrb r4,[r2,r4]
 977:C:/Workspace/DAVE-4.4.2-64Bit/optiga-trust-m/externals/mbedtls/library\aes.c ****             ( (uint32_t) RSb[ ( Y2 >>  8 ) & 0xFF ] <<  8 ) ^
 1873              	 .loc 1 977 0
 1874 037a 1F40     	 and r7,r3
 1875              	.LVL161:
 974:C:/Workspace/DAVE-4.4.2-64Bit/optiga-trust-m/externals/mbedtls/library\aes.c **** 
 1876              	 .loc 1 974 0
 1877 037c 2406     	 lsl r4,r4,#24
 1878 037e 4C40     	 eor r4,r1
 972:C:/Workspace/DAVE-4.4.2-64Bit/optiga-trust-m/externals/mbedtls/library\aes.c ****             ( (uint32_t) RSb[ ( Y1 >>  8 ) & 0xFF ] <<  8 ) ^
 1879              	 .loc 1 972 0
 1880 0380 0699     	 ldr r1,[sp,#24]
 1881              	 .loc 1 978 0
 1882 0382 1840     	 and r0,r3
 972:C:/Workspace/DAVE-4.4.2-64Bit/optiga-trust-m/externals/mbedtls/library\aes.c ****             ( (uint32_t) RSb[ ( Y1 >>  8 ) & 0xFF ] <<  8 ) ^
 1883              	 .loc 1 972 0
 1884 0384 090A     	 lsr r1,r1,#8
 1885 0386 1940     	 and r1,r3
 1886 0388 515C     	 ldrb r1,[r2,r1]
 977:C:/Workspace/DAVE-4.4.2-64Bit/optiga-trust-m/externals/mbedtls/library\aes.c ****             ( (uint32_t) RSb[ ( Y2 >>  8 ) & 0xFF ] <<  8 ) ^
 1887              	 .loc 1 977 0
 1888 038a D75D     	 ldrb r7,[r2,r7]
 972:C:/Workspace/DAVE-4.4.2-64Bit/optiga-trust-m/externals/mbedtls/library\aes.c ****             ( (uint32_t) RSb[ ( Y1 >>  8 ) & 0xFF ] <<  8 ) ^
 1889              	 .loc 1 972 0
 1890 038c 0902     	 lsl r1,r1,#8
 1891 038e 6140     	 eor r1,r4
 1892 0390 8C46     	 mov ip,r1
 973:C:/Workspace/DAVE-4.4.2-64Bit/optiga-trust-m/externals/mbedtls/library\aes.c ****             ( (uint32_t) RSb[ ( Y3 >> 24 ) & 0xFF ] << 24 );
 1893              	 .loc 1 973 0
 1894 0392 0599     	 ldr r1,[sp,#20]
 1895 0394 0C0C     	 lsr r4,r1,#16
 970:C:/Workspace/DAVE-4.4.2-64Bit/optiga-trust-m/externals/mbedtls/library\aes.c ****             ( (uint32_t) RSb[ ( Y2       ) & 0xFF ]       ) ^
 1896              	 .loc 1 970 0
 1897 0396 6146     	 mov r1,ip
 973:C:/Workspace/DAVE-4.4.2-64Bit/optiga-trust-m/externals/mbedtls/library\aes.c ****             ( (uint32_t) RSb[ ( Y3 >> 24 ) & 0xFF ] << 24 );
 1898              	 .loc 1 973 0
 1899 0398 1C40     	 and r4,r3
 1900 039a 145D     	 ldrb r4,[r2,r4]
 1901 039c 2404     	 lsl r4,r4,#16
 970:C:/Workspace/DAVE-4.4.2-64Bit/optiga-trust-m/externals/mbedtls/library\aes.c ****             ( (uint32_t) RSb[ ( Y2       ) & 0xFF ]       ) ^
 1902              	 .loc 1 970 0
 1903 039e 4C40     	 eor r4,r1
 1904              	.LVL162:
 1905 03a0 0199     	 ldr r1,[sp,#4]
 1906 03a2 C969     	 ldr r1,[r1,#28]
 1907 03a4 4F40     	 eor r7,r1
 979:C:/Workspace/DAVE-4.4.2-64Bit/optiga-trust-m/externals/mbedtls/library\aes.c ****             ( (uint32_t) RSb[ ( Y1 >> 16 ) & 0xFF ] << 16 ) ^
 980:C:/Workspace/DAVE-4.4.2-64Bit/optiga-trust-m/externals/mbedtls/library\aes.c ****             ( (uint32_t) RSb[ ( Y0 >> 24 ) & 0xFF ] << 24 );
 1908              	 .loc 1 980 0
 1909 03a6 0599     	 ldr r1,[sp,#20]
 1910 03a8 090E     	 lsr r1,r1,#24
 1911 03aa 515C     	 ldrb r1,[r2,r1]
 1912 03ac 0906     	 lsl r1,r1,#24
 1913 03ae 4F40     	 eor r7,r1
 978:C:/Workspace/DAVE-4.4.2-64Bit/optiga-trust-m/externals/mbedtls/library\aes.c ****             ( (uint32_t) RSb[ ( Y1 >> 16 ) & 0xFF ] << 16 ) ^
 1914              	 .loc 1 978 0
 1915 03b0 115C     	 ldrb r1,[r2,r0]
 1916 03b2 0902     	 lsl r1,r1,#8
 1917 03b4 4F40     	 eor r7,r1
 979:C:/Workspace/DAVE-4.4.2-64Bit/optiga-trust-m/externals/mbedtls/library\aes.c ****             ( (uint32_t) RSb[ ( Y1 >> 16 ) & 0xFF ] << 16 ) ^
 1918              	 .loc 1 979 0
 1919 03b6 0699     	 ldr r1,[sp,#24]
 1920 03b8 080C     	 lsr r0,r1,#16
 1921 03ba 0340     	 and r3,r0
 981:C:/Workspace/DAVE-4.4.2-64Bit/optiga-trust-m/externals/mbedtls/library\aes.c **** 
 982:C:/Workspace/DAVE-4.4.2-64Bit/optiga-trust-m/externals/mbedtls/library\aes.c ****     PUT_UINT32_LE( X0, output,  0 );
 983:C:/Workspace/DAVE-4.4.2-64Bit/optiga-trust-m/externals/mbedtls/library\aes.c ****     PUT_UINT32_LE( X1, output,  4 );
 984:C:/Workspace/DAVE-4.4.2-64Bit/optiga-trust-m/externals/mbedtls/library\aes.c ****     PUT_UINT32_LE( X2, output,  8 );
 985:C:/Workspace/DAVE-4.4.2-64Bit/optiga-trust-m/externals/mbedtls/library\aes.c ****     PUT_UINT32_LE( X3, output, 12 );
 986:C:/Workspace/DAVE-4.4.2-64Bit/optiga-trust-m/externals/mbedtls/library\aes.c **** 
 987:C:/Workspace/DAVE-4.4.2-64Bit/optiga-trust-m/externals/mbedtls/library\aes.c ****     return( 0 );
 988:C:/Workspace/DAVE-4.4.2-64Bit/optiga-trust-m/externals/mbedtls/library\aes.c **** }
 1922              	 .loc 1 988 0
 1923 03bc 0020     	 mov r0,#0
 979:C:/Workspace/DAVE-4.4.2-64Bit/optiga-trust-m/externals/mbedtls/library\aes.c ****             ( (uint32_t) RSb[ ( Y0 >> 24 ) & 0xFF ] << 24 );
 1924              	 .loc 1 979 0
 1925 03be D15C     	 ldrb r1,[r2,r3]
 982:C:/Workspace/DAVE-4.4.2-64Bit/optiga-trust-m/externals/mbedtls/library\aes.c ****     PUT_UINT32_LE( X1, output,  4 );
 1926              	 .loc 1 982 0
 1927 03c0 029B     	 ldr r3,[sp,#8]
 1928 03c2 029A     	 ldr r2,[sp,#8]
 1929 03c4 1E70     	 strb r6,[r3]
 1930 03c6 330A     	 lsr r3,r6,#8
 1931 03c8 5370     	 strb r3,[r2,#1]
 1932 03ca 330C     	 lsr r3,r6,#16
 1933 03cc 9370     	 strb r3,[r2,#2]
 983:C:/Workspace/DAVE-4.4.2-64Bit/optiga-trust-m/externals/mbedtls/library\aes.c ****     PUT_UINT32_LE( X2, output,  8 );
 1934              	 .loc 1 983 0
 1935 03ce 2B0A     	 lsr r3,r5,#8
 1936 03d0 5371     	 strb r3,[r2,#5]
 1937 03d2 2B0C     	 lsr r3,r5,#16
 979:C:/Workspace/DAVE-4.4.2-64Bit/optiga-trust-m/externals/mbedtls/library\aes.c ****             ( (uint32_t) RSb[ ( Y0 >> 24 ) & 0xFF ] << 24 );
 1938              	 .loc 1 979 0
 1939 03d4 0904     	 lsl r1,r1,#16
 983:C:/Workspace/DAVE-4.4.2-64Bit/optiga-trust-m/externals/mbedtls/library\aes.c ****     PUT_UINT32_LE( X2, output,  8 );
 1940              	 .loc 1 983 0
 1941 03d6 9371     	 strb r3,[r2,#6]
 984:C:/Workspace/DAVE-4.4.2-64Bit/optiga-trust-m/externals/mbedtls/library\aes.c ****     PUT_UINT32_LE( X3, output, 12 );
 1942              	 .loc 1 984 0
 1943 03d8 230A     	 lsr r3,r4,#8
 976:C:/Workspace/DAVE-4.4.2-64Bit/optiga-trust-m/externals/mbedtls/library\aes.c ****             ( (uint32_t) RSb[ ( Y3       ) & 0xFF ]       ) ^
 1944              	 .loc 1 976 0
 1945 03da 4F40     	 eor r7,r1
 1946              	.LVL163:
 984:C:/Workspace/DAVE-4.4.2-64Bit/optiga-trust-m/externals/mbedtls/library\aes.c ****     PUT_UINT32_LE( X3, output, 12 );
 1947              	 .loc 1 984 0
 1948 03dc 5372     	 strb r3,[r2,#9]
 1949 03de 230C     	 lsr r3,r4,#16
 1950 03e0 9372     	 strb r3,[r2,#10]
 985:C:/Workspace/DAVE-4.4.2-64Bit/optiga-trust-m/externals/mbedtls/library\aes.c **** 
 1951              	 .loc 1 985 0
 1952 03e2 3B0A     	 lsr r3,r7,#8
 982:C:/Workspace/DAVE-4.4.2-64Bit/optiga-trust-m/externals/mbedtls/library\aes.c ****     PUT_UINT32_LE( X1, output,  4 );
 1953              	 .loc 1 982 0
 1954 03e4 360E     	 lsr r6,r6,#24
 1955              	.LVL164:
 983:C:/Workspace/DAVE-4.4.2-64Bit/optiga-trust-m/externals/mbedtls/library\aes.c ****     PUT_UINT32_LE( X2, output,  8 );
 1956              	 .loc 1 983 0
 1957 03e6 1571     	 strb r5,[r2,#4]
 984:C:/Workspace/DAVE-4.4.2-64Bit/optiga-trust-m/externals/mbedtls/library\aes.c ****     PUT_UINT32_LE( X3, output, 12 );
 1958              	 .loc 1 984 0
 1959 03e8 1472     	 strb r4,[r2,#8]
 983:C:/Workspace/DAVE-4.4.2-64Bit/optiga-trust-m/externals/mbedtls/library\aes.c ****     PUT_UINT32_LE( X2, output,  8 );
 1960              	 .loc 1 983 0
 1961 03ea 2D0E     	 lsr r5,r5,#24
 1962              	.LVL165:
 984:C:/Workspace/DAVE-4.4.2-64Bit/optiga-trust-m/externals/mbedtls/library\aes.c ****     PUT_UINT32_LE( X3, output, 12 );
 1963              	 .loc 1 984 0
 1964 03ec 240E     	 lsr r4,r4,#24
 1965              	.LVL166:
 985:C:/Workspace/DAVE-4.4.2-64Bit/optiga-trust-m/externals/mbedtls/library\aes.c **** 
 1966              	 .loc 1 985 0
 1967 03ee 1773     	 strb r7,[r2,#12]
 1968 03f0 5373     	 strb r3,[r2,#13]
 1969 03f2 3B0C     	 lsr r3,r7,#16
 1970 03f4 3F0E     	 lsr r7,r7,#24
 1971              	.LVL167:
 982:C:/Workspace/DAVE-4.4.2-64Bit/optiga-trust-m/externals/mbedtls/library\aes.c ****     PUT_UINT32_LE( X1, output,  4 );
 1972              	 .loc 1 982 0
 1973 03f6 D670     	 strb r6,[r2,#3]
 983:C:/Workspace/DAVE-4.4.2-64Bit/optiga-trust-m/externals/mbedtls/library\aes.c ****     PUT_UINT32_LE( X2, output,  8 );
 1974              	 .loc 1 983 0
 1975 03f8 D571     	 strb r5,[r2,#7]
 984:C:/Workspace/DAVE-4.4.2-64Bit/optiga-trust-m/externals/mbedtls/library\aes.c ****     PUT_UINT32_LE( X3, output, 12 );
 1976              	 .loc 1 984 0
 1977 03fa D472     	 strb r4,[r2,#11]
 985:C:/Workspace/DAVE-4.4.2-64Bit/optiga-trust-m/externals/mbedtls/library\aes.c **** 
 1978              	 .loc 1 985 0
 1979 03fc 9373     	 strb r3,[r2,#14]
 1980 03fe D773     	 strb r7,[r2,#15]
 1981              	 .loc 1 988 0
 1982 0400 09B0     	 add sp,sp,#36
 1983              	 
 1984 0402 F0BD     	 pop {r4,r5,r6,r7,pc}
 1985              	.L54:
 1986              	 .align 2
 1987              	.L53:
 1988 0404 00000000 	 .word .LANCHOR3
 1989 0408 00000000 	 .word .LANCHOR2
 1990 040c 00000000 	 .word .LANCHOR4
 1991 0410 00000000 	 .word .LANCHOR5
 1992 0414 00000000 	 .word .LANCHOR10
 1993              	 .cfi_endproc
 1994              	.LFE6:
 1996              	 .section .text.mbedtls_aes_decrypt,"ax",%progbits
 1997              	 .align 1
 1998              	 .global mbedtls_aes_decrypt
 1999              	 .code 16
 2000              	 .thumb_func
 2002              	mbedtls_aes_decrypt:
 2003              	.LFB7:
 989:C:/Workspace/DAVE-4.4.2-64Bit/optiga-trust-m/externals/mbedtls/library\aes.c **** #endif /* !MBEDTLS_AES_DECRYPT_ALT */
 990:C:/Workspace/DAVE-4.4.2-64Bit/optiga-trust-m/externals/mbedtls/library\aes.c **** 
 991:C:/Workspace/DAVE-4.4.2-64Bit/optiga-trust-m/externals/mbedtls/library\aes.c **** #if !defined(MBEDTLS_DEPRECATED_REMOVED)
 992:C:/Workspace/DAVE-4.4.2-64Bit/optiga-trust-m/externals/mbedtls/library\aes.c **** void mbedtls_aes_decrypt( mbedtls_aes_context *ctx,
 993:C:/Workspace/DAVE-4.4.2-64Bit/optiga-trust-m/externals/mbedtls/library\aes.c ****                           const unsigned char input[16],
 994:C:/Workspace/DAVE-4.4.2-64Bit/optiga-trust-m/externals/mbedtls/library\aes.c ****                           unsigned char output[16] )
 995:C:/Workspace/DAVE-4.4.2-64Bit/optiga-trust-m/externals/mbedtls/library\aes.c **** {
 2004              	 .loc 1 995 0
 2005              	 .cfi_startproc
 2006              	.LVL168:
 2007 0000 08B5     	 push {r3,lr}
 2008              	.LCFI10:
 2009              	 .cfi_def_cfa_offset 8
 2010              	 .cfi_offset 3,-8
 2011              	 .cfi_offset 14,-4
 996:C:/Workspace/DAVE-4.4.2-64Bit/optiga-trust-m/externals/mbedtls/library\aes.c ****     mbedtls_internal_aes_decrypt( ctx, input, output );
 2012              	 .loc 1 996 0
 2013 0002 FFF7FEFF 	 bl mbedtls_internal_aes_decrypt
 2014              	.LVL169:
 997:C:/Workspace/DAVE-4.4.2-64Bit/optiga-trust-m/externals/mbedtls/library\aes.c **** }
 2015              	 .loc 1 997 0
 2016              	 
 2017 0006 08BD     	 pop {r3,pc}
 2018              	 .cfi_endproc
 2019              	.LFE7:
 2021              	 .section .text.mbedtls_aes_crypt_ecb,"ax",%progbits
 2022              	 .align 1
 2023              	 .global mbedtls_aes_crypt_ecb
 2024              	 .code 16
 2025              	 .thumb_func
 2027              	mbedtls_aes_crypt_ecb:
 2028              	.LFB8:
 998:C:/Workspace/DAVE-4.4.2-64Bit/optiga-trust-m/externals/mbedtls/library\aes.c **** #endif /* !MBEDTLS_DEPRECATED_REMOVED */
 999:C:/Workspace/DAVE-4.4.2-64Bit/optiga-trust-m/externals/mbedtls/library\aes.c **** 
1000:C:/Workspace/DAVE-4.4.2-64Bit/optiga-trust-m/externals/mbedtls/library\aes.c **** /*
1001:C:/Workspace/DAVE-4.4.2-64Bit/optiga-trust-m/externals/mbedtls/library\aes.c ****  * AES-ECB block encryption/decryption
1002:C:/Workspace/DAVE-4.4.2-64Bit/optiga-trust-m/externals/mbedtls/library\aes.c ****  */
1003:C:/Workspace/DAVE-4.4.2-64Bit/optiga-trust-m/externals/mbedtls/library\aes.c **** int mbedtls_aes_crypt_ecb( mbedtls_aes_context *ctx,
1004:C:/Workspace/DAVE-4.4.2-64Bit/optiga-trust-m/externals/mbedtls/library\aes.c ****                            int mode,
1005:C:/Workspace/DAVE-4.4.2-64Bit/optiga-trust-m/externals/mbedtls/library\aes.c ****                            const unsigned char input[16],
1006:C:/Workspace/DAVE-4.4.2-64Bit/optiga-trust-m/externals/mbedtls/library\aes.c ****                            unsigned char output[16] )
1007:C:/Workspace/DAVE-4.4.2-64Bit/optiga-trust-m/externals/mbedtls/library\aes.c **** {
 2029              	 .loc 1 1007 0
 2030              	 .cfi_startproc
 2031              	.LVL170:
 2032 0000 08B5     	 push {r3,lr}
 2033              	.LCFI11:
 2034              	 .cfi_def_cfa_offset 8
 2035              	 .cfi_offset 3,-8
 2036              	 .cfi_offset 14,-4
1008:C:/Workspace/DAVE-4.4.2-64Bit/optiga-trust-m/externals/mbedtls/library\aes.c ****     AES_VALIDATE_RET( ctx != NULL );
1009:C:/Workspace/DAVE-4.4.2-64Bit/optiga-trust-m/externals/mbedtls/library\aes.c ****     AES_VALIDATE_RET( input != NULL );
1010:C:/Workspace/DAVE-4.4.2-64Bit/optiga-trust-m/externals/mbedtls/library\aes.c ****     AES_VALIDATE_RET( output != NULL );
1011:C:/Workspace/DAVE-4.4.2-64Bit/optiga-trust-m/externals/mbedtls/library\aes.c ****     AES_VALIDATE_RET( mode == MBEDTLS_AES_ENCRYPT ||
1012:C:/Workspace/DAVE-4.4.2-64Bit/optiga-trust-m/externals/mbedtls/library\aes.c ****                       mode == MBEDTLS_AES_DECRYPT );
1013:C:/Workspace/DAVE-4.4.2-64Bit/optiga-trust-m/externals/mbedtls/library\aes.c **** 
1014:C:/Workspace/DAVE-4.4.2-64Bit/optiga-trust-m/externals/mbedtls/library\aes.c **** #if defined(MBEDTLS_AESNI_C) && defined(MBEDTLS_HAVE_X86_64)
1015:C:/Workspace/DAVE-4.4.2-64Bit/optiga-trust-m/externals/mbedtls/library\aes.c ****     if( mbedtls_aesni_has_support( MBEDTLS_AESNI_AES ) )
1016:C:/Workspace/DAVE-4.4.2-64Bit/optiga-trust-m/externals/mbedtls/library\aes.c ****         return( mbedtls_aesni_crypt_ecb( ctx, mode, input, output ) );
1017:C:/Workspace/DAVE-4.4.2-64Bit/optiga-trust-m/externals/mbedtls/library\aes.c **** #endif
1018:C:/Workspace/DAVE-4.4.2-64Bit/optiga-trust-m/externals/mbedtls/library\aes.c **** 
1019:C:/Workspace/DAVE-4.4.2-64Bit/optiga-trust-m/externals/mbedtls/library\aes.c **** #if defined(MBEDTLS_PADLOCK_C) && defined(MBEDTLS_HAVE_X86)
1020:C:/Workspace/DAVE-4.4.2-64Bit/optiga-trust-m/externals/mbedtls/library\aes.c ****     if( aes_padlock_ace )
1021:C:/Workspace/DAVE-4.4.2-64Bit/optiga-trust-m/externals/mbedtls/library\aes.c ****     {
1022:C:/Workspace/DAVE-4.4.2-64Bit/optiga-trust-m/externals/mbedtls/library\aes.c ****         if( mbedtls_padlock_xcryptecb( ctx, mode, input, output ) == 0 )
1023:C:/Workspace/DAVE-4.4.2-64Bit/optiga-trust-m/externals/mbedtls/library\aes.c ****             return( 0 );
1024:C:/Workspace/DAVE-4.4.2-64Bit/optiga-trust-m/externals/mbedtls/library\aes.c **** 
1025:C:/Workspace/DAVE-4.4.2-64Bit/optiga-trust-m/externals/mbedtls/library\aes.c ****         // If padlock data misaligned, we just fall back to
1026:C:/Workspace/DAVE-4.4.2-64Bit/optiga-trust-m/externals/mbedtls/library\aes.c ****         // unaccelerated mode
1027:C:/Workspace/DAVE-4.4.2-64Bit/optiga-trust-m/externals/mbedtls/library\aes.c ****         //
1028:C:/Workspace/DAVE-4.4.2-64Bit/optiga-trust-m/externals/mbedtls/library\aes.c ****     }
1029:C:/Workspace/DAVE-4.4.2-64Bit/optiga-trust-m/externals/mbedtls/library\aes.c **** #endif
1030:C:/Workspace/DAVE-4.4.2-64Bit/optiga-trust-m/externals/mbedtls/library\aes.c **** 
1031:C:/Workspace/DAVE-4.4.2-64Bit/optiga-trust-m/externals/mbedtls/library\aes.c ****     if( mode == MBEDTLS_AES_ENCRYPT )
 2037              	 .loc 1 1031 0
 2038 0002 0129     	 cmp r1,#1
 2039 0004 04D1     	 bne .L57
1032:C:/Workspace/DAVE-4.4.2-64Bit/optiga-trust-m/externals/mbedtls/library\aes.c ****         return( mbedtls_internal_aes_encrypt( ctx, input, output ) );
 2040              	 .loc 1 1032 0
 2041 0006 111C     	 mov r1,r2
 2042              	.LVL171:
 2043 0008 1A1C     	 mov r2,r3
 2044              	.LVL172:
 2045 000a FFF7FEFF 	 bl mbedtls_internal_aes_encrypt
 2046              	.LVL173:
 2047 000e 03E0     	 b .L58
 2048              	.LVL174:
 2049              	.L57:
1033:C:/Workspace/DAVE-4.4.2-64Bit/optiga-trust-m/externals/mbedtls/library\aes.c ****     else
1034:C:/Workspace/DAVE-4.4.2-64Bit/optiga-trust-m/externals/mbedtls/library\aes.c ****         return( mbedtls_internal_aes_decrypt( ctx, input, output ) );
 2050              	 .loc 1 1034 0
 2051 0010 111C     	 mov r1,r2
 2052              	.LVL175:
 2053 0012 1A1C     	 mov r2,r3
 2054              	.LVL176:
 2055 0014 FFF7FEFF 	 bl mbedtls_internal_aes_decrypt
 2056              	.LVL177:
 2057              	.L58:
1035:C:/Workspace/DAVE-4.4.2-64Bit/optiga-trust-m/externals/mbedtls/library\aes.c **** }
 2058              	 .loc 1 1035 0
 2059              	 
 2060 0018 08BD     	 pop {r3,pc}
 2061              	 .cfi_endproc
 2062              	.LFE8:
 2064              	 .section .rodata.FSb,"a",%progbits
 2065              	 .set .LANCHOR1,.+0
 2068              	FSb:
 2069 0000 63       	 .byte 99
 2070 0001 7C       	 .byte 124
 2071 0002 77       	 .byte 119
 2072 0003 7B       	 .byte 123
 2073 0004 F2       	 .byte -14
 2074 0005 6B       	 .byte 107
 2075 0006 6F       	 .byte 111
 2076 0007 C5       	 .byte -59
 2077 0008 30       	 .byte 48
 2078 0009 01       	 .byte 1
 2079 000a 67       	 .byte 103
 2080 000b 2B       	 .byte 43
 2081 000c FE       	 .byte -2
 2082 000d D7       	 .byte -41
 2083 000e AB       	 .byte -85
 2084 000f 76       	 .byte 118
 2085 0010 CA       	 .byte -54
 2086 0011 82       	 .byte -126
 2087 0012 C9       	 .byte -55
 2088 0013 7D       	 .byte 125
 2089 0014 FA       	 .byte -6
 2090 0015 59       	 .byte 89
 2091 0016 47       	 .byte 71
 2092 0017 F0       	 .byte -16
 2093 0018 AD       	 .byte -83
 2094 0019 D4       	 .byte -44
 2095 001a A2       	 .byte -94
 2096 001b AF       	 .byte -81
 2097 001c 9C       	 .byte -100
 2098 001d A4       	 .byte -92
 2099 001e 72       	 .byte 114
 2100 001f C0       	 .byte -64
 2101 0020 B7       	 .byte -73
 2102 0021 FD       	 .byte -3
 2103 0022 93       	 .byte -109
 2104 0023 26       	 .byte 38
 2105 0024 36       	 .byte 54
 2106 0025 3F       	 .byte 63
 2107 0026 F7       	 .byte -9
 2108 0027 CC       	 .byte -52
 2109 0028 34       	 .byte 52
 2110 0029 A5       	 .byte -91
 2111 002a E5       	 .byte -27
 2112 002b F1       	 .byte -15
 2113 002c 71       	 .byte 113
 2114 002d D8       	 .byte -40
 2115 002e 31       	 .byte 49
 2116 002f 15       	 .byte 21
 2117 0030 04       	 .byte 4
 2118 0031 C7       	 .byte -57
 2119 0032 23       	 .byte 35
 2120 0033 C3       	 .byte -61
 2121 0034 18       	 .byte 24
 2122 0035 96       	 .byte -106
 2123 0036 05       	 .byte 5
 2124 0037 9A       	 .byte -102
 2125 0038 07       	 .byte 7
 2126 0039 12       	 .byte 18
 2127 003a 80       	 .byte -128
 2128 003b E2       	 .byte -30
 2129 003c EB       	 .byte -21
 2130 003d 27       	 .byte 39
 2131 003e B2       	 .byte -78
 2132 003f 75       	 .byte 117
 2133 0040 09       	 .byte 9
 2134 0041 83       	 .byte -125
 2135 0042 2C       	 .byte 44
 2136 0043 1A       	 .byte 26
 2137 0044 1B       	 .byte 27
 2138 0045 6E       	 .byte 110
 2139 0046 5A       	 .byte 90
 2140 0047 A0       	 .byte -96
 2141 0048 52       	 .byte 82
 2142 0049 3B       	 .byte 59
 2143 004a D6       	 .byte -42
 2144 004b B3       	 .byte -77
 2145 004c 29       	 .byte 41
 2146 004d E3       	 .byte -29
 2147 004e 2F       	 .byte 47
 2148 004f 84       	 .byte -124
 2149 0050 53       	 .byte 83
 2150 0051 D1       	 .byte -47
 2151 0052 00       	 .byte 0
 2152 0053 ED       	 .byte -19
 2153 0054 20       	 .byte 32
 2154 0055 FC       	 .byte -4
 2155 0056 B1       	 .byte -79
 2156 0057 5B       	 .byte 91
 2157 0058 6A       	 .byte 106
 2158 0059 CB       	 .byte -53
 2159 005a BE       	 .byte -66
 2160 005b 39       	 .byte 57
 2161 005c 4A       	 .byte 74
 2162 005d 4C       	 .byte 76
 2163 005e 58       	 .byte 88
 2164 005f CF       	 .byte -49
 2165 0060 D0       	 .byte -48
 2166 0061 EF       	 .byte -17
 2167 0062 AA       	 .byte -86
 2168 0063 FB       	 .byte -5
 2169 0064 43       	 .byte 67
 2170 0065 4D       	 .byte 77
 2171 0066 33       	 .byte 51
 2172 0067 85       	 .byte -123
 2173 0068 45       	 .byte 69
 2174 0069 F9       	 .byte -7
 2175 006a 02       	 .byte 2
 2176 006b 7F       	 .byte 127
 2177 006c 50       	 .byte 80
 2178 006d 3C       	 .byte 60
 2179 006e 9F       	 .byte -97
 2180 006f A8       	 .byte -88
 2181 0070 51       	 .byte 81
 2182 0071 A3       	 .byte -93
 2183 0072 40       	 .byte 64
 2184 0073 8F       	 .byte -113
 2185 0074 92       	 .byte -110
 2186 0075 9D       	 .byte -99
 2187 0076 38       	 .byte 56
 2188 0077 F5       	 .byte -11
 2189 0078 BC       	 .byte -68
 2190 0079 B6       	 .byte -74
 2191 007a DA       	 .byte -38
 2192 007b 21       	 .byte 33
 2193 007c 10       	 .byte 16
 2194 007d FF       	 .byte -1
 2195 007e F3       	 .byte -13
 2196 007f D2       	 .byte -46
 2197 0080 CD       	 .byte -51
 2198 0081 0C       	 .byte 12
 2199 0082 13       	 .byte 19
 2200 0083 EC       	 .byte -20
 2201 0084 5F       	 .byte 95
 2202 0085 97       	 .byte -105
 2203 0086 44       	 .byte 68
 2204 0087 17       	 .byte 23
 2205 0088 C4       	 .byte -60
 2206 0089 A7       	 .byte -89
 2207 008a 7E       	 .byte 126
 2208 008b 3D       	 .byte 61
 2209 008c 64       	 .byte 100
 2210 008d 5D       	 .byte 93
 2211 008e 19       	 .byte 25
 2212 008f 73       	 .byte 115
 2213 0090 60       	 .byte 96
 2214 0091 81       	 .byte -127
 2215 0092 4F       	 .byte 79
 2216 0093 DC       	 .byte -36
 2217 0094 22       	 .byte 34
 2218 0095 2A       	 .byte 42
 2219 0096 90       	 .byte -112
 2220 0097 88       	 .byte -120
 2221 0098 46       	 .byte 70
 2222 0099 EE       	 .byte -18
 2223 009a B8       	 .byte -72
 2224 009b 14       	 .byte 20
 2225 009c DE       	 .byte -34
 2226 009d 5E       	 .byte 94
 2227 009e 0B       	 .byte 11
 2228 009f DB       	 .byte -37
 2229 00a0 E0       	 .byte -32
 2230 00a1 32       	 .byte 50
 2231 00a2 3A       	 .byte 58
 2232 00a3 0A       	 .byte 10
 2233 00a4 49       	 .byte 73
 2234 00a5 06       	 .byte 6
 2235 00a6 24       	 .byte 36
 2236 00a7 5C       	 .byte 92
 2237 00a8 C2       	 .byte -62
 2238 00a9 D3       	 .byte -45
 2239 00aa AC       	 .byte -84
 2240 00ab 62       	 .byte 98
 2241 00ac 91       	 .byte -111
 2242 00ad 95       	 .byte -107
 2243 00ae E4       	 .byte -28
 2244 00af 79       	 .byte 121
 2245 00b0 E7       	 .byte -25
 2246 00b1 C8       	 .byte -56
 2247 00b2 37       	 .byte 55
 2248 00b3 6D       	 .byte 109
 2249 00b4 8D       	 .byte -115
 2250 00b5 D5       	 .byte -43
 2251 00b6 4E       	 .byte 78
 2252 00b7 A9       	 .byte -87
 2253 00b8 6C       	 .byte 108
 2254 00b9 56       	 .byte 86
 2255 00ba F4       	 .byte -12
 2256 00bb EA       	 .byte -22
 2257 00bc 65       	 .byte 101
 2258 00bd 7A       	 .byte 122
 2259 00be AE       	 .byte -82
 2260 00bf 08       	 .byte 8
 2261 00c0 BA       	 .byte -70
 2262 00c1 78       	 .byte 120
 2263 00c2 25       	 .byte 37
 2264 00c3 2E       	 .byte 46
 2265 00c4 1C       	 .byte 28
 2266 00c5 A6       	 .byte -90
 2267 00c6 B4       	 .byte -76
 2268 00c7 C6       	 .byte -58
 2269 00c8 E8       	 .byte -24
 2270 00c9 DD       	 .byte -35
 2271 00ca 74       	 .byte 116
 2272 00cb 1F       	 .byte 31
 2273 00cc 4B       	 .byte 75
 2274 00cd BD       	 .byte -67
 2275 00ce 8B       	 .byte -117
 2276 00cf 8A       	 .byte -118
 2277 00d0 70       	 .byte 112
 2278 00d1 3E       	 .byte 62
 2279 00d2 B5       	 .byte -75
 2280 00d3 66       	 .byte 102
 2281 00d4 48       	 .byte 72
 2282 00d5 03       	 .byte 3
 2283 00d6 F6       	 .byte -10
 2284 00d7 0E       	 .byte 14
 2285 00d8 61       	 .byte 97
 2286 00d9 35       	 .byte 53
 2287 00da 57       	 .byte 87
 2288 00db B9       	 .byte -71
 2289 00dc 86       	 .byte -122
 2290 00dd C1       	 .byte -63
 2291 00de 1D       	 .byte 29
 2292 00df 9E       	 .byte -98
 2293 00e0 E1       	 .byte -31
 2294 00e1 F8       	 .byte -8
 2295 00e2 98       	 .byte -104
 2296 00e3 11       	 .byte 17
 2297 00e4 69       	 .byte 105
 2298 00e5 D9       	 .byte -39
 2299 00e6 8E       	 .byte -114
 2300 00e7 94       	 .byte -108
 2301 00e8 9B       	 .byte -101
 2302 00e9 1E       	 .byte 30
 2303 00ea 87       	 .byte -121
 2304 00eb E9       	 .byte -23
 2305 00ec CE       	 .byte -50
 2306 00ed 55       	 .byte 85
 2307 00ee 28       	 .byte 40
 2308 00ef DF       	 .byte -33
 2309 00f0 8C       	 .byte -116
 2310 00f1 A1       	 .byte -95
 2311 00f2 89       	 .byte -119
 2312 00f3 0D       	 .byte 13
 2313 00f4 BF       	 .byte -65
 2314 00f5 E6       	 .byte -26
 2315 00f6 42       	 .byte 66
 2316 00f7 68       	 .byte 104
 2317 00f8 41       	 .byte 65
 2318 00f9 99       	 .byte -103
 2319 00fa 2D       	 .byte 45
 2320 00fb 0F       	 .byte 15
 2321 00fc B0       	 .byte -80
 2322 00fd 54       	 .byte 84
 2323 00fe BB       	 .byte -69
 2324 00ff 16       	 .byte 22
 2325              	 .section .rodata.RT0,"a",%progbits
 2326              	 .align 2
 2327              	 .set .LANCHOR3,.+0
 2330              	RT0:
 2331 0000 51F4A750 	 .word 1353184337
 2332 0004 7E416553 	 .word 1399144830
 2333 0008 1A17A4C3 	 .word -1012656358
 2334 000c 3A275E96 	 .word -1772214470
 2335 0010 3BAB6BCB 	 .word -882136261
 2336 0014 1F9D45F1 	 .word -247096033
 2337 0018 ACFA58AB 	 .word -1420232020
 2338 001c 4BE30393 	 .word -1828461749
 2339 0020 2030FA55 	 .word 1442459680
 2340 0024 AD766DF6 	 .word -160598355
 2341 0028 88CC7691 	 .word -1854485368
 2342 002c F5024C25 	 .word 625738485
 2343 0030 4FE5D7FC 	 .word -52959921
 2344 0034 C52ACBD7 	 .word -674551099
 2345 0038 26354480 	 .word -2143013594
 2346 003c B562A38F 	 .word -1885117771
 2347 0040 DEB15A49 	 .word 1230680542
 2348 0044 25BA1B67 	 .word 1729870373
 2349 0048 45EA0E98 	 .word -1743852987
 2350 004c 5DFEC0E1 	 .word -507445667
 2351 0050 C32F7502 	 .word 41234371
 2352 0054 814CF012 	 .word 317738113
 2353 0058 8D4697A3 	 .word -1550367091
 2354 005c 6BD3F9C6 	 .word -956705941
 2355 0060 038F5FE7 	 .word -413167869
 2356 0064 15929C95 	 .word -1784901099
 2357 0068 BF6D7AEB 	 .word -344298049
 2358 006c 955259DA 	 .word -631680363
 2359 0070 D4BE832D 	 .word 763608788
 2360 0074 587421D3 	 .word -752782248
 2361 0078 49E06929 	 .word 694804553
 2362 007c 8EC9C844 	 .word 1154009486
 2363 0080 75C2896A 	 .word 1787413109
 2364 0084 F48E7978 	 .word 2021232372
 2365 0088 99583E6B 	 .word 1799248025
 2366 008c 27B971DD 	 .word -579749593
 2367 0090 BEE14FB6 	 .word -1236278850
 2368 0094 F088AD17 	 .word 397248752
 2369 0098 C920AC66 	 .word 1722556617
 2370 009c 7DCE3AB4 	 .word -1271214467
 2371 00a0 63DF4A18 	 .word 407560035
 2372 00a4 E51A3182 	 .word -2110711067
 2373 00a8 97513360 	 .word 1613975959
 2374 00ac 62537F45 	 .word 1165972322
 2375 00b0 B16477E0 	 .word -529046351
 2376 00b4 BB6BAE84 	 .word -2068943941
 2377 00b8 FE81A01C 	 .word 480281086
 2378 00bc F9082B94 	 .word -1809118983
 2379 00c0 70486858 	 .word 1483229296
 2380 00c4 8F45FD19 	 .word 436028815
 2381 00c8 94DE6C87 	 .word -2022908268
 2382 00cc 527BF8B7 	 .word -1208452270
 2383 00d0 AB73D323 	 .word 601060267
 2384 00d4 724B02E2 	 .word -503166094
 2385 00d8 E31F8F57 	 .word 1468997603
 2386 00dc 6655AB2A 	 .word 715871590
 2387 00e0 B2EB2807 	 .word 120122290
 2388 00e4 2FB5C203 	 .word 63092015
 2389 00e8 86C57B9A 	 .word -1703164538
 2390 00ec D33708A5 	 .word -1526188077
 2391 00f0 302887F2 	 .word -226023376
 2392 00f4 23BFA5B2 	 .word -1297760477
 2393 00f8 02036ABA 	 .word -1167457534
 2394 00fc ED16825C 	 .word 1552029421
 2395 0100 8ACF1C2B 	 .word 723308426
 2396 0104 A779B492 	 .word -1833666137
 2397 0108 F307F2F0 	 .word -252573709
 2398 010c 4E69E2A1 	 .word -1578997426
 2399 0110 65DAF4CD 	 .word -839591323
 2400 0114 0605BED5 	 .word -708967162
 2401 0118 D134621F 	 .word 526529745
 2402 011c C4A6FE8A 	 .word -1963022652
 2403 0120 342E539D 	 .word -1655493068
 2404 0124 A2F355A0 	 .word -1604979806
 2405 0128 058AE132 	 .word 853641733
 2406 012c A4F6EB75 	 .word 1978398372
 2407 0130 0B83EC39 	 .word 971801355
 2408 0134 4060EFAA 	 .word -1427152832
 2409 0138 5E719F06 	 .word 111112542
 2410 013c BD6E1051 	 .word 1360031421
 2411 0140 3E218AF9 	 .word -108388034
 2412 0144 96DD063D 	 .word 1023860118
 2413 0148 DD3E05AE 	 .word -1375387939
 2414 014c 4DE6BD46 	 .word 1186850381
 2415 0150 91548DB5 	 .word -1249028975
 2416 0154 71C45D05 	 .word 90031217
 2417 0158 0406D46F 	 .word 1876166148
 2418 015c 605015FF 	 .word -15380384
 2419 0160 1998FB24 	 .word 620468249
 2420 0164 D6BDE997 	 .word -1746289194
 2421 0168 894043CC 	 .word -868007799
 2422 016c 67D99E77 	 .word 2006899047
 2423 0170 B0E842BD 	 .word -1119688528
 2424 0174 07898B88 	 .word -2004121337
 2425 0178 E7195B38 	 .word 945494503
 2426 017c 79C8EEDB 	 .word -605108103
 2427 0180 A17C0A47 	 .word 1191869601
 2428 0184 7C420FE9 	 .word -384875908
 2429 0188 F8841EC9 	 .word -920746760
 2430 018c 00000000 	 .word 0
 2431 0190 09808683 	 .word -2088337399
 2432 0194 322BED48 	 .word 1223502642
 2433 0198 1E1170AC 	 .word -1401941730
 2434 019c 6C5A724E 	 .word 1316117100
 2435 01a0 FD0EFFFB 	 .word -67170563
 2436 01a4 0F853856 	 .word 1446544655
 2437 01a8 3DAED51E 	 .word 517320253
 2438 01ac 362D3927 	 .word 658058550
 2439 01b0 0A0FD964 	 .word 1691946762
 2440 01b4 685CA621 	 .word 564550760
 2441 01b8 9B5B54D1 	 .word -783000677
 2442 01bc 24362E3A 	 .word 976107044
 2443 01c0 0C0A67B1 	 .word -1318647284
 2444 01c4 9357E70F 	 .word 266819475
 2445 01c8 B4EE96D2 	 .word -761860428
 2446 01cc 1B9B919E 	 .word -1634624741
 2447 01d0 80C0C54F 	 .word 1338359936
 2448 01d4 61DC20A2 	 .word -1574904735
 2449 01d8 5A774B69 	 .word 1766553434
 2450 01dc 1C121A16 	 .word 370807324
 2451 01e0 E293BA0A 	 .word 179999714
 2452 01e4 C0A02AE5 	 .word -450191168
 2453 01e8 3C22E043 	 .word 1138762300
 2454 01ec 121B171D 	 .word 488053522
 2455 01f0 0E090D0B 	 .word 185403662
 2456 01f4 F28BC7AD 	 .word -1379431438
 2457 01f8 2DB6A8B9 	 .word -1180125651
 2458 01fc 141EA9C8 	 .word -928440812
 2459 0200 57F11985 	 .word -2061897385
 2460 0204 AF75074C 	 .word 1275557295
 2461 0208 EE99DDBB 	 .word -1143105042
 2462 020c A37F60FD 	 .word -44007517
 2463 0210 F701269F 	 .word -1624899081
 2464 0214 5C72F5BC 	 .word -1124765092
 2465 0218 44663BC5 	 .word -985962940
 2466 021c 5BFB7E34 	 .word 880737115
 2467 0220 8B432976 	 .word 1982415755
 2468 0224 CB23C6DC 	 .word -590994485
 2469 0228 B6EDFC68 	 .word 1761406390
 2470 022c B8E4F163 	 .word 1676797112
 2471 0230 D731DCCA 	 .word -891538985
 2472 0234 42638510 	 .word 277177154
 2473 0238 13972240 	 .word 1076008723
 2474 023c 84C61120 	 .word 538035844
 2475 0240 854A247D 	 .word 2099530373
 2476 0244 D2BB3DF8 	 .word -130171950
 2477 0248 AEF93211 	 .word 288553390
 2478 024c C729A16D 	 .word 1839278535
 2479 0250 1D9E2F4B 	 .word 1261411869
 2480 0254 DCB230F3 	 .word -214912292
 2481 0258 0D8652EC 	 .word -330136051
 2482 025c 77C1E3D0 	 .word -790380169
 2483 0260 2BB3166C 	 .word 1813426987
 2484 0264 A970B999 	 .word -1715900247
 2485 0268 119448FA 	 .word -95906799
 2486 026c 47E96422 	 .word 577038663
 2487 0270 A8FC8CC4 	 .word -997393240
 2488 0274 A0F03F1A 	 .word 440397984
 2489 0278 567D2CD8 	 .word -668172970
 2490 027c 223390EF 	 .word -275762398
 2491 0280 87494EC7 	 .word -951170681
 2492 0284 D938D1C1 	 .word -1043253031
 2493 0288 8CCAA2FE 	 .word -22885748
 2494 028c 98D40B36 	 .word 906744984
 2495 0290 A6F581CF 	 .word -813566554
 2496 0294 A57ADE28 	 .word 685669029
 2497 0298 DAB78E26 	 .word 646887386
 2498 029c 3FADBFA4 	 .word -1530942145
 2499 02a0 2C3A9DE4 	 .word -459458004
 2500 02a4 5078920D 	 .word 227702864
 2501 02a8 6A5FCC9B 	 .word -1681105046
 2502 02ac 547E4662 	 .word 1648787028
 2503 02b0 F68D13C2 	 .word -1038905866
 2504 02b4 90D8B8E8 	 .word -390539120
 2505 02b8 2E39F75E 	 .word 1593260334
 2506 02bc 82C3AFF5 	 .word -173030526
 2507 02c0 9F5D80BE 	 .word -1098883681
 2508 02c4 69D0937C 	 .word 2090061929
 2509 02c8 6FD52DA9 	 .word -1456614033
 2510 02cc CF2512B3 	 .word -1290656305
 2511 02d0 C8AC993B 	 .word 999926984
 2512 02d4 10187DA7 	 .word -1484974064
 2513 02d8 E89C636E 	 .word 1852021992
 2514 02dc DB3BBB7B 	 .word 2075868123
 2515 02e0 CD267809 	 .word 158869197
 2516 02e4 6E5918F4 	 .word -199730834
 2517 02e8 EC9AB701 	 .word 28809964
 2518 02ec 834F9AA8 	 .word -1466282109
 2519 02f0 E6956E65 	 .word 1701746150
 2520 02f4 AAFFE67E 	 .word 2129067946
 2521 02f8 21BCCF08 	 .word 147831841
 2522 02fc EF15E8E6 	 .word -420997649
 2523 0300 BAE79BD9 	 .word -644094022
 2524 0304 4A6F36CE 	 .word -835293366
 2525 0308 EA9F09D4 	 .word -737566742
 2526 030c 29B07CD6 	 .word -696471511
 2527 0310 31A4B2AF 	 .word -1347247055
 2528 0314 2A3F2331 	 .word 824393514
 2529 0318 C6A59430 	 .word 815048134
 2530 031c 35A266C0 	 .word -1067015627
 2531 0320 744EBC37 	 .word 935087732
 2532 0324 FC82CAA6 	 .word -1496677636
 2533 0328 E090D0B0 	 .word -1328508704
 2534 032c 33A7D815 	 .word 366520115
 2535 0330 F104984A 	 .word 1251476721
 2536 0334 41ECDAF7 	 .word -136647615
 2537 0338 7FCD500E 	 .word 240176511
 2538 033c 1791F62F 	 .word 804688151
 2539 0340 764DD68D 	 .word -1915335306
 2540 0344 43EFB04D 	 .word 1303441219
 2541 0348 CCAA4D54 	 .word 1414376140
 2542 034c E49604DF 	 .word -553347356
 2543 0350 9ED1B5E3 	 .word -474623586
 2544 0354 4C6A881B 	 .word 461924940
 2545 0358 C12C1FB8 	 .word -1205916479
 2546 035c 4665517F 	 .word 2136040774
 2547 0360 9D5EEA04 	 .word 82468509
 2548 0364 018C355D 	 .word 1563790337
 2549 0368 FA877473 	 .word 1937016826
 2550 036c FB0B412E 	 .word 776014843
 2551 0370 B3671D5A 	 .word 1511876531
 2552 0374 92DBD252 	 .word 1389550482
 2553 0378 E9105633 	 .word 861278441
 2554 037c 6DD64713 	 .word 323475053
 2555 0380 9AD7618C 	 .word -1939744870
 2556 0384 37A10C7A 	 .word 2047648055
 2557 0388 59F8148E 	 .word -1911228327
 2558 038c EB133C89 	 .word -1992551445
 2559 0390 CEA927EE 	 .word -299390514
 2560 0394 B761C935 	 .word 902390199
 2561 0398 E11CE5ED 	 .word -303751967
 2562 039c 7A47B13C 	 .word 1018251130
 2563 03a0 9CD2DF59 	 .word 1507840668
 2564 03a4 55F2733F 	 .word 1064563285
 2565 03a8 1814CE79 	 .word 2043548696
 2566 03ac 73C737BF 	 .word -1086863501
 2567 03b0 53F7CDEA 	 .word -355600557
 2568 03b4 5FFDAA5B 	 .word 1537932639
 2569 03b8 DF3D6F14 	 .word 342834655
 2570 03bc 7844DB86 	 .word -2032450440
 2571 03c0 CAAFF381 	 .word -2114736182
 2572 03c4 B968C43E 	 .word 1053059257
 2573 03c8 3824342C 	 .word 741614648
 2574 03cc C2A3405F 	 .word 1598071746
 2575 03d0 161DC372 	 .word 1925389590
 2576 03d4 BCE2250C 	 .word 203809468
 2577 03d8 283C498B 	 .word -1958134744
 2578 03dc FF0D9541 	 .word 1100287487
 2579 03e0 39A80171 	 .word 1895934009
 2580 03e4 080CB3DE 	 .word -558691320
 2581 03e8 D8B4E49C 	 .word -1662733096
 2582 03ec 6456C190 	 .word -1866377628
 2583 03f0 7BCB8461 	 .word 1636092795
 2584 03f4 D532B670 	 .word 1890988757
 2585 03f8 486C5C74 	 .word 1952214088
 2586 03fc D0B85742 	 .word 1113045200
 2587              	 .section .rodata.RT1,"a",%progbits
 2588              	 .align 2
 2589              	 .set .LANCHOR4,.+0
 2592              	RT1:
 2593 0000 5051F4A7 	 .word -1477160624
 2594 0004 537E4165 	 .word 1698790995
 2595 0008 C31A17A4 	 .word -1541989693
 2596 000c 963A275E 	 .word 1579629206
 2597 0010 CB3BAB6B 	 .word 1806384075
 2598 0014 F11F9D45 	 .word 1167925233
 2599 0018 ABACFA58 	 .word 1492823211
 2600 001c 934BE303 	 .word 65227667
 2601 0020 552030FA 	 .word -97509291
 2602 0024 F6AD766D 	 .word 1836494326
 2603 0028 9188CC76 	 .word 1993115793
 2604 002c 25F5024C 	 .word 1275262245
 2605 0030 FC4FE5D7 	 .word -672837636
 2606 0034 D7C52ACB 	 .word -886389289
 2607 0038 80263544 	 .word 1144333952
 2608 003c 8FB562A3 	 .word -1553812081
 2609 0040 49DEB15A 	 .word 1521606217
 2610 0044 6725BA1B 	 .word 465184103
 2611 0048 9845EA0E 	 .word 250234264
 2612 004c E15DFEC0 	 .word -1057071647
 2613 0050 02C32F75 	 .word 1966064386
 2614 0054 12814CF0 	 .word -263421678
 2615 0058 A38D4697 	 .word -1756983901
 2616 005c C66BD3F9 	 .word -103584826
 2617 0060 E7038F5F 	 .word 1603208167
 2618 0064 9515929C 	 .word -1668147819
 2619 0068 EBBF6D7A 	 .word 2054012907
 2620 006c DA955259 	 .word 1498584538
 2621 0070 2DD4BE83 	 .word -2084645843
 2622 0074 D3587421 	 .word 561273043
 2623 0078 2949E069 	 .word 1776306473
 2624 007c 448EC9C8 	 .word -926314940
 2625 0080 6A75C289 	 .word -1983744662
 2626 0084 78F48E79 	 .word 2039411832
 2627 0088 6B99583E 	 .word 1045993835
 2628 008c DD27B971 	 .word 1907959773
 2629 0090 B6BEE14F 	 .word 1340194486
 2630 0094 17F088AD 	 .word -1383534569
 2631 0098 66C920AC 	 .word -1407137434
 2632 009c B47DCE3A 	 .word 986611124
 2633 00a0 1863DF4A 	 .word 1256153880
 2634 00a4 82E51A31 	 .word 823846274
 2635 00a8 60975133 	 .word 860985184
 2636 00ac 4562537F 	 .word 2136171077
 2637 00b0 E0B16477 	 .word 2003087840
 2638 00b4 84BB6BAE 	 .word -1368671356
 2639 00b8 1CFE81A0 	 .word -1602093540
 2640 00bc 94F9082B 	 .word 722008468
 2641 00c0 58704868 	 .word 1749577816
 2642 00c4 198F45FD 	 .word -45773031
 2643 00c8 8794DE6C 	 .word 1826526343
 2644 00cc B7527BF8 	 .word -126135625
 2645 00d0 23AB73D3 	 .word -747394269
 2646 00d4 E2724B02 	 .word 38499042
 2647 00d8 57E31F8F 	 .word -1893735593
 2648 00dc 2A6655AB 	 .word -1420466646
 2649 00e0 07B2EB28 	 .word 686535175
 2650 00e4 032FB5C2 	 .word -1028313341
 2651 00e8 9A86C57B 	 .word 2076542618
 2652 00ec A5D33708 	 .word 137876389
 2653 00f0 F2302887 	 .word -2027409166
 2654 00f4 B223BFA5 	 .word -1514200142
 2655 00f8 BA02036A 	 .word 1778582202
 2656 00fc 5CED1682 	 .word -2112426660
 2657 0100 2B8ACF1C 	 .word 483363371
 2658 0104 92A779B4 	 .word -1267095662
 2659 0108 F0F307F2 	 .word -234359824
 2660 010c A14E69E2 	 .word -496415071
 2661 0110 CD65DAF4 	 .word -187013683
 2662 0114 D50605BE 	 .word -1106966827
 2663 0118 1FD13462 	 .word 1647628575
 2664 011c 8AC4A6FE 	 .word -22625142
 2665 0120 9D342E53 	 .word 1395537053
 2666 0124 A0A2F355 	 .word 1442030240
 2667 0128 32058AE1 	 .word -511048398
 2668 012c 75A4F6EB 	 .word -336157579
 2669 0130 390B83EC 	 .word -326956231
 2670 0134 AA4060EF 	 .word -278904662
 2671 0138 065E719F 	 .word -1619960314
 2672 013c 51BD6E10 	 .word 275692881
 2673 0140 F93E218A 	 .word -1977532679
 2674 0144 3D96DD06 	 .word 115185213
 2675 0148 AEDD3E05 	 .word 88006062
 2676 014c 464DE6BD 	 .word -1108980410
 2677 0150 B591548D 	 .word -1923837515
 2678 0154 0571C45D 	 .word 1573155077
 2679 0158 6F0406D4 	 .word -737803153
 2680 015c FF605015 	 .word 357589247
 2681 0160 241998FB 	 .word -73918172
 2682 0164 97D6BDE9 	 .word -373434729
 2683 0168 CC894043 	 .word 1128303052
 2684 016c 7767D99E 	 .word -1629919369
 2685 0170 BDB0E842 	 .word 1122545853
 2686 0174 8807898B 	 .word -1953953912
 2687 0178 38E7195B 	 .word 1528424248
 2688 017c DB79C8EE 	 .word -288851493
 2689 0180 47A17C0A 	 .word 175939911
 2690 0184 E97C420F 	 .word 256015593
 2691 0188 C9F8841E 	 .word 512030921
 2692 018c 00000000 	 .word 0
 2693 0190 83098086 	 .word -2038429309
 2694 0194 48322BED 	 .word -315936184
 2695 0198 AC1E1170 	 .word 1880170156
 2696 019c 4E6C5A72 	 .word 1918528590
 2697 01a0 FBFD0EFF 	 .word -15794693
 2698 01a4 560F8538 	 .word 948244310
 2699 01a8 1E3DAED5 	 .word -710001378
 2700 01ac 27362D39 	 .word 959264295
 2701 01b0 640A0FD9 	 .word -653325724
 2702 01b4 21685CA6 	 .word -1503893471
 2703 01b8 D19B5B54 	 .word 1415289809
 2704 01bc 3A24362E 	 .word 775300154
 2705 01c0 B10C0A67 	 .word 1728711857
 2706 01c4 0F9357E7 	 .word -413691121
 2707 01c8 D2B4EE96 	 .word -1762741038
 2708 01cc 9E1B9B91 	 .word -1852105826
 2709 01d0 4F80C0C5 	 .word -977239985
 2710 01d4 A261DC20 	 .word 551313826
 2711 01d8 695A774B 	 .word 1266113129
 2712 01dc 161C121A 	 .word 437394454
 2713 01e0 0AE293BA 	 .word -1164713462
 2714 01e4 E5C0A02A 	 .word 715178213
 2715 01e8 433C22E0 	 .word -534627261
 2716 01ec 1D121B17 	 .word 387650077
 2717 01f0 0B0E090D 	 .word 218697227
 2718 01f4 ADF28BC7 	 .word -947129683
 2719 01f8 B92DB6A8 	 .word -1464455751
 2720 01fc C8141EA9 	 .word -1457646392
 2721 0200 8557F119 	 .word 435246981
 2722 0204 4CAF7507 	 .word 125153100
 2723 0208 BBEE99DD 	 .word -577114437
 2724 020c FDA37F60 	 .word 1618977789
 2725 0210 9FF70126 	 .word 637663135
 2726 0214 BC5C72F5 	 .word -177054532
 2727 0218 C544663B 	 .word 996558021
 2728 021c 345BFB7E 	 .word 2130402100
 2729 0220 768B4329 	 .word 692292470
 2730 0224 DCCB23C6 	 .word -970732580
 2731 0228 68B6EDFC 	 .word -51530136
 2732 022c 63B8E4F1 	 .word -236668829
 2733 0230 CAD731DC 	 .word -600713270
 2734 0234 10426385 	 .word -2057092592
 2735 0238 40139722 	 .word 580326208
 2736 023c 2084C611 	 .word 298222624
 2737 0240 7D854A24 	 .word 608863613
 2738 0244 F8D2BB3D 	 .word 1035719416
 2739 0248 11AEF932 	 .word 855223825
 2740 024c 6DC729A1 	 .word -1591097491
 2741 0250 4B1D9E2F 	 .word 798891339
 2742 0254 F3DCB230 	 .word 817028339
 2743 0258 EC0D8652 	 .word 1384517100
 2744 025c D077C1E3 	 .word -473860144
 2745 0260 6C2BB316 	 .word 380840812
 2746 0264 99A970B9 	 .word -1183798887
 2747 0268 FA119448 	 .word 1217663482
 2748 026c 2247E964 	 .word 1693009698
 2749 0270 C4A8FC8C 	 .word -1929598780
 2750 0274 1AA0F03F 	 .word 1072734234
 2751 0278 D8567D2C 	 .word 746411736
 2752 027c EF223390 	 .word -1875696913
 2753 0280 C787494E 	 .word 1313441735
 2754 0284 C1D938D1 	 .word -784803391
 2755 0288 FE8CCAA2 	 .word -1563783938
 2756 028c 3698D40B 	 .word 198481974
 2757 0290 CFA6F581 	 .word -2114607409
 2758 0294 28A57ADE 	 .word -562387672
 2759 0298 26DAB78E 	 .word -1900553690
 2760 029c A43FADBF 	 .word -1079165020
 2761 02a0 E42C3A9D 	 .word -1657131804
 2762 02a4 0D507892 	 .word -1837608947
 2763 02a8 9B6A5FCC 	 .word -866162021
 2764 02ac 62547E46 	 .word 1182684258
 2765 02b0 C2F68D13 	 .word 328070850
 2766 02b4 E890D8B8 	 .word -1193766680
 2767 02b8 5E2E39F7 	 .word -147247522
 2768 02bc F582C3AF 	 .word -1346141451
 2769 02c0 BE9F5D80 	 .word -2141347906
 2770 02c4 7C69D093 	 .word -1815058052
 2771 02c8 A96FD52D 	 .word 768962473
 2772 02cc B3CF2512 	 .word 304467891
 2773 02d0 3BC8AC99 	 .word -1716729797
 2774 02d4 A710187D 	 .word 2098729127
 2775 02d8 6EE89C63 	 .word 1671227502
 2776 02dc 7BDB3BBB 	 .word -1153705093
 2777 02e0 09CD2678 	 .word 2015808777
 2778 02e4 F46E5918 	 .word 408514292
 2779 02e8 01EC9AB7 	 .word -1214583807
 2780 02ec A8834F9A 	 .word -1706064984
 2781 02f0 65E6956E 	 .word 1855317605
 2782 02f4 7EAAFFE6 	 .word -419452290
 2783 02f8 0821BCCF 	 .word -809754360
 2784 02fc E6EF15E8 	 .word -401215514
 2785 0300 D9BAE79B 	 .word -1679312167
 2786 0304 CE4A6F36 	 .word 913263310
 2787 0308 D4EA9F09 	 .word 161475284
 2788 030c D629B07C 	 .word 2091919830
 2789 0310 AF31A4B2 	 .word -1297862225
 2790 0314 312A3F23 	 .word 591342129
 2791 0318 30C6A594 	 .word -1801075152
 2792 031c C035A266 	 .word 1721906624
 2793 0320 37744EBC 	 .word -1135709129
 2794 0324 A6FC82CA 	 .word -897385306
 2795 0328 B0E090D0 	 .word -795811664
 2796 032c 1533A7D8 	 .word -660131051
 2797 0330 4AF10498 	 .word -1744506550
 2798 0334 F741ECDA 	 .word -622050825
 2799 0338 0E7FCD50 	 .word 1355644686
 2800 033c 2F1791F6 	 .word -158263505
 2801 0340 8D764DD6 	 .word -699566451
 2802 0344 4D43EFB0 	 .word -1326496947
 2803 0348 54CCAA4D 	 .word 1303039060
 2804 034c DFE49604 	 .word 76997855
 2805 0350 E39ED1B5 	 .word -1244553501
 2806 0354 1B4C6A88 	 .word -2006299621
 2807 0358 B8C12C1F 	 .word 523026872
 2808 035c 7F466551 	 .word 1365591679
 2809 0360 049D5EEA 	 .word -362898172
 2810 0364 5D018C35 	 .word 898367837
 2811 0368 73FA8774 	 .word 1955068531
 2812 036c 2EFB0B41 	 .word 1091304238
 2813 0370 5AB3671D 	 .word 493335386
 2814 0374 5292DBD2 	 .word -757362094
 2815 0378 33E91056 	 .word 1443948851
 2816 037c 136DD647 	 .word 1205234963
 2817 0380 8C9AD761 	 .word 1641519756
 2818 0384 7A37A10C 	 .word 211892090
 2819 0388 8E59F814 	 .word 351820174
 2820 038c 89EB133C 	 .word 1007938441
 2821 0390 EECEA927 	 .word 665439982
 2822 0394 35B761C9 	 .word -916342987
 2823 0398 EDE11CE5 	 .word -451091987
 2824 039c 3C7A47B1 	 .word -1320715716
 2825 03a0 599CD2DF 	 .word -539845543
 2826 03a4 3F55F273 	 .word 1945261375
 2827 03a8 791814CE 	 .word -837543815
 2828 03ac BF73C737 	 .word 935818175
 2829 03b0 EA53F7CD 	 .word -839429142
 2830 03b4 5B5FFDAA 	 .word -1426235557
 2831 03b8 14DF3D6F 	 .word 1866325780
 2832 03bc 867844DB 	 .word -616269690
 2833 03c0 81CAAFF3 	 .word -206583167
 2834 03c4 3EB968C4 	 .word -999769794
 2835 03c8 2C382434 	 .word 874788908
 2836 03cc 5FC2A340 	 .word 1084473951
 2837 03d0 72161DC3 	 .word -1021503886
 2838 03d4 0CBCE225 	 .word 635616268
 2839 03d8 8B283C49 	 .word 1228679307
 2840 03dc 41FF0D95 	 .word -1794244799
 2841 03e0 7139A801 	 .word 27801969
 2842 03e4 DE080CB3 	 .word -1291056930
 2843 03e8 9CD8B4E4 	 .word -457910116
 2844 03ec 906456C1 	 .word -1051302768
 2845 03f0 617BCB84 	 .word -2067039391
 2846 03f4 70D532B6 	 .word -1238182544
 2847 03f8 74486C5C 	 .word 1550600308
 2848 03fc 42D0B857 	 .word 1471729730
 2849              	 .section .rodata.RT2,"a",%progbits
 2850              	 .align 2
 2851              	 .set .LANCHOR5,.+0
 2854              	RT2:
 2855 0000 A75051F4 	 .word -195997529
 2856 0004 65537E41 	 .word 1098797925
 2857 0008 A4C31A17 	 .word 387629988
 2858 000c 5E963A27 	 .word 658151006
 2859 0010 6BCB3BAB 	 .word -1422144661
 2860 0014 45F11F9D 	 .word -1658851003
 2861 0018 58ABACFA 	 .word -89347240
 2862 001c 03934BE3 	 .word -481586429
 2863 0020 FA552030 	 .word 807425530
 2864 0024 6DF6AD76 	 .word 1991112301
 2865 0028 769188CC 	 .word -863465098
 2866 002c 4C25F502 	 .word 49620300
 2867 0030 D7FC4FE5 	 .word -447742761
 2868 0034 CBD7C52A 	 .word 717608907
 2869 0038 44802635 	 .word 891715652
 2870 003c A38FB562 	 .word 1656065955
 2871 0040 5A49DEB1 	 .word -1310832294
 2872 0044 1B6725BA 	 .word -1171953893
 2873 0048 0E9845EA 	 .word -364537842
 2874 004c C0E15DFE 	 .word -27401792
 2875 0050 7502C32F 	 .word 801309301
 2876 0054 F012814C 	 .word 1283527408
 2877 0058 97A38D46 	 .word 1183687575
 2878 005c F9C66BD3 	 .word -747911431
 2879 0060 5FE7038F 	 .word -1895569569
 2880 0064 9C951592 	 .word -1844079204
 2881 0068 7AEBBF6D 	 .word 1841294202
 2882 006c 59DA9552 	 .word 1385552473
 2883 0070 832DD4BE 	 .word -1093390973
 2884 0074 21D35874 	 .word 1951978273
 2885 0078 692949E0 	 .word -532076183
 2886 007c C8448EC9 	 .word -913423160
 2887 0080 896A75C2 	 .word -1032492407
 2888 0084 7978F48E 	 .word -1896580999
 2889 0088 3E6B9958 	 .word 1486449470
 2890 008c 71DD27B9 	 .word -1188569743
 2891 0090 4FB6BEE1 	 .word -507595185
 2892 0094 AD17F088 	 .word -1997531219
 2893 0098 AC66C920 	 .word 550069932
 2894 009c 3AB47DCE 	 .word -830622662
 2895 00a0 4A1863DF 	 .word -547153846
 2896 00a4 3182E51A 	 .word 451248689
 2897 00a8 33609751 	 .word 1368875059
 2898 00ac 7F456253 	 .word 1398949247
 2899 00b0 77E0B164 	 .word 1689378935
 2900 00b4 AE84BB6B 	 .word 1807451310
 2901 00b8 A01CFE81 	 .word -2114052960
 2902 00bc 2B94F908 	 .word 150574123
 2903 00c0 68587048 	 .word 1215322216
 2904 00c4 FD198F45 	 .word 1167006205
 2905 00c8 6C8794DE 	 .word -560691348
 2906 00cc F8B7527B 	 .word 2069018616
 2907 00d0 D323AB73 	 .word 1940595667
 2908 00d4 02E2724B 	 .word 1265820162
 2909 00d8 8F57E31F 	 .word 534992783
 2910 00dc AB2A6655 	 .word 1432758955
 2911 00e0 2807B2EB 	 .word -340654296
 2912 00e4 C2032FB5 	 .word -1255210046
 2913 00e8 7B9A86C5 	 .word -981034373
 2914 00ec 08A5D337 	 .word 936617224
 2915 00f0 87F23028 	 .word 674296455
 2916 00f4 A5B223BF 	 .word -1088179547
 2917 00f8 6ABA0203 	 .word 50510442
 2918 00fc 825CED16 	 .word 384654466
 2919 0100 1C2B8ACF 	 .word -813028580
 2920 0104 B492A779 	 .word 2041025204
 2921 0108 F2F0F307 	 .word 133427442
 2922 010c E2A14E69 	 .word 1766760930
 2923 0110 F4CD65DA 	 .word -630862348
 2924 0114 BED50605 	 .word 84334014
 2925 0118 621FD134 	 .word 886120290
 2926 011c FE8AC4A6 	 .word -1497068802
 2927 0120 539D342E 	 .word 775200083
 2928 0124 55A0A2F3 	 .word -207445931
 2929 0128 E132058A 	 .word -1979370783
 2930 012c EB75A4F6 	 .word -156994069
 2931 0130 EC390B83 	 .word -2096416276
 2932 0134 EFAA4060 	 .word 1614850799
 2933 0138 9F065E71 	 .word 1901987487
 2934 013c 1051BD6E 	 .word 1857900816
 2935 0140 8AF93E21 	 .word 557775242
 2936 0144 063D96DD 	 .word -577356538
 2937 0148 05AEDD3E 	 .word 1054715397
 2938 014c BD464DE6 	 .word -431143235
 2939 0150 8DB59154 	 .word 1418835341
 2940 0154 5D0571C4 	 .word -999226019
 2941 0158 D46F0406 	 .word 100954068
 2942 015c 15FF6050 	 .word 1348534037
 2943 0160 FB241998 	 .word -1743182597
 2944 0164 E997D6BD 	 .word -1110009879
 2945 0168 43CC8940 	 .word 1082772547
 2946 016c 9E7767D9 	 .word -647530594
 2947 0170 42BDB0E8 	 .word -391070398
 2948 0174 8B880789 	 .word -1995994997
 2949 0178 5B38E719 	 .word 434583643
 2950 017c EEDB79C8 	 .word -931537938
 2951 0180 0A47A17C 	 .word 2090944266
 2952 0184 0FE97C42 	 .word 1115482383
 2953 0188 1EC9F884 	 .word -2064070370
 2954 018c 00000000 	 .word 0
 2955 0190 86830980 	 .word -2146860154
 2956 0194 ED48322B 	 .word 724715757
 2957 0198 70AC1E11 	 .word 287222896
 2958 019c 724E6C5A 	 .word 1517047410
 2959 01a0 FFFBFD0E 	 .word 251526143
 2960 01a4 38560F85 	 .word -2062592456
 2961 01a8 D51E3DAE 	 .word -1371726123
 2962 01ac 3927362D 	 .word 758523705
 2963 01b0 D9640A0F 	 .word 252339417
 2964 01b4 A621685C 	 .word 1550328230
 2965 01b8 54D19B5B 	 .word 1536938324
 2966 01bc 2E3A2436 	 .word 908343854
 2967 01c0 67B10C0A 	 .word 168604007
 2968 01c4 E70F9357 	 .word 1469255655
 2969 01c8 96D2B4EE 	 .word -290139498
 2970 01cc 919E1B9B 	 .word -1692688751
 2971 01d0 C54F80C0 	 .word -1065332795
 2972 01d4 20A261DC 	 .word -597581280
 2973 01d8 4B695A77 	 .word 2002413899
 2974 01dc 1A161C12 	 .word 303830554
 2975 01e0 BA0AE293 	 .word -1813902662
 2976 01e4 2AE5C0A0 	 .word -1597971158
 2977 01e8 E0433C22 	 .word 574374880
 2978 01ec 171D121B 	 .word 454171927
 2979 01f0 0D0B0E09 	 .word 151915277
 2980 01f4 C7ADF28B 	 .word -1947030073
 2981 01f8 A8B92DB6 	 .word -1238517336
 2982 01fc A9C8141E 	 .word 504678569
 2983 0200 198557F1 	 .word -245922535
 2984 0204 074CAF75 	 .word 1974422535
 2985 0208 DDBBEE99 	 .word -1712407587
 2986 020c 60FDA37F 	 .word 2141453664
 2987 0210 269FF701 	 .word 33005350
 2988 0214 F5BC5C72 	 .word 1918680309
 2989 0218 3BC54466 	 .word 1715782971
 2990 021c 7E345BFB 	 .word -77908866
 2991 0220 29768B43 	 .word 1133213225
 2992 0224 C6DCCB23 	 .word 600562886
 2993 0228 FC68B6ED 	 .word -306812676
 2994 022c F163B8E4 	 .word -457677839
 2995 0230 DCCAD731 	 .word 836225756
 2996 0234 85104263 	 .word 1665273989
 2997 0238 22401397 	 .word -1760346078
 2998 023c 112084C6 	 .word -964419567
 2999 0240 247D854A 	 .word 1250262308
 3000 0244 3DF8D2BB 	 .word -1143801795
 3001 0248 3211AEF9 	 .word -106032846
 3002 024c A16DC729 	 .word 700935585
 3003 0250 2F4B1D9E 	 .word -1642247377
 3004 0254 30F3DCB2 	 .word -1294142672
 3005 0258 52EC0D86 	 .word -2045907886
 3006 025c E3D077C1 	 .word -1049112349
 3007 0260 166C2BB3 	 .word -1288999914
 3008 0264 B999A970 	 .word 1890163129
 3009 0268 48FA1194 	 .word -1810761144
 3010 026c 642247E9 	 .word -381214108
 3011 0270 8CC4A8FC 	 .word -56048500
 3012 0274 3F1AA0F0 	 .word -257942977
 3013 0278 2CD8567D 	 .word 2102843436
 3014 027c 90EF2233 	 .word 857927568
 3015 0280 4EC78749 	 .word 1233635150
 3016 0284 D1C1D938 	 .word 953795025
 3017 0288 A2FE8CCA 	 .word -896729438
 3018 028c 0B3698D4 	 .word -728222197
 3019 0290 81CFA6F5 	 .word -173617279
 3020 0294 DE28A57A 	 .word 2057644254
 3021 0298 8E26DAB7 	 .word -1210440050
 3022 029c BFA43FAD 	 .word -1388337985
 3023 02a0 9DE42C3A 	 .word 976020637
 3024 02a4 920D5078 	 .word 2018512274
 3025 02a8 CC9B6A5F 	 .word 1600822220
 3026 02ac 4662547E 	 .word 2119459398
 3027 02b0 13C2F68D 	 .word -1913208301
 3028 02b4 B8E890D8 	 .word -661591880
 3029 02b8 F75E2E39 	 .word 959340279
 3030 02bc AFF582C3 	 .word -1014827601
 3031 02c0 80BE9F5D 	 .word 1570750080
 3032 02c4 937C69D0 	 .word -798393197
 3033 02c8 2DA96FD5 	 .word -714102483
 3034 02cc 12B3CF25 	 .word 634368786
 3035 02d0 993BC8AC 	 .word -1396163687
 3036 02d4 7DA71018 	 .word 403744637
 3037 02d8 636EE89C 	 .word -1662488989
 3038 02dc BB7BDB3B 	 .word 1004239803
 3039 02e0 7809CD26 	 .word 650971512
 3040 02e4 18F46E59 	 .word 1500443672
 3041 02e8 B701EC9A 	 .word -1695809097
 3042 02ec 9AA8834F 	 .word 1334028442
 3043 02f0 6E65E695 	 .word -1780062866
 3044 02f4 E67EAAFF 	 .word -5603610
 3045 02f8 CF0821BC 	 .word -1138685745
 3046 02fc E8E6EF15 	 .word 368043752
 3047 0300 9BD9BAE7 	 .word -407184997
 3048 0304 36CE4A6F 	 .word 1867173430
 3049 0308 09D4EA9F 	 .word -1612000247
 3050 030c 7CD629B0 	 .word -1339435396
 3051 0310 B2AF31A4 	 .word -1540247630
 3052 0314 23312A3F 	 .word 1059729699
 3053 0318 9430C6A5 	 .word -1513738092
 3054 031c 66C035A2 	 .word -1573535642
 3055 0320 BC37744E 	 .word 1316239292
 3056 0324 CAA6FC82 	 .word -2097371446
 3057 0328 D0B0E090 	 .word -1864322864
 3058 032c D81533A7 	 .word -1489824296
 3059 0330 984AF104 	 .word 82922136
 3060 0334 DAF741EC 	 .word -331221030
 3061 0338 500E7FCD 	 .word -847311280
 3062 033c F62F1791 	 .word -1860751370
 3063 0340 D68D764D 	 .word 1299615190
 3064 0344 B04D43EF 	 .word -280801872
 3065 0348 4D54CCAA 	 .word -1429449651
 3066 034c 04DFE496 	 .word -1763385596
 3067 0350 B5E39ED1 	 .word -778116171
 3068 0354 881B4C6A 	 .word 1783372680
 3069 0358 1FB8C12C 	 .word 750893087
 3070 035c 517F4665 	 .word 1699118929
 3071 0360 EA049D5E 	 .word 1587348714
 3072 0364 355D018C 	 .word -1946067659
 3073 0368 7473FA87 	 .word -2013629580
 3074 036c 412EFB0B 	 .word 201010753
 3075 0370 1D5AB367 	 .word 1739807261
 3076 0374 D25292DB 	 .word -611167534
 3077 0378 5633E910 	 .word 283718486
 3078 037c 47136DD6 	 .word -697494713
 3079 0380 618C9AD7 	 .word -677737375
 3080 0384 0C7A37A1 	 .word -1590199796
 3081 0388 148E59F8 	 .word -128348652
 3082 038c 3C89EB13 	 .word 334203196
 3083 0390 27EECEA9 	 .word -1446056409
 3084 0394 C935B761 	 .word 1639396809
 3085 0398 E5EDE11C 	 .word 484568549
 3086 039c B13C7A47 	 .word 1199193265
 3087 03a0 DF599CD2 	 .word -761505313
 3088 03a4 733F55F2 	 .word -229294221
 3089 03a8 CE791814 	 .word 337148366
 3090 03ac 37BF73C7 	 .word -948715721
 3091 03b0 CDEA53F7 	 .word -145495347
 3092 03b4 AA5B5FFD 	 .word -44082262
 3093 03b8 6F14DF3D 	 .word 1038029935
 3094 03bc DB867844 	 .word 1148749531
 3095 03c0 F381CAAF 	 .word -1345682957
 3096 03c4 C43EB968 	 .word 1756970692
 3097 03c8 342C3824 	 .word 607661108
 3098 03cc 405FC2A3 	 .word -1547542720
 3099 03d0 C372161D 	 .word 488010435
 3100 03d4 250CBCE2 	 .word -490992603
 3101 03d8 498B283C 	 .word 1009290057
 3102 03dc 9541FF0D 	 .word 234832277
 3103 03e0 017139A8 	 .word -1472630527
 3104 03e4 B3DE080C 	 .word 201907891
 3105 03e8 E49CD8B4 	 .word -1260872476
 3106 03ec C1906456 	 .word 1449431233
 3107 03f0 84617BCB 	 .word -881106556
 3108 03f4 B670D532 	 .word 852848822
 3109 03f8 5C74486C 	 .word 1816687708
 3110 03fc 5742D0B8 	 .word -1194311081
 3111              	 .section .rodata.RT3,"a",%progbits
 3112              	 .align 2
 3113              	 .set .LANCHOR2,.+0
 3116              	RT3:
 3117 0000 F4A75051 	 .word 1364240372
 3118 0004 4165537E 	 .word 2119394625
 3119 0008 17A4C31A 	 .word 449029143
 3120 000c 275E963A 	 .word 982933031
 3121 0010 AB6BCB3B 	 .word 1003187115
 3122 0014 9D45F11F 	 .word 535905693
 3123 0018 FA58ABAC 	 .word -1398056710
 3124 001c E303934B 	 .word 1267925987
 3125 0020 30FA5520 	 .word 542505520
 3126 0024 766DF6AD 	 .word -1376359050
 3127 0028 CC769188 	 .word -2003732788
 3128 002c 024C25F5 	 .word -182105086
 3129 0030 E5D7FC4F 	 .word 1341970405
 3130 0034 2ACBD7C5 	 .word -975713494
 3131 0038 35448026 	 .word 645940277
 3132 003c 62A38FB5 	 .word -1248877726
 3133 0040 B15A49DE 	 .word -565617999
 3134 0044 BA1B6725 	 .word 627514298
 3135 0048 EA0E9845 	 .word 1167593194
 3136 004c FEC0E15D 	 .word 1575076094
 3137 0050 2F7502C3 	 .word -1023249105
 3138 0054 4CF01281 	 .word -2129465268
 3139 0058 4697A38D 	 .word -1918658746
 3140 005c D3F9C66B 	 .word 1808202195
 3141 0060 8F5FE703 	 .word 65494927
 3142 0064 929C9515 	 .word 362126482
 3143 0068 6D7AEBBF 	 .word -1075086739
 3144 006c 5259DA95 	 .word -1780852398
 3145 0070 BE832DD4 	 .word -735214658
 3146 0074 7421D358 	 .word 1490231668
 3147 0078 E0692949 	 .word 1227450848
 3148 007c C9C8448E 	 .word -1908094775
 3149 0080 C2896A75 	 .word 1969916354
 3150 0084 8E7978F4 	 .word -193431154
 3151 0088 583E6B99 	 .word -1721024936
 3152 008c B971DD27 	 .word 668823993
 3153 0090 E14FB6BE 	 .word -1095348255
 3154 0094 88AD17F0 	 .word -266883704
 3155 0098 20AC66C9 	 .word -916018144
 3156 009c CE3AB47D 	 .word 2108963534
 3157 00a0 DF4A1863 	 .word 1662536415
 3158 00a4 1A3182E5 	 .word -444452582
 3159 00a8 51336097 	 .word -1755303087
 3160 00ac 537F4562 	 .word 1648721747
 3161 00b0 6477E0B1 	 .word -1310689436
 3162 00b4 6BAE84BB 	 .word -1148932501
 3163 00b8 81A01CFE 	 .word -31678335
 3164 00bc 082B94F9 	 .word -107730168
 3165 00c0 48685870 	 .word 1884842056
 3166 00c4 45FD198F 	 .word -1894122171
 3167 00c8 DE6C8794 	 .word -1803064098
 3168 00cc 7BF8B752 	 .word 1387788411
 3169 00d0 73D323AB 	 .word -1423715469
 3170 00d4 4B02E272 	 .word 1927414347
 3171 00d8 1F8F57E3 	 .word -480800993
 3172 00dc 55AB2A66 	 .word 1714072405
 3173 00e0 EB2807B2 	 .word -1308153621
 3174 00e4 B5C2032F 	 .word 788775605
 3175 00e8 C57B9A86 	 .word -2036696123
 3176 00ec 3708A5D3 	 .word -744159177
 3177 00f0 2887F230 	 .word 821200680
 3178 00f4 BFA5B223 	 .word 598910399
 3179 00f8 036ABA02 	 .word 45771267
 3180 00fc 16825CED 	 .word -312704490
 3181 0100 CF1C2B8A 	 .word -1976886065
 3182 0104 79B492A7 	 .word -1483557767
 3183 0108 07F2F0F3 	 .word -202313209
 3184 010c 69E2A14E 	 .word 1319232105
 3185 0110 DAF4CD65 	 .word 1707996378
 3186 0114 05BED506 	 .word 114671109
 3187 0118 34621FD1 	 .word -786472396
 3188 011c A6FE8AC4 	 .word -997523802
 3189 0120 2E539D34 	 .word 882725678
 3190 0124 F355A0A2 	 .word -1566550541
 3191 0128 8AE13205 	 .word 87220618
 3192 012c F6EB75A4 	 .word -1535775754
 3193 0130 83EC390B 	 .word 188345475
 3194 0134 60EFAA40 	 .word 1084944224
 3195 0138 719F065E 	 .word 1577492337
 3196 013c 6E1051BD 	 .word -1118760850
 3197 0140 218AF93E 	 .word 1056541217
 3198 0144 DD063D96 	 .word -1774385443
 3199 0148 3E05AEDD 	 .word -575797954
 3200 014c E6BD464D 	 .word 1296481766
 3201 0150 548DB591 	 .word -1850372780
 3202 0154 C45D0571 	 .word 1896177092
 3203 0158 06D46F04 	 .word 74437638
 3204 015c 5015FF60 	 .word 1627329872
 3205 0160 98FB2419 	 .word 421854104
 3206 0164 BDE997D6 	 .word -694687299
 3207 0168 4043CC89 	 .word -1983102144
 3208 016c D99E7767 	 .word 1735892697
 3209 0170 E842BDB0 	 .word -1329773848
 3210 0174 898B8807 	 .word 126389129
 3211 0178 195B38E7 	 .word -415737063
 3212 017c C8EEDB79 	 .word 2044456648
 3213 0180 7C0A47A1 	 .word -1589179780
 3214 0184 420FE97C 	 .word 2095648578
 3215 0188 841EC9F8 	 .word -121037180
 3216 018c 00000000 	 .word 0
 3217 0190 80868309 	 .word 159614592
 3218 0194 2BED4832 	 .word 843640107
 3219 0198 1170AC1E 	 .word 514617361
 3220 019c 5A724E6C 	 .word 1817080410
 3221 01a0 0EFFFBFD 	 .word -33816818
 3222 01a4 8538560F 	 .word 257308805
 3223 01a8 AED51E3D 	 .word 1025430958
 3224 01ac 2D392736 	 .word 908540205
 3225 01b0 0FD9640A 	 .word 174381327
 3226 01b4 5CA62168 	 .word 1747035740
 3227 01b8 5B54D19B 	 .word -1680780197
 3228 01bc 362E3A24 	 .word 607792694
 3229 01c0 0A67B10C 	 .word 212952842
 3230 01c4 57E70F93 	 .word -1827674281
 3231 01c8 EE96D2B4 	 .word -1261267218
 3232 01cc 9B919E1B 	 .word 463376795
 3233 01d0 C0C54F80 	 .word -2142255680
 3234 01d4 DC20A261 	 .word 1638015196
 3235 01d8 774B695A 	 .word 1516850039
 3236 01dc 121A161C 	 .word 471210514
 3237 01e0 93BA0AE2 	 .word -502613357
 3238 01e4 A02AE5C0 	 .word -1058723168
 3239 01e8 22E0433C 	 .word 1011081250
 3240 01ec 1B171D12 	 .word 303896347
 3241 01f0 090D0B0E 	 .word 235605257
 3242 01f4 8BC7ADF2 	 .word -223492213
 3243 01f8 B6A8B92D 	 .word 767142070
 3244 01fc 1EA9C814 	 .word 348694814
 3245 0200 F1198557 	 .word 1468340721
 3246 0204 75074CAF 	 .word -1353971851
 3247 0208 99DDBBEE 	 .word -289677927
 3248 020c 7F60FDA3 	 .word -1543675777
 3249 0210 01269FF7 	 .word -140564991
 3250 0214 72F5BC5C 	 .word 1555887474
 3251 0218 663BC544 	 .word 1153776486
 3252 021c FB7E345B 	 .word 1530167035
 3253 0220 4329768B 	 .word -1955190461
 3254 0224 23C6DCCB 	 .word -874723805
 3255 0228 EDFC68B6 	 .word -1234633491
 3256 022c E4F163B8 	 .word -1201409564
 3257 0230 31DCCAD7 	 .word -674571215
 3258 0234 63851042 	 .word 1108378979
 3259 0238 97224013 	 .word 322970263
 3260 023c C6112084 	 .word -2078273082
 3261 0240 4A247D85 	 .word -2055396278
 3262 0244 BB3DF8D2 	 .word -755483205
 3263 0248 F93211AE 	 .word -1374604551
 3264 024c 29A16DC7 	 .word -949116631
 3265 0250 9E2F4B1D 	 .word 491466654
 3266 0254 B230F3DC 	 .word -588042062
 3267 0258 8652EC0D 	 .word 233591430
 3268 025c C1E3D077 	 .word 2010178497
 3269 0260 B3166C2B 	 .word 728503987
 3270 0264 70B999A9 	 .word -1449543312
 3271 0268 9448FA11 	 .word 301615252
 3272 026c E9642247 	 .word 1193436393
 3273 0270 FC8CC4A8 	 .word -1463513860
 3274 0274 F03F1AA0 	 .word -1608892432
 3275 0278 7D2CD856 	 .word 1457007741
 3276 027c 3390EF22 	 .word 586125363
 3277 0280 494EC787 	 .word -2016981431
 3278 0284 38D1C1D9 	 .word -641609416
 3279 0288 CAA2FE8C 	 .word -1929469238
 3280 028c D40B3698 	 .word -1741288492
 3281 0290 F581CFA6 	 .word -1496350219
 3282 0294 7ADE28A5 	 .word -1524048262
 3283 0298 B78E26DA 	 .word -635007305
 3284 029c ADBFA43F 	 .word 1067761581
 3285 02a0 3A9DE42C 	 .word 753179962
 3286 02a4 78920D50 	 .word 1343066744
 3287 02a8 5FCC9B6A 	 .word 1788595295
 3288 02ac 7E466254 	 .word 1415726718
 3289 02b0 8D13C2F6 	 .word -155053171
 3290 02b4 D8B8E890 	 .word -1863796520
 3291 02b8 39F75E2E 	 .word 777975609
 3292 02bc C3AFF582 	 .word -2097827901
 3293 02c0 5D80BE9F 	 .word -1614905251
 3294 02c4 D0937C69 	 .word 1769771984
 3295 02c8 D52DA96F 	 .word 1873358293
 3296 02cc 2512B3CF 	 .word -810347995
 3297 02d0 AC993BC8 	 .word -935618132
 3298 02d4 187DA710 	 .word 279411992
 3299 02d8 9C636EE8 	 .word -395418724
 3300 02dc 3BBB7BDB 	 .word -612648133
 3301 02e0 267809CD 	 .word -855017434
 3302 02e4 5918F46E 	 .word 1861490777
 3303 02e8 9AB701EC 	 .word -335431782
 3304 02ec 4F9AA883 	 .word -2086102449
 3305 02f0 956E65E6 	 .word -429560171
 3306 02f4 FFE67EAA 	 .word -1434523905
 3307 02f8 BCCF0821 	 .word 554225596
 3308 02fc 15E8E6EF 	 .word -270079979
 3309 0300 E79BD9BA 	 .word -1160143897
 3310 0304 6F36CE4A 	 .word 1255028335
 3311 0308 9F09D4EA 	 .word -355202657
 3312 030c B07CD629 	 .word 701922480
 3313 0310 A4B2AF31 	 .word 833598116
 3314 0314 3F23312A 	 .word 707863359
 3315 0318 A59430C6 	 .word -969894747
 3316 031c A266C035 	 .word 901801634
 3317 0320 4EBC3774 	 .word 1949809742
 3318 0324 82CAA6FC 	 .word -56178046
 3319 0328 90D0B0E0 	 .word -525283184
 3320 032c A7D81533 	 .word 857069735
 3321 0330 04984AF1 	 .word -246769660
 3322 0334 ECDAF741 	 .word 1106762476
 3323 0338 CD500E7F 	 .word 2131644621
 3324 033c 91F62F17 	 .word 389019281
 3325 0340 4DD68D76 	 .word 1989006925
 3326 0344 EFB04D43 	 .word 1129165039
 3327 0348 AA4D54CC 	 .word -866890326
 3328 034c 9604DFE4 	 .word -455146346
 3329 0350 D1B5E39E 	 .word -1629243951
 3330 0354 6A881B4C 	 .word 1276872810
 3331 0358 2C1FB8C1 	 .word -1044898004
 3332 035c 65517F46 	 .word 1182749029
 3333 0360 5EEA049D 	 .word -1660622242
 3334 0364 8C355D01 	 .word 22885772
 3335 0368 877473FA 	 .word -93096825
 3336 036c 0B412EFB 	 .word -80854773
 3337 0370 671D5AB3 	 .word -1285939865
 3338 0374 DBD25292 	 .word -1840065829
 3339 0378 105633E9 	 .word -382511600
 3340 037c D647136D 	 .word 1829980118
 3341 0380 D7618C9A 	 .word -1702075945
 3342 0384 A10C7A37 	 .word 930745505
 3343 0388 F8148E59 	 .word 1502483704
 3344 038c 133C89EB 	 .word -343327725
 3345 0390 A927EECE 	 .word -823253079
 3346 0394 61C935B7 	 .word -1221211807
 3347 0398 1CE5EDE1 	 .word -504503012
 3348 039c 47B13C7A 	 .word 2050797895
 3349 03a0 D2DF599C 	 .word -1671831598
 3350 03a4 F2733F55 	 .word 1430221810
 3351 03a8 14CE7918 	 .word 410635796
 3352 03ac C737BF73 	 .word 1941911495
 3353 03b0 F7CDEA53 	 .word 1407897079
 3354 03b4 FDAA5B5F 	 .word 1599843069
 3355 03b8 3D6F14DF 	 .word -552308931
 3356 03bc 44DB8678 	 .word 2022103876
 3357 03c0 AFF381CA 	 .word -897453137
 3358 03c4 68C43EB9 	 .word -1187068824
 3359 03c8 24342C38 	 .word 942421028
 3360 03cc A3405FC2 	 .word -1033944925
 3361 03d0 1DC37216 	 .word 376619805
 3362 03d4 E2250CBC 	 .word -1140054558
 3363 03d8 3C498B28 	 .word 680216892
 3364 03dc 0D9541FF 	 .word -12479219
 3365 03e0 A8017139 	 .word 963707304
 3366 03e4 0CB3DE08 	 .word 148812556
 3367 03e8 B4E49CD8 	 .word -660806476
 3368 03ec 56C19064 	 .word 1687208278
 3369 03f0 CB84617B 	 .word 2069988555
 3370 03f4 32B670D5 	 .word -714033614
 3371 03f8 6C5C7448 	 .word 1215585388
 3372 03fc B85742D0 	 .word -800958536
 3373              	 .section .rodata.RCON,"a",%progbits
 3374              	 .align 2
 3375              	 .set .LANCHOR0,.+0
 3378              	RCON:
 3379 0000 01000000 	 .word 1
 3380 0004 02000000 	 .word 2
 3381 0008 04000000 	 .word 4
 3382 000c 08000000 	 .word 8
 3383 0010 10000000 	 .word 16
 3384 0014 20000000 	 .word 32
 3385 0018 40000000 	 .word 64
 3386 001c 80000000 	 .word 128
 3387 0020 1B000000 	 .word 27
 3388 0024 36000000 	 .word 54
 3389              	 .section .rodata.FT0,"a",%progbits
 3390              	 .align 2
 3391              	 .set .LANCHOR6,.+0
 3394              	FT0:
 3395 0000 C66363A5 	 .word -1520213050
 3396 0004 F87C7C84 	 .word -2072216328
 3397 0008 EE777799 	 .word -1720223762
 3398 000c F67B7B8D 	 .word -1921287178
 3399 0010 FFF2F20D 	 .word 234025727
 3400 0014 D66B6BBD 	 .word -1117033514
 3401 0018 DE6F6FB1 	 .word -1318096930
 3402 001c 91C5C554 	 .word 1422247313
 3403 0020 60303050 	 .word 1345335392
 3404 0024 02010103 	 .word 50397442
 3405 0028 CE6767A9 	 .word -1452841010
 3406 002c 562B2B7D 	 .word 2099981142
 3407 0030 E7FEFE19 	 .word 436141799
 3408 0034 B5D7D762 	 .word 1658312629
 3409 0038 4DABABE6 	 .word -424957107
 3410 003c EC76769A 	 .word -1703512340
 3411 0040 8FCACA45 	 .word 1170918031
 3412 0044 1F82829D 	 .word -1652391393
 3413 0048 89C9C940 	 .word 1086966153
 3414 004c FA7D7D87 	 .word -2021818886
 3415 0050 EFFAFA15 	 .word 368769775
 3416 0054 B25959EB 	 .word -346465870
 3417 0058 8E4747C9 	 .word -918075506
 3418 005c FBF0F00B 	 .word 200339707
 3419 0060 41ADADEC 	 .word -324162239
 3420 0064 B3D4D467 	 .word 1742001331
 3421 0068 5FA2A2FD 	 .word -39673249
 3422 006c 45AFAFEA 	 .word -357585083
 3423 0070 239C9CBF 	 .word -1080255453
 3424 0074 53A4A4F7 	 .word -140204973
 3425 0078 E4727296 	 .word -1770884380
 3426 007c 9BC0C05B 	 .word 1539358875
 3427 0080 75B7B7C2 	 .word -1028147339
 3428 0084 E1FDFD1C 	 .word 486407649
 3429 0088 3D9393AE 	 .word -1366060227
 3430 008c 4C26266A 	 .word 1780885068
 3431 0090 6C36365A 	 .word 1513502316
 3432 0094 7E3F3F41 	 .word 1094664062
 3433 0098 F5F7F702 	 .word 49805301
 3434 009c 83CCCC4F 	 .word 1338821763
 3435 00a0 6834345C 	 .word 1546925160
 3436 00a4 51A5A5F4 	 .word -190470831
 3437 00a8 D1E5E534 	 .word 887481809
 3438 00ac F9F1F108 	 .word 150073849
 3439 00b0 E2717193 	 .word -1821281822
 3440 00b4 ABD8D873 	 .word 1943591083
 3441 00b8 62313153 	 .word 1395732834
 3442 00bc 2A15153F 	 .word 1058346282
 3443 00c0 0804040C 	 .word 201589768
 3444 00c4 95C7C752 	 .word 1388824469
 3445 00c8 46232365 	 .word 1696801606
 3446 00cc 9DC3C35E 	 .word 1589887901
 3447 00d0 30181828 	 .word 672667696
 3448 00d4 379696A1 	 .word -1583966665
 3449 00d8 0A05050F 	 .word 251987210
 3450 00dc 2F9A9AB5 	 .word -1248159185
 3451 00e0 0E070709 	 .word 151455502
 3452 00e4 24121236 	 .word 907153956
 3453 00e8 1B80809B 	 .word -1686077413
 3454 00ec DFE2E23D 	 .word 1038279391
 3455 00f0 CDEBEB26 	 .word 652995533
 3456 00f4 4E272769 	 .word 1764173646
 3457 00f8 7FB2B2CD 	 .word -843926913
 3458 00fc EA75759F 	 .word -1619692054
 3459 0100 1209091B 	 .word 453576978
 3460 0104 1D83839E 	 .word -1635548387
 3461 0108 582C2C74 	 .word 1949051992
 3462 010c 341A1A2E 	 .word 773462580
 3463 0110 361B1B2D 	 .word 756751158
 3464 0114 DC6E6EB2 	 .word -1301385508
 3465 0118 B45A5AEE 	 .word -296068428
 3466 011c 5BA0A0FB 	 .word -73359269
 3467 0120 A45252F6 	 .word -162377052
 3468 0124 763B3B4D 	 .word 1295727478
 3469 0128 B7D6D661 	 .word 1641469623
 3470 012c 7DB3B3CE 	 .word -827083907
 3471 0130 5229297B 	 .word 2066295122
 3472 0134 DDE3E33E 	 .word 1055122397
 3473 0138 5E2F2F71 	 .word 1898917726
 3474 013c 13848497 	 .word -1752923117
 3475 0140 A65353F5 	 .word -179088474
 3476 0144 B9D1D168 	 .word 1758581177
 3477 0148 00000000 	 .word 0
 3478 014c C1EDED2C 	 .word 753790401
 3479 0150 40202060 	 .word 1612718144
 3480 0154 E3FCFC1F 	 .word 536673507
 3481 0158 79B1B1C8 	 .word -927878791
 3482 015c B65B5BED 	 .word -312779850
 3483 0160 D46A6ABE 	 .word -1100322092
 3484 0164 8DCBCB46 	 .word 1187761037
 3485 0168 67BEBED9 	 .word -641810841
 3486 016c 7239394B 	 .word 1262041458
 3487 0170 944A4ADE 	 .word -565556588
 3488 0174 984C4CD4 	 .word -733197160
 3489 0178 B05858E8 	 .word -396863312
 3490 017c 85CFCF4A 	 .word 1255133061
 3491 0180 BBD0D06B 	 .word 1808847035
 3492 0184 C5EFEF2A 	 .word 720367557
 3493 0188 4FAAAAE5 	 .word -441800113
 3494 018c EDFBFB16 	 .word 385612781
 3495 0190 864343C5 	 .word -985447546
 3496 0194 9A4D4DD7 	 .word -682799718
 3497 0198 66333355 	 .word 1429418854
 3498 019c 11858594 	 .word -1803188975
 3499 01a0 8A4545CF 	 .word -817543798
 3500 01a4 E9F9F910 	 .word 284817897
 3501 01a8 04020206 	 .word 100794884
 3502 01ac FE7F7F81 	 .word -2122350594
 3503 01b0 A05050F0 	 .word -263171936
 3504 01b4 783C3C44 	 .word 1144798328
 3505 01b8 259F9FBA 	 .word -1163944155
 3506 01bc 4BA8A8E3 	 .word -475486133
 3507 01c0 A25151F3 	 .word -212774494
 3508 01c4 5DA3A3FE 	 .word -22830243
 3509 01c8 804040C0 	 .word -1069531008
 3510 01cc 058F8F8A 	 .word -1970303227
 3511 01d0 3F9292AD 	 .word -1382903233
 3512 01d4 219D9DBC 	 .word -1130521311
 3513 01d8 70383848 	 .word 1211644016
 3514 01dc F1F5F504 	 .word 83228145
 3515 01e0 63BCBCDF 	 .word -541279133
 3516 01e4 77B6B6C1 	 .word -1044990345
 3517 01e8 AFDADA75 	 .word 1977277103
 3518 01ec 42212163 	 .word 1663115586
 3519 01f0 20101030 	 .word 806359072
 3520 01f4 E5FFFF1A 	 .word 452984805
 3521 01f8 FDF3F30E 	 .word 250868733
 3522 01fc BFD2D26D 	 .word 1842533055
 3523 0200 81CDCD4C 	 .word 1288555905
 3524 0204 180C0C14 	 .word 336333848
 3525 0208 26131335 	 .word 890442534
 3526 020c C3ECEC2F 	 .word 804056259
 3527 0210 BE5F5FE1 	 .word -513843266
 3528 0214 359797A2 	 .word -1567123659
 3529 0218 884444CC 	 .word -867941240
 3530 021c 2E171739 	 .word 957814574
 3531 0220 93C4C457 	 .word 1472513171
 3532 0224 55A7A7F2 	 .word -223893675
 3533 0228 FC7E7E82 	 .word -2105639172
 3534 022c 7A3D3D47 	 .word 1195195770
 3535 0230 C86464AC 	 .word -1402706744
 3536 0234 BA5D5DE7 	 .word -413311558
 3537 0238 3219192B 	 .word 723065138
 3538 023c E6737395 	 .word -1787595802
 3539 0240 C06060A0 	 .word -1604296512
 3540 0244 19818198 	 .word -1736343271
 3541 0248 9E4F4FD1 	 .word -783331426
 3542 024c A3DCDC7F 	 .word 2145180835
 3543 0250 44222266 	 .word 1713513028
 3544 0254 542A2A7E 	 .word 2116692564
 3545 0258 3B9090AB 	 .word -1416589253
 3546 025c 0B888883 	 .word -2088204277
 3547 0260 8C4646CA 	 .word -901364084
 3548 0264 C7EEEE29 	 .word 703524551
 3549 0268 6BB8B8D3 	 .word -742868885
 3550 026c 2814143C 	 .word 1007948840
 3551 0270 A7DEDE79 	 .word 2044649127
 3552 0274 BC5E5EE2 	 .word -497131844
 3553 0278 160B0B1D 	 .word 487262998
 3554 027c ADDBDB76 	 .word 1994120109
 3555 0280 DBE0E03B 	 .word 1004593371
 3556 0284 64323256 	 .word 1446130276
 3557 0288 743A3A4E 	 .word 1312438900
 3558 028c 140A0A1E 	 .word 503974420
 3559 0290 924949DB 	 .word -615954030
 3560 0294 0C06060A 	 .word 168166924
 3561 0298 4824246C 	 .word 1814307912
 3562 029c B85C5CE4 	 .word -463709000
 3563 02a0 9FC2C25D 	 .word 1573044895
 3564 02a4 BDD3D36E 	 .word 1859376061
 3565 02a8 43ACACEF 	 .word -273896381
 3566 02ac C46262A6 	 .word -1503501628
 3567 02b0 399191A8 	 .word -1466855111
 3568 02b4 319595A4 	 .word -1533700815
 3569 02b8 D3E4E437 	 .word 937747667
 3570 02bc F279798B 	 .word -1954973198
 3571 02c0 D5E7E732 	 .word 854058965
 3572 02c4 8BC8C843 	 .word 1137232011
 3573 02c8 6E373759 	 .word 1496790894
 3574 02cc DA6D6DB7 	 .word -1217565222
 3575 02d0 018D8D8C 	 .word -1936880383
 3576 02d4 B1D5D564 	 .word 1691735473
 3577 02d8 9C4E4ED2 	 .word -766620004
 3578 02dc 49A9A9E0 	 .word -525751991
 3579 02e0 D86C6CB4 	 .word -1267962664
 3580 02e4 AC5656FA 	 .word -95005012
 3581 02e8 F3F4F407 	 .word 133494003
 3582 02ec CFEAEA25 	 .word 636152527
 3583 02f0 CA6565AF 	 .word -1352309302
 3584 02f4 F47A7A8E 	 .word -1904575756
 3585 02f8 47AEAEE9 	 .word -374428089
 3586 02fc 10080818 	 .word 403179536
 3587 0300 6FBABAD5 	 .word -709182865
 3588 0304 F0787888 	 .word -2005370640
 3589 0308 4A25256F 	 .word 1864705354
 3590 030c 5C2E2E72 	 .word 1915629148
 3591 0310 381C1C24 	 .word 605822008
 3592 0314 57A6A6F1 	 .word -240736681
 3593 0318 73B4B4C7 	 .word -944458637
 3594 031c 97C6C651 	 .word 1371981463
 3595 0320 CBE8E823 	 .word 602466507
 3596 0324 A1DDDD7C 	 .word 2094914977
 3597 0328 E874749C 	 .word -1670089496
 3598 032c 3E1F1F21 	 .word 555687742
 3599 0330 964B4BDD 	 .word -582268010
 3600 0334 61BDBDDC 	 .word -591544991
 3601 0338 0D8B8B86 	 .word -2037675251
 3602 033c 0F8A8A85 	 .word -2054518257
 3603 0340 E0707090 	 .word -1871679264
 3604 0344 7C3E3E42 	 .word 1111375484
 3605 0348 71B5B5C4 	 .word -994724495
 3606 034c CC6666AA 	 .word -1436129588
 3607 0350 904848D8 	 .word -666351472
 3608 0354 06030305 	 .word 84083462
 3609 0358 F7F6F601 	 .word 32962295
 3610 035c 1C0E0E12 	 .word 302911004
 3611 0360 C26161A3 	 .word -1553899070
 3612 0364 6A35355F 	 .word 1597322602
 3613 0368 AE5757F9 	 .word -111716434
 3614 036c 69B9B9D0 	 .word -793134743
 3615 0370 17868691 	 .word -1853454825
 3616 0374 99C1C158 	 .word 1489093017
 3617 0378 3A1D1D27 	 .word 656219450
 3618 037c 279E9EB9 	 .word -1180787161
 3619 0380 D9E1E138 	 .word 954327513
 3620 0384 EBF8F813 	 .word 335083755
 3621 0388 2B9898B3 	 .word -1281845205
 3622 038c 22111133 	 .word 856756514
 3623 0390 D26969BB 	 .word -1150719534
 3624 0394 A9D9D970 	 .word 1893325225
 3625 0398 078E8E89 	 .word -1987146233
 3626 039c 339494A7 	 .word -1483434957
 3627 03a0 2D9B9BB6 	 .word -1231316179
 3628 03a4 3C1E1E22 	 .word 572399164
 3629 03a8 15878792 	 .word -1836611819
 3630 03ac C9E9E920 	 .word 552200649
 3631 03b0 87CECE49 	 .word 1238290055
 3632 03b4 AA5555FF 	 .word -11184726
 3633 03b8 50282878 	 .word 2015897680
 3634 03bc A5DFDF7A 	 .word 2061492133
 3635 03c0 038C8C8F 	 .word -1886614525
 3636 03c4 59A1A1F8 	 .word -123625127
 3637 03c8 09898980 	 .word -2138470135
 3638 03cc 1A0D0D17 	 .word 386731290
 3639 03d0 65BFBFDA 	 .word -624967835
 3640 03d4 D7E6E631 	 .word 837215959
 3641 03d8 844242C6 	 .word -968736124
 3642 03dc D06868B8 	 .word -1201116976
 3643 03e0 824141C3 	 .word -1019133566
 3644 03e4 299999B0 	 .word -1332111063
 3645 03e8 5A2D2D77 	 .word 1999449434
 3646 03ec 1E0F0F11 	 .word 286199582
 3647 03f0 7BB0B0CB 	 .word -877612933
 3648 03f4 A85454FC 	 .word -61582168
 3649 03f8 6DBBBBD6 	 .word -692339859
 3650 03fc 2C16163A 	 .word 974525996
 3651              	 .section .rodata.FT1,"a",%progbits
 3652              	 .align 2
 3653              	 .set .LANCHOR8,.+0
 3656              	FT1:
 3657 0000 A5C66363 	 .word 1667483301
 3658 0004 84F87C7C 	 .word 2088564868
 3659 0008 99EE7777 	 .word 2004348569
 3660 000c 8DF67B7B 	 .word 2071721613
 3661 0010 0DFFF2F2 	 .word -218956019
 3662 0014 BDD66B6B 	 .word 1802229437
 3663 0018 B1DE6F6F 	 .word 1869602481
 3664 001c 5491C5C5 	 .word -976907948
 3665 0020 50603030 	 .word 808476752
 3666 0024 03020101 	 .word 16843267
 3667 0028 A9CE6767 	 .word 1734856361
 3668 002c 7D562B2B 	 .word 724260477
 3669 0030 19E7FEFE 	 .word -16849127
 3670 0034 62B5D7D7 	 .word -673729182
 3671 0038 E64DABAB 	 .word -1414836762
 3672 003c 9AEC7676 	 .word 1987505306
 3673 0040 458FCACA 	 .word -892694715
 3674 0044 9D1F8282 	 .word -2105401443
 3675 0048 4089C9C9 	 .word -909539008
 3676 004c 87FA7D7D 	 .word 2105408135
 3677 0050 15EFFAFA 	 .word -84218091
 3678 0054 EBB25959 	 .word 1499050731
 3679 0058 C98E4747 	 .word 1195871945
 3680 005c 0BFBF0F0 	 .word -252642549
 3681 0060 EC41ADAD 	 .word -1381154324
 3682 0064 67B3D4D4 	 .word -724257945
 3683 0068 FD5FA2A2 	 .word -1566416899
 3684 006c EA45AFAF 	 .word -1347467798
 3685 0070 BF239C9C 	 .word -1667488833
 3686 0074 F753A4A4 	 .word -1532734473
 3687 0078 96E47272 	 .word 1920132246
 3688 007c 5B9BC0C0 	 .word -1061119141
 3689 0080 C275B7B7 	 .word -1212713534
 3690 0084 1CE1FDFD 	 .word -33693412
 3691 0088 AE3D9393 	 .word -1819066962
 3692 008c 6A4C2626 	 .word 640044138
 3693 0090 5A6C3636 	 .word 909536346
 3694 0094 417E3F3F 	 .word 1061125697
 3695 0098 02F5F7F7 	 .word -134744830
 3696 009c 4F83CCCC 	 .word -859012273
 3697 00a0 5C683434 	 .word 875849820
 3698 00a4 F451A5A5 	 .word -1515892236
 3699 00a8 34D1E5E5 	 .word -437923532
 3700 00ac 08F9F1F1 	 .word -235800312
 3701 00b0 93E27171 	 .word 1903288979
 3702 00b4 73ABD8D8 	 .word -656888973
 3703 00b8 53623131 	 .word 825320019
 3704 00bc 3F2A1515 	 .word 353708607
 3705 00c0 0C080404 	 .word 67373068
 3706 00c4 5295C7C7 	 .word -943221422
 3707 00c8 65462323 	 .word 589514341
 3708 00cc 5E9DC3C3 	 .word -1010590370
 3709 00d0 28301818 	 .word 404238376
 3710 00d4 A1379696 	 .word -1768540255
 3711 00d8 0F0A0505 	 .word 84216335
 3712 00dc B52F9A9A 	 .word -1701171275
 3713 00e0 090E0707 	 .word 117902857
 3714 00e4 36241212 	 .word 303178806
 3715 00e8 9B1B8080 	 .word -2139087973
 3716 00ec 3DDFE2E2 	 .word -488448195
 3717 00f0 26CDEBEB 	 .word -336868058
 3718 00f4 694E2727 	 .word 656887401
 3719 00f8 CD7FB2B2 	 .word -1296924723
 3720 00fc 9FEA7575 	 .word 1970662047
 3721 0100 1B120909 	 .word 151589403
 3722 0104 9E1D8383 	 .word -2088559202
 3723 0108 74582C2C 	 .word 741103732
 3724 010c 2E341A1A 	 .word 437924910
 3725 0110 2D361B1B 	 .word 454768173
 3726 0114 B2DC6E6E 	 .word 1852759218
 3727 0118 EEB45A5A 	 .word 1515893998
 3728 011c FB5BA0A0 	 .word -1600103429
 3729 0120 F6A45252 	 .word 1381147894
 3730 0124 4D763B3B 	 .word 993752653
 3731 0128 61B7D6D6 	 .word -690571423
 3732 012c CE7DB3B3 	 .word -1280082482
 3733 0130 7B522929 	 .word 690573947
 3734 0134 3EDDE3E3 	 .word -471605954
 3735 0138 715E2F2F 	 .word 791633521
 3736 013c 97138484 	 .word -2071719017
 3737 0140 F5A65353 	 .word 1397991157
 3738 0144 68B9D1D1 	 .word -774784664
 3739 0148 00000000 	 .word 0
 3740 014c 2CC1EDED 	 .word -303185620
 3741 0150 60402020 	 .word 538984544
 3742 0154 1FE3FCFC 	 .word -50535649
 3743 0158 C879B1B1 	 .word -1313769016
 3744 015c EDB65B5B 	 .word 1532737261
 3745 0160 BED46A6A 	 .word 1785386174
 3746 0164 468DCBCB 	 .word -875852474
 3747 0168 D967BEBE 	 .word -1094817831
 3748 016c 4B723939 	 .word 960066123
 3749 0170 DE944A4A 	 .word 1246401758
 3750 0174 D4984C4C 	 .word 1280088276
 3751 0178 E8B05858 	 .word 1482207464
 3752 017c 4A85CFCF 	 .word -808483510
 3753 0180 6BBBD0D0 	 .word -791626901
 3754 0184 2AC5EFEF 	 .word -269499094
 3755 0188 E54FAAAA 	 .word -1431679003
 3756 018c 16EDFBFB 	 .word -67375850
 3757 0190 C5864343 	 .word 1128498885
 3758 0194 D79A4D4D 	 .word 1296931543
 3759 0198 55663333 	 .word 859006549
 3760 019c 94118585 	 .word -2054876780
 3761 01a0 CF8A4545 	 .word 1162185423
 3762 01a4 10E9F9F9 	 .word -101062384
 3763 01a8 06040202 	 .word 33686534
 3764 01ac 81FE7F7F 	 .word 2139094657
 3765 01b0 F0A05050 	 .word 1347461360
 3766 01b4 44783C3C 	 .word 1010595908
 3767 01b8 BA259F9F 	 .word -1616960070
 3768 01bc E34BA8A8 	 .word -1465365533
 3769 01c0 F3A25151 	 .word 1364304627
 3770 01c4 FE5DA3A3 	 .word -1549574658
 3771 01c8 C0804040 	 .word 1077969088
 3772 01cc 8A058F8F 	 .word -1886452342
 3773 01d0 AD3F9292 	 .word -1835909203
 3774 01d4 BC219D9D 	 .word -1650646596
 3775 01d8 48703838 	 .word 943222856
 3776 01dc 04F1F5F5 	 .word -168431356
 3777 01e0 DF63BCBC 	 .word -1128504353
 3778 01e4 C177B6B6 	 .word -1229555775
 3779 01e8 75AFDADA 	 .word -623202443
 3780 01ec 63422121 	 .word 555827811
 3781 01f0 30201010 	 .word 269492272
 3782 01f4 1AE5FFFF 	 .word -6886
 3783 01f8 0EFDF3F3 	 .word -202113778
 3784 01fc 6DBFD2D2 	 .word -757940371
 3785 0200 4C81CDCD 	 .word -842170036
 3786 0204 14180C0C 	 .word 202119188
 3787 0208 35261313 	 .word 320022069
 3788 020c 2FC3ECEC 	 .word -320027857
 3789 0210 E1BE5F5F 	 .word 1600110305
 3790 0214 A2359797 	 .word -1751698014
 3791 0218 CC884444 	 .word 1145342156
 3792 021c 392E1717 	 .word 387395129
 3793 0220 5793C4C4 	 .word -993750185
 3794 0224 F255A7A7 	 .word -1482205710
 3795 0228 82FC7E7E 	 .word 2122251394
 3796 022c 477A3D3D 	 .word 1027439175
 3797 0230 ACC86464 	 .word 1684326572
 3798 0234 E7BA5D5D 	 .word 1566423783
 3799 0238 2B321919 	 .word 421081643
 3800 023c 95E67373 	 .word 1936975509
 3801 0240 A0C06060 	 .word 1616953504
 3802 0244 98198181 	 .word -2122245736
 3803 0248 D19E4F4F 	 .word 1330618065
 3804 024c 7FA3DCDC 	 .word -589520001
 3805 0250 66442222 	 .word 572671078
 3806 0254 7E542A2A 	 .word 707417214
 3807 0258 AB3B9090 	 .word -1869595733
 3808 025c 830B8888 	 .word -2004350077
 3809 0260 CA8C4646 	 .word 1179028682
 3810 0264 29C7EEEE 	 .word -286341335
 3811 0268 D36BB8B8 	 .word -1195873325
 3812 026c 3C281414 	 .word 336865340
 3813 0270 79A7DEDE 	 .word -555833479
 3814 0274 E2BC5E5E 	 .word 1583267042
 3815 0278 1D160B0B 	 .word 185275933
 3816 027c 76ADDBDB 	 .word -606360202
 3817 0280 3BDBE0E0 	 .word -522134725
 3818 0284 56643232 	 .word 842163286
 3819 0288 4E743A3A 	 .word 976909390
 3820 028c 1E140A0A 	 .word 168432670
 3821 0290 DB924949 	 .word 1229558491
 3822 0294 0A0C0606 	 .word 101059594
 3823 0298 6C482424 	 .word 606357612
 3824 029c E4B85C5C 	 .word 1549580516
 3825 02a0 5D9FC2C2 	 .word -1027432611
 3826 02a4 6EBDD3D3 	 .word -741098130
 3827 02a8 EF43ACAC 	 .word -1397996561
 3828 02ac A6C46262 	 .word 1650640038
 3829 02b0 A8399191 	 .word -1852753496
 3830 02b4 A4319595 	 .word -1785384540
 3831 02b8 37D3E4E4 	 .word -454765769
 3832 02bc 8BF27979 	 .word 2038035083
 3833 02c0 32D5E7E7 	 .word -404237006
 3834 02c4 438BC8C8 	 .word -926381245
 3835 02c8 596E3737 	 .word 926379609
 3836 02cc B7DA6D6D 	 .word 1835915959
 3837 02d0 8C018D8D 	 .word -1920138868
 3838 02d4 64B1D5D5 	 .word -707415708
 3839 02d8 D29C4E4E 	 .word 1313774802
 3840 02dc E049A9A9 	 .word -1448523296
 3841 02e0 B4D86C6C 	 .word 1819072692
 3842 02e4 FAAC5656 	 .word 1448520954
 3843 02e8 07F3F4F4 	 .word -185273593
 3844 02ec 25CFEAEA 	 .word -353710299
 3845 02f0 AFCA6565 	 .word 1701169839
 3846 02f4 8EF47A7A 	 .word 2054878350
 3847 02f8 E947AEAE 	 .word -1364310039
 3848 02fc 18100808 	 .word 134746136
 3849 0300 D56FBABA 	 .word -1162186795
 3850 0304 88F07878 	 .word 2021191816
 3851 0308 6F4A2525 	 .word 623200879
 3852 030c 725C2E2E 	 .word 774790258
 3853 0310 24381C1C 	 .word 471611428
 3854 0314 F157A6A6 	 .word -1499047951
 3855 0318 C773B4B4 	 .word -1263242297
 3856 031c 5197C6C6 	 .word -960063663
 3857 0320 23CBE8E8 	 .word -387396829
 3858 0324 7CA1DDDD 	 .word -572677764
 3859 0328 9CE87474 	 .word 1953818780
 3860 032c 213E1F1F 	 .word 522141217
 3861 0330 DD964B4B 	 .word 1263245021
 3862 0334 DC61BDBD 	 .word -1111662116
 3863 0338 860D8B8B 	 .word -1953821306
 3864 033c 850F8A8A 	 .word -1970663547
 3865 0340 90E07070 	 .word 1886445712
 3866 0344 427C3E3E 	 .word 1044282434
 3867 0348 C471B5B5 	 .word -1246400060
 3868 034c AACC6666 	 .word 1718013098
 3869 0350 D8904848 	 .word 1212715224
 3870 0354 05060303 	 .word 50529797
 3871 0358 01F7F6F6 	 .word -151587071
 3872 035c 121C0E0E 	 .word 235805714
 3873 0360 A3C26161 	 .word 1633796771
 3874 0364 5F6A3535 	 .word 892693087
 3875 0368 F9AE5757 	 .word 1465364217
 3876 036c D069B9B9 	 .word -1179031088
 3877 0370 91178686 	 .word -2038032495
 3878 0374 5899C1C1 	 .word -1044276904
 3879 0378 273A1D1D 	 .word 488454695
 3880 037c B9279E9E 	 .word -1633802311
 3881 0380 38D9E1E1 	 .word -505292488
 3882 0384 13EBF8F8 	 .word -117904621
 3883 0388 B32B9898 	 .word -1734857805
 3884 038c 33221111 	 .word 286335539
 3885 0390 BBD26969 	 .word 1768542907
 3886 0394 70A9D9D9 	 .word -640046736
 3887 0398 89078E8E 	 .word -1903294583
 3888 039c A7339494 	 .word -1802226777
 3889 03a0 B62D9B9B 	 .word -1684329034
 3890 03a4 223C1E1E 	 .word 505297954
 3891 03a8 92158787 	 .word -2021190254
 3892 03ac 20C9E9E9 	 .word -370554592
 3893 03b0 4987CECE 	 .word -825325751
 3894 03b4 FFAA5555 	 .word 1431677695
 3895 03b8 78502828 	 .word 673730680
 3896 03bc 7AA5DFDF 	 .word -538991238
 3897 03c0 8F038C8C 	 .word -1936981105
 3898 03c4 F859A1A1 	 .word -1583261192
 3899 03c8 80098989 	 .word -1987507840
 3900 03cc 171A0D0D 	 .word 218962455
 3901 03d0 DA65BFBF 	 .word -1077975590
 3902 03d4 31D7E6E6 	 .word -421079247
 3903 03d8 C6844242 	 .word 1111655622
 3904 03dc B8D06868 	 .word 1751699640
 3905 03e0 C3824141 	 .word 1094812355
 3906 03e4 B0299999 	 .word -1718015568
 3907 03e8 775A2D2D 	 .word 757946999
 3908 03ec 111E0F0F 	 .word 252648977
 3909 03f0 CB7BB0B0 	 .word -1330611253
 3910 03f4 FCA85454 	 .word 1414834428
 3911 03f8 D66DBBBB 	 .word -1145344554
 3912 03fc 3A2C1616 	 .word 370551866
 3913              	 .section .rodata.FT2,"a",%progbits
 3914              	 .align 2
 3915              	 .set .LANCHOR9,.+0
 3918              	FT2:
 3919 0000 63A5C663 	 .word 1673962851
 3920 0004 7C84F87C 	 .word 2096661628
 3921 0008 7799EE77 	 .word 2012125559
 3922 000c 7B8DF67B 	 .word 2079755643
 3923 0010 F20DFFF2 	 .word -218165774
 3924 0014 6BBDD66B 	 .word 1809235307
 3925 0018 6FB1DE6F 	 .word 1876865391
 3926 001c C55491C5 	 .word -980331323
 3927 0020 30506030 	 .word 811618352
 3928 0024 01030201 	 .word 16909057
 3929 0028 67A9CE67 	 .word 1741597031
 3930 002c 2B7D562B 	 .word 727088427
 3931 0030 FE19E7FE 	 .word -18408962
 3932 0034 D762B5D7 	 .word -675978537
 3933 0038 ABE64DAB 	 .word -1420958037
 3934 003c 769AEC76 	 .word 1995217526
 3935 0040 CA458FCA 	 .word -896580150
 3936 0044 829D1F82 	 .word -2111857278
 3937 0048 C94089C9 	 .word -913751863
 3938 004c 7D87FA7D 	 .word 2113570685
 3939 0050 FA15EFFA 	 .word -84994566
 3940 0054 59EBB259 	 .word 1504897881
 3941 0058 47C98E47 	 .word 1200539975
 3942 005c F00BFBF0 	 .word -251982864
 3943 0060 ADEC41AD 	 .word -1388188499
 3944 0064 D467B3D4 	 .word -726439980
 3945 0068 A2FD5FA2 	 .word -1570767454
 3946 006c AFEA45AF 	 .word -1354372433
 3947 0070 9CBF239C 	 .word -1675378788
 3948 0074 A4F753A4 	 .word -1538000988
 3949 0078 7296E472 	 .word 1927583346
 3950 007c C05B9BC0 	 .word -1063560256
 3951 0080 B7C275B7 	 .word -1217019209
 3952 0084 FD1CE1FD 	 .word -35578627
 3953 0088 93AE3D93 	 .word -1824674157
 3954 008c 266A4C26 	 .word 642542118
 3955 0090 365A6C36 	 .word 913070646
 3956 0094 3F417E3F 	 .word 1065238847
 3957 0098 F702F5F7 	 .word -134937865
 3958 009c CC4F83CC 	 .word -863809588
 3959 00a0 345C6834 	 .word 879254580
 3960 00a4 A5F451A5 	 .word -1521355611
 3961 00a8 E534D1E5 	 .word -439274267
 3962 00ac F108F9F1 	 .word -235337487
 3963 00b0 7193E271 	 .word 1910674289
 3964 00b4 D873ABD8 	 .word -659852328
 3965 00b8 31536231 	 .word 828527409
 3966 00bc 153F2A15 	 .word 355090197
 3967 00c0 040C0804 	 .word 67636228
 3968 00c4 C75295C7 	 .word -946515257
 3969 00c8 23654623 	 .word 591815971
 3970 00cc C35E9DC3 	 .word -1013096765
 3971 00d0 18283018 	 .word 405809176
 3972 00d4 96A13796 	 .word -1774739050
 3973 00d8 050F0A05 	 .word 84545285
 3974 00dc 9AB52F9A 	 .word -1708149350
 3975 00e0 07090E07 	 .word 118360327
 3976 00e4 12362412 	 .word 304363026
 3977 00e8 809B1B80 	 .word -2145674368
 3978 00ec E23DDFE2 	 .word -488686110
 3979 00f0 EB26CDEB 	 .word -338876693
 3980 00f4 27694E27 	 .word 659450151
 3981 00f8 B2CD7FB2 	 .word -1300247118
 3982 00fc 759FEA75 	 .word 1978310517
 3983 0100 091B1209 	 .word 152181513
 3984 0104 839E1D83 	 .word -2095210877
 3985 0108 2C74582C 	 .word 743994412
 3986 010c 1A2E341A 	 .word 439627290
 3987 0110 1B2D361B 	 .word 456535323
 3988 0114 6EB2DC6E 	 .word 1859957358
 3989 0118 5AEEB45A 	 .word 1521806938
 3990 011c A0FB5BA0 	 .word -1604584544
 3991 0120 52F6A452 	 .word 1386542674
 3992 0124 3B4D763B 	 .word 997608763
 3993 0128 D661B7D6 	 .word -692624938
 3994 012c B3CE7DB3 	 .word -1283600717
 3995 0130 297B5229 	 .word 693271337
 3996 0134 E33EDDE3 	 .word -472039709
 3997 0138 2F715E2F 	 .word 794718511
 3998 013c 84971384 	 .word -2079090812
 3999 0140 53F5A653 	 .word 1403450707
 4000 0144 D168B9D1 	 .word -776378159
 4001 0148 00000000 	 .word 0
 4002 014c ED2CC1ED 	 .word -306107155
 4003 0150 20604020 	 .word 541089824
 4004 0154 FC1FE3FC 	 .word -52224004
 4005 0158 B1C879B1 	 .word -1317418831
 4006 015c 5BEDB65B 	 .word 1538714971
 4007 0160 6ABED46A 	 .word 1792327274
 4008 0164 CB468DCB 	 .word -879933749
 4009 0168 BED967BE 	 .word -1100490306
 4010 016c 394B7239 	 .word 963791673
 4011 0170 4ADE944A 	 .word 1251270218
 4012 0174 4CD4984C 	 .word 1285084236
 4013 0178 58E8B058 	 .word 1487988824
 4014 017c CF4A85CF 	 .word -813348145
 4015 0180 D06BBBD0 	 .word -793023536
 4016 0184 EF2AC5EF 	 .word -272291089
 4017 0188 AAE54FAA 	 .word -1437604438
 4018 018c FB16EDFB 	 .word -68348165
 4019 0190 43C58643 	 .word 1132905795
 4020 0194 4DD79A4D 	 .word 1301993293
 4021 0198 33556633 	 .word 862344499
 4022 019c 85941185 	 .word -2062445435
 4023 01a0 45CF8A45 	 .word 1166724933
 4024 01a4 F910E9F9 	 .word -102166279
 4025 01a8 02060402 	 .word 33818114
 4026 01ac 7F81FE7F 	 .word 2147385727
 4027 01b0 50F0A050 	 .word 1352724560
 4028 01b4 3C44783C 	 .word 1014514748
 4029 01b8 9FBA259F 	 .word -1624917345
 4030 01bc A8E34BA8 	 .word -1471421528
 4031 01c0 51F3A251 	 .word 1369633617
 4032 01c4 A3FE5DA3 	 .word -1554121053
 4033 01c8 40C08040 	 .word 1082179648
 4034 01cc 8F8A058F 	 .word -1895462257
 4035 01d0 92AD3F92 	 .word -1841320558
 4036 01d4 9DBC219D 	 .word -1658733411
 4037 01d8 38487038 	 .word 946882616
 4038 01dc F504F1F5 	 .word -168753931
 4039 01e0 BCDF63BC 	 .word -1134305348
 4040 01e4 B6C177B6 	 .word -1233665610
 4041 01e8 DA75AFDA 	 .word -626035238
 4042 01ec 21634221 	 .word 557998881
 4043 01f0 10302010 	 .word 270544912
 4044 01f4 FF1AE5FF 	 .word -1762561
 4045 01f8 F30EFDF3 	 .word -201519373
 4046 01fc D26DBFD2 	 .word -759206446
 4047 0200 CD4C81CD 	 .word -847164211
 4048 0204 0C14180C 	 .word 202904588
 4049 0208 13352613 	 .word 321271059
 4050 020c EC2FC3EC 	 .word -322752532
 4051 0210 5FE1BE5F 	 .word 1606345055
 4052 0214 97A23597 	 .word -1758092649
 4053 0218 44CC8844 	 .word 1149815876
 4054 021c 17392E17 	 .word 388905239
 4055 0220 C45793C4 	 .word -996976700
 4056 0224 A7F255A7 	 .word -1487539545
 4057 0228 7E82FC7E 	 .word 2130477694
 4058 022c 3D477A3D 	 .word 1031423805
 4059 0230 64ACC864 	 .word 1690872932
 4060 0234 5DE7BA5D 	 .word 1572530013
 4061 0238 192B3219 	 .word 422718233
 4062 023c 7395E673 	 .word 1944491379
 4063 0240 60A0C060 	 .word 1623236704
 4064 0244 81981981 	 .word -2129028991
 4065 0248 4FD19E4F 	 .word 1335808335
 4066 024c DC7FA3DC 	 .word -593264676
 4067 0250 22664422 	 .word 574907938
 4068 0254 2A7E542A 	 .word 710180394
 4069 0258 90AB3B90 	 .word -1875137648
 4070 025c 88830B88 	 .word -2012511352
 4071 0260 46CA8C46 	 .word 1183631942
 4072 0264 EE29C7EE 	 .word -288937490
 4073 0268 B8D36BB8 	 .word -1200893000
 4074 026c 143C2814 	 .word 338181140
 4075 0270 DE79A7DE 	 .word -559449634
 4076 0274 5EE2BC5E 	 .word 1589437022
 4077 0278 0B1D160B 	 .word 185998603
 4078 027c DB76ADDB 	 .word -609388837
 4079 0280 E03BDBE0 	 .word -522503200
 4080 0284 32566432 	 .word 845436466
 4081 0288 3A4E743A 	 .word 980700730
 4082 028c 0A1E140A 	 .word 169090570
 4083 0290 49DB9249 	 .word 1234361161
 4084 0294 060A0C06 	 .word 101452294
 4085 0298 246C4824 	 .word 608726052
 4086 029c 5CE4B85C 	 .word 1555620956
 4087 02a0 C25D9FC2 	 .word -1029743166
 4088 02a4 D36EBDD3 	 .word -742560045
 4089 02a8 ACEF43AC 	 .word -1404833876
 4090 02ac 62A6C462 	 .word 1657054818
 4091 02b0 91A83991 	 .word -1858492271
 4092 02b4 95A43195 	 .word -1791908715
 4093 02b8 E437D3E4 	 .word -455919644
 4094 02bc 798BF279 	 .word 2045938553
 4095 02c0 E732D5E7 	 .word -405458201
 4096 02c4 C8438BC8 	 .word -930397240
 4097 02c8 37596E37 	 .word 929978679
 4098 02cc 6DB7DA6D 	 .word 1843050349
 4099 02d0 8D8C018D 	 .word -1929278323
 4100 02d4 D564B1D5 	 .word -709794603
 4101 02d8 4ED29C4E 	 .word 1318900302
 4102 02dc A9E049A9 	 .word -1454776151
 4103 02e0 6CB4D86C 	 .word 1826141292
 4104 02e4 56FAAC56 	 .word 1454176854
 4105 02e8 F407F3F4 	 .word -185399308
 4106 02ec EA25CFEA 	 .word -355523094
 4107 02f0 65AFCA65 	 .word 1707781989
 4108 02f4 7A8EF47A 	 .word 2062847610
 4109 02f8 AEE947AE 	 .word -1371018834
 4110 02fc 08181008 	 .word 135272456
 4111 0300 BAD56FBA 	 .word -1167075910
 4112 0304 7888F078 	 .word 2029029496
 4113 0308 256F4A25 	 .word 625635109
 4114 030c 2E725C2E 	 .word 777810478
 4115 0310 1C24381C 	 .word 473441308
 4116 0314 A6F157A6 	 .word -1504185946
 4117 0318 B4C773B4 	 .word -1267480652
 4118 031c C65197C6 	 .word -963161658
 4119 0320 E823CBE8 	 .word -389340184
 4120 0324 DD7CA1DD 	 .word -576619299
 4121 0328 749CE874 	 .word 1961401460
 4122 032c 1F213E1F 	 .word 524165407
 4123 0330 4BDD964B 	 .word 1268178251
 4124 0334 BDDC61BD 	 .word -1117659971
 4125 0338 8B860D8B 	 .word -1962047861
 4126 033c 8A850F8A 	 .word -1978694262
 4127 0340 7090E070 	 .word 1893765232
 4128 0344 3E427C3E 	 .word 1048330814
 4129 0348 B5C471B5 	 .word -1250835275
 4130 034c 66AACC66 	 .word 1724688998
 4131 0350 48D89048 	 .word 1217452104
 4132 0354 03050603 	 .word 50726147
 4133 0358 F601F7F6 	 .word -151584266
 4134 035c 0E121C0E 	 .word 236720654
 4135 0360 61A3C261 	 .word 1640145761
 4136 0364 355F6A35 	 .word 896163637
 4137 0368 57F9AE57 	 .word 1471084887
 4138 036c B9D069B9 	 .word -1184247623
 4139 0370 86911786 	 .word -2045275770
 4140 0374 C15899C1 	 .word -1046914879
 4141 0378 1D273A1D 	 .word 490350365
 4142 037c 9EB9279E 	 .word -1641563746
 4143 0380 E138D9E1 	 .word -505857823
 4144 0384 F813EBF8 	 .word -118811656
 4145 0388 98B32B98 	 .word -1741966440
 4146 038c 11332211 	 .word 287453969
 4147 0390 69BBD269 	 .word 1775418217
 4148 0394 D970A9D9 	 .word -643206951
 4149 0398 8E89078E 	 .word -1912108658
 4150 039c 94A73394 	 .word -1808554092
 4151 03a0 9BB62D9B 	 .word -1691502949
 4152 03a4 1E223C1E 	 .word 507257374
 4153 03a8 87921587 	 .word -2028629369
 4154 03ac E920C9E9 	 .word -372694807
 4155 03b0 CE4987CE 	 .word -829994546
 4156 03b4 55FFAA55 	 .word 1437269845
 4157 03b8 28785028 	 .word 676362280
 4158 03bc DF7AA5DF 	 .word -542803233
 4159 03c0 8C8F038C 	 .word -1945923700
 4160 03c4 A1F859A1 	 .word -1587939167
 4161 03c8 89800989 	 .word -1995865975
 4162 03cc 0D171A0D 	 .word 219813645
 4163 03d0 BFDA65BF 	 .word -1083843905
 4164 03d4 E631D7E6 	 .word -422104602
 4165 03d8 42C68442 	 .word 1115997762
 4166 03dc 68B8D068 	 .word 1758509160
 4167 03e0 41C38241 	 .word 1099088705
 4168 03e4 99B02999 	 .word -1725321063
 4169 03e8 2D775A2D 	 .word 760903469
 4170 03ec 0F111E0F 	 .word 253628687
 4171 03f0 B0CB7BB0 	 .word -1334064208
 4172 03f4 54FCA854 	 .word 1420360788
 4173 03f8 BBD66DBB 	 .word -1150429509
 4174 03fc 163A2C16 	 .word 371997206
 4175              	 .section .rodata.FT3,"a",%progbits
 4176              	 .align 2
 4177              	 .set .LANCHOR7,.+0
 4180              	FT3:
 4181 0000 6363A5C6 	 .word -962239645
 4182 0004 7C7C84F8 	 .word -125535108
 4183 0008 777799EE 	 .word -291932297
 4184 000c 7B7B8DF6 	 .word -158499973
 4185 0010 F2F20DFF 	 .word -15863054
 4186 0014 6B6BBDD6 	 .word -692229269
 4187 0018 6F6FB1DE 	 .word -558796945
 4188 001c C5C55491 	 .word -1856715323
 4189 0020 30305060 	 .word 1615867952
 4190 0024 01010302 	 .word 33751297
 4191 0028 6767A9CE 	 .word -827758745
 4192 002c 2B2B7D56 	 .word 1451043627
 4193 0030 FEFE19E7 	 .word -417726722
 4194 0034 D7D762B5 	 .word -1251813417
 4195 0038 ABABE64D 	 .word 1306962859
 4196 003c 76769AEC 	 .word -325421450
 4197 0040 CACA458F 	 .word -1891251510
 4198 0044 82829D1F 	 .word 530416258
 4199 0048 C9C94089 	 .word -1992242743
 4200 004c 7D7D87FA 	 .word -91783811
 4201 0050 FAFA15EF 	 .word -283772166
 4202 0054 5959EBB2 	 .word -1293199015
 4203 0058 4747C98E 	 .word -1899411641
 4204 005c F0F00BFB 	 .word -83103504
 4205 0060 ADADEC41 	 .word 1106029997
 4206 0064 D4D467B3 	 .word -1285040940
 4207 0068 A2A2FD5F 	 .word 1610457762
 4208 006c AFAFEA45 	 .word 1173008303
 4209 0070 9C9CBF23 	 .word 599760028
 4210 0074 A4A4F753 	 .word 1408738468
 4211 0078 727296E4 	 .word -459902350
 4212 007c C0C05B9B 	 .word -1688485696
 4213 0080 B7B7C275 	 .word 1975695287
 4214 0084 FDFD1CE1 	 .word -518193667
 4215 0088 9393AE3D 	 .word 1034851219
 4216 008c 26266A4C 	 .word 1282024998
 4217 0090 36365A6C 	 .word 1817851446
 4218 0094 3F3F417E 	 .word 2118205247
 4219 0098 F7F702F5 	 .word -184354825
 4220 009c CCCC4F83 	 .word -2091922228
 4221 00a0 34345C68 	 .word 1750873140
 4222 00a4 A5A5F451 	 .word 1374987685
 4223 00a8 E5E534D1 	 .word -785062427
 4224 00ac F1F108F9 	 .word -116854287
 4225 00b0 717193E2 	 .word -493653647
 4226 00b4 D8D873AB 	 .word -1418471208
 4227 00b8 31315362 	 .word 1649619249
 4228 00bc 15153F2A 	 .word 708777237
 4229 00c0 04040C08 	 .word 135005188
 4230 00c4 C7C75295 	 .word -1789737017
 4231 00c8 23236546 	 .word 1181033251
 4232 00cc C3C35E9D 	 .word -1654733885
 4233 00d0 18182830 	 .word 807933976
 4234 00d4 9696A137 	 .word 933336726
 4235 00d8 05050F0A 	 .word 168756485
 4236 00dc 9A9AB52F 	 .word 800430746
 4237 00e0 0707090E 	 .word 235472647
 4238 00e4 12123624 	 .word 607523346
 4239 00e8 80809B1B 	 .word 463175808
 4240 00ec E2E23DDF 	 .word -549592350
 4241 00f0 EBEB26CD 	 .word -853087253
 4242 00f4 2727694E 	 .word 1315514151
 4243 00f8 B2B2CD7F 	 .word 2144187058
 4244 00fc 75759FEA 	 .word -358648459
 4245 0100 09091B12 	 .word 303761673
 4246 0104 83839E1D 	 .word 496927619
 4247 0108 2C2C7458 	 .word 1484008492
 4248 010c 1A1A2E34 	 .word 875436570
 4249 0110 1B1B2D36 	 .word 908925723
 4250 0114 6E6EB2DC 	 .word -592286098
 4251 0118 5A5AEEB4 	 .word -1259447718
 4252 011c A0A0FB5B 	 .word 1543217312
 4253 0120 5252F6A4 	 .word -1527360942
 4254 0124 3B3B4D76 	 .word 1984772923
 4255 0128 D6D661B7 	 .word -1218324778
 4256 012c B3B3CE7D 	 .word 2110698419
 4257 0130 29297B52 	 .word 1383803177
 4258 0134 E3E33EDD 	 .word -583080989
 4259 0138 2F2F715E 	 .word 1584475951
 4260 013c 84849713 	 .word 328696964
 4261 0140 5353F5A6 	 .word -1493871789
 4262 0144 D1D168B9 	 .word -1184312879
 4263 0148 00000000 	 .word 0
 4264 014c EDED2CC1 	 .word -1054020115
 4265 0150 20206040 	 .word 1080041504
 4266 0154 FCFC1FE3 	 .word -484442884
 4267 0158 B1B1C879 	 .word 2043195825
 4268 015c 5B5BEDB6 	 .word -1225958565
 4269 0160 6A6ABED4 	 .word -725718422
 4270 0164 CBCB468D 	 .word -1924740149
 4271 0168 BEBED967 	 .word 1742323390
 4272 016c 39394B72 	 .word 1917532473
 4273 0170 4A4ADE94 	 .word -1797371318
 4274 0174 4C4CD498 	 .word -1730917300
 4275 0178 5858E8B0 	 .word -1326950312
 4276 017c CFCF4A85 	 .word -2058694705
 4277 0180 D0D06BBB 	 .word -1150562096
 4278 0184 EFEF2AC5 	 .word -987041809
 4279 0188 AAAAE54F 	 .word 1340451498
 4280 018c FBFB16ED 	 .word -317260805
 4281 0190 4343C586 	 .word -2033892541
 4282 0194 4D4DD79A 	 .word -1697166003
 4283 0198 33335566 	 .word 1716859699
 4284 019c 85859411 	 .word 294946181
 4285 01a0 4545CF8A 	 .word -1966127803
 4286 01a4 F9F910E9 	 .word -384763399
 4287 01a8 02020604 	 .word 67502594
 4288 01ac 7F7F81FE 	 .word -25067649
 4289 01b0 5050F0A0 	 .word -1594863536
 4290 01b4 3C3C4478 	 .word 2017737788
 4291 01b8 9F9FBA25 	 .word 632987551
 4292 01bc A8A8E34B 	 .word 1273211048
 4293 01c0 5151F3A2 	 .word -1561112239
 4294 01c4 A3A3FE5D 	 .word 1576969123
 4295 01c8 4040C080 	 .word -2134884288
 4296 01cc 8F8F8A05 	 .word 92966799
 4297 01d0 9292AD3F 	 .word 1068339858
 4298 01d4 9D9DBC21 	 .word 566009245
 4299 01d8 38384870 	 .word 1883781176
 4300 01dc F5F504F1 	 .word -251333131
 4301 01e0 BCBCDF63 	 .word 1675607228
 4302 01e4 B6B6C177 	 .word 2009183926
 4303 01e8 DADA75AF 	 .word -1351230758
 4304 01ec 21216342 	 .word 1113792801
 4305 01f0 10103020 	 .word 540020752
 4306 01f4 FFFF1AE5 	 .word -451215361
 4307 01f8 F3F30EFD 	 .word -49351693
 4308 01fc D2D26DBF 	 .word -1083321646
 4309 0200 CDCD4C81 	 .word -2125673011
 4310 0204 0C0C1418 	 .word 403966988
 4311 0208 13133526 	 .word 641012499
 4312 020c ECEC2FC3 	 .word -1020269332
 4313 0210 5F5FE1BE 	 .word -1092526241
 4314 0214 9797A235 	 .word 899848087
 4315 0218 4444CC88 	 .word -1999879100
 4316 021c 1717392E 	 .word 775493399
 4317 0220 C4C45793 	 .word -1822964540
 4318 0224 A7A7F255 	 .word 1441965991
 4319 0228 7E7E82FC 	 .word -58556802
 4320 022c 3D3D477A 	 .word 2051489085
 4321 0230 6464ACC8 	 .word -928226204
 4322 0234 5D5DE7BA 	 .word -1159242403
 4323 0238 19192B32 	 .word 841685273
 4324 023c 737395E6 	 .word -426413197
 4325 0240 6060A0C0 	 .word -1063231392
 4326 0244 81819819 	 .word 429425025
 4327 0248 4F4FD19E 	 .word -1630449841
 4328 024c DCDC7FA3 	 .word -1551901476
 4329 0250 22226644 	 .word 1147544098
 4330 0254 2A2A7E54 	 .word 1417554474
 4331 0258 9090AB3B 	 .word 1001099408
 4332 025c 8888830B 	 .word 193169544
 4333 0260 4646CA8C 	 .word -1932900794
 4334 0264 EEEE29C7 	 .word -953553170
 4335 0268 B8B8D36B 	 .word 1809037496
 4336 026c 14143C28 	 .word 675025940
 4337 0270 DEDE79A7 	 .word -1485185314
 4338 0274 5E5EE2BC 	 .word -1126015394
 4339 0278 0B0B1D16 	 .word 371002123
 4340 027c DBDB76AD 	 .word -1384719397
 4341 0280 E0E03BDB 	 .word -616832800
 4342 0284 32325664 	 .word 1683370546
 4343 0288 3A3A4E74 	 .word 1951283770
 4344 028c 0A0A1E14 	 .word 337512970
 4345 0290 4949DB92 	 .word -1831122615
 4346 0294 06060A0C 	 .word 201983494
 4347 0298 24246C48 	 .word 1215046692
 4348 029c 5C5CE4B8 	 .word -1192993700
 4349 02a0 C2C25D9F 	 .word -1621245246
 4350 02a4 D3D36EBD 	 .word -1116810285
 4351 02a8 ACACEF43 	 .word 1139780780
 4352 02ac 6262A6C4 	 .word -995728798
 4353 02b0 9191A839 	 .word 967348625
 4354 02b4 9595A431 	 .word 832869781
 4355 02b8 E4E437D3 	 .word -751311644
 4356 02bc 79798BF2 	 .word -225740423
 4357 02c0 E7E732D5 	 .word -718084121
 4358 02c4 C8C8438B 	 .word -1958491960
 4359 02c8 3737596E 	 .word 1851340599
 4360 02cc 6D6DB7DA 	 .word -625513107
 4361 02d0 8D8D8C01 	 .word 25988493
 4362 02d4 D5D564B1 	 .word -1318791723
 4363 02d8 4E4ED29C 	 .word -1663938994
 4364 02dc A9A9E049 	 .word 1239460265
 4365 02e0 6C6CB4D8 	 .word -659264404
 4366 02e4 5656FAAC 	 .word -1392880042
 4367 02e8 F4F407F3 	 .word -217582348
 4368 02ec EAEA25CF 	 .word -819598614
 4369 02f0 6565AFCA 	 .word -894474907
 4370 02f4 7A7A8EF4 	 .word -191989126
 4371 02f8 AEAEE947 	 .word 1206496942
 4372 02fc 08081810 	 .word 270010376
 4373 0300 BABAD56F 	 .word 1876277946
 4374 0304 787888F0 	 .word -259491720
 4375 0308 25256F4A 	 .word 1248797989
 4376 030c 2E2E725C 	 .word 1550986798
 4377 0310 1C1C2438 	 .word 941890588
 4378 0314 A6A6F157 	 .word 1475454630
 4379 0318 B4B4C773 	 .word 1942467764
 4380 031c C6C65197 	 .word -1756248378
 4381 0320 E8E823CB 	 .word -886839064
 4382 0324 DDDD7CA1 	 .word -1585652259
 4383 0328 74749CE8 	 .word -392399756
 4384 032c 1F1F213E 	 .word 1042358047
 4385 0330 4B4BDD96 	 .word -1763882165
 4386 0334 BDBDDC61 	 .word 1641856445
 4387 0338 8B8B860D 	 .word 226921355
 4388 033c 8A8A850F 	 .word 260409994
 4389 0340 707090E0 	 .word -527404944
 4390 0344 3E3E427C 	 .word 2084716094
 4391 0348 B5B5C471 	 .word 1908716981
 4392 034c 6666AACC 	 .word -861247898
 4393 0350 4848D890 	 .word -1864873912
 4394 0354 03030506 	 .word 100991747
 4395 0358 F6F601F7 	 .word -150866186
 4396 035c 0E0E121C 	 .word 470945294
 4397 0360 6161A3C2 	 .word -1029480095
 4398 0364 35355F6A 	 .word 1784624437
 4399 0368 5757F9AE 	 .word -1359390889
 4400 036c B9B9D069 	 .word 1775286713
 4401 0370 86869117 	 .word 395413126
 4402 0374 C1C15899 	 .word -1722236479
 4403 0378 1D1D273A 	 .word 975641885
 4404 037c 9E9EB927 	 .word 666476190
 4405 0380 E1E138D9 	 .word -650583583
 4406 0384 F8F813EB 	 .word -351012616
 4407 0388 9898B32B 	 .word 733190296
 4408 038c 11113322 	 .word 573772049
 4409 0390 6969BBD2 	 .word -759469719
 4410 0394 D9D970A9 	 .word -1452221991
 4411 0398 8E8E8907 	 .word 126455438
 4412 039c 9494A733 	 .word 866620564
 4413 03a0 9B9BB62D 	 .word 766942107
 4414 03a4 1E1E223C 	 .word 1008868894
 4415 03a8 87879215 	 .word 361924487
 4416 03ac E9E920C9 	 .word -920589847
 4417 03b0 CECE4987 	 .word -2025206066
 4418 03b4 5555FFAA 	 .word -1426107051
 4419 03b8 28287850 	 .word 1350051880
 4420 03bc DFDF7AA5 	 .word -1518673953
 4421 03c0 8C8C8F03 	 .word 59739276
 4422 03c4 A1A1F859 	 .word 1509466529
 4423 03c8 89898009 	 .word 159418761
 4424 03cc 0D0D171A 	 .word 437718285
 4425 03d0 BFBFDA65 	 .word 1708834751
 4426 03d4 E6E631D7 	 .word -684595482
 4427 03d8 4242C684 	 .word -2067381694
 4428 03dc 6868B8D0 	 .word -793221016
 4429 03e0 4141C382 	 .word -2101132991
 4430 03e4 9999B029 	 .word 699439513
 4431 03e8 2D2D775A 	 .word 1517759789
 4432 03ec 0F0F111E 	 .word 504434447
 4433 03f0 B0B0CB7B 	 .word 2076946608
 4434 03f4 5454FCA8 	 .word -1459858348
 4435 03f8 BBBBD66D 	 .word 1842789307
 4436 03fc 16163A2C 	 .word 742004246
 4437              	 .section .rodata.RSb,"a",%progbits
 4438              	 .set .LANCHOR10,.+0
 4441              	RSb:
 4442 0000 52       	 .byte 82
 4443 0001 09       	 .byte 9
 4444 0002 6A       	 .byte 106
 4445 0003 D5       	 .byte -43
 4446 0004 30       	 .byte 48
 4447 0005 36       	 .byte 54
 4448 0006 A5       	 .byte -91
 4449 0007 38       	 .byte 56
 4450 0008 BF       	 .byte -65
 4451 0009 40       	 .byte 64
 4452 000a A3       	 .byte -93
 4453 000b 9E       	 .byte -98
 4454 000c 81       	 .byte -127
 4455 000d F3       	 .byte -13
 4456 000e D7       	 .byte -41
 4457 000f FB       	 .byte -5
 4458 0010 7C       	 .byte 124
 4459 0011 E3       	 .byte -29
 4460 0012 39       	 .byte 57
 4461 0013 82       	 .byte -126
 4462 0014 9B       	 .byte -101
 4463 0015 2F       	 .byte 47
 4464 0016 FF       	 .byte -1
 4465 0017 87       	 .byte -121
 4466 0018 34       	 .byte 52
 4467 0019 8E       	 .byte -114
 4468 001a 43       	 .byte 67
 4469 001b 44       	 .byte 68
 4470 001c C4       	 .byte -60
 4471 001d DE       	 .byte -34
 4472 001e E9       	 .byte -23
 4473 001f CB       	 .byte -53
 4474 0020 54       	 .byte 84
 4475 0021 7B       	 .byte 123
 4476 0022 94       	 .byte -108
 4477 0023 32       	 .byte 50
 4478 0024 A6       	 .byte -90
 4479 0025 C2       	 .byte -62
 4480 0026 23       	 .byte 35
 4481 0027 3D       	 .byte 61
 4482 0028 EE       	 .byte -18
 4483 0029 4C       	 .byte 76
 4484 002a 95       	 .byte -107
 4485 002b 0B       	 .byte 11
 4486 002c 42       	 .byte 66
 4487 002d FA       	 .byte -6
 4488 002e C3       	 .byte -61
 4489 002f 4E       	 .byte 78
 4490 0030 08       	 .byte 8
 4491 0031 2E       	 .byte 46
 4492 0032 A1       	 .byte -95
 4493 0033 66       	 .byte 102
 4494 0034 28       	 .byte 40
 4495 0035 D9       	 .byte -39
 4496 0036 24       	 .byte 36
 4497 0037 B2       	 .byte -78
 4498 0038 76       	 .byte 118
 4499 0039 5B       	 .byte 91
 4500 003a A2       	 .byte -94
 4501 003b 49       	 .byte 73
 4502 003c 6D       	 .byte 109
 4503 003d 8B       	 .byte -117
 4504 003e D1       	 .byte -47
 4505 003f 25       	 .byte 37
 4506 0040 72       	 .byte 114
 4507 0041 F8       	 .byte -8
 4508 0042 F6       	 .byte -10
 4509 0043 64       	 .byte 100
 4510 0044 86       	 .byte -122
 4511 0045 68       	 .byte 104
 4512 0046 98       	 .byte -104
 4513 0047 16       	 .byte 22
 4514 0048 D4       	 .byte -44
 4515 0049 A4       	 .byte -92
 4516 004a 5C       	 .byte 92
 4517 004b CC       	 .byte -52
 4518 004c 5D       	 .byte 93
 4519 004d 65       	 .byte 101
 4520 004e B6       	 .byte -74
 4521 004f 92       	 .byte -110
 4522 0050 6C       	 .byte 108
 4523 0051 70       	 .byte 112
 4524 0052 48       	 .byte 72
 4525 0053 50       	 .byte 80
 4526 0054 FD       	 .byte -3
 4527 0055 ED       	 .byte -19
 4528 0056 B9       	 .byte -71
 4529 0057 DA       	 .byte -38
 4530 0058 5E       	 .byte 94
 4531 0059 15       	 .byte 21
 4532 005a 46       	 .byte 70
 4533 005b 57       	 .byte 87
 4534 005c A7       	 .byte -89
 4535 005d 8D       	 .byte -115
 4536 005e 9D       	 .byte -99
 4537 005f 84       	 .byte -124
 4538 0060 90       	 .byte -112
 4539 0061 D8       	 .byte -40
 4540 0062 AB       	 .byte -85
 4541 0063 00       	 .byte 0
 4542 0064 8C       	 .byte -116
 4543 0065 BC       	 .byte -68
 4544 0066 D3       	 .byte -45
 4545 0067 0A       	 .byte 10
 4546 0068 F7       	 .byte -9
 4547 0069 E4       	 .byte -28
 4548 006a 58       	 .byte 88
 4549 006b 05       	 .byte 5
 4550 006c B8       	 .byte -72
 4551 006d B3       	 .byte -77
 4552 006e 45       	 .byte 69
 4553 006f 06       	 .byte 6
 4554 0070 D0       	 .byte -48
 4555 0071 2C       	 .byte 44
 4556 0072 1E       	 .byte 30
 4557 0073 8F       	 .byte -113
 4558 0074 CA       	 .byte -54
 4559 0075 3F       	 .byte 63
 4560 0076 0F       	 .byte 15
 4561 0077 02       	 .byte 2
 4562 0078 C1       	 .byte -63
 4563 0079 AF       	 .byte -81
 4564 007a BD       	 .byte -67
 4565 007b 03       	 .byte 3
 4566 007c 01       	 .byte 1
 4567 007d 13       	 .byte 19
 4568 007e 8A       	 .byte -118
 4569 007f 6B       	 .byte 107
 4570 0080 3A       	 .byte 58
 4571 0081 91       	 .byte -111
 4572 0082 11       	 .byte 17
 4573 0083 41       	 .byte 65
 4574 0084 4F       	 .byte 79
 4575 0085 67       	 .byte 103
 4576 0086 DC       	 .byte -36
 4577 0087 EA       	 .byte -22
 4578 0088 97       	 .byte -105
 4579 0089 F2       	 .byte -14
 4580 008a CF       	 .byte -49
 4581 008b CE       	 .byte -50
 4582 008c F0       	 .byte -16
 4583 008d B4       	 .byte -76
 4584 008e E6       	 .byte -26
 4585 008f 73       	 .byte 115
 4586 0090 96       	 .byte -106
 4587 0091 AC       	 .byte -84
 4588 0092 74       	 .byte 116
 4589 0093 22       	 .byte 34
 4590 0094 E7       	 .byte -25
 4591 0095 AD       	 .byte -83
 4592 0096 35       	 .byte 53
 4593 0097 85       	 .byte -123
 4594 0098 E2       	 .byte -30
 4595 0099 F9       	 .byte -7
 4596 009a 37       	 .byte 55
 4597 009b E8       	 .byte -24
 4598 009c 1C       	 .byte 28
 4599 009d 75       	 .byte 117
 4600 009e DF       	 .byte -33
 4601 009f 6E       	 .byte 110
 4602 00a0 47       	 .byte 71
 4603 00a1 F1       	 .byte -15
 4604 00a2 1A       	 .byte 26
 4605 00a3 71       	 .byte 113
 4606 00a4 1D       	 .byte 29
 4607 00a5 29       	 .byte 41
 4608 00a6 C5       	 .byte -59
 4609 00a7 89       	 .byte -119
 4610 00a8 6F       	 .byte 111
 4611 00a9 B7       	 .byte -73
 4612 00aa 62       	 .byte 98
 4613 00ab 0E       	 .byte 14
 4614 00ac AA       	 .byte -86
 4615 00ad 18       	 .byte 24
 4616 00ae BE       	 .byte -66
 4617 00af 1B       	 .byte 27
 4618 00b0 FC       	 .byte -4
 4619 00b1 56       	 .byte 86
 4620 00b2 3E       	 .byte 62
 4621 00b3 4B       	 .byte 75
 4622 00b4 C6       	 .byte -58
 4623 00b5 D2       	 .byte -46
 4624 00b6 79       	 .byte 121
 4625 00b7 20       	 .byte 32
 4626 00b8 9A       	 .byte -102
 4627 00b9 DB       	 .byte -37
 4628 00ba C0       	 .byte -64
 4629 00bb FE       	 .byte -2
 4630 00bc 78       	 .byte 120
 4631 00bd CD       	 .byte -51
 4632 00be 5A       	 .byte 90
 4633 00bf F4       	 .byte -12
 4634 00c0 1F       	 .byte 31
 4635 00c1 DD       	 .byte -35
 4636 00c2 A8       	 .byte -88
 4637 00c3 33       	 .byte 51
 4638 00c4 88       	 .byte -120
 4639 00c5 07       	 .byte 7
 4640 00c6 C7       	 .byte -57
 4641 00c7 31       	 .byte 49
 4642 00c8 B1       	 .byte -79
 4643 00c9 12       	 .byte 18
 4644 00ca 10       	 .byte 16
 4645 00cb 59       	 .byte 89
 4646 00cc 27       	 .byte 39
 4647 00cd 80       	 .byte -128
 4648 00ce EC       	 .byte -20
 4649 00cf 5F       	 .byte 95
 4650 00d0 60       	 .byte 96
 4651 00d1 51       	 .byte 81
 4652 00d2 7F       	 .byte 127
 4653 00d3 A9       	 .byte -87
 4654 00d4 19       	 .byte 25
 4655 00d5 B5       	 .byte -75
 4656 00d6 4A       	 .byte 74
 4657 00d7 0D       	 .byte 13
 4658 00d8 2D       	 .byte 45
 4659 00d9 E5       	 .byte -27
 4660 00da 7A       	 .byte 122
 4661 00db 9F       	 .byte -97
 4662 00dc 93       	 .byte -109
 4663 00dd C9       	 .byte -55
 4664 00de 9C       	 .byte -100
 4665 00df EF       	 .byte -17
 4666 00e0 A0       	 .byte -96
 4667 00e1 E0       	 .byte -32
 4668 00e2 3B       	 .byte 59
 4669 00e3 4D       	 .byte 77
 4670 00e4 AE       	 .byte -82
 4671 00e5 2A       	 .byte 42
 4672 00e6 F5       	 .byte -11
 4673 00e7 B0       	 .byte -80
 4674 00e8 C8       	 .byte -56
 4675 00e9 EB       	 .byte -21
 4676 00ea BB       	 .byte -69
 4677 00eb 3C       	 .byte 60
 4678 00ec 83       	 .byte -125
 4679 00ed 53       	 .byte 83
 4680 00ee 99       	 .byte -103
 4681 00ef 61       	 .byte 97
 4682 00f0 17       	 .byte 23
 4683 00f1 2B       	 .byte 43
 4684 00f2 04       	 .byte 4
 4685 00f3 7E       	 .byte 126
 4686 00f4 BA       	 .byte -70
 4687 00f5 77       	 .byte 119
 4688 00f6 D6       	 .byte -42
 4689 00f7 26       	 .byte 38
 4690 00f8 E1       	 .byte -31
 4691 00f9 69       	 .byte 105
 4692 00fa 14       	 .byte 20
 4693 00fb 63       	 .byte 99
 4694 00fc 55       	 .byte 85
 4695 00fd 21       	 .byte 33
 4696 00fe 0C       	 .byte 12
 4697 00ff 7D       	 .byte 125
 4698              	 .text
 4699              	.Letext0:
 4700              	 .file 2 "c:\\dave_4-4-2_64bit\\dave-ide-4.4.2-64bit\\eclipse\\arm-gcc-49\\lib\\gcc\\arm-none-eabi\\4.9.3\\include\\stddef.h"
 4701              	 .file 3 "c:\\dave_4-4-2_64bit\\dave-ide-4.4.2-64bit\\eclipse\\arm-gcc-49\\arm-none-eabi\\include\\machine\\_default_types.h"
 4702              	 .file 4 "c:\\dave_4-4-2_64bit\\dave-ide-4.4.2-64bit\\eclipse\\arm-gcc-49\\arm-none-eabi\\include\\stdint.h"
 4703              	 .file 5 "C:/Workspace/DAVE-4.4.2-64Bit/optiga-trust-m/externals/mbedtls/include/mbedtls/aes.h"
 4704              	 .file 6 "C:/Workspace/DAVE-4.4.2-64Bit/optiga-trust-m/externals/mbedtls/include/mbedtls/platform_util.h"
DEFINED SYMBOLS
                            *ABS*:00000000 aes.c
    {standard input}:18     .text.mbedtls_aes_init:00000000 $t
    {standard input}:23     .text.mbedtls_aes_init:00000000 mbedtls_aes_init
    {standard input}:49     .text.mbedtls_aes_free:00000000 $t
    {standard input}:54     .text.mbedtls_aes_free:00000000 mbedtls_aes_free
    {standard input}:80     .text.mbedtls_aes_setkey_enc:00000000 $t
    {standard input}:85     .text.mbedtls_aes_setkey_enc:00000000 mbedtls_aes_setkey_enc
    {standard input}:440    .text.mbedtls_aes_setkey_enc:000001ac $d
    {standard input}:446    .text.mbedtls_aes_setkey_dec:00000000 $t
    {standard input}:451    .text.mbedtls_aes_setkey_dec:00000000 mbedtls_aes_setkey_dec
    {standard input}:617    .text.mbedtls_aes_setkey_dec:000000b8 $d
    {standard input}:626    .text.mbedtls_internal_aes_encrypt:00000000 $t
    {standard input}:631    .text.mbedtls_internal_aes_encrypt:00000000 mbedtls_internal_aes_encrypt
    {standard input}:1282   .text.mbedtls_internal_aes_encrypt:000003e4 $d
    {standard input}:1291   .text.mbedtls_aes_encrypt:00000000 $t
    {standard input}:1296   .text.mbedtls_aes_encrypt:00000000 mbedtls_aes_encrypt
    {standard input}:1316   .text.mbedtls_internal_aes_decrypt:00000000 $t
    {standard input}:1321   .text.mbedtls_internal_aes_decrypt:00000000 mbedtls_internal_aes_decrypt
    {standard input}:1988   .text.mbedtls_internal_aes_decrypt:00000404 $d
    {standard input}:1997   .text.mbedtls_aes_decrypt:00000000 $t
    {standard input}:2002   .text.mbedtls_aes_decrypt:00000000 mbedtls_aes_decrypt
    {standard input}:2022   .text.mbedtls_aes_crypt_ecb:00000000 $t
    {standard input}:2027   .text.mbedtls_aes_crypt_ecb:00000000 mbedtls_aes_crypt_ecb
    {standard input}:2068   .rodata.FSb:00000000 FSb
    {standard input}:2326   .rodata.RT0:00000000 $d
    {standard input}:2330   .rodata.RT0:00000000 RT0
    {standard input}:2588   .rodata.RT1:00000000 $d
    {standard input}:2592   .rodata.RT1:00000000 RT1
    {standard input}:2850   .rodata.RT2:00000000 $d
    {standard input}:2854   .rodata.RT2:00000000 RT2
    {standard input}:3112   .rodata.RT3:00000000 $d
    {standard input}:3116   .rodata.RT3:00000000 RT3
    {standard input}:3374   .rodata.RCON:00000000 $d
    {standard input}:3378   .rodata.RCON:00000000 RCON
    {standard input}:3390   .rodata.FT0:00000000 $d
    {standard input}:3394   .rodata.FT0:00000000 FT0
    {standard input}:3652   .rodata.FT1:00000000 $d
    {standard input}:3656   .rodata.FT1:00000000 FT1
    {standard input}:3914   .rodata.FT2:00000000 $d
    {standard input}:3918   .rodata.FT2:00000000 FT2
    {standard input}:4176   .rodata.FT3:00000000 $d
    {standard input}:4180   .rodata.FT3:00000000 FT3
    {standard input}:4441   .rodata.RSb:00000000 RSb
                     .debug_frame:00000010 $d

UNDEFINED SYMBOLS
memset
mbedtls_platform_zeroize
