   1              	 .cpu cortex-m0
   2              	 .fpu softvfp
   3              	 .eabi_attribute 20,1
   4              	 .eabi_attribute 21,1
   5              	 .eabi_attribute 23,3
   6              	 .eabi_attribute 24,1
   7              	 .eabi_attribute 25,1
   8              	 .eabi_attribute 26,1
   9              	 .eabi_attribute 30,4
  10              	 .eabi_attribute 34,0
  11              	 .eabi_attribute 18,4
  12              	 .code 16
  13              	 .file "aes.c"
  14              	 .text
  15              	.Ltext0:
  16              	 .cfi_sections .debug_frame
  17              	 .global __aeabi_idivmod
  18              	 .section .text.aes_gen_tables,"ax",%progbits
  19              	 .align 1
  20              	 .code 16
  21              	 .thumb_func
  23              	aes_gen_tables:
  24              	.LFB0:
  25              	 .file 1 "//MAC/Home/Downloads/getstarted-optiga-trust-m/optiga-trust-m-1/externals/mbedtls/library/aes.c"
   1://MAC/Home/Downloads/getstarted-optiga-trust-m/optiga-trust-m-1/externals/mbedtls/library/aes.c **** /*
   2://MAC/Home/Downloads/getstarted-optiga-trust-m/optiga-trust-m-1/externals/mbedtls/library/aes.c ****  *  FIPS-197 compliant AES implementation
   3://MAC/Home/Downloads/getstarted-optiga-trust-m/optiga-trust-m-1/externals/mbedtls/library/aes.c ****  *
   4://MAC/Home/Downloads/getstarted-optiga-trust-m/optiga-trust-m-1/externals/mbedtls/library/aes.c ****  *  Copyright (C) 2006-2015, ARM Limited, All Rights Reserved
   5://MAC/Home/Downloads/getstarted-optiga-trust-m/optiga-trust-m-1/externals/mbedtls/library/aes.c ****  *  SPDX-License-Identifier: Apache-2.0
   6://MAC/Home/Downloads/getstarted-optiga-trust-m/optiga-trust-m-1/externals/mbedtls/library/aes.c ****  *
   7://MAC/Home/Downloads/getstarted-optiga-trust-m/optiga-trust-m-1/externals/mbedtls/library/aes.c ****  *  Licensed under the Apache License, Version 2.0 (the "License"); you may
   8://MAC/Home/Downloads/getstarted-optiga-trust-m/optiga-trust-m-1/externals/mbedtls/library/aes.c ****  *  not use this file except in compliance with the License.
   9://MAC/Home/Downloads/getstarted-optiga-trust-m/optiga-trust-m-1/externals/mbedtls/library/aes.c ****  *  You may obtain a copy of the License at
  10://MAC/Home/Downloads/getstarted-optiga-trust-m/optiga-trust-m-1/externals/mbedtls/library/aes.c ****  *
  11://MAC/Home/Downloads/getstarted-optiga-trust-m/optiga-trust-m-1/externals/mbedtls/library/aes.c ****  *  http://www.apache.org/licenses/LICENSE-2.0
  12://MAC/Home/Downloads/getstarted-optiga-trust-m/optiga-trust-m-1/externals/mbedtls/library/aes.c ****  *
  13://MAC/Home/Downloads/getstarted-optiga-trust-m/optiga-trust-m-1/externals/mbedtls/library/aes.c ****  *  Unless required by applicable law or agreed to in writing, software
  14://MAC/Home/Downloads/getstarted-optiga-trust-m/optiga-trust-m-1/externals/mbedtls/library/aes.c ****  *  distributed under the License is distributed on an "AS IS" BASIS, WITHOUT
  15://MAC/Home/Downloads/getstarted-optiga-trust-m/optiga-trust-m-1/externals/mbedtls/library/aes.c ****  *  WARRANTIES OR CONDITIONS OF ANY KIND, either express or implied.
  16://MAC/Home/Downloads/getstarted-optiga-trust-m/optiga-trust-m-1/externals/mbedtls/library/aes.c ****  *  See the License for the specific language governing permissions and
  17://MAC/Home/Downloads/getstarted-optiga-trust-m/optiga-trust-m-1/externals/mbedtls/library/aes.c ****  *  limitations under the License.
  18://MAC/Home/Downloads/getstarted-optiga-trust-m/optiga-trust-m-1/externals/mbedtls/library/aes.c ****  *
  19://MAC/Home/Downloads/getstarted-optiga-trust-m/optiga-trust-m-1/externals/mbedtls/library/aes.c ****  *  This file is part of mbed TLS (https://tls.mbed.org)
  20://MAC/Home/Downloads/getstarted-optiga-trust-m/optiga-trust-m-1/externals/mbedtls/library/aes.c ****  */
  21://MAC/Home/Downloads/getstarted-optiga-trust-m/optiga-trust-m-1/externals/mbedtls/library/aes.c **** /*
  22://MAC/Home/Downloads/getstarted-optiga-trust-m/optiga-trust-m-1/externals/mbedtls/library/aes.c ****  *  The AES block cipher was designed by Vincent Rijmen and Joan Daemen.
  23://MAC/Home/Downloads/getstarted-optiga-trust-m/optiga-trust-m-1/externals/mbedtls/library/aes.c ****  *
  24://MAC/Home/Downloads/getstarted-optiga-trust-m/optiga-trust-m-1/externals/mbedtls/library/aes.c ****  *  http://csrc.nist.gov/encryption/aes/rijndael/Rijndael.pdf
  25://MAC/Home/Downloads/getstarted-optiga-trust-m/optiga-trust-m-1/externals/mbedtls/library/aes.c ****  *  http://csrc.nist.gov/publications/fips/fips197/fips-197.pdf
  26://MAC/Home/Downloads/getstarted-optiga-trust-m/optiga-trust-m-1/externals/mbedtls/library/aes.c ****  */
  27://MAC/Home/Downloads/getstarted-optiga-trust-m/optiga-trust-m-1/externals/mbedtls/library/aes.c **** 
  28://MAC/Home/Downloads/getstarted-optiga-trust-m/optiga-trust-m-1/externals/mbedtls/library/aes.c **** #if !defined(MBEDTLS_CONFIG_FILE)
  29://MAC/Home/Downloads/getstarted-optiga-trust-m/optiga-trust-m-1/externals/mbedtls/library/aes.c **** #include "mbedtls/config.h"
  30://MAC/Home/Downloads/getstarted-optiga-trust-m/optiga-trust-m-1/externals/mbedtls/library/aes.c **** #else
  31://MAC/Home/Downloads/getstarted-optiga-trust-m/optiga-trust-m-1/externals/mbedtls/library/aes.c **** #include MBEDTLS_CONFIG_FILE
  32://MAC/Home/Downloads/getstarted-optiga-trust-m/optiga-trust-m-1/externals/mbedtls/library/aes.c **** #endif
  33://MAC/Home/Downloads/getstarted-optiga-trust-m/optiga-trust-m-1/externals/mbedtls/library/aes.c **** 
  34://MAC/Home/Downloads/getstarted-optiga-trust-m/optiga-trust-m-1/externals/mbedtls/library/aes.c **** #if defined(MBEDTLS_AES_C)
  35://MAC/Home/Downloads/getstarted-optiga-trust-m/optiga-trust-m-1/externals/mbedtls/library/aes.c **** 
  36://MAC/Home/Downloads/getstarted-optiga-trust-m/optiga-trust-m-1/externals/mbedtls/library/aes.c **** #include <string.h>
  37://MAC/Home/Downloads/getstarted-optiga-trust-m/optiga-trust-m-1/externals/mbedtls/library/aes.c **** 
  38://MAC/Home/Downloads/getstarted-optiga-trust-m/optiga-trust-m-1/externals/mbedtls/library/aes.c **** #include "mbedtls/aes.h"
  39://MAC/Home/Downloads/getstarted-optiga-trust-m/optiga-trust-m-1/externals/mbedtls/library/aes.c **** #include "mbedtls/platform.h"
  40://MAC/Home/Downloads/getstarted-optiga-trust-m/optiga-trust-m-1/externals/mbedtls/library/aes.c **** #include "mbedtls/platform_util.h"
  41://MAC/Home/Downloads/getstarted-optiga-trust-m/optiga-trust-m-1/externals/mbedtls/library/aes.c **** #if defined(MBEDTLS_PADLOCK_C)
  42://MAC/Home/Downloads/getstarted-optiga-trust-m/optiga-trust-m-1/externals/mbedtls/library/aes.c **** #include "mbedtls/padlock.h"
  43://MAC/Home/Downloads/getstarted-optiga-trust-m/optiga-trust-m-1/externals/mbedtls/library/aes.c **** #endif
  44://MAC/Home/Downloads/getstarted-optiga-trust-m/optiga-trust-m-1/externals/mbedtls/library/aes.c **** #if defined(MBEDTLS_AESNI_C)
  45://MAC/Home/Downloads/getstarted-optiga-trust-m/optiga-trust-m-1/externals/mbedtls/library/aes.c **** #include "mbedtls/aesni.h"
  46://MAC/Home/Downloads/getstarted-optiga-trust-m/optiga-trust-m-1/externals/mbedtls/library/aes.c **** #endif
  47://MAC/Home/Downloads/getstarted-optiga-trust-m/optiga-trust-m-1/externals/mbedtls/library/aes.c **** 
  48://MAC/Home/Downloads/getstarted-optiga-trust-m/optiga-trust-m-1/externals/mbedtls/library/aes.c **** #if defined(MBEDTLS_SELF_TEST)
  49://MAC/Home/Downloads/getstarted-optiga-trust-m/optiga-trust-m-1/externals/mbedtls/library/aes.c **** #if defined(MBEDTLS_PLATFORM_C)
  50://MAC/Home/Downloads/getstarted-optiga-trust-m/optiga-trust-m-1/externals/mbedtls/library/aes.c **** #include "mbedtls/platform.h"
  51://MAC/Home/Downloads/getstarted-optiga-trust-m/optiga-trust-m-1/externals/mbedtls/library/aes.c **** #else
  52://MAC/Home/Downloads/getstarted-optiga-trust-m/optiga-trust-m-1/externals/mbedtls/library/aes.c **** #include <stdio.h>
  53://MAC/Home/Downloads/getstarted-optiga-trust-m/optiga-trust-m-1/externals/mbedtls/library/aes.c **** #define mbedtls_printf printf
  54://MAC/Home/Downloads/getstarted-optiga-trust-m/optiga-trust-m-1/externals/mbedtls/library/aes.c **** #endif /* MBEDTLS_PLATFORM_C */
  55://MAC/Home/Downloads/getstarted-optiga-trust-m/optiga-trust-m-1/externals/mbedtls/library/aes.c **** #endif /* MBEDTLS_SELF_TEST */
  56://MAC/Home/Downloads/getstarted-optiga-trust-m/optiga-trust-m-1/externals/mbedtls/library/aes.c **** 
  57://MAC/Home/Downloads/getstarted-optiga-trust-m/optiga-trust-m-1/externals/mbedtls/library/aes.c **** #if !defined(MBEDTLS_AES_ALT)
  58://MAC/Home/Downloads/getstarted-optiga-trust-m/optiga-trust-m-1/externals/mbedtls/library/aes.c **** 
  59://MAC/Home/Downloads/getstarted-optiga-trust-m/optiga-trust-m-1/externals/mbedtls/library/aes.c **** /* Parameter validation macros based on platform_util.h */
  60://MAC/Home/Downloads/getstarted-optiga-trust-m/optiga-trust-m-1/externals/mbedtls/library/aes.c **** #define AES_VALIDATE_RET( cond )    \
  61://MAC/Home/Downloads/getstarted-optiga-trust-m/optiga-trust-m-1/externals/mbedtls/library/aes.c ****     MBEDTLS_INTERNAL_VALIDATE_RET( cond, MBEDTLS_ERR_AES_BAD_INPUT_DATA )
  62://MAC/Home/Downloads/getstarted-optiga-trust-m/optiga-trust-m-1/externals/mbedtls/library/aes.c **** #define AES_VALIDATE( cond )        \
  63://MAC/Home/Downloads/getstarted-optiga-trust-m/optiga-trust-m-1/externals/mbedtls/library/aes.c ****     MBEDTLS_INTERNAL_VALIDATE( cond )
  64://MAC/Home/Downloads/getstarted-optiga-trust-m/optiga-trust-m-1/externals/mbedtls/library/aes.c **** 
  65://MAC/Home/Downloads/getstarted-optiga-trust-m/optiga-trust-m-1/externals/mbedtls/library/aes.c **** /*
  66://MAC/Home/Downloads/getstarted-optiga-trust-m/optiga-trust-m-1/externals/mbedtls/library/aes.c ****  * 32-bit integer manipulation macros (little endian)
  67://MAC/Home/Downloads/getstarted-optiga-trust-m/optiga-trust-m-1/externals/mbedtls/library/aes.c ****  */
  68://MAC/Home/Downloads/getstarted-optiga-trust-m/optiga-trust-m-1/externals/mbedtls/library/aes.c **** #ifndef GET_UINT32_LE
  69://MAC/Home/Downloads/getstarted-optiga-trust-m/optiga-trust-m-1/externals/mbedtls/library/aes.c **** #define GET_UINT32_LE(n,b,i)                            \
  70://MAC/Home/Downloads/getstarted-optiga-trust-m/optiga-trust-m-1/externals/mbedtls/library/aes.c **** {                                                       \
  71://MAC/Home/Downloads/getstarted-optiga-trust-m/optiga-trust-m-1/externals/mbedtls/library/aes.c ****     (n) = ( (uint32_t) (b)[(i)    ]       )             \
  72://MAC/Home/Downloads/getstarted-optiga-trust-m/optiga-trust-m-1/externals/mbedtls/library/aes.c ****         | ( (uint32_t) (b)[(i) + 1] <<  8 )             \
  73://MAC/Home/Downloads/getstarted-optiga-trust-m/optiga-trust-m-1/externals/mbedtls/library/aes.c ****         | ( (uint32_t) (b)[(i) + 2] << 16 )             \
  74://MAC/Home/Downloads/getstarted-optiga-trust-m/optiga-trust-m-1/externals/mbedtls/library/aes.c ****         | ( (uint32_t) (b)[(i) + 3] << 24 );            \
  75://MAC/Home/Downloads/getstarted-optiga-trust-m/optiga-trust-m-1/externals/mbedtls/library/aes.c **** }
  76://MAC/Home/Downloads/getstarted-optiga-trust-m/optiga-trust-m-1/externals/mbedtls/library/aes.c **** #endif
  77://MAC/Home/Downloads/getstarted-optiga-trust-m/optiga-trust-m-1/externals/mbedtls/library/aes.c **** 
  78://MAC/Home/Downloads/getstarted-optiga-trust-m/optiga-trust-m-1/externals/mbedtls/library/aes.c **** #ifndef PUT_UINT32_LE
  79://MAC/Home/Downloads/getstarted-optiga-trust-m/optiga-trust-m-1/externals/mbedtls/library/aes.c **** #define PUT_UINT32_LE(n,b,i)                                    \
  80://MAC/Home/Downloads/getstarted-optiga-trust-m/optiga-trust-m-1/externals/mbedtls/library/aes.c **** {                                                               \
  81://MAC/Home/Downloads/getstarted-optiga-trust-m/optiga-trust-m-1/externals/mbedtls/library/aes.c ****     (b)[(i)    ] = (unsigned char) ( ( (n)       ) & 0xFF );    \
  82://MAC/Home/Downloads/getstarted-optiga-trust-m/optiga-trust-m-1/externals/mbedtls/library/aes.c ****     (b)[(i) + 1] = (unsigned char) ( ( (n) >>  8 ) & 0xFF );    \
  83://MAC/Home/Downloads/getstarted-optiga-trust-m/optiga-trust-m-1/externals/mbedtls/library/aes.c ****     (b)[(i) + 2] = (unsigned char) ( ( (n) >> 16 ) & 0xFF );    \
  84://MAC/Home/Downloads/getstarted-optiga-trust-m/optiga-trust-m-1/externals/mbedtls/library/aes.c ****     (b)[(i) + 3] = (unsigned char) ( ( (n) >> 24 ) & 0xFF );    \
  85://MAC/Home/Downloads/getstarted-optiga-trust-m/optiga-trust-m-1/externals/mbedtls/library/aes.c **** }
  86://MAC/Home/Downloads/getstarted-optiga-trust-m/optiga-trust-m-1/externals/mbedtls/library/aes.c **** #endif
  87://MAC/Home/Downloads/getstarted-optiga-trust-m/optiga-trust-m-1/externals/mbedtls/library/aes.c **** 
  88://MAC/Home/Downloads/getstarted-optiga-trust-m/optiga-trust-m-1/externals/mbedtls/library/aes.c **** #if defined(MBEDTLS_PADLOCK_C) &&                      \
  89://MAC/Home/Downloads/getstarted-optiga-trust-m/optiga-trust-m-1/externals/mbedtls/library/aes.c ****     ( defined(MBEDTLS_HAVE_X86) || defined(MBEDTLS_PADLOCK_ALIGN16) )
  90://MAC/Home/Downloads/getstarted-optiga-trust-m/optiga-trust-m-1/externals/mbedtls/library/aes.c **** static int aes_padlock_ace = -1;
  91://MAC/Home/Downloads/getstarted-optiga-trust-m/optiga-trust-m-1/externals/mbedtls/library/aes.c **** #endif
  92://MAC/Home/Downloads/getstarted-optiga-trust-m/optiga-trust-m-1/externals/mbedtls/library/aes.c **** 
  93://MAC/Home/Downloads/getstarted-optiga-trust-m/optiga-trust-m-1/externals/mbedtls/library/aes.c **** #if defined(MBEDTLS_AES_ROM_TABLES)
  94://MAC/Home/Downloads/getstarted-optiga-trust-m/optiga-trust-m-1/externals/mbedtls/library/aes.c **** /*
  95://MAC/Home/Downloads/getstarted-optiga-trust-m/optiga-trust-m-1/externals/mbedtls/library/aes.c ****  * Forward S-box
  96://MAC/Home/Downloads/getstarted-optiga-trust-m/optiga-trust-m-1/externals/mbedtls/library/aes.c ****  */
  97://MAC/Home/Downloads/getstarted-optiga-trust-m/optiga-trust-m-1/externals/mbedtls/library/aes.c **** static const unsigned char FSb[256] =
  98://MAC/Home/Downloads/getstarted-optiga-trust-m/optiga-trust-m-1/externals/mbedtls/library/aes.c **** {
  99://MAC/Home/Downloads/getstarted-optiga-trust-m/optiga-trust-m-1/externals/mbedtls/library/aes.c ****     0x63, 0x7C, 0x77, 0x7B, 0xF2, 0x6B, 0x6F, 0xC5,
 100://MAC/Home/Downloads/getstarted-optiga-trust-m/optiga-trust-m-1/externals/mbedtls/library/aes.c ****     0x30, 0x01, 0x67, 0x2B, 0xFE, 0xD7, 0xAB, 0x76,
 101://MAC/Home/Downloads/getstarted-optiga-trust-m/optiga-trust-m-1/externals/mbedtls/library/aes.c ****     0xCA, 0x82, 0xC9, 0x7D, 0xFA, 0x59, 0x47, 0xF0,
 102://MAC/Home/Downloads/getstarted-optiga-trust-m/optiga-trust-m-1/externals/mbedtls/library/aes.c ****     0xAD, 0xD4, 0xA2, 0xAF, 0x9C, 0xA4, 0x72, 0xC0,
 103://MAC/Home/Downloads/getstarted-optiga-trust-m/optiga-trust-m-1/externals/mbedtls/library/aes.c ****     0xB7, 0xFD, 0x93, 0x26, 0x36, 0x3F, 0xF7, 0xCC,
 104://MAC/Home/Downloads/getstarted-optiga-trust-m/optiga-trust-m-1/externals/mbedtls/library/aes.c ****     0x34, 0xA5, 0xE5, 0xF1, 0x71, 0xD8, 0x31, 0x15,
 105://MAC/Home/Downloads/getstarted-optiga-trust-m/optiga-trust-m-1/externals/mbedtls/library/aes.c ****     0x04, 0xC7, 0x23, 0xC3, 0x18, 0x96, 0x05, 0x9A,
 106://MAC/Home/Downloads/getstarted-optiga-trust-m/optiga-trust-m-1/externals/mbedtls/library/aes.c ****     0x07, 0x12, 0x80, 0xE2, 0xEB, 0x27, 0xB2, 0x75,
 107://MAC/Home/Downloads/getstarted-optiga-trust-m/optiga-trust-m-1/externals/mbedtls/library/aes.c ****     0x09, 0x83, 0x2C, 0x1A, 0x1B, 0x6E, 0x5A, 0xA0,
 108://MAC/Home/Downloads/getstarted-optiga-trust-m/optiga-trust-m-1/externals/mbedtls/library/aes.c ****     0x52, 0x3B, 0xD6, 0xB3, 0x29, 0xE3, 0x2F, 0x84,
 109://MAC/Home/Downloads/getstarted-optiga-trust-m/optiga-trust-m-1/externals/mbedtls/library/aes.c ****     0x53, 0xD1, 0x00, 0xED, 0x20, 0xFC, 0xB1, 0x5B,
 110://MAC/Home/Downloads/getstarted-optiga-trust-m/optiga-trust-m-1/externals/mbedtls/library/aes.c ****     0x6A, 0xCB, 0xBE, 0x39, 0x4A, 0x4C, 0x58, 0xCF,
 111://MAC/Home/Downloads/getstarted-optiga-trust-m/optiga-trust-m-1/externals/mbedtls/library/aes.c ****     0xD0, 0xEF, 0xAA, 0xFB, 0x43, 0x4D, 0x33, 0x85,
 112://MAC/Home/Downloads/getstarted-optiga-trust-m/optiga-trust-m-1/externals/mbedtls/library/aes.c ****     0x45, 0xF9, 0x02, 0x7F, 0x50, 0x3C, 0x9F, 0xA8,
 113://MAC/Home/Downloads/getstarted-optiga-trust-m/optiga-trust-m-1/externals/mbedtls/library/aes.c ****     0x51, 0xA3, 0x40, 0x8F, 0x92, 0x9D, 0x38, 0xF5,
 114://MAC/Home/Downloads/getstarted-optiga-trust-m/optiga-trust-m-1/externals/mbedtls/library/aes.c ****     0xBC, 0xB6, 0xDA, 0x21, 0x10, 0xFF, 0xF3, 0xD2,
 115://MAC/Home/Downloads/getstarted-optiga-trust-m/optiga-trust-m-1/externals/mbedtls/library/aes.c ****     0xCD, 0x0C, 0x13, 0xEC, 0x5F, 0x97, 0x44, 0x17,
 116://MAC/Home/Downloads/getstarted-optiga-trust-m/optiga-trust-m-1/externals/mbedtls/library/aes.c ****     0xC4, 0xA7, 0x7E, 0x3D, 0x64, 0x5D, 0x19, 0x73,
 117://MAC/Home/Downloads/getstarted-optiga-trust-m/optiga-trust-m-1/externals/mbedtls/library/aes.c ****     0x60, 0x81, 0x4F, 0xDC, 0x22, 0x2A, 0x90, 0x88,
 118://MAC/Home/Downloads/getstarted-optiga-trust-m/optiga-trust-m-1/externals/mbedtls/library/aes.c ****     0x46, 0xEE, 0xB8, 0x14, 0xDE, 0x5E, 0x0B, 0xDB,
 119://MAC/Home/Downloads/getstarted-optiga-trust-m/optiga-trust-m-1/externals/mbedtls/library/aes.c ****     0xE0, 0x32, 0x3A, 0x0A, 0x49, 0x06, 0x24, 0x5C,
 120://MAC/Home/Downloads/getstarted-optiga-trust-m/optiga-trust-m-1/externals/mbedtls/library/aes.c ****     0xC2, 0xD3, 0xAC, 0x62, 0x91, 0x95, 0xE4, 0x79,
 121://MAC/Home/Downloads/getstarted-optiga-trust-m/optiga-trust-m-1/externals/mbedtls/library/aes.c ****     0xE7, 0xC8, 0x37, 0x6D, 0x8D, 0xD5, 0x4E, 0xA9,
 122://MAC/Home/Downloads/getstarted-optiga-trust-m/optiga-trust-m-1/externals/mbedtls/library/aes.c ****     0x6C, 0x56, 0xF4, 0xEA, 0x65, 0x7A, 0xAE, 0x08,
 123://MAC/Home/Downloads/getstarted-optiga-trust-m/optiga-trust-m-1/externals/mbedtls/library/aes.c ****     0xBA, 0x78, 0x25, 0x2E, 0x1C, 0xA6, 0xB4, 0xC6,
 124://MAC/Home/Downloads/getstarted-optiga-trust-m/optiga-trust-m-1/externals/mbedtls/library/aes.c ****     0xE8, 0xDD, 0x74, 0x1F, 0x4B, 0xBD, 0x8B, 0x8A,
 125://MAC/Home/Downloads/getstarted-optiga-trust-m/optiga-trust-m-1/externals/mbedtls/library/aes.c ****     0x70, 0x3E, 0xB5, 0x66, 0x48, 0x03, 0xF6, 0x0E,
 126://MAC/Home/Downloads/getstarted-optiga-trust-m/optiga-trust-m-1/externals/mbedtls/library/aes.c ****     0x61, 0x35, 0x57, 0xB9, 0x86, 0xC1, 0x1D, 0x9E,
 127://MAC/Home/Downloads/getstarted-optiga-trust-m/optiga-trust-m-1/externals/mbedtls/library/aes.c ****     0xE1, 0xF8, 0x98, 0x11, 0x69, 0xD9, 0x8E, 0x94,
 128://MAC/Home/Downloads/getstarted-optiga-trust-m/optiga-trust-m-1/externals/mbedtls/library/aes.c ****     0x9B, 0x1E, 0x87, 0xE9, 0xCE, 0x55, 0x28, 0xDF,
 129://MAC/Home/Downloads/getstarted-optiga-trust-m/optiga-trust-m-1/externals/mbedtls/library/aes.c ****     0x8C, 0xA1, 0x89, 0x0D, 0xBF, 0xE6, 0x42, 0x68,
 130://MAC/Home/Downloads/getstarted-optiga-trust-m/optiga-trust-m-1/externals/mbedtls/library/aes.c ****     0x41, 0x99, 0x2D, 0x0F, 0xB0, 0x54, 0xBB, 0x16
 131://MAC/Home/Downloads/getstarted-optiga-trust-m/optiga-trust-m-1/externals/mbedtls/library/aes.c **** };
 132://MAC/Home/Downloads/getstarted-optiga-trust-m/optiga-trust-m-1/externals/mbedtls/library/aes.c **** 
 133://MAC/Home/Downloads/getstarted-optiga-trust-m/optiga-trust-m-1/externals/mbedtls/library/aes.c **** /*
 134://MAC/Home/Downloads/getstarted-optiga-trust-m/optiga-trust-m-1/externals/mbedtls/library/aes.c ****  * Forward tables
 135://MAC/Home/Downloads/getstarted-optiga-trust-m/optiga-trust-m-1/externals/mbedtls/library/aes.c ****  */
 136://MAC/Home/Downloads/getstarted-optiga-trust-m/optiga-trust-m-1/externals/mbedtls/library/aes.c **** #define FT \
 137://MAC/Home/Downloads/getstarted-optiga-trust-m/optiga-trust-m-1/externals/mbedtls/library/aes.c **** \
 138://MAC/Home/Downloads/getstarted-optiga-trust-m/optiga-trust-m-1/externals/mbedtls/library/aes.c ****     V(A5,63,63,C6), V(84,7C,7C,F8), V(99,77,77,EE), V(8D,7B,7B,F6), \
 139://MAC/Home/Downloads/getstarted-optiga-trust-m/optiga-trust-m-1/externals/mbedtls/library/aes.c ****     V(0D,F2,F2,FF), V(BD,6B,6B,D6), V(B1,6F,6F,DE), V(54,C5,C5,91), \
 140://MAC/Home/Downloads/getstarted-optiga-trust-m/optiga-trust-m-1/externals/mbedtls/library/aes.c ****     V(50,30,30,60), V(03,01,01,02), V(A9,67,67,CE), V(7D,2B,2B,56), \
 141://MAC/Home/Downloads/getstarted-optiga-trust-m/optiga-trust-m-1/externals/mbedtls/library/aes.c ****     V(19,FE,FE,E7), V(62,D7,D7,B5), V(E6,AB,AB,4D), V(9A,76,76,EC), \
 142://MAC/Home/Downloads/getstarted-optiga-trust-m/optiga-trust-m-1/externals/mbedtls/library/aes.c ****     V(45,CA,CA,8F), V(9D,82,82,1F), V(40,C9,C9,89), V(87,7D,7D,FA), \
 143://MAC/Home/Downloads/getstarted-optiga-trust-m/optiga-trust-m-1/externals/mbedtls/library/aes.c ****     V(15,FA,FA,EF), V(EB,59,59,B2), V(C9,47,47,8E), V(0B,F0,F0,FB), \
 144://MAC/Home/Downloads/getstarted-optiga-trust-m/optiga-trust-m-1/externals/mbedtls/library/aes.c ****     V(EC,AD,AD,41), V(67,D4,D4,B3), V(FD,A2,A2,5F), V(EA,AF,AF,45), \
 145://MAC/Home/Downloads/getstarted-optiga-trust-m/optiga-trust-m-1/externals/mbedtls/library/aes.c ****     V(BF,9C,9C,23), V(F7,A4,A4,53), V(96,72,72,E4), V(5B,C0,C0,9B), \
 146://MAC/Home/Downloads/getstarted-optiga-trust-m/optiga-trust-m-1/externals/mbedtls/library/aes.c ****     V(C2,B7,B7,75), V(1C,FD,FD,E1), V(AE,93,93,3D), V(6A,26,26,4C), \
 147://MAC/Home/Downloads/getstarted-optiga-trust-m/optiga-trust-m-1/externals/mbedtls/library/aes.c ****     V(5A,36,36,6C), V(41,3F,3F,7E), V(02,F7,F7,F5), V(4F,CC,CC,83), \
 148://MAC/Home/Downloads/getstarted-optiga-trust-m/optiga-trust-m-1/externals/mbedtls/library/aes.c ****     V(5C,34,34,68), V(F4,A5,A5,51), V(34,E5,E5,D1), V(08,F1,F1,F9), \
 149://MAC/Home/Downloads/getstarted-optiga-trust-m/optiga-trust-m-1/externals/mbedtls/library/aes.c ****     V(93,71,71,E2), V(73,D8,D8,AB), V(53,31,31,62), V(3F,15,15,2A), \
 150://MAC/Home/Downloads/getstarted-optiga-trust-m/optiga-trust-m-1/externals/mbedtls/library/aes.c ****     V(0C,04,04,08), V(52,C7,C7,95), V(65,23,23,46), V(5E,C3,C3,9D), \
 151://MAC/Home/Downloads/getstarted-optiga-trust-m/optiga-trust-m-1/externals/mbedtls/library/aes.c ****     V(28,18,18,30), V(A1,96,96,37), V(0F,05,05,0A), V(B5,9A,9A,2F), \
 152://MAC/Home/Downloads/getstarted-optiga-trust-m/optiga-trust-m-1/externals/mbedtls/library/aes.c ****     V(09,07,07,0E), V(36,12,12,24), V(9B,80,80,1B), V(3D,E2,E2,DF), \
 153://MAC/Home/Downloads/getstarted-optiga-trust-m/optiga-trust-m-1/externals/mbedtls/library/aes.c ****     V(26,EB,EB,CD), V(69,27,27,4E), V(CD,B2,B2,7F), V(9F,75,75,EA), \
 154://MAC/Home/Downloads/getstarted-optiga-trust-m/optiga-trust-m-1/externals/mbedtls/library/aes.c ****     V(1B,09,09,12), V(9E,83,83,1D), V(74,2C,2C,58), V(2E,1A,1A,34), \
 155://MAC/Home/Downloads/getstarted-optiga-trust-m/optiga-trust-m-1/externals/mbedtls/library/aes.c ****     V(2D,1B,1B,36), V(B2,6E,6E,DC), V(EE,5A,5A,B4), V(FB,A0,A0,5B), \
 156://MAC/Home/Downloads/getstarted-optiga-trust-m/optiga-trust-m-1/externals/mbedtls/library/aes.c ****     V(F6,52,52,A4), V(4D,3B,3B,76), V(61,D6,D6,B7), V(CE,B3,B3,7D), \
 157://MAC/Home/Downloads/getstarted-optiga-trust-m/optiga-trust-m-1/externals/mbedtls/library/aes.c ****     V(7B,29,29,52), V(3E,E3,E3,DD), V(71,2F,2F,5E), V(97,84,84,13), \
 158://MAC/Home/Downloads/getstarted-optiga-trust-m/optiga-trust-m-1/externals/mbedtls/library/aes.c ****     V(F5,53,53,A6), V(68,D1,D1,B9), V(00,00,00,00), V(2C,ED,ED,C1), \
 159://MAC/Home/Downloads/getstarted-optiga-trust-m/optiga-trust-m-1/externals/mbedtls/library/aes.c ****     V(60,20,20,40), V(1F,FC,FC,E3), V(C8,B1,B1,79), V(ED,5B,5B,B6), \
 160://MAC/Home/Downloads/getstarted-optiga-trust-m/optiga-trust-m-1/externals/mbedtls/library/aes.c ****     V(BE,6A,6A,D4), V(46,CB,CB,8D), V(D9,BE,BE,67), V(4B,39,39,72), \
 161://MAC/Home/Downloads/getstarted-optiga-trust-m/optiga-trust-m-1/externals/mbedtls/library/aes.c ****     V(DE,4A,4A,94), V(D4,4C,4C,98), V(E8,58,58,B0), V(4A,CF,CF,85), \
 162://MAC/Home/Downloads/getstarted-optiga-trust-m/optiga-trust-m-1/externals/mbedtls/library/aes.c ****     V(6B,D0,D0,BB), V(2A,EF,EF,C5), V(E5,AA,AA,4F), V(16,FB,FB,ED), \
 163://MAC/Home/Downloads/getstarted-optiga-trust-m/optiga-trust-m-1/externals/mbedtls/library/aes.c ****     V(C5,43,43,86), V(D7,4D,4D,9A), V(55,33,33,66), V(94,85,85,11), \
 164://MAC/Home/Downloads/getstarted-optiga-trust-m/optiga-trust-m-1/externals/mbedtls/library/aes.c ****     V(CF,45,45,8A), V(10,F9,F9,E9), V(06,02,02,04), V(81,7F,7F,FE), \
 165://MAC/Home/Downloads/getstarted-optiga-trust-m/optiga-trust-m-1/externals/mbedtls/library/aes.c ****     V(F0,50,50,A0), V(44,3C,3C,78), V(BA,9F,9F,25), V(E3,A8,A8,4B), \
 166://MAC/Home/Downloads/getstarted-optiga-trust-m/optiga-trust-m-1/externals/mbedtls/library/aes.c ****     V(F3,51,51,A2), V(FE,A3,A3,5D), V(C0,40,40,80), V(8A,8F,8F,05), \
 167://MAC/Home/Downloads/getstarted-optiga-trust-m/optiga-trust-m-1/externals/mbedtls/library/aes.c ****     V(AD,92,92,3F), V(BC,9D,9D,21), V(48,38,38,70), V(04,F5,F5,F1), \
 168://MAC/Home/Downloads/getstarted-optiga-trust-m/optiga-trust-m-1/externals/mbedtls/library/aes.c ****     V(DF,BC,BC,63), V(C1,B6,B6,77), V(75,DA,DA,AF), V(63,21,21,42), \
 169://MAC/Home/Downloads/getstarted-optiga-trust-m/optiga-trust-m-1/externals/mbedtls/library/aes.c ****     V(30,10,10,20), V(1A,FF,FF,E5), V(0E,F3,F3,FD), V(6D,D2,D2,BF), \
 170://MAC/Home/Downloads/getstarted-optiga-trust-m/optiga-trust-m-1/externals/mbedtls/library/aes.c ****     V(4C,CD,CD,81), V(14,0C,0C,18), V(35,13,13,26), V(2F,EC,EC,C3), \
 171://MAC/Home/Downloads/getstarted-optiga-trust-m/optiga-trust-m-1/externals/mbedtls/library/aes.c ****     V(E1,5F,5F,BE), V(A2,97,97,35), V(CC,44,44,88), V(39,17,17,2E), \
 172://MAC/Home/Downloads/getstarted-optiga-trust-m/optiga-trust-m-1/externals/mbedtls/library/aes.c ****     V(57,C4,C4,93), V(F2,A7,A7,55), V(82,7E,7E,FC), V(47,3D,3D,7A), \
 173://MAC/Home/Downloads/getstarted-optiga-trust-m/optiga-trust-m-1/externals/mbedtls/library/aes.c ****     V(AC,64,64,C8), V(E7,5D,5D,BA), V(2B,19,19,32), V(95,73,73,E6), \
 174://MAC/Home/Downloads/getstarted-optiga-trust-m/optiga-trust-m-1/externals/mbedtls/library/aes.c ****     V(A0,60,60,C0), V(98,81,81,19), V(D1,4F,4F,9E), V(7F,DC,DC,A3), \
 175://MAC/Home/Downloads/getstarted-optiga-trust-m/optiga-trust-m-1/externals/mbedtls/library/aes.c ****     V(66,22,22,44), V(7E,2A,2A,54), V(AB,90,90,3B), V(83,88,88,0B), \
 176://MAC/Home/Downloads/getstarted-optiga-trust-m/optiga-trust-m-1/externals/mbedtls/library/aes.c ****     V(CA,46,46,8C), V(29,EE,EE,C7), V(D3,B8,B8,6B), V(3C,14,14,28), \
 177://MAC/Home/Downloads/getstarted-optiga-trust-m/optiga-trust-m-1/externals/mbedtls/library/aes.c ****     V(79,DE,DE,A7), V(E2,5E,5E,BC), V(1D,0B,0B,16), V(76,DB,DB,AD), \
 178://MAC/Home/Downloads/getstarted-optiga-trust-m/optiga-trust-m-1/externals/mbedtls/library/aes.c ****     V(3B,E0,E0,DB), V(56,32,32,64), V(4E,3A,3A,74), V(1E,0A,0A,14), \
 179://MAC/Home/Downloads/getstarted-optiga-trust-m/optiga-trust-m-1/externals/mbedtls/library/aes.c ****     V(DB,49,49,92), V(0A,06,06,0C), V(6C,24,24,48), V(E4,5C,5C,B8), \
 180://MAC/Home/Downloads/getstarted-optiga-trust-m/optiga-trust-m-1/externals/mbedtls/library/aes.c ****     V(5D,C2,C2,9F), V(6E,D3,D3,BD), V(EF,AC,AC,43), V(A6,62,62,C4), \
 181://MAC/Home/Downloads/getstarted-optiga-trust-m/optiga-trust-m-1/externals/mbedtls/library/aes.c ****     V(A8,91,91,39), V(A4,95,95,31), V(37,E4,E4,D3), V(8B,79,79,F2), \
 182://MAC/Home/Downloads/getstarted-optiga-trust-m/optiga-trust-m-1/externals/mbedtls/library/aes.c ****     V(32,E7,E7,D5), V(43,C8,C8,8B), V(59,37,37,6E), V(B7,6D,6D,DA), \
 183://MAC/Home/Downloads/getstarted-optiga-trust-m/optiga-trust-m-1/externals/mbedtls/library/aes.c ****     V(8C,8D,8D,01), V(64,D5,D5,B1), V(D2,4E,4E,9C), V(E0,A9,A9,49), \
 184://MAC/Home/Downloads/getstarted-optiga-trust-m/optiga-trust-m-1/externals/mbedtls/library/aes.c ****     V(B4,6C,6C,D8), V(FA,56,56,AC), V(07,F4,F4,F3), V(25,EA,EA,CF), \
 185://MAC/Home/Downloads/getstarted-optiga-trust-m/optiga-trust-m-1/externals/mbedtls/library/aes.c ****     V(AF,65,65,CA), V(8E,7A,7A,F4), V(E9,AE,AE,47), V(18,08,08,10), \
 186://MAC/Home/Downloads/getstarted-optiga-trust-m/optiga-trust-m-1/externals/mbedtls/library/aes.c ****     V(D5,BA,BA,6F), V(88,78,78,F0), V(6F,25,25,4A), V(72,2E,2E,5C), \
 187://MAC/Home/Downloads/getstarted-optiga-trust-m/optiga-trust-m-1/externals/mbedtls/library/aes.c ****     V(24,1C,1C,38), V(F1,A6,A6,57), V(C7,B4,B4,73), V(51,C6,C6,97), \
 188://MAC/Home/Downloads/getstarted-optiga-trust-m/optiga-trust-m-1/externals/mbedtls/library/aes.c ****     V(23,E8,E8,CB), V(7C,DD,DD,A1), V(9C,74,74,E8), V(21,1F,1F,3E), \
 189://MAC/Home/Downloads/getstarted-optiga-trust-m/optiga-trust-m-1/externals/mbedtls/library/aes.c ****     V(DD,4B,4B,96), V(DC,BD,BD,61), V(86,8B,8B,0D), V(85,8A,8A,0F), \
 190://MAC/Home/Downloads/getstarted-optiga-trust-m/optiga-trust-m-1/externals/mbedtls/library/aes.c ****     V(90,70,70,E0), V(42,3E,3E,7C), V(C4,B5,B5,71), V(AA,66,66,CC), \
 191://MAC/Home/Downloads/getstarted-optiga-trust-m/optiga-trust-m-1/externals/mbedtls/library/aes.c ****     V(D8,48,48,90), V(05,03,03,06), V(01,F6,F6,F7), V(12,0E,0E,1C), \
 192://MAC/Home/Downloads/getstarted-optiga-trust-m/optiga-trust-m-1/externals/mbedtls/library/aes.c ****     V(A3,61,61,C2), V(5F,35,35,6A), V(F9,57,57,AE), V(D0,B9,B9,69), \
 193://MAC/Home/Downloads/getstarted-optiga-trust-m/optiga-trust-m-1/externals/mbedtls/library/aes.c ****     V(91,86,86,17), V(58,C1,C1,99), V(27,1D,1D,3A), V(B9,9E,9E,27), \
 194://MAC/Home/Downloads/getstarted-optiga-trust-m/optiga-trust-m-1/externals/mbedtls/library/aes.c ****     V(38,E1,E1,D9), V(13,F8,F8,EB), V(B3,98,98,2B), V(33,11,11,22), \
 195://MAC/Home/Downloads/getstarted-optiga-trust-m/optiga-trust-m-1/externals/mbedtls/library/aes.c ****     V(BB,69,69,D2), V(70,D9,D9,A9), V(89,8E,8E,07), V(A7,94,94,33), \
 196://MAC/Home/Downloads/getstarted-optiga-trust-m/optiga-trust-m-1/externals/mbedtls/library/aes.c ****     V(B6,9B,9B,2D), V(22,1E,1E,3C), V(92,87,87,15), V(20,E9,E9,C9), \
 197://MAC/Home/Downloads/getstarted-optiga-trust-m/optiga-trust-m-1/externals/mbedtls/library/aes.c ****     V(49,CE,CE,87), V(FF,55,55,AA), V(78,28,28,50), V(7A,DF,DF,A5), \
 198://MAC/Home/Downloads/getstarted-optiga-trust-m/optiga-trust-m-1/externals/mbedtls/library/aes.c ****     V(8F,8C,8C,03), V(F8,A1,A1,59), V(80,89,89,09), V(17,0D,0D,1A), \
 199://MAC/Home/Downloads/getstarted-optiga-trust-m/optiga-trust-m-1/externals/mbedtls/library/aes.c ****     V(DA,BF,BF,65), V(31,E6,E6,D7), V(C6,42,42,84), V(B8,68,68,D0), \
 200://MAC/Home/Downloads/getstarted-optiga-trust-m/optiga-trust-m-1/externals/mbedtls/library/aes.c ****     V(C3,41,41,82), V(B0,99,99,29), V(77,2D,2D,5A), V(11,0F,0F,1E), \
 201://MAC/Home/Downloads/getstarted-optiga-trust-m/optiga-trust-m-1/externals/mbedtls/library/aes.c ****     V(CB,B0,B0,7B), V(FC,54,54,A8), V(D6,BB,BB,6D), V(3A,16,16,2C)
 202://MAC/Home/Downloads/getstarted-optiga-trust-m/optiga-trust-m-1/externals/mbedtls/library/aes.c **** 
 203://MAC/Home/Downloads/getstarted-optiga-trust-m/optiga-trust-m-1/externals/mbedtls/library/aes.c **** #define V(a,b,c,d) 0x##a##b##c##d
 204://MAC/Home/Downloads/getstarted-optiga-trust-m/optiga-trust-m-1/externals/mbedtls/library/aes.c **** static const uint32_t FT0[256] = { FT };
 205://MAC/Home/Downloads/getstarted-optiga-trust-m/optiga-trust-m-1/externals/mbedtls/library/aes.c **** #undef V
 206://MAC/Home/Downloads/getstarted-optiga-trust-m/optiga-trust-m-1/externals/mbedtls/library/aes.c **** 
 207://MAC/Home/Downloads/getstarted-optiga-trust-m/optiga-trust-m-1/externals/mbedtls/library/aes.c **** #if !defined(MBEDTLS_AES_FEWER_TABLES)
 208://MAC/Home/Downloads/getstarted-optiga-trust-m/optiga-trust-m-1/externals/mbedtls/library/aes.c **** 
 209://MAC/Home/Downloads/getstarted-optiga-trust-m/optiga-trust-m-1/externals/mbedtls/library/aes.c **** #define V(a,b,c,d) 0x##b##c##d##a
 210://MAC/Home/Downloads/getstarted-optiga-trust-m/optiga-trust-m-1/externals/mbedtls/library/aes.c **** static const uint32_t FT1[256] = { FT };
 211://MAC/Home/Downloads/getstarted-optiga-trust-m/optiga-trust-m-1/externals/mbedtls/library/aes.c **** #undef V
 212://MAC/Home/Downloads/getstarted-optiga-trust-m/optiga-trust-m-1/externals/mbedtls/library/aes.c **** 
 213://MAC/Home/Downloads/getstarted-optiga-trust-m/optiga-trust-m-1/externals/mbedtls/library/aes.c **** #define V(a,b,c,d) 0x##c##d##a##b
 214://MAC/Home/Downloads/getstarted-optiga-trust-m/optiga-trust-m-1/externals/mbedtls/library/aes.c **** static const uint32_t FT2[256] = { FT };
 215://MAC/Home/Downloads/getstarted-optiga-trust-m/optiga-trust-m-1/externals/mbedtls/library/aes.c **** #undef V
 216://MAC/Home/Downloads/getstarted-optiga-trust-m/optiga-trust-m-1/externals/mbedtls/library/aes.c **** 
 217://MAC/Home/Downloads/getstarted-optiga-trust-m/optiga-trust-m-1/externals/mbedtls/library/aes.c **** #define V(a,b,c,d) 0x##d##a##b##c
 218://MAC/Home/Downloads/getstarted-optiga-trust-m/optiga-trust-m-1/externals/mbedtls/library/aes.c **** static const uint32_t FT3[256] = { FT };
 219://MAC/Home/Downloads/getstarted-optiga-trust-m/optiga-trust-m-1/externals/mbedtls/library/aes.c **** #undef V
 220://MAC/Home/Downloads/getstarted-optiga-trust-m/optiga-trust-m-1/externals/mbedtls/library/aes.c **** 
 221://MAC/Home/Downloads/getstarted-optiga-trust-m/optiga-trust-m-1/externals/mbedtls/library/aes.c **** #endif /* !MBEDTLS_AES_FEWER_TABLES */
 222://MAC/Home/Downloads/getstarted-optiga-trust-m/optiga-trust-m-1/externals/mbedtls/library/aes.c **** 
 223://MAC/Home/Downloads/getstarted-optiga-trust-m/optiga-trust-m-1/externals/mbedtls/library/aes.c **** #undef FT
 224://MAC/Home/Downloads/getstarted-optiga-trust-m/optiga-trust-m-1/externals/mbedtls/library/aes.c **** 
 225://MAC/Home/Downloads/getstarted-optiga-trust-m/optiga-trust-m-1/externals/mbedtls/library/aes.c **** /*
 226://MAC/Home/Downloads/getstarted-optiga-trust-m/optiga-trust-m-1/externals/mbedtls/library/aes.c ****  * Reverse S-box
 227://MAC/Home/Downloads/getstarted-optiga-trust-m/optiga-trust-m-1/externals/mbedtls/library/aes.c ****  */
 228://MAC/Home/Downloads/getstarted-optiga-trust-m/optiga-trust-m-1/externals/mbedtls/library/aes.c **** static const unsigned char RSb[256] =
 229://MAC/Home/Downloads/getstarted-optiga-trust-m/optiga-trust-m-1/externals/mbedtls/library/aes.c **** {
 230://MAC/Home/Downloads/getstarted-optiga-trust-m/optiga-trust-m-1/externals/mbedtls/library/aes.c ****     0x52, 0x09, 0x6A, 0xD5, 0x30, 0x36, 0xA5, 0x38,
 231://MAC/Home/Downloads/getstarted-optiga-trust-m/optiga-trust-m-1/externals/mbedtls/library/aes.c ****     0xBF, 0x40, 0xA3, 0x9E, 0x81, 0xF3, 0xD7, 0xFB,
 232://MAC/Home/Downloads/getstarted-optiga-trust-m/optiga-trust-m-1/externals/mbedtls/library/aes.c ****     0x7C, 0xE3, 0x39, 0x82, 0x9B, 0x2F, 0xFF, 0x87,
 233://MAC/Home/Downloads/getstarted-optiga-trust-m/optiga-trust-m-1/externals/mbedtls/library/aes.c ****     0x34, 0x8E, 0x43, 0x44, 0xC4, 0xDE, 0xE9, 0xCB,
 234://MAC/Home/Downloads/getstarted-optiga-trust-m/optiga-trust-m-1/externals/mbedtls/library/aes.c ****     0x54, 0x7B, 0x94, 0x32, 0xA6, 0xC2, 0x23, 0x3D,
 235://MAC/Home/Downloads/getstarted-optiga-trust-m/optiga-trust-m-1/externals/mbedtls/library/aes.c ****     0xEE, 0x4C, 0x95, 0x0B, 0x42, 0xFA, 0xC3, 0x4E,
 236://MAC/Home/Downloads/getstarted-optiga-trust-m/optiga-trust-m-1/externals/mbedtls/library/aes.c ****     0x08, 0x2E, 0xA1, 0x66, 0x28, 0xD9, 0x24, 0xB2,
 237://MAC/Home/Downloads/getstarted-optiga-trust-m/optiga-trust-m-1/externals/mbedtls/library/aes.c ****     0x76, 0x5B, 0xA2, 0x49, 0x6D, 0x8B, 0xD1, 0x25,
 238://MAC/Home/Downloads/getstarted-optiga-trust-m/optiga-trust-m-1/externals/mbedtls/library/aes.c ****     0x72, 0xF8, 0xF6, 0x64, 0x86, 0x68, 0x98, 0x16,
 239://MAC/Home/Downloads/getstarted-optiga-trust-m/optiga-trust-m-1/externals/mbedtls/library/aes.c ****     0xD4, 0xA4, 0x5C, 0xCC, 0x5D, 0x65, 0xB6, 0x92,
 240://MAC/Home/Downloads/getstarted-optiga-trust-m/optiga-trust-m-1/externals/mbedtls/library/aes.c ****     0x6C, 0x70, 0x48, 0x50, 0xFD, 0xED, 0xB9, 0xDA,
 241://MAC/Home/Downloads/getstarted-optiga-trust-m/optiga-trust-m-1/externals/mbedtls/library/aes.c ****     0x5E, 0x15, 0x46, 0x57, 0xA7, 0x8D, 0x9D, 0x84,
 242://MAC/Home/Downloads/getstarted-optiga-trust-m/optiga-trust-m-1/externals/mbedtls/library/aes.c ****     0x90, 0xD8, 0xAB, 0x00, 0x8C, 0xBC, 0xD3, 0x0A,
 243://MAC/Home/Downloads/getstarted-optiga-trust-m/optiga-trust-m-1/externals/mbedtls/library/aes.c ****     0xF7, 0xE4, 0x58, 0x05, 0xB8, 0xB3, 0x45, 0x06,
 244://MAC/Home/Downloads/getstarted-optiga-trust-m/optiga-trust-m-1/externals/mbedtls/library/aes.c ****     0xD0, 0x2C, 0x1E, 0x8F, 0xCA, 0x3F, 0x0F, 0x02,
 245://MAC/Home/Downloads/getstarted-optiga-trust-m/optiga-trust-m-1/externals/mbedtls/library/aes.c ****     0xC1, 0xAF, 0xBD, 0x03, 0x01, 0x13, 0x8A, 0x6B,
 246://MAC/Home/Downloads/getstarted-optiga-trust-m/optiga-trust-m-1/externals/mbedtls/library/aes.c ****     0x3A, 0x91, 0x11, 0x41, 0x4F, 0x67, 0xDC, 0xEA,
 247://MAC/Home/Downloads/getstarted-optiga-trust-m/optiga-trust-m-1/externals/mbedtls/library/aes.c ****     0x97, 0xF2, 0xCF, 0xCE, 0xF0, 0xB4, 0xE6, 0x73,
 248://MAC/Home/Downloads/getstarted-optiga-trust-m/optiga-trust-m-1/externals/mbedtls/library/aes.c ****     0x96, 0xAC, 0x74, 0x22, 0xE7, 0xAD, 0x35, 0x85,
 249://MAC/Home/Downloads/getstarted-optiga-trust-m/optiga-trust-m-1/externals/mbedtls/library/aes.c ****     0xE2, 0xF9, 0x37, 0xE8, 0x1C, 0x75, 0xDF, 0x6E,
 250://MAC/Home/Downloads/getstarted-optiga-trust-m/optiga-trust-m-1/externals/mbedtls/library/aes.c ****     0x47, 0xF1, 0x1A, 0x71, 0x1D, 0x29, 0xC5, 0x89,
 251://MAC/Home/Downloads/getstarted-optiga-trust-m/optiga-trust-m-1/externals/mbedtls/library/aes.c ****     0x6F, 0xB7, 0x62, 0x0E, 0xAA, 0x18, 0xBE, 0x1B,
 252://MAC/Home/Downloads/getstarted-optiga-trust-m/optiga-trust-m-1/externals/mbedtls/library/aes.c ****     0xFC, 0x56, 0x3E, 0x4B, 0xC6, 0xD2, 0x79, 0x20,
 253://MAC/Home/Downloads/getstarted-optiga-trust-m/optiga-trust-m-1/externals/mbedtls/library/aes.c ****     0x9A, 0xDB, 0xC0, 0xFE, 0x78, 0xCD, 0x5A, 0xF4,
 254://MAC/Home/Downloads/getstarted-optiga-trust-m/optiga-trust-m-1/externals/mbedtls/library/aes.c ****     0x1F, 0xDD, 0xA8, 0x33, 0x88, 0x07, 0xC7, 0x31,
 255://MAC/Home/Downloads/getstarted-optiga-trust-m/optiga-trust-m-1/externals/mbedtls/library/aes.c ****     0xB1, 0x12, 0x10, 0x59, 0x27, 0x80, 0xEC, 0x5F,
 256://MAC/Home/Downloads/getstarted-optiga-trust-m/optiga-trust-m-1/externals/mbedtls/library/aes.c ****     0x60, 0x51, 0x7F, 0xA9, 0x19, 0xB5, 0x4A, 0x0D,
 257://MAC/Home/Downloads/getstarted-optiga-trust-m/optiga-trust-m-1/externals/mbedtls/library/aes.c ****     0x2D, 0xE5, 0x7A, 0x9F, 0x93, 0xC9, 0x9C, 0xEF,
 258://MAC/Home/Downloads/getstarted-optiga-trust-m/optiga-trust-m-1/externals/mbedtls/library/aes.c ****     0xA0, 0xE0, 0x3B, 0x4D, 0xAE, 0x2A, 0xF5, 0xB0,
 259://MAC/Home/Downloads/getstarted-optiga-trust-m/optiga-trust-m-1/externals/mbedtls/library/aes.c ****     0xC8, 0xEB, 0xBB, 0x3C, 0x83, 0x53, 0x99, 0x61,
 260://MAC/Home/Downloads/getstarted-optiga-trust-m/optiga-trust-m-1/externals/mbedtls/library/aes.c ****     0x17, 0x2B, 0x04, 0x7E, 0xBA, 0x77, 0xD6, 0x26,
 261://MAC/Home/Downloads/getstarted-optiga-trust-m/optiga-trust-m-1/externals/mbedtls/library/aes.c ****     0xE1, 0x69, 0x14, 0x63, 0x55, 0x21, 0x0C, 0x7D
 262://MAC/Home/Downloads/getstarted-optiga-trust-m/optiga-trust-m-1/externals/mbedtls/library/aes.c **** };
 263://MAC/Home/Downloads/getstarted-optiga-trust-m/optiga-trust-m-1/externals/mbedtls/library/aes.c **** 
 264://MAC/Home/Downloads/getstarted-optiga-trust-m/optiga-trust-m-1/externals/mbedtls/library/aes.c **** /*
 265://MAC/Home/Downloads/getstarted-optiga-trust-m/optiga-trust-m-1/externals/mbedtls/library/aes.c ****  * Reverse tables
 266://MAC/Home/Downloads/getstarted-optiga-trust-m/optiga-trust-m-1/externals/mbedtls/library/aes.c ****  */
 267://MAC/Home/Downloads/getstarted-optiga-trust-m/optiga-trust-m-1/externals/mbedtls/library/aes.c **** #define RT \
 268://MAC/Home/Downloads/getstarted-optiga-trust-m/optiga-trust-m-1/externals/mbedtls/library/aes.c **** \
 269://MAC/Home/Downloads/getstarted-optiga-trust-m/optiga-trust-m-1/externals/mbedtls/library/aes.c ****     V(50,A7,F4,51), V(53,65,41,7E), V(C3,A4,17,1A), V(96,5E,27,3A), \
 270://MAC/Home/Downloads/getstarted-optiga-trust-m/optiga-trust-m-1/externals/mbedtls/library/aes.c ****     V(CB,6B,AB,3B), V(F1,45,9D,1F), V(AB,58,FA,AC), V(93,03,E3,4B), \
 271://MAC/Home/Downloads/getstarted-optiga-trust-m/optiga-trust-m-1/externals/mbedtls/library/aes.c ****     V(55,FA,30,20), V(F6,6D,76,AD), V(91,76,CC,88), V(25,4C,02,F5), \
 272://MAC/Home/Downloads/getstarted-optiga-trust-m/optiga-trust-m-1/externals/mbedtls/library/aes.c ****     V(FC,D7,E5,4F), V(D7,CB,2A,C5), V(80,44,35,26), V(8F,A3,62,B5), \
 273://MAC/Home/Downloads/getstarted-optiga-trust-m/optiga-trust-m-1/externals/mbedtls/library/aes.c ****     V(49,5A,B1,DE), V(67,1B,BA,25), V(98,0E,EA,45), V(E1,C0,FE,5D), \
 274://MAC/Home/Downloads/getstarted-optiga-trust-m/optiga-trust-m-1/externals/mbedtls/library/aes.c ****     V(02,75,2F,C3), V(12,F0,4C,81), V(A3,97,46,8D), V(C6,F9,D3,6B), \
 275://MAC/Home/Downloads/getstarted-optiga-trust-m/optiga-trust-m-1/externals/mbedtls/library/aes.c ****     V(E7,5F,8F,03), V(95,9C,92,15), V(EB,7A,6D,BF), V(DA,59,52,95), \
 276://MAC/Home/Downloads/getstarted-optiga-trust-m/optiga-trust-m-1/externals/mbedtls/library/aes.c ****     V(2D,83,BE,D4), V(D3,21,74,58), V(29,69,E0,49), V(44,C8,C9,8E), \
 277://MAC/Home/Downloads/getstarted-optiga-trust-m/optiga-trust-m-1/externals/mbedtls/library/aes.c ****     V(6A,89,C2,75), V(78,79,8E,F4), V(6B,3E,58,99), V(DD,71,B9,27), \
 278://MAC/Home/Downloads/getstarted-optiga-trust-m/optiga-trust-m-1/externals/mbedtls/library/aes.c ****     V(B6,4F,E1,BE), V(17,AD,88,F0), V(66,AC,20,C9), V(B4,3A,CE,7D), \
 279://MAC/Home/Downloads/getstarted-optiga-trust-m/optiga-trust-m-1/externals/mbedtls/library/aes.c ****     V(18,4A,DF,63), V(82,31,1A,E5), V(60,33,51,97), V(45,7F,53,62), \
 280://MAC/Home/Downloads/getstarted-optiga-trust-m/optiga-trust-m-1/externals/mbedtls/library/aes.c ****     V(E0,77,64,B1), V(84,AE,6B,BB), V(1C,A0,81,FE), V(94,2B,08,F9), \
 281://MAC/Home/Downloads/getstarted-optiga-trust-m/optiga-trust-m-1/externals/mbedtls/library/aes.c ****     V(58,68,48,70), V(19,FD,45,8F), V(87,6C,DE,94), V(B7,F8,7B,52), \
 282://MAC/Home/Downloads/getstarted-optiga-trust-m/optiga-trust-m-1/externals/mbedtls/library/aes.c ****     V(23,D3,73,AB), V(E2,02,4B,72), V(57,8F,1F,E3), V(2A,AB,55,66), \
 283://MAC/Home/Downloads/getstarted-optiga-trust-m/optiga-trust-m-1/externals/mbedtls/library/aes.c ****     V(07,28,EB,B2), V(03,C2,B5,2F), V(9A,7B,C5,86), V(A5,08,37,D3), \
 284://MAC/Home/Downloads/getstarted-optiga-trust-m/optiga-trust-m-1/externals/mbedtls/library/aes.c ****     V(F2,87,28,30), V(B2,A5,BF,23), V(BA,6A,03,02), V(5C,82,16,ED), \
 285://MAC/Home/Downloads/getstarted-optiga-trust-m/optiga-trust-m-1/externals/mbedtls/library/aes.c ****     V(2B,1C,CF,8A), V(92,B4,79,A7), V(F0,F2,07,F3), V(A1,E2,69,4E), \
 286://MAC/Home/Downloads/getstarted-optiga-trust-m/optiga-trust-m-1/externals/mbedtls/library/aes.c ****     V(CD,F4,DA,65), V(D5,BE,05,06), V(1F,62,34,D1), V(8A,FE,A6,C4), \
 287://MAC/Home/Downloads/getstarted-optiga-trust-m/optiga-trust-m-1/externals/mbedtls/library/aes.c ****     V(9D,53,2E,34), V(A0,55,F3,A2), V(32,E1,8A,05), V(75,EB,F6,A4), \
 288://MAC/Home/Downloads/getstarted-optiga-trust-m/optiga-trust-m-1/externals/mbedtls/library/aes.c ****     V(39,EC,83,0B), V(AA,EF,60,40), V(06,9F,71,5E), V(51,10,6E,BD), \
 289://MAC/Home/Downloads/getstarted-optiga-trust-m/optiga-trust-m-1/externals/mbedtls/library/aes.c ****     V(F9,8A,21,3E), V(3D,06,DD,96), V(AE,05,3E,DD), V(46,BD,E6,4D), \
 290://MAC/Home/Downloads/getstarted-optiga-trust-m/optiga-trust-m-1/externals/mbedtls/library/aes.c ****     V(B5,8D,54,91), V(05,5D,C4,71), V(6F,D4,06,04), V(FF,15,50,60), \
 291://MAC/Home/Downloads/getstarted-optiga-trust-m/optiga-trust-m-1/externals/mbedtls/library/aes.c ****     V(24,FB,98,19), V(97,E9,BD,D6), V(CC,43,40,89), V(77,9E,D9,67), \
 292://MAC/Home/Downloads/getstarted-optiga-trust-m/optiga-trust-m-1/externals/mbedtls/library/aes.c ****     V(BD,42,E8,B0), V(88,8B,89,07), V(38,5B,19,E7), V(DB,EE,C8,79), \
 293://MAC/Home/Downloads/getstarted-optiga-trust-m/optiga-trust-m-1/externals/mbedtls/library/aes.c ****     V(47,0A,7C,A1), V(E9,0F,42,7C), V(C9,1E,84,F8), V(00,00,00,00), \
 294://MAC/Home/Downloads/getstarted-optiga-trust-m/optiga-trust-m-1/externals/mbedtls/library/aes.c ****     V(83,86,80,09), V(48,ED,2B,32), V(AC,70,11,1E), V(4E,72,5A,6C), \
 295://MAC/Home/Downloads/getstarted-optiga-trust-m/optiga-trust-m-1/externals/mbedtls/library/aes.c ****     V(FB,FF,0E,FD), V(56,38,85,0F), V(1E,D5,AE,3D), V(27,39,2D,36), \
 296://MAC/Home/Downloads/getstarted-optiga-trust-m/optiga-trust-m-1/externals/mbedtls/library/aes.c ****     V(64,D9,0F,0A), V(21,A6,5C,68), V(D1,54,5B,9B), V(3A,2E,36,24), \
 297://MAC/Home/Downloads/getstarted-optiga-trust-m/optiga-trust-m-1/externals/mbedtls/library/aes.c ****     V(B1,67,0A,0C), V(0F,E7,57,93), V(D2,96,EE,B4), V(9E,91,9B,1B), \
 298://MAC/Home/Downloads/getstarted-optiga-trust-m/optiga-trust-m-1/externals/mbedtls/library/aes.c ****     V(4F,C5,C0,80), V(A2,20,DC,61), V(69,4B,77,5A), V(16,1A,12,1C), \
 299://MAC/Home/Downloads/getstarted-optiga-trust-m/optiga-trust-m-1/externals/mbedtls/library/aes.c ****     V(0A,BA,93,E2), V(E5,2A,A0,C0), V(43,E0,22,3C), V(1D,17,1B,12), \
 300://MAC/Home/Downloads/getstarted-optiga-trust-m/optiga-trust-m-1/externals/mbedtls/library/aes.c ****     V(0B,0D,09,0E), V(AD,C7,8B,F2), V(B9,A8,B6,2D), V(C8,A9,1E,14), \
 301://MAC/Home/Downloads/getstarted-optiga-trust-m/optiga-trust-m-1/externals/mbedtls/library/aes.c ****     V(85,19,F1,57), V(4C,07,75,AF), V(BB,DD,99,EE), V(FD,60,7F,A3), \
 302://MAC/Home/Downloads/getstarted-optiga-trust-m/optiga-trust-m-1/externals/mbedtls/library/aes.c ****     V(9F,26,01,F7), V(BC,F5,72,5C), V(C5,3B,66,44), V(34,7E,FB,5B), \
 303://MAC/Home/Downloads/getstarted-optiga-trust-m/optiga-trust-m-1/externals/mbedtls/library/aes.c ****     V(76,29,43,8B), V(DC,C6,23,CB), V(68,FC,ED,B6), V(63,F1,E4,B8), \
 304://MAC/Home/Downloads/getstarted-optiga-trust-m/optiga-trust-m-1/externals/mbedtls/library/aes.c ****     V(CA,DC,31,D7), V(10,85,63,42), V(40,22,97,13), V(20,11,C6,84), \
 305://MAC/Home/Downloads/getstarted-optiga-trust-m/optiga-trust-m-1/externals/mbedtls/library/aes.c ****     V(7D,24,4A,85), V(F8,3D,BB,D2), V(11,32,F9,AE), V(6D,A1,29,C7), \
 306://MAC/Home/Downloads/getstarted-optiga-trust-m/optiga-trust-m-1/externals/mbedtls/library/aes.c ****     V(4B,2F,9E,1D), V(F3,30,B2,DC), V(EC,52,86,0D), V(D0,E3,C1,77), \
 307://MAC/Home/Downloads/getstarted-optiga-trust-m/optiga-trust-m-1/externals/mbedtls/library/aes.c ****     V(6C,16,B3,2B), V(99,B9,70,A9), V(FA,48,94,11), V(22,64,E9,47), \
 308://MAC/Home/Downloads/getstarted-optiga-trust-m/optiga-trust-m-1/externals/mbedtls/library/aes.c ****     V(C4,8C,FC,A8), V(1A,3F,F0,A0), V(D8,2C,7D,56), V(EF,90,33,22), \
 309://MAC/Home/Downloads/getstarted-optiga-trust-m/optiga-trust-m-1/externals/mbedtls/library/aes.c ****     V(C7,4E,49,87), V(C1,D1,38,D9), V(FE,A2,CA,8C), V(36,0B,D4,98), \
 310://MAC/Home/Downloads/getstarted-optiga-trust-m/optiga-trust-m-1/externals/mbedtls/library/aes.c ****     V(CF,81,F5,A6), V(28,DE,7A,A5), V(26,8E,B7,DA), V(A4,BF,AD,3F), \
 311://MAC/Home/Downloads/getstarted-optiga-trust-m/optiga-trust-m-1/externals/mbedtls/library/aes.c ****     V(E4,9D,3A,2C), V(0D,92,78,50), V(9B,CC,5F,6A), V(62,46,7E,54), \
 312://MAC/Home/Downloads/getstarted-optiga-trust-m/optiga-trust-m-1/externals/mbedtls/library/aes.c ****     V(C2,13,8D,F6), V(E8,B8,D8,90), V(5E,F7,39,2E), V(F5,AF,C3,82), \
 313://MAC/Home/Downloads/getstarted-optiga-trust-m/optiga-trust-m-1/externals/mbedtls/library/aes.c ****     V(BE,80,5D,9F), V(7C,93,D0,69), V(A9,2D,D5,6F), V(B3,12,25,CF), \
 314://MAC/Home/Downloads/getstarted-optiga-trust-m/optiga-trust-m-1/externals/mbedtls/library/aes.c ****     V(3B,99,AC,C8), V(A7,7D,18,10), V(6E,63,9C,E8), V(7B,BB,3B,DB), \
 315://MAC/Home/Downloads/getstarted-optiga-trust-m/optiga-trust-m-1/externals/mbedtls/library/aes.c ****     V(09,78,26,CD), V(F4,18,59,6E), V(01,B7,9A,EC), V(A8,9A,4F,83), \
 316://MAC/Home/Downloads/getstarted-optiga-trust-m/optiga-trust-m-1/externals/mbedtls/library/aes.c ****     V(65,6E,95,E6), V(7E,E6,FF,AA), V(08,CF,BC,21), V(E6,E8,15,EF), \
 317://MAC/Home/Downloads/getstarted-optiga-trust-m/optiga-trust-m-1/externals/mbedtls/library/aes.c ****     V(D9,9B,E7,BA), V(CE,36,6F,4A), V(D4,09,9F,EA), V(D6,7C,B0,29), \
 318://MAC/Home/Downloads/getstarted-optiga-trust-m/optiga-trust-m-1/externals/mbedtls/library/aes.c ****     V(AF,B2,A4,31), V(31,23,3F,2A), V(30,94,A5,C6), V(C0,66,A2,35), \
 319://MAC/Home/Downloads/getstarted-optiga-trust-m/optiga-trust-m-1/externals/mbedtls/library/aes.c ****     V(37,BC,4E,74), V(A6,CA,82,FC), V(B0,D0,90,E0), V(15,D8,A7,33), \
 320://MAC/Home/Downloads/getstarted-optiga-trust-m/optiga-trust-m-1/externals/mbedtls/library/aes.c ****     V(4A,98,04,F1), V(F7,DA,EC,41), V(0E,50,CD,7F), V(2F,F6,91,17), \
 321://MAC/Home/Downloads/getstarted-optiga-trust-m/optiga-trust-m-1/externals/mbedtls/library/aes.c ****     V(8D,D6,4D,76), V(4D,B0,EF,43), V(54,4D,AA,CC), V(DF,04,96,E4), \
 322://MAC/Home/Downloads/getstarted-optiga-trust-m/optiga-trust-m-1/externals/mbedtls/library/aes.c ****     V(E3,B5,D1,9E), V(1B,88,6A,4C), V(B8,1F,2C,C1), V(7F,51,65,46), \
 323://MAC/Home/Downloads/getstarted-optiga-trust-m/optiga-trust-m-1/externals/mbedtls/library/aes.c ****     V(04,EA,5E,9D), V(5D,35,8C,01), V(73,74,87,FA), V(2E,41,0B,FB), \
 324://MAC/Home/Downloads/getstarted-optiga-trust-m/optiga-trust-m-1/externals/mbedtls/library/aes.c ****     V(5A,1D,67,B3), V(52,D2,DB,92), V(33,56,10,E9), V(13,47,D6,6D), \
 325://MAC/Home/Downloads/getstarted-optiga-trust-m/optiga-trust-m-1/externals/mbedtls/library/aes.c ****     V(8C,61,D7,9A), V(7A,0C,A1,37), V(8E,14,F8,59), V(89,3C,13,EB), \
 326://MAC/Home/Downloads/getstarted-optiga-trust-m/optiga-trust-m-1/externals/mbedtls/library/aes.c ****     V(EE,27,A9,CE), V(35,C9,61,B7), V(ED,E5,1C,E1), V(3C,B1,47,7A), \
 327://MAC/Home/Downloads/getstarted-optiga-trust-m/optiga-trust-m-1/externals/mbedtls/library/aes.c ****     V(59,DF,D2,9C), V(3F,73,F2,55), V(79,CE,14,18), V(BF,37,C7,73), \
 328://MAC/Home/Downloads/getstarted-optiga-trust-m/optiga-trust-m-1/externals/mbedtls/library/aes.c ****     V(EA,CD,F7,53), V(5B,AA,FD,5F), V(14,6F,3D,DF), V(86,DB,44,78), \
 329://MAC/Home/Downloads/getstarted-optiga-trust-m/optiga-trust-m-1/externals/mbedtls/library/aes.c ****     V(81,F3,AF,CA), V(3E,C4,68,B9), V(2C,34,24,38), V(5F,40,A3,C2), \
 330://MAC/Home/Downloads/getstarted-optiga-trust-m/optiga-trust-m-1/externals/mbedtls/library/aes.c ****     V(72,C3,1D,16), V(0C,25,E2,BC), V(8B,49,3C,28), V(41,95,0D,FF), \
 331://MAC/Home/Downloads/getstarted-optiga-trust-m/optiga-trust-m-1/externals/mbedtls/library/aes.c ****     V(71,01,A8,39), V(DE,B3,0C,08), V(9C,E4,B4,D8), V(90,C1,56,64), \
 332://MAC/Home/Downloads/getstarted-optiga-trust-m/optiga-trust-m-1/externals/mbedtls/library/aes.c ****     V(61,84,CB,7B), V(70,B6,32,D5), V(74,5C,6C,48), V(42,57,B8,D0)
 333://MAC/Home/Downloads/getstarted-optiga-trust-m/optiga-trust-m-1/externals/mbedtls/library/aes.c **** 
 334://MAC/Home/Downloads/getstarted-optiga-trust-m/optiga-trust-m-1/externals/mbedtls/library/aes.c **** #define V(a,b,c,d) 0x##a##b##c##d
 335://MAC/Home/Downloads/getstarted-optiga-trust-m/optiga-trust-m-1/externals/mbedtls/library/aes.c **** static const uint32_t RT0[256] = { RT };
 336://MAC/Home/Downloads/getstarted-optiga-trust-m/optiga-trust-m-1/externals/mbedtls/library/aes.c **** #undef V
 337://MAC/Home/Downloads/getstarted-optiga-trust-m/optiga-trust-m-1/externals/mbedtls/library/aes.c **** 
 338://MAC/Home/Downloads/getstarted-optiga-trust-m/optiga-trust-m-1/externals/mbedtls/library/aes.c **** #if !defined(MBEDTLS_AES_FEWER_TABLES)
 339://MAC/Home/Downloads/getstarted-optiga-trust-m/optiga-trust-m-1/externals/mbedtls/library/aes.c **** 
 340://MAC/Home/Downloads/getstarted-optiga-trust-m/optiga-trust-m-1/externals/mbedtls/library/aes.c **** #define V(a,b,c,d) 0x##b##c##d##a
 341://MAC/Home/Downloads/getstarted-optiga-trust-m/optiga-trust-m-1/externals/mbedtls/library/aes.c **** static const uint32_t RT1[256] = { RT };
 342://MAC/Home/Downloads/getstarted-optiga-trust-m/optiga-trust-m-1/externals/mbedtls/library/aes.c **** #undef V
 343://MAC/Home/Downloads/getstarted-optiga-trust-m/optiga-trust-m-1/externals/mbedtls/library/aes.c **** 
 344://MAC/Home/Downloads/getstarted-optiga-trust-m/optiga-trust-m-1/externals/mbedtls/library/aes.c **** #define V(a,b,c,d) 0x##c##d##a##b
 345://MAC/Home/Downloads/getstarted-optiga-trust-m/optiga-trust-m-1/externals/mbedtls/library/aes.c **** static const uint32_t RT2[256] = { RT };
 346://MAC/Home/Downloads/getstarted-optiga-trust-m/optiga-trust-m-1/externals/mbedtls/library/aes.c **** #undef V
 347://MAC/Home/Downloads/getstarted-optiga-trust-m/optiga-trust-m-1/externals/mbedtls/library/aes.c **** 
 348://MAC/Home/Downloads/getstarted-optiga-trust-m/optiga-trust-m-1/externals/mbedtls/library/aes.c **** #define V(a,b,c,d) 0x##d##a##b##c
 349://MAC/Home/Downloads/getstarted-optiga-trust-m/optiga-trust-m-1/externals/mbedtls/library/aes.c **** static const uint32_t RT3[256] = { RT };
 350://MAC/Home/Downloads/getstarted-optiga-trust-m/optiga-trust-m-1/externals/mbedtls/library/aes.c **** #undef V
 351://MAC/Home/Downloads/getstarted-optiga-trust-m/optiga-trust-m-1/externals/mbedtls/library/aes.c **** 
 352://MAC/Home/Downloads/getstarted-optiga-trust-m/optiga-trust-m-1/externals/mbedtls/library/aes.c **** #endif /* !MBEDTLS_AES_FEWER_TABLES */
 353://MAC/Home/Downloads/getstarted-optiga-trust-m/optiga-trust-m-1/externals/mbedtls/library/aes.c **** 
 354://MAC/Home/Downloads/getstarted-optiga-trust-m/optiga-trust-m-1/externals/mbedtls/library/aes.c **** #undef RT
 355://MAC/Home/Downloads/getstarted-optiga-trust-m/optiga-trust-m-1/externals/mbedtls/library/aes.c **** 
 356://MAC/Home/Downloads/getstarted-optiga-trust-m/optiga-trust-m-1/externals/mbedtls/library/aes.c **** /*
 357://MAC/Home/Downloads/getstarted-optiga-trust-m/optiga-trust-m-1/externals/mbedtls/library/aes.c ****  * Round constants
 358://MAC/Home/Downloads/getstarted-optiga-trust-m/optiga-trust-m-1/externals/mbedtls/library/aes.c ****  */
 359://MAC/Home/Downloads/getstarted-optiga-trust-m/optiga-trust-m-1/externals/mbedtls/library/aes.c **** static const uint32_t RCON[10] =
 360://MAC/Home/Downloads/getstarted-optiga-trust-m/optiga-trust-m-1/externals/mbedtls/library/aes.c **** {
 361://MAC/Home/Downloads/getstarted-optiga-trust-m/optiga-trust-m-1/externals/mbedtls/library/aes.c ****     0x00000001, 0x00000002, 0x00000004, 0x00000008,
 362://MAC/Home/Downloads/getstarted-optiga-trust-m/optiga-trust-m-1/externals/mbedtls/library/aes.c ****     0x00000010, 0x00000020, 0x00000040, 0x00000080,
 363://MAC/Home/Downloads/getstarted-optiga-trust-m/optiga-trust-m-1/externals/mbedtls/library/aes.c ****     0x0000001B, 0x00000036
 364://MAC/Home/Downloads/getstarted-optiga-trust-m/optiga-trust-m-1/externals/mbedtls/library/aes.c **** };
 365://MAC/Home/Downloads/getstarted-optiga-trust-m/optiga-trust-m-1/externals/mbedtls/library/aes.c **** 
 366://MAC/Home/Downloads/getstarted-optiga-trust-m/optiga-trust-m-1/externals/mbedtls/library/aes.c **** #else /* MBEDTLS_AES_ROM_TABLES */
 367://MAC/Home/Downloads/getstarted-optiga-trust-m/optiga-trust-m-1/externals/mbedtls/library/aes.c **** 
 368://MAC/Home/Downloads/getstarted-optiga-trust-m/optiga-trust-m-1/externals/mbedtls/library/aes.c **** /*
 369://MAC/Home/Downloads/getstarted-optiga-trust-m/optiga-trust-m-1/externals/mbedtls/library/aes.c ****  * Forward S-box & tables
 370://MAC/Home/Downloads/getstarted-optiga-trust-m/optiga-trust-m-1/externals/mbedtls/library/aes.c ****  */
 371://MAC/Home/Downloads/getstarted-optiga-trust-m/optiga-trust-m-1/externals/mbedtls/library/aes.c **** static unsigned char FSb[256];
 372://MAC/Home/Downloads/getstarted-optiga-trust-m/optiga-trust-m-1/externals/mbedtls/library/aes.c **** static uint32_t FT0[256];
 373://MAC/Home/Downloads/getstarted-optiga-trust-m/optiga-trust-m-1/externals/mbedtls/library/aes.c **** #if !defined(MBEDTLS_AES_FEWER_TABLES)
 374://MAC/Home/Downloads/getstarted-optiga-trust-m/optiga-trust-m-1/externals/mbedtls/library/aes.c **** static uint32_t FT1[256];
 375://MAC/Home/Downloads/getstarted-optiga-trust-m/optiga-trust-m-1/externals/mbedtls/library/aes.c **** static uint32_t FT2[256];
 376://MAC/Home/Downloads/getstarted-optiga-trust-m/optiga-trust-m-1/externals/mbedtls/library/aes.c **** static uint32_t FT3[256];
 377://MAC/Home/Downloads/getstarted-optiga-trust-m/optiga-trust-m-1/externals/mbedtls/library/aes.c **** #endif /* !MBEDTLS_AES_FEWER_TABLES */
 378://MAC/Home/Downloads/getstarted-optiga-trust-m/optiga-trust-m-1/externals/mbedtls/library/aes.c **** 
 379://MAC/Home/Downloads/getstarted-optiga-trust-m/optiga-trust-m-1/externals/mbedtls/library/aes.c **** /*
 380://MAC/Home/Downloads/getstarted-optiga-trust-m/optiga-trust-m-1/externals/mbedtls/library/aes.c ****  * Reverse S-box & tables
 381://MAC/Home/Downloads/getstarted-optiga-trust-m/optiga-trust-m-1/externals/mbedtls/library/aes.c ****  */
 382://MAC/Home/Downloads/getstarted-optiga-trust-m/optiga-trust-m-1/externals/mbedtls/library/aes.c **** static unsigned char RSb[256];
 383://MAC/Home/Downloads/getstarted-optiga-trust-m/optiga-trust-m-1/externals/mbedtls/library/aes.c **** static uint32_t RT0[256];
 384://MAC/Home/Downloads/getstarted-optiga-trust-m/optiga-trust-m-1/externals/mbedtls/library/aes.c **** #if !defined(MBEDTLS_AES_FEWER_TABLES)
 385://MAC/Home/Downloads/getstarted-optiga-trust-m/optiga-trust-m-1/externals/mbedtls/library/aes.c **** static uint32_t RT1[256];
 386://MAC/Home/Downloads/getstarted-optiga-trust-m/optiga-trust-m-1/externals/mbedtls/library/aes.c **** static uint32_t RT2[256];
 387://MAC/Home/Downloads/getstarted-optiga-trust-m/optiga-trust-m-1/externals/mbedtls/library/aes.c **** static uint32_t RT3[256];
 388://MAC/Home/Downloads/getstarted-optiga-trust-m/optiga-trust-m-1/externals/mbedtls/library/aes.c **** #endif /* !MBEDTLS_AES_FEWER_TABLES */
 389://MAC/Home/Downloads/getstarted-optiga-trust-m/optiga-trust-m-1/externals/mbedtls/library/aes.c **** 
 390://MAC/Home/Downloads/getstarted-optiga-trust-m/optiga-trust-m-1/externals/mbedtls/library/aes.c **** /*
 391://MAC/Home/Downloads/getstarted-optiga-trust-m/optiga-trust-m-1/externals/mbedtls/library/aes.c ****  * Round constants
 392://MAC/Home/Downloads/getstarted-optiga-trust-m/optiga-trust-m-1/externals/mbedtls/library/aes.c ****  */
 393://MAC/Home/Downloads/getstarted-optiga-trust-m/optiga-trust-m-1/externals/mbedtls/library/aes.c **** static uint32_t RCON[10];
 394://MAC/Home/Downloads/getstarted-optiga-trust-m/optiga-trust-m-1/externals/mbedtls/library/aes.c **** 
 395://MAC/Home/Downloads/getstarted-optiga-trust-m/optiga-trust-m-1/externals/mbedtls/library/aes.c **** /*
 396://MAC/Home/Downloads/getstarted-optiga-trust-m/optiga-trust-m-1/externals/mbedtls/library/aes.c ****  * Tables generation code
 397://MAC/Home/Downloads/getstarted-optiga-trust-m/optiga-trust-m-1/externals/mbedtls/library/aes.c ****  */
 398://MAC/Home/Downloads/getstarted-optiga-trust-m/optiga-trust-m-1/externals/mbedtls/library/aes.c **** #define ROTL8(x) ( ( x << 8 ) & 0xFFFFFFFF ) | ( x >> 24 )
 399://MAC/Home/Downloads/getstarted-optiga-trust-m/optiga-trust-m-1/externals/mbedtls/library/aes.c **** #define XTIME(x) ( ( x << 1 ) ^ ( ( x & 0x80 ) ? 0x1B : 0x00 ) )
 400://MAC/Home/Downloads/getstarted-optiga-trust-m/optiga-trust-m-1/externals/mbedtls/library/aes.c **** #define MUL(x,y) ( ( x && y ) ? pow[(log[x]+log[y]) % 255] : 0 )
 401://MAC/Home/Downloads/getstarted-optiga-trust-m/optiga-trust-m-1/externals/mbedtls/library/aes.c **** 
 402://MAC/Home/Downloads/getstarted-optiga-trust-m/optiga-trust-m-1/externals/mbedtls/library/aes.c **** static int aes_init_done = 0;
 403://MAC/Home/Downloads/getstarted-optiga-trust-m/optiga-trust-m-1/externals/mbedtls/library/aes.c **** 
 404://MAC/Home/Downloads/getstarted-optiga-trust-m/optiga-trust-m-1/externals/mbedtls/library/aes.c **** static void aes_gen_tables( void )
 405://MAC/Home/Downloads/getstarted-optiga-trust-m/optiga-trust-m-1/externals/mbedtls/library/aes.c **** {
  26              	 .loc 1 405 0
  27              	 .cfi_startproc
  28              	.LVL0:
 406://MAC/Home/Downloads/getstarted-optiga-trust-m/optiga-trust-m-1/externals/mbedtls/library/aes.c ****     int i, x, y, z;
 407://MAC/Home/Downloads/getstarted-optiga-trust-m/optiga-trust-m-1/externals/mbedtls/library/aes.c ****     int pow[256];
 408://MAC/Home/Downloads/getstarted-optiga-trust-m/optiga-trust-m-1/externals/mbedtls/library/aes.c ****     int log[256];
 409://MAC/Home/Downloads/getstarted-optiga-trust-m/optiga-trust-m-1/externals/mbedtls/library/aes.c **** 
 410://MAC/Home/Downloads/getstarted-optiga-trust-m/optiga-trust-m-1/externals/mbedtls/library/aes.c ****     /*
 411://MAC/Home/Downloads/getstarted-optiga-trust-m/optiga-trust-m-1/externals/mbedtls/library/aes.c ****      * compute pow and log tables over GF(2^8)
 412://MAC/Home/Downloads/getstarted-optiga-trust-m/optiga-trust-m-1/externals/mbedtls/library/aes.c ****      */
 413://MAC/Home/Downloads/getstarted-optiga-trust-m/optiga-trust-m-1/externals/mbedtls/library/aes.c ****     for( i = 0, x = 1; i < 256; i++ )
  29              	 .loc 1 413 0
  30 0000 0121     	 mov r1,#1
  31 0002 0020     	 mov r0,#0
 405://MAC/Home/Downloads/getstarted-optiga-trust-m/optiga-trust-m-1/externals/mbedtls/library/aes.c ****     int i, x, y, z;
  32              	 .loc 1 405 0
  33 0004 F0B5     	 push {r4,r5,r6,r7,lr}
  34              	.LCFI0:
  35              	 .cfi_def_cfa_offset 20
  36              	 .cfi_offset 4,-20
  37              	 .cfi_offset 5,-16
  38              	 .cfi_offset 6,-12
  39              	 .cfi_offset 7,-8
  40              	 .cfi_offset 14,-4
  41 0006 6D4C     	 ldr r4,.L21
  42 0008 A544     	 add sp,sp,r4
  43              	.LCFI1:
  44              	 .cfi_def_cfa_offset 2096
  45              	.LVL1:
  46              	.L3:
  47 000a 8300     	 lsl r3,r0,#2
 414://MAC/Home/Downloads/getstarted-optiga-trust-m/optiga-trust-m-1/externals/mbedtls/library/aes.c ****     {
 415://MAC/Home/Downloads/getstarted-optiga-trust-m/optiga-trust-m-1/externals/mbedtls/library/aes.c ****         pow[i] = x;
  48              	 .loc 1 415 0
  49 000c 06AA     	 add r2,sp,#24
  50 000e 9950     	 str r1,[r3,r2]
 416://MAC/Home/Downloads/getstarted-optiga-trust-m/optiga-trust-m-1/externals/mbedtls/library/aes.c ****         log[x] = i;
  51              	 .loc 1 416 0
  52 0010 FFAA     	 add r2,sp,#1020
  53 0012 8B00     	 lsl r3,r1,#2
  54 0014 1C32     	 add r2,r2,#28
  55 0016 9850     	 str r0,[r3,r2]
 417://MAC/Home/Downloads/getstarted-optiga-trust-m/optiga-trust-m-1/externals/mbedtls/library/aes.c ****         x = ( x ^ XTIME( x ) ) & 0xFF;
  56              	 .loc 1 417 0
  57 0018 8022     	 mov r2,#128
  58 001a 131C     	 mov r3,r2
  59 001c 4C00     	 lsl r4,r1,#1
  60 001e 0B40     	 and r3,r1
  61 0020 00D0     	 beq .L2
  62 0022 1B23     	 mov r3,#27
  63              	.L2:
  64 0024 6140     	 eor r1,r4
  65              	.LVL2:
  66              	 .loc 1 417 0 is_stmt 0 discriminator 4
  67 0026 4B40     	 eor r3,r1
  68 0028 D9B2     	 uxtb r1,r3
  69              	.LVL3:
 413://MAC/Home/Downloads/getstarted-optiga-trust-m/optiga-trust-m-1/externals/mbedtls/library/aes.c ****     {
  70              	 .loc 1 413 0 is_stmt 1 discriminator 4
  71 002a 8023     	 mov r3,#128
  72 002c 0130     	 add r0,r0,#1
  73              	.LVL4:
  74 002e 5B00     	 lsl r3,r3,#1
  75 0030 9842     	 cmp r0,r3
  76 0032 EAD1     	 bne .L3
  77 0034 0021     	 mov r1,#0
  78              	.LVL5:
  79 0036 FF3B     	 sub r3,r3,#255
  80              	.LVL6:
  81              	.L5:
 418://MAC/Home/Downloads/getstarted-optiga-trust-m/optiga-trust-m-1/externals/mbedtls/library/aes.c ****     }
 419://MAC/Home/Downloads/getstarted-optiga-trust-m/optiga-trust-m-1/externals/mbedtls/library/aes.c **** 
 420://MAC/Home/Downloads/getstarted-optiga-trust-m/optiga-trust-m-1/externals/mbedtls/library/aes.c ****     /*
 421://MAC/Home/Downloads/getstarted-optiga-trust-m/optiga-trust-m-1/externals/mbedtls/library/aes.c ****      * calculate the round constants
 422://MAC/Home/Downloads/getstarted-optiga-trust-m/optiga-trust-m-1/externals/mbedtls/library/aes.c ****      */
 423://MAC/Home/Downloads/getstarted-optiga-trust-m/optiga-trust-m-1/externals/mbedtls/library/aes.c ****     for( i = 0, x = 1; i < 10; i++ )
 424://MAC/Home/Downloads/getstarted-optiga-trust-m/optiga-trust-m-1/externals/mbedtls/library/aes.c ****     {
 425://MAC/Home/Downloads/getstarted-optiga-trust-m/optiga-trust-m-1/externals/mbedtls/library/aes.c ****         RCON[i] = (uint32_t) x;
  82              	 .loc 1 425 0
  83 0038 614A     	 ldr r2,.L21+4
 426://MAC/Home/Downloads/getstarted-optiga-trust-m/optiga-trust-m-1/externals/mbedtls/library/aes.c ****         x = XTIME( x ) & 0xFF;
  84              	 .loc 1 426 0
  85 003a 5800     	 lsl r0,r3,#1
 425://MAC/Home/Downloads/getstarted-optiga-trust-m/optiga-trust-m-1/externals/mbedtls/library/aes.c ****         x = XTIME( x ) & 0xFF;
  86              	 .loc 1 425 0
  87 003c 8B50     	 str r3,[r1,r2]
  88              	 .loc 1 426 0
  89 003e 8022     	 mov r2,#128
  90 0040 1340     	 and r3,r2
  91              	.LVL7:
  92 0042 00D0     	 beq .L4
  93 0044 1B23     	 mov r3,#27
  94              	.L4:
  95              	 .loc 1 426 0 is_stmt 0 discriminator 4
  96 0046 4340     	 eor r3,r0
  97 0048 0431     	 add r1,r1,#4
  98              	.LVL8:
  99 004a DBB2     	 uxtb r3,r3
 100              	.LVL9:
 423://MAC/Home/Downloads/getstarted-optiga-trust-m/optiga-trust-m-1/externals/mbedtls/library/aes.c ****     {
 101              	 .loc 1 423 0 is_stmt 1 discriminator 4
 102 004c 2829     	 cmp r1,#40
 103 004e F3D1     	 bne .L5
 427://MAC/Home/Downloads/getstarted-optiga-trust-m/optiga-trust-m-1/externals/mbedtls/library/aes.c ****     }
 428://MAC/Home/Downloads/getstarted-optiga-trust-m/optiga-trust-m-1/externals/mbedtls/library/aes.c **** 
 429://MAC/Home/Downloads/getstarted-optiga-trust-m/optiga-trust-m-1/externals/mbedtls/library/aes.c ****     /*
 430://MAC/Home/Downloads/getstarted-optiga-trust-m/optiga-trust-m-1/externals/mbedtls/library/aes.c ****      * generate the forward and reverse S-boxes
 431://MAC/Home/Downloads/getstarted-optiga-trust-m/optiga-trust-m-1/externals/mbedtls/library/aes.c ****      */
 432://MAC/Home/Downloads/getstarted-optiga-trust-m/optiga-trust-m-1/externals/mbedtls/library/aes.c ****     FSb[0x00] = 0x63;
 104              	 .loc 1 432 0
 105 0050 6322     	 mov r2,#99
 106 0052 5C4B     	 ldr r3,.L21+8
 107              	.LVL10:
 433://MAC/Home/Downloads/getstarted-optiga-trust-m/optiga-trust-m-1/externals/mbedtls/library/aes.c ****     RSb[0x63] = 0x00;
 434://MAC/Home/Downloads/getstarted-optiga-trust-m/optiga-trust-m-1/externals/mbedtls/library/aes.c **** 
 435://MAC/Home/Downloads/getstarted-optiga-trust-m/optiga-trust-m-1/externals/mbedtls/library/aes.c ****     for( i = 1; i < 256; i++ )
 108              	 .loc 1 435 0
 109 0054 0125     	 mov r5,#1
 432://MAC/Home/Downloads/getstarted-optiga-trust-m/optiga-trust-m-1/externals/mbedtls/library/aes.c ****     RSb[0x63] = 0x00;
 110              	 .loc 1 432 0
 111 0056 1A70     	 strb r2,[r3]
 433://MAC/Home/Downloads/getstarted-optiga-trust-m/optiga-trust-m-1/externals/mbedtls/library/aes.c ****     RSb[0x63] = 0x00;
 112              	 .loc 1 433 0
 113 0058 0022     	 mov r2,#0
 114 005a 5B4B     	 ldr r3,.L21+12
 115 005c 6333     	 add r3,r3,#99
 116 005e 1A70     	 strb r2,[r3]
 117              	.LVL11:
 118              	.L6:
 436://MAC/Home/Downloads/getstarted-optiga-trust-m/optiga-trust-m-1/externals/mbedtls/library/aes.c ****     {
 437://MAC/Home/Downloads/getstarted-optiga-trust-m/optiga-trust-m-1/externals/mbedtls/library/aes.c ****         x = pow[255 - log[i]];
 119              	 .loc 1 437 0 discriminator 3
 120 0060 FF23     	 mov r3,#255
 121 0062 FFA9     	 add r1,sp,#1020
 122 0064 AA00     	 lsl r2,r5,#2
 123 0066 1C31     	 add r1,r1,#28
 124 0068 5258     	 ldr r2,[r2,r1]
 125 006a 06A8     	 add r0,sp,#24
 126 006c 9A1A     	 sub r2,r3,r2
 127 006e 9200     	 lsl r2,r2,#2
 128 0070 8758     	 ldr r7,[r0,r2]
 129              	.LVL12:
 438://MAC/Home/Downloads/getstarted-optiga-trust-m/optiga-trust-m-1/externals/mbedtls/library/aes.c **** 
 439://MAC/Home/Downloads/getstarted-optiga-trust-m/optiga-trust-m-1/externals/mbedtls/library/aes.c ****         y  = x; y = ( ( y << 1 ) | ( y >> 7 ) ) & 0xFF;
 130              	 .loc 1 439 0 discriminator 3
 131 0072 7A00     	 lsl r2,r7,#1
 132 0074 FC11     	 asr r4,r7,#7
 133 0076 1443     	 orr r4,r2
 134 0078 1C40     	 and r4,r3
 135              	.LVL13:
 440://MAC/Home/Downloads/getstarted-optiga-trust-m/optiga-trust-m-1/externals/mbedtls/library/aes.c ****         x ^= y; y = ( ( y << 1 ) | ( y >> 7 ) ) & 0xFF;
 136              	 .loc 1 440 0 discriminator 3
 137 007a 6200     	 lsl r2,r4,#1
 138 007c E011     	 asr r0,r4,#7
 139 007e 1043     	 orr r0,r2
 140 0080 1840     	 and r0,r3
 141              	.LVL14:
 441://MAC/Home/Downloads/getstarted-optiga-trust-m/optiga-trust-m-1/externals/mbedtls/library/aes.c ****         x ^= y; y = ( ( y << 1 ) | ( y >> 7 ) ) & 0xFF;
 142              	 .loc 1 441 0 discriminator 3
 143 0082 C611     	 asr r6,r0,#7
 144 0084 4200     	 lsl r2,r0,#1
 145 0086 3243     	 orr r2,r6
 146 0088 1A40     	 and r2,r3
 442://MAC/Home/Downloads/getstarted-optiga-trust-m/optiga-trust-m-1/externals/mbedtls/library/aes.c ****         x ^= y; y = ( ( y << 1 ) | ( y >> 7 ) ) & 0xFF;
 147              	 .loc 1 442 0 discriminator 3
 148 008a D611     	 asr r6,r2,#7
 149 008c B446     	 mov ip,r6
 441://MAC/Home/Downloads/getstarted-optiga-trust-m/optiga-trust-m-1/externals/mbedtls/library/aes.c ****         x ^= y; y = ( ( y << 1 ) | ( y >> 7 ) ) & 0xFF;
 150              	 .loc 1 441 0 discriminator 3
 151 008e 0092     	 str r2,[sp]
 152              	.LVL15:
 153              	 .loc 1 442 0 discriminator 3
 154 0090 5600     	 lsl r6,r2,#1
 155 0092 6246     	 mov r2,ip
 156              	.LVL16:
 157 0094 1643     	 orr r6,r2
 158              	.LVL17:
 159 0096 6322     	 mov r2,#99
 160 0098 5740     	 eor r7,r2
 161              	.LVL18:
 162 009a 7C40     	 eor r4,r7
 163              	.LVL19:
 164 009c 009A     	 ldr r2,[sp]
 165 009e 6040     	 eor r0,r4
 166              	.LVL20:
 167 00a0 4240     	 eor r2,r0
 168 00a2 3340     	 and r3,r6
 169              	.LVL21:
 443://MAC/Home/Downloads/getstarted-optiga-trust-m/optiga-trust-m-1/externals/mbedtls/library/aes.c ****         x ^= y ^ 0x63;
 170              	 .loc 1 443 0 discriminator 3
 171 00a4 5340     	 eor r3,r2
 172              	.LVL22:
 444://MAC/Home/Downloads/getstarted-optiga-trust-m/optiga-trust-m-1/externals/mbedtls/library/aes.c **** 
 445://MAC/Home/Downloads/getstarted-optiga-trust-m/optiga-trust-m-1/externals/mbedtls/library/aes.c ****         FSb[i] = (unsigned char) x;
 173              	 .loc 1 445 0 discriminator 3
 174 00a6 474A     	 ldr r2,.L21+8
 175 00a8 AB54     	 strb r3,[r5,r2]
 446://MAC/Home/Downloads/getstarted-optiga-trust-m/optiga-trust-m-1/externals/mbedtls/library/aes.c ****         RSb[x] = (unsigned char) i;
 176              	 .loc 1 446 0 discriminator 3
 177 00aa 474A     	 ldr r2,.L21+12
 178 00ac D554     	 strb r5,[r2,r3]
 435://MAC/Home/Downloads/getstarted-optiga-trust-m/optiga-trust-m-1/externals/mbedtls/library/aes.c ****     {
 179              	 .loc 1 435 0 discriminator 3
 180 00ae 8023     	 mov r3,#128
 181              	.LVL23:
 182 00b0 0135     	 add r5,r5,#1
 183              	.LVL24:
 184 00b2 5B00     	 lsl r3,r3,#1
 185 00b4 9D42     	 cmp r5,r3
 186 00b6 D3D1     	 bne .L6
 447://MAC/Home/Downloads/getstarted-optiga-trust-m/optiga-trust-m-1/externals/mbedtls/library/aes.c ****     }
 448://MAC/Home/Downloads/getstarted-optiga-trust-m/optiga-trust-m-1/externals/mbedtls/library/aes.c **** 
 449://MAC/Home/Downloads/getstarted-optiga-trust-m/optiga-trust-m-1/externals/mbedtls/library/aes.c ****     /*
 450://MAC/Home/Downloads/getstarted-optiga-trust-m/optiga-trust-m-1/externals/mbedtls/library/aes.c ****      * generate the forward and reverse tables
 451://MAC/Home/Downloads/getstarted-optiga-trust-m/optiga-trust-m-1/externals/mbedtls/library/aes.c ****      */
 452://MAC/Home/Downloads/getstarted-optiga-trust-m/optiga-trust-m-1/externals/mbedtls/library/aes.c ****     for( i = 0; i < 256; i++ )
 453://MAC/Home/Downloads/getstarted-optiga-trust-m/optiga-trust-m-1/externals/mbedtls/library/aes.c ****     {
 454://MAC/Home/Downloads/getstarted-optiga-trust-m/optiga-trust-m-1/externals/mbedtls/library/aes.c ****         x = FSb[i];
 455://MAC/Home/Downloads/getstarted-optiga-trust-m/optiga-trust-m-1/externals/mbedtls/library/aes.c ****         y = XTIME( x ) & 0xFF;
 456://MAC/Home/Downloads/getstarted-optiga-trust-m/optiga-trust-m-1/externals/mbedtls/library/aes.c ****         z =  ( y ^ x ) & 0xFF;
 457://MAC/Home/Downloads/getstarted-optiga-trust-m/optiga-trust-m-1/externals/mbedtls/library/aes.c **** 
 458://MAC/Home/Downloads/getstarted-optiga-trust-m/optiga-trust-m-1/externals/mbedtls/library/aes.c ****         FT0[i] = ( (uint32_t) y       ) ^
 459://MAC/Home/Downloads/getstarted-optiga-trust-m/optiga-trust-m-1/externals/mbedtls/library/aes.c ****                  ( (uint32_t) x <<  8 ) ^
 460://MAC/Home/Downloads/getstarted-optiga-trust-m/optiga-trust-m-1/externals/mbedtls/library/aes.c ****                  ( (uint32_t) x << 16 ) ^
 461://MAC/Home/Downloads/getstarted-optiga-trust-m/optiga-trust-m-1/externals/mbedtls/library/aes.c ****                  ( (uint32_t) z << 24 );
 462://MAC/Home/Downloads/getstarted-optiga-trust-m/optiga-trust-m-1/externals/mbedtls/library/aes.c **** 
 463://MAC/Home/Downloads/getstarted-optiga-trust-m/optiga-trust-m-1/externals/mbedtls/library/aes.c **** #if !defined(MBEDTLS_AES_FEWER_TABLES)
 464://MAC/Home/Downloads/getstarted-optiga-trust-m/optiga-trust-m-1/externals/mbedtls/library/aes.c ****         FT1[i] = ROTL8( FT0[i] );
 465://MAC/Home/Downloads/getstarted-optiga-trust-m/optiga-trust-m-1/externals/mbedtls/library/aes.c ****         FT2[i] = ROTL8( FT1[i] );
 466://MAC/Home/Downloads/getstarted-optiga-trust-m/optiga-trust-m-1/externals/mbedtls/library/aes.c ****         FT3[i] = ROTL8( FT2[i] );
 467://MAC/Home/Downloads/getstarted-optiga-trust-m/optiga-trust-m-1/externals/mbedtls/library/aes.c **** #endif /* !MBEDTLS_AES_FEWER_TABLES */
 468://MAC/Home/Downloads/getstarted-optiga-trust-m/optiga-trust-m-1/externals/mbedtls/library/aes.c **** 
 469://MAC/Home/Downloads/getstarted-optiga-trust-m/optiga-trust-m-1/externals/mbedtls/library/aes.c ****         x = RSb[i];
 470://MAC/Home/Downloads/getstarted-optiga-trust-m/optiga-trust-m-1/externals/mbedtls/library/aes.c **** 
 471://MAC/Home/Downloads/getstarted-optiga-trust-m/optiga-trust-m-1/externals/mbedtls/library/aes.c ****         RT0[i] = ( (uint32_t) MUL( 0x0E, x )       ) ^
 472://MAC/Home/Downloads/getstarted-optiga-trust-m/optiga-trust-m-1/externals/mbedtls/library/aes.c ****                  ( (uint32_t) MUL( 0x09, x ) <<  8 ) ^
 473://MAC/Home/Downloads/getstarted-optiga-trust-m/optiga-trust-m-1/externals/mbedtls/library/aes.c ****                  ( (uint32_t) MUL( 0x0D, x ) << 16 ) ^
 474://MAC/Home/Downloads/getstarted-optiga-trust-m/optiga-trust-m-1/externals/mbedtls/library/aes.c ****                  ( (uint32_t) MUL( 0x0B, x ) << 24 );
 187              	 .loc 1 474 0
 188 00b8 0024     	 mov r4,#0
 189 00ba 261C     	 mov r6,r4
 190              	.LVL25:
 471://MAC/Home/Downloads/getstarted-optiga-trust-m/optiga-trust-m-1/externals/mbedtls/library/aes.c ****                  ( (uint32_t) MUL( 0x09, x ) <<  8 ) ^
 191              	 .loc 1 471 0
 192 00bc 8B6B     	 ldr r3,[r1,#56]
 193 00be 0293     	 str r3,[sp,#8]
 472://MAC/Home/Downloads/getstarted-optiga-trust-m/optiga-trust-m-1/externals/mbedtls/library/aes.c ****                  ( (uint32_t) MUL( 0x0D, x ) << 16 ) ^
 194              	 .loc 1 472 0
 195 00c0 4B6A     	 ldr r3,[r1,#36]
 196 00c2 0393     	 str r3,[sp,#12]
 473://MAC/Home/Downloads/getstarted-optiga-trust-m/optiga-trust-m-1/externals/mbedtls/library/aes.c ****                  ( (uint32_t) MUL( 0x0B, x ) << 24 );
 197              	 .loc 1 473 0
 198 00c4 4B6B     	 ldr r3,[r1,#52]
 199 00c6 0493     	 str r3,[sp,#16]
 200              	 .loc 1 474 0
 201 00c8 CB6A     	 ldr r3,[r1,#44]
 202 00ca 0593     	 str r3,[sp,#20]
 203              	.LVL26:
 204              	.L11:
 455://MAC/Home/Downloads/getstarted-optiga-trust-m/optiga-trust-m-1/externals/mbedtls/library/aes.c ****         z =  ( y ^ x ) & 0xFF;
 205              	 .loc 1 455 0
 206 00cc 1B21     	 mov r1,#27
 207 00ce FF27     	 mov r7,#255
 454://MAC/Home/Downloads/getstarted-optiga-trust-m/optiga-trust-m-1/externals/mbedtls/library/aes.c ****         y = XTIME( x ) & 0xFF;
 208              	 .loc 1 454 0
 209 00d0 3C4B     	 ldr r3,.L21+8
 210 00d2 F35C     	 ldrb r3,[r6,r3]
 211              	.LVL27:
 455://MAC/Home/Downloads/getstarted-optiga-trust-m/optiga-trust-m-1/externals/mbedtls/library/aes.c ****         z =  ( y ^ x ) & 0xFF;
 212              	 .loc 1 455 0
 213 00d4 D809     	 lsr r0,r3,#7
 214 00d6 4042     	 neg r0,r0
 215 00d8 0140     	 and r1,r0
 216 00da 5A00     	 lsl r2,r3,#1
 217 00dc 4A40     	 eor r2,r1
 218 00de 3A40     	 and r2,r7
 219              	.LVL28:
 460://MAC/Home/Downloads/getstarted-optiga-trust-m/optiga-trust-m-1/externals/mbedtls/library/aes.c ****                  ( (uint32_t) z << 24 );
 220              	 .loc 1 460 0
 221 00e0 1804     	 lsl r0,r3,#16
 459://MAC/Home/Downloads/getstarted-optiga-trust-m/optiga-trust-m-1/externals/mbedtls/library/aes.c ****                  ( (uint32_t) x << 16 ) ^
 222              	 .loc 1 459 0
 223 00e2 1902     	 lsl r1,r3,#8
 224 00e4 4140     	 eor r1,r0
 456://MAC/Home/Downloads/getstarted-optiga-trust-m/optiga-trust-m-1/externals/mbedtls/library/aes.c **** 
 225              	 .loc 1 456 0
 226 00e6 5340     	 eor r3,r2
 227              	.LVL29:
 459://MAC/Home/Downloads/getstarted-optiga-trust-m/optiga-trust-m-1/externals/mbedtls/library/aes.c ****                  ( (uint32_t) x << 16 ) ^
 228              	 .loc 1 459 0
 229 00e8 5140     	 eor r1,r2
 461://MAC/Home/Downloads/getstarted-optiga-trust-m/optiga-trust-m-1/externals/mbedtls/library/aes.c **** 
 230              	 .loc 1 461 0
 231 00ea 1B06     	 lsl r3,r3,#24
 232              	.LVL30:
 458://MAC/Home/Downloads/getstarted-optiga-trust-m/optiga-trust-m-1/externals/mbedtls/library/aes.c ****                  ( (uint32_t) x <<  8 ) ^
 233              	 .loc 1 458 0
 234 00ec 374A     	 ldr r2,.L21+16
 235              	.LVL31:
 460://MAC/Home/Downloads/getstarted-optiga-trust-m/optiga-trust-m-1/externals/mbedtls/library/aes.c ****                  ( (uint32_t) z << 24 );
 236              	 .loc 1 460 0
 237 00ee 4B40     	 eor r3,r1
 458://MAC/Home/Downloads/getstarted-optiga-trust-m/optiga-trust-m-1/externals/mbedtls/library/aes.c ****                  ( (uint32_t) x <<  8 ) ^
 238              	 .loc 1 458 0
 239 00f0 A350     	 str r3,[r4,r2]
 464://MAC/Home/Downloads/getstarted-optiga-trust-m/optiga-trust-m-1/externals/mbedtls/library/aes.c ****         FT2[i] = ROTL8( FT1[i] );
 240              	 .loc 1 464 0
 241 00f2 1822     	 mov r2,#24
 242 00f4 D341     	 ror r3,r3,r2
 243 00f6 3649     	 ldr r1,.L21+20
 244 00f8 6350     	 str r3,[r4,r1]
 465://MAC/Home/Downloads/getstarted-optiga-trust-m/optiga-trust-m-1/externals/mbedtls/library/aes.c ****         FT3[i] = ROTL8( FT2[i] );
 245              	 .loc 1 465 0
 246 00fa D341     	 ror r3,r3,r2
 247 00fc 3549     	 ldr r1,.L21+24
 248 00fe 6350     	 str r3,[r4,r1]
 466://MAC/Home/Downloads/getstarted-optiga-trust-m/optiga-trust-m-1/externals/mbedtls/library/aes.c **** #endif /* !MBEDTLS_AES_FEWER_TABLES */
 249              	 .loc 1 466 0
 250 0100 D341     	 ror r3,r3,r2
 251 0102 354A     	 ldr r2,.L21+28
 252 0104 A350     	 str r3,[r4,r2]
 469://MAC/Home/Downloads/getstarted-optiga-trust-m/optiga-trust-m-1/externals/mbedtls/library/aes.c **** 
 253              	 .loc 1 469 0
 254 0106 304B     	 ldr r3,.L21+12
 255 0108 9D5D     	 ldrb r5,[r3,r6]
 256              	.LVL32:
 471://MAC/Home/Downloads/getstarted-optiga-trust-m/optiga-trust-m-1/externals/mbedtls/library/aes.c ****                  ( (uint32_t) MUL( 0x09, x ) <<  8 ) ^
 257              	 .loc 1 471 0
 258 010a 002D     	 cmp r5,#0
 259 010c 1BD0     	 beq .L15
 471://MAC/Home/Downloads/getstarted-optiga-trust-m/optiga-trust-m-1/externals/mbedtls/library/aes.c ****                  ( (uint32_t) MUL( 0x09, x ) <<  8 ) ^
 260              	 .loc 1 471 0 is_stmt 0 discriminator 1
 261 010e FFAA     	 add r2,sp,#1020
 262 0110 1C32     	 add r2,r2,#28
 263 0112 AB00     	 lsl r3,r5,#2
 264 0114 9B58     	 ldr r3,[r3,r2]
 265 0116 391C     	 mov r1,r7
 266 0118 0093     	 str r3,[sp]
 267 011a 009A     	 ldr r2,[sp]
 268 011c 029B     	 ldr r3,[sp,#8]
 269 011e 9818     	 add r0,r3,r2
 270 0120 FFF7FEFF 	 bl __aeabi_idivmod
 271              	.LVL33:
 472://MAC/Home/Downloads/getstarted-optiga-trust-m/optiga-trust-m-1/externals/mbedtls/library/aes.c ****                  ( (uint32_t) MUL( 0x0D, x ) << 16 ) ^
 272              	 .loc 1 472 0 is_stmt 1 discriminator 1
 273 0124 039A     	 ldr r2,[sp,#12]
 471://MAC/Home/Downloads/getstarted-optiga-trust-m/optiga-trust-m-1/externals/mbedtls/library/aes.c ****                  ( (uint32_t) MUL( 0x09, x ) <<  8 ) ^
 274              	 .loc 1 471 0 discriminator 1
 275 0126 8900     	 lsl r1,r1,#2
 472://MAC/Home/Downloads/getstarted-optiga-trust-m/optiga-trust-m-1/externals/mbedtls/library/aes.c ****                  ( (uint32_t) MUL( 0x0D, x ) << 16 ) ^
 276              	 .loc 1 472 0 discriminator 1
 277 0128 9446     	 mov ip,r2
 471://MAC/Home/Downloads/getstarted-optiga-trust-m/optiga-trust-m-1/externals/mbedtls/library/aes.c ****                  ( (uint32_t) MUL( 0x09, x ) <<  8 ) ^
 278              	 .loc 1 471 0 discriminator 1
 279 012a 06AB     	 add r3,sp,#24
 280 012c CB58     	 ldr r3,[r1,r3]
 472://MAC/Home/Downloads/getstarted-optiga-trust-m/optiga-trust-m-1/externals/mbedtls/library/aes.c ****                  ( (uint32_t) MUL( 0x0D, x ) << 16 ) ^
 281              	 .loc 1 472 0 discriminator 1
 282 012e 391C     	 mov r1,r7
 471://MAC/Home/Downloads/getstarted-optiga-trust-m/optiga-trust-m-1/externals/mbedtls/library/aes.c ****                  ( (uint32_t) MUL( 0x09, x ) <<  8 ) ^
 283              	 .loc 1 471 0 discriminator 1
 284 0130 0193     	 str r3,[sp,#4]
 472://MAC/Home/Downloads/getstarted-optiga-trust-m/optiga-trust-m-1/externals/mbedtls/library/aes.c ****                  ( (uint32_t) MUL( 0x0D, x ) << 16 ) ^
 285              	 .loc 1 472 0 discriminator 1
 286 0132 009B     	 ldr r3,[sp]
 287 0134 6344     	 add r3,r3,ip
 288 0136 181C     	 mov r0,r3
 289 0138 FFF7FEFF 	 bl __aeabi_idivmod
 290              	.LVL34:
 291 013c 06AB     	 add r3,sp,#24
 292 013e 8900     	 lsl r1,r1,#2
 293 0140 CB58     	 ldr r3,[r1,r3]
 294 0142 1B02     	 lsl r3,r3,#8
 295 0144 01E0     	 b .L8
 296              	.LVL35:
 297              	.L15:
 472://MAC/Home/Downloads/getstarted-optiga-trust-m/optiga-trust-m-1/externals/mbedtls/library/aes.c ****                  ( (uint32_t) MUL( 0x0D, x ) << 16 ) ^
 298              	 .loc 1 472 0 is_stmt 0
 299 0146 2B1C     	 mov r3,r5
 471://MAC/Home/Downloads/getstarted-optiga-trust-m/optiga-trust-m-1/externals/mbedtls/library/aes.c ****                  ( (uint32_t) MUL( 0x09, x ) <<  8 ) ^
 300              	 .loc 1 471 0 is_stmt 1
 301 0148 0195     	 str r5,[sp,#4]
 302              	.LVL36:
 303              	.L8:
 304 014a 019F     	 ldr r7,[sp,#4]
 305 014c 5F40     	 eor r7,r3
 473://MAC/Home/Downloads/getstarted-optiga-trust-m/optiga-trust-m-1/externals/mbedtls/library/aes.c ****                  ( (uint32_t) MUL( 0x0B, x ) << 24 );
 306              	 .loc 1 473 0
 307 014e 0023     	 mov r3,#0
 308 0150 9D42     	 cmp r5,r3
 309 0152 0CD0     	 beq .L9
 473://MAC/Home/Downloads/getstarted-optiga-trust-m/optiga-trust-m-1/externals/mbedtls/library/aes.c ****                  ( (uint32_t) MUL( 0x0B, x ) << 24 );
 310              	 .loc 1 473 0 is_stmt 0 discriminator 1
 311 0154 FFAA     	 add r2,sp,#1020
 312 0156 AB00     	 lsl r3,r5,#2
 313 0158 1C32     	 add r2,r2,#28
 314 015a 9858     	 ldr r0,[r3,r2]
 315 015c 049B     	 ldr r3,[sp,#16]
 316 015e FF21     	 mov r1,#255
 317 0160 1818     	 add r0,r3,r0
 318 0162 FFF7FEFF 	 bl __aeabi_idivmod
 319              	.LVL37:
 320 0166 06AB     	 add r3,sp,#24
 321 0168 8900     	 lsl r1,r1,#2
 322 016a CB58     	 ldr r3,[r1,r3]
 323 016c 1B04     	 lsl r3,r3,#16
 324              	.L9:
 472://MAC/Home/Downloads/getstarted-optiga-trust-m/optiga-trust-m-1/externals/mbedtls/library/aes.c ****                  ( (uint32_t) MUL( 0x0D, x ) << 16 ) ^
 325              	 .loc 1 472 0 is_stmt 1
 326 016e 5F40     	 eor r7,r3
 327              	 .loc 1 474 0
 328 0170 0023     	 mov r3,#0
 329 0172 9D42     	 cmp r5,r3
 330 0174 0CD0     	 beq .L10
 331              	 .loc 1 474 0 is_stmt 0 discriminator 1
 332 0176 FFAB     	 add r3,sp,#1020
 333 0178 1C33     	 add r3,r3,#28
 334 017a AD00     	 lsl r5,r5,#2
 335              	.LVL38:
 336 017c E858     	 ldr r0,[r5,r3]
 337 017e 059B     	 ldr r3,[sp,#20]
 338 0180 FF21     	 mov r1,#255
 339 0182 1818     	 add r0,r3,r0
 340 0184 FFF7FEFF 	 bl __aeabi_idivmod
 341              	.LVL39:
 342 0188 06AB     	 add r3,sp,#24
 343 018a 8900     	 lsl r1,r1,#2
 344 018c CB58     	 ldr r3,[r1,r3]
 345 018e 1B06     	 lsl r3,r3,#24
 346              	.L10:
 473://MAC/Home/Downloads/getstarted-optiga-trust-m/optiga-trust-m-1/externals/mbedtls/library/aes.c ****                  ( (uint32_t) MUL( 0x0B, x ) << 24 );
 347              	 .loc 1 473 0 is_stmt 1 discriminator 2
 348 0190 5F40     	 eor r7,r3
 471://MAC/Home/Downloads/getstarted-optiga-trust-m/optiga-trust-m-1/externals/mbedtls/library/aes.c ****                  ( (uint32_t) MUL( 0x09, x ) <<  8 ) ^
 349              	 .loc 1 471 0 discriminator 2
 350 0192 124B     	 ldr r3,.L21+32
 475://MAC/Home/Downloads/getstarted-optiga-trust-m/optiga-trust-m-1/externals/mbedtls/library/aes.c **** 
 476://MAC/Home/Downloads/getstarted-optiga-trust-m/optiga-trust-m-1/externals/mbedtls/library/aes.c **** #if !defined(MBEDTLS_AES_FEWER_TABLES)
 477://MAC/Home/Downloads/getstarted-optiga-trust-m/optiga-trust-m-1/externals/mbedtls/library/aes.c ****         RT1[i] = ROTL8( RT0[i] );
 351              	 .loc 1 477 0 discriminator 2
 352 0194 124A     	 ldr r2,.L21+36
 471://MAC/Home/Downloads/getstarted-optiga-trust-m/optiga-trust-m-1/externals/mbedtls/library/aes.c ****                  ( (uint32_t) MUL( 0x09, x ) <<  8 ) ^
 353              	 .loc 1 471 0 discriminator 2
 354 0196 E750     	 str r7,[r4,r3]
 355              	 .loc 1 477 0 discriminator 2
 356 0198 1823     	 mov r3,#24
 357 019a DF41     	 ror r7,r7,r3
 358 019c A750     	 str r7,[r4,r2]
 478://MAC/Home/Downloads/getstarted-optiga-trust-m/optiga-trust-m-1/externals/mbedtls/library/aes.c ****         RT2[i] = ROTL8( RT1[i] );
 359              	 .loc 1 478 0 discriminator 2
 360 019e DF41     	 ror r7,r7,r3
 361 01a0 104A     	 ldr r2,.L21+40
 452://MAC/Home/Downloads/getstarted-optiga-trust-m/optiga-trust-m-1/externals/mbedtls/library/aes.c ****     {
 362              	 .loc 1 452 0 discriminator 2
 363 01a2 0136     	 add r6,r6,#1
 364              	.LVL40:
 365              	 .loc 1 478 0 discriminator 2
 366 01a4 A750     	 str r7,[r4,r2]
 479://MAC/Home/Downloads/getstarted-optiga-trust-m/optiga-trust-m-1/externals/mbedtls/library/aes.c ****         RT3[i] = ROTL8( RT2[i] );
 367              	 .loc 1 479 0 discriminator 2
 368 01a6 DF41     	 ror r7,r7,r3
 369 01a8 0F4B     	 ldr r3,.L21+44
 370 01aa E750     	 str r7,[r4,r3]
 452://MAC/Home/Downloads/getstarted-optiga-trust-m/optiga-trust-m-1/externals/mbedtls/library/aes.c ****     {
 371              	 .loc 1 452 0 discriminator 2
 372 01ac 8023     	 mov r3,#128
 373 01ae 0434     	 add r4,r4,#4
 374 01b0 5B00     	 lsl r3,r3,#1
 375 01b2 9E42     	 cmp r6,r3
 376 01b4 8AD1     	 bne .L11
 480://MAC/Home/Downloads/getstarted-optiga-trust-m/optiga-trust-m-1/externals/mbedtls/library/aes.c **** #endif /* !MBEDTLS_AES_FEWER_TABLES */
 481://MAC/Home/Downloads/getstarted-optiga-trust-m/optiga-trust-m-1/externals/mbedtls/library/aes.c ****     }
 482://MAC/Home/Downloads/getstarted-optiga-trust-m/optiga-trust-m-1/externals/mbedtls/library/aes.c **** }
 377              	 .loc 1 482 0
 378 01b6 0D4B     	 ldr r3,.L21+48
 379 01b8 9D44     	 add sp,sp,r3
 380              	 
 381              	.LVL41:
 382 01ba F0BD     	 pop {r4,r5,r6,r7,pc}
 383              	.L22:
 384              	 .align 2
 385              	.L21:
 386 01bc E4F7FFFF 	 .word -2076
 387 01c0 00000000 	 .word .LANCHOR0
 388 01c4 00000000 	 .word .LANCHOR1
 389 01c8 00000000 	 .word .LANCHOR2
 390 01cc 00000000 	 .word .LANCHOR3
 391 01d0 00000000 	 .word .LANCHOR4
 392 01d4 00000000 	 .word .LANCHOR5
 393 01d8 00000000 	 .word .LANCHOR6
 394 01dc 00000000 	 .word .LANCHOR7
 395 01e0 00000000 	 .word .LANCHOR8
 396 01e4 00000000 	 .word .LANCHOR9
 397 01e8 00000000 	 .word .LANCHOR10
 398 01ec 1C080000 	 .word 2076
 399              	 .cfi_endproc
 400              	.LFE0:
 402              	 .section .text.mbedtls_aes_init,"ax",%progbits
 403              	 .align 1
 404              	 .global mbedtls_aes_init
 405              	 .code 16
 406              	 .thumb_func
 408              	mbedtls_aes_init:
 409              	.LFB1:
 483://MAC/Home/Downloads/getstarted-optiga-trust-m/optiga-trust-m-1/externals/mbedtls/library/aes.c **** 
 484://MAC/Home/Downloads/getstarted-optiga-trust-m/optiga-trust-m-1/externals/mbedtls/library/aes.c **** #undef ROTL8
 485://MAC/Home/Downloads/getstarted-optiga-trust-m/optiga-trust-m-1/externals/mbedtls/library/aes.c **** 
 486://MAC/Home/Downloads/getstarted-optiga-trust-m/optiga-trust-m-1/externals/mbedtls/library/aes.c **** #endif /* MBEDTLS_AES_ROM_TABLES */
 487://MAC/Home/Downloads/getstarted-optiga-trust-m/optiga-trust-m-1/externals/mbedtls/library/aes.c **** 
 488://MAC/Home/Downloads/getstarted-optiga-trust-m/optiga-trust-m-1/externals/mbedtls/library/aes.c **** #if defined(MBEDTLS_AES_FEWER_TABLES)
 489://MAC/Home/Downloads/getstarted-optiga-trust-m/optiga-trust-m-1/externals/mbedtls/library/aes.c **** 
 490://MAC/Home/Downloads/getstarted-optiga-trust-m/optiga-trust-m-1/externals/mbedtls/library/aes.c **** #define ROTL8(x)  ( (uint32_t)( ( x ) <<  8 ) + (uint32_t)( ( x ) >> 24 ) )
 491://MAC/Home/Downloads/getstarted-optiga-trust-m/optiga-trust-m-1/externals/mbedtls/library/aes.c **** #define ROTL16(x) ( (uint32_t)( ( x ) << 16 ) + (uint32_t)( ( x ) >> 16 ) )
 492://MAC/Home/Downloads/getstarted-optiga-trust-m/optiga-trust-m-1/externals/mbedtls/library/aes.c **** #define ROTL24(x) ( (uint32_t)( ( x ) << 24 ) + (uint32_t)( ( x ) >>  8 ) )
 493://MAC/Home/Downloads/getstarted-optiga-trust-m/optiga-trust-m-1/externals/mbedtls/library/aes.c **** 
 494://MAC/Home/Downloads/getstarted-optiga-trust-m/optiga-trust-m-1/externals/mbedtls/library/aes.c **** #define AES_RT0(idx) RT0[idx]
 495://MAC/Home/Downloads/getstarted-optiga-trust-m/optiga-trust-m-1/externals/mbedtls/library/aes.c **** #define AES_RT1(idx) ROTL8(  RT0[idx] )
 496://MAC/Home/Downloads/getstarted-optiga-trust-m/optiga-trust-m-1/externals/mbedtls/library/aes.c **** #define AES_RT2(idx) ROTL16( RT0[idx] )
 497://MAC/Home/Downloads/getstarted-optiga-trust-m/optiga-trust-m-1/externals/mbedtls/library/aes.c **** #define AES_RT3(idx) ROTL24( RT0[idx] )
 498://MAC/Home/Downloads/getstarted-optiga-trust-m/optiga-trust-m-1/externals/mbedtls/library/aes.c **** 
 499://MAC/Home/Downloads/getstarted-optiga-trust-m/optiga-trust-m-1/externals/mbedtls/library/aes.c **** #define AES_FT0(idx) FT0[idx]
 500://MAC/Home/Downloads/getstarted-optiga-trust-m/optiga-trust-m-1/externals/mbedtls/library/aes.c **** #define AES_FT1(idx) ROTL8(  FT0[idx] )
 501://MAC/Home/Downloads/getstarted-optiga-trust-m/optiga-trust-m-1/externals/mbedtls/library/aes.c **** #define AES_FT2(idx) ROTL16( FT0[idx] )
 502://MAC/Home/Downloads/getstarted-optiga-trust-m/optiga-trust-m-1/externals/mbedtls/library/aes.c **** #define AES_FT3(idx) ROTL24( FT0[idx] )
 503://MAC/Home/Downloads/getstarted-optiga-trust-m/optiga-trust-m-1/externals/mbedtls/library/aes.c **** 
 504://MAC/Home/Downloads/getstarted-optiga-trust-m/optiga-trust-m-1/externals/mbedtls/library/aes.c **** #else /* MBEDTLS_AES_FEWER_TABLES */
 505://MAC/Home/Downloads/getstarted-optiga-trust-m/optiga-trust-m-1/externals/mbedtls/library/aes.c **** 
 506://MAC/Home/Downloads/getstarted-optiga-trust-m/optiga-trust-m-1/externals/mbedtls/library/aes.c **** #define AES_RT0(idx) RT0[idx]
 507://MAC/Home/Downloads/getstarted-optiga-trust-m/optiga-trust-m-1/externals/mbedtls/library/aes.c **** #define AES_RT1(idx) RT1[idx]
 508://MAC/Home/Downloads/getstarted-optiga-trust-m/optiga-trust-m-1/externals/mbedtls/library/aes.c **** #define AES_RT2(idx) RT2[idx]
 509://MAC/Home/Downloads/getstarted-optiga-trust-m/optiga-trust-m-1/externals/mbedtls/library/aes.c **** #define AES_RT3(idx) RT3[idx]
 510://MAC/Home/Downloads/getstarted-optiga-trust-m/optiga-trust-m-1/externals/mbedtls/library/aes.c **** 
 511://MAC/Home/Downloads/getstarted-optiga-trust-m/optiga-trust-m-1/externals/mbedtls/library/aes.c **** #define AES_FT0(idx) FT0[idx]
 512://MAC/Home/Downloads/getstarted-optiga-trust-m/optiga-trust-m-1/externals/mbedtls/library/aes.c **** #define AES_FT1(idx) FT1[idx]
 513://MAC/Home/Downloads/getstarted-optiga-trust-m/optiga-trust-m-1/externals/mbedtls/library/aes.c **** #define AES_FT2(idx) FT2[idx]
 514://MAC/Home/Downloads/getstarted-optiga-trust-m/optiga-trust-m-1/externals/mbedtls/library/aes.c **** #define AES_FT3(idx) FT3[idx]
 515://MAC/Home/Downloads/getstarted-optiga-trust-m/optiga-trust-m-1/externals/mbedtls/library/aes.c **** 
 516://MAC/Home/Downloads/getstarted-optiga-trust-m/optiga-trust-m-1/externals/mbedtls/library/aes.c **** #endif /* MBEDTLS_AES_FEWER_TABLES */
 517://MAC/Home/Downloads/getstarted-optiga-trust-m/optiga-trust-m-1/externals/mbedtls/library/aes.c **** 
 518://MAC/Home/Downloads/getstarted-optiga-trust-m/optiga-trust-m-1/externals/mbedtls/library/aes.c **** void mbedtls_aes_init( mbedtls_aes_context *ctx )
 519://MAC/Home/Downloads/getstarted-optiga-trust-m/optiga-trust-m-1/externals/mbedtls/library/aes.c **** {
 410              	 .loc 1 519 0
 411              	 .cfi_startproc
 412              	.LVL42:
 520://MAC/Home/Downloads/getstarted-optiga-trust-m/optiga-trust-m-1/externals/mbedtls/library/aes.c ****     AES_VALIDATE( ctx != NULL );
 521://MAC/Home/Downloads/getstarted-optiga-trust-m/optiga-trust-m-1/externals/mbedtls/library/aes.c **** 
 522://MAC/Home/Downloads/getstarted-optiga-trust-m/optiga-trust-m-1/externals/mbedtls/library/aes.c ****     memset( ctx, 0, sizeof( mbedtls_aes_context ) );
 413              	 .loc 1 522 0
 414 0000 8C22     	 mov r2,#140
 519://MAC/Home/Downloads/getstarted-optiga-trust-m/optiga-trust-m-1/externals/mbedtls/library/aes.c ****     AES_VALIDATE( ctx != NULL );
 415              	 .loc 1 519 0
 416 0002 08B5     	 push {r3,lr}
 417              	.LCFI2:
 418              	 .cfi_def_cfa_offset 8
 419              	 .cfi_offset 3,-8
 420              	 .cfi_offset 14,-4
 421              	 .loc 1 522 0
 422 0004 0021     	 mov r1,#0
 423 0006 5200     	 lsl r2,r2,#1
 424 0008 FFF7FEFF 	 bl memset
 425              	.LVL43:
 523://MAC/Home/Downloads/getstarted-optiga-trust-m/optiga-trust-m-1/externals/mbedtls/library/aes.c **** }
 426              	 .loc 1 523 0
 427              	 
 428 000c 08BD     	 pop {r3,pc}
 429              	 .cfi_endproc
 430              	.LFE1:
 432              	 .section .text.mbedtls_aes_free,"ax",%progbits
 433              	 .align 1
 434              	 .global mbedtls_aes_free
 435              	 .code 16
 436              	 .thumb_func
 438              	mbedtls_aes_free:
 439              	.LFB2:
 524://MAC/Home/Downloads/getstarted-optiga-trust-m/optiga-trust-m-1/externals/mbedtls/library/aes.c **** 
 525://MAC/Home/Downloads/getstarted-optiga-trust-m/optiga-trust-m-1/externals/mbedtls/library/aes.c **** void mbedtls_aes_free( mbedtls_aes_context *ctx )
 526://MAC/Home/Downloads/getstarted-optiga-trust-m/optiga-trust-m-1/externals/mbedtls/library/aes.c **** {
 440              	 .loc 1 526 0
 441              	 .cfi_startproc
 442              	.LVL44:
 443 0000 08B5     	 push {r3,lr}
 444              	.LCFI3:
 445              	 .cfi_def_cfa_offset 8
 446              	 .cfi_offset 3,-8
 447              	 .cfi_offset 14,-4
 527://MAC/Home/Downloads/getstarted-optiga-trust-m/optiga-trust-m-1/externals/mbedtls/library/aes.c ****     if( ctx == NULL )
 448              	 .loc 1 527 0
 449 0002 0028     	 cmp r0,#0
 450 0004 03D0     	 beq .L24
 528://MAC/Home/Downloads/getstarted-optiga-trust-m/optiga-trust-m-1/externals/mbedtls/library/aes.c ****         return;
 529://MAC/Home/Downloads/getstarted-optiga-trust-m/optiga-trust-m-1/externals/mbedtls/library/aes.c **** 
 530://MAC/Home/Downloads/getstarted-optiga-trust-m/optiga-trust-m-1/externals/mbedtls/library/aes.c ****     mbedtls_platform_zeroize( ctx, sizeof( mbedtls_aes_context ) );
 451              	 .loc 1 530 0
 452 0006 8C21     	 mov r1,#140
 453 0008 4900     	 lsl r1,r1,#1
 454 000a FFF7FEFF 	 bl mbedtls_platform_zeroize
 455              	.LVL45:
 456              	.L24:
 531://MAC/Home/Downloads/getstarted-optiga-trust-m/optiga-trust-m-1/externals/mbedtls/library/aes.c **** }
 457              	 .loc 1 531 0
 458              	 
 459 000e 08BD     	 pop {r3,pc}
 460              	 .cfi_endproc
 461              	.LFE2:
 463              	 .section .text.mbedtls_aes_setkey_enc,"ax",%progbits
 464              	 .align 1
 465              	 .global mbedtls_aes_setkey_enc
 466              	 .code 16
 467              	 .thumb_func
 469              	mbedtls_aes_setkey_enc:
 470              	.LFB3:
 532://MAC/Home/Downloads/getstarted-optiga-trust-m/optiga-trust-m-1/externals/mbedtls/library/aes.c **** 
 533://MAC/Home/Downloads/getstarted-optiga-trust-m/optiga-trust-m-1/externals/mbedtls/library/aes.c **** #if defined(MBEDTLS_CIPHER_MODE_XTS)
 534://MAC/Home/Downloads/getstarted-optiga-trust-m/optiga-trust-m-1/externals/mbedtls/library/aes.c **** void mbedtls_aes_xts_init( mbedtls_aes_xts_context *ctx )
 535://MAC/Home/Downloads/getstarted-optiga-trust-m/optiga-trust-m-1/externals/mbedtls/library/aes.c **** {
 536://MAC/Home/Downloads/getstarted-optiga-trust-m/optiga-trust-m-1/externals/mbedtls/library/aes.c ****     AES_VALIDATE( ctx != NULL );
 537://MAC/Home/Downloads/getstarted-optiga-trust-m/optiga-trust-m-1/externals/mbedtls/library/aes.c **** 
 538://MAC/Home/Downloads/getstarted-optiga-trust-m/optiga-trust-m-1/externals/mbedtls/library/aes.c ****     mbedtls_aes_init( &ctx->crypt );
 539://MAC/Home/Downloads/getstarted-optiga-trust-m/optiga-trust-m-1/externals/mbedtls/library/aes.c ****     mbedtls_aes_init( &ctx->tweak );
 540://MAC/Home/Downloads/getstarted-optiga-trust-m/optiga-trust-m-1/externals/mbedtls/library/aes.c **** }
 541://MAC/Home/Downloads/getstarted-optiga-trust-m/optiga-trust-m-1/externals/mbedtls/library/aes.c **** 
 542://MAC/Home/Downloads/getstarted-optiga-trust-m/optiga-trust-m-1/externals/mbedtls/library/aes.c **** void mbedtls_aes_xts_free( mbedtls_aes_xts_context *ctx )
 543://MAC/Home/Downloads/getstarted-optiga-trust-m/optiga-trust-m-1/externals/mbedtls/library/aes.c **** {
 544://MAC/Home/Downloads/getstarted-optiga-trust-m/optiga-trust-m-1/externals/mbedtls/library/aes.c ****     if( ctx == NULL )
 545://MAC/Home/Downloads/getstarted-optiga-trust-m/optiga-trust-m-1/externals/mbedtls/library/aes.c ****         return;
 546://MAC/Home/Downloads/getstarted-optiga-trust-m/optiga-trust-m-1/externals/mbedtls/library/aes.c **** 
 547://MAC/Home/Downloads/getstarted-optiga-trust-m/optiga-trust-m-1/externals/mbedtls/library/aes.c ****     mbedtls_aes_free( &ctx->crypt );
 548://MAC/Home/Downloads/getstarted-optiga-trust-m/optiga-trust-m-1/externals/mbedtls/library/aes.c ****     mbedtls_aes_free( &ctx->tweak );
 549://MAC/Home/Downloads/getstarted-optiga-trust-m/optiga-trust-m-1/externals/mbedtls/library/aes.c **** }
 550://MAC/Home/Downloads/getstarted-optiga-trust-m/optiga-trust-m-1/externals/mbedtls/library/aes.c **** #endif /* MBEDTLS_CIPHER_MODE_XTS */
 551://MAC/Home/Downloads/getstarted-optiga-trust-m/optiga-trust-m-1/externals/mbedtls/library/aes.c **** 
 552://MAC/Home/Downloads/getstarted-optiga-trust-m/optiga-trust-m-1/externals/mbedtls/library/aes.c **** /*
 553://MAC/Home/Downloads/getstarted-optiga-trust-m/optiga-trust-m-1/externals/mbedtls/library/aes.c ****  * AES key schedule (encryption)
 554://MAC/Home/Downloads/getstarted-optiga-trust-m/optiga-trust-m-1/externals/mbedtls/library/aes.c ****  */
 555://MAC/Home/Downloads/getstarted-optiga-trust-m/optiga-trust-m-1/externals/mbedtls/library/aes.c **** #if !defined(MBEDTLS_AES_SETKEY_ENC_ALT)
 556://MAC/Home/Downloads/getstarted-optiga-trust-m/optiga-trust-m-1/externals/mbedtls/library/aes.c **** int mbedtls_aes_setkey_enc( mbedtls_aes_context *ctx, const unsigned char *key,
 557://MAC/Home/Downloads/getstarted-optiga-trust-m/optiga-trust-m-1/externals/mbedtls/library/aes.c ****                     unsigned int keybits )
 558://MAC/Home/Downloads/getstarted-optiga-trust-m/optiga-trust-m-1/externals/mbedtls/library/aes.c **** {
 471              	 .loc 1 558 0
 472              	 .cfi_startproc
 473              	.LVL46:
 474 0000 F7B5     	 push {r0,r1,r2,r4,r5,r6,r7,lr}
 475              	.LCFI4:
 476              	 .cfi_def_cfa_offset 32
 477              	 .cfi_offset 0,-32
 478              	 .cfi_offset 1,-28
 479              	 .cfi_offset 2,-24
 480              	 .cfi_offset 4,-20
 481              	 .cfi_offset 5,-16
 482              	 .cfi_offset 6,-12
 483              	 .cfi_offset 7,-8
 484              	 .cfi_offset 14,-4
 559://MAC/Home/Downloads/getstarted-optiga-trust-m/optiga-trust-m-1/externals/mbedtls/library/aes.c ****     unsigned int i;
 560://MAC/Home/Downloads/getstarted-optiga-trust-m/optiga-trust-m-1/externals/mbedtls/library/aes.c ****     uint32_t *RK;
 561://MAC/Home/Downloads/getstarted-optiga-trust-m/optiga-trust-m-1/externals/mbedtls/library/aes.c **** 
 562://MAC/Home/Downloads/getstarted-optiga-trust-m/optiga-trust-m-1/externals/mbedtls/library/aes.c ****     AES_VALIDATE_RET( ctx != NULL );
 563://MAC/Home/Downloads/getstarted-optiga-trust-m/optiga-trust-m-1/externals/mbedtls/library/aes.c ****     AES_VALIDATE_RET( key != NULL );
 564://MAC/Home/Downloads/getstarted-optiga-trust-m/optiga-trust-m-1/externals/mbedtls/library/aes.c **** 
 565://MAC/Home/Downloads/getstarted-optiga-trust-m/optiga-trust-m-1/externals/mbedtls/library/aes.c ****     switch( keybits )
 485              	 .loc 1 565 0
 486 0002 C02A     	 cmp r2,#192
 487 0004 08D0     	 beq .L31
 488 0006 8023     	 mov r3,#128
 489 0008 5B00     	 lsl r3,r3,#1
 490 000a 9A42     	 cmp r2,r3
 491 000c 06D0     	 beq .L32
 566://MAC/Home/Downloads/getstarted-optiga-trust-m/optiga-trust-m-1/externals/mbedtls/library/aes.c ****     {
 567://MAC/Home/Downloads/getstarted-optiga-trust-m/optiga-trust-m-1/externals/mbedtls/library/aes.c ****         case 128: ctx->nr = 10; break;
 492              	 .loc 1 567 0
 493 000e F63B     	 sub r3,r3,#246
 565://MAC/Home/Downloads/getstarted-optiga-trust-m/optiga-trust-m-1/externals/mbedtls/library/aes.c ****     {
 494              	 .loc 1 565 0
 495 0010 802A     	 cmp r2,#128
 496 0012 00D0     	 beq .LCB438
 497 0014 D0E0     	 b .L50
 498              	.LCB438:
 499 0016 02E0     	 b .L49
 500              	.L31:
 568://MAC/Home/Downloads/getstarted-optiga-trust-m/optiga-trust-m-1/externals/mbedtls/library/aes.c ****         case 192: ctx->nr = 12; break;
 501              	 .loc 1 568 0
 502 0018 0C23     	 mov r3,#12
 503 001a 00E0     	 b .L49
 504              	.L32:
 569://MAC/Home/Downloads/getstarted-optiga-trust-m/optiga-trust-m-1/externals/mbedtls/library/aes.c ****         case 256: ctx->nr = 14; break;
 505              	 .loc 1 569 0
 506 001c 0E23     	 mov r3,#14
 507              	.L49:
 570://MAC/Home/Downloads/getstarted-optiga-trust-m/optiga-trust-m-1/externals/mbedtls/library/aes.c ****         default : return( MBEDTLS_ERR_AES_INVALID_KEY_LENGTH );
 571://MAC/Home/Downloads/getstarted-optiga-trust-m/optiga-trust-m-1/externals/mbedtls/library/aes.c ****     }
 572://MAC/Home/Downloads/getstarted-optiga-trust-m/optiga-trust-m-1/externals/mbedtls/library/aes.c **** 
 573://MAC/Home/Downloads/getstarted-optiga-trust-m/optiga-trust-m-1/externals/mbedtls/library/aes.c **** #if !defined(MBEDTLS_AES_ROM_TABLES)
 574://MAC/Home/Downloads/getstarted-optiga-trust-m/optiga-trust-m-1/externals/mbedtls/library/aes.c ****     if( aes_init_done == 0 )
 508              	 .loc 1 574 0
 509 001e 694F     	 ldr r7,.L52
 569://MAC/Home/Downloads/getstarted-optiga-trust-m/optiga-trust-m-1/externals/mbedtls/library/aes.c ****         case 256: ctx->nr = 14; break;
 510              	 .loc 1 569 0
 511 0020 0360     	 str r3,[r0]
 512              	 .loc 1 574 0
 513 0022 3B68     	 ldr r3,[r7]
 514 0024 151C     	 mov r5,r2
 515 0026 0E1C     	 mov r6,r1
 516 0028 041C     	 mov r4,r0
 517 002a 002B     	 cmp r3,#0
 518 002c 03D1     	 bne .L35
 575://MAC/Home/Downloads/getstarted-optiga-trust-m/optiga-trust-m-1/externals/mbedtls/library/aes.c ****     {
 576://MAC/Home/Downloads/getstarted-optiga-trust-m/optiga-trust-m-1/externals/mbedtls/library/aes.c ****         aes_gen_tables();
 519              	 .loc 1 576 0
 520 002e FFF7FEFF 	 bl aes_gen_tables
 521              	.LVL47:
 577://MAC/Home/Downloads/getstarted-optiga-trust-m/optiga-trust-m-1/externals/mbedtls/library/aes.c ****         aes_init_done = 1;
 522              	 .loc 1 577 0
 523 0032 0123     	 mov r3,#1
 524 0034 3B60     	 str r3,[r7]
 525              	.L35:
 578://MAC/Home/Downloads/getstarted-optiga-trust-m/optiga-trust-m-1/externals/mbedtls/library/aes.c ****     }
 579://MAC/Home/Downloads/getstarted-optiga-trust-m/optiga-trust-m-1/externals/mbedtls/library/aes.c **** #endif
 580://MAC/Home/Downloads/getstarted-optiga-trust-m/optiga-trust-m-1/externals/mbedtls/library/aes.c **** 
 581://MAC/Home/Downloads/getstarted-optiga-trust-m/optiga-trust-m-1/externals/mbedtls/library/aes.c **** #if defined(MBEDTLS_PADLOCK_C) && defined(MBEDTLS_PADLOCK_ALIGN16)
 582://MAC/Home/Downloads/getstarted-optiga-trust-m/optiga-trust-m-1/externals/mbedtls/library/aes.c ****     if( aes_padlock_ace == -1 )
 583://MAC/Home/Downloads/getstarted-optiga-trust-m/optiga-trust-m-1/externals/mbedtls/library/aes.c ****         aes_padlock_ace = mbedtls_padlock_has_support( MBEDTLS_PADLOCK_ACE );
 584://MAC/Home/Downloads/getstarted-optiga-trust-m/optiga-trust-m-1/externals/mbedtls/library/aes.c **** 
 585://MAC/Home/Downloads/getstarted-optiga-trust-m/optiga-trust-m-1/externals/mbedtls/library/aes.c ****     if( aes_padlock_ace )
 586://MAC/Home/Downloads/getstarted-optiga-trust-m/optiga-trust-m-1/externals/mbedtls/library/aes.c ****         ctx->rk = RK = MBEDTLS_PADLOCK_ALIGN16( ctx->buf );
 587://MAC/Home/Downloads/getstarted-optiga-trust-m/optiga-trust-m-1/externals/mbedtls/library/aes.c ****     else
 588://MAC/Home/Downloads/getstarted-optiga-trust-m/optiga-trust-m-1/externals/mbedtls/library/aes.c **** #endif
 589://MAC/Home/Downloads/getstarted-optiga-trust-m/optiga-trust-m-1/externals/mbedtls/library/aes.c ****     ctx->rk = RK = ctx->buf;
 526              	 .loc 1 589 0
 527 0036 231C     	 mov r3,r4
 590://MAC/Home/Downloads/getstarted-optiga-trust-m/optiga-trust-m-1/externals/mbedtls/library/aes.c **** 
 591://MAC/Home/Downloads/getstarted-optiga-trust-m/optiga-trust-m-1/externals/mbedtls/library/aes.c **** #if defined(MBEDTLS_AESNI_C) && defined(MBEDTLS_HAVE_X86_64)
 592://MAC/Home/Downloads/getstarted-optiga-trust-m/optiga-trust-m-1/externals/mbedtls/library/aes.c ****     if( mbedtls_aesni_has_support( MBEDTLS_AESNI_AES ) )
 593://MAC/Home/Downloads/getstarted-optiga-trust-m/optiga-trust-m-1/externals/mbedtls/library/aes.c ****         return( mbedtls_aesni_setkey_enc( (unsigned char *) ctx->rk, key, keybits ) );
 594://MAC/Home/Downloads/getstarted-optiga-trust-m/optiga-trust-m-1/externals/mbedtls/library/aes.c **** #endif
 595://MAC/Home/Downloads/getstarted-optiga-trust-m/optiga-trust-m-1/externals/mbedtls/library/aes.c **** 
 596://MAC/Home/Downloads/getstarted-optiga-trust-m/optiga-trust-m-1/externals/mbedtls/library/aes.c ****     for( i = 0; i < ( keybits >> 5 ); i++ )
 528              	 .loc 1 596 0
 529 0038 0020     	 mov r0,#0
 589://MAC/Home/Downloads/getstarted-optiga-trust-m/optiga-trust-m-1/externals/mbedtls/library/aes.c **** 
 530              	 .loc 1 589 0
 531 003a 0833     	 add r3,r3,#8
 532              	.LVL48:
 533              	 .loc 1 596 0
 534 003c 6A09     	 lsr r2,r5,#5
 589://MAC/Home/Downloads/getstarted-optiga-trust-m/optiga-trust-m-1/externals/mbedtls/library/aes.c **** 
 535              	 .loc 1 589 0
 536 003e 6360     	 str r3,[r4,#4]
 537              	.LVL49:
 538              	 .loc 1 596 0
 539 0040 0192     	 str r2,[sp,#4]
 540              	.LVL50:
 541              	.L36:
 542              	 .loc 1 596 0 is_stmt 0 discriminator 1
 543 0042 019A     	 ldr r2,[sp,#4]
 544 0044 9042     	 cmp r0,r2
 545 0046 10D0     	 beq .L51
 597://MAC/Home/Downloads/getstarted-optiga-trust-m/optiga-trust-m-1/externals/mbedtls/library/aes.c ****     {
 598://MAC/Home/Downloads/getstarted-optiga-trust-m/optiga-trust-m-1/externals/mbedtls/library/aes.c ****         GET_UINT32_LE( RK[i], key, i << 2 );
 546              	 .loc 1 598 0 is_stmt 1 discriminator 3
 547 0048 8700     	 lsl r7,r0,#2
 548 004a F119     	 add r1,r6,r7
 549 004c 4A78     	 ldrb r2,[r1,#1]
 596://MAC/Home/Downloads/getstarted-optiga-trust-m/optiga-trust-m-1/externals/mbedtls/library/aes.c ****     {
 550              	 .loc 1 596 0 discriminator 3
 551 004e 0130     	 add r0,r0,#1
 552              	.LVL51:
 553              	 .loc 1 598 0 discriminator 3
 554 0050 1202     	 lsl r2,r2,#8
 555 0052 9446     	 mov ip,r2
 556 0054 6546     	 mov r5,ip
 557 0056 8A78     	 ldrb r2,[r1,#2]
 558 0058 C978     	 ldrb r1,[r1,#3]
 559 005a 1204     	 lsl r2,r2,#16
 560 005c 2A43     	 orr r2,r5
 561 005e F55D     	 ldrb r5,[r6,r7]
 562 0060 0906     	 lsl r1,r1,#24
 563 0062 2A43     	 orr r2,r5
 564 0064 0A43     	 orr r2,r1
 565 0066 DA51     	 str r2,[r3,r7]
 566 0068 EBE7     	 b .L36
 567              	.L51:
 599://MAC/Home/Downloads/getstarted-optiga-trust-m/optiga-trust-m-1/externals/mbedtls/library/aes.c ****     }
 600://MAC/Home/Downloads/getstarted-optiga-trust-m/optiga-trust-m-1/externals/mbedtls/library/aes.c **** 
 601://MAC/Home/Downloads/getstarted-optiga-trust-m/optiga-trust-m-1/externals/mbedtls/library/aes.c ****     switch( ctx->nr )
 568              	 .loc 1 601 0
 569 006a 2268     	 ldr r2,[r4]
 570 006c 0C2A     	 cmp r2,#12
 571 006e 2DD0     	 beq .L38
 572 0070 0E2A     	 cmp r2,#14
 573 0072 5AD0     	 beq .L39
 574 0074 0A2A     	 cmp r2,#10
 575 0076 00D0     	 beq .LCB519
 576 0078 A1E0     	 b .L48
 577              	.LCB519:
 578              	 .loc 1 601 0 is_stmt 0 discriminator 3
 579 007a 0025     	 mov r5,#0
 580              	.LVL52:
 581              	.L41:
 602://MAC/Home/Downloads/getstarted-optiga-trust-m/optiga-trust-m-1/externals/mbedtls/library/aes.c ****     {
 603://MAC/Home/Downloads/getstarted-optiga-trust-m/optiga-trust-m-1/externals/mbedtls/library/aes.c ****         case 10:
 604://MAC/Home/Downloads/getstarted-optiga-trust-m/optiga-trust-m-1/externals/mbedtls/library/aes.c **** 
 605://MAC/Home/Downloads/getstarted-optiga-trust-m/optiga-trust-m-1/externals/mbedtls/library/aes.c ****             for( i = 0; i < 10; i++, RK += 4 )
 606://MAC/Home/Downloads/getstarted-optiga-trust-m/optiga-trust-m-1/externals/mbedtls/library/aes.c ****             {
 607://MAC/Home/Downloads/getstarted-optiga-trust-m/optiga-trust-m-1/externals/mbedtls/library/aes.c ****                 RK[4]  = RK[0] ^ RCON[i] ^
 582              	 .loc 1 607 0 is_stmt 1 discriminator 3
 583 007c 524A     	 ldr r2,.L52+4
 608://MAC/Home/Downloads/getstarted-optiga-trust-m/optiga-trust-m-1/externals/mbedtls/library/aes.c ****                 ( (uint32_t) FSb[ ( RK[3] >>  8 ) & 0xFF ]       ) ^
 584              	 .loc 1 608 0 discriminator 3
 585 007e DC68     	 ldr r4,[r3,#12]
 586 0080 A958     	 ldr r1,[r5,r2]
 587 0082 1A68     	 ldr r2,[r3]
 588 0084 514F     	 ldr r7,.L52+8
 589 0086 5140     	 eor r1,r2
 590 0088 FF22     	 mov r2,#255
 591 008a 200A     	 lsr r0,r4,#8
 592 008c 1040     	 and r0,r2
 593 008e 3E5C     	 ldrb r6,[r7,r0]
 609://MAC/Home/Downloads/getstarted-optiga-trust-m/optiga-trust-m-1/externals/mbedtls/library/aes.c ****                 ( (uint32_t) FSb[ ( RK[3] >> 16 ) & 0xFF ] <<  8 ) ^
 610://MAC/Home/Downloads/getstarted-optiga-trust-m/optiga-trust-m-1/externals/mbedtls/library/aes.c ****                 ( (uint32_t) FSb[ ( RK[3] >> 24 ) & 0xFF ] << 16 ) ^
 594              	 .loc 1 610 0 discriminator 3
 595 0090 200E     	 lsr r0,r4,#24
 596 0092 7140     	 eor r1,r6
 597 0094 3E5C     	 ldrb r6,[r7,r0]
 598 0096 0435     	 add r5,r5,#4
 599 0098 3604     	 lsl r6,r6,#16
 600 009a 7140     	 eor r1,r6
 601 009c 081C     	 mov r0,r1
 611://MAC/Home/Downloads/getstarted-optiga-trust-m/optiga-trust-m-1/externals/mbedtls/library/aes.c ****                 ( (uint32_t) FSb[ ( RK[3]       ) & 0xFF ] << 24 );
 602              	 .loc 1 611 0 discriminator 3
 603 009e 211C     	 mov r1,r4
 604 00a0 1140     	 and r1,r2
 605 00a2 795C     	 ldrb r1,[r7,r1]
 606 00a4 0906     	 lsl r1,r1,#24
 607 00a6 4140     	 eor r1,r0
 609://MAC/Home/Downloads/getstarted-optiga-trust-m/optiga-trust-m-1/externals/mbedtls/library/aes.c ****                 ( (uint32_t) FSb[ ( RK[3] >> 16 ) & 0xFF ] <<  8 ) ^
 608              	 .loc 1 609 0 discriminator 3
 609 00a8 200C     	 lsr r0,r4,#16
 610 00aa 0240     	 and r2,r0
 611 00ac B85C     	 ldrb r0,[r7,r2]
 612://MAC/Home/Downloads/getstarted-optiga-trust-m/optiga-trust-m-1/externals/mbedtls/library/aes.c **** 
 613://MAC/Home/Downloads/getstarted-optiga-trust-m/optiga-trust-m-1/externals/mbedtls/library/aes.c ****                 RK[5]  = RK[1] ^ RK[4];
 612              	 .loc 1 613 0 discriminator 3
 613 00ae 5A68     	 ldr r2,[r3,#4]
 609://MAC/Home/Downloads/getstarted-optiga-trust-m/optiga-trust-m-1/externals/mbedtls/library/aes.c ****                 ( (uint32_t) FSb[ ( RK[3] >> 24 ) & 0xFF ] << 16 ) ^
 614              	 .loc 1 609 0 discriminator 3
 615 00b0 0002     	 lsl r0,r0,#8
 610://MAC/Home/Downloads/getstarted-optiga-trust-m/optiga-trust-m-1/externals/mbedtls/library/aes.c ****                 ( (uint32_t) FSb[ ( RK[3]       ) & 0xFF ] << 24 );
 616              	 .loc 1 610 0 discriminator 3
 617 00b2 4140     	 eor r1,r0
 618              	 .loc 1 613 0 discriminator 3
 619 00b4 4A40     	 eor r2,r1
 607://MAC/Home/Downloads/getstarted-optiga-trust-m/optiga-trust-m-1/externals/mbedtls/library/aes.c ****                 ( (uint32_t) FSb[ ( RK[3] >>  8 ) & 0xFF ]       ) ^
 620              	 .loc 1 607 0 discriminator 3
 621 00b6 1961     	 str r1,[r3,#16]
 614://MAC/Home/Downloads/getstarted-optiga-trust-m/optiga-trust-m-1/externals/mbedtls/library/aes.c ****                 RK[6]  = RK[2] ^ RK[5];
 622              	 .loc 1 614 0 discriminator 3
 623 00b8 9968     	 ldr r1,[r3,#8]
 613://MAC/Home/Downloads/getstarted-optiga-trust-m/optiga-trust-m-1/externals/mbedtls/library/aes.c ****                 RK[6]  = RK[2] ^ RK[5];
 624              	 .loc 1 613 0 discriminator 3
 625 00ba 5A61     	 str r2,[r3,#20]
 626              	 .loc 1 614 0 discriminator 3
 627 00bc 4A40     	 eor r2,r1
 628 00be 9A61     	 str r2,[r3,#24]
 615://MAC/Home/Downloads/getstarted-optiga-trust-m/optiga-trust-m-1/externals/mbedtls/library/aes.c ****                 RK[7]  = RK[3] ^ RK[6];
 629              	 .loc 1 615 0 discriminator 3
 630 00c0 6240     	 eor r2,r4
 631 00c2 DA61     	 str r2,[r3,#28]
 605://MAC/Home/Downloads/getstarted-optiga-trust-m/optiga-trust-m-1/externals/mbedtls/library/aes.c ****             {
 632              	 .loc 1 605 0 discriminator 3
 633 00c4 1033     	 add r3,r3,#16
 634              	.LVL53:
 635 00c6 282D     	 cmp r5,#40
 636 00c8 D8D1     	 bne .L41
 637 00ca 78E0     	 b .L48
 638              	.LVL54:
 639              	.L38:
 601://MAC/Home/Downloads/getstarted-optiga-trust-m/optiga-trust-m-1/externals/mbedtls/library/aes.c ****     {
 640              	 .loc 1 601 0 discriminator 3
 641 00cc 0025     	 mov r5,#0
 642              	.LVL55:
 643              	.L42:
 616://MAC/Home/Downloads/getstarted-optiga-trust-m/optiga-trust-m-1/externals/mbedtls/library/aes.c ****             }
 617://MAC/Home/Downloads/getstarted-optiga-trust-m/optiga-trust-m-1/externals/mbedtls/library/aes.c ****             break;
 618://MAC/Home/Downloads/getstarted-optiga-trust-m/optiga-trust-m-1/externals/mbedtls/library/aes.c **** 
 619://MAC/Home/Downloads/getstarted-optiga-trust-m/optiga-trust-m-1/externals/mbedtls/library/aes.c ****         case 12:
 620://MAC/Home/Downloads/getstarted-optiga-trust-m/optiga-trust-m-1/externals/mbedtls/library/aes.c **** 
 621://MAC/Home/Downloads/getstarted-optiga-trust-m/optiga-trust-m-1/externals/mbedtls/library/aes.c ****             for( i = 0; i < 8; i++, RK += 6 )
 622://MAC/Home/Downloads/getstarted-optiga-trust-m/optiga-trust-m-1/externals/mbedtls/library/aes.c ****             {
 623://MAC/Home/Downloads/getstarted-optiga-trust-m/optiga-trust-m-1/externals/mbedtls/library/aes.c ****                 RK[6]  = RK[0] ^ RCON[i] ^
 624://MAC/Home/Downloads/getstarted-optiga-trust-m/optiga-trust-m-1/externals/mbedtls/library/aes.c ****                 ( (uint32_t) FSb[ ( RK[5] >>  8 ) & 0xFF ]       ) ^
 644              	 .loc 1 624 0 discriminator 3
 645 00ce FF20     	 mov r0,#255
 623://MAC/Home/Downloads/getstarted-optiga-trust-m/optiga-trust-m-1/externals/mbedtls/library/aes.c ****                 ( (uint32_t) FSb[ ( RK[5] >>  8 ) & 0xFF ]       ) ^
 646              	 .loc 1 623 0 discriminator 3
 647 00d0 3D4A     	 ldr r2,.L52+4
 648              	 .loc 1 624 0 discriminator 3
 649 00d2 5C69     	 ldr r4,[r3,#20]
 650 00d4 A958     	 ldr r1,[r5,r2]
 651 00d6 1A68     	 ldr r2,[r3]
 652 00d8 3C4F     	 ldr r7,.L52+8
 653 00da 5140     	 eor r1,r2
 654 00dc 220A     	 lsr r2,r4,#8
 655 00de 0240     	 and r2,r0
 656 00e0 BE5C     	 ldrb r6,[r7,r2]
 625://MAC/Home/Downloads/getstarted-optiga-trust-m/optiga-trust-m-1/externals/mbedtls/library/aes.c ****                 ( (uint32_t) FSb[ ( RK[5] >> 16 ) & 0xFF ] <<  8 ) ^
 626://MAC/Home/Downloads/getstarted-optiga-trust-m/optiga-trust-m-1/externals/mbedtls/library/aes.c ****                 ( (uint32_t) FSb[ ( RK[5] >> 24 ) & 0xFF ] << 16 ) ^
 657              	 .loc 1 626 0 discriminator 3
 658 00e2 220E     	 lsr r2,r4,#24
 659 00e4 7140     	 eor r1,r6
 660 00e6 BE5C     	 ldrb r6,[r7,r2]
 661 00e8 0A1C     	 mov r2,r1
 627://MAC/Home/Downloads/getstarted-optiga-trust-m/optiga-trust-m-1/externals/mbedtls/library/aes.c ****                 ( (uint32_t) FSb[ ( RK[5]       ) & 0xFF ] << 24 );
 662              	 .loc 1 627 0 discriminator 3
 663 00ea 211C     	 mov r1,r4
 664 00ec 0140     	 and r1,r0
 665 00ee 795C     	 ldrb r1,[r7,r1]
 626://MAC/Home/Downloads/getstarted-optiga-trust-m/optiga-trust-m-1/externals/mbedtls/library/aes.c ****                 ( (uint32_t) FSb[ ( RK[5]       ) & 0xFF ] << 24 );
 666              	 .loc 1 626 0 discriminator 3
 667 00f0 3604     	 lsl r6,r6,#16
 668 00f2 7240     	 eor r2,r6
 669              	 .loc 1 627 0 discriminator 3
 670 00f4 0906     	 lsl r1,r1,#24
 671 00f6 5140     	 eor r1,r2
 625://MAC/Home/Downloads/getstarted-optiga-trust-m/optiga-trust-m-1/externals/mbedtls/library/aes.c ****                 ( (uint32_t) FSb[ ( RK[5] >> 16 ) & 0xFF ] <<  8 ) ^
 672              	 .loc 1 625 0 discriminator 3
 673 00f8 220C     	 lsr r2,r4,#16
 674 00fa 1040     	 and r0,r2
 675 00fc 385C     	 ldrb r0,[r7,r0]
 628://MAC/Home/Downloads/getstarted-optiga-trust-m/optiga-trust-m-1/externals/mbedtls/library/aes.c **** 
 629://MAC/Home/Downloads/getstarted-optiga-trust-m/optiga-trust-m-1/externals/mbedtls/library/aes.c ****                 RK[7]  = RK[1] ^ RK[6];
 676              	 .loc 1 629 0 discriminator 3
 677 00fe 5A68     	 ldr r2,[r3,#4]
 625://MAC/Home/Downloads/getstarted-optiga-trust-m/optiga-trust-m-1/externals/mbedtls/library/aes.c ****                 ( (uint32_t) FSb[ ( RK[5] >> 24 ) & 0xFF ] << 16 ) ^
 678              	 .loc 1 625 0 discriminator 3
 679 0100 0002     	 lsl r0,r0,#8
 626://MAC/Home/Downloads/getstarted-optiga-trust-m/optiga-trust-m-1/externals/mbedtls/library/aes.c ****                 ( (uint32_t) FSb[ ( RK[5]       ) & 0xFF ] << 24 );
 680              	 .loc 1 626 0 discriminator 3
 681 0102 4140     	 eor r1,r0
 682              	 .loc 1 629 0 discriminator 3
 683 0104 4A40     	 eor r2,r1
 623://MAC/Home/Downloads/getstarted-optiga-trust-m/optiga-trust-m-1/externals/mbedtls/library/aes.c ****                 ( (uint32_t) FSb[ ( RK[5] >>  8 ) & 0xFF ]       ) ^
 684              	 .loc 1 623 0 discriminator 3
 685 0106 9961     	 str r1,[r3,#24]
 630://MAC/Home/Downloads/getstarted-optiga-trust-m/optiga-trust-m-1/externals/mbedtls/library/aes.c ****                 RK[8]  = RK[2] ^ RK[7];
 686              	 .loc 1 630 0 discriminator 3
 687 0108 9968     	 ldr r1,[r3,#8]
 629://MAC/Home/Downloads/getstarted-optiga-trust-m/optiga-trust-m-1/externals/mbedtls/library/aes.c ****                 RK[8]  = RK[2] ^ RK[7];
 688              	 .loc 1 629 0 discriminator 3
 689 010a DA61     	 str r2,[r3,#28]
 690              	 .loc 1 630 0 discriminator 3
 691 010c 4A40     	 eor r2,r1
 631://MAC/Home/Downloads/getstarted-optiga-trust-m/optiga-trust-m-1/externals/mbedtls/library/aes.c ****                 RK[9]  = RK[3] ^ RK[8];
 692              	 .loc 1 631 0 discriminator 3
 693 010e D968     	 ldr r1,[r3,#12]
 630://MAC/Home/Downloads/getstarted-optiga-trust-m/optiga-trust-m-1/externals/mbedtls/library/aes.c ****                 RK[8]  = RK[2] ^ RK[7];
 694              	 .loc 1 630 0 discriminator 3
 695 0110 1A62     	 str r2,[r3,#32]
 696              	 .loc 1 631 0 discriminator 3
 697 0112 4A40     	 eor r2,r1
 632://MAC/Home/Downloads/getstarted-optiga-trust-m/optiga-trust-m-1/externals/mbedtls/library/aes.c ****                 RK[10] = RK[4] ^ RK[9];
 698              	 .loc 1 632 0 discriminator 3
 699 0114 1969     	 ldr r1,[r3,#16]
 631://MAC/Home/Downloads/getstarted-optiga-trust-m/optiga-trust-m-1/externals/mbedtls/library/aes.c ****                 RK[9]  = RK[3] ^ RK[8];
 700              	 .loc 1 631 0 discriminator 3
 701 0116 5A62     	 str r2,[r3,#36]
 702              	 .loc 1 632 0 discriminator 3
 703 0118 4A40     	 eor r2,r1
 704 011a 9A62     	 str r2,[r3,#40]
 705 011c 0435     	 add r5,r5,#4
 633://MAC/Home/Downloads/getstarted-optiga-trust-m/optiga-trust-m-1/externals/mbedtls/library/aes.c ****                 RK[11] = RK[5] ^ RK[10];
 706              	 .loc 1 633 0 discriminator 3
 707 011e 6240     	 eor r2,r4
 708 0120 DA62     	 str r2,[r3,#44]
 621://MAC/Home/Downloads/getstarted-optiga-trust-m/optiga-trust-m-1/externals/mbedtls/library/aes.c ****             {
 709              	 .loc 1 621 0 discriminator 3
 710 0122 1833     	 add r3,r3,#24
 711              	.LVL56:
 712 0124 202D     	 cmp r5,#32
 713 0126 D2D1     	 bne .L42
 714 0128 49E0     	 b .L48
 715              	.LVL57:
 716              	.L39:
 601://MAC/Home/Downloads/getstarted-optiga-trust-m/optiga-trust-m-1/externals/mbedtls/library/aes.c ****     {
 717              	 .loc 1 601 0 discriminator 3
 718 012a 0026     	 mov r6,#0
 719              	.LVL58:
 720              	.L44:
 634://MAC/Home/Downloads/getstarted-optiga-trust-m/optiga-trust-m-1/externals/mbedtls/library/aes.c ****             }
 635://MAC/Home/Downloads/getstarted-optiga-trust-m/optiga-trust-m-1/externals/mbedtls/library/aes.c ****             break;
 636://MAC/Home/Downloads/getstarted-optiga-trust-m/optiga-trust-m-1/externals/mbedtls/library/aes.c **** 
 637://MAC/Home/Downloads/getstarted-optiga-trust-m/optiga-trust-m-1/externals/mbedtls/library/aes.c ****         case 14:
 638://MAC/Home/Downloads/getstarted-optiga-trust-m/optiga-trust-m-1/externals/mbedtls/library/aes.c **** 
 639://MAC/Home/Downloads/getstarted-optiga-trust-m/optiga-trust-m-1/externals/mbedtls/library/aes.c ****             for( i = 0; i < 7; i++, RK += 8 )
 640://MAC/Home/Downloads/getstarted-optiga-trust-m/optiga-trust-m-1/externals/mbedtls/library/aes.c ****             {
 641://MAC/Home/Downloads/getstarted-optiga-trust-m/optiga-trust-m-1/externals/mbedtls/library/aes.c ****                 RK[8]  = RK[0] ^ RCON[i] ^
 642://MAC/Home/Downloads/getstarted-optiga-trust-m/optiga-trust-m-1/externals/mbedtls/library/aes.c ****                 ( (uint32_t) FSb[ ( RK[7] >>  8 ) & 0xFF ]       ) ^
 721              	 .loc 1 642 0 discriminator 3
 722 012c FF20     	 mov r0,#255
 641://MAC/Home/Downloads/getstarted-optiga-trust-m/optiga-trust-m-1/externals/mbedtls/library/aes.c ****                 ( (uint32_t) FSb[ ( RK[7] >>  8 ) & 0xFF ]       ) ^
 723              	 .loc 1 641 0 discriminator 3
 724 012e 264A     	 ldr r2,.L52+4
 725              	 .loc 1 642 0 discriminator 3
 726 0130 DD69     	 ldr r5,[r3,#28]
 727 0132 B258     	 ldr r2,[r6,r2]
 728 0134 1968     	 ldr r1,[r3]
 729 0136 254C     	 ldr r4,.L52+8
 730 0138 4A40     	 eor r2,r1
 731 013a 290A     	 lsr r1,r5,#8
 732 013c 0140     	 and r1,r0
 733 013e 675C     	 ldrb r7,[r4,r1]
 643://MAC/Home/Downloads/getstarted-optiga-trust-m/optiga-trust-m-1/externals/mbedtls/library/aes.c ****                 ( (uint32_t) FSb[ ( RK[7] >> 16 ) & 0xFF ] <<  8 ) ^
 644://MAC/Home/Downloads/getstarted-optiga-trust-m/optiga-trust-m-1/externals/mbedtls/library/aes.c ****                 ( (uint32_t) FSb[ ( RK[7] >> 24 ) & 0xFF ] << 16 ) ^
 734              	 .loc 1 644 0 discriminator 3
 735 0140 290E     	 lsr r1,r5,#24
 736 0142 7A40     	 eor r2,r7
 737 0144 675C     	 ldrb r7,[r4,r1]
 738 0146 0436     	 add r6,r6,#4
 739 0148 3F04     	 lsl r7,r7,#16
 740 014a 7A40     	 eor r2,r7
 741 014c 111C     	 mov r1,r2
 645://MAC/Home/Downloads/getstarted-optiga-trust-m/optiga-trust-m-1/externals/mbedtls/library/aes.c ****                 ( (uint32_t) FSb[ ( RK[7]       ) & 0xFF ] << 24 );
 742              	 .loc 1 645 0 discriminator 3
 743 014e 2A1C     	 mov r2,r5
 744 0150 0240     	 and r2,r0
 745 0152 A25C     	 ldrb r2,[r4,r2]
 746 0154 1206     	 lsl r2,r2,#24
 747 0156 4A40     	 eor r2,r1
 643://MAC/Home/Downloads/getstarted-optiga-trust-m/optiga-trust-m-1/externals/mbedtls/library/aes.c ****                 ( (uint32_t) FSb[ ( RK[7] >> 16 ) & 0xFF ] <<  8 ) ^
 748              	 .loc 1 643 0 discriminator 3
 749 0158 290C     	 lsr r1,r5,#16
 750 015a 0140     	 and r1,r0
 751 015c 615C     	 ldrb r1,[r4,r1]
 752 015e 0902     	 lsl r1,r1,#8
 644://MAC/Home/Downloads/getstarted-optiga-trust-m/optiga-trust-m-1/externals/mbedtls/library/aes.c ****                 ( (uint32_t) FSb[ ( RK[7]       ) & 0xFF ] << 24 );
 753              	 .loc 1 644 0 discriminator 3
 754 0160 4A40     	 eor r2,r1
 646://MAC/Home/Downloads/getstarted-optiga-trust-m/optiga-trust-m-1/externals/mbedtls/library/aes.c **** 
 647://MAC/Home/Downloads/getstarted-optiga-trust-m/optiga-trust-m-1/externals/mbedtls/library/aes.c ****                 RK[9]  = RK[1] ^ RK[8];
 755              	 .loc 1 647 0 discriminator 3
 756 0162 5968     	 ldr r1,[r3,#4]
 641://MAC/Home/Downloads/getstarted-optiga-trust-m/optiga-trust-m-1/externals/mbedtls/library/aes.c ****                 ( (uint32_t) FSb[ ( RK[7] >>  8 ) & 0xFF ]       ) ^
 757              	 .loc 1 641 0 discriminator 3
 758 0164 1A62     	 str r2,[r3,#32]
 759              	 .loc 1 647 0 discriminator 3
 760 0166 4A40     	 eor r2,r1
 648://MAC/Home/Downloads/getstarted-optiga-trust-m/optiga-trust-m-1/externals/mbedtls/library/aes.c ****                 RK[10] = RK[2] ^ RK[9];
 761              	 .loc 1 648 0 discriminator 3
 762 0168 9968     	 ldr r1,[r3,#8]
 647://MAC/Home/Downloads/getstarted-optiga-trust-m/optiga-trust-m-1/externals/mbedtls/library/aes.c ****                 RK[10] = RK[2] ^ RK[9];
 763              	 .loc 1 647 0 discriminator 3
 764 016a 5A62     	 str r2,[r3,#36]
 765              	 .loc 1 648 0 discriminator 3
 766 016c 4A40     	 eor r2,r1
 649://MAC/Home/Downloads/getstarted-optiga-trust-m/optiga-trust-m-1/externals/mbedtls/library/aes.c ****                 RK[11] = RK[3] ^ RK[10];
 767              	 .loc 1 649 0 discriminator 3
 768 016e D968     	 ldr r1,[r3,#12]
 648://MAC/Home/Downloads/getstarted-optiga-trust-m/optiga-trust-m-1/externals/mbedtls/library/aes.c ****                 RK[10] = RK[2] ^ RK[9];
 769              	 .loc 1 648 0 discriminator 3
 770 0170 9A62     	 str r2,[r3,#40]
 771              	 .loc 1 649 0 discriminator 3
 772 0172 4A40     	 eor r2,r1
 650://MAC/Home/Downloads/getstarted-optiga-trust-m/optiga-trust-m-1/externals/mbedtls/library/aes.c **** 
 651://MAC/Home/Downloads/getstarted-optiga-trust-m/optiga-trust-m-1/externals/mbedtls/library/aes.c ****                 RK[12] = RK[4] ^
 652://MAC/Home/Downloads/getstarted-optiga-trust-m/optiga-trust-m-1/externals/mbedtls/library/aes.c ****                 ( (uint32_t) FSb[ ( RK[11]       ) & 0xFF ]       ) ^
 773              	 .loc 1 652 0 discriminator 3
 774 0174 111C     	 mov r1,r2
 649://MAC/Home/Downloads/getstarted-optiga-trust-m/optiga-trust-m-1/externals/mbedtls/library/aes.c ****                 RK[11] = RK[3] ^ RK[10];
 775              	 .loc 1 649 0 discriminator 3
 776 0176 DA62     	 str r2,[r3,#44]
 777              	 .loc 1 652 0 discriminator 3
 778 0178 0140     	 and r1,r0
 779 017a 675C     	 ldrb r7,[r4,r1]
 780 017c 1969     	 ldr r1,[r3,#16]
 781 017e 4F40     	 eor r7,r1
 653://MAC/Home/Downloads/getstarted-optiga-trust-m/optiga-trust-m-1/externals/mbedtls/library/aes.c ****                 ( (uint32_t) FSb[ ( RK[11] >>  8 ) & 0xFF ] <<  8 ) ^
 654://MAC/Home/Downloads/getstarted-optiga-trust-m/optiga-trust-m-1/externals/mbedtls/library/aes.c ****                 ( (uint32_t) FSb[ ( RK[11] >> 16 ) & 0xFF ] << 16 ) ^
 655://MAC/Home/Downloads/getstarted-optiga-trust-m/optiga-trust-m-1/externals/mbedtls/library/aes.c ****                 ( (uint32_t) FSb[ ( RK[11] >> 24 ) & 0xFF ] << 24 );
 782              	 .loc 1 655 0 discriminator 3
 783 0180 110E     	 lsr r1,r2,#24
 784 0182 615C     	 ldrb r1,[r4,r1]
 785 0184 0906     	 lsl r1,r1,#24
 786 0186 7940     	 eor r1,r7
 653://MAC/Home/Downloads/getstarted-optiga-trust-m/optiga-trust-m-1/externals/mbedtls/library/aes.c ****                 ( (uint32_t) FSb[ ( RK[11] >>  8 ) & 0xFF ] <<  8 ) ^
 787              	 .loc 1 653 0 discriminator 3
 788 0188 170A     	 lsr r7,r2,#8
 789 018a 0740     	 and r7,r0
 790 018c E75D     	 ldrb r7,[r4,r7]
 791 018e 3F02     	 lsl r7,r7,#8
 792 0190 4F40     	 eor r7,r1
 654://MAC/Home/Downloads/getstarted-optiga-trust-m/optiga-trust-m-1/externals/mbedtls/library/aes.c ****                 ( (uint32_t) FSb[ ( RK[11] >> 24 ) & 0xFF ] << 24 );
 793              	 .loc 1 654 0 discriminator 3
 794 0192 110C     	 lsr r1,r2,#16
 795 0194 0A1C     	 mov r2,r1
 796 0196 0240     	 and r2,r0
 797 0198 A25C     	 ldrb r2,[r4,r2]
 656://MAC/Home/Downloads/getstarted-optiga-trust-m/optiga-trust-m-1/externals/mbedtls/library/aes.c **** 
 657://MAC/Home/Downloads/getstarted-optiga-trust-m/optiga-trust-m-1/externals/mbedtls/library/aes.c ****                 RK[13] = RK[5] ^ RK[12];
 798              	 .loc 1 657 0 discriminator 3
 799 019a 5969     	 ldr r1,[r3,#20]
 654://MAC/Home/Downloads/getstarted-optiga-trust-m/optiga-trust-m-1/externals/mbedtls/library/aes.c ****                 ( (uint32_t) FSb[ ( RK[11] >> 24 ) & 0xFF ] << 24 );
 800              	 .loc 1 654 0 discriminator 3
 801 019c 1204     	 lsl r2,r2,#16
 802 019e 7A40     	 eor r2,r7
 651://MAC/Home/Downloads/getstarted-optiga-trust-m/optiga-trust-m-1/externals/mbedtls/library/aes.c ****                 ( (uint32_t) FSb[ ( RK[11]       ) & 0xFF ]       ) ^
 803              	 .loc 1 651 0 discriminator 3
 804 01a0 1A63     	 str r2,[r3,#48]
 805              	 .loc 1 657 0 discriminator 3
 806 01a2 4A40     	 eor r2,r1
 658://MAC/Home/Downloads/getstarted-optiga-trust-m/optiga-trust-m-1/externals/mbedtls/library/aes.c ****                 RK[14] = RK[6] ^ RK[13];
 807              	 .loc 1 658 0 discriminator 3
 808 01a4 9969     	 ldr r1,[r3,#24]
 657://MAC/Home/Downloads/getstarted-optiga-trust-m/optiga-trust-m-1/externals/mbedtls/library/aes.c ****                 RK[14] = RK[6] ^ RK[13];
 809              	 .loc 1 657 0 discriminator 3
 810 01a6 5A63     	 str r2,[r3,#52]
 811              	 .loc 1 658 0 discriminator 3
 812 01a8 4A40     	 eor r2,r1
 813 01aa 9A63     	 str r2,[r3,#56]
 659://MAC/Home/Downloads/getstarted-optiga-trust-m/optiga-trust-m-1/externals/mbedtls/library/aes.c ****                 RK[15] = RK[7] ^ RK[14];
 814              	 .loc 1 659 0 discriminator 3
 815 01ac 6A40     	 eor r2,r5
 816 01ae DA63     	 str r2,[r3,#60]
 639://MAC/Home/Downloads/getstarted-optiga-trust-m/optiga-trust-m-1/externals/mbedtls/library/aes.c ****             {
 817              	 .loc 1 639 0 discriminator 3
 818 01b0 2033     	 add r3,r3,#32
 819              	.LVL59:
 820 01b2 1C2E     	 cmp r6,#28
 821 01b4 BAD1     	 bne .L44
 822 01b6 02E0     	 b .L48
 823              	.LVL60:
 824              	.L50:
 570://MAC/Home/Downloads/getstarted-optiga-trust-m/optiga-trust-m-1/externals/mbedtls/library/aes.c ****     }
 825              	 .loc 1 570 0
 826 01b8 2020     	 mov r0,#32
 827              	.LVL61:
 828 01ba 4042     	 neg r0,r0
 829 01bc 00E0     	 b .L30
 830              	.LVL62:
 831              	.L48:
 660://MAC/Home/Downloads/getstarted-optiga-trust-m/optiga-trust-m-1/externals/mbedtls/library/aes.c ****             }
 661://MAC/Home/Downloads/getstarted-optiga-trust-m/optiga-trust-m-1/externals/mbedtls/library/aes.c ****             break;
 662://MAC/Home/Downloads/getstarted-optiga-trust-m/optiga-trust-m-1/externals/mbedtls/library/aes.c ****     }
 663://MAC/Home/Downloads/getstarted-optiga-trust-m/optiga-trust-m-1/externals/mbedtls/library/aes.c **** 
 664://MAC/Home/Downloads/getstarted-optiga-trust-m/optiga-trust-m-1/externals/mbedtls/library/aes.c ****     return( 0 );
 832              	 .loc 1 664 0
 833 01be 0020     	 mov r0,#0
 834              	.LVL63:
 835              	.L30:
 665://MAC/Home/Downloads/getstarted-optiga-trust-m/optiga-trust-m-1/externals/mbedtls/library/aes.c **** }
 836              	 .loc 1 665 0
 837              	 
 838 01c0 FEBD     	 pop {r1,r2,r3,r4,r5,r6,r7,pc}
 839              	.L53:
 840 01c2 C046     	 .align 2
 841              	.L52:
 842 01c4 00000000 	 .word .LANCHOR11
 843 01c8 00000000 	 .word .LANCHOR0
 844 01cc 00000000 	 .word .LANCHOR1
 845              	 .cfi_endproc
 846              	.LFE3:
 848              	 .section .text.mbedtls_aes_setkey_dec,"ax",%progbits
 849              	 .align 1
 850              	 .global mbedtls_aes_setkey_dec
 851              	 .code 16
 852              	 .thumb_func
 854              	mbedtls_aes_setkey_dec:
 855              	.LFB4:
 666://MAC/Home/Downloads/getstarted-optiga-trust-m/optiga-trust-m-1/externals/mbedtls/library/aes.c **** #endif /* !MBEDTLS_AES_SETKEY_ENC_ALT */
 667://MAC/Home/Downloads/getstarted-optiga-trust-m/optiga-trust-m-1/externals/mbedtls/library/aes.c **** 
 668://MAC/Home/Downloads/getstarted-optiga-trust-m/optiga-trust-m-1/externals/mbedtls/library/aes.c **** /*
 669://MAC/Home/Downloads/getstarted-optiga-trust-m/optiga-trust-m-1/externals/mbedtls/library/aes.c ****  * AES key schedule (decryption)
 670://MAC/Home/Downloads/getstarted-optiga-trust-m/optiga-trust-m-1/externals/mbedtls/library/aes.c ****  */
 671://MAC/Home/Downloads/getstarted-optiga-trust-m/optiga-trust-m-1/externals/mbedtls/library/aes.c **** #if !defined(MBEDTLS_AES_SETKEY_DEC_ALT)
 672://MAC/Home/Downloads/getstarted-optiga-trust-m/optiga-trust-m-1/externals/mbedtls/library/aes.c **** int mbedtls_aes_setkey_dec( mbedtls_aes_context *ctx, const unsigned char *key,
 673://MAC/Home/Downloads/getstarted-optiga-trust-m/optiga-trust-m-1/externals/mbedtls/library/aes.c ****                     unsigned int keybits )
 674://MAC/Home/Downloads/getstarted-optiga-trust-m/optiga-trust-m-1/externals/mbedtls/library/aes.c **** {
 856              	 .loc 1 674 0
 857              	 .cfi_startproc
 858              	.LVL64:
 859 0000 F0B5     	 push {r4,r5,r6,r7,lr}
 860              	.LCFI5:
 861              	 .cfi_def_cfa_offset 20
 862              	 .cfi_offset 4,-20
 863              	 .cfi_offset 5,-16
 864              	 .cfi_offset 6,-12
 865              	 .cfi_offset 7,-8
 866              	 .cfi_offset 14,-4
 867 0002 051C     	 mov r5,r0
 868 0004 C9B0     	 sub sp,sp,#292
 869              	.LCFI6:
 870              	 .cfi_def_cfa_offset 312
 675://MAC/Home/Downloads/getstarted-optiga-trust-m/optiga-trust-m-1/externals/mbedtls/library/aes.c ****     int i, j, ret;
 676://MAC/Home/Downloads/getstarted-optiga-trust-m/optiga-trust-m-1/externals/mbedtls/library/aes.c ****     mbedtls_aes_context cty;
 677://MAC/Home/Downloads/getstarted-optiga-trust-m/optiga-trust-m-1/externals/mbedtls/library/aes.c ****     uint32_t *RK;
 678://MAC/Home/Downloads/getstarted-optiga-trust-m/optiga-trust-m-1/externals/mbedtls/library/aes.c ****     uint32_t *SK;
 679://MAC/Home/Downloads/getstarted-optiga-trust-m/optiga-trust-m-1/externals/mbedtls/library/aes.c **** 
 680://MAC/Home/Downloads/getstarted-optiga-trust-m/optiga-trust-m-1/externals/mbedtls/library/aes.c ****     AES_VALIDATE_RET( ctx != NULL );
 681://MAC/Home/Downloads/getstarted-optiga-trust-m/optiga-trust-m-1/externals/mbedtls/library/aes.c ****     AES_VALIDATE_RET( key != NULL );
 682://MAC/Home/Downloads/getstarted-optiga-trust-m/optiga-trust-m-1/externals/mbedtls/library/aes.c **** 
 683://MAC/Home/Downloads/getstarted-optiga-trust-m/optiga-trust-m-1/externals/mbedtls/library/aes.c ****     mbedtls_aes_init( &cty );
 871              	 .loc 1 683 0
 872 0006 02A8     	 add r0,sp,#8
 873              	.LVL65:
 674://MAC/Home/Downloads/getstarted-optiga-trust-m/optiga-trust-m-1/externals/mbedtls/library/aes.c ****     int i, j, ret;
 874              	 .loc 1 674 0
 875 0008 0E1C     	 mov r6,r1
 876 000a 141C     	 mov r4,r2
 877              	 .loc 1 683 0
 878 000c FFF7FEFF 	 bl mbedtls_aes_init
 879              	.LVL66:
 684://MAC/Home/Downloads/getstarted-optiga-trust-m/optiga-trust-m-1/externals/mbedtls/library/aes.c **** 
 685://MAC/Home/Downloads/getstarted-optiga-trust-m/optiga-trust-m-1/externals/mbedtls/library/aes.c **** #if defined(MBEDTLS_PADLOCK_C) && defined(MBEDTLS_PADLOCK_ALIGN16)
 686://MAC/Home/Downloads/getstarted-optiga-trust-m/optiga-trust-m-1/externals/mbedtls/library/aes.c ****     if( aes_padlock_ace == -1 )
 687://MAC/Home/Downloads/getstarted-optiga-trust-m/optiga-trust-m-1/externals/mbedtls/library/aes.c ****         aes_padlock_ace = mbedtls_padlock_has_support( MBEDTLS_PADLOCK_ACE );
 688://MAC/Home/Downloads/getstarted-optiga-trust-m/optiga-trust-m-1/externals/mbedtls/library/aes.c **** 
 689://MAC/Home/Downloads/getstarted-optiga-trust-m/optiga-trust-m-1/externals/mbedtls/library/aes.c ****     if( aes_padlock_ace )
 690://MAC/Home/Downloads/getstarted-optiga-trust-m/optiga-trust-m-1/externals/mbedtls/library/aes.c ****         ctx->rk = RK = MBEDTLS_PADLOCK_ALIGN16( ctx->buf );
 691://MAC/Home/Downloads/getstarted-optiga-trust-m/optiga-trust-m-1/externals/mbedtls/library/aes.c ****     else
 692://MAC/Home/Downloads/getstarted-optiga-trust-m/optiga-trust-m-1/externals/mbedtls/library/aes.c **** #endif
 693://MAC/Home/Downloads/getstarted-optiga-trust-m/optiga-trust-m-1/externals/mbedtls/library/aes.c ****     ctx->rk = RK = ctx->buf;
 880              	 .loc 1 693 0
 881 0010 2B1C     	 mov r3,r5
 882 0012 0833     	 add r3,r3,#8
 883              	.LVL67:
 884 0014 6B60     	 str r3,[r5,#4]
 694://MAC/Home/Downloads/getstarted-optiga-trust-m/optiga-trust-m-1/externals/mbedtls/library/aes.c **** 
 695://MAC/Home/Downloads/getstarted-optiga-trust-m/optiga-trust-m-1/externals/mbedtls/library/aes.c ****     /* Also checks keybits */
 696://MAC/Home/Downloads/getstarted-optiga-trust-m/optiga-trust-m-1/externals/mbedtls/library/aes.c ****     if( ( ret = mbedtls_aes_setkey_enc( &cty, key, keybits ) ) != 0 )
 885              	 .loc 1 696 0
 886 0016 02A8     	 add r0,sp,#8
 887 0018 311C     	 mov r1,r6
 888 001a 221C     	 mov r2,r4
 889 001c FFF7FEFF 	 bl mbedtls_aes_setkey_enc
 890              	.LVL68:
 891 0020 0190     	 str r0,[sp,#4]
 892              	.LVL69:
 893 0022 0028     	 cmp r0,#0
 894 0024 42D1     	 bne .L55
 697://MAC/Home/Downloads/getstarted-optiga-trust-m/optiga-trust-m-1/externals/mbedtls/library/aes.c ****         goto exit;
 698://MAC/Home/Downloads/getstarted-optiga-trust-m/optiga-trust-m-1/externals/mbedtls/library/aes.c **** 
 699://MAC/Home/Downloads/getstarted-optiga-trust-m/optiga-trust-m-1/externals/mbedtls/library/aes.c ****     ctx->nr = cty.nr;
 895              	 .loc 1 699 0
 896 0026 0299     	 ldr r1,[sp,#8]
 700://MAC/Home/Downloads/getstarted-optiga-trust-m/optiga-trust-m-1/externals/mbedtls/library/aes.c **** 
 701://MAC/Home/Downloads/getstarted-optiga-trust-m/optiga-trust-m-1/externals/mbedtls/library/aes.c **** #if defined(MBEDTLS_AESNI_C) && defined(MBEDTLS_HAVE_X86_64)
 702://MAC/Home/Downloads/getstarted-optiga-trust-m/optiga-trust-m-1/externals/mbedtls/library/aes.c ****     if( mbedtls_aesni_has_support( MBEDTLS_AESNI_AES ) )
 703://MAC/Home/Downloads/getstarted-optiga-trust-m/optiga-trust-m-1/externals/mbedtls/library/aes.c ****     {
 704://MAC/Home/Downloads/getstarted-optiga-trust-m/optiga-trust-m-1/externals/mbedtls/library/aes.c ****         mbedtls_aesni_inverse_key( (unsigned char *) ctx->rk,
 705://MAC/Home/Downloads/getstarted-optiga-trust-m/optiga-trust-m-1/externals/mbedtls/library/aes.c ****                            (const unsigned char *) cty.rk, ctx->nr );
 706://MAC/Home/Downloads/getstarted-optiga-trust-m/optiga-trust-m-1/externals/mbedtls/library/aes.c ****         goto exit;
 707://MAC/Home/Downloads/getstarted-optiga-trust-m/optiga-trust-m-1/externals/mbedtls/library/aes.c ****     }
 708://MAC/Home/Downloads/getstarted-optiga-trust-m/optiga-trust-m-1/externals/mbedtls/library/aes.c **** #endif
 709://MAC/Home/Downloads/getstarted-optiga-trust-m/optiga-trust-m-1/externals/mbedtls/library/aes.c **** 
 710://MAC/Home/Downloads/getstarted-optiga-trust-m/optiga-trust-m-1/externals/mbedtls/library/aes.c ****     SK = cty.rk + cty.nr * 4;
 897              	 .loc 1 710 0
 898 0028 039A     	 ldr r2,[sp,#12]
 899 002a 0B01     	 lsl r3,r1,#4
 900 002c D318     	 add r3,r2,r3
 901              	.LVL70:
 711://MAC/Home/Downloads/getstarted-optiga-trust-m/optiga-trust-m-1/externals/mbedtls/library/aes.c **** 
 712://MAC/Home/Downloads/getstarted-optiga-trust-m/optiga-trust-m-1/externals/mbedtls/library/aes.c ****     *RK++ = *SK++;
 902              	 .loc 1 712 0
 903 002e 1A68     	 ldr r2,[r3]
 699://MAC/Home/Downloads/getstarted-optiga-trust-m/optiga-trust-m-1/externals/mbedtls/library/aes.c **** 
 904              	 .loc 1 699 0
 905 0030 2960     	 str r1,[r5]
 906              	 .loc 1 712 0
 907 0032 AA60     	 str r2,[r5,#8]
 908              	.LVL71:
 713://MAC/Home/Downloads/getstarted-optiga-trust-m/optiga-trust-m-1/externals/mbedtls/library/aes.c ****     *RK++ = *SK++;
 909              	 .loc 1 713 0
 910 0034 5A68     	 ldr r2,[r3,#4]
 911 0036 EA60     	 str r2,[r5,#12]
 912              	.LVL72:
 714://MAC/Home/Downloads/getstarted-optiga-trust-m/optiga-trust-m-1/externals/mbedtls/library/aes.c ****     *RK++ = *SK++;
 913              	 .loc 1 714 0
 914 0038 9A68     	 ldr r2,[r3,#8]
 915 003a 2A61     	 str r2,[r5,#16]
 715://MAC/Home/Downloads/getstarted-optiga-trust-m/optiga-trust-m-1/externals/mbedtls/library/aes.c ****     *RK++ = *SK++;
 916              	 .loc 1 715 0
 917 003c 2A1C     	 mov r2,r5
 918 003e D868     	 ldr r0,[r3,#12]
 919              	.LVL73:
 920 0040 1832     	 add r2,r2,#24
 921              	.LVL74:
 922 0042 6861     	 str r0,[r5,#20]
 923              	.LVL75:
 924              	.L59:
 716://MAC/Home/Downloads/getstarted-optiga-trust-m/optiga-trust-m-1/externals/mbedtls/library/aes.c **** 
 717://MAC/Home/Downloads/getstarted-optiga-trust-m/optiga-trust-m-1/externals/mbedtls/library/aes.c ****     for( i = ctx->nr - 1, SK -= 8; i > 0; i--, SK -= 8 )
 925              	 .loc 1 717 0
 926 0044 0139     	 sub r1,r1,#1
 927 0046 0091     	 str r1,[sp]
 928              	.LVL76:
 929 0048 0099     	 ldr r1,[sp]
 930 004a 103B     	 sub r3,r3,#16
 931              	.LVL77:
 932 004c 0029     	 cmp r1,#0
 933 004e 25DD     	 ble .L60
 934 0050 0020     	 mov r0,#0
 935              	.LVL78:
 936              	.L57:
 718://MAC/Home/Downloads/getstarted-optiga-trust-m/optiga-trust-m-1/externals/mbedtls/library/aes.c ****     {
 719://MAC/Home/Downloads/getstarted-optiga-trust-m/optiga-trust-m-1/externals/mbedtls/library/aes.c ****         for( j = 0; j < 4; j++, SK++ )
 720://MAC/Home/Downloads/getstarted-optiga-trust-m/optiga-trust-m-1/externals/mbedtls/library/aes.c ****         {
 721://MAC/Home/Downloads/getstarted-optiga-trust-m/optiga-trust-m-1/externals/mbedtls/library/aes.c ****             *RK++ = AES_RT0( FSb[ ( *SK       ) & 0xFF ] ) ^
 937              	 .loc 1 721 0 discriminator 3
 938 0052 FF27     	 mov r7,#255
 939 0054 1958     	 ldr r1,[r3,r0]
 722://MAC/Home/Downloads/getstarted-optiga-trust-m/optiga-trust-m-1/externals/mbedtls/library/aes.c ****                     AES_RT1( FSb[ ( *SK >>  8 ) & 0xFF ] ) ^
 723://MAC/Home/Downloads/getstarted-optiga-trust-m/optiga-trust-m-1/externals/mbedtls/library/aes.c ****                     AES_RT2( FSb[ ( *SK >> 16 ) & 0xFF ] ) ^
 724://MAC/Home/Downloads/getstarted-optiga-trust-m/optiga-trust-m-1/externals/mbedtls/library/aes.c ****                     AES_RT3( FSb[ ( *SK >> 24 ) & 0xFF ] );
 940              	 .loc 1 724 0 discriminator 3
 941 0056 184D     	 ldr r5,.L61
 942 0058 0E0E     	 lsr r6,r1,#24
 943 005a AE5D     	 ldrb r6,[r5,r6]
 721://MAC/Home/Downloads/getstarted-optiga-trust-m/optiga-trust-m-1/externals/mbedtls/library/aes.c ****                     AES_RT1( FSb[ ( *SK >>  8 ) & 0xFF ] ) ^
 944              	 .loc 1 721 0 discriminator 3
 945 005c 0F40     	 and r7,r1
 946 005e 174C     	 ldr r4,.L61+4
 947 0060 EF5D     	 ldrb r7,[r5,r7]
 948              	 .loc 1 724 0 discriminator 3
 949 0062 B600     	 lsl r6,r6,#2
 950 0064 3659     	 ldr r6,[r6,r4]
 951 0066 164C     	 ldr r4,.L61+8
 721://MAC/Home/Downloads/getstarted-optiga-trust-m/optiga-trust-m-1/externals/mbedtls/library/aes.c ****                     AES_RT1( FSb[ ( *SK >>  8 ) & 0xFF ] ) ^
 952              	 .loc 1 721 0 discriminator 3
 953 0068 BF00     	 lsl r7,r7,#2
 954 006a 3F59     	 ldr r7,[r7,r4]
 722://MAC/Home/Downloads/getstarted-optiga-trust-m/optiga-trust-m-1/externals/mbedtls/library/aes.c ****                     AES_RT1( FSb[ ( *SK >>  8 ) & 0xFF ] ) ^
 955              	 .loc 1 722 0 discriminator 3
 956 006c FF24     	 mov r4,#255
 957 006e 7E40     	 eor r6,r7
 958 0070 0F0A     	 lsr r7,r1,#8
 959 0072 2740     	 and r7,r4
 960 0074 EF5D     	 ldrb r7,[r5,r7]
 961 0076 134C     	 ldr r4,.L61+12
 962 0078 BF00     	 lsl r7,r7,#2
 963 007a 3F59     	 ldr r7,[r7,r4]
 723://MAC/Home/Downloads/getstarted-optiga-trust-m/optiga-trust-m-1/externals/mbedtls/library/aes.c ****                     AES_RT3( FSb[ ( *SK >> 24 ) & 0xFF ] );
 964              	 .loc 1 723 0 discriminator 3
 965 007c FF24     	 mov r4,#255
 966 007e 090C     	 lsr r1,r1,#16
 967 0080 2140     	 and r1,r4
 968 0082 695C     	 ldrb r1,[r5,r1]
 969 0084 104D     	 ldr r5,.L61+16
 970 0086 8900     	 lsl r1,r1,#2
 971 0088 7E40     	 eor r6,r7
 972 008a 4F59     	 ldr r7,[r1,r5]
 973 008c 7E40     	 eor r6,r7
 721://MAC/Home/Downloads/getstarted-optiga-trust-m/optiga-trust-m-1/externals/mbedtls/library/aes.c ****                     AES_RT1( FSb[ ( *SK >>  8 ) & 0xFF ] ) ^
 974              	 .loc 1 721 0 discriminator 3
 975 008e 1650     	 str r6,[r2,r0]
 976              	.LVL79:
 977 0090 0430     	 add r0,r0,#4
 978              	.LVL80:
 719://MAC/Home/Downloads/getstarted-optiga-trust-m/optiga-trust-m-1/externals/mbedtls/library/aes.c ****         {
 979              	 .loc 1 719 0 discriminator 3
 980 0092 1028     	 cmp r0,#16
 981 0094 DDD1     	 bne .L57
 982 0096 1032     	 add r2,r2,#16
 983              	.LVL81:
 717://MAC/Home/Downloads/getstarted-optiga-trust-m/optiga-trust-m-1/externals/mbedtls/library/aes.c ****     {
 984              	 .loc 1 717 0
 985 0098 0099     	 ldr r1,[sp]
 986 009a D3E7     	 b .L59
 987              	.LVL82:
 988              	.L60:
 725://MAC/Home/Downloads/getstarted-optiga-trust-m/optiga-trust-m-1/externals/mbedtls/library/aes.c ****         }
 726://MAC/Home/Downloads/getstarted-optiga-trust-m/optiga-trust-m-1/externals/mbedtls/library/aes.c ****     }
 727://MAC/Home/Downloads/getstarted-optiga-trust-m/optiga-trust-m-1/externals/mbedtls/library/aes.c **** 
 728://MAC/Home/Downloads/getstarted-optiga-trust-m/optiga-trust-m-1/externals/mbedtls/library/aes.c ****     *RK++ = *SK++;
 989              	 .loc 1 728 0
 990 009c 1968     	 ldr r1,[r3]
 991              	.LVL83:
 992 009e 1160     	 str r1,[r2]
 993              	.LVL84:
 729://MAC/Home/Downloads/getstarted-optiga-trust-m/optiga-trust-m-1/externals/mbedtls/library/aes.c ****     *RK++ = *SK++;
 994              	 .loc 1 729 0
 995 00a0 5968     	 ldr r1,[r3,#4]
 996 00a2 5160     	 str r1,[r2,#4]
 997              	.LVL85:
 730://MAC/Home/Downloads/getstarted-optiga-trust-m/optiga-trust-m-1/externals/mbedtls/library/aes.c ****     *RK++ = *SK++;
 998              	 .loc 1 730 0
 999 00a4 9968     	 ldr r1,[r3,#8]
 1000 00a6 9160     	 str r1,[r2,#8]
 1001              	.LVL86:
 731://MAC/Home/Downloads/getstarted-optiga-trust-m/optiga-trust-m-1/externals/mbedtls/library/aes.c ****     *RK++ = *SK++;
 1002              	 .loc 1 731 0
 1003 00a8 DB68     	 ldr r3,[r3,#12]
 1004              	.LVL87:
 1005 00aa D360     	 str r3,[r2,#12]
 1006              	.LVL88:
 1007              	.L55:
 732://MAC/Home/Downloads/getstarted-optiga-trust-m/optiga-trust-m-1/externals/mbedtls/library/aes.c **** 
 733://MAC/Home/Downloads/getstarted-optiga-trust-m/optiga-trust-m-1/externals/mbedtls/library/aes.c **** exit:
 734://MAC/Home/Downloads/getstarted-optiga-trust-m/optiga-trust-m-1/externals/mbedtls/library/aes.c ****     mbedtls_aes_free( &cty );
 1008              	 .loc 1 734 0
 1009 00ac 02A8     	 add r0,sp,#8
 1010 00ae FFF7FEFF 	 bl mbedtls_aes_free
 1011              	.LVL89:
 735://MAC/Home/Downloads/getstarted-optiga-trust-m/optiga-trust-m-1/externals/mbedtls/library/aes.c **** 
 736://MAC/Home/Downloads/getstarted-optiga-trust-m/optiga-trust-m-1/externals/mbedtls/library/aes.c ****     return( ret );
 737://MAC/Home/Downloads/getstarted-optiga-trust-m/optiga-trust-m-1/externals/mbedtls/library/aes.c **** }
 1012              	 .loc 1 737 0
 1013 00b2 0198     	 ldr r0,[sp,#4]
 1014 00b4 49B0     	 add sp,sp,#292
 1015              	 
 1016 00b6 F0BD     	 pop {r4,r5,r6,r7,pc}
 1017              	.L62:
 1018              	 .align 2
 1019              	.L61:
 1020 00b8 00000000 	 .word .LANCHOR1
 1021 00bc 00000000 	 .word .LANCHOR10
 1022 00c0 00000000 	 .word .LANCHOR7
 1023 00c4 00000000 	 .word .LANCHOR8
 1024 00c8 00000000 	 .word .LANCHOR9
 1025              	 .cfi_endproc
 1026              	.LFE4:
 1028              	 .section .text.mbedtls_internal_aes_encrypt,"ax",%progbits
 1029              	 .align 1
 1030              	 .global mbedtls_internal_aes_encrypt
 1031              	 .code 16
 1032              	 .thumb_func
 1034              	mbedtls_internal_aes_encrypt:
 1035              	.LFB5:
 738://MAC/Home/Downloads/getstarted-optiga-trust-m/optiga-trust-m-1/externals/mbedtls/library/aes.c **** 
 739://MAC/Home/Downloads/getstarted-optiga-trust-m/optiga-trust-m-1/externals/mbedtls/library/aes.c **** #if defined(MBEDTLS_CIPHER_MODE_XTS)
 740://MAC/Home/Downloads/getstarted-optiga-trust-m/optiga-trust-m-1/externals/mbedtls/library/aes.c **** static int mbedtls_aes_xts_decode_keys( const unsigned char *key,
 741://MAC/Home/Downloads/getstarted-optiga-trust-m/optiga-trust-m-1/externals/mbedtls/library/aes.c ****                                         unsigned int keybits,
 742://MAC/Home/Downloads/getstarted-optiga-trust-m/optiga-trust-m-1/externals/mbedtls/library/aes.c ****                                         const unsigned char **key1,
 743://MAC/Home/Downloads/getstarted-optiga-trust-m/optiga-trust-m-1/externals/mbedtls/library/aes.c ****                                         unsigned int *key1bits,
 744://MAC/Home/Downloads/getstarted-optiga-trust-m/optiga-trust-m-1/externals/mbedtls/library/aes.c ****                                         const unsigned char **key2,
 745://MAC/Home/Downloads/getstarted-optiga-trust-m/optiga-trust-m-1/externals/mbedtls/library/aes.c ****                                         unsigned int *key2bits )
 746://MAC/Home/Downloads/getstarted-optiga-trust-m/optiga-trust-m-1/externals/mbedtls/library/aes.c **** {
 747://MAC/Home/Downloads/getstarted-optiga-trust-m/optiga-trust-m-1/externals/mbedtls/library/aes.c ****     const unsigned int half_keybits = keybits / 2;
 748://MAC/Home/Downloads/getstarted-optiga-trust-m/optiga-trust-m-1/externals/mbedtls/library/aes.c ****     const unsigned int half_keybytes = half_keybits / 8;
 749://MAC/Home/Downloads/getstarted-optiga-trust-m/optiga-trust-m-1/externals/mbedtls/library/aes.c **** 
 750://MAC/Home/Downloads/getstarted-optiga-trust-m/optiga-trust-m-1/externals/mbedtls/library/aes.c ****     switch( keybits )
 751://MAC/Home/Downloads/getstarted-optiga-trust-m/optiga-trust-m-1/externals/mbedtls/library/aes.c ****     {
 752://MAC/Home/Downloads/getstarted-optiga-trust-m/optiga-trust-m-1/externals/mbedtls/library/aes.c ****         case 256: break;
 753://MAC/Home/Downloads/getstarted-optiga-trust-m/optiga-trust-m-1/externals/mbedtls/library/aes.c ****         case 512: break;
 754://MAC/Home/Downloads/getstarted-optiga-trust-m/optiga-trust-m-1/externals/mbedtls/library/aes.c ****         default : return( MBEDTLS_ERR_AES_INVALID_KEY_LENGTH );
 755://MAC/Home/Downloads/getstarted-optiga-trust-m/optiga-trust-m-1/externals/mbedtls/library/aes.c ****     }
 756://MAC/Home/Downloads/getstarted-optiga-trust-m/optiga-trust-m-1/externals/mbedtls/library/aes.c **** 
 757://MAC/Home/Downloads/getstarted-optiga-trust-m/optiga-trust-m-1/externals/mbedtls/library/aes.c ****     *key1bits = half_keybits;
 758://MAC/Home/Downloads/getstarted-optiga-trust-m/optiga-trust-m-1/externals/mbedtls/library/aes.c ****     *key2bits = half_keybits;
 759://MAC/Home/Downloads/getstarted-optiga-trust-m/optiga-trust-m-1/externals/mbedtls/library/aes.c ****     *key1 = &key[0];
 760://MAC/Home/Downloads/getstarted-optiga-trust-m/optiga-trust-m-1/externals/mbedtls/library/aes.c ****     *key2 = &key[half_keybytes];
 761://MAC/Home/Downloads/getstarted-optiga-trust-m/optiga-trust-m-1/externals/mbedtls/library/aes.c **** 
 762://MAC/Home/Downloads/getstarted-optiga-trust-m/optiga-trust-m-1/externals/mbedtls/library/aes.c ****     return 0;
 763://MAC/Home/Downloads/getstarted-optiga-trust-m/optiga-trust-m-1/externals/mbedtls/library/aes.c **** }
 764://MAC/Home/Downloads/getstarted-optiga-trust-m/optiga-trust-m-1/externals/mbedtls/library/aes.c **** 
 765://MAC/Home/Downloads/getstarted-optiga-trust-m/optiga-trust-m-1/externals/mbedtls/library/aes.c **** int mbedtls_aes_xts_setkey_enc( mbedtls_aes_xts_context *ctx,
 766://MAC/Home/Downloads/getstarted-optiga-trust-m/optiga-trust-m-1/externals/mbedtls/library/aes.c ****                                 const unsigned char *key,
 767://MAC/Home/Downloads/getstarted-optiga-trust-m/optiga-trust-m-1/externals/mbedtls/library/aes.c ****                                 unsigned int keybits)
 768://MAC/Home/Downloads/getstarted-optiga-trust-m/optiga-trust-m-1/externals/mbedtls/library/aes.c **** {
 769://MAC/Home/Downloads/getstarted-optiga-trust-m/optiga-trust-m-1/externals/mbedtls/library/aes.c ****     int ret;
 770://MAC/Home/Downloads/getstarted-optiga-trust-m/optiga-trust-m-1/externals/mbedtls/library/aes.c ****     const unsigned char *key1, *key2;
 771://MAC/Home/Downloads/getstarted-optiga-trust-m/optiga-trust-m-1/externals/mbedtls/library/aes.c ****     unsigned int key1bits, key2bits;
 772://MAC/Home/Downloads/getstarted-optiga-trust-m/optiga-trust-m-1/externals/mbedtls/library/aes.c **** 
 773://MAC/Home/Downloads/getstarted-optiga-trust-m/optiga-trust-m-1/externals/mbedtls/library/aes.c ****     AES_VALIDATE_RET( ctx != NULL );
 774://MAC/Home/Downloads/getstarted-optiga-trust-m/optiga-trust-m-1/externals/mbedtls/library/aes.c ****     AES_VALIDATE_RET( key != NULL );
 775://MAC/Home/Downloads/getstarted-optiga-trust-m/optiga-trust-m-1/externals/mbedtls/library/aes.c **** 
 776://MAC/Home/Downloads/getstarted-optiga-trust-m/optiga-trust-m-1/externals/mbedtls/library/aes.c ****     ret = mbedtls_aes_xts_decode_keys( key, keybits, &key1, &key1bits,
 777://MAC/Home/Downloads/getstarted-optiga-trust-m/optiga-trust-m-1/externals/mbedtls/library/aes.c ****                                        &key2, &key2bits );
 778://MAC/Home/Downloads/getstarted-optiga-trust-m/optiga-trust-m-1/externals/mbedtls/library/aes.c ****     if( ret != 0 )
 779://MAC/Home/Downloads/getstarted-optiga-trust-m/optiga-trust-m-1/externals/mbedtls/library/aes.c ****         return( ret );
 780://MAC/Home/Downloads/getstarted-optiga-trust-m/optiga-trust-m-1/externals/mbedtls/library/aes.c **** 
 781://MAC/Home/Downloads/getstarted-optiga-trust-m/optiga-trust-m-1/externals/mbedtls/library/aes.c ****     /* Set the tweak key. Always set tweak key for the encryption mode. */
 782://MAC/Home/Downloads/getstarted-optiga-trust-m/optiga-trust-m-1/externals/mbedtls/library/aes.c ****     ret = mbedtls_aes_setkey_enc( &ctx->tweak, key2, key2bits );
 783://MAC/Home/Downloads/getstarted-optiga-trust-m/optiga-trust-m-1/externals/mbedtls/library/aes.c ****     if( ret != 0 )
 784://MAC/Home/Downloads/getstarted-optiga-trust-m/optiga-trust-m-1/externals/mbedtls/library/aes.c ****         return( ret );
 785://MAC/Home/Downloads/getstarted-optiga-trust-m/optiga-trust-m-1/externals/mbedtls/library/aes.c **** 
 786://MAC/Home/Downloads/getstarted-optiga-trust-m/optiga-trust-m-1/externals/mbedtls/library/aes.c ****     /* Set crypt key for encryption. */
 787://MAC/Home/Downloads/getstarted-optiga-trust-m/optiga-trust-m-1/externals/mbedtls/library/aes.c ****     return mbedtls_aes_setkey_enc( &ctx->crypt, key1, key1bits );
 788://MAC/Home/Downloads/getstarted-optiga-trust-m/optiga-trust-m-1/externals/mbedtls/library/aes.c **** }
 789://MAC/Home/Downloads/getstarted-optiga-trust-m/optiga-trust-m-1/externals/mbedtls/library/aes.c **** 
 790://MAC/Home/Downloads/getstarted-optiga-trust-m/optiga-trust-m-1/externals/mbedtls/library/aes.c **** int mbedtls_aes_xts_setkey_dec( mbedtls_aes_xts_context *ctx,
 791://MAC/Home/Downloads/getstarted-optiga-trust-m/optiga-trust-m-1/externals/mbedtls/library/aes.c ****                                 const unsigned char *key,
 792://MAC/Home/Downloads/getstarted-optiga-trust-m/optiga-trust-m-1/externals/mbedtls/library/aes.c ****                                 unsigned int keybits)
 793://MAC/Home/Downloads/getstarted-optiga-trust-m/optiga-trust-m-1/externals/mbedtls/library/aes.c **** {
 794://MAC/Home/Downloads/getstarted-optiga-trust-m/optiga-trust-m-1/externals/mbedtls/library/aes.c ****     int ret;
 795://MAC/Home/Downloads/getstarted-optiga-trust-m/optiga-trust-m-1/externals/mbedtls/library/aes.c ****     const unsigned char *key1, *key2;
 796://MAC/Home/Downloads/getstarted-optiga-trust-m/optiga-trust-m-1/externals/mbedtls/library/aes.c ****     unsigned int key1bits, key2bits;
 797://MAC/Home/Downloads/getstarted-optiga-trust-m/optiga-trust-m-1/externals/mbedtls/library/aes.c **** 
 798://MAC/Home/Downloads/getstarted-optiga-trust-m/optiga-trust-m-1/externals/mbedtls/library/aes.c ****     AES_VALIDATE_RET( ctx != NULL );
 799://MAC/Home/Downloads/getstarted-optiga-trust-m/optiga-trust-m-1/externals/mbedtls/library/aes.c ****     AES_VALIDATE_RET( key != NULL );
 800://MAC/Home/Downloads/getstarted-optiga-trust-m/optiga-trust-m-1/externals/mbedtls/library/aes.c **** 
 801://MAC/Home/Downloads/getstarted-optiga-trust-m/optiga-trust-m-1/externals/mbedtls/library/aes.c ****     ret = mbedtls_aes_xts_decode_keys( key, keybits, &key1, &key1bits,
 802://MAC/Home/Downloads/getstarted-optiga-trust-m/optiga-trust-m-1/externals/mbedtls/library/aes.c ****                                        &key2, &key2bits );
 803://MAC/Home/Downloads/getstarted-optiga-trust-m/optiga-trust-m-1/externals/mbedtls/library/aes.c ****     if( ret != 0 )
 804://MAC/Home/Downloads/getstarted-optiga-trust-m/optiga-trust-m-1/externals/mbedtls/library/aes.c ****         return( ret );
 805://MAC/Home/Downloads/getstarted-optiga-trust-m/optiga-trust-m-1/externals/mbedtls/library/aes.c **** 
 806://MAC/Home/Downloads/getstarted-optiga-trust-m/optiga-trust-m-1/externals/mbedtls/library/aes.c ****     /* Set the tweak key. Always set tweak key for encryption. */
 807://MAC/Home/Downloads/getstarted-optiga-trust-m/optiga-trust-m-1/externals/mbedtls/library/aes.c ****     ret = mbedtls_aes_setkey_enc( &ctx->tweak, key2, key2bits );
 808://MAC/Home/Downloads/getstarted-optiga-trust-m/optiga-trust-m-1/externals/mbedtls/library/aes.c ****     if( ret != 0 )
 809://MAC/Home/Downloads/getstarted-optiga-trust-m/optiga-trust-m-1/externals/mbedtls/library/aes.c ****         return( ret );
 810://MAC/Home/Downloads/getstarted-optiga-trust-m/optiga-trust-m-1/externals/mbedtls/library/aes.c **** 
 811://MAC/Home/Downloads/getstarted-optiga-trust-m/optiga-trust-m-1/externals/mbedtls/library/aes.c ****     /* Set crypt key for decryption. */
 812://MAC/Home/Downloads/getstarted-optiga-trust-m/optiga-trust-m-1/externals/mbedtls/library/aes.c ****     return mbedtls_aes_setkey_dec( &ctx->crypt, key1, key1bits );
 813://MAC/Home/Downloads/getstarted-optiga-trust-m/optiga-trust-m-1/externals/mbedtls/library/aes.c **** }
 814://MAC/Home/Downloads/getstarted-optiga-trust-m/optiga-trust-m-1/externals/mbedtls/library/aes.c **** #endif /* MBEDTLS_CIPHER_MODE_XTS */
 815://MAC/Home/Downloads/getstarted-optiga-trust-m/optiga-trust-m-1/externals/mbedtls/library/aes.c **** 
 816://MAC/Home/Downloads/getstarted-optiga-trust-m/optiga-trust-m-1/externals/mbedtls/library/aes.c **** #endif /* !MBEDTLS_AES_SETKEY_DEC_ALT */
 817://MAC/Home/Downloads/getstarted-optiga-trust-m/optiga-trust-m-1/externals/mbedtls/library/aes.c **** 
 818://MAC/Home/Downloads/getstarted-optiga-trust-m/optiga-trust-m-1/externals/mbedtls/library/aes.c **** #define AES_FROUND(X0,X1,X2,X3,Y0,Y1,Y2,Y3)         \
 819://MAC/Home/Downloads/getstarted-optiga-trust-m/optiga-trust-m-1/externals/mbedtls/library/aes.c **** {                                                   \
 820://MAC/Home/Downloads/getstarted-optiga-trust-m/optiga-trust-m-1/externals/mbedtls/library/aes.c ****     X0 = *RK++ ^ AES_FT0( ( Y0       ) & 0xFF ) ^   \
 821://MAC/Home/Downloads/getstarted-optiga-trust-m/optiga-trust-m-1/externals/mbedtls/library/aes.c ****                  AES_FT1( ( Y1 >>  8 ) & 0xFF ) ^   \
 822://MAC/Home/Downloads/getstarted-optiga-trust-m/optiga-trust-m-1/externals/mbedtls/library/aes.c ****                  AES_FT2( ( Y2 >> 16 ) & 0xFF ) ^   \
 823://MAC/Home/Downloads/getstarted-optiga-trust-m/optiga-trust-m-1/externals/mbedtls/library/aes.c ****                  AES_FT3( ( Y3 >> 24 ) & 0xFF );    \
 824://MAC/Home/Downloads/getstarted-optiga-trust-m/optiga-trust-m-1/externals/mbedtls/library/aes.c ****                                                     \
 825://MAC/Home/Downloads/getstarted-optiga-trust-m/optiga-trust-m-1/externals/mbedtls/library/aes.c ****     X1 = *RK++ ^ AES_FT0( ( Y1       ) & 0xFF ) ^   \
 826://MAC/Home/Downloads/getstarted-optiga-trust-m/optiga-trust-m-1/externals/mbedtls/library/aes.c ****                  AES_FT1( ( Y2 >>  8 ) & 0xFF ) ^   \
 827://MAC/Home/Downloads/getstarted-optiga-trust-m/optiga-trust-m-1/externals/mbedtls/library/aes.c ****                  AES_FT2( ( Y3 >> 16 ) & 0xFF ) ^   \
 828://MAC/Home/Downloads/getstarted-optiga-trust-m/optiga-trust-m-1/externals/mbedtls/library/aes.c ****                  AES_FT3( ( Y0 >> 24 ) & 0xFF );    \
 829://MAC/Home/Downloads/getstarted-optiga-trust-m/optiga-trust-m-1/externals/mbedtls/library/aes.c ****                                                     \
 830://MAC/Home/Downloads/getstarted-optiga-trust-m/optiga-trust-m-1/externals/mbedtls/library/aes.c ****     X2 = *RK++ ^ AES_FT0( ( Y2       ) & 0xFF ) ^   \
 831://MAC/Home/Downloads/getstarted-optiga-trust-m/optiga-trust-m-1/externals/mbedtls/library/aes.c ****                  AES_FT1( ( Y3 >>  8 ) & 0xFF ) ^   \
 832://MAC/Home/Downloads/getstarted-optiga-trust-m/optiga-trust-m-1/externals/mbedtls/library/aes.c ****                  AES_FT2( ( Y0 >> 16 ) & 0xFF ) ^   \
 833://MAC/Home/Downloads/getstarted-optiga-trust-m/optiga-trust-m-1/externals/mbedtls/library/aes.c ****                  AES_FT3( ( Y1 >> 24 ) & 0xFF );    \
 834://MAC/Home/Downloads/getstarted-optiga-trust-m/optiga-trust-m-1/externals/mbedtls/library/aes.c ****                                                     \
 835://MAC/Home/Downloads/getstarted-optiga-trust-m/optiga-trust-m-1/externals/mbedtls/library/aes.c ****     X3 = *RK++ ^ AES_FT0( ( Y3       ) & 0xFF ) ^   \
 836://MAC/Home/Downloads/getstarted-optiga-trust-m/optiga-trust-m-1/externals/mbedtls/library/aes.c ****                  AES_FT1( ( Y0 >>  8 ) & 0xFF ) ^   \
 837://MAC/Home/Downloads/getstarted-optiga-trust-m/optiga-trust-m-1/externals/mbedtls/library/aes.c ****                  AES_FT2( ( Y1 >> 16 ) & 0xFF ) ^   \
 838://MAC/Home/Downloads/getstarted-optiga-trust-m/optiga-trust-m-1/externals/mbedtls/library/aes.c ****                  AES_FT3( ( Y2 >> 24 ) & 0xFF );    \
 839://MAC/Home/Downloads/getstarted-optiga-trust-m/optiga-trust-m-1/externals/mbedtls/library/aes.c **** }
 840://MAC/Home/Downloads/getstarted-optiga-trust-m/optiga-trust-m-1/externals/mbedtls/library/aes.c **** 
 841://MAC/Home/Downloads/getstarted-optiga-trust-m/optiga-trust-m-1/externals/mbedtls/library/aes.c **** #define AES_RROUND(X0,X1,X2,X3,Y0,Y1,Y2,Y3)         \
 842://MAC/Home/Downloads/getstarted-optiga-trust-m/optiga-trust-m-1/externals/mbedtls/library/aes.c **** {                                                   \
 843://MAC/Home/Downloads/getstarted-optiga-trust-m/optiga-trust-m-1/externals/mbedtls/library/aes.c ****     X0 = *RK++ ^ AES_RT0( ( Y0       ) & 0xFF ) ^   \
 844://MAC/Home/Downloads/getstarted-optiga-trust-m/optiga-trust-m-1/externals/mbedtls/library/aes.c ****                  AES_RT1( ( Y3 >>  8 ) & 0xFF ) ^   \
 845://MAC/Home/Downloads/getstarted-optiga-trust-m/optiga-trust-m-1/externals/mbedtls/library/aes.c ****                  AES_RT2( ( Y2 >> 16 ) & 0xFF ) ^   \
 846://MAC/Home/Downloads/getstarted-optiga-trust-m/optiga-trust-m-1/externals/mbedtls/library/aes.c ****                  AES_RT3( ( Y1 >> 24 ) & 0xFF );    \
 847://MAC/Home/Downloads/getstarted-optiga-trust-m/optiga-trust-m-1/externals/mbedtls/library/aes.c ****                                                     \
 848://MAC/Home/Downloads/getstarted-optiga-trust-m/optiga-trust-m-1/externals/mbedtls/library/aes.c ****     X1 = *RK++ ^ AES_RT0( ( Y1       ) & 0xFF ) ^   \
 849://MAC/Home/Downloads/getstarted-optiga-trust-m/optiga-trust-m-1/externals/mbedtls/library/aes.c ****                  AES_RT1( ( Y0 >>  8 ) & 0xFF ) ^   \
 850://MAC/Home/Downloads/getstarted-optiga-trust-m/optiga-trust-m-1/externals/mbedtls/library/aes.c ****                  AES_RT2( ( Y3 >> 16 ) & 0xFF ) ^   \
 851://MAC/Home/Downloads/getstarted-optiga-trust-m/optiga-trust-m-1/externals/mbedtls/library/aes.c ****                  AES_RT3( ( Y2 >> 24 ) & 0xFF );    \
 852://MAC/Home/Downloads/getstarted-optiga-trust-m/optiga-trust-m-1/externals/mbedtls/library/aes.c ****                                                     \
 853://MAC/Home/Downloads/getstarted-optiga-trust-m/optiga-trust-m-1/externals/mbedtls/library/aes.c ****     X2 = *RK++ ^ AES_RT0( ( Y2       ) & 0xFF ) ^   \
 854://MAC/Home/Downloads/getstarted-optiga-trust-m/optiga-trust-m-1/externals/mbedtls/library/aes.c ****                  AES_RT1( ( Y1 >>  8 ) & 0xFF ) ^   \
 855://MAC/Home/Downloads/getstarted-optiga-trust-m/optiga-trust-m-1/externals/mbedtls/library/aes.c ****                  AES_RT2( ( Y0 >> 16 ) & 0xFF ) ^   \
 856://MAC/Home/Downloads/getstarted-optiga-trust-m/optiga-trust-m-1/externals/mbedtls/library/aes.c ****                  AES_RT3( ( Y3 >> 24 ) & 0xFF );    \
 857://MAC/Home/Downloads/getstarted-optiga-trust-m/optiga-trust-m-1/externals/mbedtls/library/aes.c ****                                                     \
 858://MAC/Home/Downloads/getstarted-optiga-trust-m/optiga-trust-m-1/externals/mbedtls/library/aes.c ****     X3 = *RK++ ^ AES_RT0( ( Y3       ) & 0xFF ) ^   \
 859://MAC/Home/Downloads/getstarted-optiga-trust-m/optiga-trust-m-1/externals/mbedtls/library/aes.c ****                  AES_RT1( ( Y2 >>  8 ) & 0xFF ) ^   \
 860://MAC/Home/Downloads/getstarted-optiga-trust-m/optiga-trust-m-1/externals/mbedtls/library/aes.c ****                  AES_RT2( ( Y1 >> 16 ) & 0xFF ) ^   \
 861://MAC/Home/Downloads/getstarted-optiga-trust-m/optiga-trust-m-1/externals/mbedtls/library/aes.c ****                  AES_RT3( ( Y0 >> 24 ) & 0xFF );    \
 862://MAC/Home/Downloads/getstarted-optiga-trust-m/optiga-trust-m-1/externals/mbedtls/library/aes.c **** }
 863://MAC/Home/Downloads/getstarted-optiga-trust-m/optiga-trust-m-1/externals/mbedtls/library/aes.c **** 
 864://MAC/Home/Downloads/getstarted-optiga-trust-m/optiga-trust-m-1/externals/mbedtls/library/aes.c **** /*
 865://MAC/Home/Downloads/getstarted-optiga-trust-m/optiga-trust-m-1/externals/mbedtls/library/aes.c ****  * AES-ECB block encryption
 866://MAC/Home/Downloads/getstarted-optiga-trust-m/optiga-trust-m-1/externals/mbedtls/library/aes.c ****  */
 867://MAC/Home/Downloads/getstarted-optiga-trust-m/optiga-trust-m-1/externals/mbedtls/library/aes.c **** #if !defined(MBEDTLS_AES_ENCRYPT_ALT)
 868://MAC/Home/Downloads/getstarted-optiga-trust-m/optiga-trust-m-1/externals/mbedtls/library/aes.c **** int mbedtls_internal_aes_encrypt( mbedtls_aes_context *ctx,
 869://MAC/Home/Downloads/getstarted-optiga-trust-m/optiga-trust-m-1/externals/mbedtls/library/aes.c ****                                   const unsigned char input[16],
 870://MAC/Home/Downloads/getstarted-optiga-trust-m/optiga-trust-m-1/externals/mbedtls/library/aes.c ****                                   unsigned char output[16] )
 871://MAC/Home/Downloads/getstarted-optiga-trust-m/optiga-trust-m-1/externals/mbedtls/library/aes.c **** {
 1036              	 .loc 1 871 0
 1037              	 .cfi_startproc
 1038              	.LVL90:
 1039 0000 F0B5     	 push {r4,r5,r6,r7,lr}
 1040              	.LCFI7:
 1041              	 .cfi_def_cfa_offset 20
 1042              	 .cfi_offset 4,-20
 1043              	 .cfi_offset 5,-16
 1044              	 .cfi_offset 6,-12
 1045              	 .cfi_offset 7,-8
 1046              	 .cfi_offset 14,-4
 872://MAC/Home/Downloads/getstarted-optiga-trust-m/optiga-trust-m-1/externals/mbedtls/library/aes.c ****     int i;
 873://MAC/Home/Downloads/getstarted-optiga-trust-m/optiga-trust-m-1/externals/mbedtls/library/aes.c ****     uint32_t *RK, X0, X1, X2, X3, Y0, Y1, Y2, Y3;
 874://MAC/Home/Downloads/getstarted-optiga-trust-m/optiga-trust-m-1/externals/mbedtls/library/aes.c **** 
 875://MAC/Home/Downloads/getstarted-optiga-trust-m/optiga-trust-m-1/externals/mbedtls/library/aes.c ****     RK = ctx->rk;
 876://MAC/Home/Downloads/getstarted-optiga-trust-m/optiga-trust-m-1/externals/mbedtls/library/aes.c **** 
 877://MAC/Home/Downloads/getstarted-optiga-trust-m/optiga-trust-m-1/externals/mbedtls/library/aes.c ****     GET_UINT32_LE( X0, input,  0 ); X0 ^= *RK++;
 1047              	 .loc 1 877 0
 1048 0002 4C78     	 ldrb r4,[r1,#1]
 1049 0004 8B78     	 ldrb r3,[r1,#2]
 1050 0006 2402     	 lsl r4,r4,#8
 1051 0008 1B04     	 lsl r3,r3,#16
 871://MAC/Home/Downloads/getstarted-optiga-trust-m/optiga-trust-m-1/externals/mbedtls/library/aes.c ****     int i;
 1052              	 .loc 1 871 0
 1053 000a 87B0     	 sub sp,sp,#28
 1054              	.LCFI8:
 1055              	 .cfi_def_cfa_offset 48
 1056              	 .loc 1 877 0
 1057 000c 0E78     	 ldrb r6,[r1]
 1058 000e 1C43     	 orr r4,r3
 1059 0010 CB78     	 ldrb r3,[r1,#3]
 871://MAC/Home/Downloads/getstarted-optiga-trust-m/optiga-trust-m-1/externals/mbedtls/library/aes.c ****     int i;
 1060              	 .loc 1 871 0
 1061 0012 0092     	 str r2,[sp]
 875://MAC/Home/Downloads/getstarted-optiga-trust-m/optiga-trust-m-1/externals/mbedtls/library/aes.c **** 
 1062              	 .loc 1 875 0
 1063 0014 4268     	 ldr r2,[r0,#4]
 1064              	.LVL91:
 1065              	 .loc 1 877 0
 1066 0016 3443     	 orr r4,r6
 1067 0018 1B06     	 lsl r3,r3,#24
 1068 001a 1C43     	 orr r4,r3
 1069              	.LVL92:
 1070 001c 1368     	 ldr r3,[r2]
 878://MAC/Home/Downloads/getstarted-optiga-trust-m/optiga-trust-m-1/externals/mbedtls/library/aes.c ****     GET_UINT32_LE( X1, input,  4 ); X1 ^= *RK++;
 1071              	 .loc 1 878 0
 1072 001e 4E79     	 ldrb r6,[r1,#5]
 877://MAC/Home/Downloads/getstarted-optiga-trust-m/optiga-trust-m-1/externals/mbedtls/library/aes.c ****     GET_UINT32_LE( X1, input,  4 ); X1 ^= *RK++;
 1073              	 .loc 1 877 0
 1074 0020 6340     	 eor r3,r4
 1075 0022 0193     	 str r3,[sp,#4]
 1076              	.LVL93:
 1077              	 .loc 1 878 0
 1078 0024 8B79     	 ldrb r3,[r1,#6]
 1079              	.LVL94:
 1080 0026 3602     	 lsl r6,r6,#8
 1081 0028 1B04     	 lsl r3,r3,#16
 1082 002a 0C79     	 ldrb r4,[r1,#4]
 1083 002c 1E43     	 orr r6,r3
 1084 002e CB79     	 ldrb r3,[r1,#7]
 1085 0030 2643     	 orr r6,r4
 1086 0032 1B06     	 lsl r3,r3,#24
 1087 0034 1E43     	 orr r6,r3
 1088              	.LVL95:
 1089 0036 5368     	 ldr r3,[r2,#4]
 879://MAC/Home/Downloads/getstarted-optiga-trust-m/optiga-trust-m-1/externals/mbedtls/library/aes.c ****     GET_UINT32_LE( X2, input,  8 ); X2 ^= *RK++;
 1090              	 .loc 1 879 0
 1091 0038 4C7A     	 ldrb r4,[r1,#9]
 878://MAC/Home/Downloads/getstarted-optiga-trust-m/optiga-trust-m-1/externals/mbedtls/library/aes.c ****     GET_UINT32_LE( X1, input,  4 ); X1 ^= *RK++;
 1092              	 .loc 1 878 0
 1093 003a 7340     	 eor r3,r6
 1094 003c 0293     	 str r3,[sp,#8]
 1095              	.LVL96:
 1096              	 .loc 1 879 0
 1097 003e 8B7A     	 ldrb r3,[r1,#10]
 1098              	.LVL97:
 1099 0040 2402     	 lsl r4,r4,#8
 1100 0042 1B04     	 lsl r3,r3,#16
 1101 0044 1C43     	 orr r4,r3
 1102 0046 0B7A     	 ldrb r3,[r1,#8]
 880://MAC/Home/Downloads/getstarted-optiga-trust-m/optiga-trust-m-1/externals/mbedtls/library/aes.c ****     GET_UINT32_LE( X3, input, 12 ); X3 ^= *RK++;
 1103              	 .loc 1 880 0
 1104 0048 4D7B     	 ldrb r5,[r1,#13]
 879://MAC/Home/Downloads/getstarted-optiga-trust-m/optiga-trust-m-1/externals/mbedtls/library/aes.c ****     GET_UINT32_LE( X2, input,  8 ); X2 ^= *RK++;
 1105              	 .loc 1 879 0
 1106 004a 1C43     	 orr r4,r3
 1107 004c CB7A     	 ldrb r3,[r1,#11]
 1108              	 .loc 1 880 0
 1109 004e 2D02     	 lsl r5,r5,#8
 879://MAC/Home/Downloads/getstarted-optiga-trust-m/optiga-trust-m-1/externals/mbedtls/library/aes.c ****     GET_UINT32_LE( X2, input,  8 ); X2 ^= *RK++;
 1110              	 .loc 1 879 0
 1111 0050 1B06     	 lsl r3,r3,#24
 1112 0052 1C43     	 orr r4,r3
 1113              	.LVL98:
 1114 0054 9368     	 ldr r3,[r2,#8]
 1115 0056 5C40     	 eor r4,r3
 1116              	.LVL99:
 1117              	 .loc 1 880 0
 1118 0058 8B7B     	 ldrb r3,[r1,#14]
 1119 005a 1B04     	 lsl r3,r3,#16
 1120 005c 1D43     	 orr r5,r3
 1121 005e 0B7B     	 ldrb r3,[r1,#12]
 1122 0060 C97B     	 ldrb r1,[r1,#15]
 1123              	.LVL100:
 1124 0062 1D43     	 orr r5,r3
 1125 0064 0B06     	 lsl r3,r1,#24
 1126 0066 291C     	 mov r1,r5
 1127 0068 1943     	 orr r1,r3
 1128              	.LVL101:
 1129 006a D368     	 ldr r3,[r2,#12]
 1130 006c 1032     	 add r2,r2,#16
 1131              	.LVL102:
 1132 006e 5940     	 eor r1,r3
 1133              	.LVL103:
 881://MAC/Home/Downloads/getstarted-optiga-trust-m/optiga-trust-m-1/externals/mbedtls/library/aes.c **** 
 882://MAC/Home/Downloads/getstarted-optiga-trust-m/optiga-trust-m-1/externals/mbedtls/library/aes.c ****     for( i = ( ctx->nr >> 1 ) - 1; i > 0; i-- )
 1134              	 .loc 1 882 0
 1135 0070 0368     	 ldr r3,[r0]
 1136 0072 5B10     	 asr r3,r3,#1
 1137 0074 013B     	 sub r3,r3,#1
 1138 0076 0593     	 str r3,[sp,#20]
 1139              	.LVL104:
 1140              	.L64:
 1141              	 .loc 1 882 0 is_stmt 0 discriminator 1
 1142 0078 0598     	 ldr r0,[sp,#20]
 1143 007a FF23     	 mov r3,#255
 1144 007c 0028     	 cmp r0,#0
 1145 007e 00DC     	 bgt .LCB1107
 1146 0080 CDE0     	 b .L66
 1147              	.LCB1107:
 1148              	.LVL105:
 883://MAC/Home/Downloads/getstarted-optiga-trust-m/optiga-trust-m-1/externals/mbedtls/library/aes.c ****     {
 884://MAC/Home/Downloads/getstarted-optiga-trust-m/optiga-trust-m-1/externals/mbedtls/library/aes.c ****         AES_FROUND( Y0, Y1, Y2, Y3, X0, X1, X2, X3 );
 1149              	 .loc 1 884 0 is_stmt 1 discriminator 3
 1150 0082 0198     	 ldr r0,[sp,#4]
 1151 0084 D74D     	 ldr r5,.L67
 1152 0086 1840     	 and r0,r3
 1153 0088 8000     	 lsl r0,r0,#2
 1154 008a 2F58     	 ldr r7,[r5,r0]
 1155 008c 1068     	 ldr r0,[r2]
 1156 008e D64D     	 ldr r5,.L67+4
 1157 0090 4740     	 eor r7,r0
 1158 0092 080E     	 lsr r0,r1,#24
 1159 0094 8000     	 lsl r0,r0,#2
 1160 0096 4059     	 ldr r0,[r0,r5]
 1161 0098 4740     	 eor r7,r0
 1162 009a D448     	 ldr r0,.L67+8
 1163 009c 8446     	 mov ip,r0
 1164 009e 6646     	 mov r6,ip
 1165 00a0 0298     	 ldr r0,[sp,#8]
 1166 00a2 000A     	 lsr r0,r0,#8
 1167 00a4 1840     	 and r0,r3
 1168 00a6 8000     	 lsl r0,r0,#2
 1169 00a8 8059     	 ldr r0,[r0,r6]
 1170 00aa 260C     	 lsr r6,r4,#16
 1171 00ac 4740     	 eor r7,r0
 1172 00ae 1E40     	 and r6,r3
 1173 00b0 CF48     	 ldr r0,.L67+12
 1174 00b2 B600     	 lsl r6,r6,#2
 1175 00b4 3658     	 ldr r6,[r6,r0]
 1176 00b6 6046     	 mov r0,ip
 1177 00b8 7740     	 eor r7,r6
 1178 00ba 029E     	 ldr r6,[sp,#8]
 1179 00bc 0397     	 str r7,[sp,#12]
 1180              	.LVL106:
 1181 00be 1E40     	 and r6,r3
 1182 00c0 C84F     	 ldr r7,.L67
 1183              	.LVL107:
 1184 00c2 B600     	 lsl r6,r6,#2
 1185 00c4 BF59     	 ldr r7,[r7,r6]
 1186 00c6 5668     	 ldr r6,[r2,#4]
 1187 00c8 7740     	 eor r7,r6
 1188 00ca 019E     	 ldr r6,[sp,#4]
 1189 00cc 360E     	 lsr r6,r6,#24
 1190 00ce B600     	 lsl r6,r6,#2
 1191 00d0 7659     	 ldr r6,[r6,r5]
 1192 00d2 7740     	 eor r7,r6
 1193 00d4 260A     	 lsr r6,r4,#8
 1194 00d6 1E40     	 and r6,r3
 1195 00d8 B600     	 lsl r6,r6,#2
 1196 00da 3658     	 ldr r6,[r6,r0]
 1197 00dc C448     	 ldr r0,.L67+12
 1198 00de 7740     	 eor r7,r6
 1199 00e0 0E0C     	 lsr r6,r1,#16
 1200 00e2 1E40     	 and r6,r3
 1201 00e4 B600     	 lsl r6,r6,#2
 1202 00e6 3658     	 ldr r6,[r6,r0]
 1203 00e8 BE48     	 ldr r0,.L67
 1204 00ea 7740     	 eor r7,r6
 1205 00ec 261C     	 mov r6,r4
 1206 00ee 1E40     	 and r6,r3
 1207 00f0 B600     	 lsl r6,r6,#2
 1208 00f2 0497     	 str r7,[sp,#16]
 1209              	.LVL108:
 1210 00f4 8759     	 ldr r7,[r0,r6]
 1211              	.LVL109:
 1212 00f6 9068     	 ldr r0,[r2,#8]
 1213 00f8 240E     	 lsr r4,r4,#24
 1214              	.LVL110:
 1215 00fa 4740     	 eor r7,r0
 1216 00fc 0298     	 ldr r0,[sp,#8]
 1217 00fe A400     	 lsl r4,r4,#2
 1218 0100 060E     	 lsr r6,r0,#24
 1219 0102 6046     	 mov r0,ip
 1220 0104 B600     	 lsl r6,r6,#2
 1221 0106 7659     	 ldr r6,[r6,r5]
 1222 0108 7740     	 eor r7,r6
 1223 010a 0E0A     	 lsr r6,r1,#8
 1224 010c 1E40     	 and r6,r3
 1225 010e B600     	 lsl r6,r6,#2
 1226 0110 3658     	 ldr r6,[r6,r0]
 1227 0112 0198     	 ldr r0,[sp,#4]
 1228 0114 7740     	 eor r7,r6
 1229 0116 060C     	 lsr r6,r0,#16
 1230 0118 1E40     	 and r6,r3
 1231 011a B548     	 ldr r0,.L67+12
 1232 011c B600     	 lsl r6,r6,#2
 1233 011e 3658     	 ldr r6,[r6,r0]
 1234 0120 1940     	 and r1,r3
 1235              	.LVL111:
 1236 0122 B048     	 ldr r0,.L67
 1237 0124 8900     	 lsl r1,r1,#2
 1238 0126 4158     	 ldr r1,[r0,r1]
 1239 0128 D068     	 ldr r0,[r2,#12]
 1240 012a 7740     	 eor r7,r6
 1241              	.LVL112:
 1242 012c 4140     	 eor r1,r0
 1243 012e 0198     	 ldr r0,[sp,#4]
 1244 0130 6459     	 ldr r4,[r4,r5]
 1245 0132 060A     	 lsr r6,r0,#8
 1246 0134 6046     	 mov r0,ip
 1247 0136 1E40     	 and r6,r3
 1248 0138 B600     	 lsl r6,r6,#2
 1249 013a 6140     	 eor r1,r4
 1250 013c 3458     	 ldr r4,[r6,r0]
 1251 013e 0298     	 ldr r0,[sp,#8]
 1252 0140 6140     	 eor r1,r4
 1253 0142 060C     	 lsr r6,r0,#16
 1254 0144 1E40     	 and r6,r3
 1255 0146 AA48     	 ldr r0,.L67+12
 1256 0148 B600     	 lsl r6,r6,#2
 1257 014a 3458     	 ldr r4,[r6,r0]
 885://MAC/Home/Downloads/getstarted-optiga-trust-m/optiga-trust-m-1/externals/mbedtls/library/aes.c ****         AES_FROUND( X0, X1, X2, X3, Y0, Y1, Y2, Y3 );
 1258              	 .loc 1 885 0 discriminator 3
 1259 014c 039E     	 ldr r6,[sp,#12]
 884://MAC/Home/Downloads/getstarted-optiga-trust-m/optiga-trust-m-1/externals/mbedtls/library/aes.c ****         AES_FROUND( X0, X1, X2, X3, Y0, Y1, Y2, Y3 );
 1260              	 .loc 1 884 0 discriminator 3
 1261 014e 6140     	 eor r1,r4
 1262              	.LVL113:
 1263 0150 A448     	 ldr r0,.L67
 1264              	 .loc 1 885 0 discriminator 3
 1265 0152 1E40     	 and r6,r3
 1266 0154 0C0E     	 lsr r4,r1,#24
 1267 0156 B600     	 lsl r6,r6,#2
 1268 0158 A400     	 lsl r4,r4,#2
 1269 015a 6459     	 ldr r4,[r4,r5]
 1270 015c 8659     	 ldr r6,[r0,r6]
 1271 015e 1069     	 ldr r0,[r2,#16]
 1272 0160 6640     	 eor r6,r4
 1273 0162 4640     	 eor r6,r0
 1274 0164 0498     	 ldr r0,[sp,#16]
 1275 0166 040A     	 lsr r4,r0,#8
 1276 0168 6046     	 mov r0,ip
 1277 016a 1C40     	 and r4,r3
 1278 016c A400     	 lsl r4,r4,#2
 1279 016e 2458     	 ldr r4,[r4,r0]
 1280 0170 9F48     	 ldr r0,.L67+12
 1281 0172 6640     	 eor r6,r4
 1282 0174 3C0C     	 lsr r4,r7,#16
 1283 0176 1C40     	 and r4,r3
 1284 0178 A400     	 lsl r4,r4,#2
 1285 017a 2458     	 ldr r4,[r4,r0]
 1286 017c 0398     	 ldr r0,[sp,#12]
 1287 017e 6640     	 eor r6,r4
 1288 0180 0196     	 str r6,[sp,#4]
 1289              	.LVL114:
 1290 0182 049E     	 ldr r6,[sp,#16]
 1291              	.LVL115:
 1292 0184 040E     	 lsr r4,r0,#24
 1293 0186 1E40     	 and r6,r3
 1294 0188 9648     	 ldr r0,.L67
 1295 018a B600     	 lsl r6,r6,#2
 1296 018c A400     	 lsl r4,r4,#2
 1297 018e 6459     	 ldr r4,[r4,r5]
 1298 0190 8659     	 ldr r6,[r0,r6]
 1299 0192 5069     	 ldr r0,[r2,#20]
 1300 0194 6640     	 eor r6,r4
 1301 0196 4640     	 eor r6,r0
 1302 0198 6046     	 mov r0,ip
 1303 019a 3C0A     	 lsr r4,r7,#8
 1304 019c 1C40     	 and r4,r3
 1305 019e A400     	 lsl r4,r4,#2
 1306 01a0 2458     	 ldr r4,[r4,r0]
 1307 01a2 9348     	 ldr r0,.L67+12
 1308 01a4 6640     	 eor r6,r4
 1309 01a6 0C0C     	 lsr r4,r1,#16
 1310 01a8 1C40     	 and r4,r3
 1311 01aa A400     	 lsl r4,r4,#2
 1312 01ac 2458     	 ldr r4,[r4,r0]
 1313 01ae 0498     	 ldr r0,[sp,#16]
 1314 01b0 6640     	 eor r6,r4
 1315 01b2 0296     	 str r6,[sp,#8]
 1316              	.LVL116:
 1317 01b4 3E1C     	 mov r6,r7
 1318              	.LVL117:
 1319 01b6 040E     	 lsr r4,r0,#24
 1320 01b8 1E40     	 and r6,r3
 1321 01ba 8A48     	 ldr r0,.L67
 1322 01bc B600     	 lsl r6,r6,#2
 1323 01be A400     	 lsl r4,r4,#2
 1324 01c0 8659     	 ldr r6,[r0,r6]
 1325 01c2 6459     	 ldr r4,[r4,r5]
 1326 01c4 9069     	 ldr r0,[r2,#24]
 1327 01c6 7440     	 eor r4,r6
 1328 01c8 4440     	 eor r4,r0
 1329 01ca 6046     	 mov r0,ip
 1330 01cc 0E0A     	 lsr r6,r1,#8
 1331 01ce 1E40     	 and r6,r3
 1332 01d0 B600     	 lsl r6,r6,#2
 1333 01d2 3658     	 ldr r6,[r6,r0]
 1334 01d4 0398     	 ldr r0,[sp,#12]
 1335 01d6 7440     	 eor r4,r6
 1336 01d8 060C     	 lsr r6,r0,#16
 1337 01da 1E40     	 and r6,r3
 1338 01dc 8448     	 ldr r0,.L67+12
 1339 01de B600     	 lsl r6,r6,#2
 1340 01e0 3658     	 ldr r6,[r6,r0]
 1341 01e2 1940     	 and r1,r3
 1342              	.LVL118:
 1343 01e4 7F48     	 ldr r0,.L67
 1344 01e6 3F0E     	 lsr r7,r7,#24
 1345              	.LVL119:
 1346 01e8 BF00     	 lsl r7,r7,#2
 1347 01ea 8900     	 lsl r1,r1,#2
 1348 01ec 7D59     	 ldr r5,[r7,r5]
 1349 01ee 4158     	 ldr r1,[r0,r1]
 1350 01f0 D069     	 ldr r0,[r2,#28]
 1351 01f2 6940     	 eor r1,r5
 1352 01f4 4140     	 eor r1,r0
 1353 01f6 0398     	 ldr r0,[sp,#12]
 1354 01f8 7440     	 eor r4,r6
 1355              	.LVL120:
 1356 01fa 070A     	 lsr r7,r0,#8
 1357 01fc 6046     	 mov r0,ip
 1358 01fe 1F40     	 and r7,r3
 1359 0200 BF00     	 lsl r7,r7,#2
 1360 0202 3D58     	 ldr r5,[r7,r0]
 1361 0204 0498     	 ldr r0,[sp,#16]
 1362 0206 6940     	 eor r1,r5
 1363 0208 070C     	 lsr r7,r0,#16
 1364 020a 1F40     	 and r7,r3
 1365 020c 784B     	 ldr r3,.L67+12
 1366 020e BF00     	 lsl r7,r7,#2
 1367 0210 FB58     	 ldr r3,[r7,r3]
 1368 0212 2032     	 add r2,r2,#32
 1369              	.LVL121:
 1370 0214 5940     	 eor r1,r3
 1371              	.LVL122:
 882://MAC/Home/Downloads/getstarted-optiga-trust-m/optiga-trust-m-1/externals/mbedtls/library/aes.c ****     {
 1372              	 .loc 1 882 0 discriminator 3
 1373 0216 059B     	 ldr r3,[sp,#20]
 1374 0218 013B     	 sub r3,r3,#1
 1375 021a 0593     	 str r3,[sp,#20]
 1376              	.LVL123:
 1377 021c 2CE7     	 b .L64
 1378              	.LVL124:
 1379              	.L66:
 886://MAC/Home/Downloads/getstarted-optiga-trust-m/optiga-trust-m-1/externals/mbedtls/library/aes.c ****     }
 887://MAC/Home/Downloads/getstarted-optiga-trust-m/optiga-trust-m-1/externals/mbedtls/library/aes.c **** 
 888://MAC/Home/Downloads/getstarted-optiga-trust-m/optiga-trust-m-1/externals/mbedtls/library/aes.c ****     AES_FROUND( Y0, Y1, Y2, Y3, X0, X1, X2, X3 );
 1380              	 .loc 1 888 0
 1381 021e 7248     	 ldr r0,.L67+4
 1382              	.LVL125:
 1383 0220 019D     	 ldr r5,[sp,#4]
 1384 0222 8446     	 mov ip,r0
 1385 0224 1D40     	 and r5,r3
 1386 0226 6F4E     	 ldr r6,.L67
 1387 0228 AD00     	 lsl r5,r5,#2
 1388 022a 7659     	 ldr r6,[r6,r5]
 1389 022c 6546     	 mov r5,ip
 1390 022e 080E     	 lsr r0,r1,#24
 1391 0230 8000     	 lsl r0,r0,#2
 1392 0232 4059     	 ldr r0,[r0,r5]
 1393 0234 6D4F     	 ldr r7,.L67+8
 1394 0236 4640     	 eor r6,r0
 1395 0238 1068     	 ldr r0,[r2]
 1396 023a 6D4D     	 ldr r5,.L67+12
 1397 023c 4640     	 eor r6,r0
 1398 023e 0298     	 ldr r0,[sp,#8]
 1399 0240 000A     	 lsr r0,r0,#8
 1400 0242 1840     	 and r0,r3
 1401 0244 8000     	 lsl r0,r0,#2
 1402 0246 C059     	 ldr r0,[r0,r7]
 1403 0248 4640     	 eor r6,r0
 1404 024a 200C     	 lsr r0,r4,#16
 1405 024c 1840     	 and r0,r3
 1406 024e 8000     	 lsl r0,r0,#2
 1407 0250 4059     	 ldr r0,[r0,r5]
 1408 0252 644D     	 ldr r5,.L67
 1409 0254 4640     	 eor r6,r0
 1410 0256 0396     	 str r6,[sp,#12]
 1411              	.LVL126:
 1412 0258 029E     	 ldr r6,[sp,#8]
 1413              	.LVL127:
 1414 025a 0198     	 ldr r0,[sp,#4]
 1415 025c 1E40     	 and r6,r3
 1416 025e B600     	 lsl r6,r6,#2
 1417 0260 AE59     	 ldr r6,[r5,r6]
 1418 0262 6546     	 mov r5,ip
 1419 0264 000E     	 lsr r0,r0,#24
 1420 0266 8000     	 lsl r0,r0,#2
 1421 0268 4059     	 ldr r0,[r0,r5]
 1422 026a 614D     	 ldr r5,.L67+12
 1423 026c 4640     	 eor r6,r0
 1424 026e 5068     	 ldr r0,[r2,#4]
 1425 0270 4640     	 eor r6,r0
 1426 0272 200A     	 lsr r0,r4,#8
 1427 0274 1840     	 and r0,r3
 1428 0276 8000     	 lsl r0,r0,#2
 1429 0278 C059     	 ldr r0,[r0,r7]
 1430 027a 4640     	 eor r6,r0
 1431 027c 080C     	 lsr r0,r1,#16
 1432 027e 1840     	 and r0,r3
 1433 0280 8000     	 lsl r0,r0,#2
 1434 0282 4059     	 ldr r0,[r0,r5]
 1435 0284 574D     	 ldr r5,.L67
 1436 0286 4640     	 eor r6,r0
 1437 0288 0496     	 str r6,[sp,#16]
 1438              	.LVL128:
 1439 028a 261C     	 mov r6,r4
 1440              	.LVL129:
 1441 028c 1E40     	 and r6,r3
 1442 028e B600     	 lsl r6,r6,#2
 1443 0290 AE59     	 ldr r6,[r5,r6]
 1444 0292 6546     	 mov r5,ip
 1445 0294 0298     	 ldr r0,[sp,#8]
 1446 0296 240E     	 lsr r4,r4,#24
 1447              	.LVL130:
 1448 0298 000E     	 lsr r0,r0,#24
 1449 029a 8000     	 lsl r0,r0,#2
 1450 029c 4059     	 ldr r0,[r0,r5]
 1451 029e 544D     	 ldr r5,.L67+12
 1452 02a0 4640     	 eor r6,r0
 1453 02a2 9068     	 ldr r0,[r2,#8]
 1454 02a4 A400     	 lsl r4,r4,#2
 1455 02a6 4640     	 eor r6,r0
 1456 02a8 080A     	 lsr r0,r1,#8
 1457 02aa 1840     	 and r0,r3
 1458 02ac 8000     	 lsl r0,r0,#2
 1459 02ae C059     	 ldr r0,[r0,r7]
 1460 02b0 1940     	 and r1,r3
 1461              	.LVL131:
 1462 02b2 4640     	 eor r6,r0
 1463 02b4 0198     	 ldr r0,[sp,#4]
 1464 02b6 8900     	 lsl r1,r1,#2
 1465 02b8 000C     	 lsr r0,r0,#16
 1466 02ba 1840     	 and r0,r3
 1467 02bc 8000     	 lsl r0,r0,#2
 1468 02be 4059     	 ldr r0,[r0,r5]
 1469 02c0 4640     	 eor r6,r0
 1470              	.LVL132:
 1471 02c2 4848     	 ldr r0,.L67
 1472 02c4 4158     	 ldr r1,[r0,r1]
 1473 02c6 6046     	 mov r0,ip
 1474 02c8 2058     	 ldr r0,[r4,r0]
 1475 02ca 4140     	 eor r1,r0
 1476 02cc D068     	 ldr r0,[r2,#12]
 1477 02ce 4140     	 eor r1,r0
 1478 02d0 0198     	 ldr r0,[sp,#4]
 1479 02d2 040A     	 lsr r4,r0,#8
 1480 02d4 1C40     	 and r4,r3
 1481 02d6 0298     	 ldr r0,[sp,#8]
 1482 02d8 A400     	 lsl r4,r4,#2
 1483 02da E759     	 ldr r7,[r4,r7]
 1484 02dc 040C     	 lsr r4,r0,#16
 1485 02de 1C40     	 and r4,r3
 1486 02e0 A400     	 lsl r4,r4,#2
 1487 02e2 7940     	 eor r1,r7
 1488 02e4 6759     	 ldr r7,[r4,r5]
 889://MAC/Home/Downloads/getstarted-optiga-trust-m/optiga-trust-m-1/externals/mbedtls/library/aes.c **** 
 890://MAC/Home/Downloads/getstarted-optiga-trust-m/optiga-trust-m-1/externals/mbedtls/library/aes.c ****     X0 = *RK++ ^ \
 891://MAC/Home/Downloads/getstarted-optiga-trust-m/optiga-trust-m-1/externals/mbedtls/library/aes.c ****             ( (uint32_t) FSb[ ( Y0       ) & 0xFF ]       ) ^
 1489              	 .loc 1 891 0
 1490 02e6 0398     	 ldr r0,[sp,#12]
 888://MAC/Home/Downloads/getstarted-optiga-trust-m/optiga-trust-m-1/externals/mbedtls/library/aes.c **** 
 1491              	 .loc 1 888 0
 1492 02e8 4F40     	 eor r7,r1
 1493              	.LVL133:
 1494              	 .loc 1 891 0
 1495 02ea 4249     	 ldr r1,.L67+16
 1496 02ec 1840     	 and r0,r3
 1497 02ee 0C5C     	 ldrb r4,[r1,r0]
 1498 02f0 1569     	 ldr r5,[r2,#16]
 892://MAC/Home/Downloads/getstarted-optiga-trust-m/optiga-trust-m-1/externals/mbedtls/library/aes.c ****             ( (uint32_t) FSb[ ( Y1 >>  8 ) & 0xFF ] <<  8 ) ^
 893://MAC/Home/Downloads/getstarted-optiga-trust-m/optiga-trust-m-1/externals/mbedtls/library/aes.c ****             ( (uint32_t) FSb[ ( Y2 >> 16 ) & 0xFF ] << 16 ) ^
 894://MAC/Home/Downloads/getstarted-optiga-trust-m/optiga-trust-m-1/externals/mbedtls/library/aes.c ****             ( (uint32_t) FSb[ ( Y3 >> 24 ) & 0xFF ] << 24 );
 1499              	 .loc 1 894 0
 1500 02f2 380E     	 lsr r0,r7,#24
 1501 02f4 6540     	 eor r5,r4
 1502 02f6 2C1C     	 mov r4,r5
 1503 02f8 085C     	 ldrb r0,[r1,r0]
 1504 02fa 0006     	 lsl r0,r0,#24
 1505 02fc 4440     	 eor r4,r0
 892://MAC/Home/Downloads/getstarted-optiga-trust-m/optiga-trust-m-1/externals/mbedtls/library/aes.c ****             ( (uint32_t) FSb[ ( Y1 >>  8 ) & 0xFF ] <<  8 ) ^
 1506              	 .loc 1 892 0
 1507 02fe 0498     	 ldr r0,[sp,#16]
 1508 0300 000A     	 lsr r0,r0,#8
 1509 0302 1840     	 and r0,r3
 1510 0304 0D5C     	 ldrb r5,[r1,r0]
 1511 0306 201C     	 mov r0,r4
 893://MAC/Home/Downloads/getstarted-optiga-trust-m/optiga-trust-m-1/externals/mbedtls/library/aes.c ****             ( (uint32_t) FSb[ ( Y3 >> 24 ) & 0xFF ] << 24 );
 1512              	 .loc 1 893 0
 1513 0308 340C     	 lsr r4,r6,#16
 1514 030a 1C40     	 and r4,r3
 892://MAC/Home/Downloads/getstarted-optiga-trust-m/optiga-trust-m-1/externals/mbedtls/library/aes.c ****             ( (uint32_t) FSb[ ( Y1 >>  8 ) & 0xFF ] <<  8 ) ^
 1515              	 .loc 1 892 0
 1516 030c 2D02     	 lsl r5,r5,#8
 1517 030e 6840     	 eor r0,r5
 893://MAC/Home/Downloads/getstarted-optiga-trust-m/optiga-trust-m-1/externals/mbedtls/library/aes.c ****             ( (uint32_t) FSb[ ( Y3 >> 24 ) & 0xFF ] << 24 );
 1518              	 .loc 1 893 0
 1519 0310 0D5D     	 ldrb r5,[r1,r4]
 1520 0312 5469     	 ldr r4,[r2,#20]
 1521 0314 2D04     	 lsl r5,r5,#16
 890://MAC/Home/Downloads/getstarted-optiga-trust-m/optiga-trust-m-1/externals/mbedtls/library/aes.c ****             ( (uint32_t) FSb[ ( Y0       ) & 0xFF ]       ) ^
 1522              	 .loc 1 890 0
 1523 0316 4540     	 eor r5,r0
 1524              	.LVL134:
 895://MAC/Home/Downloads/getstarted-optiga-trust-m/optiga-trust-m-1/externals/mbedtls/library/aes.c **** 
 896://MAC/Home/Downloads/getstarted-optiga-trust-m/optiga-trust-m-1/externals/mbedtls/library/aes.c ****     X1 = *RK++ ^ \
 897://MAC/Home/Downloads/getstarted-optiga-trust-m/optiga-trust-m-1/externals/mbedtls/library/aes.c ****             ( (uint32_t) FSb[ ( Y1       ) & 0xFF ]       ) ^
 1525              	 .loc 1 897 0
 1526 0318 0498     	 ldr r0,[sp,#16]
 1527 031a 1840     	 and r0,r3
 1528 031c 085C     	 ldrb r0,[r1,r0]
 1529 031e 4440     	 eor r4,r0
 898://MAC/Home/Downloads/getstarted-optiga-trust-m/optiga-trust-m-1/externals/mbedtls/library/aes.c ****             ( (uint32_t) FSb[ ( Y2 >>  8 ) & 0xFF ] <<  8 ) ^
 899://MAC/Home/Downloads/getstarted-optiga-trust-m/optiga-trust-m-1/externals/mbedtls/library/aes.c ****             ( (uint32_t) FSb[ ( Y3 >> 16 ) & 0xFF ] << 16 ) ^
 900://MAC/Home/Downloads/getstarted-optiga-trust-m/optiga-trust-m-1/externals/mbedtls/library/aes.c ****             ( (uint32_t) FSb[ ( Y0 >> 24 ) & 0xFF ] << 24 );
 1530              	 .loc 1 900 0
 1531 0320 0398     	 ldr r0,[sp,#12]
 1532 0322 000E     	 lsr r0,r0,#24
 1533 0324 085C     	 ldrb r0,[r1,r0]
 1534 0326 0006     	 lsl r0,r0,#24
 1535 0328 6040     	 eor r0,r4
 898://MAC/Home/Downloads/getstarted-optiga-trust-m/optiga-trust-m-1/externals/mbedtls/library/aes.c ****             ( (uint32_t) FSb[ ( Y2 >>  8 ) & 0xFF ] <<  8 ) ^
 1536              	 .loc 1 898 0
 1537 032a 340A     	 lsr r4,r6,#8
 1538 032c 1C40     	 and r4,r3
 1539 032e 0C5D     	 ldrb r4,[r1,r4]
 1540 0330 2402     	 lsl r4,r4,#8
 1541 0332 6040     	 eor r0,r4
 899://MAC/Home/Downloads/getstarted-optiga-trust-m/optiga-trust-m-1/externals/mbedtls/library/aes.c ****             ( (uint32_t) FSb[ ( Y0 >> 24 ) & 0xFF ] << 24 );
 1542              	 .loc 1 899 0
 1543 0334 3C0C     	 lsr r4,r7,#16
 1544 0336 1C40     	 and r4,r3
 1545 0338 0C5D     	 ldrb r4,[r1,r4]
 1546 033a 2404     	 lsl r4,r4,#16
 896://MAC/Home/Downloads/getstarted-optiga-trust-m/optiga-trust-m-1/externals/mbedtls/library/aes.c ****             ( (uint32_t) FSb[ ( Y1       ) & 0xFF ]       ) ^
 1547              	 .loc 1 896 0
 1548 033c 4440     	 eor r4,r0
 901://MAC/Home/Downloads/getstarted-optiga-trust-m/optiga-trust-m-1/externals/mbedtls/library/aes.c **** 
 902://MAC/Home/Downloads/getstarted-optiga-trust-m/optiga-trust-m-1/externals/mbedtls/library/aes.c ****     X2 = *RK++ ^ \
 903://MAC/Home/Downloads/getstarted-optiga-trust-m/optiga-trust-m-1/externals/mbedtls/library/aes.c ****             ( (uint32_t) FSb[ ( Y2       ) & 0xFF ]       ) ^
 1549              	 .loc 1 903 0
 1550 033e 301C     	 mov r0,r6
 1551 0340 1840     	 and r0,r3
 1552 0342 085C     	 ldrb r0,[r1,r0]
 896://MAC/Home/Downloads/getstarted-optiga-trust-m/optiga-trust-m-1/externals/mbedtls/library/aes.c ****             ( (uint32_t) FSb[ ( Y1       ) & 0xFF ]       ) ^
 1553              	 .loc 1 896 0
 1554 0344 0194     	 str r4,[sp,#4]
 1555              	.LVL135:
 1556 0346 9469     	 ldr r4,[r2,#24]
 1557              	.LVL136:
 1558 0348 D269     	 ldr r2,[r2,#28]
 1559              	.LVL137:
 1560 034a 4440     	 eor r4,r0
 904://MAC/Home/Downloads/getstarted-optiga-trust-m/optiga-trust-m-1/externals/mbedtls/library/aes.c ****             ( (uint32_t) FSb[ ( Y3 >>  8 ) & 0xFF ] <<  8 ) ^
 905://MAC/Home/Downloads/getstarted-optiga-trust-m/optiga-trust-m-1/externals/mbedtls/library/aes.c ****             ( (uint32_t) FSb[ ( Y0 >> 16 ) & 0xFF ] << 16 ) ^
 906://MAC/Home/Downloads/getstarted-optiga-trust-m/optiga-trust-m-1/externals/mbedtls/library/aes.c ****             ( (uint32_t) FSb[ ( Y1 >> 24 ) & 0xFF ] << 24 );
 1561              	 .loc 1 906 0
 1562 034c 0498     	 ldr r0,[sp,#16]
 907://MAC/Home/Downloads/getstarted-optiga-trust-m/optiga-trust-m-1/externals/mbedtls/library/aes.c **** 
 908://MAC/Home/Downloads/getstarted-optiga-trust-m/optiga-trust-m-1/externals/mbedtls/library/aes.c ****     X3 = *RK++ ^ \
 909://MAC/Home/Downloads/getstarted-optiga-trust-m/optiga-trust-m-1/externals/mbedtls/library/aes.c ****             ( (uint32_t) FSb[ ( Y3       ) & 0xFF ]       ) ^
 910://MAC/Home/Downloads/getstarted-optiga-trust-m/optiga-trust-m-1/externals/mbedtls/library/aes.c ****             ( (uint32_t) FSb[ ( Y0 >>  8 ) & 0xFF ] <<  8 ) ^
 911://MAC/Home/Downloads/getstarted-optiga-trust-m/optiga-trust-m-1/externals/mbedtls/library/aes.c ****             ( (uint32_t) FSb[ ( Y1 >> 16 ) & 0xFF ] << 16 ) ^
 912://MAC/Home/Downloads/getstarted-optiga-trust-m/optiga-trust-m-1/externals/mbedtls/library/aes.c ****             ( (uint32_t) FSb[ ( Y2 >> 24 ) & 0xFF ] << 24 );
 1563              	 .loc 1 912 0
 1564 034e 360E     	 lsr r6,r6,#24
 1565              	.LVL138:
 906://MAC/Home/Downloads/getstarted-optiga-trust-m/optiga-trust-m-1/externals/mbedtls/library/aes.c **** 
 1566              	 .loc 1 906 0
 1567 0350 000E     	 lsr r0,r0,#24
 1568 0352 085C     	 ldrb r0,[r1,r0]
 1569 0354 0006     	 lsl r0,r0,#24
 1570 0356 6040     	 eor r0,r4
 904://MAC/Home/Downloads/getstarted-optiga-trust-m/optiga-trust-m-1/externals/mbedtls/library/aes.c ****             ( (uint32_t) FSb[ ( Y3 >>  8 ) & 0xFF ] <<  8 ) ^
 1571              	 .loc 1 904 0
 1572 0358 3C0A     	 lsr r4,r7,#8
 909://MAC/Home/Downloads/getstarted-optiga-trust-m/optiga-trust-m-1/externals/mbedtls/library/aes.c ****             ( (uint32_t) FSb[ ( Y0 >>  8 ) & 0xFF ] <<  8 ) ^
 1573              	 .loc 1 909 0
 1574 035a 1F40     	 and r7,r3
 1575              	.LVL139:
 1576 035c CF5D     	 ldrb r7,[r1,r7]
 904://MAC/Home/Downloads/getstarted-optiga-trust-m/optiga-trust-m-1/externals/mbedtls/library/aes.c ****             ( (uint32_t) FSb[ ( Y0 >> 16 ) & 0xFF ] << 16 ) ^
 1577              	 .loc 1 904 0
 1578 035e 1C40     	 and r4,r3
 1579 0360 0C5D     	 ldrb r4,[r1,r4]
 1580 0362 5740     	 eor r7,r2
 1581              	 .loc 1 912 0
 1582 0364 8A5D     	 ldrb r2,[r1,r6]
 904://MAC/Home/Downloads/getstarted-optiga-trust-m/optiga-trust-m-1/externals/mbedtls/library/aes.c ****             ( (uint32_t) FSb[ ( Y0 >> 16 ) & 0xFF ] << 16 ) ^
 1583              	 .loc 1 904 0
 1584 0366 2402     	 lsl r4,r4,#8
 1585              	 .loc 1 912 0
 1586 0368 1206     	 lsl r2,r2,#24
 1587 036a 4440     	 eor r4,r0
 1588 036c 5740     	 eor r7,r2
 905://MAC/Home/Downloads/getstarted-optiga-trust-m/optiga-trust-m-1/externals/mbedtls/library/aes.c ****             ( (uint32_t) FSb[ ( Y1 >> 24 ) & 0xFF ] << 24 );
 1589              	 .loc 1 905 0
 1590 036e 0398     	 ldr r0,[sp,#12]
 910://MAC/Home/Downloads/getstarted-optiga-trust-m/optiga-trust-m-1/externals/mbedtls/library/aes.c ****             ( (uint32_t) FSb[ ( Y1 >> 16 ) & 0xFF ] << 16 ) ^
 1591              	 .loc 1 910 0
 1592 0370 039A     	 ldr r2,[sp,#12]
 905://MAC/Home/Downloads/getstarted-optiga-trust-m/optiga-trust-m-1/externals/mbedtls/library/aes.c ****             ( (uint32_t) FSb[ ( Y1 >> 24 ) & 0xFF ] << 24 );
 1593              	 .loc 1 905 0
 1594 0372 000C     	 lsr r0,r0,#16
 910://MAC/Home/Downloads/getstarted-optiga-trust-m/optiga-trust-m-1/externals/mbedtls/library/aes.c ****             ( (uint32_t) FSb[ ( Y1 >> 16 ) & 0xFF ] << 16 ) ^
 1595              	 .loc 1 910 0
 1596 0374 160A     	 lsr r6,r2,#8
 1597 0376 1E40     	 and r6,r3
 905://MAC/Home/Downloads/getstarted-optiga-trust-m/optiga-trust-m-1/externals/mbedtls/library/aes.c ****             ( (uint32_t) FSb[ ( Y1 >> 24 ) & 0xFF ] << 24 );
 1598              	 .loc 1 905 0
 1599 0378 1840     	 and r0,r3
 1600 037a 085C     	 ldrb r0,[r1,r0]
 910://MAC/Home/Downloads/getstarted-optiga-trust-m/optiga-trust-m-1/externals/mbedtls/library/aes.c ****             ( (uint32_t) FSb[ ( Y1 >> 16 ) & 0xFF ] << 16 ) ^
 1601              	 .loc 1 910 0
 1602 037c 8A5D     	 ldrb r2,[r1,r6]
 905://MAC/Home/Downloads/getstarted-optiga-trust-m/optiga-trust-m-1/externals/mbedtls/library/aes.c ****             ( (uint32_t) FSb[ ( Y1 >> 24 ) & 0xFF ] << 24 );
 1603              	 .loc 1 905 0
 1604 037e 0004     	 lsl r0,r0,#16
 910://MAC/Home/Downloads/getstarted-optiga-trust-m/optiga-trust-m-1/externals/mbedtls/library/aes.c ****             ( (uint32_t) FSb[ ( Y1 >> 16 ) & 0xFF ] << 16 ) ^
 1605              	 .loc 1 910 0
 1606 0380 1202     	 lsl r2,r2,#8
 1607 0382 5740     	 eor r7,r2
 911://MAC/Home/Downloads/getstarted-optiga-trust-m/optiga-trust-m-1/externals/mbedtls/library/aes.c ****             ( (uint32_t) FSb[ ( Y2 >> 24 ) & 0xFF ] << 24 );
 1608              	 .loc 1 911 0
 1609 0384 049A     	 ldr r2,[sp,#16]
 902://MAC/Home/Downloads/getstarted-optiga-trust-m/optiga-trust-m-1/externals/mbedtls/library/aes.c ****             ( (uint32_t) FSb[ ( Y2       ) & 0xFF ]       ) ^
 1610              	 .loc 1 902 0
 1611 0386 6040     	 eor r0,r4
 1612              	.LVL140:
 911://MAC/Home/Downloads/getstarted-optiga-trust-m/optiga-trust-m-1/externals/mbedtls/library/aes.c ****             ( (uint32_t) FSb[ ( Y2 >> 24 ) & 0xFF ] << 24 );
 1613              	 .loc 1 911 0
 1614 0388 160C     	 lsr r6,r2,#16
 1615 038a 3340     	 and r3,r6
 1616 038c CA5C     	 ldrb r2,[r1,r3]
 913://MAC/Home/Downloads/getstarted-optiga-trust-m/optiga-trust-m-1/externals/mbedtls/library/aes.c **** 
 914://MAC/Home/Downloads/getstarted-optiga-trust-m/optiga-trust-m-1/externals/mbedtls/library/aes.c ****     PUT_UINT32_LE( X0, output,  0 );
 1617              	 .loc 1 914 0
 1618 038e 009B     	 ldr r3,[sp]
 1619 0390 0099     	 ldr r1,[sp]
 1620 0392 1D70     	 strb r5,[r3]
 1621 0394 2B0A     	 lsr r3,r5,#8
 1622 0396 4B70     	 strb r3,[r1,#1]
 1623 0398 2B0C     	 lsr r3,r5,#16
 1624 039a 2D0E     	 lsr r5,r5,#24
 1625              	.LVL141:
 1626 039c 8B70     	 strb r3,[r1,#2]
 1627 039e CD70     	 strb r5,[r1,#3]
 1628 03a0 0B1C     	 mov r3,r1
 915://MAC/Home/Downloads/getstarted-optiga-trust-m/optiga-trust-m-1/externals/mbedtls/library/aes.c ****     PUT_UINT32_LE( X1, output,  4 );
 1629              	 .loc 1 915 0
 1630 03a2 6946     	 mov r1,sp
 1631 03a4 0979     	 ldrb r1,[r1,#4]
 911://MAC/Home/Downloads/getstarted-optiga-trust-m/optiga-trust-m-1/externals/mbedtls/library/aes.c ****             ( (uint32_t) FSb[ ( Y2 >> 24 ) & 0xFF ] << 24 );
 1632              	 .loc 1 911 0
 1633 03a6 1204     	 lsl r2,r2,#16
 1634              	 .loc 1 915 0
 1635 03a8 1971     	 strb r1,[r3,#4]
 1636 03aa 019B     	 ldr r3,[sp,#4]
 1637 03ac 0099     	 ldr r1,[sp]
 1638 03ae 1B0A     	 lsr r3,r3,#8
 1639 03b0 4B71     	 strb r3,[r1,#5]
 1640 03b2 019B     	 ldr r3,[sp,#4]
 916://MAC/Home/Downloads/getstarted-optiga-trust-m/optiga-trust-m-1/externals/mbedtls/library/aes.c ****     PUT_UINT32_LE( X2, output,  8 );
 1641              	 .loc 1 916 0
 1642 03b4 0872     	 strb r0,[r1,#8]
 915://MAC/Home/Downloads/getstarted-optiga-trust-m/optiga-trust-m-1/externals/mbedtls/library/aes.c ****     PUT_UINT32_LE( X1, output,  4 );
 1643              	 .loc 1 915 0
 1644 03b6 1B0C     	 lsr r3,r3,#16
 1645 03b8 8B71     	 strb r3,[r1,#6]
 1646 03ba 019B     	 ldr r3,[sp,#4]
 908://MAC/Home/Downloads/getstarted-optiga-trust-m/optiga-trust-m-1/externals/mbedtls/library/aes.c ****             ( (uint32_t) FSb[ ( Y3       ) & 0xFF ]       ) ^
 1647              	 .loc 1 908 0
 1648 03bc 7A40     	 eor r2,r7
 1649              	.LVL142:
 915://MAC/Home/Downloads/getstarted-optiga-trust-m/optiga-trust-m-1/externals/mbedtls/library/aes.c ****     PUT_UINT32_LE( X2, output,  8 );
 1650              	 .loc 1 915 0
 1651 03be 1C0E     	 lsr r4,r3,#24
 1652              	 .loc 1 916 0
 1653 03c0 030A     	 lsr r3,r0,#8
 1654 03c2 4B72     	 strb r3,[r1,#9]
 1655 03c4 030C     	 lsr r3,r0,#16
 1656 03c6 000E     	 lsr r0,r0,#24
 1657              	.LVL143:
 1658 03c8 C872     	 strb r0,[r1,#11]
 917://MAC/Home/Downloads/getstarted-optiga-trust-m/optiga-trust-m-1/externals/mbedtls/library/aes.c ****     PUT_UINT32_LE( X3, output, 12 );
 918://MAC/Home/Downloads/getstarted-optiga-trust-m/optiga-trust-m-1/externals/mbedtls/library/aes.c **** 
 919://MAC/Home/Downloads/getstarted-optiga-trust-m/optiga-trust-m-1/externals/mbedtls/library/aes.c ****     return( 0 );
 920://MAC/Home/Downloads/getstarted-optiga-trust-m/optiga-trust-m-1/externals/mbedtls/library/aes.c **** }
 1659              	 .loc 1 920 0
 1660 03ca 0020     	 mov r0,#0
 916://MAC/Home/Downloads/getstarted-optiga-trust-m/optiga-trust-m-1/externals/mbedtls/library/aes.c ****     PUT_UINT32_LE( X3, output, 12 );
 1661              	 .loc 1 916 0
 1662 03cc 8B72     	 strb r3,[r1,#10]
 917://MAC/Home/Downloads/getstarted-optiga-trust-m/optiga-trust-m-1/externals/mbedtls/library/aes.c ****     PUT_UINT32_LE( X3, output, 12 );
 1663              	 .loc 1 917 0
 1664 03ce 130A     	 lsr r3,r2,#8
 1665 03d0 0A73     	 strb r2,[r1,#12]
 1666 03d2 4B73     	 strb r3,[r1,#13]
 1667 03d4 130C     	 lsr r3,r2,#16
 1668 03d6 120E     	 lsr r2,r2,#24
 1669              	.LVL144:
 915://MAC/Home/Downloads/getstarted-optiga-trust-m/optiga-trust-m-1/externals/mbedtls/library/aes.c ****     PUT_UINT32_LE( X2, output,  8 );
 1670              	 .loc 1 915 0
 1671 03d8 CC71     	 strb r4,[r1,#7]
 917://MAC/Home/Downloads/getstarted-optiga-trust-m/optiga-trust-m-1/externals/mbedtls/library/aes.c ****     PUT_UINT32_LE( X3, output, 12 );
 1672              	 .loc 1 917 0
 1673 03da 8B73     	 strb r3,[r1,#14]
 1674 03dc CA73     	 strb r2,[r1,#15]
 1675              	 .loc 1 920 0
 1676 03de 07B0     	 add sp,sp,#28
 1677              	.LVL145:
 1678              	 
 1679 03e0 F0BD     	 pop {r4,r5,r6,r7,pc}
 1680              	.L68:
 1681 03e2 C046     	 .align 2
 1682              	.L67:
 1683 03e4 00000000 	 .word .LANCHOR3
 1684 03e8 00000000 	 .word .LANCHOR6
 1685 03ec 00000000 	 .word .LANCHOR4
 1686 03f0 00000000 	 .word .LANCHOR5
 1687 03f4 00000000 	 .word .LANCHOR1
 1688              	 .cfi_endproc
 1689              	.LFE5:
 1691              	 .section .text.mbedtls_aes_encrypt,"ax",%progbits
 1692              	 .align 1
 1693              	 .global mbedtls_aes_encrypt
 1694              	 .code 16
 1695              	 .thumb_func
 1697              	mbedtls_aes_encrypt:
 1698              	.LFB6:
 921://MAC/Home/Downloads/getstarted-optiga-trust-m/optiga-trust-m-1/externals/mbedtls/library/aes.c **** #endif /* !MBEDTLS_AES_ENCRYPT_ALT */
 922://MAC/Home/Downloads/getstarted-optiga-trust-m/optiga-trust-m-1/externals/mbedtls/library/aes.c **** 
 923://MAC/Home/Downloads/getstarted-optiga-trust-m/optiga-trust-m-1/externals/mbedtls/library/aes.c **** #if !defined(MBEDTLS_DEPRECATED_REMOVED)
 924://MAC/Home/Downloads/getstarted-optiga-trust-m/optiga-trust-m-1/externals/mbedtls/library/aes.c **** void mbedtls_aes_encrypt( mbedtls_aes_context *ctx,
 925://MAC/Home/Downloads/getstarted-optiga-trust-m/optiga-trust-m-1/externals/mbedtls/library/aes.c ****                           const unsigned char input[16],
 926://MAC/Home/Downloads/getstarted-optiga-trust-m/optiga-trust-m-1/externals/mbedtls/library/aes.c ****                           unsigned char output[16] )
 927://MAC/Home/Downloads/getstarted-optiga-trust-m/optiga-trust-m-1/externals/mbedtls/library/aes.c **** {
 1699              	 .loc 1 927 0
 1700              	 .cfi_startproc
 1701              	.LVL146:
 1702 0000 08B5     	 push {r3,lr}
 1703              	.LCFI9:
 1704              	 .cfi_def_cfa_offset 8
 1705              	 .cfi_offset 3,-8
 1706              	 .cfi_offset 14,-4
 928://MAC/Home/Downloads/getstarted-optiga-trust-m/optiga-trust-m-1/externals/mbedtls/library/aes.c ****     mbedtls_internal_aes_encrypt( ctx, input, output );
 1707              	 .loc 1 928 0
 1708 0002 FFF7FEFF 	 bl mbedtls_internal_aes_encrypt
 1709              	.LVL147:
 929://MAC/Home/Downloads/getstarted-optiga-trust-m/optiga-trust-m-1/externals/mbedtls/library/aes.c **** }
 1710              	 .loc 1 929 0
 1711              	 
 1712 0006 08BD     	 pop {r3,pc}
 1713              	 .cfi_endproc
 1714              	.LFE6:
 1716              	 .section .text.mbedtls_internal_aes_decrypt,"ax",%progbits
 1717              	 .align 1
 1718              	 .global mbedtls_internal_aes_decrypt
 1719              	 .code 16
 1720              	 .thumb_func
 1722              	mbedtls_internal_aes_decrypt:
 1723              	.LFB7:
 930://MAC/Home/Downloads/getstarted-optiga-trust-m/optiga-trust-m-1/externals/mbedtls/library/aes.c **** #endif /* !MBEDTLS_DEPRECATED_REMOVED */
 931://MAC/Home/Downloads/getstarted-optiga-trust-m/optiga-trust-m-1/externals/mbedtls/library/aes.c **** 
 932://MAC/Home/Downloads/getstarted-optiga-trust-m/optiga-trust-m-1/externals/mbedtls/library/aes.c **** /*
 933://MAC/Home/Downloads/getstarted-optiga-trust-m/optiga-trust-m-1/externals/mbedtls/library/aes.c ****  * AES-ECB block decryption
 934://MAC/Home/Downloads/getstarted-optiga-trust-m/optiga-trust-m-1/externals/mbedtls/library/aes.c ****  */
 935://MAC/Home/Downloads/getstarted-optiga-trust-m/optiga-trust-m-1/externals/mbedtls/library/aes.c **** #if !defined(MBEDTLS_AES_DECRYPT_ALT)
 936://MAC/Home/Downloads/getstarted-optiga-trust-m/optiga-trust-m-1/externals/mbedtls/library/aes.c **** int mbedtls_internal_aes_decrypt( mbedtls_aes_context *ctx,
 937://MAC/Home/Downloads/getstarted-optiga-trust-m/optiga-trust-m-1/externals/mbedtls/library/aes.c ****                                   const unsigned char input[16],
 938://MAC/Home/Downloads/getstarted-optiga-trust-m/optiga-trust-m-1/externals/mbedtls/library/aes.c ****                                   unsigned char output[16] )
 939://MAC/Home/Downloads/getstarted-optiga-trust-m/optiga-trust-m-1/externals/mbedtls/library/aes.c **** {
 1724              	 .loc 1 939 0
 1725              	 .cfi_startproc
 1726              	.LVL148:
 1727 0000 F0B5     	 push {r4,r5,r6,r7,lr}
 1728              	.LCFI10:
 1729              	 .cfi_def_cfa_offset 20
 1730              	 .cfi_offset 4,-20
 1731              	 .cfi_offset 5,-16
 1732              	 .cfi_offset 6,-12
 1733              	 .cfi_offset 7,-8
 1734              	 .cfi_offset 14,-4
 1735 0002 89B0     	 sub sp,sp,#36
 1736              	.LCFI11:
 1737              	 .cfi_def_cfa_offset 56
 940://MAC/Home/Downloads/getstarted-optiga-trust-m/optiga-trust-m-1/externals/mbedtls/library/aes.c ****     int i;
 941://MAC/Home/Downloads/getstarted-optiga-trust-m/optiga-trust-m-1/externals/mbedtls/library/aes.c ****     uint32_t *RK, X0, X1, X2, X3, Y0, Y1, Y2, Y3;
 942://MAC/Home/Downloads/getstarted-optiga-trust-m/optiga-trust-m-1/externals/mbedtls/library/aes.c **** 
 943://MAC/Home/Downloads/getstarted-optiga-trust-m/optiga-trust-m-1/externals/mbedtls/library/aes.c ****     RK = ctx->rk;
 944://MAC/Home/Downloads/getstarted-optiga-trust-m/optiga-trust-m-1/externals/mbedtls/library/aes.c **** 
 945://MAC/Home/Downloads/getstarted-optiga-trust-m/optiga-trust-m-1/externals/mbedtls/library/aes.c ****     GET_UINT32_LE( X0, input,  0 ); X0 ^= *RK++;
 1738              	 .loc 1 945 0
 1739 0004 4E78     	 ldrb r6,[r1,#1]
 939://MAC/Home/Downloads/getstarted-optiga-trust-m/optiga-trust-m-1/externals/mbedtls/library/aes.c ****     int i;
 1740              	 .loc 1 939 0
 1741 0006 0292     	 str r2,[sp,#8]
 1742              	 .loc 1 945 0
 1743 0008 8A78     	 ldrb r2,[r1,#2]
 1744              	.LVL149:
 1745 000a 3602     	 lsl r6,r6,#8
 1746 000c 1204     	 lsl r2,r2,#16
 943://MAC/Home/Downloads/getstarted-optiga-trust-m/optiga-trust-m-1/externals/mbedtls/library/aes.c **** 
 1747              	 .loc 1 943 0
 1748 000e 4368     	 ldr r3,[r0,#4]
 1749              	.LVL150:
 1750 0010 1643     	 orr r6,r2
 1751              	 .loc 1 945 0
 1752 0012 CC78     	 ldrb r4,[r1,#3]
 1753 0014 0A78     	 ldrb r2,[r1]
 1754 0016 2406     	 lsl r4,r4,#24
 1755 0018 1643     	 orr r6,r2
 1756 001a 1A68     	 ldr r2,[r3]
 1757 001c 2643     	 orr r6,r4
 1758              	.LVL151:
 1759 001e 7240     	 eor r2,r6
 1760 0020 0392     	 str r2,[sp,#12]
 1761              	.LVL152:
 946://MAC/Home/Downloads/getstarted-optiga-trust-m/optiga-trust-m-1/externals/mbedtls/library/aes.c ****     GET_UINT32_LE( X1, input,  4 ); X1 ^= *RK++;
 1762              	 .loc 1 946 0
 1763 0022 4A79     	 ldrb r2,[r1,#5]
 1764              	.LVL153:
 1765 0024 CC79     	 ldrb r4,[r1,#7]
 1766 0026 1602     	 lsl r6,r2,#8
 1767 0028 8A79     	 ldrb r2,[r1,#6]
 1768 002a 2406     	 lsl r4,r4,#24
 1769 002c 1204     	 lsl r2,r2,#16
 1770 002e 3243     	 orr r2,r6
 1771 0030 0E79     	 ldrb r6,[r1,#4]
 1772 0032 3243     	 orr r2,r6
 1773 0034 2243     	 orr r2,r4
 1774              	.LVL154:
 1775 0036 5C68     	 ldr r4,[r3,#4]
 1776 0038 5440     	 eor r4,r2
 947://MAC/Home/Downloads/getstarted-optiga-trust-m/optiga-trust-m-1/externals/mbedtls/library/aes.c ****     GET_UINT32_LE( X2, input,  8 ); X2 ^= *RK++;
 1777              	 .loc 1 947 0
 1778 003a 4A7A     	 ldrb r2,[r1,#9]
 1779              	.LVL155:
 946://MAC/Home/Downloads/getstarted-optiga-trust-m/optiga-trust-m-1/externals/mbedtls/library/aes.c ****     GET_UINT32_LE( X1, input,  4 ); X1 ^= *RK++;
 1780              	 .loc 1 946 0
 1781 003c 0494     	 str r4,[sp,#16]
 1782              	.LVL156:
 1783              	 .loc 1 947 0
 1784 003e 1402     	 lsl r4,r2,#8
 1785              	.LVL157:
 1786 0040 8A7A     	 ldrb r2,[r1,#10]
 1787 0042 1204     	 lsl r2,r2,#16
 1788 0044 2243     	 orr r2,r4
 1789 0046 0C7A     	 ldrb r4,[r1,#8]
 1790 0048 2243     	 orr r2,r4
 1791 004a CC7A     	 ldrb r4,[r1,#11]
 1792 004c 2406     	 lsl r4,r4,#24
 1793 004e 2243     	 orr r2,r4
 1794              	.LVL158:
 1795 0050 9C68     	 ldr r4,[r3,#8]
 1796 0052 6240     	 eor r2,r4
 1797              	.LVL159:
 948://MAC/Home/Downloads/getstarted-optiga-trust-m/optiga-trust-m-1/externals/mbedtls/library/aes.c ****     GET_UINT32_LE( X3, input, 12 ); X3 ^= *RK++;
 1798              	 .loc 1 948 0
 1799 0054 4C7B     	 ldrb r4,[r1,#13]
 1800 0056 2502     	 lsl r5,r4,#8
 1801 0058 8C7B     	 ldrb r4,[r1,#14]
 1802 005a 2404     	 lsl r4,r4,#16
 1803 005c 2C43     	 orr r4,r5
 1804 005e 0D7B     	 ldrb r5,[r1,#12]
 1805 0060 C97B     	 ldrb r1,[r1,#15]
 1806              	.LVL160:
 1807 0062 2C43     	 orr r4,r5
 1808 0064 0906     	 lsl r1,r1,#24
 1809 0066 0C43     	 orr r4,r1
 1810              	.LVL161:
 1811 0068 D968     	 ldr r1,[r3,#12]
 1812 006a 1033     	 add r3,r3,#16
 1813              	.LVL162:
 1814 006c 4C40     	 eor r4,r1
 1815              	.LVL163:
 949://MAC/Home/Downloads/getstarted-optiga-trust-m/optiga-trust-m-1/externals/mbedtls/library/aes.c **** 
 950://MAC/Home/Downloads/getstarted-optiga-trust-m/optiga-trust-m-1/externals/mbedtls/library/aes.c ****     for( i = ( ctx->nr >> 1 ) - 1; i > 0; i-- )
 1816              	 .loc 1 950 0
 1817 006e 0168     	 ldr r1,[r0]
 1818 0070 4910     	 asr r1,r1,#1
 1819 0072 0139     	 sub r1,r1,#1
 1820 0074 0791     	 str r1,[sp,#28]
 1821              	.LVL164:
 1822              	.L73:
 1823              	 .loc 1 950 0 is_stmt 0 discriminator 3
 1824 0076 0799     	 ldr r1,[sp,#28]
 1825 0078 0193     	 str r3,[sp,#4]
 1826              	.LVL165:
 1827 007a FF23     	 mov r3,#255
 1828 007c 0029     	 cmp r1,#0
 1829 007e 00DC     	 bgt .LCB1801
 1830 0080 CDE0     	 b .L74
 1831              	.LCB1801:
 1832              	.LVL166:
 951://MAC/Home/Downloads/getstarted-optiga-trust-m/optiga-trust-m-1/externals/mbedtls/library/aes.c ****     {
 952://MAC/Home/Downloads/getstarted-optiga-trust-m/optiga-trust-m-1/externals/mbedtls/library/aes.c ****         AES_RROUND( Y0, Y1, Y2, Y3, X0, X1, X2, X3 );
 1833              	 .loc 1 952 0 is_stmt 1 discriminator 3
 1834 0082 0398     	 ldr r0,[sp,#12]
 1835 0084 DF49     	 ldr r1,.L75
 1836              	.LVL167:
 1837 0086 1840     	 and r0,r3
 1838 0088 8000     	 lsl r0,r0,#2
 1839 008a 0F58     	 ldr r7,[r1,r0]
 1840 008c 0199     	 ldr r1,[sp,#4]
 1841 008e DE4D     	 ldr r5,.L75+4
 1842 0090 0968     	 ldr r1,[r1]
 1843 0092 160C     	 lsr r6,r2,#16
 1844 0094 4F40     	 eor r7,r1
 1845 0096 0499     	 ldr r1,[sp,#16]
 1846 0098 1E40     	 and r6,r3
 1847 009a 080E     	 lsr r0,r1,#24
 1848 009c DB49     	 ldr r1,.L75+8
 1849 009e 8000     	 lsl r0,r0,#2
 1850 00a0 8C46     	 mov ip,r1
 1851 00a2 4059     	 ldr r0,[r0,r5]
 1852 00a4 B600     	 lsl r6,r6,#2
 1853 00a6 4740     	 eor r7,r0
 1854 00a8 200A     	 lsr r0,r4,#8
 1855 00aa 1840     	 and r0,r3
 1856 00ac 8000     	 lsl r0,r0,#2
 1857 00ae 4058     	 ldr r0,[r0,r1]
 1858 00b0 D449     	 ldr r1,.L75
 1859 00b2 4740     	 eor r7,r0
 1860 00b4 D648     	 ldr r0,.L75+12
 1861 00b6 3658     	 ldr r6,[r6,r0]
 1862 00b8 7740     	 eor r7,r6
 1863 00ba 049E     	 ldr r6,[sp,#16]
 1864 00bc 0597     	 str r7,[sp,#20]
 1865              	.LVL168:
 1866 00be 1E40     	 and r6,r3
 1867 00c0 B600     	 lsl r6,r6,#2
 1868 00c2 8F59     	 ldr r7,[r1,r6]
 1869              	.LVL169:
 1870 00c4 0199     	 ldr r1,[sp,#4]
 1871 00c6 160E     	 lsr r6,r2,#24
 1872 00c8 4968     	 ldr r1,[r1,#4]
 1873 00ca B600     	 lsl r6,r6,#2
 1874 00cc 7659     	 ldr r6,[r6,r5]
 1875 00ce 4F40     	 eor r7,r1
 1876 00d0 0399     	 ldr r1,[sp,#12]
 1877 00d2 7740     	 eor r7,r6
 1878 00d4 0E0A     	 lsr r6,r1,#8
 1879 00d6 6146     	 mov r1,ip
 1880 00d8 1E40     	 and r6,r3
 1881 00da B600     	 lsl r6,r6,#2
 1882 00dc 7658     	 ldr r6,[r6,r1]
 1883 00de C949     	 ldr r1,.L75
 1884 00e0 7740     	 eor r7,r6
 1885 00e2 260C     	 lsr r6,r4,#16
 1886 00e4 1E40     	 and r6,r3
 1887 00e6 B600     	 lsl r6,r6,#2
 1888 00e8 3658     	 ldr r6,[r6,r0]
 1889 00ea 7740     	 eor r7,r6
 1890 00ec 161C     	 mov r6,r2
 1891 00ee 1E40     	 and r6,r3
 1892 00f0 B600     	 lsl r6,r6,#2
 1893 00f2 0697     	 str r7,[sp,#24]
 1894              	.LVL170:
 1895 00f4 8F59     	 ldr r7,[r1,r6]
 1896              	.LVL171:
 1897 00f6 0199     	 ldr r1,[sp,#4]
 1898 00f8 260E     	 lsr r6,r4,#24
 1899 00fa 8968     	 ldr r1,[r1,#8]
 1900 00fc B600     	 lsl r6,r6,#2
 1901 00fe 7659     	 ldr r6,[r6,r5]
 1902 0100 4F40     	 eor r7,r1
 1903 0102 0499     	 ldr r1,[sp,#16]
 1904 0104 7740     	 eor r7,r6
 1905 0106 0E0A     	 lsr r6,r1,#8
 1906 0108 6146     	 mov r1,ip
 1907 010a 1E40     	 and r6,r3
 1908 010c B600     	 lsl r6,r6,#2
 1909 010e 7658     	 ldr r6,[r6,r1]
 1910 0110 0399     	 ldr r1,[sp,#12]
 1911 0112 7740     	 eor r7,r6
 1912 0114 0E0C     	 lsr r6,r1,#16
 1913 0116 1E40     	 and r6,r3
 1914 0118 1C40     	 and r4,r3
 1915              	.LVL172:
 1916 011a BA49     	 ldr r1,.L75
 1917 011c B600     	 lsl r6,r6,#2
 1918 011e A400     	 lsl r4,r4,#2
 1919 0120 3658     	 ldr r6,[r6,r0]
 1920 0122 0C59     	 ldr r4,[r1,r4]
 1921 0124 0199     	 ldr r1,[sp,#4]
 1922 0126 7740     	 eor r7,r6
 1923              	.LVL173:
 1924 0128 C968     	 ldr r1,[r1,#12]
 1925 012a 120A     	 lsr r2,r2,#8
 1926              	.LVL174:
 1927 012c 4C40     	 eor r4,r1
 1928 012e 0399     	 ldr r1,[sp,#12]
 1929 0130 1A40     	 and r2,r3
 1930 0132 0E0E     	 lsr r6,r1,#24
 1931 0134 6146     	 mov r1,ip
 1932 0136 B600     	 lsl r6,r6,#2
 1933 0138 7659     	 ldr r6,[r6,r5]
 1934 013a 9200     	 lsl r2,r2,#2
 1935 013c 6640     	 eor r6,r4
 1936 013e 5458     	 ldr r4,[r2,r1]
 1937 0140 B049     	 ldr r1,.L75
 1938 0142 7440     	 eor r4,r6
 953://MAC/Home/Downloads/getstarted-optiga-trust-m/optiga-trust-m-1/externals/mbedtls/library/aes.c ****         AES_RROUND( X0, X1, X2, X3, Y0, Y1, Y2, Y3 );
 1939              	 .loc 1 953 0 discriminator 3
 1940 0144 059E     	 ldr r6,[sp,#20]
 952://MAC/Home/Downloads/getstarted-optiga-trust-m/optiga-trust-m-1/externals/mbedtls/library/aes.c ****         AES_RROUND( X0, X1, X2, X3, Y0, Y1, Y2, Y3 );
 1941              	 .loc 1 952 0 discriminator 3
 1942 0146 049A     	 ldr r2,[sp,#16]
 1943              	 .loc 1 953 0 discriminator 3
 1944 0148 1E40     	 and r6,r3
 1945 014a B600     	 lsl r6,r6,#2
 1946 014c 8E59     	 ldr r6,[r1,r6]
 1947 014e 6146     	 mov r1,ip
 952://MAC/Home/Downloads/getstarted-optiga-trust-m/optiga-trust-m-1/externals/mbedtls/library/aes.c ****         AES_RROUND( X0, X1, X2, X3, Y0, Y1, Y2, Y3 );
 1948              	 .loc 1 952 0 discriminator 3
 1949 0150 120C     	 lsr r2,r2,#16
 1950 0152 1A40     	 and r2,r3
 1951 0154 9200     	 lsl r2,r2,#2
 1952 0156 1258     	 ldr r2,[r2,r0]
 1953 0158 5440     	 eor r4,r2
 1954              	.LVL175:
 1955              	 .loc 1 953 0 discriminator 3
 1956 015a 069A     	 ldr r2,[sp,#24]
 1957 015c 120E     	 lsr r2,r2,#24
 1958 015e 9200     	 lsl r2,r2,#2
 1959 0160 5259     	 ldr r2,[r2,r5]
 1960 0162 5640     	 eor r6,r2
 1961 0164 019A     	 ldr r2,[sp,#4]
 1962 0166 1269     	 ldr r2,[r2,#16]
 1963 0168 5640     	 eor r6,r2
 1964 016a 220A     	 lsr r2,r4,#8
 1965 016c 1A40     	 and r2,r3
 1966 016e 9200     	 lsl r2,r2,#2
 1967 0170 5258     	 ldr r2,[r2,r1]
 1968 0172 A449     	 ldr r1,.L75
 1969 0174 5640     	 eor r6,r2
 1970 0176 3A0C     	 lsr r2,r7,#16
 1971 0178 1A40     	 and r2,r3
 1972 017a 9200     	 lsl r2,r2,#2
 1973 017c 1258     	 ldr r2,[r2,r0]
 1974 017e 5640     	 eor r6,r2
 1975 0180 0396     	 str r6,[sp,#12]
 1976              	.LVL176:
 1977 0182 069E     	 ldr r6,[sp,#24]
 1978              	.LVL177:
 1979 0184 3A0E     	 lsr r2,r7,#24
 1980 0186 1E40     	 and r6,r3
 1981 0188 B600     	 lsl r6,r6,#2
 1982 018a 8E59     	 ldr r6,[r1,r6]
 1983 018c 6146     	 mov r1,ip
 1984 018e 9200     	 lsl r2,r2,#2
 1985 0190 5259     	 ldr r2,[r2,r5]
 1986 0192 5640     	 eor r6,r2
 1987 0194 019A     	 ldr r2,[sp,#4]
 1988 0196 5269     	 ldr r2,[r2,#20]
 1989 0198 5640     	 eor r6,r2
 1990 019a 059A     	 ldr r2,[sp,#20]
 1991 019c 120A     	 lsr r2,r2,#8
 1992 019e 1A40     	 and r2,r3
 1993 01a0 9200     	 lsl r2,r2,#2
 1994 01a2 5258     	 ldr r2,[r2,r1]
 1995 01a4 9749     	 ldr r1,.L75
 1996 01a6 5640     	 eor r6,r2
 1997 01a8 220C     	 lsr r2,r4,#16
 1998 01aa 1A40     	 and r2,r3
 1999 01ac 9200     	 lsl r2,r2,#2
 2000 01ae 1258     	 ldr r2,[r2,r0]
 2001 01b0 5640     	 eor r6,r2
 2002 01b2 0496     	 str r6,[sp,#16]
 2003              	.LVL178:
 2004 01b4 3E1C     	 mov r6,r7
 2005              	.LVL179:
 2006 01b6 1E40     	 and r6,r3
 2007 01b8 220E     	 lsr r2,r4,#24
 2008 01ba B600     	 lsl r6,r6,#2
 2009 01bc 8E59     	 ldr r6,[r1,r6]
 2010 01be 9200     	 lsl r2,r2,#2
 2011 01c0 0199     	 ldr r1,[sp,#4]
 2012 01c2 5259     	 ldr r2,[r2,r5]
 2013 01c4 8969     	 ldr r1,[r1,#24]
 2014 01c6 7240     	 eor r2,r6
 2015 01c8 4A40     	 eor r2,r1
 2016 01ca 0699     	 ldr r1,[sp,#24]
 2017 01cc 1C40     	 and r4,r3
 2018              	.LVL180:
 2019 01ce 0E0A     	 lsr r6,r1,#8
 2020 01d0 6146     	 mov r1,ip
 2021 01d2 1E40     	 and r6,r3
 2022 01d4 B600     	 lsl r6,r6,#2
 2023 01d6 7658     	 ldr r6,[r6,r1]
 2024 01d8 0599     	 ldr r1,[sp,#20]
 2025 01da 7240     	 eor r2,r6
 2026 01dc 0E0C     	 lsr r6,r1,#16
 2027 01de 1E40     	 and r6,r3
 2028 01e0 B600     	 lsl r6,r6,#2
 2029 01e2 3658     	 ldr r6,[r6,r0]
 2030 01e4 A400     	 lsl r4,r4,#2
 2031 01e6 7240     	 eor r2,r6
 2032              	.LVL181:
 2033 01e8 0E0E     	 lsr r6,r1,#24
 2034 01ea 8649     	 ldr r1,.L75
 2035 01ec B600     	 lsl r6,r6,#2
 2036 01ee 0C59     	 ldr r4,[r1,r4]
 2037 01f0 0199     	 ldr r1,[sp,#4]
 2038 01f2 7559     	 ldr r5,[r6,r5]
 2039 01f4 C969     	 ldr r1,[r1,#28]
 2040 01f6 6C40     	 eor r4,r5
 2041 01f8 4C40     	 eor r4,r1
 2042 01fa 6146     	 mov r1,ip
 2043 01fc 3E0A     	 lsr r6,r7,#8
 2044 01fe 1E40     	 and r6,r3
 2045 0200 B600     	 lsl r6,r6,#2
 2046 0202 7558     	 ldr r5,[r6,r1]
 2047 0204 0699     	 ldr r1,[sp,#24]
 2048 0206 6C40     	 eor r4,r5
 2049 0208 0F0C     	 lsr r7,r1,#16
 2050              	.LVL182:
 2051 020a 1F40     	 and r7,r3
 2052 020c BF00     	 lsl r7,r7,#2
 2053 020e 3B58     	 ldr r3,[r7,r0]
 2054 0210 5C40     	 eor r4,r3
 2055              	.LVL183:
 950://MAC/Home/Downloads/getstarted-optiga-trust-m/optiga-trust-m-1/externals/mbedtls/library/aes.c ****     {
 2056              	 .loc 1 950 0 discriminator 3
 2057 0212 079B     	 ldr r3,[sp,#28]
 2058 0214 013B     	 sub r3,r3,#1
 2059 0216 0793     	 str r3,[sp,#28]
 2060              	.LVL184:
 2061 0218 019B     	 ldr r3,[sp,#4]
 2062              	.LVL185:
 2063 021a 2033     	 add r3,r3,#32
 2064              	.LVL186:
 2065 021c 2BE7     	 b .L73
 2066              	.LVL187:
 2067              	.L74:
 954://MAC/Home/Downloads/getstarted-optiga-trust-m/optiga-trust-m-1/externals/mbedtls/library/aes.c ****     }
 955://MAC/Home/Downloads/getstarted-optiga-trust-m/optiga-trust-m-1/externals/mbedtls/library/aes.c **** 
 956://MAC/Home/Downloads/getstarted-optiga-trust-m/optiga-trust-m-1/externals/mbedtls/library/aes.c ****     AES_RROUND( Y0, Y1, Y2, Y3, X0, X1, X2, X3 );
 2068              	 .loc 1 956 0
 2069 021e 0499     	 ldr r1,[sp,#16]
 2070              	.LVL188:
 2071 0220 039D     	 ldr r5,[sp,#12]
 2072 0222 794F     	 ldr r7,.L75+4
 2073 0224 1D40     	 and r5,r3
 2074 0226 080E     	 lsr r0,r1,#24
 2075 0228 7649     	 ldr r1,.L75
 2076 022a AD00     	 lsl r5,r5,#2
 2077 022c 8000     	 lsl r0,r0,#2
 2078 022e C059     	 ldr r0,[r0,r7]
 2079 0230 4D59     	 ldr r5,[r1,r5]
 2080 0232 0199     	 ldr r1,[sp,#4]
 2081 0234 4540     	 eor r5,r0
 2082 0236 200A     	 lsr r0,r4,#8
 2083 0238 744E     	 ldr r6,.L75+8
 2084 023a 1840     	 and r0,r3
 2085 023c 0968     	 ldr r1,[r1]
 2086 023e 8000     	 lsl r0,r0,#2
 2087 0240 8059     	 ldr r0,[r0,r6]
 2088 0242 4D40     	 eor r5,r1
 2089 0244 4540     	 eor r5,r0
 2090 0246 AC46     	 mov ip,r5
 2091 0248 6146     	 mov r1,ip
 2092 024a 100C     	 lsr r0,r2,#16
 2093 024c 704D     	 ldr r5,.L75+12
 2094 024e 1840     	 and r0,r3
 2095 0250 8000     	 lsl r0,r0,#2
 2096 0252 4059     	 ldr r0,[r0,r5]
 2097 0254 4140     	 eor r1,r0
 2098 0256 0498     	 ldr r0,[sp,#16]
 2099 0258 0591     	 str r1,[sp,#20]
 2100              	.LVL189:
 2101 025a 1840     	 and r0,r3
 2102 025c 8100     	 lsl r1,r0,#2
 2103              	.LVL190:
 2104 025e 8C46     	 mov ip,r1
 2105 0260 100E     	 lsr r0,r2,#24
 2106 0262 8100     	 lsl r1,r0,#2
 2107 0264 6046     	 mov r0,ip
 2108 0266 0691     	 str r1,[sp,#24]
 2109 0268 6649     	 ldr r1,.L75
 2110 026a 0958     	 ldr r1,[r1,r0]
 2111 026c 8C46     	 mov ip,r1
 2112 026e 0699     	 ldr r1,[sp,#24]
 2113 0270 C859     	 ldr r0,[r1,r7]
 2114 0272 6146     	 mov r1,ip
 2115 0274 4840     	 eor r0,r1
 2116 0276 0199     	 ldr r1,[sp,#4]
 2117 0278 4968     	 ldr r1,[r1,#4]
 2118 027a 4140     	 eor r1,r0
 2119 027c 8C46     	 mov ip,r1
 2120 027e 0399     	 ldr r1,[sp,#12]
 2121 0280 080A     	 lsr r0,r1,#8
 2122 0282 6146     	 mov r1,ip
 2123 0284 1840     	 and r0,r3
 2124 0286 8000     	 lsl r0,r0,#2
 2125 0288 8059     	 ldr r0,[r0,r6]
 2126 028a 4140     	 eor r1,r0
 2127 028c 200C     	 lsr r0,r4,#16
 2128 028e 1840     	 and r0,r3
 2129 0290 8000     	 lsl r0,r0,#2
 2130 0292 4059     	 ldr r0,[r0,r5]
 2131 0294 4140     	 eor r1,r0
 2132 0296 101C     	 mov r0,r2
 2133 0298 1840     	 and r0,r3
 2134 029a 0691     	 str r1,[sp,#24]
 2135              	.LVL191:
 2136 029c 8100     	 lsl r1,r0,#2
 2137              	.LVL192:
 2138 029e 8C46     	 mov ip,r1
 2139 02a0 200E     	 lsr r0,r4,#24
 2140 02a2 8100     	 lsl r1,r0,#2
 2141 02a4 6046     	 mov r0,ip
 2142 02a6 0791     	 str r1,[sp,#28]
 2143              	.LVL193:
 2144 02a8 5649     	 ldr r1,.L75
 2145 02aa 1C40     	 and r4,r3
 2146              	.LVL194:
 2147 02ac 0958     	 ldr r1,[r1,r0]
 2148 02ae A400     	 lsl r4,r4,#2
 2149 02b0 8C46     	 mov ip,r1
 2150 02b2 0799     	 ldr r1,[sp,#28]
 2151 02b4 120A     	 lsr r2,r2,#8
 2152              	.LVL195:
 2153 02b6 C859     	 ldr r0,[r1,r7]
 2154 02b8 6146     	 mov r1,ip
 2155 02ba 4840     	 eor r0,r1
 2156 02bc 0199     	 ldr r1,[sp,#4]
 2157 02be 1A40     	 and r2,r3
 2158 02c0 8968     	 ldr r1,[r1,#8]
 2159 02c2 9200     	 lsl r2,r2,#2
 2160 02c4 4140     	 eor r1,r0
 2161 02c6 8C46     	 mov ip,r1
 2162 02c8 0499     	 ldr r1,[sp,#16]
 2163 02ca 080A     	 lsr r0,r1,#8
 2164 02cc 6146     	 mov r1,ip
 2165 02ce 1840     	 and r0,r3
 2166 02d0 8000     	 lsl r0,r0,#2
 2167 02d2 8059     	 ldr r0,[r0,r6]
 2168 02d4 4140     	 eor r1,r0
 2169 02d6 8C46     	 mov ip,r1
 2170 02d8 0399     	 ldr r1,[sp,#12]
 2171 02da 080C     	 lsr r0,r1,#16
 2172 02dc 6146     	 mov r1,ip
 2173 02de 1840     	 and r0,r3
 2174 02e0 8000     	 lsl r0,r0,#2
 2175 02e2 4059     	 ldr r0,[r0,r5]
 2176 02e4 4840     	 eor r0,r1
 2177              	.LVL196:
 2178 02e6 0399     	 ldr r1,[sp,#12]
 2179 02e8 090E     	 lsr r1,r1,#24
 2180 02ea 8900     	 lsl r1,r1,#2
 2181 02ec 8C46     	 mov ip,r1
 2182 02ee 4549     	 ldr r1,.L75
 2183 02f0 0C59     	 ldr r4,[r1,r4]
 2184 02f2 6146     	 mov r1,ip
 2185 02f4 CF59     	 ldr r7,[r1,r7]
 2186 02f6 0199     	 ldr r1,[sp,#4]
 2187 02f8 7C40     	 eor r4,r7
 2188 02fa 9759     	 ldr r7,[r2,r6]
 2189 02fc 049A     	 ldr r2,[sp,#16]
 2190 02fe C968     	 ldr r1,[r1,#12]
 2191 0300 120C     	 lsr r2,r2,#16
 2192 0302 1A40     	 and r2,r3
 2193 0304 9200     	 lsl r2,r2,#2
 2194 0306 5259     	 ldr r2,[r2,r5]
 2195 0308 4C40     	 eor r4,r1
 2196 030a 6740     	 eor r7,r4
 957://MAC/Home/Downloads/getstarted-optiga-trust-m/optiga-trust-m-1/externals/mbedtls/library/aes.c **** 
 958://MAC/Home/Downloads/getstarted-optiga-trust-m/optiga-trust-m-1/externals/mbedtls/library/aes.c ****     X0 = *RK++ ^ \
 959://MAC/Home/Downloads/getstarted-optiga-trust-m/optiga-trust-m-1/externals/mbedtls/library/aes.c ****             ( (uint32_t) RSb[ ( Y0       ) & 0xFF ]       ) ^
 2197              	 .loc 1 959 0
 2198 030c 059C     	 ldr r4,[sp,#20]
 956://MAC/Home/Downloads/getstarted-optiga-trust-m/optiga-trust-m-1/externals/mbedtls/library/aes.c **** 
 2199              	 .loc 1 956 0
 2200 030e 5740     	 eor r7,r2
 2201              	.LVL197:
 2202 0310 0199     	 ldr r1,[sp,#4]
 2203              	 .loc 1 959 0
 2204 0312 404A     	 ldr r2,.L75+16
 2205 0314 1C40     	 and r4,r3
 2206 0316 155D     	 ldrb r5,[r2,r4]
 2207 0318 0E69     	 ldr r6,[r1,#16]
 960://MAC/Home/Downloads/getstarted-optiga-trust-m/optiga-trust-m-1/externals/mbedtls/library/aes.c ****             ( (uint32_t) RSb[ ( Y3 >>  8 ) & 0xFF ] <<  8 ) ^
 961://MAC/Home/Downloads/getstarted-optiga-trust-m/optiga-trust-m-1/externals/mbedtls/library/aes.c ****             ( (uint32_t) RSb[ ( Y2 >> 16 ) & 0xFF ] << 16 ) ^
 962://MAC/Home/Downloads/getstarted-optiga-trust-m/optiga-trust-m-1/externals/mbedtls/library/aes.c ****             ( (uint32_t) RSb[ ( Y1 >> 24 ) & 0xFF ] << 24 );
 2208              	 .loc 1 962 0
 2209 031a 0699     	 ldr r1,[sp,#24]
 2210 031c 6E40     	 eor r6,r5
 2211 031e 351C     	 mov r5,r6
 2212 0320 0C0E     	 lsr r4,r1,#24
 2213 0322 145D     	 ldrb r4,[r2,r4]
 2214 0324 2406     	 lsl r4,r4,#24
 2215 0326 6540     	 eor r5,r4
 960://MAC/Home/Downloads/getstarted-optiga-trust-m/optiga-trust-m-1/externals/mbedtls/library/aes.c ****             ( (uint32_t) RSb[ ( Y3 >>  8 ) & 0xFF ] <<  8 ) ^
 2216              	 .loc 1 960 0
 2217 0328 3C0A     	 lsr r4,r7,#8
 2218 032a 1C40     	 and r4,r3
 2219 032c 165D     	 ldrb r6,[r2,r4]
 2220 032e 2C1C     	 mov r4,r5
 961://MAC/Home/Downloads/getstarted-optiga-trust-m/optiga-trust-m-1/externals/mbedtls/library/aes.c ****             ( (uint32_t) RSb[ ( Y1 >> 24 ) & 0xFF ] << 24 );
 2221              	 .loc 1 961 0
 2222 0330 050C     	 lsr r5,r0,#16
 2223 0332 1D40     	 and r5,r3
 960://MAC/Home/Downloads/getstarted-optiga-trust-m/optiga-trust-m-1/externals/mbedtls/library/aes.c ****             ( (uint32_t) RSb[ ( Y3 >>  8 ) & 0xFF ] <<  8 ) ^
 2224              	 .loc 1 960 0
 2225 0334 3602     	 lsl r6,r6,#8
 2226 0336 7440     	 eor r4,r6
 961://MAC/Home/Downloads/getstarted-optiga-trust-m/optiga-trust-m-1/externals/mbedtls/library/aes.c ****             ( (uint32_t) RSb[ ( Y1 >> 24 ) & 0xFF ] << 24 );
 2227              	 .loc 1 961 0
 2228 0338 565D     	 ldrb r6,[r2,r5]
 2229 033a 3604     	 lsl r6,r6,#16
 958://MAC/Home/Downloads/getstarted-optiga-trust-m/optiga-trust-m-1/externals/mbedtls/library/aes.c ****             ( (uint32_t) RSb[ ( Y0       ) & 0xFF ]       ) ^
 2230              	 .loc 1 958 0
 2231 033c 6640     	 eor r6,r4
 2232              	.LVL198:
 963://MAC/Home/Downloads/getstarted-optiga-trust-m/optiga-trust-m-1/externals/mbedtls/library/aes.c **** 
 964://MAC/Home/Downloads/getstarted-optiga-trust-m/optiga-trust-m-1/externals/mbedtls/library/aes.c ****     X1 = *RK++ ^ \
 965://MAC/Home/Downloads/getstarted-optiga-trust-m/optiga-trust-m-1/externals/mbedtls/library/aes.c ****             ( (uint32_t) RSb[ ( Y1       ) & 0xFF ]       ) ^
 2233              	 .loc 1 965 0
 2234 033e 0C1C     	 mov r4,r1
 2235 0340 0199     	 ldr r1,[sp,#4]
 2236 0342 1C40     	 and r4,r3
 2237 0344 145D     	 ldrb r4,[r2,r4]
 2238 0346 4D69     	 ldr r5,[r1,#20]
 966://MAC/Home/Downloads/getstarted-optiga-trust-m/optiga-trust-m-1/externals/mbedtls/library/aes.c ****             ( (uint32_t) RSb[ ( Y0 >>  8 ) & 0xFF ] <<  8 ) ^
 2239              	 .loc 1 966 0
 2240 0348 0599     	 ldr r1,[sp,#20]
 2241 034a 6540     	 eor r5,r4
 967://MAC/Home/Downloads/getstarted-optiga-trust-m/optiga-trust-m-1/externals/mbedtls/library/aes.c ****             ( (uint32_t) RSb[ ( Y3 >> 16 ) & 0xFF ] << 16 ) ^
 968://MAC/Home/Downloads/getstarted-optiga-trust-m/optiga-trust-m-1/externals/mbedtls/library/aes.c ****             ( (uint32_t) RSb[ ( Y2 >> 24 ) & 0xFF ] << 24 );
 2242              	 .loc 1 968 0
 2243 034c 040E     	 lsr r4,r0,#24
 2244 034e 145D     	 ldrb r4,[r2,r4]
 2245 0350 2406     	 lsl r4,r4,#24
 2246 0352 6C40     	 eor r4,r5
 966://MAC/Home/Downloads/getstarted-optiga-trust-m/optiga-trust-m-1/externals/mbedtls/library/aes.c ****             ( (uint32_t) RSb[ ( Y0 >>  8 ) & 0xFF ] <<  8 ) ^
 2247              	 .loc 1 966 0
 2248 0354 0D0A     	 lsr r5,r1,#8
 2249 0356 1D40     	 and r5,r3
 2250 0358 555D     	 ldrb r5,[r2,r5]
 2251 035a 0199     	 ldr r1,[sp,#4]
 2252 035c 2D02     	 lsl r5,r5,#8
 2253 035e 6C40     	 eor r4,r5
 967://MAC/Home/Downloads/getstarted-optiga-trust-m/optiga-trust-m-1/externals/mbedtls/library/aes.c ****             ( (uint32_t) RSb[ ( Y3 >> 16 ) & 0xFF ] << 16 ) ^
 2254              	 .loc 1 967 0
 2255 0360 3D0C     	 lsr r5,r7,#16
 2256 0362 1D40     	 and r5,r3
 2257 0364 555D     	 ldrb r5,[r2,r5]
 2258 0366 8969     	 ldr r1,[r1,#24]
 2259 0368 2D04     	 lsl r5,r5,#16
 964://MAC/Home/Downloads/getstarted-optiga-trust-m/optiga-trust-m-1/externals/mbedtls/library/aes.c ****             ( (uint32_t) RSb[ ( Y1       ) & 0xFF ]       ) ^
 2260              	 .loc 1 964 0
 2261 036a 6540     	 eor r5,r4
 2262              	.LVL199:
 969://MAC/Home/Downloads/getstarted-optiga-trust-m/optiga-trust-m-1/externals/mbedtls/library/aes.c **** 
 970://MAC/Home/Downloads/getstarted-optiga-trust-m/optiga-trust-m-1/externals/mbedtls/library/aes.c ****     X2 = *RK++ ^ \
 971://MAC/Home/Downloads/getstarted-optiga-trust-m/optiga-trust-m-1/externals/mbedtls/library/aes.c ****             ( (uint32_t) RSb[ ( Y2       ) & 0xFF ]       ) ^
 2263              	 .loc 1 971 0
 2264 036c 041C     	 mov r4,r0
 2265 036e 1C40     	 and r4,r3
 2266 0370 145D     	 ldrb r4,[r2,r4]
 972://MAC/Home/Downloads/getstarted-optiga-trust-m/optiga-trust-m-1/externals/mbedtls/library/aes.c ****             ( (uint32_t) RSb[ ( Y1 >>  8 ) & 0xFF ] <<  8 ) ^
 973://MAC/Home/Downloads/getstarted-optiga-trust-m/optiga-trust-m-1/externals/mbedtls/library/aes.c ****             ( (uint32_t) RSb[ ( Y0 >> 16 ) & 0xFF ] << 16 ) ^
 974://MAC/Home/Downloads/getstarted-optiga-trust-m/optiga-trust-m-1/externals/mbedtls/library/aes.c ****             ( (uint32_t) RSb[ ( Y3 >> 24 ) & 0xFF ] << 24 );
 975://MAC/Home/Downloads/getstarted-optiga-trust-m/optiga-trust-m-1/externals/mbedtls/library/aes.c **** 
 976://MAC/Home/Downloads/getstarted-optiga-trust-m/optiga-trust-m-1/externals/mbedtls/library/aes.c ****     X3 = *RK++ ^ \
 977://MAC/Home/Downloads/getstarted-optiga-trust-m/optiga-trust-m-1/externals/mbedtls/library/aes.c ****             ( (uint32_t) RSb[ ( Y3       ) & 0xFF ]       ) ^
 978://MAC/Home/Downloads/getstarted-optiga-trust-m/optiga-trust-m-1/externals/mbedtls/library/aes.c ****             ( (uint32_t) RSb[ ( Y2 >>  8 ) & 0xFF ] <<  8 ) ^
 2267              	 .loc 1 978 0
 2268 0372 000A     	 lsr r0,r0,#8
 2269              	.LVL200:
 2270 0374 6140     	 eor r1,r4
 974://MAC/Home/Downloads/getstarted-optiga-trust-m/optiga-trust-m-1/externals/mbedtls/library/aes.c **** 
 2271              	 .loc 1 974 0
 2272 0376 3C0E     	 lsr r4,r7,#24
 2273 0378 145D     	 ldrb r4,[r2,r4]
 977://MAC/Home/Downloads/getstarted-optiga-trust-m/optiga-trust-m-1/externals/mbedtls/library/aes.c ****             ( (uint32_t) RSb[ ( Y2 >>  8 ) & 0xFF ] <<  8 ) ^
 2274              	 .loc 1 977 0
 2275 037a 1F40     	 and r7,r3
 2276              	.LVL201:
 974://MAC/Home/Downloads/getstarted-optiga-trust-m/optiga-trust-m-1/externals/mbedtls/library/aes.c **** 
 2277              	 .loc 1 974 0
 2278 037c 2406     	 lsl r4,r4,#24
 2279 037e 4C40     	 eor r4,r1
 972://MAC/Home/Downloads/getstarted-optiga-trust-m/optiga-trust-m-1/externals/mbedtls/library/aes.c ****             ( (uint32_t) RSb[ ( Y1 >>  8 ) & 0xFF ] <<  8 ) ^
 2280              	 .loc 1 972 0
 2281 0380 0699     	 ldr r1,[sp,#24]
 2282              	 .loc 1 978 0
 2283 0382 1840     	 and r0,r3
 972://MAC/Home/Downloads/getstarted-optiga-trust-m/optiga-trust-m-1/externals/mbedtls/library/aes.c ****             ( (uint32_t) RSb[ ( Y1 >>  8 ) & 0xFF ] <<  8 ) ^
 2284              	 .loc 1 972 0
 2285 0384 090A     	 lsr r1,r1,#8
 2286 0386 1940     	 and r1,r3
 2287 0388 515C     	 ldrb r1,[r2,r1]
 977://MAC/Home/Downloads/getstarted-optiga-trust-m/optiga-trust-m-1/externals/mbedtls/library/aes.c ****             ( (uint32_t) RSb[ ( Y2 >>  8 ) & 0xFF ] <<  8 ) ^
 2288              	 .loc 1 977 0
 2289 038a D75D     	 ldrb r7,[r2,r7]
 972://MAC/Home/Downloads/getstarted-optiga-trust-m/optiga-trust-m-1/externals/mbedtls/library/aes.c ****             ( (uint32_t) RSb[ ( Y1 >>  8 ) & 0xFF ] <<  8 ) ^
 2290              	 .loc 1 972 0
 2291 038c 0902     	 lsl r1,r1,#8
 2292 038e 6140     	 eor r1,r4
 2293 0390 8C46     	 mov ip,r1
 973://MAC/Home/Downloads/getstarted-optiga-trust-m/optiga-trust-m-1/externals/mbedtls/library/aes.c ****             ( (uint32_t) RSb[ ( Y3 >> 24 ) & 0xFF ] << 24 );
 2294              	 .loc 1 973 0
 2295 0392 0599     	 ldr r1,[sp,#20]
 2296 0394 0C0C     	 lsr r4,r1,#16
 970://MAC/Home/Downloads/getstarted-optiga-trust-m/optiga-trust-m-1/externals/mbedtls/library/aes.c ****             ( (uint32_t) RSb[ ( Y2       ) & 0xFF ]       ) ^
 2297              	 .loc 1 970 0
 2298 0396 6146     	 mov r1,ip
 973://MAC/Home/Downloads/getstarted-optiga-trust-m/optiga-trust-m-1/externals/mbedtls/library/aes.c ****             ( (uint32_t) RSb[ ( Y3 >> 24 ) & 0xFF ] << 24 );
 2299              	 .loc 1 973 0
 2300 0398 1C40     	 and r4,r3
 2301 039a 145D     	 ldrb r4,[r2,r4]
 2302 039c 2404     	 lsl r4,r4,#16
 970://MAC/Home/Downloads/getstarted-optiga-trust-m/optiga-trust-m-1/externals/mbedtls/library/aes.c ****             ( (uint32_t) RSb[ ( Y2       ) & 0xFF ]       ) ^
 2303              	 .loc 1 970 0
 2304 039e 4C40     	 eor r4,r1
 2305              	.LVL202:
 2306 03a0 0199     	 ldr r1,[sp,#4]
 2307 03a2 C969     	 ldr r1,[r1,#28]
 2308 03a4 4F40     	 eor r7,r1
 979://MAC/Home/Downloads/getstarted-optiga-trust-m/optiga-trust-m-1/externals/mbedtls/library/aes.c ****             ( (uint32_t) RSb[ ( Y1 >> 16 ) & 0xFF ] << 16 ) ^
 980://MAC/Home/Downloads/getstarted-optiga-trust-m/optiga-trust-m-1/externals/mbedtls/library/aes.c ****             ( (uint32_t) RSb[ ( Y0 >> 24 ) & 0xFF ] << 24 );
 2309              	 .loc 1 980 0
 2310 03a6 0599     	 ldr r1,[sp,#20]
 2311 03a8 090E     	 lsr r1,r1,#24
 2312 03aa 515C     	 ldrb r1,[r2,r1]
 2313 03ac 0906     	 lsl r1,r1,#24
 2314 03ae 4F40     	 eor r7,r1
 978://MAC/Home/Downloads/getstarted-optiga-trust-m/optiga-trust-m-1/externals/mbedtls/library/aes.c ****             ( (uint32_t) RSb[ ( Y1 >> 16 ) & 0xFF ] << 16 ) ^
 2315              	 .loc 1 978 0
 2316 03b0 115C     	 ldrb r1,[r2,r0]
 2317 03b2 0902     	 lsl r1,r1,#8
 2318 03b4 4F40     	 eor r7,r1
 979://MAC/Home/Downloads/getstarted-optiga-trust-m/optiga-trust-m-1/externals/mbedtls/library/aes.c ****             ( (uint32_t) RSb[ ( Y1 >> 16 ) & 0xFF ] << 16 ) ^
 2319              	 .loc 1 979 0
 2320 03b6 0699     	 ldr r1,[sp,#24]
 2321 03b8 080C     	 lsr r0,r1,#16
 2322 03ba 0340     	 and r3,r0
 981://MAC/Home/Downloads/getstarted-optiga-trust-m/optiga-trust-m-1/externals/mbedtls/library/aes.c **** 
 982://MAC/Home/Downloads/getstarted-optiga-trust-m/optiga-trust-m-1/externals/mbedtls/library/aes.c ****     PUT_UINT32_LE( X0, output,  0 );
 983://MAC/Home/Downloads/getstarted-optiga-trust-m/optiga-trust-m-1/externals/mbedtls/library/aes.c ****     PUT_UINT32_LE( X1, output,  4 );
 984://MAC/Home/Downloads/getstarted-optiga-trust-m/optiga-trust-m-1/externals/mbedtls/library/aes.c ****     PUT_UINT32_LE( X2, output,  8 );
 985://MAC/Home/Downloads/getstarted-optiga-trust-m/optiga-trust-m-1/externals/mbedtls/library/aes.c ****     PUT_UINT32_LE( X3, output, 12 );
 986://MAC/Home/Downloads/getstarted-optiga-trust-m/optiga-trust-m-1/externals/mbedtls/library/aes.c **** 
 987://MAC/Home/Downloads/getstarted-optiga-trust-m/optiga-trust-m-1/externals/mbedtls/library/aes.c ****     return( 0 );
 988://MAC/Home/Downloads/getstarted-optiga-trust-m/optiga-trust-m-1/externals/mbedtls/library/aes.c **** }
 2323              	 .loc 1 988 0
 2324 03bc 0020     	 mov r0,#0
 979://MAC/Home/Downloads/getstarted-optiga-trust-m/optiga-trust-m-1/externals/mbedtls/library/aes.c ****             ( (uint32_t) RSb[ ( Y0 >> 24 ) & 0xFF ] << 24 );
 2325              	 .loc 1 979 0
 2326 03be D15C     	 ldrb r1,[r2,r3]
 982://MAC/Home/Downloads/getstarted-optiga-trust-m/optiga-trust-m-1/externals/mbedtls/library/aes.c ****     PUT_UINT32_LE( X1, output,  4 );
 2327              	 .loc 1 982 0
 2328 03c0 029B     	 ldr r3,[sp,#8]
 2329 03c2 029A     	 ldr r2,[sp,#8]
 2330 03c4 1E70     	 strb r6,[r3]
 2331 03c6 330A     	 lsr r3,r6,#8
 2332 03c8 5370     	 strb r3,[r2,#1]
 2333 03ca 330C     	 lsr r3,r6,#16
 2334 03cc 9370     	 strb r3,[r2,#2]
 983://MAC/Home/Downloads/getstarted-optiga-trust-m/optiga-trust-m-1/externals/mbedtls/library/aes.c ****     PUT_UINT32_LE( X2, output,  8 );
 2335              	 .loc 1 983 0
 2336 03ce 2B0A     	 lsr r3,r5,#8
 2337 03d0 5371     	 strb r3,[r2,#5]
 2338 03d2 2B0C     	 lsr r3,r5,#16
 979://MAC/Home/Downloads/getstarted-optiga-trust-m/optiga-trust-m-1/externals/mbedtls/library/aes.c ****             ( (uint32_t) RSb[ ( Y0 >> 24 ) & 0xFF ] << 24 );
 2339              	 .loc 1 979 0
 2340 03d4 0904     	 lsl r1,r1,#16
 983://MAC/Home/Downloads/getstarted-optiga-trust-m/optiga-trust-m-1/externals/mbedtls/library/aes.c ****     PUT_UINT32_LE( X2, output,  8 );
 2341              	 .loc 1 983 0
 2342 03d6 9371     	 strb r3,[r2,#6]
 984://MAC/Home/Downloads/getstarted-optiga-trust-m/optiga-trust-m-1/externals/mbedtls/library/aes.c ****     PUT_UINT32_LE( X3, output, 12 );
 2343              	 .loc 1 984 0
 2344 03d8 230A     	 lsr r3,r4,#8
 976://MAC/Home/Downloads/getstarted-optiga-trust-m/optiga-trust-m-1/externals/mbedtls/library/aes.c ****             ( (uint32_t) RSb[ ( Y3       ) & 0xFF ]       ) ^
 2345              	 .loc 1 976 0
 2346 03da 4F40     	 eor r7,r1
 2347              	.LVL203:
 984://MAC/Home/Downloads/getstarted-optiga-trust-m/optiga-trust-m-1/externals/mbedtls/library/aes.c ****     PUT_UINT32_LE( X3, output, 12 );
 2348              	 .loc 1 984 0
 2349 03dc 5372     	 strb r3,[r2,#9]
 2350 03de 230C     	 lsr r3,r4,#16
 2351 03e0 9372     	 strb r3,[r2,#10]
 985://MAC/Home/Downloads/getstarted-optiga-trust-m/optiga-trust-m-1/externals/mbedtls/library/aes.c **** 
 2352              	 .loc 1 985 0
 2353 03e2 3B0A     	 lsr r3,r7,#8
 982://MAC/Home/Downloads/getstarted-optiga-trust-m/optiga-trust-m-1/externals/mbedtls/library/aes.c ****     PUT_UINT32_LE( X1, output,  4 );
 2354              	 .loc 1 982 0
 2355 03e4 360E     	 lsr r6,r6,#24
 2356              	.LVL204:
 983://MAC/Home/Downloads/getstarted-optiga-trust-m/optiga-trust-m-1/externals/mbedtls/library/aes.c ****     PUT_UINT32_LE( X2, output,  8 );
 2357              	 .loc 1 983 0
 2358 03e6 1571     	 strb r5,[r2,#4]
 984://MAC/Home/Downloads/getstarted-optiga-trust-m/optiga-trust-m-1/externals/mbedtls/library/aes.c ****     PUT_UINT32_LE( X3, output, 12 );
 2359              	 .loc 1 984 0
 2360 03e8 1472     	 strb r4,[r2,#8]
 983://MAC/Home/Downloads/getstarted-optiga-trust-m/optiga-trust-m-1/externals/mbedtls/library/aes.c ****     PUT_UINT32_LE( X2, output,  8 );
 2361              	 .loc 1 983 0
 2362 03ea 2D0E     	 lsr r5,r5,#24
 2363              	.LVL205:
 984://MAC/Home/Downloads/getstarted-optiga-trust-m/optiga-trust-m-1/externals/mbedtls/library/aes.c ****     PUT_UINT32_LE( X3, output, 12 );
 2364              	 .loc 1 984 0
 2365 03ec 240E     	 lsr r4,r4,#24
 2366              	.LVL206:
 985://MAC/Home/Downloads/getstarted-optiga-trust-m/optiga-trust-m-1/externals/mbedtls/library/aes.c **** 
 2367              	 .loc 1 985 0
 2368 03ee 1773     	 strb r7,[r2,#12]
 2369 03f0 5373     	 strb r3,[r2,#13]
 2370 03f2 3B0C     	 lsr r3,r7,#16
 2371 03f4 3F0E     	 lsr r7,r7,#24
 2372              	.LVL207:
 982://MAC/Home/Downloads/getstarted-optiga-trust-m/optiga-trust-m-1/externals/mbedtls/library/aes.c ****     PUT_UINT32_LE( X1, output,  4 );
 2373              	 .loc 1 982 0
 2374 03f6 D670     	 strb r6,[r2,#3]
 983://MAC/Home/Downloads/getstarted-optiga-trust-m/optiga-trust-m-1/externals/mbedtls/library/aes.c ****     PUT_UINT32_LE( X2, output,  8 );
 2375              	 .loc 1 983 0
 2376 03f8 D571     	 strb r5,[r2,#7]
 984://MAC/Home/Downloads/getstarted-optiga-trust-m/optiga-trust-m-1/externals/mbedtls/library/aes.c ****     PUT_UINT32_LE( X3, output, 12 );
 2377              	 .loc 1 984 0
 2378 03fa D472     	 strb r4,[r2,#11]
 985://MAC/Home/Downloads/getstarted-optiga-trust-m/optiga-trust-m-1/externals/mbedtls/library/aes.c **** 
 2379              	 .loc 1 985 0
 2380 03fc 9373     	 strb r3,[r2,#14]
 2381 03fe D773     	 strb r7,[r2,#15]
 2382              	 .loc 1 988 0
 2383 0400 09B0     	 add sp,sp,#36
 2384              	 
 2385 0402 F0BD     	 pop {r4,r5,r6,r7,pc}
 2386              	.L76:
 2387              	 .align 2
 2388              	.L75:
 2389 0404 00000000 	 .word .LANCHOR7
 2390 0408 00000000 	 .word .LANCHOR10
 2391 040c 00000000 	 .word .LANCHOR8
 2392 0410 00000000 	 .word .LANCHOR9
 2393 0414 00000000 	 .word .LANCHOR2
 2394              	 .cfi_endproc
 2395              	.LFE7:
 2397              	 .section .text.mbedtls_aes_decrypt,"ax",%progbits
 2398              	 .align 1
 2399              	 .global mbedtls_aes_decrypt
 2400              	 .code 16
 2401              	 .thumb_func
 2403              	mbedtls_aes_decrypt:
 2404              	.LFB8:
 989://MAC/Home/Downloads/getstarted-optiga-trust-m/optiga-trust-m-1/externals/mbedtls/library/aes.c **** #endif /* !MBEDTLS_AES_DECRYPT_ALT */
 990://MAC/Home/Downloads/getstarted-optiga-trust-m/optiga-trust-m-1/externals/mbedtls/library/aes.c **** 
 991://MAC/Home/Downloads/getstarted-optiga-trust-m/optiga-trust-m-1/externals/mbedtls/library/aes.c **** #if !defined(MBEDTLS_DEPRECATED_REMOVED)
 992://MAC/Home/Downloads/getstarted-optiga-trust-m/optiga-trust-m-1/externals/mbedtls/library/aes.c **** void mbedtls_aes_decrypt( mbedtls_aes_context *ctx,
 993://MAC/Home/Downloads/getstarted-optiga-trust-m/optiga-trust-m-1/externals/mbedtls/library/aes.c ****                           const unsigned char input[16],
 994://MAC/Home/Downloads/getstarted-optiga-trust-m/optiga-trust-m-1/externals/mbedtls/library/aes.c ****                           unsigned char output[16] )
 995://MAC/Home/Downloads/getstarted-optiga-trust-m/optiga-trust-m-1/externals/mbedtls/library/aes.c **** {
 2405              	 .loc 1 995 0
 2406              	 .cfi_startproc
 2407              	.LVL208:
 2408 0000 08B5     	 push {r3,lr}
 2409              	.LCFI12:
 2410              	 .cfi_def_cfa_offset 8
 2411              	 .cfi_offset 3,-8
 2412              	 .cfi_offset 14,-4
 996://MAC/Home/Downloads/getstarted-optiga-trust-m/optiga-trust-m-1/externals/mbedtls/library/aes.c ****     mbedtls_internal_aes_decrypt( ctx, input, output );
 2413              	 .loc 1 996 0
 2414 0002 FFF7FEFF 	 bl mbedtls_internal_aes_decrypt
 2415              	.LVL209:
 997://MAC/Home/Downloads/getstarted-optiga-trust-m/optiga-trust-m-1/externals/mbedtls/library/aes.c **** }
 2416              	 .loc 1 997 0
 2417              	 
 2418 0006 08BD     	 pop {r3,pc}
 2419              	 .cfi_endproc
 2420              	.LFE8:
 2422              	 .section .text.mbedtls_aes_crypt_ecb,"ax",%progbits
 2423              	 .align 1
 2424              	 .global mbedtls_aes_crypt_ecb
 2425              	 .code 16
 2426              	 .thumb_func
 2428              	mbedtls_aes_crypt_ecb:
 2429              	.LFB9:
 998://MAC/Home/Downloads/getstarted-optiga-trust-m/optiga-trust-m-1/externals/mbedtls/library/aes.c **** #endif /* !MBEDTLS_DEPRECATED_REMOVED */
 999://MAC/Home/Downloads/getstarted-optiga-trust-m/optiga-trust-m-1/externals/mbedtls/library/aes.c **** 
1000://MAC/Home/Downloads/getstarted-optiga-trust-m/optiga-trust-m-1/externals/mbedtls/library/aes.c **** /*
1001://MAC/Home/Downloads/getstarted-optiga-trust-m/optiga-trust-m-1/externals/mbedtls/library/aes.c ****  * AES-ECB block encryption/decryption
1002://MAC/Home/Downloads/getstarted-optiga-trust-m/optiga-trust-m-1/externals/mbedtls/library/aes.c ****  */
1003://MAC/Home/Downloads/getstarted-optiga-trust-m/optiga-trust-m-1/externals/mbedtls/library/aes.c **** int mbedtls_aes_crypt_ecb( mbedtls_aes_context *ctx,
1004://MAC/Home/Downloads/getstarted-optiga-trust-m/optiga-trust-m-1/externals/mbedtls/library/aes.c ****                            int mode,
1005://MAC/Home/Downloads/getstarted-optiga-trust-m/optiga-trust-m-1/externals/mbedtls/library/aes.c ****                            const unsigned char input[16],
1006://MAC/Home/Downloads/getstarted-optiga-trust-m/optiga-trust-m-1/externals/mbedtls/library/aes.c ****                            unsigned char output[16] )
1007://MAC/Home/Downloads/getstarted-optiga-trust-m/optiga-trust-m-1/externals/mbedtls/library/aes.c **** {
 2430              	 .loc 1 1007 0
 2431              	 .cfi_startproc
 2432              	.LVL210:
 2433 0000 08B5     	 push {r3,lr}
 2434              	.LCFI13:
 2435              	 .cfi_def_cfa_offset 8
 2436              	 .cfi_offset 3,-8
 2437              	 .cfi_offset 14,-4
1008://MAC/Home/Downloads/getstarted-optiga-trust-m/optiga-trust-m-1/externals/mbedtls/library/aes.c ****     AES_VALIDATE_RET( ctx != NULL );
1009://MAC/Home/Downloads/getstarted-optiga-trust-m/optiga-trust-m-1/externals/mbedtls/library/aes.c ****     AES_VALIDATE_RET( input != NULL );
1010://MAC/Home/Downloads/getstarted-optiga-trust-m/optiga-trust-m-1/externals/mbedtls/library/aes.c ****     AES_VALIDATE_RET( output != NULL );
1011://MAC/Home/Downloads/getstarted-optiga-trust-m/optiga-trust-m-1/externals/mbedtls/library/aes.c ****     AES_VALIDATE_RET( mode == MBEDTLS_AES_ENCRYPT ||
1012://MAC/Home/Downloads/getstarted-optiga-trust-m/optiga-trust-m-1/externals/mbedtls/library/aes.c ****                       mode == MBEDTLS_AES_DECRYPT );
1013://MAC/Home/Downloads/getstarted-optiga-trust-m/optiga-trust-m-1/externals/mbedtls/library/aes.c **** 
1014://MAC/Home/Downloads/getstarted-optiga-trust-m/optiga-trust-m-1/externals/mbedtls/library/aes.c **** #if defined(MBEDTLS_AESNI_C) && defined(MBEDTLS_HAVE_X86_64)
1015://MAC/Home/Downloads/getstarted-optiga-trust-m/optiga-trust-m-1/externals/mbedtls/library/aes.c ****     if( mbedtls_aesni_has_support( MBEDTLS_AESNI_AES ) )
1016://MAC/Home/Downloads/getstarted-optiga-trust-m/optiga-trust-m-1/externals/mbedtls/library/aes.c ****         return( mbedtls_aesni_crypt_ecb( ctx, mode, input, output ) );
1017://MAC/Home/Downloads/getstarted-optiga-trust-m/optiga-trust-m-1/externals/mbedtls/library/aes.c **** #endif
1018://MAC/Home/Downloads/getstarted-optiga-trust-m/optiga-trust-m-1/externals/mbedtls/library/aes.c **** 
1019://MAC/Home/Downloads/getstarted-optiga-trust-m/optiga-trust-m-1/externals/mbedtls/library/aes.c **** #if defined(MBEDTLS_PADLOCK_C) && defined(MBEDTLS_HAVE_X86)
1020://MAC/Home/Downloads/getstarted-optiga-trust-m/optiga-trust-m-1/externals/mbedtls/library/aes.c ****     if( aes_padlock_ace )
1021://MAC/Home/Downloads/getstarted-optiga-trust-m/optiga-trust-m-1/externals/mbedtls/library/aes.c ****     {
1022://MAC/Home/Downloads/getstarted-optiga-trust-m/optiga-trust-m-1/externals/mbedtls/library/aes.c ****         if( mbedtls_padlock_xcryptecb( ctx, mode, input, output ) == 0 )
1023://MAC/Home/Downloads/getstarted-optiga-trust-m/optiga-trust-m-1/externals/mbedtls/library/aes.c ****             return( 0 );
1024://MAC/Home/Downloads/getstarted-optiga-trust-m/optiga-trust-m-1/externals/mbedtls/library/aes.c **** 
1025://MAC/Home/Downloads/getstarted-optiga-trust-m/optiga-trust-m-1/externals/mbedtls/library/aes.c ****         // If padlock data misaligned, we just fall back to
1026://MAC/Home/Downloads/getstarted-optiga-trust-m/optiga-trust-m-1/externals/mbedtls/library/aes.c ****         // unaccelerated mode
1027://MAC/Home/Downloads/getstarted-optiga-trust-m/optiga-trust-m-1/externals/mbedtls/library/aes.c ****         //
1028://MAC/Home/Downloads/getstarted-optiga-trust-m/optiga-trust-m-1/externals/mbedtls/library/aes.c ****     }
1029://MAC/Home/Downloads/getstarted-optiga-trust-m/optiga-trust-m-1/externals/mbedtls/library/aes.c **** #endif
1030://MAC/Home/Downloads/getstarted-optiga-trust-m/optiga-trust-m-1/externals/mbedtls/library/aes.c **** 
1031://MAC/Home/Downloads/getstarted-optiga-trust-m/optiga-trust-m-1/externals/mbedtls/library/aes.c ****     if( mode == MBEDTLS_AES_ENCRYPT )
 2438              	 .loc 1 1031 0
 2439 0002 0129     	 cmp r1,#1
 2440 0004 04D1     	 bne .L79
1032://MAC/Home/Downloads/getstarted-optiga-trust-m/optiga-trust-m-1/externals/mbedtls/library/aes.c ****         return( mbedtls_internal_aes_encrypt( ctx, input, output ) );
 2441              	 .loc 1 1032 0
 2442 0006 111C     	 mov r1,r2
 2443              	.LVL211:
 2444 0008 1A1C     	 mov r2,r3
 2445              	.LVL212:
 2446 000a FFF7FEFF 	 bl mbedtls_internal_aes_encrypt
 2447              	.LVL213:
 2448 000e 03E0     	 b .L80
 2449              	.LVL214:
 2450              	.L79:
1033://MAC/Home/Downloads/getstarted-optiga-trust-m/optiga-trust-m-1/externals/mbedtls/library/aes.c ****     else
1034://MAC/Home/Downloads/getstarted-optiga-trust-m/optiga-trust-m-1/externals/mbedtls/library/aes.c ****         return( mbedtls_internal_aes_decrypt( ctx, input, output ) );
 2451              	 .loc 1 1034 0
 2452 0010 111C     	 mov r1,r2
 2453              	.LVL215:
 2454 0012 1A1C     	 mov r2,r3
 2455              	.LVL216:
 2456 0014 FFF7FEFF 	 bl mbedtls_internal_aes_decrypt
 2457              	.LVL217:
 2458              	.L80:
1035://MAC/Home/Downloads/getstarted-optiga-trust-m/optiga-trust-m-1/externals/mbedtls/library/aes.c **** }
 2459              	 .loc 1 1035 0
 2460              	 
 2461 0018 08BD     	 pop {r3,pc}
 2462              	 .cfi_endproc
 2463              	.LFE9:
 2465              	 .section .bss.FT0,"aw",%nobits
 2466              	 .align 2
 2467              	 .set .LANCHOR3,.+0
 2470              	FT0:
 2471 0000 00000000 	 .space 1024
 2471      00000000 
 2471      00000000 
 2471      00000000 
 2471      00000000 
 2472              	 .section .bss.FT1,"aw",%nobits
 2473              	 .align 2
 2474              	 .set .LANCHOR4,.+0
 2477              	FT1:
 2478 0000 00000000 	 .space 1024
 2478      00000000 
 2478      00000000 
 2478      00000000 
 2478      00000000 
 2479              	 .section .bss.FT2,"aw",%nobits
 2480              	 .align 2
 2481              	 .set .LANCHOR5,.+0
 2484              	FT2:
 2485 0000 00000000 	 .space 1024
 2485      00000000 
 2485      00000000 
 2485      00000000 
 2485      00000000 
 2486              	 .section .bss.FT3,"aw",%nobits
 2487              	 .align 2
 2488              	 .set .LANCHOR6,.+0
 2491              	FT3:
 2492 0000 00000000 	 .space 1024
 2492      00000000 
 2492      00000000 
 2492      00000000 
 2492      00000000 
 2493              	 .section .bss.RCON,"aw",%nobits
 2494              	 .align 2
 2495              	 .set .LANCHOR0,.+0
 2498              	RCON:
 2499 0000 00000000 	 .space 40
 2499      00000000 
 2499      00000000 
 2499      00000000 
 2499      00000000 
 2500              	 .section .bss.aes_init_done,"aw",%nobits
 2501              	 .align 2
 2502              	 .set .LANCHOR11,.+0
 2505              	aes_init_done:
 2506 0000 00000000 	 .space 4
 2507              	 .section .bss.FSb,"aw",%nobits
 2508              	 .set .LANCHOR1,.+0
 2511              	FSb:
 2512 0000 00000000 	 .space 256
 2512      00000000 
 2512      00000000 
 2512      00000000 
 2512      00000000 
 2513              	 .section .bss.RT0,"aw",%nobits
 2514              	 .align 2
 2515              	 .set .LANCHOR7,.+0
 2518              	RT0:
 2519 0000 00000000 	 .space 1024
 2519      00000000 
 2519      00000000 
 2519      00000000 
 2519      00000000 
 2520              	 .section .bss.RT1,"aw",%nobits
 2521              	 .align 2
 2522              	 .set .LANCHOR8,.+0
 2525              	RT1:
 2526 0000 00000000 	 .space 1024
 2526      00000000 
 2526      00000000 
 2526      00000000 
 2526      00000000 
 2527              	 .section .bss.RT2,"aw",%nobits
 2528              	 .align 2
 2529              	 .set .LANCHOR9,.+0
 2532              	RT2:
 2533 0000 00000000 	 .space 1024
 2533      00000000 
 2533      00000000 
 2533      00000000 
 2533      00000000 
 2534              	 .section .bss.RSb,"aw",%nobits
 2535              	 .set .LANCHOR2,.+0
 2538              	RSb:
 2539 0000 00000000 	 .space 256
 2539      00000000 
 2539      00000000 
 2539      00000000 
 2539      00000000 
 2540              	 .section .bss.RT3,"aw",%nobits
 2541              	 .align 2
 2542              	 .set .LANCHOR10,.+0
 2545              	RT3:
 2546 0000 00000000 	 .space 1024
 2546      00000000 
 2546      00000000 
 2546      00000000 
 2546      00000000 
 2547              	 .text
 2548              	.Letext0:
 2549              	 .file 2 "c:\\dave_4-4-2_64bit\\dave-ide-4.4.2-64bit\\eclipse\\arm-gcc-49\\lib\\gcc\\arm-none-eabi\\4.9.3\\include\\stddef.h"
 2550              	 .file 3 "c:\\dave_4-4-2_64bit\\dave-ide-4.4.2-64bit\\eclipse\\arm-gcc-49\\arm-none-eabi\\include\\machine\\_default_types.h"
 2551              	 .file 4 "c:\\dave_4-4-2_64bit\\dave-ide-4.4.2-64bit\\eclipse\\arm-gcc-49\\arm-none-eabi\\include\\stdint.h"
 2552              	 .file 5 "//MAC/Home/Downloads/getstarted-optiga-trust-m/optiga-trust-m-1/externals/mbedtls/include/mbedtls/aes.h"
 2553              	 .file 6 "//MAC/Home/Downloads/getstarted-optiga-trust-m/optiga-trust-m-1/externals/mbedtls/include/mbedtls/platform_util.h"
DEFINED SYMBOLS
                            *ABS*:00000000 aes.c
    {standard input}:19     .text.aes_gen_tables:00000000 $t
    {standard input}:23     .text.aes_gen_tables:00000000 aes_gen_tables
    {standard input}:386    .text.aes_gen_tables:000001bc $d
    {standard input}:403    .text.mbedtls_aes_init:00000000 $t
    {standard input}:408    .text.mbedtls_aes_init:00000000 mbedtls_aes_init
    {standard input}:433    .text.mbedtls_aes_free:00000000 $t
    {standard input}:438    .text.mbedtls_aes_free:00000000 mbedtls_aes_free
    {standard input}:464    .text.mbedtls_aes_setkey_enc:00000000 $t
    {standard input}:469    .text.mbedtls_aes_setkey_enc:00000000 mbedtls_aes_setkey_enc
    {standard input}:842    .text.mbedtls_aes_setkey_enc:000001c4 $d
    {standard input}:849    .text.mbedtls_aes_setkey_dec:00000000 $t
    {standard input}:854    .text.mbedtls_aes_setkey_dec:00000000 mbedtls_aes_setkey_dec
    {standard input}:1020   .text.mbedtls_aes_setkey_dec:000000b8 $d
    {standard input}:1029   .text.mbedtls_internal_aes_encrypt:00000000 $t
    {standard input}:1034   .text.mbedtls_internal_aes_encrypt:00000000 mbedtls_internal_aes_encrypt
    {standard input}:1683   .text.mbedtls_internal_aes_encrypt:000003e4 $d
    {standard input}:1692   .text.mbedtls_aes_encrypt:00000000 $t
    {standard input}:1697   .text.mbedtls_aes_encrypt:00000000 mbedtls_aes_encrypt
    {standard input}:1717   .text.mbedtls_internal_aes_decrypt:00000000 $t
    {standard input}:1722   .text.mbedtls_internal_aes_decrypt:00000000 mbedtls_internal_aes_decrypt
    {standard input}:2389   .text.mbedtls_internal_aes_decrypt:00000404 $d
    {standard input}:2398   .text.mbedtls_aes_decrypt:00000000 $t
    {standard input}:2403   .text.mbedtls_aes_decrypt:00000000 mbedtls_aes_decrypt
    {standard input}:2423   .text.mbedtls_aes_crypt_ecb:00000000 $t
    {standard input}:2428   .text.mbedtls_aes_crypt_ecb:00000000 mbedtls_aes_crypt_ecb
    {standard input}:2466   .bss.FT0:00000000 $d
    {standard input}:2470   .bss.FT0:00000000 FT0
    {standard input}:2473   .bss.FT1:00000000 $d
    {standard input}:2477   .bss.FT1:00000000 FT1
    {standard input}:2480   .bss.FT2:00000000 $d
    {standard input}:2484   .bss.FT2:00000000 FT2
    {standard input}:2487   .bss.FT3:00000000 $d
    {standard input}:2491   .bss.FT3:00000000 FT3
    {standard input}:2494   .bss.RCON:00000000 $d
    {standard input}:2498   .bss.RCON:00000000 RCON
    {standard input}:2501   .bss.aes_init_done:00000000 $d
    {standard input}:2505   .bss.aes_init_done:00000000 aes_init_done
    {standard input}:2511   .bss.FSb:00000000 FSb
    {standard input}:2512   .bss.FSb:00000000 $d
    {standard input}:2514   .bss.RT0:00000000 $d
    {standard input}:2518   .bss.RT0:00000000 RT0
    {standard input}:2521   .bss.RT1:00000000 $d
    {standard input}:2525   .bss.RT1:00000000 RT1
    {standard input}:2528   .bss.RT2:00000000 $d
    {standard input}:2532   .bss.RT2:00000000 RT2
    {standard input}:2538   .bss.RSb:00000000 RSb
    {standard input}:2539   .bss.RSb:00000000 $d
    {standard input}:2541   .bss.RT3:00000000 $d
    {standard input}:2545   .bss.RT3:00000000 RT3
                     .debug_frame:00000010 $d

UNDEFINED SYMBOLS
__aeabi_idivmod
memset
mbedtls_platform_zeroize
