   1              	 .cpu cortex-m0
   2              	 .fpu softvfp
   3              	 .eabi_attribute 20,1
   4              	 .eabi_attribute 21,1
   5              	 .eabi_attribute 23,3
   6              	 .eabi_attribute 24,1
   7              	 .eabi_attribute 25,1
   8              	 .eabi_attribute 26,1
   9              	 .eabi_attribute 30,4
  10              	 .eabi_attribute 34,0
  11              	 .eabi_attribute 18,4
  12              	 .code 16
  13              	 .file "bignum.c"
  14              	 .text
  15              	.Ltext0:
  16              	 .cfi_sections .debug_frame
  17              	 .section .text.mpi_get_digit,"ax",%progbits
  18              	 .align 1
  19              	 .code 16
  20              	 .thumb_func
  22              	mpi_get_digit:
  23              	.LFB16:
  24              	 .file 1 "//MAC/Home/Downloads/getstarted-optiga-trust-m/optiga-trust-m-1/externals/mbedtls/library/bignum.c"
   1://MAC/Home/Downloads/getstarted-optiga-trust-m/optiga-trust-m-1/externals/mbedtls/library/bignum.c **** /*
   2://MAC/Home/Downloads/getstarted-optiga-trust-m/optiga-trust-m-1/externals/mbedtls/library/bignum.c ****  *  Multi-precision integer library
   3://MAC/Home/Downloads/getstarted-optiga-trust-m/optiga-trust-m-1/externals/mbedtls/library/bignum.c ****  *
   4://MAC/Home/Downloads/getstarted-optiga-trust-m/optiga-trust-m-1/externals/mbedtls/library/bignum.c ****  *  Copyright (C) 2006-2015, ARM Limited, All Rights Reserved
   5://MAC/Home/Downloads/getstarted-optiga-trust-m/optiga-trust-m-1/externals/mbedtls/library/bignum.c ****  *  SPDX-License-Identifier: Apache-2.0
   6://MAC/Home/Downloads/getstarted-optiga-trust-m/optiga-trust-m-1/externals/mbedtls/library/bignum.c ****  *
   7://MAC/Home/Downloads/getstarted-optiga-trust-m/optiga-trust-m-1/externals/mbedtls/library/bignum.c ****  *  Licensed under the Apache License, Version 2.0 (the "License"); you may
   8://MAC/Home/Downloads/getstarted-optiga-trust-m/optiga-trust-m-1/externals/mbedtls/library/bignum.c ****  *  not use this file except in compliance with the License.
   9://MAC/Home/Downloads/getstarted-optiga-trust-m/optiga-trust-m-1/externals/mbedtls/library/bignum.c ****  *  You may obtain a copy of the License at
  10://MAC/Home/Downloads/getstarted-optiga-trust-m/optiga-trust-m-1/externals/mbedtls/library/bignum.c ****  *
  11://MAC/Home/Downloads/getstarted-optiga-trust-m/optiga-trust-m-1/externals/mbedtls/library/bignum.c ****  *  http://www.apache.org/licenses/LICENSE-2.0
  12://MAC/Home/Downloads/getstarted-optiga-trust-m/optiga-trust-m-1/externals/mbedtls/library/bignum.c ****  *
  13://MAC/Home/Downloads/getstarted-optiga-trust-m/optiga-trust-m-1/externals/mbedtls/library/bignum.c ****  *  Unless required by applicable law or agreed to in writing, software
  14://MAC/Home/Downloads/getstarted-optiga-trust-m/optiga-trust-m-1/externals/mbedtls/library/bignum.c ****  *  distributed under the License is distributed on an "AS IS" BASIS, WITHOUT
  15://MAC/Home/Downloads/getstarted-optiga-trust-m/optiga-trust-m-1/externals/mbedtls/library/bignum.c ****  *  WARRANTIES OR CONDITIONS OF ANY KIND, either express or implied.
  16://MAC/Home/Downloads/getstarted-optiga-trust-m/optiga-trust-m-1/externals/mbedtls/library/bignum.c ****  *  See the License for the specific language governing permissions and
  17://MAC/Home/Downloads/getstarted-optiga-trust-m/optiga-trust-m-1/externals/mbedtls/library/bignum.c ****  *  limitations under the License.
  18://MAC/Home/Downloads/getstarted-optiga-trust-m/optiga-trust-m-1/externals/mbedtls/library/bignum.c ****  *
  19://MAC/Home/Downloads/getstarted-optiga-trust-m/optiga-trust-m-1/externals/mbedtls/library/bignum.c ****  *  This file is part of mbed TLS (https://tls.mbed.org)
  20://MAC/Home/Downloads/getstarted-optiga-trust-m/optiga-trust-m-1/externals/mbedtls/library/bignum.c ****  */
  21://MAC/Home/Downloads/getstarted-optiga-trust-m/optiga-trust-m-1/externals/mbedtls/library/bignum.c **** 
  22://MAC/Home/Downloads/getstarted-optiga-trust-m/optiga-trust-m-1/externals/mbedtls/library/bignum.c **** /*
  23://MAC/Home/Downloads/getstarted-optiga-trust-m/optiga-trust-m-1/externals/mbedtls/library/bignum.c ****  *  The following sources were referenced in the design of this Multi-precision
  24://MAC/Home/Downloads/getstarted-optiga-trust-m/optiga-trust-m-1/externals/mbedtls/library/bignum.c ****  *  Integer library:
  25://MAC/Home/Downloads/getstarted-optiga-trust-m/optiga-trust-m-1/externals/mbedtls/library/bignum.c ****  *
  26://MAC/Home/Downloads/getstarted-optiga-trust-m/optiga-trust-m-1/externals/mbedtls/library/bignum.c ****  *  [1] Handbook of Applied Cryptography - 1997
  27://MAC/Home/Downloads/getstarted-optiga-trust-m/optiga-trust-m-1/externals/mbedtls/library/bignum.c ****  *      Menezes, van Oorschot and Vanstone
  28://MAC/Home/Downloads/getstarted-optiga-trust-m/optiga-trust-m-1/externals/mbedtls/library/bignum.c ****  *
  29://MAC/Home/Downloads/getstarted-optiga-trust-m/optiga-trust-m-1/externals/mbedtls/library/bignum.c ****  *  [2] Multi-Precision Math
  30://MAC/Home/Downloads/getstarted-optiga-trust-m/optiga-trust-m-1/externals/mbedtls/library/bignum.c ****  *      Tom St Denis
  31://MAC/Home/Downloads/getstarted-optiga-trust-m/optiga-trust-m-1/externals/mbedtls/library/bignum.c ****  *      https://github.com/libtom/libtommath/blob/develop/tommath.pdf
  32://MAC/Home/Downloads/getstarted-optiga-trust-m/optiga-trust-m-1/externals/mbedtls/library/bignum.c ****  *
  33://MAC/Home/Downloads/getstarted-optiga-trust-m/optiga-trust-m-1/externals/mbedtls/library/bignum.c ****  *  [3] GNU Multi-Precision Arithmetic Library
  34://MAC/Home/Downloads/getstarted-optiga-trust-m/optiga-trust-m-1/externals/mbedtls/library/bignum.c ****  *      https://gmplib.org/manual/index.html
  35://MAC/Home/Downloads/getstarted-optiga-trust-m/optiga-trust-m-1/externals/mbedtls/library/bignum.c ****  *
  36://MAC/Home/Downloads/getstarted-optiga-trust-m/optiga-trust-m-1/externals/mbedtls/library/bignum.c ****  */
  37://MAC/Home/Downloads/getstarted-optiga-trust-m/optiga-trust-m-1/externals/mbedtls/library/bignum.c **** 
  38://MAC/Home/Downloads/getstarted-optiga-trust-m/optiga-trust-m-1/externals/mbedtls/library/bignum.c **** #if !defined(MBEDTLS_CONFIG_FILE)
  39://MAC/Home/Downloads/getstarted-optiga-trust-m/optiga-trust-m-1/externals/mbedtls/library/bignum.c **** #include "mbedtls/config.h"
  40://MAC/Home/Downloads/getstarted-optiga-trust-m/optiga-trust-m-1/externals/mbedtls/library/bignum.c **** #else
  41://MAC/Home/Downloads/getstarted-optiga-trust-m/optiga-trust-m-1/externals/mbedtls/library/bignum.c **** #include MBEDTLS_CONFIG_FILE
  42://MAC/Home/Downloads/getstarted-optiga-trust-m/optiga-trust-m-1/externals/mbedtls/library/bignum.c **** #endif
  43://MAC/Home/Downloads/getstarted-optiga-trust-m/optiga-trust-m-1/externals/mbedtls/library/bignum.c **** 
  44://MAC/Home/Downloads/getstarted-optiga-trust-m/optiga-trust-m-1/externals/mbedtls/library/bignum.c **** #if defined(MBEDTLS_BIGNUM_C)
  45://MAC/Home/Downloads/getstarted-optiga-trust-m/optiga-trust-m-1/externals/mbedtls/library/bignum.c **** 
  46://MAC/Home/Downloads/getstarted-optiga-trust-m/optiga-trust-m-1/externals/mbedtls/library/bignum.c **** #include "mbedtls/bignum.h"
  47://MAC/Home/Downloads/getstarted-optiga-trust-m/optiga-trust-m-1/externals/mbedtls/library/bignum.c **** #include "mbedtls/bn_mul.h"
  48://MAC/Home/Downloads/getstarted-optiga-trust-m/optiga-trust-m-1/externals/mbedtls/library/bignum.c **** #include "mbedtls/platform_util.h"
  49://MAC/Home/Downloads/getstarted-optiga-trust-m/optiga-trust-m-1/externals/mbedtls/library/bignum.c **** 
  50://MAC/Home/Downloads/getstarted-optiga-trust-m/optiga-trust-m-1/externals/mbedtls/library/bignum.c **** #include <string.h>
  51://MAC/Home/Downloads/getstarted-optiga-trust-m/optiga-trust-m-1/externals/mbedtls/library/bignum.c **** 
  52://MAC/Home/Downloads/getstarted-optiga-trust-m/optiga-trust-m-1/externals/mbedtls/library/bignum.c **** #if defined(MBEDTLS_PLATFORM_C)
  53://MAC/Home/Downloads/getstarted-optiga-trust-m/optiga-trust-m-1/externals/mbedtls/library/bignum.c **** #include "mbedtls/platform.h"
  54://MAC/Home/Downloads/getstarted-optiga-trust-m/optiga-trust-m-1/externals/mbedtls/library/bignum.c **** #else
  55://MAC/Home/Downloads/getstarted-optiga-trust-m/optiga-trust-m-1/externals/mbedtls/library/bignum.c **** #include <stdio.h>
  56://MAC/Home/Downloads/getstarted-optiga-trust-m/optiga-trust-m-1/externals/mbedtls/library/bignum.c **** #include <stdlib.h>
  57://MAC/Home/Downloads/getstarted-optiga-trust-m/optiga-trust-m-1/externals/mbedtls/library/bignum.c **** #define mbedtls_printf     printf
  58://MAC/Home/Downloads/getstarted-optiga-trust-m/optiga-trust-m-1/externals/mbedtls/library/bignum.c **** #define mbedtls_calloc    calloc
  59://MAC/Home/Downloads/getstarted-optiga-trust-m/optiga-trust-m-1/externals/mbedtls/library/bignum.c **** #define mbedtls_free       free
  60://MAC/Home/Downloads/getstarted-optiga-trust-m/optiga-trust-m-1/externals/mbedtls/library/bignum.c **** #endif
  61://MAC/Home/Downloads/getstarted-optiga-trust-m/optiga-trust-m-1/externals/mbedtls/library/bignum.c **** 
  62://MAC/Home/Downloads/getstarted-optiga-trust-m/optiga-trust-m-1/externals/mbedtls/library/bignum.c **** #define MPI_VALIDATE_RET( cond )                                       \
  63://MAC/Home/Downloads/getstarted-optiga-trust-m/optiga-trust-m-1/externals/mbedtls/library/bignum.c ****     MBEDTLS_INTERNAL_VALIDATE_RET( cond, MBEDTLS_ERR_MPI_BAD_INPUT_DATA )
  64://MAC/Home/Downloads/getstarted-optiga-trust-m/optiga-trust-m-1/externals/mbedtls/library/bignum.c **** #define MPI_VALIDATE( cond )                                           \
  65://MAC/Home/Downloads/getstarted-optiga-trust-m/optiga-trust-m-1/externals/mbedtls/library/bignum.c ****     MBEDTLS_INTERNAL_VALIDATE( cond )
  66://MAC/Home/Downloads/getstarted-optiga-trust-m/optiga-trust-m-1/externals/mbedtls/library/bignum.c **** 
  67://MAC/Home/Downloads/getstarted-optiga-trust-m/optiga-trust-m-1/externals/mbedtls/library/bignum.c **** #define ciL    (sizeof(mbedtls_mpi_uint))         /* chars in limb  */
  68://MAC/Home/Downloads/getstarted-optiga-trust-m/optiga-trust-m-1/externals/mbedtls/library/bignum.c **** #define biL    (ciL << 3)               /* bits  in limb  */
  69://MAC/Home/Downloads/getstarted-optiga-trust-m/optiga-trust-m-1/externals/mbedtls/library/bignum.c **** #define biH    (ciL << 2)               /* half limb size */
  70://MAC/Home/Downloads/getstarted-optiga-trust-m/optiga-trust-m-1/externals/mbedtls/library/bignum.c **** 
  71://MAC/Home/Downloads/getstarted-optiga-trust-m/optiga-trust-m-1/externals/mbedtls/library/bignum.c **** #define MPI_SIZE_T_MAX  ( (size_t) -1 ) /* SIZE_T_MAX is not standard */
  72://MAC/Home/Downloads/getstarted-optiga-trust-m/optiga-trust-m-1/externals/mbedtls/library/bignum.c **** 
  73://MAC/Home/Downloads/getstarted-optiga-trust-m/optiga-trust-m-1/externals/mbedtls/library/bignum.c **** /*
  74://MAC/Home/Downloads/getstarted-optiga-trust-m/optiga-trust-m-1/externals/mbedtls/library/bignum.c ****  * Convert between bits/chars and number of limbs
  75://MAC/Home/Downloads/getstarted-optiga-trust-m/optiga-trust-m-1/externals/mbedtls/library/bignum.c ****  * Divide first in order to avoid potential overflows
  76://MAC/Home/Downloads/getstarted-optiga-trust-m/optiga-trust-m-1/externals/mbedtls/library/bignum.c ****  */
  77://MAC/Home/Downloads/getstarted-optiga-trust-m/optiga-trust-m-1/externals/mbedtls/library/bignum.c **** #define BITS_TO_LIMBS(i)  ( (i) / biL + ( (i) % biL != 0 ) )
  78://MAC/Home/Downloads/getstarted-optiga-trust-m/optiga-trust-m-1/externals/mbedtls/library/bignum.c **** #define CHARS_TO_LIMBS(i) ( (i) / ciL + ( (i) % ciL != 0 ) )
  79://MAC/Home/Downloads/getstarted-optiga-trust-m/optiga-trust-m-1/externals/mbedtls/library/bignum.c **** 
  80://MAC/Home/Downloads/getstarted-optiga-trust-m/optiga-trust-m-1/externals/mbedtls/library/bignum.c **** /* Implementation that should never be optimized out by the compiler */
  81://MAC/Home/Downloads/getstarted-optiga-trust-m/optiga-trust-m-1/externals/mbedtls/library/bignum.c **** static void mbedtls_mpi_zeroize( mbedtls_mpi_uint *v, size_t n )
  82://MAC/Home/Downloads/getstarted-optiga-trust-m/optiga-trust-m-1/externals/mbedtls/library/bignum.c **** {
  83://MAC/Home/Downloads/getstarted-optiga-trust-m/optiga-trust-m-1/externals/mbedtls/library/bignum.c ****     mbedtls_platform_zeroize( v, ciL * n );
  84://MAC/Home/Downloads/getstarted-optiga-trust-m/optiga-trust-m-1/externals/mbedtls/library/bignum.c **** }
  85://MAC/Home/Downloads/getstarted-optiga-trust-m/optiga-trust-m-1/externals/mbedtls/library/bignum.c **** 
  86://MAC/Home/Downloads/getstarted-optiga-trust-m/optiga-trust-m-1/externals/mbedtls/library/bignum.c **** /*
  87://MAC/Home/Downloads/getstarted-optiga-trust-m/optiga-trust-m-1/externals/mbedtls/library/bignum.c ****  * Initialize one MPI
  88://MAC/Home/Downloads/getstarted-optiga-trust-m/optiga-trust-m-1/externals/mbedtls/library/bignum.c ****  */
  89://MAC/Home/Downloads/getstarted-optiga-trust-m/optiga-trust-m-1/externals/mbedtls/library/bignum.c **** void mbedtls_mpi_init( mbedtls_mpi *X )
  90://MAC/Home/Downloads/getstarted-optiga-trust-m/optiga-trust-m-1/externals/mbedtls/library/bignum.c **** {
  91://MAC/Home/Downloads/getstarted-optiga-trust-m/optiga-trust-m-1/externals/mbedtls/library/bignum.c ****     MPI_VALIDATE( X != NULL );
  92://MAC/Home/Downloads/getstarted-optiga-trust-m/optiga-trust-m-1/externals/mbedtls/library/bignum.c **** 
  93://MAC/Home/Downloads/getstarted-optiga-trust-m/optiga-trust-m-1/externals/mbedtls/library/bignum.c ****     X->s = 1;
  94://MAC/Home/Downloads/getstarted-optiga-trust-m/optiga-trust-m-1/externals/mbedtls/library/bignum.c ****     X->n = 0;
  95://MAC/Home/Downloads/getstarted-optiga-trust-m/optiga-trust-m-1/externals/mbedtls/library/bignum.c ****     X->p = NULL;
  96://MAC/Home/Downloads/getstarted-optiga-trust-m/optiga-trust-m-1/externals/mbedtls/library/bignum.c **** }
  97://MAC/Home/Downloads/getstarted-optiga-trust-m/optiga-trust-m-1/externals/mbedtls/library/bignum.c **** 
  98://MAC/Home/Downloads/getstarted-optiga-trust-m/optiga-trust-m-1/externals/mbedtls/library/bignum.c **** /*
  99://MAC/Home/Downloads/getstarted-optiga-trust-m/optiga-trust-m-1/externals/mbedtls/library/bignum.c ****  * Unallocate one MPI
 100://MAC/Home/Downloads/getstarted-optiga-trust-m/optiga-trust-m-1/externals/mbedtls/library/bignum.c ****  */
 101://MAC/Home/Downloads/getstarted-optiga-trust-m/optiga-trust-m-1/externals/mbedtls/library/bignum.c **** void mbedtls_mpi_free( mbedtls_mpi *X )
 102://MAC/Home/Downloads/getstarted-optiga-trust-m/optiga-trust-m-1/externals/mbedtls/library/bignum.c **** {
 103://MAC/Home/Downloads/getstarted-optiga-trust-m/optiga-trust-m-1/externals/mbedtls/library/bignum.c ****     if( X == NULL )
 104://MAC/Home/Downloads/getstarted-optiga-trust-m/optiga-trust-m-1/externals/mbedtls/library/bignum.c ****         return;
 105://MAC/Home/Downloads/getstarted-optiga-trust-m/optiga-trust-m-1/externals/mbedtls/library/bignum.c **** 
 106://MAC/Home/Downloads/getstarted-optiga-trust-m/optiga-trust-m-1/externals/mbedtls/library/bignum.c ****     if( X->p != NULL )
 107://MAC/Home/Downloads/getstarted-optiga-trust-m/optiga-trust-m-1/externals/mbedtls/library/bignum.c ****     {
 108://MAC/Home/Downloads/getstarted-optiga-trust-m/optiga-trust-m-1/externals/mbedtls/library/bignum.c ****         mbedtls_mpi_zeroize( X->p, X->n );
 109://MAC/Home/Downloads/getstarted-optiga-trust-m/optiga-trust-m-1/externals/mbedtls/library/bignum.c ****         mbedtls_free( X->p );
 110://MAC/Home/Downloads/getstarted-optiga-trust-m/optiga-trust-m-1/externals/mbedtls/library/bignum.c ****     }
 111://MAC/Home/Downloads/getstarted-optiga-trust-m/optiga-trust-m-1/externals/mbedtls/library/bignum.c **** 
 112://MAC/Home/Downloads/getstarted-optiga-trust-m/optiga-trust-m-1/externals/mbedtls/library/bignum.c ****     X->s = 1;
 113://MAC/Home/Downloads/getstarted-optiga-trust-m/optiga-trust-m-1/externals/mbedtls/library/bignum.c ****     X->n = 0;
 114://MAC/Home/Downloads/getstarted-optiga-trust-m/optiga-trust-m-1/externals/mbedtls/library/bignum.c ****     X->p = NULL;
 115://MAC/Home/Downloads/getstarted-optiga-trust-m/optiga-trust-m-1/externals/mbedtls/library/bignum.c **** }
 116://MAC/Home/Downloads/getstarted-optiga-trust-m/optiga-trust-m-1/externals/mbedtls/library/bignum.c **** 
 117://MAC/Home/Downloads/getstarted-optiga-trust-m/optiga-trust-m-1/externals/mbedtls/library/bignum.c **** /*
 118://MAC/Home/Downloads/getstarted-optiga-trust-m/optiga-trust-m-1/externals/mbedtls/library/bignum.c ****  * Enlarge to the specified number of limbs
 119://MAC/Home/Downloads/getstarted-optiga-trust-m/optiga-trust-m-1/externals/mbedtls/library/bignum.c ****  */
 120://MAC/Home/Downloads/getstarted-optiga-trust-m/optiga-trust-m-1/externals/mbedtls/library/bignum.c **** int mbedtls_mpi_grow( mbedtls_mpi *X, size_t nblimbs )
 121://MAC/Home/Downloads/getstarted-optiga-trust-m/optiga-trust-m-1/externals/mbedtls/library/bignum.c **** {
 122://MAC/Home/Downloads/getstarted-optiga-trust-m/optiga-trust-m-1/externals/mbedtls/library/bignum.c ****     mbedtls_mpi_uint *p;
 123://MAC/Home/Downloads/getstarted-optiga-trust-m/optiga-trust-m-1/externals/mbedtls/library/bignum.c ****     MPI_VALIDATE_RET( X != NULL );
 124://MAC/Home/Downloads/getstarted-optiga-trust-m/optiga-trust-m-1/externals/mbedtls/library/bignum.c **** 
 125://MAC/Home/Downloads/getstarted-optiga-trust-m/optiga-trust-m-1/externals/mbedtls/library/bignum.c ****     if( nblimbs > MBEDTLS_MPI_MAX_LIMBS )
 126://MAC/Home/Downloads/getstarted-optiga-trust-m/optiga-trust-m-1/externals/mbedtls/library/bignum.c ****         return( MBEDTLS_ERR_MPI_ALLOC_FAILED );
 127://MAC/Home/Downloads/getstarted-optiga-trust-m/optiga-trust-m-1/externals/mbedtls/library/bignum.c **** 
 128://MAC/Home/Downloads/getstarted-optiga-trust-m/optiga-trust-m-1/externals/mbedtls/library/bignum.c ****     if( X->n < nblimbs )
 129://MAC/Home/Downloads/getstarted-optiga-trust-m/optiga-trust-m-1/externals/mbedtls/library/bignum.c ****     {
 130://MAC/Home/Downloads/getstarted-optiga-trust-m/optiga-trust-m-1/externals/mbedtls/library/bignum.c ****         if( ( p = (mbedtls_mpi_uint*)mbedtls_calloc( nblimbs, ciL ) ) == NULL )
 131://MAC/Home/Downloads/getstarted-optiga-trust-m/optiga-trust-m-1/externals/mbedtls/library/bignum.c ****             return( MBEDTLS_ERR_MPI_ALLOC_FAILED );
 132://MAC/Home/Downloads/getstarted-optiga-trust-m/optiga-trust-m-1/externals/mbedtls/library/bignum.c **** 
 133://MAC/Home/Downloads/getstarted-optiga-trust-m/optiga-trust-m-1/externals/mbedtls/library/bignum.c ****         if( X->p != NULL )
 134://MAC/Home/Downloads/getstarted-optiga-trust-m/optiga-trust-m-1/externals/mbedtls/library/bignum.c ****         {
 135://MAC/Home/Downloads/getstarted-optiga-trust-m/optiga-trust-m-1/externals/mbedtls/library/bignum.c ****             memcpy( p, X->p, X->n * ciL );
 136://MAC/Home/Downloads/getstarted-optiga-trust-m/optiga-trust-m-1/externals/mbedtls/library/bignum.c ****             mbedtls_mpi_zeroize( X->p, X->n );
 137://MAC/Home/Downloads/getstarted-optiga-trust-m/optiga-trust-m-1/externals/mbedtls/library/bignum.c ****             mbedtls_free( X->p );
 138://MAC/Home/Downloads/getstarted-optiga-trust-m/optiga-trust-m-1/externals/mbedtls/library/bignum.c ****         }
 139://MAC/Home/Downloads/getstarted-optiga-trust-m/optiga-trust-m-1/externals/mbedtls/library/bignum.c **** 
 140://MAC/Home/Downloads/getstarted-optiga-trust-m/optiga-trust-m-1/externals/mbedtls/library/bignum.c ****         X->n = nblimbs;
 141://MAC/Home/Downloads/getstarted-optiga-trust-m/optiga-trust-m-1/externals/mbedtls/library/bignum.c ****         X->p = p;
 142://MAC/Home/Downloads/getstarted-optiga-trust-m/optiga-trust-m-1/externals/mbedtls/library/bignum.c ****     }
 143://MAC/Home/Downloads/getstarted-optiga-trust-m/optiga-trust-m-1/externals/mbedtls/library/bignum.c **** 
 144://MAC/Home/Downloads/getstarted-optiga-trust-m/optiga-trust-m-1/externals/mbedtls/library/bignum.c ****     return( 0 );
 145://MAC/Home/Downloads/getstarted-optiga-trust-m/optiga-trust-m-1/externals/mbedtls/library/bignum.c **** }
 146://MAC/Home/Downloads/getstarted-optiga-trust-m/optiga-trust-m-1/externals/mbedtls/library/bignum.c **** 
 147://MAC/Home/Downloads/getstarted-optiga-trust-m/optiga-trust-m-1/externals/mbedtls/library/bignum.c **** /*
 148://MAC/Home/Downloads/getstarted-optiga-trust-m/optiga-trust-m-1/externals/mbedtls/library/bignum.c ****  * Resize down as much as possible,
 149://MAC/Home/Downloads/getstarted-optiga-trust-m/optiga-trust-m-1/externals/mbedtls/library/bignum.c ****  * while keeping at least the specified number of limbs
 150://MAC/Home/Downloads/getstarted-optiga-trust-m/optiga-trust-m-1/externals/mbedtls/library/bignum.c ****  */
 151://MAC/Home/Downloads/getstarted-optiga-trust-m/optiga-trust-m-1/externals/mbedtls/library/bignum.c **** int mbedtls_mpi_shrink( mbedtls_mpi *X, size_t nblimbs )
 152://MAC/Home/Downloads/getstarted-optiga-trust-m/optiga-trust-m-1/externals/mbedtls/library/bignum.c **** {
 153://MAC/Home/Downloads/getstarted-optiga-trust-m/optiga-trust-m-1/externals/mbedtls/library/bignum.c ****     mbedtls_mpi_uint *p;
 154://MAC/Home/Downloads/getstarted-optiga-trust-m/optiga-trust-m-1/externals/mbedtls/library/bignum.c ****     size_t i;
 155://MAC/Home/Downloads/getstarted-optiga-trust-m/optiga-trust-m-1/externals/mbedtls/library/bignum.c ****     MPI_VALIDATE_RET( X != NULL );
 156://MAC/Home/Downloads/getstarted-optiga-trust-m/optiga-trust-m-1/externals/mbedtls/library/bignum.c **** 
 157://MAC/Home/Downloads/getstarted-optiga-trust-m/optiga-trust-m-1/externals/mbedtls/library/bignum.c ****     if( nblimbs > MBEDTLS_MPI_MAX_LIMBS )
 158://MAC/Home/Downloads/getstarted-optiga-trust-m/optiga-trust-m-1/externals/mbedtls/library/bignum.c ****         return( MBEDTLS_ERR_MPI_ALLOC_FAILED );
 159://MAC/Home/Downloads/getstarted-optiga-trust-m/optiga-trust-m-1/externals/mbedtls/library/bignum.c **** 
 160://MAC/Home/Downloads/getstarted-optiga-trust-m/optiga-trust-m-1/externals/mbedtls/library/bignum.c ****     /* Actually resize up in this case */
 161://MAC/Home/Downloads/getstarted-optiga-trust-m/optiga-trust-m-1/externals/mbedtls/library/bignum.c ****     if( X->n <= nblimbs )
 162://MAC/Home/Downloads/getstarted-optiga-trust-m/optiga-trust-m-1/externals/mbedtls/library/bignum.c ****         return( mbedtls_mpi_grow( X, nblimbs ) );
 163://MAC/Home/Downloads/getstarted-optiga-trust-m/optiga-trust-m-1/externals/mbedtls/library/bignum.c **** 
 164://MAC/Home/Downloads/getstarted-optiga-trust-m/optiga-trust-m-1/externals/mbedtls/library/bignum.c ****     for( i = X->n - 1; i > 0; i-- )
 165://MAC/Home/Downloads/getstarted-optiga-trust-m/optiga-trust-m-1/externals/mbedtls/library/bignum.c ****         if( X->p[i] != 0 )
 166://MAC/Home/Downloads/getstarted-optiga-trust-m/optiga-trust-m-1/externals/mbedtls/library/bignum.c ****             break;
 167://MAC/Home/Downloads/getstarted-optiga-trust-m/optiga-trust-m-1/externals/mbedtls/library/bignum.c ****     i++;
 168://MAC/Home/Downloads/getstarted-optiga-trust-m/optiga-trust-m-1/externals/mbedtls/library/bignum.c **** 
 169://MAC/Home/Downloads/getstarted-optiga-trust-m/optiga-trust-m-1/externals/mbedtls/library/bignum.c ****     if( i < nblimbs )
 170://MAC/Home/Downloads/getstarted-optiga-trust-m/optiga-trust-m-1/externals/mbedtls/library/bignum.c ****         i = nblimbs;
 171://MAC/Home/Downloads/getstarted-optiga-trust-m/optiga-trust-m-1/externals/mbedtls/library/bignum.c **** 
 172://MAC/Home/Downloads/getstarted-optiga-trust-m/optiga-trust-m-1/externals/mbedtls/library/bignum.c ****     if( ( p = (mbedtls_mpi_uint*)mbedtls_calloc( i, ciL ) ) == NULL )
 173://MAC/Home/Downloads/getstarted-optiga-trust-m/optiga-trust-m-1/externals/mbedtls/library/bignum.c ****         return( MBEDTLS_ERR_MPI_ALLOC_FAILED );
 174://MAC/Home/Downloads/getstarted-optiga-trust-m/optiga-trust-m-1/externals/mbedtls/library/bignum.c **** 
 175://MAC/Home/Downloads/getstarted-optiga-trust-m/optiga-trust-m-1/externals/mbedtls/library/bignum.c ****     if( X->p != NULL )
 176://MAC/Home/Downloads/getstarted-optiga-trust-m/optiga-trust-m-1/externals/mbedtls/library/bignum.c ****     {
 177://MAC/Home/Downloads/getstarted-optiga-trust-m/optiga-trust-m-1/externals/mbedtls/library/bignum.c ****         memcpy( p, X->p, i * ciL );
 178://MAC/Home/Downloads/getstarted-optiga-trust-m/optiga-trust-m-1/externals/mbedtls/library/bignum.c ****         mbedtls_mpi_zeroize( X->p, X->n );
 179://MAC/Home/Downloads/getstarted-optiga-trust-m/optiga-trust-m-1/externals/mbedtls/library/bignum.c ****         mbedtls_free( X->p );
 180://MAC/Home/Downloads/getstarted-optiga-trust-m/optiga-trust-m-1/externals/mbedtls/library/bignum.c ****     }
 181://MAC/Home/Downloads/getstarted-optiga-trust-m/optiga-trust-m-1/externals/mbedtls/library/bignum.c **** 
 182://MAC/Home/Downloads/getstarted-optiga-trust-m/optiga-trust-m-1/externals/mbedtls/library/bignum.c ****     X->n = i;
 183://MAC/Home/Downloads/getstarted-optiga-trust-m/optiga-trust-m-1/externals/mbedtls/library/bignum.c ****     X->p = p;
 184://MAC/Home/Downloads/getstarted-optiga-trust-m/optiga-trust-m-1/externals/mbedtls/library/bignum.c **** 
 185://MAC/Home/Downloads/getstarted-optiga-trust-m/optiga-trust-m-1/externals/mbedtls/library/bignum.c ****     return( 0 );
 186://MAC/Home/Downloads/getstarted-optiga-trust-m/optiga-trust-m-1/externals/mbedtls/library/bignum.c **** }
 187://MAC/Home/Downloads/getstarted-optiga-trust-m/optiga-trust-m-1/externals/mbedtls/library/bignum.c **** 
 188://MAC/Home/Downloads/getstarted-optiga-trust-m/optiga-trust-m-1/externals/mbedtls/library/bignum.c **** /*
 189://MAC/Home/Downloads/getstarted-optiga-trust-m/optiga-trust-m-1/externals/mbedtls/library/bignum.c ****  * Copy the contents of Y into X
 190://MAC/Home/Downloads/getstarted-optiga-trust-m/optiga-trust-m-1/externals/mbedtls/library/bignum.c ****  */
 191://MAC/Home/Downloads/getstarted-optiga-trust-m/optiga-trust-m-1/externals/mbedtls/library/bignum.c **** int mbedtls_mpi_copy( mbedtls_mpi *X, const mbedtls_mpi *Y )
 192://MAC/Home/Downloads/getstarted-optiga-trust-m/optiga-trust-m-1/externals/mbedtls/library/bignum.c **** {
 193://MAC/Home/Downloads/getstarted-optiga-trust-m/optiga-trust-m-1/externals/mbedtls/library/bignum.c ****     int ret = 0;
 194://MAC/Home/Downloads/getstarted-optiga-trust-m/optiga-trust-m-1/externals/mbedtls/library/bignum.c ****     size_t i;
 195://MAC/Home/Downloads/getstarted-optiga-trust-m/optiga-trust-m-1/externals/mbedtls/library/bignum.c ****     MPI_VALIDATE_RET( X != NULL );
 196://MAC/Home/Downloads/getstarted-optiga-trust-m/optiga-trust-m-1/externals/mbedtls/library/bignum.c ****     MPI_VALIDATE_RET( Y != NULL );
 197://MAC/Home/Downloads/getstarted-optiga-trust-m/optiga-trust-m-1/externals/mbedtls/library/bignum.c **** 
 198://MAC/Home/Downloads/getstarted-optiga-trust-m/optiga-trust-m-1/externals/mbedtls/library/bignum.c ****     if( X == Y )
 199://MAC/Home/Downloads/getstarted-optiga-trust-m/optiga-trust-m-1/externals/mbedtls/library/bignum.c ****         return( 0 );
 200://MAC/Home/Downloads/getstarted-optiga-trust-m/optiga-trust-m-1/externals/mbedtls/library/bignum.c **** 
 201://MAC/Home/Downloads/getstarted-optiga-trust-m/optiga-trust-m-1/externals/mbedtls/library/bignum.c ****     if( Y->p == NULL )
 202://MAC/Home/Downloads/getstarted-optiga-trust-m/optiga-trust-m-1/externals/mbedtls/library/bignum.c ****     {
 203://MAC/Home/Downloads/getstarted-optiga-trust-m/optiga-trust-m-1/externals/mbedtls/library/bignum.c ****         mbedtls_mpi_free( X );
 204://MAC/Home/Downloads/getstarted-optiga-trust-m/optiga-trust-m-1/externals/mbedtls/library/bignum.c ****         return( 0 );
 205://MAC/Home/Downloads/getstarted-optiga-trust-m/optiga-trust-m-1/externals/mbedtls/library/bignum.c ****     }
 206://MAC/Home/Downloads/getstarted-optiga-trust-m/optiga-trust-m-1/externals/mbedtls/library/bignum.c **** 
 207://MAC/Home/Downloads/getstarted-optiga-trust-m/optiga-trust-m-1/externals/mbedtls/library/bignum.c ****     for( i = Y->n - 1; i > 0; i-- )
 208://MAC/Home/Downloads/getstarted-optiga-trust-m/optiga-trust-m-1/externals/mbedtls/library/bignum.c ****         if( Y->p[i] != 0 )
 209://MAC/Home/Downloads/getstarted-optiga-trust-m/optiga-trust-m-1/externals/mbedtls/library/bignum.c ****             break;
 210://MAC/Home/Downloads/getstarted-optiga-trust-m/optiga-trust-m-1/externals/mbedtls/library/bignum.c ****     i++;
 211://MAC/Home/Downloads/getstarted-optiga-trust-m/optiga-trust-m-1/externals/mbedtls/library/bignum.c **** 
 212://MAC/Home/Downloads/getstarted-optiga-trust-m/optiga-trust-m-1/externals/mbedtls/library/bignum.c ****     X->s = Y->s;
 213://MAC/Home/Downloads/getstarted-optiga-trust-m/optiga-trust-m-1/externals/mbedtls/library/bignum.c **** 
 214://MAC/Home/Downloads/getstarted-optiga-trust-m/optiga-trust-m-1/externals/mbedtls/library/bignum.c ****     if( X->n < i )
 215://MAC/Home/Downloads/getstarted-optiga-trust-m/optiga-trust-m-1/externals/mbedtls/library/bignum.c ****     {
 216://MAC/Home/Downloads/getstarted-optiga-trust-m/optiga-trust-m-1/externals/mbedtls/library/bignum.c ****         MBEDTLS_MPI_CHK( mbedtls_mpi_grow( X, i ) );
 217://MAC/Home/Downloads/getstarted-optiga-trust-m/optiga-trust-m-1/externals/mbedtls/library/bignum.c ****     }
 218://MAC/Home/Downloads/getstarted-optiga-trust-m/optiga-trust-m-1/externals/mbedtls/library/bignum.c ****     else
 219://MAC/Home/Downloads/getstarted-optiga-trust-m/optiga-trust-m-1/externals/mbedtls/library/bignum.c ****     {
 220://MAC/Home/Downloads/getstarted-optiga-trust-m/optiga-trust-m-1/externals/mbedtls/library/bignum.c ****         memset( X->p + i, 0, ( X->n - i ) * ciL );
 221://MAC/Home/Downloads/getstarted-optiga-trust-m/optiga-trust-m-1/externals/mbedtls/library/bignum.c ****     }
 222://MAC/Home/Downloads/getstarted-optiga-trust-m/optiga-trust-m-1/externals/mbedtls/library/bignum.c **** 
 223://MAC/Home/Downloads/getstarted-optiga-trust-m/optiga-trust-m-1/externals/mbedtls/library/bignum.c ****     memcpy( X->p, Y->p, i * ciL );
 224://MAC/Home/Downloads/getstarted-optiga-trust-m/optiga-trust-m-1/externals/mbedtls/library/bignum.c **** 
 225://MAC/Home/Downloads/getstarted-optiga-trust-m/optiga-trust-m-1/externals/mbedtls/library/bignum.c **** cleanup:
 226://MAC/Home/Downloads/getstarted-optiga-trust-m/optiga-trust-m-1/externals/mbedtls/library/bignum.c **** 
 227://MAC/Home/Downloads/getstarted-optiga-trust-m/optiga-trust-m-1/externals/mbedtls/library/bignum.c ****     return( ret );
 228://MAC/Home/Downloads/getstarted-optiga-trust-m/optiga-trust-m-1/externals/mbedtls/library/bignum.c **** }
 229://MAC/Home/Downloads/getstarted-optiga-trust-m/optiga-trust-m-1/externals/mbedtls/library/bignum.c **** 
 230://MAC/Home/Downloads/getstarted-optiga-trust-m/optiga-trust-m-1/externals/mbedtls/library/bignum.c **** /*
 231://MAC/Home/Downloads/getstarted-optiga-trust-m/optiga-trust-m-1/externals/mbedtls/library/bignum.c ****  * Swap the contents of X and Y
 232://MAC/Home/Downloads/getstarted-optiga-trust-m/optiga-trust-m-1/externals/mbedtls/library/bignum.c ****  */
 233://MAC/Home/Downloads/getstarted-optiga-trust-m/optiga-trust-m-1/externals/mbedtls/library/bignum.c **** void mbedtls_mpi_swap( mbedtls_mpi *X, mbedtls_mpi *Y )
 234://MAC/Home/Downloads/getstarted-optiga-trust-m/optiga-trust-m-1/externals/mbedtls/library/bignum.c **** {
 235://MAC/Home/Downloads/getstarted-optiga-trust-m/optiga-trust-m-1/externals/mbedtls/library/bignum.c ****     mbedtls_mpi T;
 236://MAC/Home/Downloads/getstarted-optiga-trust-m/optiga-trust-m-1/externals/mbedtls/library/bignum.c ****     MPI_VALIDATE( X != NULL );
 237://MAC/Home/Downloads/getstarted-optiga-trust-m/optiga-trust-m-1/externals/mbedtls/library/bignum.c ****     MPI_VALIDATE( Y != NULL );
 238://MAC/Home/Downloads/getstarted-optiga-trust-m/optiga-trust-m-1/externals/mbedtls/library/bignum.c **** 
 239://MAC/Home/Downloads/getstarted-optiga-trust-m/optiga-trust-m-1/externals/mbedtls/library/bignum.c ****     memcpy( &T,  X, sizeof( mbedtls_mpi ) );
 240://MAC/Home/Downloads/getstarted-optiga-trust-m/optiga-trust-m-1/externals/mbedtls/library/bignum.c ****     memcpy(  X,  Y, sizeof( mbedtls_mpi ) );
 241://MAC/Home/Downloads/getstarted-optiga-trust-m/optiga-trust-m-1/externals/mbedtls/library/bignum.c ****     memcpy(  Y, &T, sizeof( mbedtls_mpi ) );
 242://MAC/Home/Downloads/getstarted-optiga-trust-m/optiga-trust-m-1/externals/mbedtls/library/bignum.c **** }
 243://MAC/Home/Downloads/getstarted-optiga-trust-m/optiga-trust-m-1/externals/mbedtls/library/bignum.c **** 
 244://MAC/Home/Downloads/getstarted-optiga-trust-m/optiga-trust-m-1/externals/mbedtls/library/bignum.c **** /*
 245://MAC/Home/Downloads/getstarted-optiga-trust-m/optiga-trust-m-1/externals/mbedtls/library/bignum.c ****  * Conditionally assign X = Y, without leaking information
 246://MAC/Home/Downloads/getstarted-optiga-trust-m/optiga-trust-m-1/externals/mbedtls/library/bignum.c ****  * about whether the assignment was made or not.
 247://MAC/Home/Downloads/getstarted-optiga-trust-m/optiga-trust-m-1/externals/mbedtls/library/bignum.c ****  * (Leaking information about the respective sizes of X and Y is ok however.)
 248://MAC/Home/Downloads/getstarted-optiga-trust-m/optiga-trust-m-1/externals/mbedtls/library/bignum.c ****  */
 249://MAC/Home/Downloads/getstarted-optiga-trust-m/optiga-trust-m-1/externals/mbedtls/library/bignum.c **** int mbedtls_mpi_safe_cond_assign( mbedtls_mpi *X, const mbedtls_mpi *Y, unsigned char assign )
 250://MAC/Home/Downloads/getstarted-optiga-trust-m/optiga-trust-m-1/externals/mbedtls/library/bignum.c **** {
 251://MAC/Home/Downloads/getstarted-optiga-trust-m/optiga-trust-m-1/externals/mbedtls/library/bignum.c ****     int ret = 0;
 252://MAC/Home/Downloads/getstarted-optiga-trust-m/optiga-trust-m-1/externals/mbedtls/library/bignum.c ****     size_t i;
 253://MAC/Home/Downloads/getstarted-optiga-trust-m/optiga-trust-m-1/externals/mbedtls/library/bignum.c ****     MPI_VALIDATE_RET( X != NULL );
 254://MAC/Home/Downloads/getstarted-optiga-trust-m/optiga-trust-m-1/externals/mbedtls/library/bignum.c ****     MPI_VALIDATE_RET( Y != NULL );
 255://MAC/Home/Downloads/getstarted-optiga-trust-m/optiga-trust-m-1/externals/mbedtls/library/bignum.c **** 
 256://MAC/Home/Downloads/getstarted-optiga-trust-m/optiga-trust-m-1/externals/mbedtls/library/bignum.c ****     /* make sure assign is 0 or 1 in a time-constant manner */
 257://MAC/Home/Downloads/getstarted-optiga-trust-m/optiga-trust-m-1/externals/mbedtls/library/bignum.c ****     assign = (assign | (unsigned char)-assign) >> 7;
 258://MAC/Home/Downloads/getstarted-optiga-trust-m/optiga-trust-m-1/externals/mbedtls/library/bignum.c **** 
 259://MAC/Home/Downloads/getstarted-optiga-trust-m/optiga-trust-m-1/externals/mbedtls/library/bignum.c ****     MBEDTLS_MPI_CHK( mbedtls_mpi_grow( X, Y->n ) );
 260://MAC/Home/Downloads/getstarted-optiga-trust-m/optiga-trust-m-1/externals/mbedtls/library/bignum.c **** 
 261://MAC/Home/Downloads/getstarted-optiga-trust-m/optiga-trust-m-1/externals/mbedtls/library/bignum.c ****     X->s = X->s * ( 1 - assign ) + Y->s * assign;
 262://MAC/Home/Downloads/getstarted-optiga-trust-m/optiga-trust-m-1/externals/mbedtls/library/bignum.c **** 
 263://MAC/Home/Downloads/getstarted-optiga-trust-m/optiga-trust-m-1/externals/mbedtls/library/bignum.c ****     for( i = 0; i < Y->n; i++ )
 264://MAC/Home/Downloads/getstarted-optiga-trust-m/optiga-trust-m-1/externals/mbedtls/library/bignum.c ****         X->p[i] = X->p[i] * ( 1 - assign ) + Y->p[i] * assign;
 265://MAC/Home/Downloads/getstarted-optiga-trust-m/optiga-trust-m-1/externals/mbedtls/library/bignum.c **** 
 266://MAC/Home/Downloads/getstarted-optiga-trust-m/optiga-trust-m-1/externals/mbedtls/library/bignum.c ****     for( ; i < X->n; i++ )
 267://MAC/Home/Downloads/getstarted-optiga-trust-m/optiga-trust-m-1/externals/mbedtls/library/bignum.c ****         X->p[i] *= ( 1 - assign );
 268://MAC/Home/Downloads/getstarted-optiga-trust-m/optiga-trust-m-1/externals/mbedtls/library/bignum.c **** 
 269://MAC/Home/Downloads/getstarted-optiga-trust-m/optiga-trust-m-1/externals/mbedtls/library/bignum.c **** cleanup:
 270://MAC/Home/Downloads/getstarted-optiga-trust-m/optiga-trust-m-1/externals/mbedtls/library/bignum.c ****     return( ret );
 271://MAC/Home/Downloads/getstarted-optiga-trust-m/optiga-trust-m-1/externals/mbedtls/library/bignum.c **** }
 272://MAC/Home/Downloads/getstarted-optiga-trust-m/optiga-trust-m-1/externals/mbedtls/library/bignum.c **** 
 273://MAC/Home/Downloads/getstarted-optiga-trust-m/optiga-trust-m-1/externals/mbedtls/library/bignum.c **** /*
 274://MAC/Home/Downloads/getstarted-optiga-trust-m/optiga-trust-m-1/externals/mbedtls/library/bignum.c ****  * Conditionally swap X and Y, without leaking information
 275://MAC/Home/Downloads/getstarted-optiga-trust-m/optiga-trust-m-1/externals/mbedtls/library/bignum.c ****  * about whether the swap was made or not.
 276://MAC/Home/Downloads/getstarted-optiga-trust-m/optiga-trust-m-1/externals/mbedtls/library/bignum.c ****  * Here it is not ok to simply swap the pointers, which whould lead to
 277://MAC/Home/Downloads/getstarted-optiga-trust-m/optiga-trust-m-1/externals/mbedtls/library/bignum.c ****  * different memory access patterns when X and Y are used afterwards.
 278://MAC/Home/Downloads/getstarted-optiga-trust-m/optiga-trust-m-1/externals/mbedtls/library/bignum.c ****  */
 279://MAC/Home/Downloads/getstarted-optiga-trust-m/optiga-trust-m-1/externals/mbedtls/library/bignum.c **** int mbedtls_mpi_safe_cond_swap( mbedtls_mpi *X, mbedtls_mpi *Y, unsigned char swap )
 280://MAC/Home/Downloads/getstarted-optiga-trust-m/optiga-trust-m-1/externals/mbedtls/library/bignum.c **** {
 281://MAC/Home/Downloads/getstarted-optiga-trust-m/optiga-trust-m-1/externals/mbedtls/library/bignum.c ****     int ret, s;
 282://MAC/Home/Downloads/getstarted-optiga-trust-m/optiga-trust-m-1/externals/mbedtls/library/bignum.c ****     size_t i;
 283://MAC/Home/Downloads/getstarted-optiga-trust-m/optiga-trust-m-1/externals/mbedtls/library/bignum.c ****     mbedtls_mpi_uint tmp;
 284://MAC/Home/Downloads/getstarted-optiga-trust-m/optiga-trust-m-1/externals/mbedtls/library/bignum.c ****     MPI_VALIDATE_RET( X != NULL );
 285://MAC/Home/Downloads/getstarted-optiga-trust-m/optiga-trust-m-1/externals/mbedtls/library/bignum.c ****     MPI_VALIDATE_RET( Y != NULL );
 286://MAC/Home/Downloads/getstarted-optiga-trust-m/optiga-trust-m-1/externals/mbedtls/library/bignum.c **** 
 287://MAC/Home/Downloads/getstarted-optiga-trust-m/optiga-trust-m-1/externals/mbedtls/library/bignum.c ****     if( X == Y )
 288://MAC/Home/Downloads/getstarted-optiga-trust-m/optiga-trust-m-1/externals/mbedtls/library/bignum.c ****         return( 0 );
 289://MAC/Home/Downloads/getstarted-optiga-trust-m/optiga-trust-m-1/externals/mbedtls/library/bignum.c **** 
 290://MAC/Home/Downloads/getstarted-optiga-trust-m/optiga-trust-m-1/externals/mbedtls/library/bignum.c ****     /* make sure swap is 0 or 1 in a time-constant manner */
 291://MAC/Home/Downloads/getstarted-optiga-trust-m/optiga-trust-m-1/externals/mbedtls/library/bignum.c ****     swap = (swap | (unsigned char)-swap) >> 7;
 292://MAC/Home/Downloads/getstarted-optiga-trust-m/optiga-trust-m-1/externals/mbedtls/library/bignum.c **** 
 293://MAC/Home/Downloads/getstarted-optiga-trust-m/optiga-trust-m-1/externals/mbedtls/library/bignum.c ****     MBEDTLS_MPI_CHK( mbedtls_mpi_grow( X, Y->n ) );
 294://MAC/Home/Downloads/getstarted-optiga-trust-m/optiga-trust-m-1/externals/mbedtls/library/bignum.c ****     MBEDTLS_MPI_CHK( mbedtls_mpi_grow( Y, X->n ) );
 295://MAC/Home/Downloads/getstarted-optiga-trust-m/optiga-trust-m-1/externals/mbedtls/library/bignum.c **** 
 296://MAC/Home/Downloads/getstarted-optiga-trust-m/optiga-trust-m-1/externals/mbedtls/library/bignum.c ****     s = X->s;
 297://MAC/Home/Downloads/getstarted-optiga-trust-m/optiga-trust-m-1/externals/mbedtls/library/bignum.c ****     X->s = X->s * ( 1 - swap ) + Y->s * swap;
 298://MAC/Home/Downloads/getstarted-optiga-trust-m/optiga-trust-m-1/externals/mbedtls/library/bignum.c ****     Y->s = Y->s * ( 1 - swap ) +    s * swap;
 299://MAC/Home/Downloads/getstarted-optiga-trust-m/optiga-trust-m-1/externals/mbedtls/library/bignum.c **** 
 300://MAC/Home/Downloads/getstarted-optiga-trust-m/optiga-trust-m-1/externals/mbedtls/library/bignum.c **** 
 301://MAC/Home/Downloads/getstarted-optiga-trust-m/optiga-trust-m-1/externals/mbedtls/library/bignum.c ****     for( i = 0; i < X->n; i++ )
 302://MAC/Home/Downloads/getstarted-optiga-trust-m/optiga-trust-m-1/externals/mbedtls/library/bignum.c ****     {
 303://MAC/Home/Downloads/getstarted-optiga-trust-m/optiga-trust-m-1/externals/mbedtls/library/bignum.c ****         tmp = X->p[i];
 304://MAC/Home/Downloads/getstarted-optiga-trust-m/optiga-trust-m-1/externals/mbedtls/library/bignum.c ****         X->p[i] = X->p[i] * ( 1 - swap ) + Y->p[i] * swap;
 305://MAC/Home/Downloads/getstarted-optiga-trust-m/optiga-trust-m-1/externals/mbedtls/library/bignum.c ****         Y->p[i] = Y->p[i] * ( 1 - swap ) +     tmp * swap;
 306://MAC/Home/Downloads/getstarted-optiga-trust-m/optiga-trust-m-1/externals/mbedtls/library/bignum.c ****     }
 307://MAC/Home/Downloads/getstarted-optiga-trust-m/optiga-trust-m-1/externals/mbedtls/library/bignum.c **** 
 308://MAC/Home/Downloads/getstarted-optiga-trust-m/optiga-trust-m-1/externals/mbedtls/library/bignum.c **** cleanup:
 309://MAC/Home/Downloads/getstarted-optiga-trust-m/optiga-trust-m-1/externals/mbedtls/library/bignum.c ****     return( ret );
 310://MAC/Home/Downloads/getstarted-optiga-trust-m/optiga-trust-m-1/externals/mbedtls/library/bignum.c **** }
 311://MAC/Home/Downloads/getstarted-optiga-trust-m/optiga-trust-m-1/externals/mbedtls/library/bignum.c **** 
 312://MAC/Home/Downloads/getstarted-optiga-trust-m/optiga-trust-m-1/externals/mbedtls/library/bignum.c **** /*
 313://MAC/Home/Downloads/getstarted-optiga-trust-m/optiga-trust-m-1/externals/mbedtls/library/bignum.c ****  * Set value from integer
 314://MAC/Home/Downloads/getstarted-optiga-trust-m/optiga-trust-m-1/externals/mbedtls/library/bignum.c ****  */
 315://MAC/Home/Downloads/getstarted-optiga-trust-m/optiga-trust-m-1/externals/mbedtls/library/bignum.c **** int mbedtls_mpi_lset( mbedtls_mpi *X, mbedtls_mpi_sint z )
 316://MAC/Home/Downloads/getstarted-optiga-trust-m/optiga-trust-m-1/externals/mbedtls/library/bignum.c **** {
 317://MAC/Home/Downloads/getstarted-optiga-trust-m/optiga-trust-m-1/externals/mbedtls/library/bignum.c ****     int ret;
 318://MAC/Home/Downloads/getstarted-optiga-trust-m/optiga-trust-m-1/externals/mbedtls/library/bignum.c ****     MPI_VALIDATE_RET( X != NULL );
 319://MAC/Home/Downloads/getstarted-optiga-trust-m/optiga-trust-m-1/externals/mbedtls/library/bignum.c **** 
 320://MAC/Home/Downloads/getstarted-optiga-trust-m/optiga-trust-m-1/externals/mbedtls/library/bignum.c ****     MBEDTLS_MPI_CHK( mbedtls_mpi_grow( X, 1 ) );
 321://MAC/Home/Downloads/getstarted-optiga-trust-m/optiga-trust-m-1/externals/mbedtls/library/bignum.c ****     memset( X->p, 0, X->n * ciL );
 322://MAC/Home/Downloads/getstarted-optiga-trust-m/optiga-trust-m-1/externals/mbedtls/library/bignum.c **** 
 323://MAC/Home/Downloads/getstarted-optiga-trust-m/optiga-trust-m-1/externals/mbedtls/library/bignum.c ****     X->p[0] = ( z < 0 ) ? -z : z;
 324://MAC/Home/Downloads/getstarted-optiga-trust-m/optiga-trust-m-1/externals/mbedtls/library/bignum.c ****     X->s    = ( z < 0 ) ? -1 : 1;
 325://MAC/Home/Downloads/getstarted-optiga-trust-m/optiga-trust-m-1/externals/mbedtls/library/bignum.c **** 
 326://MAC/Home/Downloads/getstarted-optiga-trust-m/optiga-trust-m-1/externals/mbedtls/library/bignum.c **** cleanup:
 327://MAC/Home/Downloads/getstarted-optiga-trust-m/optiga-trust-m-1/externals/mbedtls/library/bignum.c **** 
 328://MAC/Home/Downloads/getstarted-optiga-trust-m/optiga-trust-m-1/externals/mbedtls/library/bignum.c ****     return( ret );
 329://MAC/Home/Downloads/getstarted-optiga-trust-m/optiga-trust-m-1/externals/mbedtls/library/bignum.c **** }
 330://MAC/Home/Downloads/getstarted-optiga-trust-m/optiga-trust-m-1/externals/mbedtls/library/bignum.c **** 
 331://MAC/Home/Downloads/getstarted-optiga-trust-m/optiga-trust-m-1/externals/mbedtls/library/bignum.c **** /*
 332://MAC/Home/Downloads/getstarted-optiga-trust-m/optiga-trust-m-1/externals/mbedtls/library/bignum.c ****  * Get a specific bit
 333://MAC/Home/Downloads/getstarted-optiga-trust-m/optiga-trust-m-1/externals/mbedtls/library/bignum.c ****  */
 334://MAC/Home/Downloads/getstarted-optiga-trust-m/optiga-trust-m-1/externals/mbedtls/library/bignum.c **** int mbedtls_mpi_get_bit( const mbedtls_mpi *X, size_t pos )
 335://MAC/Home/Downloads/getstarted-optiga-trust-m/optiga-trust-m-1/externals/mbedtls/library/bignum.c **** {
 336://MAC/Home/Downloads/getstarted-optiga-trust-m/optiga-trust-m-1/externals/mbedtls/library/bignum.c ****     MPI_VALIDATE_RET( X != NULL );
 337://MAC/Home/Downloads/getstarted-optiga-trust-m/optiga-trust-m-1/externals/mbedtls/library/bignum.c **** 
 338://MAC/Home/Downloads/getstarted-optiga-trust-m/optiga-trust-m-1/externals/mbedtls/library/bignum.c ****     if( X->n * biL <= pos )
 339://MAC/Home/Downloads/getstarted-optiga-trust-m/optiga-trust-m-1/externals/mbedtls/library/bignum.c ****         return( 0 );
 340://MAC/Home/Downloads/getstarted-optiga-trust-m/optiga-trust-m-1/externals/mbedtls/library/bignum.c **** 
 341://MAC/Home/Downloads/getstarted-optiga-trust-m/optiga-trust-m-1/externals/mbedtls/library/bignum.c ****     return( ( X->p[pos / biL] >> ( pos % biL ) ) & 0x01 );
 342://MAC/Home/Downloads/getstarted-optiga-trust-m/optiga-trust-m-1/externals/mbedtls/library/bignum.c **** }
 343://MAC/Home/Downloads/getstarted-optiga-trust-m/optiga-trust-m-1/externals/mbedtls/library/bignum.c **** 
 344://MAC/Home/Downloads/getstarted-optiga-trust-m/optiga-trust-m-1/externals/mbedtls/library/bignum.c **** /* Get a specific byte, without range checks. */
 345://MAC/Home/Downloads/getstarted-optiga-trust-m/optiga-trust-m-1/externals/mbedtls/library/bignum.c **** #define GET_BYTE( X, i )                                \
 346://MAC/Home/Downloads/getstarted-optiga-trust-m/optiga-trust-m-1/externals/mbedtls/library/bignum.c ****     ( ( ( X )->p[( i ) / ciL] >> ( ( ( i ) % ciL ) * 8 ) ) & 0xff )
 347://MAC/Home/Downloads/getstarted-optiga-trust-m/optiga-trust-m-1/externals/mbedtls/library/bignum.c **** 
 348://MAC/Home/Downloads/getstarted-optiga-trust-m/optiga-trust-m-1/externals/mbedtls/library/bignum.c **** /*
 349://MAC/Home/Downloads/getstarted-optiga-trust-m/optiga-trust-m-1/externals/mbedtls/library/bignum.c ****  * Set a bit to a specific value of 0 or 1
 350://MAC/Home/Downloads/getstarted-optiga-trust-m/optiga-trust-m-1/externals/mbedtls/library/bignum.c ****  */
 351://MAC/Home/Downloads/getstarted-optiga-trust-m/optiga-trust-m-1/externals/mbedtls/library/bignum.c **** int mbedtls_mpi_set_bit( mbedtls_mpi *X, size_t pos, unsigned char val )
 352://MAC/Home/Downloads/getstarted-optiga-trust-m/optiga-trust-m-1/externals/mbedtls/library/bignum.c **** {
 353://MAC/Home/Downloads/getstarted-optiga-trust-m/optiga-trust-m-1/externals/mbedtls/library/bignum.c ****     int ret = 0;
 354://MAC/Home/Downloads/getstarted-optiga-trust-m/optiga-trust-m-1/externals/mbedtls/library/bignum.c ****     size_t off = pos / biL;
 355://MAC/Home/Downloads/getstarted-optiga-trust-m/optiga-trust-m-1/externals/mbedtls/library/bignum.c ****     size_t idx = pos % biL;
 356://MAC/Home/Downloads/getstarted-optiga-trust-m/optiga-trust-m-1/externals/mbedtls/library/bignum.c ****     MPI_VALIDATE_RET( X != NULL );
 357://MAC/Home/Downloads/getstarted-optiga-trust-m/optiga-trust-m-1/externals/mbedtls/library/bignum.c **** 
 358://MAC/Home/Downloads/getstarted-optiga-trust-m/optiga-trust-m-1/externals/mbedtls/library/bignum.c ****     if( val != 0 && val != 1 )
 359://MAC/Home/Downloads/getstarted-optiga-trust-m/optiga-trust-m-1/externals/mbedtls/library/bignum.c ****         return( MBEDTLS_ERR_MPI_BAD_INPUT_DATA );
 360://MAC/Home/Downloads/getstarted-optiga-trust-m/optiga-trust-m-1/externals/mbedtls/library/bignum.c **** 
 361://MAC/Home/Downloads/getstarted-optiga-trust-m/optiga-trust-m-1/externals/mbedtls/library/bignum.c ****     if( X->n * biL <= pos )
 362://MAC/Home/Downloads/getstarted-optiga-trust-m/optiga-trust-m-1/externals/mbedtls/library/bignum.c ****     {
 363://MAC/Home/Downloads/getstarted-optiga-trust-m/optiga-trust-m-1/externals/mbedtls/library/bignum.c ****         if( val == 0 )
 364://MAC/Home/Downloads/getstarted-optiga-trust-m/optiga-trust-m-1/externals/mbedtls/library/bignum.c ****             return( 0 );
 365://MAC/Home/Downloads/getstarted-optiga-trust-m/optiga-trust-m-1/externals/mbedtls/library/bignum.c **** 
 366://MAC/Home/Downloads/getstarted-optiga-trust-m/optiga-trust-m-1/externals/mbedtls/library/bignum.c ****         MBEDTLS_MPI_CHK( mbedtls_mpi_grow( X, off + 1 ) );
 367://MAC/Home/Downloads/getstarted-optiga-trust-m/optiga-trust-m-1/externals/mbedtls/library/bignum.c ****     }
 368://MAC/Home/Downloads/getstarted-optiga-trust-m/optiga-trust-m-1/externals/mbedtls/library/bignum.c **** 
 369://MAC/Home/Downloads/getstarted-optiga-trust-m/optiga-trust-m-1/externals/mbedtls/library/bignum.c ****     X->p[off] &= ~( (mbedtls_mpi_uint) 0x01 << idx );
 370://MAC/Home/Downloads/getstarted-optiga-trust-m/optiga-trust-m-1/externals/mbedtls/library/bignum.c ****     X->p[off] |= (mbedtls_mpi_uint) val << idx;
 371://MAC/Home/Downloads/getstarted-optiga-trust-m/optiga-trust-m-1/externals/mbedtls/library/bignum.c **** 
 372://MAC/Home/Downloads/getstarted-optiga-trust-m/optiga-trust-m-1/externals/mbedtls/library/bignum.c **** cleanup:
 373://MAC/Home/Downloads/getstarted-optiga-trust-m/optiga-trust-m-1/externals/mbedtls/library/bignum.c **** 
 374://MAC/Home/Downloads/getstarted-optiga-trust-m/optiga-trust-m-1/externals/mbedtls/library/bignum.c ****     return( ret );
 375://MAC/Home/Downloads/getstarted-optiga-trust-m/optiga-trust-m-1/externals/mbedtls/library/bignum.c **** }
 376://MAC/Home/Downloads/getstarted-optiga-trust-m/optiga-trust-m-1/externals/mbedtls/library/bignum.c **** 
 377://MAC/Home/Downloads/getstarted-optiga-trust-m/optiga-trust-m-1/externals/mbedtls/library/bignum.c **** /*
 378://MAC/Home/Downloads/getstarted-optiga-trust-m/optiga-trust-m-1/externals/mbedtls/library/bignum.c ****  * Return the number of less significant zero-bits
 379://MAC/Home/Downloads/getstarted-optiga-trust-m/optiga-trust-m-1/externals/mbedtls/library/bignum.c ****  */
 380://MAC/Home/Downloads/getstarted-optiga-trust-m/optiga-trust-m-1/externals/mbedtls/library/bignum.c **** size_t mbedtls_mpi_lsb( const mbedtls_mpi *X )
 381://MAC/Home/Downloads/getstarted-optiga-trust-m/optiga-trust-m-1/externals/mbedtls/library/bignum.c **** {
 382://MAC/Home/Downloads/getstarted-optiga-trust-m/optiga-trust-m-1/externals/mbedtls/library/bignum.c ****     size_t i, j, count = 0;
 383://MAC/Home/Downloads/getstarted-optiga-trust-m/optiga-trust-m-1/externals/mbedtls/library/bignum.c ****     MBEDTLS_INTERNAL_VALIDATE_RET( X != NULL, 0 );
 384://MAC/Home/Downloads/getstarted-optiga-trust-m/optiga-trust-m-1/externals/mbedtls/library/bignum.c **** 
 385://MAC/Home/Downloads/getstarted-optiga-trust-m/optiga-trust-m-1/externals/mbedtls/library/bignum.c ****     for( i = 0; i < X->n; i++ )
 386://MAC/Home/Downloads/getstarted-optiga-trust-m/optiga-trust-m-1/externals/mbedtls/library/bignum.c ****         for( j = 0; j < biL; j++, count++ )
 387://MAC/Home/Downloads/getstarted-optiga-trust-m/optiga-trust-m-1/externals/mbedtls/library/bignum.c ****             if( ( ( X->p[i] >> j ) & 1 ) != 0 )
 388://MAC/Home/Downloads/getstarted-optiga-trust-m/optiga-trust-m-1/externals/mbedtls/library/bignum.c ****                 return( count );
 389://MAC/Home/Downloads/getstarted-optiga-trust-m/optiga-trust-m-1/externals/mbedtls/library/bignum.c **** 
 390://MAC/Home/Downloads/getstarted-optiga-trust-m/optiga-trust-m-1/externals/mbedtls/library/bignum.c ****     return( 0 );
 391://MAC/Home/Downloads/getstarted-optiga-trust-m/optiga-trust-m-1/externals/mbedtls/library/bignum.c **** }
 392://MAC/Home/Downloads/getstarted-optiga-trust-m/optiga-trust-m-1/externals/mbedtls/library/bignum.c **** 
 393://MAC/Home/Downloads/getstarted-optiga-trust-m/optiga-trust-m-1/externals/mbedtls/library/bignum.c **** /*
 394://MAC/Home/Downloads/getstarted-optiga-trust-m/optiga-trust-m-1/externals/mbedtls/library/bignum.c ****  * Count leading zero bits in a given integer
 395://MAC/Home/Downloads/getstarted-optiga-trust-m/optiga-trust-m-1/externals/mbedtls/library/bignum.c ****  */
 396://MAC/Home/Downloads/getstarted-optiga-trust-m/optiga-trust-m-1/externals/mbedtls/library/bignum.c **** static size_t mbedtls_clz( const mbedtls_mpi_uint x )
 397://MAC/Home/Downloads/getstarted-optiga-trust-m/optiga-trust-m-1/externals/mbedtls/library/bignum.c **** {
 398://MAC/Home/Downloads/getstarted-optiga-trust-m/optiga-trust-m-1/externals/mbedtls/library/bignum.c ****     size_t j;
 399://MAC/Home/Downloads/getstarted-optiga-trust-m/optiga-trust-m-1/externals/mbedtls/library/bignum.c ****     mbedtls_mpi_uint mask = (mbedtls_mpi_uint) 1 << (biL - 1);
 400://MAC/Home/Downloads/getstarted-optiga-trust-m/optiga-trust-m-1/externals/mbedtls/library/bignum.c **** 
 401://MAC/Home/Downloads/getstarted-optiga-trust-m/optiga-trust-m-1/externals/mbedtls/library/bignum.c ****     for( j = 0; j < biL; j++ )
 402://MAC/Home/Downloads/getstarted-optiga-trust-m/optiga-trust-m-1/externals/mbedtls/library/bignum.c ****     {
 403://MAC/Home/Downloads/getstarted-optiga-trust-m/optiga-trust-m-1/externals/mbedtls/library/bignum.c ****         if( x & mask ) break;
 404://MAC/Home/Downloads/getstarted-optiga-trust-m/optiga-trust-m-1/externals/mbedtls/library/bignum.c **** 
 405://MAC/Home/Downloads/getstarted-optiga-trust-m/optiga-trust-m-1/externals/mbedtls/library/bignum.c ****         mask >>= 1;
 406://MAC/Home/Downloads/getstarted-optiga-trust-m/optiga-trust-m-1/externals/mbedtls/library/bignum.c ****     }
 407://MAC/Home/Downloads/getstarted-optiga-trust-m/optiga-trust-m-1/externals/mbedtls/library/bignum.c **** 
 408://MAC/Home/Downloads/getstarted-optiga-trust-m/optiga-trust-m-1/externals/mbedtls/library/bignum.c ****     return j;
 409://MAC/Home/Downloads/getstarted-optiga-trust-m/optiga-trust-m-1/externals/mbedtls/library/bignum.c **** }
 410://MAC/Home/Downloads/getstarted-optiga-trust-m/optiga-trust-m-1/externals/mbedtls/library/bignum.c **** 
 411://MAC/Home/Downloads/getstarted-optiga-trust-m/optiga-trust-m-1/externals/mbedtls/library/bignum.c **** /*
 412://MAC/Home/Downloads/getstarted-optiga-trust-m/optiga-trust-m-1/externals/mbedtls/library/bignum.c ****  * Return the number of bits
 413://MAC/Home/Downloads/getstarted-optiga-trust-m/optiga-trust-m-1/externals/mbedtls/library/bignum.c ****  */
 414://MAC/Home/Downloads/getstarted-optiga-trust-m/optiga-trust-m-1/externals/mbedtls/library/bignum.c **** size_t mbedtls_mpi_bitlen( const mbedtls_mpi *X )
 415://MAC/Home/Downloads/getstarted-optiga-trust-m/optiga-trust-m-1/externals/mbedtls/library/bignum.c **** {
 416://MAC/Home/Downloads/getstarted-optiga-trust-m/optiga-trust-m-1/externals/mbedtls/library/bignum.c ****     size_t i, j;
 417://MAC/Home/Downloads/getstarted-optiga-trust-m/optiga-trust-m-1/externals/mbedtls/library/bignum.c **** 
 418://MAC/Home/Downloads/getstarted-optiga-trust-m/optiga-trust-m-1/externals/mbedtls/library/bignum.c ****     if( X->n == 0 )
 419://MAC/Home/Downloads/getstarted-optiga-trust-m/optiga-trust-m-1/externals/mbedtls/library/bignum.c ****         return( 0 );
 420://MAC/Home/Downloads/getstarted-optiga-trust-m/optiga-trust-m-1/externals/mbedtls/library/bignum.c **** 
 421://MAC/Home/Downloads/getstarted-optiga-trust-m/optiga-trust-m-1/externals/mbedtls/library/bignum.c ****     for( i = X->n - 1; i > 0; i-- )
 422://MAC/Home/Downloads/getstarted-optiga-trust-m/optiga-trust-m-1/externals/mbedtls/library/bignum.c ****         if( X->p[i] != 0 )
 423://MAC/Home/Downloads/getstarted-optiga-trust-m/optiga-trust-m-1/externals/mbedtls/library/bignum.c ****             break;
 424://MAC/Home/Downloads/getstarted-optiga-trust-m/optiga-trust-m-1/externals/mbedtls/library/bignum.c **** 
 425://MAC/Home/Downloads/getstarted-optiga-trust-m/optiga-trust-m-1/externals/mbedtls/library/bignum.c ****     j = biL - mbedtls_clz( X->p[i] );
 426://MAC/Home/Downloads/getstarted-optiga-trust-m/optiga-trust-m-1/externals/mbedtls/library/bignum.c **** 
 427://MAC/Home/Downloads/getstarted-optiga-trust-m/optiga-trust-m-1/externals/mbedtls/library/bignum.c ****     return( ( i * biL ) + j );
 428://MAC/Home/Downloads/getstarted-optiga-trust-m/optiga-trust-m-1/externals/mbedtls/library/bignum.c **** }
 429://MAC/Home/Downloads/getstarted-optiga-trust-m/optiga-trust-m-1/externals/mbedtls/library/bignum.c **** 
 430://MAC/Home/Downloads/getstarted-optiga-trust-m/optiga-trust-m-1/externals/mbedtls/library/bignum.c **** /*
 431://MAC/Home/Downloads/getstarted-optiga-trust-m/optiga-trust-m-1/externals/mbedtls/library/bignum.c ****  * Return the total size in bytes
 432://MAC/Home/Downloads/getstarted-optiga-trust-m/optiga-trust-m-1/externals/mbedtls/library/bignum.c ****  */
 433://MAC/Home/Downloads/getstarted-optiga-trust-m/optiga-trust-m-1/externals/mbedtls/library/bignum.c **** size_t mbedtls_mpi_size( const mbedtls_mpi *X )
 434://MAC/Home/Downloads/getstarted-optiga-trust-m/optiga-trust-m-1/externals/mbedtls/library/bignum.c **** {
 435://MAC/Home/Downloads/getstarted-optiga-trust-m/optiga-trust-m-1/externals/mbedtls/library/bignum.c ****     return( ( mbedtls_mpi_bitlen( X ) + 7 ) >> 3 );
 436://MAC/Home/Downloads/getstarted-optiga-trust-m/optiga-trust-m-1/externals/mbedtls/library/bignum.c **** }
 437://MAC/Home/Downloads/getstarted-optiga-trust-m/optiga-trust-m-1/externals/mbedtls/library/bignum.c **** 
 438://MAC/Home/Downloads/getstarted-optiga-trust-m/optiga-trust-m-1/externals/mbedtls/library/bignum.c **** /*
 439://MAC/Home/Downloads/getstarted-optiga-trust-m/optiga-trust-m-1/externals/mbedtls/library/bignum.c ****  * Convert an ASCII character to digit value
 440://MAC/Home/Downloads/getstarted-optiga-trust-m/optiga-trust-m-1/externals/mbedtls/library/bignum.c ****  */
 441://MAC/Home/Downloads/getstarted-optiga-trust-m/optiga-trust-m-1/externals/mbedtls/library/bignum.c **** static int mpi_get_digit( mbedtls_mpi_uint *d, int radix, char c )
 442://MAC/Home/Downloads/getstarted-optiga-trust-m/optiga-trust-m-1/externals/mbedtls/library/bignum.c **** {
  25              	 .loc 1 442 0
  26              	 .cfi_startproc
  27              	.LVL0:
 443://MAC/Home/Downloads/getstarted-optiga-trust-m/optiga-trust-m-1/externals/mbedtls/library/bignum.c ****     *d = 255;
 444://MAC/Home/Downloads/getstarted-optiga-trust-m/optiga-trust-m-1/externals/mbedtls/library/bignum.c **** 
 445://MAC/Home/Downloads/getstarted-optiga-trust-m/optiga-trust-m-1/externals/mbedtls/library/bignum.c ****     if( c >= 0x30 && c <= 0x39 ) *d = c - 0x30;
  28              	 .loc 1 445 0
  29 0000 131C     	 mov r3,r2
  30 0002 303B     	 sub r3,r3,#48
 442://MAC/Home/Downloads/getstarted-optiga-trust-m/optiga-trust-m-1/externals/mbedtls/library/bignum.c ****     *d = 255;
  31              	 .loc 1 442 0
  32 0004 10B5     	 push {r4,lr}
  33              	.LCFI0:
  34              	 .cfi_def_cfa_offset 8
  35              	 .cfi_offset 4,-8
  36              	 .cfi_offset 14,-4
  37              	 .loc 1 445 0
  38 0006 DCB2     	 uxtb r4,r3
  39 0008 092C     	 cmp r4,#9
  40 000a 00D9     	 bls .L2
 443://MAC/Home/Downloads/getstarted-optiga-trust-m/optiga-trust-m-1/externals/mbedtls/library/bignum.c ****     *d = 255;
  41              	 .loc 1 443 0
  42 000c FF23     	 mov r3,#255
  43              	.L2:
  44              	 .loc 1 445 0 discriminator 1
  45 000e 0360     	 str r3,[r0]
 446://MAC/Home/Downloads/getstarted-optiga-trust-m/optiga-trust-m-1/externals/mbedtls/library/bignum.c ****     if( c >= 0x41 && c <= 0x46 ) *d = c - 0x37;
  46              	 .loc 1 446 0 discriminator 1
  47 0010 131C     	 mov r3,r2
  48 0012 413B     	 sub r3,r3,#65
  49 0014 052B     	 cmp r3,#5
  50 0016 01D8     	 bhi .L4
  51 0018 0A33     	 add r3,r3,#10
  52 001a 0360     	 str r3,[r0]
  53              	.L4:
 447://MAC/Home/Downloads/getstarted-optiga-trust-m/optiga-trust-m-1/externals/mbedtls/library/bignum.c ****     if( c >= 0x61 && c <= 0x66 ) *d = c - 0x57;
  54              	 .loc 1 447 0
  55 001c 131C     	 mov r3,r2
  56 001e 613B     	 sub r3,r3,#97
  57 0020 052B     	 cmp r3,#5
  58 0022 01D8     	 bhi .L5
  59              	 .loc 1 447 0 is_stmt 0 discriminator 1
  60 0024 573A     	 sub r2,r2,#87
  61              	.LVL1:
  62 0026 0260     	 str r2,[r0]
  63              	.L5:
 448://MAC/Home/Downloads/getstarted-optiga-trust-m/optiga-trust-m-1/externals/mbedtls/library/bignum.c **** 
 449://MAC/Home/Downloads/getstarted-optiga-trust-m/optiga-trust-m-1/externals/mbedtls/library/bignum.c ****     if( *d >= (mbedtls_mpi_uint) radix )
  64              	 .loc 1 449 0 is_stmt 1
  65 0028 0368     	 ldr r3,[r0]
 450://MAC/Home/Downloads/getstarted-optiga-trust-m/optiga-trust-m-1/externals/mbedtls/library/bignum.c ****         return( MBEDTLS_ERR_MPI_INVALID_CHARACTER );
 451://MAC/Home/Downloads/getstarted-optiga-trust-m/optiga-trust-m-1/externals/mbedtls/library/bignum.c **** 
 452://MAC/Home/Downloads/getstarted-optiga-trust-m/optiga-trust-m-1/externals/mbedtls/library/bignum.c ****     return( 0 );
  66              	 .loc 1 452 0
  67 002a 0020     	 mov r0,#0
  68              	.LVL2:
 449://MAC/Home/Downloads/getstarted-optiga-trust-m/optiga-trust-m-1/externals/mbedtls/library/bignum.c ****         return( MBEDTLS_ERR_MPI_INVALID_CHARACTER );
  69              	 .loc 1 449 0
  70 002c 8B42     	 cmp r3,r1
  71 002e 01D3     	 bcc .L6
 450://MAC/Home/Downloads/getstarted-optiga-trust-m/optiga-trust-m-1/externals/mbedtls/library/bignum.c ****         return( MBEDTLS_ERR_MPI_INVALID_CHARACTER );
  72              	 .loc 1 450 0
  73 0030 0620     	 mov r0,#6
  74 0032 4042     	 neg r0,r0
  75              	.L6:
 453://MAC/Home/Downloads/getstarted-optiga-trust-m/optiga-trust-m-1/externals/mbedtls/library/bignum.c **** }
  76              	 .loc 1 453 0
  77              	 
  78 0034 10BD     	 pop {r4,pc}
  79              	 .cfi_endproc
  80              	.LFE16:
  82              	 .section .text.mpi_sub_hlp,"ax",%progbits
  83              	 .align 1
  84              	 .code 16
  85              	 .thumb_func
  87              	mpi_sub_hlp:
  88              	.LFB28:
 454://MAC/Home/Downloads/getstarted-optiga-trust-m/optiga-trust-m-1/externals/mbedtls/library/bignum.c **** 
 455://MAC/Home/Downloads/getstarted-optiga-trust-m/optiga-trust-m-1/externals/mbedtls/library/bignum.c **** /*
 456://MAC/Home/Downloads/getstarted-optiga-trust-m/optiga-trust-m-1/externals/mbedtls/library/bignum.c ****  * Import from an ASCII string
 457://MAC/Home/Downloads/getstarted-optiga-trust-m/optiga-trust-m-1/externals/mbedtls/library/bignum.c ****  */
 458://MAC/Home/Downloads/getstarted-optiga-trust-m/optiga-trust-m-1/externals/mbedtls/library/bignum.c **** int mbedtls_mpi_read_string( mbedtls_mpi *X, int radix, const char *s )
 459://MAC/Home/Downloads/getstarted-optiga-trust-m/optiga-trust-m-1/externals/mbedtls/library/bignum.c **** {
 460://MAC/Home/Downloads/getstarted-optiga-trust-m/optiga-trust-m-1/externals/mbedtls/library/bignum.c ****     int ret;
 461://MAC/Home/Downloads/getstarted-optiga-trust-m/optiga-trust-m-1/externals/mbedtls/library/bignum.c ****     size_t i, j, slen, n;
 462://MAC/Home/Downloads/getstarted-optiga-trust-m/optiga-trust-m-1/externals/mbedtls/library/bignum.c ****     mbedtls_mpi_uint d;
 463://MAC/Home/Downloads/getstarted-optiga-trust-m/optiga-trust-m-1/externals/mbedtls/library/bignum.c ****     mbedtls_mpi T;
 464://MAC/Home/Downloads/getstarted-optiga-trust-m/optiga-trust-m-1/externals/mbedtls/library/bignum.c ****     MPI_VALIDATE_RET( X != NULL );
 465://MAC/Home/Downloads/getstarted-optiga-trust-m/optiga-trust-m-1/externals/mbedtls/library/bignum.c ****     MPI_VALIDATE_RET( s != NULL );
 466://MAC/Home/Downloads/getstarted-optiga-trust-m/optiga-trust-m-1/externals/mbedtls/library/bignum.c **** 
 467://MAC/Home/Downloads/getstarted-optiga-trust-m/optiga-trust-m-1/externals/mbedtls/library/bignum.c ****     if( radix < 2 || radix > 16 )
 468://MAC/Home/Downloads/getstarted-optiga-trust-m/optiga-trust-m-1/externals/mbedtls/library/bignum.c ****         return( MBEDTLS_ERR_MPI_BAD_INPUT_DATA );
 469://MAC/Home/Downloads/getstarted-optiga-trust-m/optiga-trust-m-1/externals/mbedtls/library/bignum.c **** 
 470://MAC/Home/Downloads/getstarted-optiga-trust-m/optiga-trust-m-1/externals/mbedtls/library/bignum.c ****     mbedtls_mpi_init( &T );
 471://MAC/Home/Downloads/getstarted-optiga-trust-m/optiga-trust-m-1/externals/mbedtls/library/bignum.c **** 
 472://MAC/Home/Downloads/getstarted-optiga-trust-m/optiga-trust-m-1/externals/mbedtls/library/bignum.c ****     slen = strlen( s );
 473://MAC/Home/Downloads/getstarted-optiga-trust-m/optiga-trust-m-1/externals/mbedtls/library/bignum.c **** 
 474://MAC/Home/Downloads/getstarted-optiga-trust-m/optiga-trust-m-1/externals/mbedtls/library/bignum.c ****     if( radix == 16 )
 475://MAC/Home/Downloads/getstarted-optiga-trust-m/optiga-trust-m-1/externals/mbedtls/library/bignum.c ****     {
 476://MAC/Home/Downloads/getstarted-optiga-trust-m/optiga-trust-m-1/externals/mbedtls/library/bignum.c ****         if( slen > MPI_SIZE_T_MAX >> 2 )
 477://MAC/Home/Downloads/getstarted-optiga-trust-m/optiga-trust-m-1/externals/mbedtls/library/bignum.c ****             return( MBEDTLS_ERR_MPI_BAD_INPUT_DATA );
 478://MAC/Home/Downloads/getstarted-optiga-trust-m/optiga-trust-m-1/externals/mbedtls/library/bignum.c **** 
 479://MAC/Home/Downloads/getstarted-optiga-trust-m/optiga-trust-m-1/externals/mbedtls/library/bignum.c ****         n = BITS_TO_LIMBS( slen << 2 );
 480://MAC/Home/Downloads/getstarted-optiga-trust-m/optiga-trust-m-1/externals/mbedtls/library/bignum.c **** 
 481://MAC/Home/Downloads/getstarted-optiga-trust-m/optiga-trust-m-1/externals/mbedtls/library/bignum.c ****         MBEDTLS_MPI_CHK( mbedtls_mpi_grow( X, n ) );
 482://MAC/Home/Downloads/getstarted-optiga-trust-m/optiga-trust-m-1/externals/mbedtls/library/bignum.c ****         MBEDTLS_MPI_CHK( mbedtls_mpi_lset( X, 0 ) );
 483://MAC/Home/Downloads/getstarted-optiga-trust-m/optiga-trust-m-1/externals/mbedtls/library/bignum.c **** 
 484://MAC/Home/Downloads/getstarted-optiga-trust-m/optiga-trust-m-1/externals/mbedtls/library/bignum.c ****         for( i = slen, j = 0; i > 0; i--, j++ )
 485://MAC/Home/Downloads/getstarted-optiga-trust-m/optiga-trust-m-1/externals/mbedtls/library/bignum.c ****         {
 486://MAC/Home/Downloads/getstarted-optiga-trust-m/optiga-trust-m-1/externals/mbedtls/library/bignum.c ****             if( i == 1 && s[i - 1] == '-' )
 487://MAC/Home/Downloads/getstarted-optiga-trust-m/optiga-trust-m-1/externals/mbedtls/library/bignum.c ****             {
 488://MAC/Home/Downloads/getstarted-optiga-trust-m/optiga-trust-m-1/externals/mbedtls/library/bignum.c ****                 X->s = -1;
 489://MAC/Home/Downloads/getstarted-optiga-trust-m/optiga-trust-m-1/externals/mbedtls/library/bignum.c ****                 break;
 490://MAC/Home/Downloads/getstarted-optiga-trust-m/optiga-trust-m-1/externals/mbedtls/library/bignum.c ****             }
 491://MAC/Home/Downloads/getstarted-optiga-trust-m/optiga-trust-m-1/externals/mbedtls/library/bignum.c **** 
 492://MAC/Home/Downloads/getstarted-optiga-trust-m/optiga-trust-m-1/externals/mbedtls/library/bignum.c ****             MBEDTLS_MPI_CHK( mpi_get_digit( &d, radix, s[i - 1] ) );
 493://MAC/Home/Downloads/getstarted-optiga-trust-m/optiga-trust-m-1/externals/mbedtls/library/bignum.c ****             X->p[j / ( 2 * ciL )] |= d << ( ( j % ( 2 * ciL ) ) << 2 );
 494://MAC/Home/Downloads/getstarted-optiga-trust-m/optiga-trust-m-1/externals/mbedtls/library/bignum.c ****         }
 495://MAC/Home/Downloads/getstarted-optiga-trust-m/optiga-trust-m-1/externals/mbedtls/library/bignum.c ****     }
 496://MAC/Home/Downloads/getstarted-optiga-trust-m/optiga-trust-m-1/externals/mbedtls/library/bignum.c ****     else
 497://MAC/Home/Downloads/getstarted-optiga-trust-m/optiga-trust-m-1/externals/mbedtls/library/bignum.c ****     {
 498://MAC/Home/Downloads/getstarted-optiga-trust-m/optiga-trust-m-1/externals/mbedtls/library/bignum.c ****         MBEDTLS_MPI_CHK( mbedtls_mpi_lset( X, 0 ) );
 499://MAC/Home/Downloads/getstarted-optiga-trust-m/optiga-trust-m-1/externals/mbedtls/library/bignum.c **** 
 500://MAC/Home/Downloads/getstarted-optiga-trust-m/optiga-trust-m-1/externals/mbedtls/library/bignum.c ****         for( i = 0; i < slen; i++ )
 501://MAC/Home/Downloads/getstarted-optiga-trust-m/optiga-trust-m-1/externals/mbedtls/library/bignum.c ****         {
 502://MAC/Home/Downloads/getstarted-optiga-trust-m/optiga-trust-m-1/externals/mbedtls/library/bignum.c ****             if( i == 0 && s[i] == '-' )
 503://MAC/Home/Downloads/getstarted-optiga-trust-m/optiga-trust-m-1/externals/mbedtls/library/bignum.c ****             {
 504://MAC/Home/Downloads/getstarted-optiga-trust-m/optiga-trust-m-1/externals/mbedtls/library/bignum.c ****                 X->s = -1;
 505://MAC/Home/Downloads/getstarted-optiga-trust-m/optiga-trust-m-1/externals/mbedtls/library/bignum.c ****                 continue;
 506://MAC/Home/Downloads/getstarted-optiga-trust-m/optiga-trust-m-1/externals/mbedtls/library/bignum.c ****             }
 507://MAC/Home/Downloads/getstarted-optiga-trust-m/optiga-trust-m-1/externals/mbedtls/library/bignum.c **** 
 508://MAC/Home/Downloads/getstarted-optiga-trust-m/optiga-trust-m-1/externals/mbedtls/library/bignum.c ****             MBEDTLS_MPI_CHK( mpi_get_digit( &d, radix, s[i] ) );
 509://MAC/Home/Downloads/getstarted-optiga-trust-m/optiga-trust-m-1/externals/mbedtls/library/bignum.c ****             MBEDTLS_MPI_CHK( mbedtls_mpi_mul_int( &T, X, radix ) );
 510://MAC/Home/Downloads/getstarted-optiga-trust-m/optiga-trust-m-1/externals/mbedtls/library/bignum.c **** 
 511://MAC/Home/Downloads/getstarted-optiga-trust-m/optiga-trust-m-1/externals/mbedtls/library/bignum.c ****             if( X->s == 1 )
 512://MAC/Home/Downloads/getstarted-optiga-trust-m/optiga-trust-m-1/externals/mbedtls/library/bignum.c ****             {
 513://MAC/Home/Downloads/getstarted-optiga-trust-m/optiga-trust-m-1/externals/mbedtls/library/bignum.c ****                 MBEDTLS_MPI_CHK( mbedtls_mpi_add_int( X, &T, d ) );
 514://MAC/Home/Downloads/getstarted-optiga-trust-m/optiga-trust-m-1/externals/mbedtls/library/bignum.c ****             }
 515://MAC/Home/Downloads/getstarted-optiga-trust-m/optiga-trust-m-1/externals/mbedtls/library/bignum.c ****             else
 516://MAC/Home/Downloads/getstarted-optiga-trust-m/optiga-trust-m-1/externals/mbedtls/library/bignum.c ****             {
 517://MAC/Home/Downloads/getstarted-optiga-trust-m/optiga-trust-m-1/externals/mbedtls/library/bignum.c ****                 MBEDTLS_MPI_CHK( mbedtls_mpi_sub_int( X, &T, d ) );
 518://MAC/Home/Downloads/getstarted-optiga-trust-m/optiga-trust-m-1/externals/mbedtls/library/bignum.c ****             }
 519://MAC/Home/Downloads/getstarted-optiga-trust-m/optiga-trust-m-1/externals/mbedtls/library/bignum.c ****         }
 520://MAC/Home/Downloads/getstarted-optiga-trust-m/optiga-trust-m-1/externals/mbedtls/library/bignum.c ****     }
 521://MAC/Home/Downloads/getstarted-optiga-trust-m/optiga-trust-m-1/externals/mbedtls/library/bignum.c **** 
 522://MAC/Home/Downloads/getstarted-optiga-trust-m/optiga-trust-m-1/externals/mbedtls/library/bignum.c **** cleanup:
 523://MAC/Home/Downloads/getstarted-optiga-trust-m/optiga-trust-m-1/externals/mbedtls/library/bignum.c **** 
 524://MAC/Home/Downloads/getstarted-optiga-trust-m/optiga-trust-m-1/externals/mbedtls/library/bignum.c ****     mbedtls_mpi_free( &T );
 525://MAC/Home/Downloads/getstarted-optiga-trust-m/optiga-trust-m-1/externals/mbedtls/library/bignum.c **** 
 526://MAC/Home/Downloads/getstarted-optiga-trust-m/optiga-trust-m-1/externals/mbedtls/library/bignum.c ****     return( ret );
 527://MAC/Home/Downloads/getstarted-optiga-trust-m/optiga-trust-m-1/externals/mbedtls/library/bignum.c **** }
 528://MAC/Home/Downloads/getstarted-optiga-trust-m/optiga-trust-m-1/externals/mbedtls/library/bignum.c **** 
 529://MAC/Home/Downloads/getstarted-optiga-trust-m/optiga-trust-m-1/externals/mbedtls/library/bignum.c **** /*
 530://MAC/Home/Downloads/getstarted-optiga-trust-m/optiga-trust-m-1/externals/mbedtls/library/bignum.c ****  * Helper to write the digits high-order first
 531://MAC/Home/Downloads/getstarted-optiga-trust-m/optiga-trust-m-1/externals/mbedtls/library/bignum.c ****  */
 532://MAC/Home/Downloads/getstarted-optiga-trust-m/optiga-trust-m-1/externals/mbedtls/library/bignum.c **** static int mpi_write_hlp( mbedtls_mpi *X, int radix, char **p )
 533://MAC/Home/Downloads/getstarted-optiga-trust-m/optiga-trust-m-1/externals/mbedtls/library/bignum.c **** {
 534://MAC/Home/Downloads/getstarted-optiga-trust-m/optiga-trust-m-1/externals/mbedtls/library/bignum.c ****     int ret;
 535://MAC/Home/Downloads/getstarted-optiga-trust-m/optiga-trust-m-1/externals/mbedtls/library/bignum.c ****     mbedtls_mpi_uint r;
 536://MAC/Home/Downloads/getstarted-optiga-trust-m/optiga-trust-m-1/externals/mbedtls/library/bignum.c **** 
 537://MAC/Home/Downloads/getstarted-optiga-trust-m/optiga-trust-m-1/externals/mbedtls/library/bignum.c ****     if( radix < 2 || radix > 16 )
 538://MAC/Home/Downloads/getstarted-optiga-trust-m/optiga-trust-m-1/externals/mbedtls/library/bignum.c ****         return( MBEDTLS_ERR_MPI_BAD_INPUT_DATA );
 539://MAC/Home/Downloads/getstarted-optiga-trust-m/optiga-trust-m-1/externals/mbedtls/library/bignum.c **** 
 540://MAC/Home/Downloads/getstarted-optiga-trust-m/optiga-trust-m-1/externals/mbedtls/library/bignum.c ****     MBEDTLS_MPI_CHK( mbedtls_mpi_mod_int( &r, X, radix ) );
 541://MAC/Home/Downloads/getstarted-optiga-trust-m/optiga-trust-m-1/externals/mbedtls/library/bignum.c ****     MBEDTLS_MPI_CHK( mbedtls_mpi_div_int( X, NULL, X, radix ) );
 542://MAC/Home/Downloads/getstarted-optiga-trust-m/optiga-trust-m-1/externals/mbedtls/library/bignum.c **** 
 543://MAC/Home/Downloads/getstarted-optiga-trust-m/optiga-trust-m-1/externals/mbedtls/library/bignum.c ****     if( mbedtls_mpi_cmp_int( X, 0 ) != 0 )
 544://MAC/Home/Downloads/getstarted-optiga-trust-m/optiga-trust-m-1/externals/mbedtls/library/bignum.c ****         MBEDTLS_MPI_CHK( mpi_write_hlp( X, radix, p ) );
 545://MAC/Home/Downloads/getstarted-optiga-trust-m/optiga-trust-m-1/externals/mbedtls/library/bignum.c **** 
 546://MAC/Home/Downloads/getstarted-optiga-trust-m/optiga-trust-m-1/externals/mbedtls/library/bignum.c ****     if( r < 10 )
 547://MAC/Home/Downloads/getstarted-optiga-trust-m/optiga-trust-m-1/externals/mbedtls/library/bignum.c ****         *(*p)++ = (char)( r + 0x30 );
 548://MAC/Home/Downloads/getstarted-optiga-trust-m/optiga-trust-m-1/externals/mbedtls/library/bignum.c ****     else
 549://MAC/Home/Downloads/getstarted-optiga-trust-m/optiga-trust-m-1/externals/mbedtls/library/bignum.c ****         *(*p)++ = (char)( r + 0x37 );
 550://MAC/Home/Downloads/getstarted-optiga-trust-m/optiga-trust-m-1/externals/mbedtls/library/bignum.c **** 
 551://MAC/Home/Downloads/getstarted-optiga-trust-m/optiga-trust-m-1/externals/mbedtls/library/bignum.c **** cleanup:
 552://MAC/Home/Downloads/getstarted-optiga-trust-m/optiga-trust-m-1/externals/mbedtls/library/bignum.c **** 
 553://MAC/Home/Downloads/getstarted-optiga-trust-m/optiga-trust-m-1/externals/mbedtls/library/bignum.c ****     return( ret );
 554://MAC/Home/Downloads/getstarted-optiga-trust-m/optiga-trust-m-1/externals/mbedtls/library/bignum.c **** }
 555://MAC/Home/Downloads/getstarted-optiga-trust-m/optiga-trust-m-1/externals/mbedtls/library/bignum.c **** 
 556://MAC/Home/Downloads/getstarted-optiga-trust-m/optiga-trust-m-1/externals/mbedtls/library/bignum.c **** /*
 557://MAC/Home/Downloads/getstarted-optiga-trust-m/optiga-trust-m-1/externals/mbedtls/library/bignum.c ****  * Export into an ASCII string
 558://MAC/Home/Downloads/getstarted-optiga-trust-m/optiga-trust-m-1/externals/mbedtls/library/bignum.c ****  */
 559://MAC/Home/Downloads/getstarted-optiga-trust-m/optiga-trust-m-1/externals/mbedtls/library/bignum.c **** int mbedtls_mpi_write_string( const mbedtls_mpi *X, int radix,
 560://MAC/Home/Downloads/getstarted-optiga-trust-m/optiga-trust-m-1/externals/mbedtls/library/bignum.c ****                               char *buf, size_t buflen, size_t *olen )
 561://MAC/Home/Downloads/getstarted-optiga-trust-m/optiga-trust-m-1/externals/mbedtls/library/bignum.c **** {
 562://MAC/Home/Downloads/getstarted-optiga-trust-m/optiga-trust-m-1/externals/mbedtls/library/bignum.c ****     int ret = 0;
 563://MAC/Home/Downloads/getstarted-optiga-trust-m/optiga-trust-m-1/externals/mbedtls/library/bignum.c ****     size_t n;
 564://MAC/Home/Downloads/getstarted-optiga-trust-m/optiga-trust-m-1/externals/mbedtls/library/bignum.c ****     char *p;
 565://MAC/Home/Downloads/getstarted-optiga-trust-m/optiga-trust-m-1/externals/mbedtls/library/bignum.c ****     mbedtls_mpi T;
 566://MAC/Home/Downloads/getstarted-optiga-trust-m/optiga-trust-m-1/externals/mbedtls/library/bignum.c ****     MPI_VALIDATE_RET( X    != NULL );
 567://MAC/Home/Downloads/getstarted-optiga-trust-m/optiga-trust-m-1/externals/mbedtls/library/bignum.c ****     MPI_VALIDATE_RET( olen != NULL );
 568://MAC/Home/Downloads/getstarted-optiga-trust-m/optiga-trust-m-1/externals/mbedtls/library/bignum.c ****     MPI_VALIDATE_RET( buflen == 0 || buf != NULL );
 569://MAC/Home/Downloads/getstarted-optiga-trust-m/optiga-trust-m-1/externals/mbedtls/library/bignum.c **** 
 570://MAC/Home/Downloads/getstarted-optiga-trust-m/optiga-trust-m-1/externals/mbedtls/library/bignum.c ****     if( radix < 2 || radix > 16 )
 571://MAC/Home/Downloads/getstarted-optiga-trust-m/optiga-trust-m-1/externals/mbedtls/library/bignum.c ****         return( MBEDTLS_ERR_MPI_BAD_INPUT_DATA );
 572://MAC/Home/Downloads/getstarted-optiga-trust-m/optiga-trust-m-1/externals/mbedtls/library/bignum.c **** 
 573://MAC/Home/Downloads/getstarted-optiga-trust-m/optiga-trust-m-1/externals/mbedtls/library/bignum.c ****     n = mbedtls_mpi_bitlen( X );
 574://MAC/Home/Downloads/getstarted-optiga-trust-m/optiga-trust-m-1/externals/mbedtls/library/bignum.c ****     if( radix >=  4 ) n >>= 1;
 575://MAC/Home/Downloads/getstarted-optiga-trust-m/optiga-trust-m-1/externals/mbedtls/library/bignum.c ****     if( radix >= 16 ) n >>= 1;
 576://MAC/Home/Downloads/getstarted-optiga-trust-m/optiga-trust-m-1/externals/mbedtls/library/bignum.c ****     /*
 577://MAC/Home/Downloads/getstarted-optiga-trust-m/optiga-trust-m-1/externals/mbedtls/library/bignum.c ****      * Round up the buffer length to an even value to ensure that there is
 578://MAC/Home/Downloads/getstarted-optiga-trust-m/optiga-trust-m-1/externals/mbedtls/library/bignum.c ****      * enough room for hexadecimal values that can be represented in an odd
 579://MAC/Home/Downloads/getstarted-optiga-trust-m/optiga-trust-m-1/externals/mbedtls/library/bignum.c ****      * number of digits.
 580://MAC/Home/Downloads/getstarted-optiga-trust-m/optiga-trust-m-1/externals/mbedtls/library/bignum.c ****      */
 581://MAC/Home/Downloads/getstarted-optiga-trust-m/optiga-trust-m-1/externals/mbedtls/library/bignum.c ****     n += 3 + ( ( n + 1 ) & 1 );
 582://MAC/Home/Downloads/getstarted-optiga-trust-m/optiga-trust-m-1/externals/mbedtls/library/bignum.c **** 
 583://MAC/Home/Downloads/getstarted-optiga-trust-m/optiga-trust-m-1/externals/mbedtls/library/bignum.c ****     if( buflen < n )
 584://MAC/Home/Downloads/getstarted-optiga-trust-m/optiga-trust-m-1/externals/mbedtls/library/bignum.c ****     {
 585://MAC/Home/Downloads/getstarted-optiga-trust-m/optiga-trust-m-1/externals/mbedtls/library/bignum.c ****         *olen = n;
 586://MAC/Home/Downloads/getstarted-optiga-trust-m/optiga-trust-m-1/externals/mbedtls/library/bignum.c ****         return( MBEDTLS_ERR_MPI_BUFFER_TOO_SMALL );
 587://MAC/Home/Downloads/getstarted-optiga-trust-m/optiga-trust-m-1/externals/mbedtls/library/bignum.c ****     }
 588://MAC/Home/Downloads/getstarted-optiga-trust-m/optiga-trust-m-1/externals/mbedtls/library/bignum.c **** 
 589://MAC/Home/Downloads/getstarted-optiga-trust-m/optiga-trust-m-1/externals/mbedtls/library/bignum.c ****     p = buf;
 590://MAC/Home/Downloads/getstarted-optiga-trust-m/optiga-trust-m-1/externals/mbedtls/library/bignum.c ****     mbedtls_mpi_init( &T );
 591://MAC/Home/Downloads/getstarted-optiga-trust-m/optiga-trust-m-1/externals/mbedtls/library/bignum.c **** 
 592://MAC/Home/Downloads/getstarted-optiga-trust-m/optiga-trust-m-1/externals/mbedtls/library/bignum.c ****     if( X->s == -1 )
 593://MAC/Home/Downloads/getstarted-optiga-trust-m/optiga-trust-m-1/externals/mbedtls/library/bignum.c ****         *p++ = '-';
 594://MAC/Home/Downloads/getstarted-optiga-trust-m/optiga-trust-m-1/externals/mbedtls/library/bignum.c **** 
 595://MAC/Home/Downloads/getstarted-optiga-trust-m/optiga-trust-m-1/externals/mbedtls/library/bignum.c ****     if( radix == 16 )
 596://MAC/Home/Downloads/getstarted-optiga-trust-m/optiga-trust-m-1/externals/mbedtls/library/bignum.c ****     {
 597://MAC/Home/Downloads/getstarted-optiga-trust-m/optiga-trust-m-1/externals/mbedtls/library/bignum.c ****         int c;
 598://MAC/Home/Downloads/getstarted-optiga-trust-m/optiga-trust-m-1/externals/mbedtls/library/bignum.c ****         size_t i, j, k;
 599://MAC/Home/Downloads/getstarted-optiga-trust-m/optiga-trust-m-1/externals/mbedtls/library/bignum.c **** 
 600://MAC/Home/Downloads/getstarted-optiga-trust-m/optiga-trust-m-1/externals/mbedtls/library/bignum.c ****         for( i = X->n, k = 0; i > 0; i-- )
 601://MAC/Home/Downloads/getstarted-optiga-trust-m/optiga-trust-m-1/externals/mbedtls/library/bignum.c ****         {
 602://MAC/Home/Downloads/getstarted-optiga-trust-m/optiga-trust-m-1/externals/mbedtls/library/bignum.c ****             for( j = ciL; j > 0; j-- )
 603://MAC/Home/Downloads/getstarted-optiga-trust-m/optiga-trust-m-1/externals/mbedtls/library/bignum.c ****             {
 604://MAC/Home/Downloads/getstarted-optiga-trust-m/optiga-trust-m-1/externals/mbedtls/library/bignum.c ****                 c = ( X->p[i - 1] >> ( ( j - 1 ) << 3) ) & 0xFF;
 605://MAC/Home/Downloads/getstarted-optiga-trust-m/optiga-trust-m-1/externals/mbedtls/library/bignum.c **** 
 606://MAC/Home/Downloads/getstarted-optiga-trust-m/optiga-trust-m-1/externals/mbedtls/library/bignum.c ****                 if( c == 0 && k == 0 && ( i + j ) != 2 )
 607://MAC/Home/Downloads/getstarted-optiga-trust-m/optiga-trust-m-1/externals/mbedtls/library/bignum.c ****                     continue;
 608://MAC/Home/Downloads/getstarted-optiga-trust-m/optiga-trust-m-1/externals/mbedtls/library/bignum.c **** 
 609://MAC/Home/Downloads/getstarted-optiga-trust-m/optiga-trust-m-1/externals/mbedtls/library/bignum.c ****                 *(p++) = "0123456789ABCDEF" [c / 16];
 610://MAC/Home/Downloads/getstarted-optiga-trust-m/optiga-trust-m-1/externals/mbedtls/library/bignum.c ****                 *(p++) = "0123456789ABCDEF" [c % 16];
 611://MAC/Home/Downloads/getstarted-optiga-trust-m/optiga-trust-m-1/externals/mbedtls/library/bignum.c ****                 k = 1;
 612://MAC/Home/Downloads/getstarted-optiga-trust-m/optiga-trust-m-1/externals/mbedtls/library/bignum.c ****             }
 613://MAC/Home/Downloads/getstarted-optiga-trust-m/optiga-trust-m-1/externals/mbedtls/library/bignum.c ****         }
 614://MAC/Home/Downloads/getstarted-optiga-trust-m/optiga-trust-m-1/externals/mbedtls/library/bignum.c ****     }
 615://MAC/Home/Downloads/getstarted-optiga-trust-m/optiga-trust-m-1/externals/mbedtls/library/bignum.c ****     else
 616://MAC/Home/Downloads/getstarted-optiga-trust-m/optiga-trust-m-1/externals/mbedtls/library/bignum.c ****     {
 617://MAC/Home/Downloads/getstarted-optiga-trust-m/optiga-trust-m-1/externals/mbedtls/library/bignum.c ****         MBEDTLS_MPI_CHK( mbedtls_mpi_copy( &T, X ) );
 618://MAC/Home/Downloads/getstarted-optiga-trust-m/optiga-trust-m-1/externals/mbedtls/library/bignum.c **** 
 619://MAC/Home/Downloads/getstarted-optiga-trust-m/optiga-trust-m-1/externals/mbedtls/library/bignum.c ****         if( T.s == -1 )
 620://MAC/Home/Downloads/getstarted-optiga-trust-m/optiga-trust-m-1/externals/mbedtls/library/bignum.c ****             T.s = 1;
 621://MAC/Home/Downloads/getstarted-optiga-trust-m/optiga-trust-m-1/externals/mbedtls/library/bignum.c **** 
 622://MAC/Home/Downloads/getstarted-optiga-trust-m/optiga-trust-m-1/externals/mbedtls/library/bignum.c ****         MBEDTLS_MPI_CHK( mpi_write_hlp( &T, radix, &p ) );
 623://MAC/Home/Downloads/getstarted-optiga-trust-m/optiga-trust-m-1/externals/mbedtls/library/bignum.c ****     }
 624://MAC/Home/Downloads/getstarted-optiga-trust-m/optiga-trust-m-1/externals/mbedtls/library/bignum.c **** 
 625://MAC/Home/Downloads/getstarted-optiga-trust-m/optiga-trust-m-1/externals/mbedtls/library/bignum.c ****     *p++ = '\0';
 626://MAC/Home/Downloads/getstarted-optiga-trust-m/optiga-trust-m-1/externals/mbedtls/library/bignum.c ****     *olen = p - buf;
 627://MAC/Home/Downloads/getstarted-optiga-trust-m/optiga-trust-m-1/externals/mbedtls/library/bignum.c **** 
 628://MAC/Home/Downloads/getstarted-optiga-trust-m/optiga-trust-m-1/externals/mbedtls/library/bignum.c **** cleanup:
 629://MAC/Home/Downloads/getstarted-optiga-trust-m/optiga-trust-m-1/externals/mbedtls/library/bignum.c **** 
 630://MAC/Home/Downloads/getstarted-optiga-trust-m/optiga-trust-m-1/externals/mbedtls/library/bignum.c ****     mbedtls_mpi_free( &T );
 631://MAC/Home/Downloads/getstarted-optiga-trust-m/optiga-trust-m-1/externals/mbedtls/library/bignum.c **** 
 632://MAC/Home/Downloads/getstarted-optiga-trust-m/optiga-trust-m-1/externals/mbedtls/library/bignum.c ****     return( ret );
 633://MAC/Home/Downloads/getstarted-optiga-trust-m/optiga-trust-m-1/externals/mbedtls/library/bignum.c **** }
 634://MAC/Home/Downloads/getstarted-optiga-trust-m/optiga-trust-m-1/externals/mbedtls/library/bignum.c **** 
 635://MAC/Home/Downloads/getstarted-optiga-trust-m/optiga-trust-m-1/externals/mbedtls/library/bignum.c **** #if defined(MBEDTLS_FS_IO)
 636://MAC/Home/Downloads/getstarted-optiga-trust-m/optiga-trust-m-1/externals/mbedtls/library/bignum.c **** /*
 637://MAC/Home/Downloads/getstarted-optiga-trust-m/optiga-trust-m-1/externals/mbedtls/library/bignum.c ****  * Read X from an opened file
 638://MAC/Home/Downloads/getstarted-optiga-trust-m/optiga-trust-m-1/externals/mbedtls/library/bignum.c ****  */
 639://MAC/Home/Downloads/getstarted-optiga-trust-m/optiga-trust-m-1/externals/mbedtls/library/bignum.c **** int mbedtls_mpi_read_file( mbedtls_mpi *X, int radix, FILE *fin )
 640://MAC/Home/Downloads/getstarted-optiga-trust-m/optiga-trust-m-1/externals/mbedtls/library/bignum.c **** {
 641://MAC/Home/Downloads/getstarted-optiga-trust-m/optiga-trust-m-1/externals/mbedtls/library/bignum.c ****     mbedtls_mpi_uint d;
 642://MAC/Home/Downloads/getstarted-optiga-trust-m/optiga-trust-m-1/externals/mbedtls/library/bignum.c ****     size_t slen;
 643://MAC/Home/Downloads/getstarted-optiga-trust-m/optiga-trust-m-1/externals/mbedtls/library/bignum.c ****     char *p;
 644://MAC/Home/Downloads/getstarted-optiga-trust-m/optiga-trust-m-1/externals/mbedtls/library/bignum.c ****     /*
 645://MAC/Home/Downloads/getstarted-optiga-trust-m/optiga-trust-m-1/externals/mbedtls/library/bignum.c ****      * Buffer should have space for (short) label and decimal formatted MPI,
 646://MAC/Home/Downloads/getstarted-optiga-trust-m/optiga-trust-m-1/externals/mbedtls/library/bignum.c ****      * newline characters and '\0'
 647://MAC/Home/Downloads/getstarted-optiga-trust-m/optiga-trust-m-1/externals/mbedtls/library/bignum.c ****      */
 648://MAC/Home/Downloads/getstarted-optiga-trust-m/optiga-trust-m-1/externals/mbedtls/library/bignum.c ****     char s[ MBEDTLS_MPI_RW_BUFFER_SIZE ];
 649://MAC/Home/Downloads/getstarted-optiga-trust-m/optiga-trust-m-1/externals/mbedtls/library/bignum.c **** 
 650://MAC/Home/Downloads/getstarted-optiga-trust-m/optiga-trust-m-1/externals/mbedtls/library/bignum.c ****     MPI_VALIDATE_RET( X   != NULL );
 651://MAC/Home/Downloads/getstarted-optiga-trust-m/optiga-trust-m-1/externals/mbedtls/library/bignum.c ****     MPI_VALIDATE_RET( fin != NULL );
 652://MAC/Home/Downloads/getstarted-optiga-trust-m/optiga-trust-m-1/externals/mbedtls/library/bignum.c **** 
 653://MAC/Home/Downloads/getstarted-optiga-trust-m/optiga-trust-m-1/externals/mbedtls/library/bignum.c ****     if( radix < 2 || radix > 16 )
 654://MAC/Home/Downloads/getstarted-optiga-trust-m/optiga-trust-m-1/externals/mbedtls/library/bignum.c ****         return( MBEDTLS_ERR_MPI_BAD_INPUT_DATA );
 655://MAC/Home/Downloads/getstarted-optiga-trust-m/optiga-trust-m-1/externals/mbedtls/library/bignum.c **** 
 656://MAC/Home/Downloads/getstarted-optiga-trust-m/optiga-trust-m-1/externals/mbedtls/library/bignum.c ****     memset( s, 0, sizeof( s ) );
 657://MAC/Home/Downloads/getstarted-optiga-trust-m/optiga-trust-m-1/externals/mbedtls/library/bignum.c ****     if( fgets( s, sizeof( s ) - 1, fin ) == NULL )
 658://MAC/Home/Downloads/getstarted-optiga-trust-m/optiga-trust-m-1/externals/mbedtls/library/bignum.c ****         return( MBEDTLS_ERR_MPI_FILE_IO_ERROR );
 659://MAC/Home/Downloads/getstarted-optiga-trust-m/optiga-trust-m-1/externals/mbedtls/library/bignum.c **** 
 660://MAC/Home/Downloads/getstarted-optiga-trust-m/optiga-trust-m-1/externals/mbedtls/library/bignum.c ****     slen = strlen( s );
 661://MAC/Home/Downloads/getstarted-optiga-trust-m/optiga-trust-m-1/externals/mbedtls/library/bignum.c ****     if( slen == sizeof( s ) - 2 )
 662://MAC/Home/Downloads/getstarted-optiga-trust-m/optiga-trust-m-1/externals/mbedtls/library/bignum.c ****         return( MBEDTLS_ERR_MPI_BUFFER_TOO_SMALL );
 663://MAC/Home/Downloads/getstarted-optiga-trust-m/optiga-trust-m-1/externals/mbedtls/library/bignum.c **** 
 664://MAC/Home/Downloads/getstarted-optiga-trust-m/optiga-trust-m-1/externals/mbedtls/library/bignum.c ****     if( slen > 0 && s[slen - 1] == '\n' ) { slen--; s[slen] = '\0'; }
 665://MAC/Home/Downloads/getstarted-optiga-trust-m/optiga-trust-m-1/externals/mbedtls/library/bignum.c ****     if( slen > 0 && s[slen - 1] == '\r' ) { slen--; s[slen] = '\0'; }
 666://MAC/Home/Downloads/getstarted-optiga-trust-m/optiga-trust-m-1/externals/mbedtls/library/bignum.c **** 
 667://MAC/Home/Downloads/getstarted-optiga-trust-m/optiga-trust-m-1/externals/mbedtls/library/bignum.c ****     p = s + slen;
 668://MAC/Home/Downloads/getstarted-optiga-trust-m/optiga-trust-m-1/externals/mbedtls/library/bignum.c ****     while( p-- > s )
 669://MAC/Home/Downloads/getstarted-optiga-trust-m/optiga-trust-m-1/externals/mbedtls/library/bignum.c ****         if( mpi_get_digit( &d, radix, *p ) != 0 )
 670://MAC/Home/Downloads/getstarted-optiga-trust-m/optiga-trust-m-1/externals/mbedtls/library/bignum.c ****             break;
 671://MAC/Home/Downloads/getstarted-optiga-trust-m/optiga-trust-m-1/externals/mbedtls/library/bignum.c **** 
 672://MAC/Home/Downloads/getstarted-optiga-trust-m/optiga-trust-m-1/externals/mbedtls/library/bignum.c ****     return( mbedtls_mpi_read_string( X, radix, p + 1 ) );
 673://MAC/Home/Downloads/getstarted-optiga-trust-m/optiga-trust-m-1/externals/mbedtls/library/bignum.c **** }
 674://MAC/Home/Downloads/getstarted-optiga-trust-m/optiga-trust-m-1/externals/mbedtls/library/bignum.c **** 
 675://MAC/Home/Downloads/getstarted-optiga-trust-m/optiga-trust-m-1/externals/mbedtls/library/bignum.c **** /*
 676://MAC/Home/Downloads/getstarted-optiga-trust-m/optiga-trust-m-1/externals/mbedtls/library/bignum.c ****  * Write X into an opened file (or stdout if fout == NULL)
 677://MAC/Home/Downloads/getstarted-optiga-trust-m/optiga-trust-m-1/externals/mbedtls/library/bignum.c ****  */
 678://MAC/Home/Downloads/getstarted-optiga-trust-m/optiga-trust-m-1/externals/mbedtls/library/bignum.c **** int mbedtls_mpi_write_file( const char *p, const mbedtls_mpi *X, int radix, FILE *fout )
 679://MAC/Home/Downloads/getstarted-optiga-trust-m/optiga-trust-m-1/externals/mbedtls/library/bignum.c **** {
 680://MAC/Home/Downloads/getstarted-optiga-trust-m/optiga-trust-m-1/externals/mbedtls/library/bignum.c ****     int ret;
 681://MAC/Home/Downloads/getstarted-optiga-trust-m/optiga-trust-m-1/externals/mbedtls/library/bignum.c ****     size_t n, slen, plen;
 682://MAC/Home/Downloads/getstarted-optiga-trust-m/optiga-trust-m-1/externals/mbedtls/library/bignum.c ****     /*
 683://MAC/Home/Downloads/getstarted-optiga-trust-m/optiga-trust-m-1/externals/mbedtls/library/bignum.c ****      * Buffer should have space for (short) label and decimal formatted MPI,
 684://MAC/Home/Downloads/getstarted-optiga-trust-m/optiga-trust-m-1/externals/mbedtls/library/bignum.c ****      * newline characters and '\0'
 685://MAC/Home/Downloads/getstarted-optiga-trust-m/optiga-trust-m-1/externals/mbedtls/library/bignum.c ****      */
 686://MAC/Home/Downloads/getstarted-optiga-trust-m/optiga-trust-m-1/externals/mbedtls/library/bignum.c ****     char s[ MBEDTLS_MPI_RW_BUFFER_SIZE ];
 687://MAC/Home/Downloads/getstarted-optiga-trust-m/optiga-trust-m-1/externals/mbedtls/library/bignum.c ****     MPI_VALIDATE_RET( X != NULL );
 688://MAC/Home/Downloads/getstarted-optiga-trust-m/optiga-trust-m-1/externals/mbedtls/library/bignum.c **** 
 689://MAC/Home/Downloads/getstarted-optiga-trust-m/optiga-trust-m-1/externals/mbedtls/library/bignum.c ****     if( radix < 2 || radix > 16 )
 690://MAC/Home/Downloads/getstarted-optiga-trust-m/optiga-trust-m-1/externals/mbedtls/library/bignum.c ****         return( MBEDTLS_ERR_MPI_BAD_INPUT_DATA );
 691://MAC/Home/Downloads/getstarted-optiga-trust-m/optiga-trust-m-1/externals/mbedtls/library/bignum.c **** 
 692://MAC/Home/Downloads/getstarted-optiga-trust-m/optiga-trust-m-1/externals/mbedtls/library/bignum.c ****     memset( s, 0, sizeof( s ) );
 693://MAC/Home/Downloads/getstarted-optiga-trust-m/optiga-trust-m-1/externals/mbedtls/library/bignum.c **** 
 694://MAC/Home/Downloads/getstarted-optiga-trust-m/optiga-trust-m-1/externals/mbedtls/library/bignum.c ****     MBEDTLS_MPI_CHK( mbedtls_mpi_write_string( X, radix, s, sizeof( s ) - 2, &n ) );
 695://MAC/Home/Downloads/getstarted-optiga-trust-m/optiga-trust-m-1/externals/mbedtls/library/bignum.c **** 
 696://MAC/Home/Downloads/getstarted-optiga-trust-m/optiga-trust-m-1/externals/mbedtls/library/bignum.c ****     if( p == NULL ) p = "";
 697://MAC/Home/Downloads/getstarted-optiga-trust-m/optiga-trust-m-1/externals/mbedtls/library/bignum.c **** 
 698://MAC/Home/Downloads/getstarted-optiga-trust-m/optiga-trust-m-1/externals/mbedtls/library/bignum.c ****     plen = strlen( p );
 699://MAC/Home/Downloads/getstarted-optiga-trust-m/optiga-trust-m-1/externals/mbedtls/library/bignum.c ****     slen = strlen( s );
 700://MAC/Home/Downloads/getstarted-optiga-trust-m/optiga-trust-m-1/externals/mbedtls/library/bignum.c ****     s[slen++] = '\r';
 701://MAC/Home/Downloads/getstarted-optiga-trust-m/optiga-trust-m-1/externals/mbedtls/library/bignum.c ****     s[slen++] = '\n';
 702://MAC/Home/Downloads/getstarted-optiga-trust-m/optiga-trust-m-1/externals/mbedtls/library/bignum.c **** 
 703://MAC/Home/Downloads/getstarted-optiga-trust-m/optiga-trust-m-1/externals/mbedtls/library/bignum.c ****     if( fout != NULL )
 704://MAC/Home/Downloads/getstarted-optiga-trust-m/optiga-trust-m-1/externals/mbedtls/library/bignum.c ****     {
 705://MAC/Home/Downloads/getstarted-optiga-trust-m/optiga-trust-m-1/externals/mbedtls/library/bignum.c ****         if( fwrite( p, 1, plen, fout ) != plen ||
 706://MAC/Home/Downloads/getstarted-optiga-trust-m/optiga-trust-m-1/externals/mbedtls/library/bignum.c ****             fwrite( s, 1, slen, fout ) != slen )
 707://MAC/Home/Downloads/getstarted-optiga-trust-m/optiga-trust-m-1/externals/mbedtls/library/bignum.c ****             return( MBEDTLS_ERR_MPI_FILE_IO_ERROR );
 708://MAC/Home/Downloads/getstarted-optiga-trust-m/optiga-trust-m-1/externals/mbedtls/library/bignum.c ****     }
 709://MAC/Home/Downloads/getstarted-optiga-trust-m/optiga-trust-m-1/externals/mbedtls/library/bignum.c ****     else
 710://MAC/Home/Downloads/getstarted-optiga-trust-m/optiga-trust-m-1/externals/mbedtls/library/bignum.c ****         mbedtls_printf( "%s%s", p, s );
 711://MAC/Home/Downloads/getstarted-optiga-trust-m/optiga-trust-m-1/externals/mbedtls/library/bignum.c **** 
 712://MAC/Home/Downloads/getstarted-optiga-trust-m/optiga-trust-m-1/externals/mbedtls/library/bignum.c **** cleanup:
 713://MAC/Home/Downloads/getstarted-optiga-trust-m/optiga-trust-m-1/externals/mbedtls/library/bignum.c **** 
 714://MAC/Home/Downloads/getstarted-optiga-trust-m/optiga-trust-m-1/externals/mbedtls/library/bignum.c ****     return( ret );
 715://MAC/Home/Downloads/getstarted-optiga-trust-m/optiga-trust-m-1/externals/mbedtls/library/bignum.c **** }
 716://MAC/Home/Downloads/getstarted-optiga-trust-m/optiga-trust-m-1/externals/mbedtls/library/bignum.c **** #endif /* MBEDTLS_FS_IO */
 717://MAC/Home/Downloads/getstarted-optiga-trust-m/optiga-trust-m-1/externals/mbedtls/library/bignum.c **** 
 718://MAC/Home/Downloads/getstarted-optiga-trust-m/optiga-trust-m-1/externals/mbedtls/library/bignum.c **** /*
 719://MAC/Home/Downloads/getstarted-optiga-trust-m/optiga-trust-m-1/externals/mbedtls/library/bignum.c ****  * Import X from unsigned binary data, big endian
 720://MAC/Home/Downloads/getstarted-optiga-trust-m/optiga-trust-m-1/externals/mbedtls/library/bignum.c ****  */
 721://MAC/Home/Downloads/getstarted-optiga-trust-m/optiga-trust-m-1/externals/mbedtls/library/bignum.c **** int mbedtls_mpi_read_binary( mbedtls_mpi *X, const unsigned char *buf, size_t buflen )
 722://MAC/Home/Downloads/getstarted-optiga-trust-m/optiga-trust-m-1/externals/mbedtls/library/bignum.c **** {
 723://MAC/Home/Downloads/getstarted-optiga-trust-m/optiga-trust-m-1/externals/mbedtls/library/bignum.c ****     int ret;
 724://MAC/Home/Downloads/getstarted-optiga-trust-m/optiga-trust-m-1/externals/mbedtls/library/bignum.c ****     size_t i, j;
 725://MAC/Home/Downloads/getstarted-optiga-trust-m/optiga-trust-m-1/externals/mbedtls/library/bignum.c ****     size_t const limbs = CHARS_TO_LIMBS( buflen );
 726://MAC/Home/Downloads/getstarted-optiga-trust-m/optiga-trust-m-1/externals/mbedtls/library/bignum.c **** 
 727://MAC/Home/Downloads/getstarted-optiga-trust-m/optiga-trust-m-1/externals/mbedtls/library/bignum.c ****     MPI_VALIDATE_RET( X != NULL );
 728://MAC/Home/Downloads/getstarted-optiga-trust-m/optiga-trust-m-1/externals/mbedtls/library/bignum.c ****     MPI_VALIDATE_RET( buflen == 0 || buf != NULL );
 729://MAC/Home/Downloads/getstarted-optiga-trust-m/optiga-trust-m-1/externals/mbedtls/library/bignum.c **** 
 730://MAC/Home/Downloads/getstarted-optiga-trust-m/optiga-trust-m-1/externals/mbedtls/library/bignum.c ****     /* Ensure that target MPI has exactly the necessary number of limbs */
 731://MAC/Home/Downloads/getstarted-optiga-trust-m/optiga-trust-m-1/externals/mbedtls/library/bignum.c ****     if( X->n != limbs )
 732://MAC/Home/Downloads/getstarted-optiga-trust-m/optiga-trust-m-1/externals/mbedtls/library/bignum.c ****     {
 733://MAC/Home/Downloads/getstarted-optiga-trust-m/optiga-trust-m-1/externals/mbedtls/library/bignum.c ****         mbedtls_mpi_free( X );
 734://MAC/Home/Downloads/getstarted-optiga-trust-m/optiga-trust-m-1/externals/mbedtls/library/bignum.c ****         mbedtls_mpi_init( X );
 735://MAC/Home/Downloads/getstarted-optiga-trust-m/optiga-trust-m-1/externals/mbedtls/library/bignum.c ****         MBEDTLS_MPI_CHK( mbedtls_mpi_grow( X, limbs ) );
 736://MAC/Home/Downloads/getstarted-optiga-trust-m/optiga-trust-m-1/externals/mbedtls/library/bignum.c ****     }
 737://MAC/Home/Downloads/getstarted-optiga-trust-m/optiga-trust-m-1/externals/mbedtls/library/bignum.c **** 
 738://MAC/Home/Downloads/getstarted-optiga-trust-m/optiga-trust-m-1/externals/mbedtls/library/bignum.c ****     MBEDTLS_MPI_CHK( mbedtls_mpi_lset( X, 0 ) );
 739://MAC/Home/Downloads/getstarted-optiga-trust-m/optiga-trust-m-1/externals/mbedtls/library/bignum.c **** 
 740://MAC/Home/Downloads/getstarted-optiga-trust-m/optiga-trust-m-1/externals/mbedtls/library/bignum.c ****     for( i = buflen, j = 0; i > 0; i--, j++ )
 741://MAC/Home/Downloads/getstarted-optiga-trust-m/optiga-trust-m-1/externals/mbedtls/library/bignum.c ****         X->p[j / ciL] |= ((mbedtls_mpi_uint) buf[i - 1]) << ((j % ciL) << 3);
 742://MAC/Home/Downloads/getstarted-optiga-trust-m/optiga-trust-m-1/externals/mbedtls/library/bignum.c **** 
 743://MAC/Home/Downloads/getstarted-optiga-trust-m/optiga-trust-m-1/externals/mbedtls/library/bignum.c **** cleanup:
 744://MAC/Home/Downloads/getstarted-optiga-trust-m/optiga-trust-m-1/externals/mbedtls/library/bignum.c **** 
 745://MAC/Home/Downloads/getstarted-optiga-trust-m/optiga-trust-m-1/externals/mbedtls/library/bignum.c ****     return( ret );
 746://MAC/Home/Downloads/getstarted-optiga-trust-m/optiga-trust-m-1/externals/mbedtls/library/bignum.c **** }
 747://MAC/Home/Downloads/getstarted-optiga-trust-m/optiga-trust-m-1/externals/mbedtls/library/bignum.c **** 
 748://MAC/Home/Downloads/getstarted-optiga-trust-m/optiga-trust-m-1/externals/mbedtls/library/bignum.c **** /*
 749://MAC/Home/Downloads/getstarted-optiga-trust-m/optiga-trust-m-1/externals/mbedtls/library/bignum.c ****  * Export X into unsigned binary data, big endian
 750://MAC/Home/Downloads/getstarted-optiga-trust-m/optiga-trust-m-1/externals/mbedtls/library/bignum.c ****  */
 751://MAC/Home/Downloads/getstarted-optiga-trust-m/optiga-trust-m-1/externals/mbedtls/library/bignum.c **** int mbedtls_mpi_write_binary( const mbedtls_mpi *X,
 752://MAC/Home/Downloads/getstarted-optiga-trust-m/optiga-trust-m-1/externals/mbedtls/library/bignum.c ****                               unsigned char *buf, size_t buflen )
 753://MAC/Home/Downloads/getstarted-optiga-trust-m/optiga-trust-m-1/externals/mbedtls/library/bignum.c **** {
 754://MAC/Home/Downloads/getstarted-optiga-trust-m/optiga-trust-m-1/externals/mbedtls/library/bignum.c ****     size_t stored_bytes;
 755://MAC/Home/Downloads/getstarted-optiga-trust-m/optiga-trust-m-1/externals/mbedtls/library/bignum.c ****     size_t bytes_to_copy;
 756://MAC/Home/Downloads/getstarted-optiga-trust-m/optiga-trust-m-1/externals/mbedtls/library/bignum.c ****     unsigned char *p;
 757://MAC/Home/Downloads/getstarted-optiga-trust-m/optiga-trust-m-1/externals/mbedtls/library/bignum.c ****     size_t i;
 758://MAC/Home/Downloads/getstarted-optiga-trust-m/optiga-trust-m-1/externals/mbedtls/library/bignum.c **** 
 759://MAC/Home/Downloads/getstarted-optiga-trust-m/optiga-trust-m-1/externals/mbedtls/library/bignum.c ****     MPI_VALIDATE_RET( X != NULL );
 760://MAC/Home/Downloads/getstarted-optiga-trust-m/optiga-trust-m-1/externals/mbedtls/library/bignum.c ****     MPI_VALIDATE_RET( buflen == 0 || buf != NULL );
 761://MAC/Home/Downloads/getstarted-optiga-trust-m/optiga-trust-m-1/externals/mbedtls/library/bignum.c **** 
 762://MAC/Home/Downloads/getstarted-optiga-trust-m/optiga-trust-m-1/externals/mbedtls/library/bignum.c ****     stored_bytes = X->n * ciL;
 763://MAC/Home/Downloads/getstarted-optiga-trust-m/optiga-trust-m-1/externals/mbedtls/library/bignum.c **** 
 764://MAC/Home/Downloads/getstarted-optiga-trust-m/optiga-trust-m-1/externals/mbedtls/library/bignum.c ****     if( stored_bytes < buflen )
 765://MAC/Home/Downloads/getstarted-optiga-trust-m/optiga-trust-m-1/externals/mbedtls/library/bignum.c ****     {
 766://MAC/Home/Downloads/getstarted-optiga-trust-m/optiga-trust-m-1/externals/mbedtls/library/bignum.c ****         /* There is enough space in the output buffer. Write initial
 767://MAC/Home/Downloads/getstarted-optiga-trust-m/optiga-trust-m-1/externals/mbedtls/library/bignum.c ****          * null bytes and record the position at which to start
 768://MAC/Home/Downloads/getstarted-optiga-trust-m/optiga-trust-m-1/externals/mbedtls/library/bignum.c ****          * writing the significant bytes. In this case, the execution
 769://MAC/Home/Downloads/getstarted-optiga-trust-m/optiga-trust-m-1/externals/mbedtls/library/bignum.c ****          * trace of this function does not depend on the value of the
 770://MAC/Home/Downloads/getstarted-optiga-trust-m/optiga-trust-m-1/externals/mbedtls/library/bignum.c ****          * number. */
 771://MAC/Home/Downloads/getstarted-optiga-trust-m/optiga-trust-m-1/externals/mbedtls/library/bignum.c ****         bytes_to_copy = stored_bytes;
 772://MAC/Home/Downloads/getstarted-optiga-trust-m/optiga-trust-m-1/externals/mbedtls/library/bignum.c ****         p = buf + buflen - stored_bytes;
 773://MAC/Home/Downloads/getstarted-optiga-trust-m/optiga-trust-m-1/externals/mbedtls/library/bignum.c ****         memset( buf, 0, buflen - stored_bytes );
 774://MAC/Home/Downloads/getstarted-optiga-trust-m/optiga-trust-m-1/externals/mbedtls/library/bignum.c ****     }
 775://MAC/Home/Downloads/getstarted-optiga-trust-m/optiga-trust-m-1/externals/mbedtls/library/bignum.c ****     else
 776://MAC/Home/Downloads/getstarted-optiga-trust-m/optiga-trust-m-1/externals/mbedtls/library/bignum.c ****     {
 777://MAC/Home/Downloads/getstarted-optiga-trust-m/optiga-trust-m-1/externals/mbedtls/library/bignum.c ****         /* The output buffer is smaller than the allocated size of X.
 778://MAC/Home/Downloads/getstarted-optiga-trust-m/optiga-trust-m-1/externals/mbedtls/library/bignum.c ****          * However X may fit if its leading bytes are zero. */
 779://MAC/Home/Downloads/getstarted-optiga-trust-m/optiga-trust-m-1/externals/mbedtls/library/bignum.c ****         bytes_to_copy = buflen;
 780://MAC/Home/Downloads/getstarted-optiga-trust-m/optiga-trust-m-1/externals/mbedtls/library/bignum.c ****         p = buf;
 781://MAC/Home/Downloads/getstarted-optiga-trust-m/optiga-trust-m-1/externals/mbedtls/library/bignum.c ****         for( i = bytes_to_copy; i < stored_bytes; i++ )
 782://MAC/Home/Downloads/getstarted-optiga-trust-m/optiga-trust-m-1/externals/mbedtls/library/bignum.c ****         {
 783://MAC/Home/Downloads/getstarted-optiga-trust-m/optiga-trust-m-1/externals/mbedtls/library/bignum.c ****             if( GET_BYTE( X, i ) != 0 )
 784://MAC/Home/Downloads/getstarted-optiga-trust-m/optiga-trust-m-1/externals/mbedtls/library/bignum.c ****                 return( MBEDTLS_ERR_MPI_BUFFER_TOO_SMALL );
 785://MAC/Home/Downloads/getstarted-optiga-trust-m/optiga-trust-m-1/externals/mbedtls/library/bignum.c ****         }
 786://MAC/Home/Downloads/getstarted-optiga-trust-m/optiga-trust-m-1/externals/mbedtls/library/bignum.c ****     }
 787://MAC/Home/Downloads/getstarted-optiga-trust-m/optiga-trust-m-1/externals/mbedtls/library/bignum.c **** 
 788://MAC/Home/Downloads/getstarted-optiga-trust-m/optiga-trust-m-1/externals/mbedtls/library/bignum.c ****     for( i = 0; i < bytes_to_copy; i++ )
 789://MAC/Home/Downloads/getstarted-optiga-trust-m/optiga-trust-m-1/externals/mbedtls/library/bignum.c ****         p[bytes_to_copy - i - 1] = GET_BYTE( X, i );
 790://MAC/Home/Downloads/getstarted-optiga-trust-m/optiga-trust-m-1/externals/mbedtls/library/bignum.c **** 
 791://MAC/Home/Downloads/getstarted-optiga-trust-m/optiga-trust-m-1/externals/mbedtls/library/bignum.c ****     return( 0 );
 792://MAC/Home/Downloads/getstarted-optiga-trust-m/optiga-trust-m-1/externals/mbedtls/library/bignum.c **** }
 793://MAC/Home/Downloads/getstarted-optiga-trust-m/optiga-trust-m-1/externals/mbedtls/library/bignum.c **** 
 794://MAC/Home/Downloads/getstarted-optiga-trust-m/optiga-trust-m-1/externals/mbedtls/library/bignum.c **** /*
 795://MAC/Home/Downloads/getstarted-optiga-trust-m/optiga-trust-m-1/externals/mbedtls/library/bignum.c ****  * Left-shift: X <<= count
 796://MAC/Home/Downloads/getstarted-optiga-trust-m/optiga-trust-m-1/externals/mbedtls/library/bignum.c ****  */
 797://MAC/Home/Downloads/getstarted-optiga-trust-m/optiga-trust-m-1/externals/mbedtls/library/bignum.c **** int mbedtls_mpi_shift_l( mbedtls_mpi *X, size_t count )
 798://MAC/Home/Downloads/getstarted-optiga-trust-m/optiga-trust-m-1/externals/mbedtls/library/bignum.c **** {
 799://MAC/Home/Downloads/getstarted-optiga-trust-m/optiga-trust-m-1/externals/mbedtls/library/bignum.c ****     int ret;
 800://MAC/Home/Downloads/getstarted-optiga-trust-m/optiga-trust-m-1/externals/mbedtls/library/bignum.c ****     size_t i, v0, t1;
 801://MAC/Home/Downloads/getstarted-optiga-trust-m/optiga-trust-m-1/externals/mbedtls/library/bignum.c ****     mbedtls_mpi_uint r0 = 0, r1;
 802://MAC/Home/Downloads/getstarted-optiga-trust-m/optiga-trust-m-1/externals/mbedtls/library/bignum.c ****     MPI_VALIDATE_RET( X != NULL );
 803://MAC/Home/Downloads/getstarted-optiga-trust-m/optiga-trust-m-1/externals/mbedtls/library/bignum.c **** 
 804://MAC/Home/Downloads/getstarted-optiga-trust-m/optiga-trust-m-1/externals/mbedtls/library/bignum.c ****     v0 = count / (biL    );
 805://MAC/Home/Downloads/getstarted-optiga-trust-m/optiga-trust-m-1/externals/mbedtls/library/bignum.c ****     t1 = count & (biL - 1);
 806://MAC/Home/Downloads/getstarted-optiga-trust-m/optiga-trust-m-1/externals/mbedtls/library/bignum.c **** 
 807://MAC/Home/Downloads/getstarted-optiga-trust-m/optiga-trust-m-1/externals/mbedtls/library/bignum.c ****     i = mbedtls_mpi_bitlen( X ) + count;
 808://MAC/Home/Downloads/getstarted-optiga-trust-m/optiga-trust-m-1/externals/mbedtls/library/bignum.c **** 
 809://MAC/Home/Downloads/getstarted-optiga-trust-m/optiga-trust-m-1/externals/mbedtls/library/bignum.c ****     if( X->n * biL < i )
 810://MAC/Home/Downloads/getstarted-optiga-trust-m/optiga-trust-m-1/externals/mbedtls/library/bignum.c ****         MBEDTLS_MPI_CHK( mbedtls_mpi_grow( X, BITS_TO_LIMBS( i ) ) );
 811://MAC/Home/Downloads/getstarted-optiga-trust-m/optiga-trust-m-1/externals/mbedtls/library/bignum.c **** 
 812://MAC/Home/Downloads/getstarted-optiga-trust-m/optiga-trust-m-1/externals/mbedtls/library/bignum.c ****     ret = 0;
 813://MAC/Home/Downloads/getstarted-optiga-trust-m/optiga-trust-m-1/externals/mbedtls/library/bignum.c **** 
 814://MAC/Home/Downloads/getstarted-optiga-trust-m/optiga-trust-m-1/externals/mbedtls/library/bignum.c ****     /*
 815://MAC/Home/Downloads/getstarted-optiga-trust-m/optiga-trust-m-1/externals/mbedtls/library/bignum.c ****      * shift by count / limb_size
 816://MAC/Home/Downloads/getstarted-optiga-trust-m/optiga-trust-m-1/externals/mbedtls/library/bignum.c ****      */
 817://MAC/Home/Downloads/getstarted-optiga-trust-m/optiga-trust-m-1/externals/mbedtls/library/bignum.c ****     if( v0 > 0 )
 818://MAC/Home/Downloads/getstarted-optiga-trust-m/optiga-trust-m-1/externals/mbedtls/library/bignum.c ****     {
 819://MAC/Home/Downloads/getstarted-optiga-trust-m/optiga-trust-m-1/externals/mbedtls/library/bignum.c ****         for( i = X->n; i > v0; i-- )
 820://MAC/Home/Downloads/getstarted-optiga-trust-m/optiga-trust-m-1/externals/mbedtls/library/bignum.c ****             X->p[i - 1] = X->p[i - v0 - 1];
 821://MAC/Home/Downloads/getstarted-optiga-trust-m/optiga-trust-m-1/externals/mbedtls/library/bignum.c **** 
 822://MAC/Home/Downloads/getstarted-optiga-trust-m/optiga-trust-m-1/externals/mbedtls/library/bignum.c ****         for( ; i > 0; i-- )
 823://MAC/Home/Downloads/getstarted-optiga-trust-m/optiga-trust-m-1/externals/mbedtls/library/bignum.c ****             X->p[i - 1] = 0;
 824://MAC/Home/Downloads/getstarted-optiga-trust-m/optiga-trust-m-1/externals/mbedtls/library/bignum.c ****     }
 825://MAC/Home/Downloads/getstarted-optiga-trust-m/optiga-trust-m-1/externals/mbedtls/library/bignum.c **** 
 826://MAC/Home/Downloads/getstarted-optiga-trust-m/optiga-trust-m-1/externals/mbedtls/library/bignum.c ****     /*
 827://MAC/Home/Downloads/getstarted-optiga-trust-m/optiga-trust-m-1/externals/mbedtls/library/bignum.c ****      * shift by count % limb_size
 828://MAC/Home/Downloads/getstarted-optiga-trust-m/optiga-trust-m-1/externals/mbedtls/library/bignum.c ****      */
 829://MAC/Home/Downloads/getstarted-optiga-trust-m/optiga-trust-m-1/externals/mbedtls/library/bignum.c ****     if( t1 > 0 )
 830://MAC/Home/Downloads/getstarted-optiga-trust-m/optiga-trust-m-1/externals/mbedtls/library/bignum.c ****     {
 831://MAC/Home/Downloads/getstarted-optiga-trust-m/optiga-trust-m-1/externals/mbedtls/library/bignum.c ****         for( i = v0; i < X->n; i++ )
 832://MAC/Home/Downloads/getstarted-optiga-trust-m/optiga-trust-m-1/externals/mbedtls/library/bignum.c ****         {
 833://MAC/Home/Downloads/getstarted-optiga-trust-m/optiga-trust-m-1/externals/mbedtls/library/bignum.c ****             r1 = X->p[i] >> (biL - t1);
 834://MAC/Home/Downloads/getstarted-optiga-trust-m/optiga-trust-m-1/externals/mbedtls/library/bignum.c ****             X->p[i] <<= t1;
 835://MAC/Home/Downloads/getstarted-optiga-trust-m/optiga-trust-m-1/externals/mbedtls/library/bignum.c ****             X->p[i] |= r0;
 836://MAC/Home/Downloads/getstarted-optiga-trust-m/optiga-trust-m-1/externals/mbedtls/library/bignum.c ****             r0 = r1;
 837://MAC/Home/Downloads/getstarted-optiga-trust-m/optiga-trust-m-1/externals/mbedtls/library/bignum.c ****         }
 838://MAC/Home/Downloads/getstarted-optiga-trust-m/optiga-trust-m-1/externals/mbedtls/library/bignum.c ****     }
 839://MAC/Home/Downloads/getstarted-optiga-trust-m/optiga-trust-m-1/externals/mbedtls/library/bignum.c **** 
 840://MAC/Home/Downloads/getstarted-optiga-trust-m/optiga-trust-m-1/externals/mbedtls/library/bignum.c **** cleanup:
 841://MAC/Home/Downloads/getstarted-optiga-trust-m/optiga-trust-m-1/externals/mbedtls/library/bignum.c **** 
 842://MAC/Home/Downloads/getstarted-optiga-trust-m/optiga-trust-m-1/externals/mbedtls/library/bignum.c ****     return( ret );
 843://MAC/Home/Downloads/getstarted-optiga-trust-m/optiga-trust-m-1/externals/mbedtls/library/bignum.c **** }
 844://MAC/Home/Downloads/getstarted-optiga-trust-m/optiga-trust-m-1/externals/mbedtls/library/bignum.c **** 
 845://MAC/Home/Downloads/getstarted-optiga-trust-m/optiga-trust-m-1/externals/mbedtls/library/bignum.c **** /*
 846://MAC/Home/Downloads/getstarted-optiga-trust-m/optiga-trust-m-1/externals/mbedtls/library/bignum.c ****  * Right-shift: X >>= count
 847://MAC/Home/Downloads/getstarted-optiga-trust-m/optiga-trust-m-1/externals/mbedtls/library/bignum.c ****  */
 848://MAC/Home/Downloads/getstarted-optiga-trust-m/optiga-trust-m-1/externals/mbedtls/library/bignum.c **** int mbedtls_mpi_shift_r( mbedtls_mpi *X, size_t count )
 849://MAC/Home/Downloads/getstarted-optiga-trust-m/optiga-trust-m-1/externals/mbedtls/library/bignum.c **** {
 850://MAC/Home/Downloads/getstarted-optiga-trust-m/optiga-trust-m-1/externals/mbedtls/library/bignum.c ****     size_t i, v0, v1;
 851://MAC/Home/Downloads/getstarted-optiga-trust-m/optiga-trust-m-1/externals/mbedtls/library/bignum.c ****     mbedtls_mpi_uint r0 = 0, r1;
 852://MAC/Home/Downloads/getstarted-optiga-trust-m/optiga-trust-m-1/externals/mbedtls/library/bignum.c ****     MPI_VALIDATE_RET( X != NULL );
 853://MAC/Home/Downloads/getstarted-optiga-trust-m/optiga-trust-m-1/externals/mbedtls/library/bignum.c **** 
 854://MAC/Home/Downloads/getstarted-optiga-trust-m/optiga-trust-m-1/externals/mbedtls/library/bignum.c ****     v0 = count /  biL;
 855://MAC/Home/Downloads/getstarted-optiga-trust-m/optiga-trust-m-1/externals/mbedtls/library/bignum.c ****     v1 = count & (biL - 1);
 856://MAC/Home/Downloads/getstarted-optiga-trust-m/optiga-trust-m-1/externals/mbedtls/library/bignum.c **** 
 857://MAC/Home/Downloads/getstarted-optiga-trust-m/optiga-trust-m-1/externals/mbedtls/library/bignum.c ****     if( v0 > X->n || ( v0 == X->n && v1 > 0 ) )
 858://MAC/Home/Downloads/getstarted-optiga-trust-m/optiga-trust-m-1/externals/mbedtls/library/bignum.c ****         return mbedtls_mpi_lset( X, 0 );
 859://MAC/Home/Downloads/getstarted-optiga-trust-m/optiga-trust-m-1/externals/mbedtls/library/bignum.c **** 
 860://MAC/Home/Downloads/getstarted-optiga-trust-m/optiga-trust-m-1/externals/mbedtls/library/bignum.c ****     /*
 861://MAC/Home/Downloads/getstarted-optiga-trust-m/optiga-trust-m-1/externals/mbedtls/library/bignum.c ****      * shift by count / limb_size
 862://MAC/Home/Downloads/getstarted-optiga-trust-m/optiga-trust-m-1/externals/mbedtls/library/bignum.c ****      */
 863://MAC/Home/Downloads/getstarted-optiga-trust-m/optiga-trust-m-1/externals/mbedtls/library/bignum.c ****     if( v0 > 0 )
 864://MAC/Home/Downloads/getstarted-optiga-trust-m/optiga-trust-m-1/externals/mbedtls/library/bignum.c ****     {
 865://MAC/Home/Downloads/getstarted-optiga-trust-m/optiga-trust-m-1/externals/mbedtls/library/bignum.c ****         for( i = 0; i < X->n - v0; i++ )
 866://MAC/Home/Downloads/getstarted-optiga-trust-m/optiga-trust-m-1/externals/mbedtls/library/bignum.c ****             X->p[i] = X->p[i + v0];
 867://MAC/Home/Downloads/getstarted-optiga-trust-m/optiga-trust-m-1/externals/mbedtls/library/bignum.c **** 
 868://MAC/Home/Downloads/getstarted-optiga-trust-m/optiga-trust-m-1/externals/mbedtls/library/bignum.c ****         for( ; i < X->n; i++ )
 869://MAC/Home/Downloads/getstarted-optiga-trust-m/optiga-trust-m-1/externals/mbedtls/library/bignum.c ****             X->p[i] = 0;
 870://MAC/Home/Downloads/getstarted-optiga-trust-m/optiga-trust-m-1/externals/mbedtls/library/bignum.c ****     }
 871://MAC/Home/Downloads/getstarted-optiga-trust-m/optiga-trust-m-1/externals/mbedtls/library/bignum.c **** 
 872://MAC/Home/Downloads/getstarted-optiga-trust-m/optiga-trust-m-1/externals/mbedtls/library/bignum.c ****     /*
 873://MAC/Home/Downloads/getstarted-optiga-trust-m/optiga-trust-m-1/externals/mbedtls/library/bignum.c ****      * shift by count % limb_size
 874://MAC/Home/Downloads/getstarted-optiga-trust-m/optiga-trust-m-1/externals/mbedtls/library/bignum.c ****      */
 875://MAC/Home/Downloads/getstarted-optiga-trust-m/optiga-trust-m-1/externals/mbedtls/library/bignum.c ****     if( v1 > 0 )
 876://MAC/Home/Downloads/getstarted-optiga-trust-m/optiga-trust-m-1/externals/mbedtls/library/bignum.c ****     {
 877://MAC/Home/Downloads/getstarted-optiga-trust-m/optiga-trust-m-1/externals/mbedtls/library/bignum.c ****         for( i = X->n; i > 0; i-- )
 878://MAC/Home/Downloads/getstarted-optiga-trust-m/optiga-trust-m-1/externals/mbedtls/library/bignum.c ****         {
 879://MAC/Home/Downloads/getstarted-optiga-trust-m/optiga-trust-m-1/externals/mbedtls/library/bignum.c ****             r1 = X->p[i - 1] << (biL - v1);
 880://MAC/Home/Downloads/getstarted-optiga-trust-m/optiga-trust-m-1/externals/mbedtls/library/bignum.c ****             X->p[i - 1] >>= v1;
 881://MAC/Home/Downloads/getstarted-optiga-trust-m/optiga-trust-m-1/externals/mbedtls/library/bignum.c ****             X->p[i - 1] |= r0;
 882://MAC/Home/Downloads/getstarted-optiga-trust-m/optiga-trust-m-1/externals/mbedtls/library/bignum.c ****             r0 = r1;
 883://MAC/Home/Downloads/getstarted-optiga-trust-m/optiga-trust-m-1/externals/mbedtls/library/bignum.c ****         }
 884://MAC/Home/Downloads/getstarted-optiga-trust-m/optiga-trust-m-1/externals/mbedtls/library/bignum.c ****     }
 885://MAC/Home/Downloads/getstarted-optiga-trust-m/optiga-trust-m-1/externals/mbedtls/library/bignum.c **** 
 886://MAC/Home/Downloads/getstarted-optiga-trust-m/optiga-trust-m-1/externals/mbedtls/library/bignum.c ****     return( 0 );
 887://MAC/Home/Downloads/getstarted-optiga-trust-m/optiga-trust-m-1/externals/mbedtls/library/bignum.c **** }
 888://MAC/Home/Downloads/getstarted-optiga-trust-m/optiga-trust-m-1/externals/mbedtls/library/bignum.c **** 
 889://MAC/Home/Downloads/getstarted-optiga-trust-m/optiga-trust-m-1/externals/mbedtls/library/bignum.c **** /*
 890://MAC/Home/Downloads/getstarted-optiga-trust-m/optiga-trust-m-1/externals/mbedtls/library/bignum.c ****  * Compare unsigned values
 891://MAC/Home/Downloads/getstarted-optiga-trust-m/optiga-trust-m-1/externals/mbedtls/library/bignum.c ****  */
 892://MAC/Home/Downloads/getstarted-optiga-trust-m/optiga-trust-m-1/externals/mbedtls/library/bignum.c **** int mbedtls_mpi_cmp_abs( const mbedtls_mpi *X, const mbedtls_mpi *Y )
 893://MAC/Home/Downloads/getstarted-optiga-trust-m/optiga-trust-m-1/externals/mbedtls/library/bignum.c **** {
 894://MAC/Home/Downloads/getstarted-optiga-trust-m/optiga-trust-m-1/externals/mbedtls/library/bignum.c ****     size_t i, j;
 895://MAC/Home/Downloads/getstarted-optiga-trust-m/optiga-trust-m-1/externals/mbedtls/library/bignum.c ****     MPI_VALIDATE_RET( X != NULL );
 896://MAC/Home/Downloads/getstarted-optiga-trust-m/optiga-trust-m-1/externals/mbedtls/library/bignum.c ****     MPI_VALIDATE_RET( Y != NULL );
 897://MAC/Home/Downloads/getstarted-optiga-trust-m/optiga-trust-m-1/externals/mbedtls/library/bignum.c **** 
 898://MAC/Home/Downloads/getstarted-optiga-trust-m/optiga-trust-m-1/externals/mbedtls/library/bignum.c ****     for( i = X->n; i > 0; i-- )
 899://MAC/Home/Downloads/getstarted-optiga-trust-m/optiga-trust-m-1/externals/mbedtls/library/bignum.c ****         if( X->p[i - 1] != 0 )
 900://MAC/Home/Downloads/getstarted-optiga-trust-m/optiga-trust-m-1/externals/mbedtls/library/bignum.c ****             break;
 901://MAC/Home/Downloads/getstarted-optiga-trust-m/optiga-trust-m-1/externals/mbedtls/library/bignum.c **** 
 902://MAC/Home/Downloads/getstarted-optiga-trust-m/optiga-trust-m-1/externals/mbedtls/library/bignum.c ****     for( j = Y->n; j > 0; j-- )
 903://MAC/Home/Downloads/getstarted-optiga-trust-m/optiga-trust-m-1/externals/mbedtls/library/bignum.c ****         if( Y->p[j - 1] != 0 )
 904://MAC/Home/Downloads/getstarted-optiga-trust-m/optiga-trust-m-1/externals/mbedtls/library/bignum.c ****             break;
 905://MAC/Home/Downloads/getstarted-optiga-trust-m/optiga-trust-m-1/externals/mbedtls/library/bignum.c **** 
 906://MAC/Home/Downloads/getstarted-optiga-trust-m/optiga-trust-m-1/externals/mbedtls/library/bignum.c ****     if( i == 0 && j == 0 )
 907://MAC/Home/Downloads/getstarted-optiga-trust-m/optiga-trust-m-1/externals/mbedtls/library/bignum.c ****         return( 0 );
 908://MAC/Home/Downloads/getstarted-optiga-trust-m/optiga-trust-m-1/externals/mbedtls/library/bignum.c **** 
 909://MAC/Home/Downloads/getstarted-optiga-trust-m/optiga-trust-m-1/externals/mbedtls/library/bignum.c ****     if( i > j ) return(  1 );
 910://MAC/Home/Downloads/getstarted-optiga-trust-m/optiga-trust-m-1/externals/mbedtls/library/bignum.c ****     if( j > i ) return( -1 );
 911://MAC/Home/Downloads/getstarted-optiga-trust-m/optiga-trust-m-1/externals/mbedtls/library/bignum.c **** 
 912://MAC/Home/Downloads/getstarted-optiga-trust-m/optiga-trust-m-1/externals/mbedtls/library/bignum.c ****     for( ; i > 0; i-- )
 913://MAC/Home/Downloads/getstarted-optiga-trust-m/optiga-trust-m-1/externals/mbedtls/library/bignum.c ****     {
 914://MAC/Home/Downloads/getstarted-optiga-trust-m/optiga-trust-m-1/externals/mbedtls/library/bignum.c ****         if( X->p[i - 1] > Y->p[i - 1] ) return(  1 );
 915://MAC/Home/Downloads/getstarted-optiga-trust-m/optiga-trust-m-1/externals/mbedtls/library/bignum.c ****         if( X->p[i - 1] < Y->p[i - 1] ) return( -1 );
 916://MAC/Home/Downloads/getstarted-optiga-trust-m/optiga-trust-m-1/externals/mbedtls/library/bignum.c ****     }
 917://MAC/Home/Downloads/getstarted-optiga-trust-m/optiga-trust-m-1/externals/mbedtls/library/bignum.c **** 
 918://MAC/Home/Downloads/getstarted-optiga-trust-m/optiga-trust-m-1/externals/mbedtls/library/bignum.c ****     return( 0 );
 919://MAC/Home/Downloads/getstarted-optiga-trust-m/optiga-trust-m-1/externals/mbedtls/library/bignum.c **** }
 920://MAC/Home/Downloads/getstarted-optiga-trust-m/optiga-trust-m-1/externals/mbedtls/library/bignum.c **** 
 921://MAC/Home/Downloads/getstarted-optiga-trust-m/optiga-trust-m-1/externals/mbedtls/library/bignum.c **** /*
 922://MAC/Home/Downloads/getstarted-optiga-trust-m/optiga-trust-m-1/externals/mbedtls/library/bignum.c ****  * Compare signed values
 923://MAC/Home/Downloads/getstarted-optiga-trust-m/optiga-trust-m-1/externals/mbedtls/library/bignum.c ****  */
 924://MAC/Home/Downloads/getstarted-optiga-trust-m/optiga-trust-m-1/externals/mbedtls/library/bignum.c **** int mbedtls_mpi_cmp_mpi( const mbedtls_mpi *X, const mbedtls_mpi *Y )
 925://MAC/Home/Downloads/getstarted-optiga-trust-m/optiga-trust-m-1/externals/mbedtls/library/bignum.c **** {
 926://MAC/Home/Downloads/getstarted-optiga-trust-m/optiga-trust-m-1/externals/mbedtls/library/bignum.c ****     size_t i, j;
 927://MAC/Home/Downloads/getstarted-optiga-trust-m/optiga-trust-m-1/externals/mbedtls/library/bignum.c ****     MPI_VALIDATE_RET( X != NULL );
 928://MAC/Home/Downloads/getstarted-optiga-trust-m/optiga-trust-m-1/externals/mbedtls/library/bignum.c ****     MPI_VALIDATE_RET( Y != NULL );
 929://MAC/Home/Downloads/getstarted-optiga-trust-m/optiga-trust-m-1/externals/mbedtls/library/bignum.c **** 
 930://MAC/Home/Downloads/getstarted-optiga-trust-m/optiga-trust-m-1/externals/mbedtls/library/bignum.c ****     for( i = X->n; i > 0; i-- )
 931://MAC/Home/Downloads/getstarted-optiga-trust-m/optiga-trust-m-1/externals/mbedtls/library/bignum.c ****         if( X->p[i - 1] != 0 )
 932://MAC/Home/Downloads/getstarted-optiga-trust-m/optiga-trust-m-1/externals/mbedtls/library/bignum.c ****             break;
 933://MAC/Home/Downloads/getstarted-optiga-trust-m/optiga-trust-m-1/externals/mbedtls/library/bignum.c **** 
 934://MAC/Home/Downloads/getstarted-optiga-trust-m/optiga-trust-m-1/externals/mbedtls/library/bignum.c ****     for( j = Y->n; j > 0; j-- )
 935://MAC/Home/Downloads/getstarted-optiga-trust-m/optiga-trust-m-1/externals/mbedtls/library/bignum.c ****         if( Y->p[j - 1] != 0 )
 936://MAC/Home/Downloads/getstarted-optiga-trust-m/optiga-trust-m-1/externals/mbedtls/library/bignum.c ****             break;
 937://MAC/Home/Downloads/getstarted-optiga-trust-m/optiga-trust-m-1/externals/mbedtls/library/bignum.c **** 
 938://MAC/Home/Downloads/getstarted-optiga-trust-m/optiga-trust-m-1/externals/mbedtls/library/bignum.c ****     if( i == 0 && j == 0 )
 939://MAC/Home/Downloads/getstarted-optiga-trust-m/optiga-trust-m-1/externals/mbedtls/library/bignum.c ****         return( 0 );
 940://MAC/Home/Downloads/getstarted-optiga-trust-m/optiga-trust-m-1/externals/mbedtls/library/bignum.c **** 
 941://MAC/Home/Downloads/getstarted-optiga-trust-m/optiga-trust-m-1/externals/mbedtls/library/bignum.c ****     if( i > j ) return(  X->s );
 942://MAC/Home/Downloads/getstarted-optiga-trust-m/optiga-trust-m-1/externals/mbedtls/library/bignum.c ****     if( j > i ) return( -Y->s );
 943://MAC/Home/Downloads/getstarted-optiga-trust-m/optiga-trust-m-1/externals/mbedtls/library/bignum.c **** 
 944://MAC/Home/Downloads/getstarted-optiga-trust-m/optiga-trust-m-1/externals/mbedtls/library/bignum.c ****     if( X->s > 0 && Y->s < 0 ) return(  1 );
 945://MAC/Home/Downloads/getstarted-optiga-trust-m/optiga-trust-m-1/externals/mbedtls/library/bignum.c ****     if( Y->s > 0 && X->s < 0 ) return( -1 );
 946://MAC/Home/Downloads/getstarted-optiga-trust-m/optiga-trust-m-1/externals/mbedtls/library/bignum.c **** 
 947://MAC/Home/Downloads/getstarted-optiga-trust-m/optiga-trust-m-1/externals/mbedtls/library/bignum.c ****     for( ; i > 0; i-- )
 948://MAC/Home/Downloads/getstarted-optiga-trust-m/optiga-trust-m-1/externals/mbedtls/library/bignum.c ****     {
 949://MAC/Home/Downloads/getstarted-optiga-trust-m/optiga-trust-m-1/externals/mbedtls/library/bignum.c ****         if( X->p[i - 1] > Y->p[i - 1] ) return(  X->s );
 950://MAC/Home/Downloads/getstarted-optiga-trust-m/optiga-trust-m-1/externals/mbedtls/library/bignum.c ****         if( X->p[i - 1] < Y->p[i - 1] ) return( -X->s );
 951://MAC/Home/Downloads/getstarted-optiga-trust-m/optiga-trust-m-1/externals/mbedtls/library/bignum.c ****     }
 952://MAC/Home/Downloads/getstarted-optiga-trust-m/optiga-trust-m-1/externals/mbedtls/library/bignum.c **** 
 953://MAC/Home/Downloads/getstarted-optiga-trust-m/optiga-trust-m-1/externals/mbedtls/library/bignum.c ****     return( 0 );
 954://MAC/Home/Downloads/getstarted-optiga-trust-m/optiga-trust-m-1/externals/mbedtls/library/bignum.c **** }
 955://MAC/Home/Downloads/getstarted-optiga-trust-m/optiga-trust-m-1/externals/mbedtls/library/bignum.c **** 
 956://MAC/Home/Downloads/getstarted-optiga-trust-m/optiga-trust-m-1/externals/mbedtls/library/bignum.c **** /*
 957://MAC/Home/Downloads/getstarted-optiga-trust-m/optiga-trust-m-1/externals/mbedtls/library/bignum.c ****  * Compare signed values
 958://MAC/Home/Downloads/getstarted-optiga-trust-m/optiga-trust-m-1/externals/mbedtls/library/bignum.c ****  */
 959://MAC/Home/Downloads/getstarted-optiga-trust-m/optiga-trust-m-1/externals/mbedtls/library/bignum.c **** int mbedtls_mpi_cmp_int( const mbedtls_mpi *X, mbedtls_mpi_sint z )
 960://MAC/Home/Downloads/getstarted-optiga-trust-m/optiga-trust-m-1/externals/mbedtls/library/bignum.c **** {
 961://MAC/Home/Downloads/getstarted-optiga-trust-m/optiga-trust-m-1/externals/mbedtls/library/bignum.c ****     mbedtls_mpi Y;
 962://MAC/Home/Downloads/getstarted-optiga-trust-m/optiga-trust-m-1/externals/mbedtls/library/bignum.c ****     mbedtls_mpi_uint p[1];
 963://MAC/Home/Downloads/getstarted-optiga-trust-m/optiga-trust-m-1/externals/mbedtls/library/bignum.c ****     MPI_VALIDATE_RET( X != NULL );
 964://MAC/Home/Downloads/getstarted-optiga-trust-m/optiga-trust-m-1/externals/mbedtls/library/bignum.c **** 
 965://MAC/Home/Downloads/getstarted-optiga-trust-m/optiga-trust-m-1/externals/mbedtls/library/bignum.c ****     *p  = ( z < 0 ) ? -z : z;
 966://MAC/Home/Downloads/getstarted-optiga-trust-m/optiga-trust-m-1/externals/mbedtls/library/bignum.c ****     Y.s = ( z < 0 ) ? -1 : 1;
 967://MAC/Home/Downloads/getstarted-optiga-trust-m/optiga-trust-m-1/externals/mbedtls/library/bignum.c ****     Y.n = 1;
 968://MAC/Home/Downloads/getstarted-optiga-trust-m/optiga-trust-m-1/externals/mbedtls/library/bignum.c ****     Y.p = p;
 969://MAC/Home/Downloads/getstarted-optiga-trust-m/optiga-trust-m-1/externals/mbedtls/library/bignum.c **** 
 970://MAC/Home/Downloads/getstarted-optiga-trust-m/optiga-trust-m-1/externals/mbedtls/library/bignum.c ****     return( mbedtls_mpi_cmp_mpi( X, &Y ) );
 971://MAC/Home/Downloads/getstarted-optiga-trust-m/optiga-trust-m-1/externals/mbedtls/library/bignum.c **** }
 972://MAC/Home/Downloads/getstarted-optiga-trust-m/optiga-trust-m-1/externals/mbedtls/library/bignum.c **** 
 973://MAC/Home/Downloads/getstarted-optiga-trust-m/optiga-trust-m-1/externals/mbedtls/library/bignum.c **** /*
 974://MAC/Home/Downloads/getstarted-optiga-trust-m/optiga-trust-m-1/externals/mbedtls/library/bignum.c ****  * Unsigned addition: X = |A| + |B|  (HAC 14.7)
 975://MAC/Home/Downloads/getstarted-optiga-trust-m/optiga-trust-m-1/externals/mbedtls/library/bignum.c ****  */
 976://MAC/Home/Downloads/getstarted-optiga-trust-m/optiga-trust-m-1/externals/mbedtls/library/bignum.c **** int mbedtls_mpi_add_abs( mbedtls_mpi *X, const mbedtls_mpi *A, const mbedtls_mpi *B )
 977://MAC/Home/Downloads/getstarted-optiga-trust-m/optiga-trust-m-1/externals/mbedtls/library/bignum.c **** {
 978://MAC/Home/Downloads/getstarted-optiga-trust-m/optiga-trust-m-1/externals/mbedtls/library/bignum.c ****     int ret;
 979://MAC/Home/Downloads/getstarted-optiga-trust-m/optiga-trust-m-1/externals/mbedtls/library/bignum.c ****     size_t i, j;
 980://MAC/Home/Downloads/getstarted-optiga-trust-m/optiga-trust-m-1/externals/mbedtls/library/bignum.c ****     mbedtls_mpi_uint *o, *p, c, tmp;
 981://MAC/Home/Downloads/getstarted-optiga-trust-m/optiga-trust-m-1/externals/mbedtls/library/bignum.c ****     MPI_VALIDATE_RET( X != NULL );
 982://MAC/Home/Downloads/getstarted-optiga-trust-m/optiga-trust-m-1/externals/mbedtls/library/bignum.c ****     MPI_VALIDATE_RET( A != NULL );
 983://MAC/Home/Downloads/getstarted-optiga-trust-m/optiga-trust-m-1/externals/mbedtls/library/bignum.c ****     MPI_VALIDATE_RET( B != NULL );
 984://MAC/Home/Downloads/getstarted-optiga-trust-m/optiga-trust-m-1/externals/mbedtls/library/bignum.c **** 
 985://MAC/Home/Downloads/getstarted-optiga-trust-m/optiga-trust-m-1/externals/mbedtls/library/bignum.c ****     if( X == B )
 986://MAC/Home/Downloads/getstarted-optiga-trust-m/optiga-trust-m-1/externals/mbedtls/library/bignum.c ****     {
 987://MAC/Home/Downloads/getstarted-optiga-trust-m/optiga-trust-m-1/externals/mbedtls/library/bignum.c ****         const mbedtls_mpi *T = A; A = X; B = T;
 988://MAC/Home/Downloads/getstarted-optiga-trust-m/optiga-trust-m-1/externals/mbedtls/library/bignum.c ****     }
 989://MAC/Home/Downloads/getstarted-optiga-trust-m/optiga-trust-m-1/externals/mbedtls/library/bignum.c **** 
 990://MAC/Home/Downloads/getstarted-optiga-trust-m/optiga-trust-m-1/externals/mbedtls/library/bignum.c ****     if( X != A )
 991://MAC/Home/Downloads/getstarted-optiga-trust-m/optiga-trust-m-1/externals/mbedtls/library/bignum.c ****         MBEDTLS_MPI_CHK( mbedtls_mpi_copy( X, A ) );
 992://MAC/Home/Downloads/getstarted-optiga-trust-m/optiga-trust-m-1/externals/mbedtls/library/bignum.c **** 
 993://MAC/Home/Downloads/getstarted-optiga-trust-m/optiga-trust-m-1/externals/mbedtls/library/bignum.c ****     /*
 994://MAC/Home/Downloads/getstarted-optiga-trust-m/optiga-trust-m-1/externals/mbedtls/library/bignum.c ****      * X should always be positive as a result of unsigned additions.
 995://MAC/Home/Downloads/getstarted-optiga-trust-m/optiga-trust-m-1/externals/mbedtls/library/bignum.c ****      */
 996://MAC/Home/Downloads/getstarted-optiga-trust-m/optiga-trust-m-1/externals/mbedtls/library/bignum.c ****     X->s = 1;
 997://MAC/Home/Downloads/getstarted-optiga-trust-m/optiga-trust-m-1/externals/mbedtls/library/bignum.c **** 
 998://MAC/Home/Downloads/getstarted-optiga-trust-m/optiga-trust-m-1/externals/mbedtls/library/bignum.c ****     for( j = B->n; j > 0; j-- )
 999://MAC/Home/Downloads/getstarted-optiga-trust-m/optiga-trust-m-1/externals/mbedtls/library/bignum.c ****         if( B->p[j - 1] != 0 )
1000://MAC/Home/Downloads/getstarted-optiga-trust-m/optiga-trust-m-1/externals/mbedtls/library/bignum.c ****             break;
1001://MAC/Home/Downloads/getstarted-optiga-trust-m/optiga-trust-m-1/externals/mbedtls/library/bignum.c **** 
1002://MAC/Home/Downloads/getstarted-optiga-trust-m/optiga-trust-m-1/externals/mbedtls/library/bignum.c ****     MBEDTLS_MPI_CHK( mbedtls_mpi_grow( X, j ) );
1003://MAC/Home/Downloads/getstarted-optiga-trust-m/optiga-trust-m-1/externals/mbedtls/library/bignum.c **** 
1004://MAC/Home/Downloads/getstarted-optiga-trust-m/optiga-trust-m-1/externals/mbedtls/library/bignum.c ****     o = B->p; p = X->p; c = 0;
1005://MAC/Home/Downloads/getstarted-optiga-trust-m/optiga-trust-m-1/externals/mbedtls/library/bignum.c **** 
1006://MAC/Home/Downloads/getstarted-optiga-trust-m/optiga-trust-m-1/externals/mbedtls/library/bignum.c ****     /*
1007://MAC/Home/Downloads/getstarted-optiga-trust-m/optiga-trust-m-1/externals/mbedtls/library/bignum.c ****      * tmp is used because it might happen that p == o
1008://MAC/Home/Downloads/getstarted-optiga-trust-m/optiga-trust-m-1/externals/mbedtls/library/bignum.c ****      */
1009://MAC/Home/Downloads/getstarted-optiga-trust-m/optiga-trust-m-1/externals/mbedtls/library/bignum.c ****     for( i = 0; i < j; i++, o++, p++ )
1010://MAC/Home/Downloads/getstarted-optiga-trust-m/optiga-trust-m-1/externals/mbedtls/library/bignum.c ****     {
1011://MAC/Home/Downloads/getstarted-optiga-trust-m/optiga-trust-m-1/externals/mbedtls/library/bignum.c ****         tmp= *o;
1012://MAC/Home/Downloads/getstarted-optiga-trust-m/optiga-trust-m-1/externals/mbedtls/library/bignum.c ****         *p +=  c; c  = ( *p <  c );
1013://MAC/Home/Downloads/getstarted-optiga-trust-m/optiga-trust-m-1/externals/mbedtls/library/bignum.c ****         *p += tmp; c += ( *p < tmp );
1014://MAC/Home/Downloads/getstarted-optiga-trust-m/optiga-trust-m-1/externals/mbedtls/library/bignum.c ****     }
1015://MAC/Home/Downloads/getstarted-optiga-trust-m/optiga-trust-m-1/externals/mbedtls/library/bignum.c **** 
1016://MAC/Home/Downloads/getstarted-optiga-trust-m/optiga-trust-m-1/externals/mbedtls/library/bignum.c ****     while( c != 0 )
1017://MAC/Home/Downloads/getstarted-optiga-trust-m/optiga-trust-m-1/externals/mbedtls/library/bignum.c ****     {
1018://MAC/Home/Downloads/getstarted-optiga-trust-m/optiga-trust-m-1/externals/mbedtls/library/bignum.c ****         if( i >= X->n )
1019://MAC/Home/Downloads/getstarted-optiga-trust-m/optiga-trust-m-1/externals/mbedtls/library/bignum.c ****         {
1020://MAC/Home/Downloads/getstarted-optiga-trust-m/optiga-trust-m-1/externals/mbedtls/library/bignum.c ****             MBEDTLS_MPI_CHK( mbedtls_mpi_grow( X, i + 1 ) );
1021://MAC/Home/Downloads/getstarted-optiga-trust-m/optiga-trust-m-1/externals/mbedtls/library/bignum.c ****             p = X->p + i;
1022://MAC/Home/Downloads/getstarted-optiga-trust-m/optiga-trust-m-1/externals/mbedtls/library/bignum.c ****         }
1023://MAC/Home/Downloads/getstarted-optiga-trust-m/optiga-trust-m-1/externals/mbedtls/library/bignum.c **** 
1024://MAC/Home/Downloads/getstarted-optiga-trust-m/optiga-trust-m-1/externals/mbedtls/library/bignum.c ****         *p += c; c = ( *p < c ); i++; p++;
1025://MAC/Home/Downloads/getstarted-optiga-trust-m/optiga-trust-m-1/externals/mbedtls/library/bignum.c ****     }
1026://MAC/Home/Downloads/getstarted-optiga-trust-m/optiga-trust-m-1/externals/mbedtls/library/bignum.c **** 
1027://MAC/Home/Downloads/getstarted-optiga-trust-m/optiga-trust-m-1/externals/mbedtls/library/bignum.c **** cleanup:
1028://MAC/Home/Downloads/getstarted-optiga-trust-m/optiga-trust-m-1/externals/mbedtls/library/bignum.c **** 
1029://MAC/Home/Downloads/getstarted-optiga-trust-m/optiga-trust-m-1/externals/mbedtls/library/bignum.c ****     return( ret );
1030://MAC/Home/Downloads/getstarted-optiga-trust-m/optiga-trust-m-1/externals/mbedtls/library/bignum.c **** }
1031://MAC/Home/Downloads/getstarted-optiga-trust-m/optiga-trust-m-1/externals/mbedtls/library/bignum.c **** 
1032://MAC/Home/Downloads/getstarted-optiga-trust-m/optiga-trust-m-1/externals/mbedtls/library/bignum.c **** /*
1033://MAC/Home/Downloads/getstarted-optiga-trust-m/optiga-trust-m-1/externals/mbedtls/library/bignum.c ****  * Helper for mbedtls_mpi subtraction
1034://MAC/Home/Downloads/getstarted-optiga-trust-m/optiga-trust-m-1/externals/mbedtls/library/bignum.c ****  */
1035://MAC/Home/Downloads/getstarted-optiga-trust-m/optiga-trust-m-1/externals/mbedtls/library/bignum.c **** static void mpi_sub_hlp( size_t n, mbedtls_mpi_uint *s, mbedtls_mpi_uint *d )
1036://MAC/Home/Downloads/getstarted-optiga-trust-m/optiga-trust-m-1/externals/mbedtls/library/bignum.c **** {
  89              	 .loc 1 1036 0
  90              	 .cfi_startproc
  91              	.LVL3:
1037://MAC/Home/Downloads/getstarted-optiga-trust-m/optiga-trust-m-1/externals/mbedtls/library/bignum.c ****     size_t i;
1038://MAC/Home/Downloads/getstarted-optiga-trust-m/optiga-trust-m-1/externals/mbedtls/library/bignum.c ****     mbedtls_mpi_uint c, z;
1039://MAC/Home/Downloads/getstarted-optiga-trust-m/optiga-trust-m-1/externals/mbedtls/library/bignum.c **** 
1040://MAC/Home/Downloads/getstarted-optiga-trust-m/optiga-trust-m-1/externals/mbedtls/library/bignum.c ****     for( i = c = 0; i < n; i++, s++, d++ )
  92              	 .loc 1 1040 0
  93 0000 0023     	 mov r3,#0
1036://MAC/Home/Downloads/getstarted-optiga-trust-m/optiga-trust-m-1/externals/mbedtls/library/bignum.c ****     size_t i;
  94              	 .loc 1 1036 0
  95 0002 F0B5     	 push {r4,r5,r6,r7,lr}
  96              	.LCFI1:
  97              	 .cfi_def_cfa_offset 20
  98              	 .cfi_offset 4,-20
  99              	 .cfi_offset 5,-16
 100              	 .cfi_offset 6,-12
 101              	 .cfi_offset 7,-8
 102              	 .cfi_offset 14,-4
 103              	 .loc 1 1040 0
 104 0004 161C     	 mov r6,r2
 105 0006 1C1C     	 mov r4,r3
 106              	.LVL4:
 107              	.L10:
 108              	 .loc 1 1040 0 is_stmt 0 discriminator 1
 109 0008 8442     	 cmp r4,r0
 110 000a 11D0     	 beq .L14
1041://MAC/Home/Downloads/getstarted-optiga-trust-m/optiga-trust-m-1/externals/mbedtls/library/bignum.c ****     {
1042://MAC/Home/Downloads/getstarted-optiga-trust-m/optiga-trust-m-1/externals/mbedtls/library/bignum.c ****         z = ( *d <  c );     *d -=  c;
 111              	 .loc 1 1042 0 is_stmt 1 discriminator 3
 112 000c 3568     	 ldr r5,[r6]
 113 000e 9D42     	 cmp r5,r3
 114 0010 BF41     	 sbc r7,r7,r7
 115 0012 ED1A     	 sub r5,r5,r3
 116 0014 3560     	 str r5,[r6]
 117 0016 A300     	 lsl r3,r4,#2
 118              	.LVL5:
1043://MAC/Home/Downloads/getstarted-optiga-trust-m/optiga-trust-m-1/externals/mbedtls/library/bignum.c ****         c = ( *d < *s ) + z; *d -= *s;
 119              	 .loc 1 1043 0 discriminator 3
 120 0018 CB58     	 ldr r3,[r1,r3]
1042://MAC/Home/Downloads/getstarted-optiga-trust-m/optiga-trust-m-1/externals/mbedtls/library/bignum.c ****         c = ( *d < *s ) + z; *d -= *s;
 121              	 .loc 1 1042 0 discriminator 3
 122 001a 7F42     	 neg r7,r7
 123              	.LVL6:
 124              	 .loc 1 1043 0 discriminator 3
 125 001c 9C46     	 mov ip,r3
 126 001e 9D42     	 cmp r5,r3
 127 0020 9B41     	 sbc r3,r3,r3
 128 0022 5B42     	 neg r3,r3
 129 0024 DB19     	 add r3,r3,r7
 130              	.LVL7:
 131 0026 6746     	 mov r7,ip
 132              	.LVL8:
 133 0028 ED1B     	 sub r5,r5,r7
 134 002a 20C6     	 stmia r6!,{r5}
 135              	.LVL9:
1040://MAC/Home/Downloads/getstarted-optiga-trust-m/optiga-trust-m-1/externals/mbedtls/library/bignum.c ****     {
 136              	 .loc 1 1040 0 discriminator 3
 137 002c 0134     	 add r4,r4,#1
 138              	.LVL10:
 139 002e EBE7     	 b .L10
 140              	.LVL11:
 141              	.L14:
 142 0030 A400     	 lsl r4,r4,#2
 143              	.LVL12:
 144 0032 1219     	 add r2,r2,r4
 145              	.LVL13:
 146              	.L12:
1044://MAC/Home/Downloads/getstarted-optiga-trust-m/optiga-trust-m-1/externals/mbedtls/library/bignum.c ****     }
1045://MAC/Home/Downloads/getstarted-optiga-trust-m/optiga-trust-m-1/externals/mbedtls/library/bignum.c **** 
1046://MAC/Home/Downloads/getstarted-optiga-trust-m/optiga-trust-m-1/externals/mbedtls/library/bignum.c ****     while( c != 0 )
 147              	 .loc 1 1046 0
 148 0034 002B     	 cmp r3,#0
 149 0036 06D0     	 beq .L15
1047://MAC/Home/Downloads/getstarted-optiga-trust-m/optiga-trust-m-1/externals/mbedtls/library/bignum.c ****     {
1048://MAC/Home/Downloads/getstarted-optiga-trust-m/optiga-trust-m-1/externals/mbedtls/library/bignum.c ****         z = ( *d < c ); *d -= c;
 150              	 .loc 1 1048 0
 151 0038 1168     	 ldr r1,[r2]
 152              	.LVL14:
 153 003a C81A     	 sub r0,r1,r3
1049://MAC/Home/Downloads/getstarted-optiga-trust-m/optiga-trust-m-1/externals/mbedtls/library/bignum.c ****         c = z; d++;
 154              	 .loc 1 1049 0
 155 003c 9942     	 cmp r1,r3
 156 003e 9B41     	 sbc r3,r3,r3
 157              	.LVL15:
1048://MAC/Home/Downloads/getstarted-optiga-trust-m/optiga-trust-m-1/externals/mbedtls/library/bignum.c ****         c = z; d++;
 158              	 .loc 1 1048 0
 159 0040 01C2     	 stmia r2!,{r0}
 160              	.LVL16:
 161              	 .loc 1 1049 0
 162 0042 5B42     	 neg r3,r3
 163 0044 F6E7     	 b .L12
 164              	.LVL17:
 165              	.L15:
1050://MAC/Home/Downloads/getstarted-optiga-trust-m/optiga-trust-m-1/externals/mbedtls/library/bignum.c ****     }
1051://MAC/Home/Downloads/getstarted-optiga-trust-m/optiga-trust-m-1/externals/mbedtls/library/bignum.c **** }
 166              	 .loc 1 1051 0
 167              	 
 168              	.LVL18:
 169 0046 F0BD     	 pop {r4,r5,r6,r7,pc}
 170              	 .cfi_endproc
 171              	.LFE28:
 173              	 .global __aeabi_lmul
 174              	 .section .text.mpi_mul_hlp,"ax",%progbits
 175              	 .align 1
 176              	 .code 16
 177              	 .thumb_func
 179              	mpi_mul_hlp:
 180              	.LFB34:
1052://MAC/Home/Downloads/getstarted-optiga-trust-m/optiga-trust-m-1/externals/mbedtls/library/bignum.c **** 
1053://MAC/Home/Downloads/getstarted-optiga-trust-m/optiga-trust-m-1/externals/mbedtls/library/bignum.c **** /*
1054://MAC/Home/Downloads/getstarted-optiga-trust-m/optiga-trust-m-1/externals/mbedtls/library/bignum.c ****  * Unsigned subtraction: X = |A| - |B|  (HAC 14.9)
1055://MAC/Home/Downloads/getstarted-optiga-trust-m/optiga-trust-m-1/externals/mbedtls/library/bignum.c ****  */
1056://MAC/Home/Downloads/getstarted-optiga-trust-m/optiga-trust-m-1/externals/mbedtls/library/bignum.c **** int mbedtls_mpi_sub_abs( mbedtls_mpi *X, const mbedtls_mpi *A, const mbedtls_mpi *B )
1057://MAC/Home/Downloads/getstarted-optiga-trust-m/optiga-trust-m-1/externals/mbedtls/library/bignum.c **** {
1058://MAC/Home/Downloads/getstarted-optiga-trust-m/optiga-trust-m-1/externals/mbedtls/library/bignum.c ****     mbedtls_mpi TB;
1059://MAC/Home/Downloads/getstarted-optiga-trust-m/optiga-trust-m-1/externals/mbedtls/library/bignum.c ****     int ret;
1060://MAC/Home/Downloads/getstarted-optiga-trust-m/optiga-trust-m-1/externals/mbedtls/library/bignum.c ****     size_t n;
1061://MAC/Home/Downloads/getstarted-optiga-trust-m/optiga-trust-m-1/externals/mbedtls/library/bignum.c ****     MPI_VALIDATE_RET( X != NULL );
1062://MAC/Home/Downloads/getstarted-optiga-trust-m/optiga-trust-m-1/externals/mbedtls/library/bignum.c ****     MPI_VALIDATE_RET( A != NULL );
1063://MAC/Home/Downloads/getstarted-optiga-trust-m/optiga-trust-m-1/externals/mbedtls/library/bignum.c ****     MPI_VALIDATE_RET( B != NULL );
1064://MAC/Home/Downloads/getstarted-optiga-trust-m/optiga-trust-m-1/externals/mbedtls/library/bignum.c **** 
1065://MAC/Home/Downloads/getstarted-optiga-trust-m/optiga-trust-m-1/externals/mbedtls/library/bignum.c ****     if( mbedtls_mpi_cmp_abs( A, B ) < 0 )
1066://MAC/Home/Downloads/getstarted-optiga-trust-m/optiga-trust-m-1/externals/mbedtls/library/bignum.c ****         return( MBEDTLS_ERR_MPI_NEGATIVE_VALUE );
1067://MAC/Home/Downloads/getstarted-optiga-trust-m/optiga-trust-m-1/externals/mbedtls/library/bignum.c **** 
1068://MAC/Home/Downloads/getstarted-optiga-trust-m/optiga-trust-m-1/externals/mbedtls/library/bignum.c ****     mbedtls_mpi_init( &TB );
1069://MAC/Home/Downloads/getstarted-optiga-trust-m/optiga-trust-m-1/externals/mbedtls/library/bignum.c **** 
1070://MAC/Home/Downloads/getstarted-optiga-trust-m/optiga-trust-m-1/externals/mbedtls/library/bignum.c ****     if( X == B )
1071://MAC/Home/Downloads/getstarted-optiga-trust-m/optiga-trust-m-1/externals/mbedtls/library/bignum.c ****     {
1072://MAC/Home/Downloads/getstarted-optiga-trust-m/optiga-trust-m-1/externals/mbedtls/library/bignum.c ****         MBEDTLS_MPI_CHK( mbedtls_mpi_copy( &TB, B ) );
1073://MAC/Home/Downloads/getstarted-optiga-trust-m/optiga-trust-m-1/externals/mbedtls/library/bignum.c ****         B = &TB;
1074://MAC/Home/Downloads/getstarted-optiga-trust-m/optiga-trust-m-1/externals/mbedtls/library/bignum.c ****     }
1075://MAC/Home/Downloads/getstarted-optiga-trust-m/optiga-trust-m-1/externals/mbedtls/library/bignum.c **** 
1076://MAC/Home/Downloads/getstarted-optiga-trust-m/optiga-trust-m-1/externals/mbedtls/library/bignum.c ****     if( X != A )
1077://MAC/Home/Downloads/getstarted-optiga-trust-m/optiga-trust-m-1/externals/mbedtls/library/bignum.c ****         MBEDTLS_MPI_CHK( mbedtls_mpi_copy( X, A ) );
1078://MAC/Home/Downloads/getstarted-optiga-trust-m/optiga-trust-m-1/externals/mbedtls/library/bignum.c **** 
1079://MAC/Home/Downloads/getstarted-optiga-trust-m/optiga-trust-m-1/externals/mbedtls/library/bignum.c ****     /*
1080://MAC/Home/Downloads/getstarted-optiga-trust-m/optiga-trust-m-1/externals/mbedtls/library/bignum.c ****      * X should always be positive as a result of unsigned subtractions.
1081://MAC/Home/Downloads/getstarted-optiga-trust-m/optiga-trust-m-1/externals/mbedtls/library/bignum.c ****      */
1082://MAC/Home/Downloads/getstarted-optiga-trust-m/optiga-trust-m-1/externals/mbedtls/library/bignum.c ****     X->s = 1;
1083://MAC/Home/Downloads/getstarted-optiga-trust-m/optiga-trust-m-1/externals/mbedtls/library/bignum.c **** 
1084://MAC/Home/Downloads/getstarted-optiga-trust-m/optiga-trust-m-1/externals/mbedtls/library/bignum.c ****     ret = 0;
1085://MAC/Home/Downloads/getstarted-optiga-trust-m/optiga-trust-m-1/externals/mbedtls/library/bignum.c **** 
1086://MAC/Home/Downloads/getstarted-optiga-trust-m/optiga-trust-m-1/externals/mbedtls/library/bignum.c ****     for( n = B->n; n > 0; n-- )
1087://MAC/Home/Downloads/getstarted-optiga-trust-m/optiga-trust-m-1/externals/mbedtls/library/bignum.c ****         if( B->p[n - 1] != 0 )
1088://MAC/Home/Downloads/getstarted-optiga-trust-m/optiga-trust-m-1/externals/mbedtls/library/bignum.c ****             break;
1089://MAC/Home/Downloads/getstarted-optiga-trust-m/optiga-trust-m-1/externals/mbedtls/library/bignum.c **** 
1090://MAC/Home/Downloads/getstarted-optiga-trust-m/optiga-trust-m-1/externals/mbedtls/library/bignum.c ****     mpi_sub_hlp( n, B->p, X->p );
1091://MAC/Home/Downloads/getstarted-optiga-trust-m/optiga-trust-m-1/externals/mbedtls/library/bignum.c **** 
1092://MAC/Home/Downloads/getstarted-optiga-trust-m/optiga-trust-m-1/externals/mbedtls/library/bignum.c **** cleanup:
1093://MAC/Home/Downloads/getstarted-optiga-trust-m/optiga-trust-m-1/externals/mbedtls/library/bignum.c **** 
1094://MAC/Home/Downloads/getstarted-optiga-trust-m/optiga-trust-m-1/externals/mbedtls/library/bignum.c ****     mbedtls_mpi_free( &TB );
1095://MAC/Home/Downloads/getstarted-optiga-trust-m/optiga-trust-m-1/externals/mbedtls/library/bignum.c **** 
1096://MAC/Home/Downloads/getstarted-optiga-trust-m/optiga-trust-m-1/externals/mbedtls/library/bignum.c ****     return( ret );
1097://MAC/Home/Downloads/getstarted-optiga-trust-m/optiga-trust-m-1/externals/mbedtls/library/bignum.c **** }
1098://MAC/Home/Downloads/getstarted-optiga-trust-m/optiga-trust-m-1/externals/mbedtls/library/bignum.c **** 
1099://MAC/Home/Downloads/getstarted-optiga-trust-m/optiga-trust-m-1/externals/mbedtls/library/bignum.c **** /*
1100://MAC/Home/Downloads/getstarted-optiga-trust-m/optiga-trust-m-1/externals/mbedtls/library/bignum.c ****  * Signed addition: X = A + B
1101://MAC/Home/Downloads/getstarted-optiga-trust-m/optiga-trust-m-1/externals/mbedtls/library/bignum.c ****  */
1102://MAC/Home/Downloads/getstarted-optiga-trust-m/optiga-trust-m-1/externals/mbedtls/library/bignum.c **** int mbedtls_mpi_add_mpi( mbedtls_mpi *X, const mbedtls_mpi *A, const mbedtls_mpi *B )
1103://MAC/Home/Downloads/getstarted-optiga-trust-m/optiga-trust-m-1/externals/mbedtls/library/bignum.c **** {
1104://MAC/Home/Downloads/getstarted-optiga-trust-m/optiga-trust-m-1/externals/mbedtls/library/bignum.c ****     int ret, s;
1105://MAC/Home/Downloads/getstarted-optiga-trust-m/optiga-trust-m-1/externals/mbedtls/library/bignum.c ****     MPI_VALIDATE_RET( X != NULL );
1106://MAC/Home/Downloads/getstarted-optiga-trust-m/optiga-trust-m-1/externals/mbedtls/library/bignum.c ****     MPI_VALIDATE_RET( A != NULL );
1107://MAC/Home/Downloads/getstarted-optiga-trust-m/optiga-trust-m-1/externals/mbedtls/library/bignum.c ****     MPI_VALIDATE_RET( B != NULL );
1108://MAC/Home/Downloads/getstarted-optiga-trust-m/optiga-trust-m-1/externals/mbedtls/library/bignum.c **** 
1109://MAC/Home/Downloads/getstarted-optiga-trust-m/optiga-trust-m-1/externals/mbedtls/library/bignum.c ****     s = A->s;
1110://MAC/Home/Downloads/getstarted-optiga-trust-m/optiga-trust-m-1/externals/mbedtls/library/bignum.c ****     if( A->s * B->s < 0 )
1111://MAC/Home/Downloads/getstarted-optiga-trust-m/optiga-trust-m-1/externals/mbedtls/library/bignum.c ****     {
1112://MAC/Home/Downloads/getstarted-optiga-trust-m/optiga-trust-m-1/externals/mbedtls/library/bignum.c ****         if( mbedtls_mpi_cmp_abs( A, B ) >= 0 )
1113://MAC/Home/Downloads/getstarted-optiga-trust-m/optiga-trust-m-1/externals/mbedtls/library/bignum.c ****         {
1114://MAC/Home/Downloads/getstarted-optiga-trust-m/optiga-trust-m-1/externals/mbedtls/library/bignum.c ****             MBEDTLS_MPI_CHK( mbedtls_mpi_sub_abs( X, A, B ) );
1115://MAC/Home/Downloads/getstarted-optiga-trust-m/optiga-trust-m-1/externals/mbedtls/library/bignum.c ****             X->s =  s;
1116://MAC/Home/Downloads/getstarted-optiga-trust-m/optiga-trust-m-1/externals/mbedtls/library/bignum.c ****         }
1117://MAC/Home/Downloads/getstarted-optiga-trust-m/optiga-trust-m-1/externals/mbedtls/library/bignum.c ****         else
1118://MAC/Home/Downloads/getstarted-optiga-trust-m/optiga-trust-m-1/externals/mbedtls/library/bignum.c ****         {
1119://MAC/Home/Downloads/getstarted-optiga-trust-m/optiga-trust-m-1/externals/mbedtls/library/bignum.c ****             MBEDTLS_MPI_CHK( mbedtls_mpi_sub_abs( X, B, A ) );
1120://MAC/Home/Downloads/getstarted-optiga-trust-m/optiga-trust-m-1/externals/mbedtls/library/bignum.c ****             X->s = -s;
1121://MAC/Home/Downloads/getstarted-optiga-trust-m/optiga-trust-m-1/externals/mbedtls/library/bignum.c ****         }
1122://MAC/Home/Downloads/getstarted-optiga-trust-m/optiga-trust-m-1/externals/mbedtls/library/bignum.c ****     }
1123://MAC/Home/Downloads/getstarted-optiga-trust-m/optiga-trust-m-1/externals/mbedtls/library/bignum.c ****     else
1124://MAC/Home/Downloads/getstarted-optiga-trust-m/optiga-trust-m-1/externals/mbedtls/library/bignum.c ****     {
1125://MAC/Home/Downloads/getstarted-optiga-trust-m/optiga-trust-m-1/externals/mbedtls/library/bignum.c ****         MBEDTLS_MPI_CHK( mbedtls_mpi_add_abs( X, A, B ) );
1126://MAC/Home/Downloads/getstarted-optiga-trust-m/optiga-trust-m-1/externals/mbedtls/library/bignum.c ****         X->s = s;
1127://MAC/Home/Downloads/getstarted-optiga-trust-m/optiga-trust-m-1/externals/mbedtls/library/bignum.c ****     }
1128://MAC/Home/Downloads/getstarted-optiga-trust-m/optiga-trust-m-1/externals/mbedtls/library/bignum.c **** 
1129://MAC/Home/Downloads/getstarted-optiga-trust-m/optiga-trust-m-1/externals/mbedtls/library/bignum.c **** cleanup:
1130://MAC/Home/Downloads/getstarted-optiga-trust-m/optiga-trust-m-1/externals/mbedtls/library/bignum.c **** 
1131://MAC/Home/Downloads/getstarted-optiga-trust-m/optiga-trust-m-1/externals/mbedtls/library/bignum.c ****     return( ret );
1132://MAC/Home/Downloads/getstarted-optiga-trust-m/optiga-trust-m-1/externals/mbedtls/library/bignum.c **** }
1133://MAC/Home/Downloads/getstarted-optiga-trust-m/optiga-trust-m-1/externals/mbedtls/library/bignum.c **** 
1134://MAC/Home/Downloads/getstarted-optiga-trust-m/optiga-trust-m-1/externals/mbedtls/library/bignum.c **** /*
1135://MAC/Home/Downloads/getstarted-optiga-trust-m/optiga-trust-m-1/externals/mbedtls/library/bignum.c ****  * Signed subtraction: X = A - B
1136://MAC/Home/Downloads/getstarted-optiga-trust-m/optiga-trust-m-1/externals/mbedtls/library/bignum.c ****  */
1137://MAC/Home/Downloads/getstarted-optiga-trust-m/optiga-trust-m-1/externals/mbedtls/library/bignum.c **** int mbedtls_mpi_sub_mpi( mbedtls_mpi *X, const mbedtls_mpi *A, const mbedtls_mpi *B )
1138://MAC/Home/Downloads/getstarted-optiga-trust-m/optiga-trust-m-1/externals/mbedtls/library/bignum.c **** {
1139://MAC/Home/Downloads/getstarted-optiga-trust-m/optiga-trust-m-1/externals/mbedtls/library/bignum.c ****     int ret, s;
1140://MAC/Home/Downloads/getstarted-optiga-trust-m/optiga-trust-m-1/externals/mbedtls/library/bignum.c ****     MPI_VALIDATE_RET( X != NULL );
1141://MAC/Home/Downloads/getstarted-optiga-trust-m/optiga-trust-m-1/externals/mbedtls/library/bignum.c ****     MPI_VALIDATE_RET( A != NULL );
1142://MAC/Home/Downloads/getstarted-optiga-trust-m/optiga-trust-m-1/externals/mbedtls/library/bignum.c ****     MPI_VALIDATE_RET( B != NULL );
1143://MAC/Home/Downloads/getstarted-optiga-trust-m/optiga-trust-m-1/externals/mbedtls/library/bignum.c **** 
1144://MAC/Home/Downloads/getstarted-optiga-trust-m/optiga-trust-m-1/externals/mbedtls/library/bignum.c ****     s = A->s;
1145://MAC/Home/Downloads/getstarted-optiga-trust-m/optiga-trust-m-1/externals/mbedtls/library/bignum.c ****     if( A->s * B->s > 0 )
1146://MAC/Home/Downloads/getstarted-optiga-trust-m/optiga-trust-m-1/externals/mbedtls/library/bignum.c ****     {
1147://MAC/Home/Downloads/getstarted-optiga-trust-m/optiga-trust-m-1/externals/mbedtls/library/bignum.c ****         if( mbedtls_mpi_cmp_abs( A, B ) >= 0 )
1148://MAC/Home/Downloads/getstarted-optiga-trust-m/optiga-trust-m-1/externals/mbedtls/library/bignum.c ****         {
1149://MAC/Home/Downloads/getstarted-optiga-trust-m/optiga-trust-m-1/externals/mbedtls/library/bignum.c ****             MBEDTLS_MPI_CHK( mbedtls_mpi_sub_abs( X, A, B ) );
1150://MAC/Home/Downloads/getstarted-optiga-trust-m/optiga-trust-m-1/externals/mbedtls/library/bignum.c ****             X->s =  s;
1151://MAC/Home/Downloads/getstarted-optiga-trust-m/optiga-trust-m-1/externals/mbedtls/library/bignum.c ****         }
1152://MAC/Home/Downloads/getstarted-optiga-trust-m/optiga-trust-m-1/externals/mbedtls/library/bignum.c ****         else
1153://MAC/Home/Downloads/getstarted-optiga-trust-m/optiga-trust-m-1/externals/mbedtls/library/bignum.c ****         {
1154://MAC/Home/Downloads/getstarted-optiga-trust-m/optiga-trust-m-1/externals/mbedtls/library/bignum.c ****             MBEDTLS_MPI_CHK( mbedtls_mpi_sub_abs( X, B, A ) );
1155://MAC/Home/Downloads/getstarted-optiga-trust-m/optiga-trust-m-1/externals/mbedtls/library/bignum.c ****             X->s = -s;
1156://MAC/Home/Downloads/getstarted-optiga-trust-m/optiga-trust-m-1/externals/mbedtls/library/bignum.c ****         }
1157://MAC/Home/Downloads/getstarted-optiga-trust-m/optiga-trust-m-1/externals/mbedtls/library/bignum.c ****     }
1158://MAC/Home/Downloads/getstarted-optiga-trust-m/optiga-trust-m-1/externals/mbedtls/library/bignum.c ****     else
1159://MAC/Home/Downloads/getstarted-optiga-trust-m/optiga-trust-m-1/externals/mbedtls/library/bignum.c ****     {
1160://MAC/Home/Downloads/getstarted-optiga-trust-m/optiga-trust-m-1/externals/mbedtls/library/bignum.c ****         MBEDTLS_MPI_CHK( mbedtls_mpi_add_abs( X, A, B ) );
1161://MAC/Home/Downloads/getstarted-optiga-trust-m/optiga-trust-m-1/externals/mbedtls/library/bignum.c ****         X->s = s;
1162://MAC/Home/Downloads/getstarted-optiga-trust-m/optiga-trust-m-1/externals/mbedtls/library/bignum.c ****     }
1163://MAC/Home/Downloads/getstarted-optiga-trust-m/optiga-trust-m-1/externals/mbedtls/library/bignum.c **** 
1164://MAC/Home/Downloads/getstarted-optiga-trust-m/optiga-trust-m-1/externals/mbedtls/library/bignum.c **** cleanup:
1165://MAC/Home/Downloads/getstarted-optiga-trust-m/optiga-trust-m-1/externals/mbedtls/library/bignum.c **** 
1166://MAC/Home/Downloads/getstarted-optiga-trust-m/optiga-trust-m-1/externals/mbedtls/library/bignum.c ****     return( ret );
1167://MAC/Home/Downloads/getstarted-optiga-trust-m/optiga-trust-m-1/externals/mbedtls/library/bignum.c **** }
1168://MAC/Home/Downloads/getstarted-optiga-trust-m/optiga-trust-m-1/externals/mbedtls/library/bignum.c **** 
1169://MAC/Home/Downloads/getstarted-optiga-trust-m/optiga-trust-m-1/externals/mbedtls/library/bignum.c **** /*
1170://MAC/Home/Downloads/getstarted-optiga-trust-m/optiga-trust-m-1/externals/mbedtls/library/bignum.c ****  * Signed addition: X = A + b
1171://MAC/Home/Downloads/getstarted-optiga-trust-m/optiga-trust-m-1/externals/mbedtls/library/bignum.c ****  */
1172://MAC/Home/Downloads/getstarted-optiga-trust-m/optiga-trust-m-1/externals/mbedtls/library/bignum.c **** int mbedtls_mpi_add_int( mbedtls_mpi *X, const mbedtls_mpi *A, mbedtls_mpi_sint b )
1173://MAC/Home/Downloads/getstarted-optiga-trust-m/optiga-trust-m-1/externals/mbedtls/library/bignum.c **** {
1174://MAC/Home/Downloads/getstarted-optiga-trust-m/optiga-trust-m-1/externals/mbedtls/library/bignum.c ****     mbedtls_mpi _B;
1175://MAC/Home/Downloads/getstarted-optiga-trust-m/optiga-trust-m-1/externals/mbedtls/library/bignum.c ****     mbedtls_mpi_uint p[1];
1176://MAC/Home/Downloads/getstarted-optiga-trust-m/optiga-trust-m-1/externals/mbedtls/library/bignum.c ****     MPI_VALIDATE_RET( X != NULL );
1177://MAC/Home/Downloads/getstarted-optiga-trust-m/optiga-trust-m-1/externals/mbedtls/library/bignum.c ****     MPI_VALIDATE_RET( A != NULL );
1178://MAC/Home/Downloads/getstarted-optiga-trust-m/optiga-trust-m-1/externals/mbedtls/library/bignum.c **** 
1179://MAC/Home/Downloads/getstarted-optiga-trust-m/optiga-trust-m-1/externals/mbedtls/library/bignum.c ****     p[0] = ( b < 0 ) ? -b : b;
1180://MAC/Home/Downloads/getstarted-optiga-trust-m/optiga-trust-m-1/externals/mbedtls/library/bignum.c ****     _B.s = ( b < 0 ) ? -1 : 1;
1181://MAC/Home/Downloads/getstarted-optiga-trust-m/optiga-trust-m-1/externals/mbedtls/library/bignum.c ****     _B.n = 1;
1182://MAC/Home/Downloads/getstarted-optiga-trust-m/optiga-trust-m-1/externals/mbedtls/library/bignum.c ****     _B.p = p;
1183://MAC/Home/Downloads/getstarted-optiga-trust-m/optiga-trust-m-1/externals/mbedtls/library/bignum.c **** 
1184://MAC/Home/Downloads/getstarted-optiga-trust-m/optiga-trust-m-1/externals/mbedtls/library/bignum.c ****     return( mbedtls_mpi_add_mpi( X, A, &_B ) );
1185://MAC/Home/Downloads/getstarted-optiga-trust-m/optiga-trust-m-1/externals/mbedtls/library/bignum.c **** }
1186://MAC/Home/Downloads/getstarted-optiga-trust-m/optiga-trust-m-1/externals/mbedtls/library/bignum.c **** 
1187://MAC/Home/Downloads/getstarted-optiga-trust-m/optiga-trust-m-1/externals/mbedtls/library/bignum.c **** /*
1188://MAC/Home/Downloads/getstarted-optiga-trust-m/optiga-trust-m-1/externals/mbedtls/library/bignum.c ****  * Signed subtraction: X = A - b
1189://MAC/Home/Downloads/getstarted-optiga-trust-m/optiga-trust-m-1/externals/mbedtls/library/bignum.c ****  */
1190://MAC/Home/Downloads/getstarted-optiga-trust-m/optiga-trust-m-1/externals/mbedtls/library/bignum.c **** int mbedtls_mpi_sub_int( mbedtls_mpi *X, const mbedtls_mpi *A, mbedtls_mpi_sint b )
1191://MAC/Home/Downloads/getstarted-optiga-trust-m/optiga-trust-m-1/externals/mbedtls/library/bignum.c **** {
1192://MAC/Home/Downloads/getstarted-optiga-trust-m/optiga-trust-m-1/externals/mbedtls/library/bignum.c ****     mbedtls_mpi _B;
1193://MAC/Home/Downloads/getstarted-optiga-trust-m/optiga-trust-m-1/externals/mbedtls/library/bignum.c ****     mbedtls_mpi_uint p[1];
1194://MAC/Home/Downloads/getstarted-optiga-trust-m/optiga-trust-m-1/externals/mbedtls/library/bignum.c ****     MPI_VALIDATE_RET( X != NULL );
1195://MAC/Home/Downloads/getstarted-optiga-trust-m/optiga-trust-m-1/externals/mbedtls/library/bignum.c ****     MPI_VALIDATE_RET( A != NULL );
1196://MAC/Home/Downloads/getstarted-optiga-trust-m/optiga-trust-m-1/externals/mbedtls/library/bignum.c **** 
1197://MAC/Home/Downloads/getstarted-optiga-trust-m/optiga-trust-m-1/externals/mbedtls/library/bignum.c ****     p[0] = ( b < 0 ) ? -b : b;
1198://MAC/Home/Downloads/getstarted-optiga-trust-m/optiga-trust-m-1/externals/mbedtls/library/bignum.c ****     _B.s = ( b < 0 ) ? -1 : 1;
1199://MAC/Home/Downloads/getstarted-optiga-trust-m/optiga-trust-m-1/externals/mbedtls/library/bignum.c ****     _B.n = 1;
1200://MAC/Home/Downloads/getstarted-optiga-trust-m/optiga-trust-m-1/externals/mbedtls/library/bignum.c ****     _B.p = p;
1201://MAC/Home/Downloads/getstarted-optiga-trust-m/optiga-trust-m-1/externals/mbedtls/library/bignum.c **** 
1202://MAC/Home/Downloads/getstarted-optiga-trust-m/optiga-trust-m-1/externals/mbedtls/library/bignum.c ****     return( mbedtls_mpi_sub_mpi( X, A, &_B ) );
1203://MAC/Home/Downloads/getstarted-optiga-trust-m/optiga-trust-m-1/externals/mbedtls/library/bignum.c **** }
1204://MAC/Home/Downloads/getstarted-optiga-trust-m/optiga-trust-m-1/externals/mbedtls/library/bignum.c **** 
1205://MAC/Home/Downloads/getstarted-optiga-trust-m/optiga-trust-m-1/externals/mbedtls/library/bignum.c **** /*
1206://MAC/Home/Downloads/getstarted-optiga-trust-m/optiga-trust-m-1/externals/mbedtls/library/bignum.c ****  * Helper for mbedtls_mpi multiplication
1207://MAC/Home/Downloads/getstarted-optiga-trust-m/optiga-trust-m-1/externals/mbedtls/library/bignum.c ****  */
1208://MAC/Home/Downloads/getstarted-optiga-trust-m/optiga-trust-m-1/externals/mbedtls/library/bignum.c **** static
1209://MAC/Home/Downloads/getstarted-optiga-trust-m/optiga-trust-m-1/externals/mbedtls/library/bignum.c **** #if defined(__APPLE__) && defined(__arm__)
1210://MAC/Home/Downloads/getstarted-optiga-trust-m/optiga-trust-m-1/externals/mbedtls/library/bignum.c **** /*
1211://MAC/Home/Downloads/getstarted-optiga-trust-m/optiga-trust-m-1/externals/mbedtls/library/bignum.c ****  * Apple LLVM version 4.2 (clang-425.0.24) (based on LLVM 3.2svn)
1212://MAC/Home/Downloads/getstarted-optiga-trust-m/optiga-trust-m-1/externals/mbedtls/library/bignum.c ****  * appears to need this to prevent bad ARM code generation at -O3.
1213://MAC/Home/Downloads/getstarted-optiga-trust-m/optiga-trust-m-1/externals/mbedtls/library/bignum.c ****  */
1214://MAC/Home/Downloads/getstarted-optiga-trust-m/optiga-trust-m-1/externals/mbedtls/library/bignum.c **** __attribute__ ((noinline))
1215://MAC/Home/Downloads/getstarted-optiga-trust-m/optiga-trust-m-1/externals/mbedtls/library/bignum.c **** #endif
1216://MAC/Home/Downloads/getstarted-optiga-trust-m/optiga-trust-m-1/externals/mbedtls/library/bignum.c **** void mpi_mul_hlp( size_t i, mbedtls_mpi_uint *s, mbedtls_mpi_uint *d, mbedtls_mpi_uint b )
1217://MAC/Home/Downloads/getstarted-optiga-trust-m/optiga-trust-m-1/externals/mbedtls/library/bignum.c **** {
 181              	 .loc 1 1217 0
 182              	 .cfi_startproc
 183              	.LVL19:
 184 0000 F0B5     	 push {r4,r5,r6,r7,lr}
 185              	.LCFI2:
 186              	 .cfi_def_cfa_offset 20
 187              	 .cfi_offset 4,-20
 188              	 .cfi_offset 5,-16
 189              	 .cfi_offset 6,-12
 190              	 .cfi_offset 7,-8
 191              	 .cfi_offset 14,-4
 192 0002 0D1C     	 mov r5,r1
 193 0004 141C     	 mov r4,r2
1218://MAC/Home/Downloads/getstarted-optiga-trust-m/optiga-trust-m-1/externals/mbedtls/library/bignum.c ****     mbedtls_mpi_uint c = 0, t = 0;
 194              	 .loc 1 1218 0
 195 0006 0026     	 mov r6,#0
1217://MAC/Home/Downloads/getstarted-optiga-trust-m/optiga-trust-m-1/externals/mbedtls/library/bignum.c ****     mbedtls_mpi_uint c = 0, t = 0;
 196              	 .loc 1 1217 0
 197 0008 89B0     	 sub sp,sp,#36
 198              	.LCFI3:
 199              	 .cfi_def_cfa_offset 56
1217://MAC/Home/Downloads/getstarted-optiga-trust-m/optiga-trust-m-1/externals/mbedtls/library/bignum.c ****     mbedtls_mpi_uint c = 0, t = 0;
 200              	 .loc 1 1217 0
 201 000a 0290     	 str r0,[sp,#8]
 202 000c 0491     	 str r1,[sp,#16]
 203 000e 0792     	 str r2,[sp,#28]
 204 0010 0193     	 str r3,[sp,#4]
1219://MAC/Home/Downloads/getstarted-optiga-trust-m/optiga-trust-m-1/externals/mbedtls/library/bignum.c **** 
1220://MAC/Home/Downloads/getstarted-optiga-trust-m/optiga-trust-m-1/externals/mbedtls/library/bignum.c **** #if defined(MULADDC_HUIT)
1221://MAC/Home/Downloads/getstarted-optiga-trust-m/optiga-trust-m-1/externals/mbedtls/library/bignum.c ****     for( ; i >= 8; i -= 8 )
1222://MAC/Home/Downloads/getstarted-optiga-trust-m/optiga-trust-m-1/externals/mbedtls/library/bignum.c ****     {
1223://MAC/Home/Downloads/getstarted-optiga-trust-m/optiga-trust-m-1/externals/mbedtls/library/bignum.c ****         MULADDC_INIT
1224://MAC/Home/Downloads/getstarted-optiga-trust-m/optiga-trust-m-1/externals/mbedtls/library/bignum.c ****         MULADDC_HUIT
1225://MAC/Home/Downloads/getstarted-optiga-trust-m/optiga-trust-m-1/externals/mbedtls/library/bignum.c ****         MULADDC_STOP
1226://MAC/Home/Downloads/getstarted-optiga-trust-m/optiga-trust-m-1/externals/mbedtls/library/bignum.c ****     }
1227://MAC/Home/Downloads/getstarted-optiga-trust-m/optiga-trust-m-1/externals/mbedtls/library/bignum.c **** 
1228://MAC/Home/Downloads/getstarted-optiga-trust-m/optiga-trust-m-1/externals/mbedtls/library/bignum.c ****     for( ; i > 0; i-- )
1229://MAC/Home/Downloads/getstarted-optiga-trust-m/optiga-trust-m-1/externals/mbedtls/library/bignum.c ****     {
1230://MAC/Home/Downloads/getstarted-optiga-trust-m/optiga-trust-m-1/externals/mbedtls/library/bignum.c ****         MULADDC_INIT
1231://MAC/Home/Downloads/getstarted-optiga-trust-m/optiga-trust-m-1/externals/mbedtls/library/bignum.c ****         MULADDC_CORE
1232://MAC/Home/Downloads/getstarted-optiga-trust-m/optiga-trust-m-1/externals/mbedtls/library/bignum.c ****         MULADDC_STOP
1233://MAC/Home/Downloads/getstarted-optiga-trust-m/optiga-trust-m-1/externals/mbedtls/library/bignum.c ****     }
1234://MAC/Home/Downloads/getstarted-optiga-trust-m/optiga-trust-m-1/externals/mbedtls/library/bignum.c **** #else /* MULADDC_HUIT */
1235://MAC/Home/Downloads/getstarted-optiga-trust-m/optiga-trust-m-1/externals/mbedtls/library/bignum.c ****     for( ; i >= 16; i -= 16 )
 205              	 .loc 1 1235 0
 206 0012 0390     	 str r0,[sp,#12]
 207              	.LVL20:
 208              	.L17:
 209              	 .loc 1 1235 0 is_stmt 0 discriminator 1
 210 0014 039B     	 ldr r3,[sp,#12]
 211 0016 0F2B     	 cmp r3,#15
 212 0018 00D8     	 bhi .LCB213
 213 001a 25E1     	 b .L25
 214              	.LCB213:
 215              	.LVL21:
 216              	.LBB55:
1236://MAC/Home/Downloads/getstarted-optiga-trust-m/optiga-trust-m-1/externals/mbedtls/library/bignum.c ****     {
1237://MAC/Home/Downloads/getstarted-optiga-trust-m/optiga-trust-m-1/externals/mbedtls/library/bignum.c ****         MULADDC_INIT
1238://MAC/Home/Downloads/getstarted-optiga-trust-m/optiga-trust-m-1/externals/mbedtls/library/bignum.c ****         MULADDC_CORE   MULADDC_CORE
 217              	 .loc 1 1238 0 is_stmt 1 discriminator 2
 218 001c 0021     	 mov r1,#0
 219 001e 2868     	 ldr r0,[r5]
 220 0020 019A     	 ldr r2,[sp,#4]
 221 0022 0B1C     	 mov r3,r1
 222 0024 FFF7FEFF 	 bl __aeabi_lmul
 223              	.LVL22:
 224 0028 3018     	 add r0,r6,r0
 225              	.LVL23:
 226 002a B042     	 cmp r0,r6
 227 002c B641     	 sbc r6,r6,r6
 228              	.LVL24:
 229 002e 2368     	 ldr r3,[r4]
 230 0030 7642     	 neg r6,r6
 231 0032 C018     	 add r0,r0,r3
 232              	.LVL25:
 233 0034 9842     	 cmp r0,r3
 234 0036 9B41     	 sbc r3,r3,r3
 235 0038 7618     	 add r6,r6,r1
 236              	.LVL26:
 237 003a 0021     	 mov r1,#0
 238 003c 2060     	 str r0,[r4]
 239 003e 5B42     	 neg r3,r3
 240 0040 6868     	 ldr r0,[r5,#4]
 241              	.LVL27:
 242 0042 F618     	 add r6,r6,r3
 243              	.LVL28:
 244 0044 019A     	 ldr r2,[sp,#4]
 245 0046 0B1C     	 mov r3,r1
 246 0048 FFF7FEFF 	 bl __aeabi_lmul
 247              	.LVL29:
 248 004c 3018     	 add r0,r6,r0
 249              	.LVL30:
 250 004e B042     	 cmp r0,r6
 251 0050 B641     	 sbc r6,r6,r6
 252              	.LVL31:
 253 0052 6368     	 ldr r3,[r4,#4]
 254 0054 7642     	 neg r6,r6
 255 0056 C018     	 add r0,r0,r3
 256              	.LVL32:
 257 0058 9842     	 cmp r0,r3
 258 005a 9B41     	 sbc r3,r3,r3
 259 005c 7618     	 add r6,r6,r1
 260              	.LVL33:
1239://MAC/Home/Downloads/getstarted-optiga-trust-m/optiga-trust-m-1/externals/mbedtls/library/bignum.c ****         MULADDC_CORE   MULADDC_CORE
 261              	 .loc 1 1239 0 discriminator 2
 262 005e 0021     	 mov r1,#0
1238://MAC/Home/Downloads/getstarted-optiga-trust-m/optiga-trust-m-1/externals/mbedtls/library/bignum.c ****         MULADDC_CORE   MULADDC_CORE
 263              	 .loc 1 1238 0 discriminator 2
 264 0060 6060     	 str r0,[r4,#4]
 265 0062 5B42     	 neg r3,r3
 266              	 .loc 1 1239 0 discriminator 2
 267 0064 A868     	 ldr r0,[r5,#8]
 268              	.LVL34:
1238://MAC/Home/Downloads/getstarted-optiga-trust-m/optiga-trust-m-1/externals/mbedtls/library/bignum.c ****         MULADDC_CORE   MULADDC_CORE
 269              	 .loc 1 1238 0 discriminator 2
 270 0066 F718     	 add r7,r6,r3
 271              	.LVL35:
 272              	 .loc 1 1239 0 discriminator 2
 273 0068 019A     	 ldr r2,[sp,#4]
 274 006a 0B1C     	 mov r3,r1
 275 006c FFF7FEFF 	 bl __aeabi_lmul
 276              	.LVL36:
 277 0070 3818     	 add r0,r7,r0
 278              	.LVL37:
 279 0072 B842     	 cmp r0,r7
 280 0074 BF41     	 sbc r7,r7,r7
 281              	.LVL38:
 282 0076 A368     	 ldr r3,[r4,#8]
 283 0078 7F42     	 neg r7,r7
 284 007a C018     	 add r0,r0,r3
 285              	.LVL39:
 286 007c 9842     	 cmp r0,r3
 287 007e 9B41     	 sbc r3,r3,r3
 288 0080 7F18     	 add r7,r7,r1
 289              	.LVL40:
 290 0082 0021     	 mov r1,#0
 291 0084 A060     	 str r0,[r4,#8]
 292 0086 5B42     	 neg r3,r3
 293 0088 E868     	 ldr r0,[r5,#12]
 294              	.LVL41:
 295 008a FE18     	 add r6,r7,r3
 296              	.LVL42:
 297 008c 019A     	 ldr r2,[sp,#4]
 298 008e 0B1C     	 mov r3,r1
 299 0090 FFF7FEFF 	 bl __aeabi_lmul
 300              	.LVL43:
 301 0094 3018     	 add r0,r6,r0
 302              	.LVL44:
 303 0096 B042     	 cmp r0,r6
 304 0098 B641     	 sbc r6,r6,r6
 305              	.LVL45:
 306 009a E368     	 ldr r3,[r4,#12]
 307 009c 7642     	 neg r6,r6
 308 009e C018     	 add r0,r0,r3
 309              	.LVL46:
 310 00a0 9842     	 cmp r0,r3
 311 00a2 9B41     	 sbc r3,r3,r3
 312 00a4 7618     	 add r6,r6,r1
 313              	.LVL47:
1240://MAC/Home/Downloads/getstarted-optiga-trust-m/optiga-trust-m-1/externals/mbedtls/library/bignum.c ****         MULADDC_CORE   MULADDC_CORE
 314              	 .loc 1 1240 0 discriminator 2
 315 00a6 0021     	 mov r1,#0
1239://MAC/Home/Downloads/getstarted-optiga-trust-m/optiga-trust-m-1/externals/mbedtls/library/bignum.c ****         MULADDC_CORE   MULADDC_CORE
 316              	 .loc 1 1239 0 discriminator 2
 317 00a8 E060     	 str r0,[r4,#12]
 318 00aa 5B42     	 neg r3,r3
 319              	 .loc 1 1240 0 discriminator 2
 320 00ac 2869     	 ldr r0,[r5,#16]
 321              	.LVL48:
1239://MAC/Home/Downloads/getstarted-optiga-trust-m/optiga-trust-m-1/externals/mbedtls/library/bignum.c ****         MULADDC_CORE   MULADDC_CORE
 322              	 .loc 1 1239 0 discriminator 2
 323 00ae F718     	 add r7,r6,r3
 324              	.LVL49:
 325              	 .loc 1 1240 0 discriminator 2
 326 00b0 019A     	 ldr r2,[sp,#4]
 327 00b2 0B1C     	 mov r3,r1
 328 00b4 FFF7FEFF 	 bl __aeabi_lmul
 329              	.LVL50:
 330 00b8 3818     	 add r0,r7,r0
 331              	.LVL51:
 332 00ba B842     	 cmp r0,r7
 333 00bc BF41     	 sbc r7,r7,r7
 334              	.LVL52:
 335 00be 2369     	 ldr r3,[r4,#16]
 336 00c0 7F42     	 neg r7,r7
 337 00c2 C018     	 add r0,r0,r3
 338              	.LVL53:
 339 00c4 9842     	 cmp r0,r3
 340 00c6 9B41     	 sbc r3,r3,r3
 341 00c8 7F18     	 add r7,r7,r1
 342              	.LVL54:
 343 00ca 0021     	 mov r1,#0
 344 00cc 2061     	 str r0,[r4,#16]
 345 00ce 5B42     	 neg r3,r3
 346 00d0 6869     	 ldr r0,[r5,#20]
 347              	.LVL55:
 348 00d2 FE18     	 add r6,r7,r3
 349              	.LVL56:
 350 00d4 019A     	 ldr r2,[sp,#4]
 351 00d6 0B1C     	 mov r3,r1
 352 00d8 FFF7FEFF 	 bl __aeabi_lmul
 353              	.LVL57:
 354 00dc 3018     	 add r0,r6,r0
 355              	.LVL58:
 356 00de B042     	 cmp r0,r6
 357 00e0 B641     	 sbc r6,r6,r6
 358              	.LVL59:
 359 00e2 6369     	 ldr r3,[r4,#20]
 360 00e4 7642     	 neg r6,r6
 361 00e6 C018     	 add r0,r0,r3
 362              	.LVL60:
 363 00e8 9842     	 cmp r0,r3
 364 00ea 9B41     	 sbc r3,r3,r3
 365 00ec 7618     	 add r6,r6,r1
 366              	.LVL61:
1241://MAC/Home/Downloads/getstarted-optiga-trust-m/optiga-trust-m-1/externals/mbedtls/library/bignum.c ****         MULADDC_CORE   MULADDC_CORE
 367              	 .loc 1 1241 0 discriminator 2
 368 00ee 0021     	 mov r1,#0
1240://MAC/Home/Downloads/getstarted-optiga-trust-m/optiga-trust-m-1/externals/mbedtls/library/bignum.c ****         MULADDC_CORE   MULADDC_CORE
 369              	 .loc 1 1240 0 discriminator 2
 370 00f0 6061     	 str r0,[r4,#20]
 371 00f2 5B42     	 neg r3,r3
 372              	 .loc 1 1241 0 discriminator 2
 373 00f4 A869     	 ldr r0,[r5,#24]
 374              	.LVL62:
1240://MAC/Home/Downloads/getstarted-optiga-trust-m/optiga-trust-m-1/externals/mbedtls/library/bignum.c ****         MULADDC_CORE   MULADDC_CORE
 375              	 .loc 1 1240 0 discriminator 2
 376 00f6 F718     	 add r7,r6,r3
 377              	.LVL63:
 378              	 .loc 1 1241 0 discriminator 2
 379 00f8 019A     	 ldr r2,[sp,#4]
 380 00fa 0B1C     	 mov r3,r1
 381 00fc FFF7FEFF 	 bl __aeabi_lmul
 382              	.LVL64:
 383 0100 3818     	 add r0,r7,r0
 384              	.LVL65:
 385 0102 B842     	 cmp r0,r7
 386 0104 BF41     	 sbc r7,r7,r7
 387              	.LVL66:
 388 0106 A369     	 ldr r3,[r4,#24]
 389 0108 7F42     	 neg r7,r7
 390 010a C018     	 add r0,r0,r3
 391              	.LVL67:
 392 010c 9842     	 cmp r0,r3
 393 010e 9B41     	 sbc r3,r3,r3
 394 0110 7F18     	 add r7,r7,r1
 395              	.LVL68:
 396 0112 0021     	 mov r1,#0
 397 0114 A061     	 str r0,[r4,#24]
 398 0116 5B42     	 neg r3,r3
 399 0118 FE18     	 add r6,r7,r3
 400              	.LVL69:
 401 011a E869     	 ldr r0,[r5,#28]
 402              	.LVL70:
 403 011c 019A     	 ldr r2,[sp,#4]
 404 011e 0B1C     	 mov r3,r1
 405 0120 FFF7FEFF 	 bl __aeabi_lmul
 406              	.LVL71:
 407 0124 3018     	 add r0,r6,r0
 408              	.LVL72:
 409 0126 B042     	 cmp r0,r6
 410 0128 B641     	 sbc r6,r6,r6
 411              	.LVL73:
 412 012a E369     	 ldr r3,[r4,#28]
 413 012c 7642     	 neg r6,r6
 414 012e C018     	 add r0,r0,r3
 415              	.LVL74:
 416 0130 9842     	 cmp r0,r3
 417 0132 9B41     	 sbc r3,r3,r3
 418 0134 7618     	 add r6,r6,r1
 419              	.LVL75:
1242://MAC/Home/Downloads/getstarted-optiga-trust-m/optiga-trust-m-1/externals/mbedtls/library/bignum.c **** 
1243://MAC/Home/Downloads/getstarted-optiga-trust-m/optiga-trust-m-1/externals/mbedtls/library/bignum.c ****         MULADDC_CORE   MULADDC_CORE
 420              	 .loc 1 1243 0 discriminator 2
 421 0136 0021     	 mov r1,#0
1241://MAC/Home/Downloads/getstarted-optiga-trust-m/optiga-trust-m-1/externals/mbedtls/library/bignum.c ****         MULADDC_CORE   MULADDC_CORE
 422              	 .loc 1 1241 0 discriminator 2
 423 0138 5B42     	 neg r3,r3
 424 013a E061     	 str r0,[r4,#28]
 425              	 .loc 1 1243 0 discriminator 2
 426 013c 286A     	 ldr r0,[r5,#32]
 427              	.LVL76:
1241://MAC/Home/Downloads/getstarted-optiga-trust-m/optiga-trust-m-1/externals/mbedtls/library/bignum.c ****         MULADDC_CORE   MULADDC_CORE
 428              	 .loc 1 1241 0 discriminator 2
 429 013e F718     	 add r7,r6,r3
 430              	.LVL77:
 431              	 .loc 1 1243 0 discriminator 2
 432 0140 019A     	 ldr r2,[sp,#4]
 433 0142 0B1C     	 mov r3,r1
 434 0144 FFF7FEFF 	 bl __aeabi_lmul
 435              	.LVL78:
 436 0148 3818     	 add r0,r7,r0
 437              	.LVL79:
 438 014a B842     	 cmp r0,r7
 439 014c BF41     	 sbc r7,r7,r7
 440              	.LVL80:
 441 014e 236A     	 ldr r3,[r4,#32]
 442 0150 7F42     	 neg r7,r7
 443 0152 C018     	 add r0,r0,r3
 444              	.LVL81:
 445 0154 9842     	 cmp r0,r3
 446 0156 9B41     	 sbc r3,r3,r3
 447 0158 7F18     	 add r7,r7,r1
 448              	.LVL82:
 449 015a 0021     	 mov r1,#0
 450 015c 2062     	 str r0,[r4,#32]
 451 015e 5B42     	 neg r3,r3
 452 0160 686A     	 ldr r0,[r5,#36]
 453              	.LVL83:
 454 0162 FE18     	 add r6,r7,r3
 455              	.LVL84:
 456 0164 019A     	 ldr r2,[sp,#4]
 457 0166 0B1C     	 mov r3,r1
 458 0168 FFF7FEFF 	 bl __aeabi_lmul
 459              	.LVL85:
 460 016c 3018     	 add r0,r6,r0
 461              	.LVL86:
 462 016e B042     	 cmp r0,r6
 463 0170 B641     	 sbc r6,r6,r6
 464              	.LVL87:
 465 0172 636A     	 ldr r3,[r4,#36]
 466 0174 7642     	 neg r6,r6
 467 0176 C018     	 add r0,r0,r3
 468              	.LVL88:
 469 0178 9842     	 cmp r0,r3
 470 017a 9B41     	 sbc r3,r3,r3
 471 017c 7618     	 add r6,r6,r1
 472              	.LVL89:
1244://MAC/Home/Downloads/getstarted-optiga-trust-m/optiga-trust-m-1/externals/mbedtls/library/bignum.c ****         MULADDC_CORE   MULADDC_CORE
 473              	 .loc 1 1244 0 discriminator 2
 474 017e 0021     	 mov r1,#0
1243://MAC/Home/Downloads/getstarted-optiga-trust-m/optiga-trust-m-1/externals/mbedtls/library/bignum.c ****         MULADDC_CORE   MULADDC_CORE
 475              	 .loc 1 1243 0 discriminator 2
 476 0180 6062     	 str r0,[r4,#36]
 477 0182 5B42     	 neg r3,r3
 478              	 .loc 1 1244 0 discriminator 2
 479 0184 A86A     	 ldr r0,[r5,#40]
 480              	.LVL90:
1243://MAC/Home/Downloads/getstarted-optiga-trust-m/optiga-trust-m-1/externals/mbedtls/library/bignum.c ****         MULADDC_CORE   MULADDC_CORE
 481              	 .loc 1 1243 0 discriminator 2
 482 0186 F718     	 add r7,r6,r3
 483              	.LVL91:
 484              	 .loc 1 1244 0 discriminator 2
 485 0188 019A     	 ldr r2,[sp,#4]
 486 018a 0B1C     	 mov r3,r1
 487 018c FFF7FEFF 	 bl __aeabi_lmul
 488              	.LVL92:
 489 0190 3818     	 add r0,r7,r0
 490              	.LVL93:
 491 0192 B842     	 cmp r0,r7
 492 0194 BF41     	 sbc r7,r7,r7
 493              	.LVL94:
 494 0196 A36A     	 ldr r3,[r4,#40]
 495 0198 7F42     	 neg r7,r7
 496 019a C018     	 add r0,r0,r3
 497              	.LVL95:
 498 019c 9842     	 cmp r0,r3
 499 019e 9B41     	 sbc r3,r3,r3
 500 01a0 7F18     	 add r7,r7,r1
 501              	.LVL96:
 502 01a2 0021     	 mov r1,#0
 503 01a4 A062     	 str r0,[r4,#40]
 504 01a6 5B42     	 neg r3,r3
 505 01a8 E86A     	 ldr r0,[r5,#44]
 506              	.LVL97:
 507 01aa FE18     	 add r6,r7,r3
 508              	.LVL98:
 509 01ac 019A     	 ldr r2,[sp,#4]
 510 01ae 0B1C     	 mov r3,r1
 511 01b0 FFF7FEFF 	 bl __aeabi_lmul
 512              	.LVL99:
 513 01b4 3018     	 add r0,r6,r0
 514              	.LVL100:
 515 01b6 B042     	 cmp r0,r6
 516 01b8 B641     	 sbc r6,r6,r6
 517              	.LVL101:
 518 01ba E36A     	 ldr r3,[r4,#44]
 519 01bc 7642     	 neg r6,r6
 520 01be C018     	 add r0,r0,r3
 521              	.LVL102:
 522 01c0 9842     	 cmp r0,r3
 523 01c2 9B41     	 sbc r3,r3,r3
 524 01c4 7618     	 add r6,r6,r1
 525              	.LVL103:
1245://MAC/Home/Downloads/getstarted-optiga-trust-m/optiga-trust-m-1/externals/mbedtls/library/bignum.c ****         MULADDC_CORE   MULADDC_CORE
 526              	 .loc 1 1245 0 discriminator 2
 527 01c6 0021     	 mov r1,#0
1244://MAC/Home/Downloads/getstarted-optiga-trust-m/optiga-trust-m-1/externals/mbedtls/library/bignum.c ****         MULADDC_CORE   MULADDC_CORE
 528              	 .loc 1 1244 0 discriminator 2
 529 01c8 E062     	 str r0,[r4,#44]
 530 01ca 5B42     	 neg r3,r3
 531              	 .loc 1 1245 0 discriminator 2
 532 01cc 286B     	 ldr r0,[r5,#48]
 533              	.LVL104:
1244://MAC/Home/Downloads/getstarted-optiga-trust-m/optiga-trust-m-1/externals/mbedtls/library/bignum.c ****         MULADDC_CORE   MULADDC_CORE
 534              	 .loc 1 1244 0 discriminator 2
 535 01ce F718     	 add r7,r6,r3
 536              	.LVL105:
 537              	 .loc 1 1245 0 discriminator 2
 538 01d0 019A     	 ldr r2,[sp,#4]
 539 01d2 0B1C     	 mov r3,r1
 540 01d4 FFF7FEFF 	 bl __aeabi_lmul
 541              	.LVL106:
 542 01d8 3818     	 add r0,r7,r0
 543              	.LVL107:
 544 01da B842     	 cmp r0,r7
 545 01dc BF41     	 sbc r7,r7,r7
 546              	.LVL108:
 547 01de 236B     	 ldr r3,[r4,#48]
 548 01e0 7F42     	 neg r7,r7
 549 01e2 C018     	 add r0,r0,r3
 550              	.LVL109:
 551 01e4 9842     	 cmp r0,r3
 552 01e6 9B41     	 sbc r3,r3,r3
 553 01e8 7F18     	 add r7,r7,r1
 554              	.LVL110:
 555 01ea 0021     	 mov r1,#0
 556 01ec 2063     	 str r0,[r4,#48]
 557 01ee 5B42     	 neg r3,r3
 558 01f0 686B     	 ldr r0,[r5,#52]
 559              	.LVL111:
 560 01f2 FE18     	 add r6,r7,r3
 561              	.LVL112:
 562 01f4 019A     	 ldr r2,[sp,#4]
 563 01f6 0B1C     	 mov r3,r1
 564 01f8 FFF7FEFF 	 bl __aeabi_lmul
 565              	.LVL113:
 566 01fc 3018     	 add r0,r6,r0
 567              	.LVL114:
 568 01fe B042     	 cmp r0,r6
 569 0200 B641     	 sbc r6,r6,r6
 570              	.LVL115:
 571 0202 636B     	 ldr r3,[r4,#52]
 572 0204 7642     	 neg r6,r6
 573 0206 C018     	 add r0,r0,r3
 574              	.LVL116:
 575 0208 9842     	 cmp r0,r3
 576 020a 9B41     	 sbc r3,r3,r3
 577 020c 7618     	 add r6,r6,r1
 578              	.LVL117:
1246://MAC/Home/Downloads/getstarted-optiga-trust-m/optiga-trust-m-1/externals/mbedtls/library/bignum.c ****         MULADDC_CORE   MULADDC_CORE
 579              	 .loc 1 1246 0 discriminator 2
 580 020e 0021     	 mov r1,#0
1245://MAC/Home/Downloads/getstarted-optiga-trust-m/optiga-trust-m-1/externals/mbedtls/library/bignum.c ****         MULADDC_CORE   MULADDC_CORE
 581              	 .loc 1 1245 0 discriminator 2
 582 0210 6063     	 str r0,[r4,#52]
 583 0212 5B42     	 neg r3,r3
 584              	 .loc 1 1246 0 discriminator 2
 585 0214 A86B     	 ldr r0,[r5,#56]
 586              	.LVL118:
1245://MAC/Home/Downloads/getstarted-optiga-trust-m/optiga-trust-m-1/externals/mbedtls/library/bignum.c ****         MULADDC_CORE   MULADDC_CORE
 587              	 .loc 1 1245 0 discriminator 2
 588 0216 F718     	 add r7,r6,r3
 589              	.LVL119:
 590              	 .loc 1 1246 0 discriminator 2
 591 0218 019A     	 ldr r2,[sp,#4]
 592 021a 0B1C     	 mov r3,r1
 593 021c FFF7FEFF 	 bl __aeabi_lmul
 594              	.LVL120:
 595 0220 3818     	 add r0,r7,r0
 596              	.LVL121:
 597 0222 B842     	 cmp r0,r7
 598 0224 BF41     	 sbc r7,r7,r7
 599              	.LVL122:
 600 0226 A36B     	 ldr r3,[r4,#56]
 601 0228 7F42     	 neg r7,r7
 602 022a C018     	 add r0,r0,r3
 603              	.LVL123:
 604 022c 9842     	 cmp r0,r3
 605 022e 9B41     	 sbc r3,r3,r3
 606 0230 7F18     	 add r7,r7,r1
 607              	.LVL124:
 608 0232 0021     	 mov r1,#0
 609 0234 A063     	 str r0,[r4,#56]
 610 0236 5B42     	 neg r3,r3
 611 0238 E86B     	 ldr r0,[r5,#60]
 612              	.LVL125:
 613 023a FE18     	 add r6,r7,r3
 614              	.LVL126:
 615 023c 019A     	 ldr r2,[sp,#4]
 616 023e 0B1C     	 mov r3,r1
 617 0240 FFF7FEFF 	 bl __aeabi_lmul
 618              	.LVL127:
 619 0244 E36B     	 ldr r3,[r4,#60]
 620 0246 3018     	 add r0,r6,r0
 621              	.LVL128:
 622 0248 B042     	 cmp r0,r6
 623 024a B641     	 sbc r6,r6,r6
 624              	.LVL129:
 625 024c C018     	 add r0,r0,r3
 626              	.LVL130:
 627 024e 9842     	 cmp r0,r3
 628 0250 9B41     	 sbc r3,r3,r3
 629 0252 7642     	 neg r6,r6
 630 0254 5B42     	 neg r3,r3
 631 0256 7618     	 add r6,r6,r1
 632              	.LVL131:
 633 0258 E063     	 str r0,[r4,#60]
 634 025a F618     	 add r6,r6,r3
 635              	.LVL132:
 636              	.LBE55:
1235://MAC/Home/Downloads/getstarted-optiga-trust-m/optiga-trust-m-1/externals/mbedtls/library/bignum.c ****     {
 637              	 .loc 1 1235 0 discriminator 2
 638 025c 039B     	 ldr r3,[sp,#12]
 639 025e 4035     	 add r5,r5,#64
 640              	.LVL133:
 641 0260 103B     	 sub r3,r3,#16
 642 0262 0393     	 str r3,[sp,#12]
 643              	.LVL134:
 644 0264 4034     	 add r4,r4,#64
 645 0266 D5E6     	 b .L17
 646              	.LVL135:
 647              	.L25:
 648 0268 0F25     	 mov r5,#15
 649              	.LVL136:
 650 026a 029B     	 ldr r3,[sp,#8]
 651              	.LVL137:
 652 026c 2B40     	 and r3,r5
 653 026e 0693     	 str r3,[sp,#24]
 654 0270 029B     	 ldr r3,[sp,#8]
 655 0272 1C09     	 lsr r4,r3,#4
 656 0274 049B     	 ldr r3,[sp,#16]
 657 0276 A401     	 lsl r4,r4,#6
 658 0278 1B19     	 add r3,r3,r4
 659 027a 0593     	 str r3,[sp,#20]
 660 027c 079B     	 ldr r3,[sp,#28]
 661 027e 059D     	 ldr r5,[sp,#20]
 662 0280 1B19     	 add r3,r3,r4
 663 0282 0493     	 str r3,[sp,#16]
 664 0284 1C1C     	 mov r4,r3
1235://MAC/Home/Downloads/getstarted-optiga-trust-m/optiga-trust-m-1/externals/mbedtls/library/bignum.c ****     {
 665              	 .loc 1 1235 0 is_stmt 0
 666 0286 069B     	 ldr r3,[sp,#24]
 667 0288 0393     	 str r3,[sp,#12]
 668              	.LVL138:
 669              	.L19:
1247://MAC/Home/Downloads/getstarted-optiga-trust-m/optiga-trust-m-1/externals/mbedtls/library/bignum.c ****         MULADDC_STOP
1248://MAC/Home/Downloads/getstarted-optiga-trust-m/optiga-trust-m-1/externals/mbedtls/library/bignum.c ****     }
1249://MAC/Home/Downloads/getstarted-optiga-trust-m/optiga-trust-m-1/externals/mbedtls/library/bignum.c **** 
1250://MAC/Home/Downloads/getstarted-optiga-trust-m/optiga-trust-m-1/externals/mbedtls/library/bignum.c ****     for( ; i >= 8; i -= 8 )
 670              	 .loc 1 1250 0 is_stmt 1 discriminator 1
 671 028a 039B     	 ldr r3,[sp,#12]
 672 028c 072B     	 cmp r3,#7
 673 028e 00D8     	 bhi .LCB813
 674 0290 95E0     	 b .L26
 675              	.LCB813:
 676              	.LVL139:
 677              	.LBB56:
1251://MAC/Home/Downloads/getstarted-optiga-trust-m/optiga-trust-m-1/externals/mbedtls/library/bignum.c ****     {
1252://MAC/Home/Downloads/getstarted-optiga-trust-m/optiga-trust-m-1/externals/mbedtls/library/bignum.c ****         MULADDC_INIT
1253://MAC/Home/Downloads/getstarted-optiga-trust-m/optiga-trust-m-1/externals/mbedtls/library/bignum.c ****         MULADDC_CORE   MULADDC_CORE
 678              	 .loc 1 1253 0 discriminator 2
 679 0292 0021     	 mov r1,#0
 680 0294 2868     	 ldr r0,[r5]
 681 0296 019A     	 ldr r2,[sp,#4]
 682 0298 0B1C     	 mov r3,r1
 683 029a FFF7FEFF 	 bl __aeabi_lmul
 684              	.LVL140:
 685 029e 3018     	 add r0,r6,r0
 686              	.LVL141:
 687 02a0 B042     	 cmp r0,r6
 688 02a2 B641     	 sbc r6,r6,r6
 689              	.LVL142:
 690 02a4 2368     	 ldr r3,[r4]
 691 02a6 7642     	 neg r6,r6
 692 02a8 C018     	 add r0,r0,r3
 693              	.LVL143:
 694 02aa 9842     	 cmp r0,r3
 695 02ac 9B41     	 sbc r3,r3,r3
 696 02ae 7618     	 add r6,r6,r1
 697              	.LVL144:
 698 02b0 0021     	 mov r1,#0
 699 02b2 2060     	 str r0,[r4]
 700 02b4 5B42     	 neg r3,r3
 701 02b6 6868     	 ldr r0,[r5,#4]
 702              	.LVL145:
 703 02b8 F618     	 add r6,r6,r3
 704              	.LVL146:
 705 02ba 019A     	 ldr r2,[sp,#4]
 706 02bc 0B1C     	 mov r3,r1
 707 02be FFF7FEFF 	 bl __aeabi_lmul
 708              	.LVL147:
 709 02c2 3018     	 add r0,r6,r0
 710              	.LVL148:
 711 02c4 B042     	 cmp r0,r6
 712 02c6 B641     	 sbc r6,r6,r6
 713              	.LVL149:
 714 02c8 6368     	 ldr r3,[r4,#4]
 715 02ca 7642     	 neg r6,r6
 716 02cc C018     	 add r0,r0,r3
 717              	.LVL150:
 718 02ce 9842     	 cmp r0,r3
 719 02d0 9B41     	 sbc r3,r3,r3
 720 02d2 7618     	 add r6,r6,r1
 721              	.LVL151:
1254://MAC/Home/Downloads/getstarted-optiga-trust-m/optiga-trust-m-1/externals/mbedtls/library/bignum.c ****         MULADDC_CORE   MULADDC_CORE
 722              	 .loc 1 1254 0 discriminator 2
 723 02d4 0021     	 mov r1,#0
1253://MAC/Home/Downloads/getstarted-optiga-trust-m/optiga-trust-m-1/externals/mbedtls/library/bignum.c ****         MULADDC_CORE   MULADDC_CORE
 724              	 .loc 1 1253 0 discriminator 2
 725 02d6 6060     	 str r0,[r4,#4]
 726 02d8 5B42     	 neg r3,r3
 727              	 .loc 1 1254 0 discriminator 2
 728 02da A868     	 ldr r0,[r5,#8]
 729              	.LVL152:
1253://MAC/Home/Downloads/getstarted-optiga-trust-m/optiga-trust-m-1/externals/mbedtls/library/bignum.c ****         MULADDC_CORE   MULADDC_CORE
 730              	 .loc 1 1253 0 discriminator 2
 731 02dc F718     	 add r7,r6,r3
 732              	.LVL153:
 733              	 .loc 1 1254 0 discriminator 2
 734 02de 019A     	 ldr r2,[sp,#4]
 735 02e0 0B1C     	 mov r3,r1
 736 02e2 FFF7FEFF 	 bl __aeabi_lmul
 737              	.LVL154:
 738 02e6 3818     	 add r0,r7,r0
 739              	.LVL155:
 740 02e8 B842     	 cmp r0,r7
 741 02ea BF41     	 sbc r7,r7,r7
 742              	.LVL156:
 743 02ec A368     	 ldr r3,[r4,#8]
 744 02ee 7F42     	 neg r7,r7
 745 02f0 C018     	 add r0,r0,r3
 746              	.LVL157:
 747 02f2 9842     	 cmp r0,r3
 748 02f4 9B41     	 sbc r3,r3,r3
 749 02f6 7F18     	 add r7,r7,r1
 750              	.LVL158:
 751 02f8 0021     	 mov r1,#0
 752 02fa A060     	 str r0,[r4,#8]
 753 02fc 5B42     	 neg r3,r3
 754 02fe E868     	 ldr r0,[r5,#12]
 755              	.LVL159:
 756 0300 FE18     	 add r6,r7,r3
 757              	.LVL160:
 758 0302 019A     	 ldr r2,[sp,#4]
 759 0304 0B1C     	 mov r3,r1
 760 0306 FFF7FEFF 	 bl __aeabi_lmul
 761              	.LVL161:
 762 030a 3018     	 add r0,r6,r0
 763              	.LVL162:
 764 030c B042     	 cmp r0,r6
 765 030e B641     	 sbc r6,r6,r6
 766              	.LVL163:
 767 0310 E368     	 ldr r3,[r4,#12]
 768 0312 7642     	 neg r6,r6
 769 0314 C018     	 add r0,r0,r3
 770              	.LVL164:
 771 0316 9842     	 cmp r0,r3
 772 0318 9B41     	 sbc r3,r3,r3
 773 031a 7618     	 add r6,r6,r1
 774              	.LVL165:
1255://MAC/Home/Downloads/getstarted-optiga-trust-m/optiga-trust-m-1/externals/mbedtls/library/bignum.c **** 
1256://MAC/Home/Downloads/getstarted-optiga-trust-m/optiga-trust-m-1/externals/mbedtls/library/bignum.c ****         MULADDC_CORE   MULADDC_CORE
 775              	 .loc 1 1256 0 discriminator 2
 776 031c 0021     	 mov r1,#0
1254://MAC/Home/Downloads/getstarted-optiga-trust-m/optiga-trust-m-1/externals/mbedtls/library/bignum.c **** 
 777              	 .loc 1 1254 0 discriminator 2
 778 031e E060     	 str r0,[r4,#12]
 779 0320 5B42     	 neg r3,r3
 780              	 .loc 1 1256 0 discriminator 2
 781 0322 2869     	 ldr r0,[r5,#16]
 782              	.LVL166:
1254://MAC/Home/Downloads/getstarted-optiga-trust-m/optiga-trust-m-1/externals/mbedtls/library/bignum.c **** 
 783              	 .loc 1 1254 0 discriminator 2
 784 0324 F718     	 add r7,r6,r3
 785              	.LVL167:
 786              	 .loc 1 1256 0 discriminator 2
 787 0326 019A     	 ldr r2,[sp,#4]
 788 0328 0B1C     	 mov r3,r1
 789 032a FFF7FEFF 	 bl __aeabi_lmul
 790              	.LVL168:
 791 032e 3818     	 add r0,r7,r0
 792              	.LVL169:
 793 0330 B842     	 cmp r0,r7
 794 0332 BF41     	 sbc r7,r7,r7
 795              	.LVL170:
 796 0334 2369     	 ldr r3,[r4,#16]
 797 0336 7F42     	 neg r7,r7
 798 0338 C018     	 add r0,r0,r3
 799              	.LVL171:
 800 033a 9842     	 cmp r0,r3
 801 033c 9B41     	 sbc r3,r3,r3
 802 033e 7F18     	 add r7,r7,r1
 803              	.LVL172:
 804 0340 0021     	 mov r1,#0
 805 0342 2061     	 str r0,[r4,#16]
 806 0344 5B42     	 neg r3,r3
 807 0346 6869     	 ldr r0,[r5,#20]
 808              	.LVL173:
 809 0348 FE18     	 add r6,r7,r3
 810              	.LVL174:
 811 034a 019A     	 ldr r2,[sp,#4]
 812 034c 0B1C     	 mov r3,r1
 813 034e FFF7FEFF 	 bl __aeabi_lmul
 814              	.LVL175:
 815 0352 3018     	 add r0,r6,r0
 816              	.LVL176:
 817 0354 B042     	 cmp r0,r6
 818 0356 B641     	 sbc r6,r6,r6
 819              	.LVL177:
 820 0358 6369     	 ldr r3,[r4,#20]
 821 035a 7642     	 neg r6,r6
 822 035c C018     	 add r0,r0,r3
 823              	.LVL178:
 824 035e 9842     	 cmp r0,r3
 825 0360 9B41     	 sbc r3,r3,r3
 826 0362 7618     	 add r6,r6,r1
 827              	.LVL179:
1257://MAC/Home/Downloads/getstarted-optiga-trust-m/optiga-trust-m-1/externals/mbedtls/library/bignum.c ****         MULADDC_CORE   MULADDC_CORE
 828              	 .loc 1 1257 0 discriminator 2
 829 0364 0021     	 mov r1,#0
1256://MAC/Home/Downloads/getstarted-optiga-trust-m/optiga-trust-m-1/externals/mbedtls/library/bignum.c ****         MULADDC_CORE   MULADDC_CORE
 830              	 .loc 1 1256 0 discriminator 2
 831 0366 6061     	 str r0,[r4,#20]
 832 0368 5B42     	 neg r3,r3
 833              	 .loc 1 1257 0 discriminator 2
 834 036a A869     	 ldr r0,[r5,#24]
 835              	.LVL180:
1256://MAC/Home/Downloads/getstarted-optiga-trust-m/optiga-trust-m-1/externals/mbedtls/library/bignum.c ****         MULADDC_CORE   MULADDC_CORE
 836              	 .loc 1 1256 0 discriminator 2
 837 036c F718     	 add r7,r6,r3
 838              	.LVL181:
 839              	 .loc 1 1257 0 discriminator 2
 840 036e 019A     	 ldr r2,[sp,#4]
 841 0370 0B1C     	 mov r3,r1
 842 0372 FFF7FEFF 	 bl __aeabi_lmul
 843              	.LVL182:
 844 0376 3818     	 add r0,r7,r0
 845              	.LVL183:
 846 0378 B842     	 cmp r0,r7
 847 037a BF41     	 sbc r7,r7,r7
 848              	.LVL184:
 849 037c A369     	 ldr r3,[r4,#24]
 850 037e 7F42     	 neg r7,r7
 851 0380 C018     	 add r0,r0,r3
 852              	.LVL185:
 853 0382 9842     	 cmp r0,r3
 854 0384 9B41     	 sbc r3,r3,r3
 855 0386 7F18     	 add r7,r7,r1
 856              	.LVL186:
 857 0388 0021     	 mov r1,#0
 858 038a A061     	 str r0,[r4,#24]
 859 038c 5B42     	 neg r3,r3
 860 038e E869     	 ldr r0,[r5,#28]
 861              	.LVL187:
 862 0390 FE18     	 add r6,r7,r3
 863              	.LVL188:
 864 0392 019A     	 ldr r2,[sp,#4]
 865 0394 0B1C     	 mov r3,r1
 866 0396 FFF7FEFF 	 bl __aeabi_lmul
 867              	.LVL189:
 868 039a E369     	 ldr r3,[r4,#28]
 869 039c 3018     	 add r0,r6,r0
 870              	.LVL190:
 871 039e B042     	 cmp r0,r6
 872 03a0 B641     	 sbc r6,r6,r6
 873              	.LVL191:
 874 03a2 C018     	 add r0,r0,r3
 875              	.LVL192:
 876 03a4 9842     	 cmp r0,r3
 877 03a6 9B41     	 sbc r3,r3,r3
 878 03a8 7642     	 neg r6,r6
 879 03aa 5B42     	 neg r3,r3
 880 03ac 7618     	 add r6,r6,r1
 881              	.LVL193:
 882 03ae E061     	 str r0,[r4,#28]
 883 03b0 F618     	 add r6,r6,r3
 884              	.LVL194:
 885              	.LBE56:
1250://MAC/Home/Downloads/getstarted-optiga-trust-m/optiga-trust-m-1/externals/mbedtls/library/bignum.c ****     {
 886              	 .loc 1 1250 0 discriminator 2
 887 03b2 039B     	 ldr r3,[sp,#12]
 888 03b4 2035     	 add r5,r5,#32
 889              	.LVL195:
 890 03b6 083B     	 sub r3,r3,#8
 891 03b8 0393     	 str r3,[sp,#12]
 892              	.LVL196:
 893 03ba 2034     	 add r4,r4,#32
 894 03bc 65E7     	 b .L19
 895              	.LVL197:
 896              	.L26:
 897 03be 0724     	 mov r4,#7
 898 03c0 029B     	 ldr r3,[sp,#8]
 899              	.LVL198:
 900 03c2 2340     	 and r3,r4
 901 03c4 0393     	 str r3,[sp,#12]
 902              	.LVL199:
 903 03c6 069B     	 ldr r3,[sp,#24]
1250://MAC/Home/Downloads/getstarted-optiga-trust-m/optiga-trust-m-1/externals/mbedtls/library/bignum.c ****     {
 904              	 .loc 1 1250 0 is_stmt 0
 905 03c8 039C     	 ldr r4,[sp,#12]
 906 03ca DD08     	 lsr r5,r3,#3
 907              	.LVL200:
 908 03cc 049B     	 ldr r3,[sp,#16]
 909 03ce 6D01     	 lsl r5,r5,#5
 910 03d0 5B19     	 add r3,r3,r5
 911 03d2 0293     	 str r3,[sp,#8]
 912 03d4 059B     	 ldr r3,[sp,#20]
 913 03d6 029F     	 ldr r7,[sp,#8]
 914 03d8 5D19     	 add r5,r3,r5
 915              	.L21:
 916              	.LVL201:
1258://MAC/Home/Downloads/getstarted-optiga-trust-m/optiga-trust-m-1/externals/mbedtls/library/bignum.c ****         MULADDC_STOP
1259://MAC/Home/Downloads/getstarted-optiga-trust-m/optiga-trust-m-1/externals/mbedtls/library/bignum.c ****     }
1260://MAC/Home/Downloads/getstarted-optiga-trust-m/optiga-trust-m-1/externals/mbedtls/library/bignum.c **** 
1261://MAC/Home/Downloads/getstarted-optiga-trust-m/optiga-trust-m-1/externals/mbedtls/library/bignum.c ****     for( ; i > 0; i-- )
 917              	 .loc 1 1261 0 is_stmt 1 discriminator 1
 918 03da 002C     	 cmp r4,#0
 919 03dc 13D0     	 beq .L27
 920              	.LVL202:
 921              	.LBB57:
1262://MAC/Home/Downloads/getstarted-optiga-trust-m/optiga-trust-m-1/externals/mbedtls/library/bignum.c ****     {
1263://MAC/Home/Downloads/getstarted-optiga-trust-m/optiga-trust-m-1/externals/mbedtls/library/bignum.c ****         MULADDC_INIT
1264://MAC/Home/Downloads/getstarted-optiga-trust-m/optiga-trust-m-1/externals/mbedtls/library/bignum.c ****         MULADDC_CORE
 922              	 .loc 1 1264 0 discriminator 2
 923 03de 0021     	 mov r1,#0
 924 03e0 01CD     	 ldmia r5!,{r0}
 925              	.LVL203:
 926 03e2 0B1C     	 mov r3,r1
 927 03e4 019A     	 ldr r2,[sp,#4]
 928 03e6 FFF7FEFF 	 bl __aeabi_lmul
 929              	.LVL204:
 930 03ea 3018     	 add r0,r6,r0
 931              	.LVL205:
 932 03ec B042     	 cmp r0,r6
 933 03ee 9B41     	 sbc r3,r3,r3
 934 03f0 5B42     	 neg r3,r3
 935 03f2 5918     	 add r1,r3,r1
 936              	.LVL206:
 937 03f4 3B68     	 ldr r3,[r7]
 938              	.LBE57:
1261://MAC/Home/Downloads/getstarted-optiga-trust-m/optiga-trust-m-1/externals/mbedtls/library/bignum.c ****     {
 939              	 .loc 1 1261 0 discriminator 2
 940 03f6 013C     	 sub r4,r4,#1
 941              	.LVL207:
 942              	.LBB58:
 943              	 .loc 1 1264 0 discriminator 2
 944 03f8 C018     	 add r0,r0,r3
 945              	.LVL208:
 946 03fa 9842     	 cmp r0,r3
 947 03fc 9B41     	 sbc r3,r3,r3
 948 03fe 5B42     	 neg r3,r3
 949 0400 CE18     	 add r6,r1,r3
 950              	.LVL209:
 951 0402 01C7     	 stmia r7!,{r0}
 952 0404 E9E7     	 b .L21
 953              	.LVL210:
 954              	.L27:
 955 0406 039B     	 ldr r3,[sp,#12]
 956 0408 9C00     	 lsl r4,r3,#2
 957              	.LVL211:
 958 040a 029B     	 ldr r3,[sp,#8]
 959 040c 1C19     	 add r4,r3,r4
 960              	.LVL212:
 961              	.L23:
 962              	.LBE58:
1265://MAC/Home/Downloads/getstarted-optiga-trust-m/optiga-trust-m-1/externals/mbedtls/library/bignum.c ****         MULADDC_STOP
1266://MAC/Home/Downloads/getstarted-optiga-trust-m/optiga-trust-m-1/externals/mbedtls/library/bignum.c ****     }
1267://MAC/Home/Downloads/getstarted-optiga-trust-m/optiga-trust-m-1/externals/mbedtls/library/bignum.c **** #endif /* MULADDC_HUIT */
1268://MAC/Home/Downloads/getstarted-optiga-trust-m/optiga-trust-m-1/externals/mbedtls/library/bignum.c **** 
1269://MAC/Home/Downloads/getstarted-optiga-trust-m/optiga-trust-m-1/externals/mbedtls/library/bignum.c ****     t++;
1270://MAC/Home/Downloads/getstarted-optiga-trust-m/optiga-trust-m-1/externals/mbedtls/library/bignum.c **** 
1271://MAC/Home/Downloads/getstarted-optiga-trust-m/optiga-trust-m-1/externals/mbedtls/library/bignum.c ****     do {
1272://MAC/Home/Downloads/getstarted-optiga-trust-m/optiga-trust-m-1/externals/mbedtls/library/bignum.c ****         *d += c; c = ( *d < c ); d++;
 963              	 .loc 1 1272 0 discriminator 1
 964 040e 2368     	 ldr r3,[r4]
 965 0410 F318     	 add r3,r6,r3
 966 0412 08C4     	 stmia r4!,{r3}
 967              	.LVL213:
1273://MAC/Home/Downloads/getstarted-optiga-trust-m/optiga-trust-m-1/externals/mbedtls/library/bignum.c ****     }
1274://MAC/Home/Downloads/getstarted-optiga-trust-m/optiga-trust-m-1/externals/mbedtls/library/bignum.c ****     while( c != 0 );
 968              	 .loc 1 1274 0 discriminator 1
 969 0414 B342     	 cmp r3,r6
 970 0416 01D2     	 bcs .L28
 971 0418 0126     	 mov r6,#1
 972              	.LVL214:
 973 041a F8E7     	 b .L23
 974              	.LVL215:
 975              	.L28:
1275://MAC/Home/Downloads/getstarted-optiga-trust-m/optiga-trust-m-1/externals/mbedtls/library/bignum.c **** }
 976              	 .loc 1 1275 0
 977 041c 09B0     	 add sp,sp,#36
 978              	 
 979              	.LVL216:
 980              	.LVL217:
 981              	.LVL218:
 982 041e F0BD     	 pop {r4,r5,r6,r7,pc}
 983              	 .cfi_endproc
 984              	.LFE34:
 986              	 .section .text.mbedtls_mpi_init,"ax",%progbits
 987              	 .align 1
 988              	 .global mbedtls_mpi_init
 989              	 .code 16
 990              	 .thumb_func
 992              	mbedtls_mpi_init:
 993              	.LFB1:
  90://MAC/Home/Downloads/getstarted-optiga-trust-m/optiga-trust-m-1/externals/mbedtls/library/bignum.c ****     MPI_VALIDATE( X != NULL );
 994              	 .loc 1 90 0
 995              	 .cfi_startproc
 996              	.LVL219:
  93://MAC/Home/Downloads/getstarted-optiga-trust-m/optiga-trust-m-1/externals/mbedtls/library/bignum.c ****     X->n = 0;
 997              	 .loc 1 93 0
 998 0000 0123     	 mov r3,#1
 999 0002 0360     	 str r3,[r0]
  94://MAC/Home/Downloads/getstarted-optiga-trust-m/optiga-trust-m-1/externals/mbedtls/library/bignum.c ****     X->p = NULL;
 1000              	 .loc 1 94 0
 1001 0004 0023     	 mov r3,#0
  96://MAC/Home/Downloads/getstarted-optiga-trust-m/optiga-trust-m-1/externals/mbedtls/library/bignum.c **** 
 1002              	 .loc 1 96 0
 1003              	 
  94://MAC/Home/Downloads/getstarted-optiga-trust-m/optiga-trust-m-1/externals/mbedtls/library/bignum.c ****     X->p = NULL;
 1004              	 .loc 1 94 0
 1005 0006 4360     	 str r3,[r0,#4]
  95://MAC/Home/Downloads/getstarted-optiga-trust-m/optiga-trust-m-1/externals/mbedtls/library/bignum.c **** }
 1006              	 .loc 1 95 0
 1007 0008 8360     	 str r3,[r0,#8]
  96://MAC/Home/Downloads/getstarted-optiga-trust-m/optiga-trust-m-1/externals/mbedtls/library/bignum.c **** 
 1008              	 .loc 1 96 0
 1009 000a 7047     	 bx lr
 1010              	 .cfi_endproc
 1011              	.LFE1:
 1013              	 .section .text.mbedtls_mpi_free,"ax",%progbits
 1014              	 .align 1
 1015              	 .global mbedtls_mpi_free
 1016              	 .code 16
 1017              	 .thumb_func
 1019              	mbedtls_mpi_free:
 1020              	.LFB2:
 102://MAC/Home/Downloads/getstarted-optiga-trust-m/optiga-trust-m-1/externals/mbedtls/library/bignum.c ****     if( X == NULL )
 1021              	 .loc 1 102 0
 1022              	 .cfi_startproc
 1023              	.LVL220:
 1024 0000 10B5     	 push {r4,lr}
 1025              	.LCFI4:
 1026              	 .cfi_def_cfa_offset 8
 1027              	 .cfi_offset 4,-8
 1028              	 .cfi_offset 14,-4
 103://MAC/Home/Downloads/getstarted-optiga-trust-m/optiga-trust-m-1/externals/mbedtls/library/bignum.c ****         return;
 1029              	 .loc 1 103 0
 1030 0002 0028     	 cmp r0,#0
 1031 0004 0FD0     	 beq .L30
 1032 0006 041C     	 mov r4,r0
 106://MAC/Home/Downloads/getstarted-optiga-trust-m/optiga-trust-m-1/externals/mbedtls/library/bignum.c ****     {
 1033              	 .loc 1 106 0
 1034 0008 8068     	 ldr r0,[r0,#8]
 1035              	.LVL221:
 1036 000a 0028     	 cmp r0,#0
 1037 000c 06D0     	 beq .L32
 1038              	.LVL222:
 1039              	.LBB61:
 1040              	.LBB62:
  83://MAC/Home/Downloads/getstarted-optiga-trust-m/optiga-trust-m-1/externals/mbedtls/library/bignum.c **** }
 1041              	 .loc 1 83 0
 1042 000e 6368     	 ldr r3,[r4,#4]
 1043 0010 9900     	 lsl r1,r3,#2
 1044 0012 FFF7FEFF 	 bl mbedtls_platform_zeroize
 1045              	.LVL223:
 1046              	.LBE62:
 1047              	.LBE61:
 109://MAC/Home/Downloads/getstarted-optiga-trust-m/optiga-trust-m-1/externals/mbedtls/library/bignum.c ****     }
 1048              	 .loc 1 109 0
 1049 0016 A068     	 ldr r0,[r4,#8]
 1050 0018 FFF7FEFF 	 bl free
 1051              	.LVL224:
 1052              	.L32:
 112://MAC/Home/Downloads/getstarted-optiga-trust-m/optiga-trust-m-1/externals/mbedtls/library/bignum.c ****     X->n = 0;
 1053              	 .loc 1 112 0
 1054 001c 0123     	 mov r3,#1
 1055 001e 2360     	 str r3,[r4]
 113://MAC/Home/Downloads/getstarted-optiga-trust-m/optiga-trust-m-1/externals/mbedtls/library/bignum.c ****     X->p = NULL;
 1056              	 .loc 1 113 0
 1057 0020 0023     	 mov r3,#0
 1058 0022 6360     	 str r3,[r4,#4]
 114://MAC/Home/Downloads/getstarted-optiga-trust-m/optiga-trust-m-1/externals/mbedtls/library/bignum.c **** }
 1059              	 .loc 1 114 0
 1060 0024 A360     	 str r3,[r4,#8]
 1061              	.LVL225:
 1062              	.L30:
 115://MAC/Home/Downloads/getstarted-optiga-trust-m/optiga-trust-m-1/externals/mbedtls/library/bignum.c **** 
 1063              	 .loc 1 115 0
 1064              	 
 1065 0026 10BD     	 pop {r4,pc}
 1066              	 .cfi_endproc
 1067              	.LFE2:
 1069              	 .section .text.mbedtls_mpi_grow,"ax",%progbits
 1070              	 .align 1
 1071              	 .global mbedtls_mpi_grow
 1072              	 .code 16
 1073              	 .thumb_func
 1075              	mbedtls_mpi_grow:
 1076              	.LFB3:
 121://MAC/Home/Downloads/getstarted-optiga-trust-m/optiga-trust-m-1/externals/mbedtls/library/bignum.c ****     mbedtls_mpi_uint *p;
 1077              	 .loc 1 121 0
 1078              	 .cfi_startproc
 1079              	.LVL226:
 125://MAC/Home/Downloads/getstarted-optiga-trust-m/optiga-trust-m-1/externals/mbedtls/library/bignum.c ****         return( MBEDTLS_ERR_MPI_ALLOC_FAILED );
 1080              	 .loc 1 125 0
 1081 0000 134B     	 ldr r3,.L51
 121://MAC/Home/Downloads/getstarted-optiga-trust-m/optiga-trust-m-1/externals/mbedtls/library/bignum.c ****     mbedtls_mpi_uint *p;
 1082              	 .loc 1 121 0
 1083 0002 F7B5     	 push {r0,r1,r2,r4,r5,r6,r7,lr}
 1084              	.LCFI5:
 1085              	 .cfi_def_cfa_offset 32
 1086              	 .cfi_offset 0,-32
 1087              	 .cfi_offset 1,-28
 1088              	 .cfi_offset 2,-24
 1089              	 .cfi_offset 4,-20
 1090              	 .cfi_offset 5,-16
 1091              	 .cfi_offset 6,-12
 1092              	 .cfi_offset 7,-8
 1093              	 .cfi_offset 14,-4
 125://MAC/Home/Downloads/getstarted-optiga-trust-m/optiga-trust-m-1/externals/mbedtls/library/bignum.c ****         return( MBEDTLS_ERR_MPI_ALLOC_FAILED );
 1094              	 .loc 1 125 0
 1095 0004 9942     	 cmp r1,r3
 1096 0006 02D9     	 bls .L40
 1097              	.LVL227:
 1098              	.L42:
 126://MAC/Home/Downloads/getstarted-optiga-trust-m/optiga-trust-m-1/externals/mbedtls/library/bignum.c **** 
 1099              	 .loc 1 126 0
 1100 0008 1023     	 mov r3,#16
 1101 000a 5B42     	 neg r3,r3
 1102 000c 1EE0     	 b .L41
 1103              	.LVL228:
 1104              	.L40:
 128://MAC/Home/Downloads/getstarted-optiga-trust-m/optiga-trust-m-1/externals/mbedtls/library/bignum.c ****     {
 1105              	 .loc 1 128 0
 1106 000e 4568     	 ldr r5,[r0,#4]
 144://MAC/Home/Downloads/getstarted-optiga-trust-m/optiga-trust-m-1/externals/mbedtls/library/bignum.c **** }
 1107              	 .loc 1 144 0
 1108 0010 0023     	 mov r3,#0
 128://MAC/Home/Downloads/getstarted-optiga-trust-m/optiga-trust-m-1/externals/mbedtls/library/bignum.c ****     {
 1109              	 .loc 1 128 0
 1110 0012 8D42     	 cmp r5,r1
 1111 0014 1AD2     	 bcs .L41
 1112 0016 0191     	 str r1,[sp,#4]
 1113 0018 041C     	 mov r4,r0
 130://MAC/Home/Downloads/getstarted-optiga-trust-m/optiga-trust-m-1/externals/mbedtls/library/bignum.c ****             return( MBEDTLS_ERR_MPI_ALLOC_FAILED );
 1114              	 .loc 1 130 0
 1115 001a 081C     	 mov r0,r1
 1116              	.LVL229:
 1117 001c 0421     	 mov r1,#4
 1118              	.LVL230:
 1119 001e FFF7FEFF 	 bl calloc
 1120              	.LVL231:
 1121 0022 061E     	 sub r6,r0,#0
 1122              	.LVL232:
 1123 0024 F0D0     	 beq .L42
 133://MAC/Home/Downloads/getstarted-optiga-trust-m/optiga-trust-m-1/externals/mbedtls/library/bignum.c ****         {
 1124              	 .loc 1 133 0
 1125 0026 A768     	 ldr r7,[r4,#8]
 1126 0028 002F     	 cmp r7,#0
 1127 002a 0BD0     	 beq .L43
 135://MAC/Home/Downloads/getstarted-optiga-trust-m/optiga-trust-m-1/externals/mbedtls/library/bignum.c ****             mbedtls_mpi_zeroize( X->p, X->n );
 1128              	 .loc 1 135 0
 1129 002c AD00     	 lsl r5,r5,#2
 1130 002e 391C     	 mov r1,r7
 1131 0030 2A1C     	 mov r2,r5
 1132 0032 FFF7FEFF 	 bl memcpy
 1133              	.LVL233:
 1134              	.LBB65:
 1135              	.LBB66:
  83://MAC/Home/Downloads/getstarted-optiga-trust-m/optiga-trust-m-1/externals/mbedtls/library/bignum.c **** }
 1136              	 .loc 1 83 0
 1137 0036 381C     	 mov r0,r7
 1138 0038 291C     	 mov r1,r5
 1139 003a FFF7FEFF 	 bl mbedtls_platform_zeroize
 1140              	.LVL234:
 1141              	.LBE66:
 1142              	.LBE65:
 137://MAC/Home/Downloads/getstarted-optiga-trust-m/optiga-trust-m-1/externals/mbedtls/library/bignum.c ****         }
 1143              	 .loc 1 137 0
 1144 003e A068     	 ldr r0,[r4,#8]
 1145 0040 FFF7FEFF 	 bl free
 1146              	.LVL235:
 1147              	.L43:
 140://MAC/Home/Downloads/getstarted-optiga-trust-m/optiga-trust-m-1/externals/mbedtls/library/bignum.c ****         X->p = p;
 1148              	 .loc 1 140 0
 1149 0044 019B     	 ldr r3,[sp,#4]
 141://MAC/Home/Downloads/getstarted-optiga-trust-m/optiga-trust-m-1/externals/mbedtls/library/bignum.c ****     }
 1150              	 .loc 1 141 0
 1151 0046 A660     	 str r6,[r4,#8]
 140://MAC/Home/Downloads/getstarted-optiga-trust-m/optiga-trust-m-1/externals/mbedtls/library/bignum.c ****         X->p = p;
 1152              	 .loc 1 140 0
 1153 0048 6360     	 str r3,[r4,#4]
 144://MAC/Home/Downloads/getstarted-optiga-trust-m/optiga-trust-m-1/externals/mbedtls/library/bignum.c **** }
 1154              	 .loc 1 144 0
 1155 004a 0023     	 mov r3,#0
 1156              	.LVL236:
 1157              	.L41:
 145://MAC/Home/Downloads/getstarted-optiga-trust-m/optiga-trust-m-1/externals/mbedtls/library/bignum.c **** 
 1158              	 .loc 1 145 0
 1159 004c 181C     	 mov r0,r3
 1160              	 
 1161 004e FEBD     	 pop {r1,r2,r3,r4,r5,r6,r7,pc}
 1162              	.L52:
 1163              	 .align 2
 1164              	.L51:
 1165 0050 10270000 	 .word 10000
 1166              	 .cfi_endproc
 1167              	.LFE3:
 1169              	 .section .text.mbedtls_mpi_shrink,"ax",%progbits
 1170              	 .align 1
 1171              	 .global mbedtls_mpi_shrink
 1172              	 .code 16
 1173              	 .thumb_func
 1175              	mbedtls_mpi_shrink:
 1176              	.LFB4:
 152://MAC/Home/Downloads/getstarted-optiga-trust-m/optiga-trust-m-1/externals/mbedtls/library/bignum.c ****     mbedtls_mpi_uint *p;
 1177              	 .loc 1 152 0
 1178              	 .cfi_startproc
 1179              	.LVL237:
 157://MAC/Home/Downloads/getstarted-optiga-trust-m/optiga-trust-m-1/externals/mbedtls/library/bignum.c ****         return( MBEDTLS_ERR_MPI_ALLOC_FAILED );
 1180              	 .loc 1 157 0
 1181 0000 1C4B     	 ldr r3,.L69
 152://MAC/Home/Downloads/getstarted-optiga-trust-m/optiga-trust-m-1/externals/mbedtls/library/bignum.c ****     mbedtls_mpi_uint *p;
 1182              	 .loc 1 152 0
 1183 0002 F7B5     	 push {r0,r1,r2,r4,r5,r6,r7,lr}
 1184              	.LCFI6:
 1185              	 .cfi_def_cfa_offset 32
 1186              	 .cfi_offset 0,-32
 1187              	 .cfi_offset 1,-28
 1188              	 .cfi_offset 2,-24
 1189              	 .cfi_offset 4,-20
 1190              	 .cfi_offset 5,-16
 1191              	 .cfi_offset 6,-12
 1192              	 .cfi_offset 7,-8
 1193              	 .cfi_offset 14,-4
 157://MAC/Home/Downloads/getstarted-optiga-trust-m/optiga-trust-m-1/externals/mbedtls/library/bignum.c ****         return( MBEDTLS_ERR_MPI_ALLOC_FAILED );
 1194              	 .loc 1 157 0
 1195 0004 9942     	 cmp r1,r3
 1196 0006 02D9     	 bls .L54
 1197              	.LVL238:
 1198              	.L61:
 158://MAC/Home/Downloads/getstarted-optiga-trust-m/optiga-trust-m-1/externals/mbedtls/library/bignum.c **** 
 1199              	 .loc 1 158 0
 1200 0008 1020     	 mov r0,#16
 1201 000a 4042     	 neg r0,r0
 1202 000c 30E0     	 b .L55
 1203              	.LVL239:
 1204              	.L54:
 161://MAC/Home/Downloads/getstarted-optiga-trust-m/optiga-trust-m-1/externals/mbedtls/library/bignum.c ****         return( mbedtls_mpi_grow( X, nblimbs ) );
 1205              	 .loc 1 161 0
 1206 000e 4368     	 ldr r3,[r0,#4]
 1207 0010 051C     	 mov r5,r0
 1208 0012 8B42     	 cmp r3,r1
 1209 0014 02D8     	 bhi .L56
 162://MAC/Home/Downloads/getstarted-optiga-trust-m/optiga-trust-m-1/externals/mbedtls/library/bignum.c **** 
 1210              	 .loc 1 162 0
 1211 0016 FFF7FEFF 	 bl mbedtls_mpi_grow
 1212              	.LVL240:
 1213 001a 29E0     	 b .L55
 1214              	.LVL241:
 1215              	.L56:
 1216 001c 164A     	 ldr r2,.L69+4
 164://MAC/Home/Downloads/getstarted-optiga-trust-m/optiga-trust-m-1/externals/mbedtls/library/bignum.c ****         if( X->p[i] != 0 )
 1217              	 .loc 1 164 0
 1218 001e 5C1E     	 sub r4,r3,#1
 1219              	.LVL242:
 1220 0020 9B18     	 add r3,r3,r2
 1221 0022 9B00     	 lsl r3,r3,#2
 1222 0024 0193     	 str r3,[sp,#4]
 1223              	.L57:
 164://MAC/Home/Downloads/getstarted-optiga-trust-m/optiga-trust-m-1/externals/mbedtls/library/bignum.c ****         if( X->p[i] != 0 )
 1224              	 .loc 1 164 0 is_stmt 0 discriminator 1
 1225 0026 002C     	 cmp r4,#0
 1226 0028 06D0     	 beq .L58
 165://MAC/Home/Downloads/getstarted-optiga-trust-m/optiga-trust-m-1/externals/mbedtls/library/bignum.c ****             break;
 1227              	 .loc 1 165 0 is_stmt 1
 1228 002a AA68     	 ldr r2,[r5,#8]
 1229 002c D258     	 ldr r2,[r2,r3]
 1230 002e 043B     	 sub r3,r3,#4
 1231 0030 002A     	 cmp r2,#0
 1232 0032 01D1     	 bne .L58
 164://MAC/Home/Downloads/getstarted-optiga-trust-m/optiga-trust-m-1/externals/mbedtls/library/bignum.c ****         if( X->p[i] != 0 )
 1233              	 .loc 1 164 0 discriminator 2
 1234 0034 013C     	 sub r4,r4,#1
 1235              	.LVL243:
 1236 0036 F6E7     	 b .L57
 1237              	.L58:
 167://MAC/Home/Downloads/getstarted-optiga-trust-m/optiga-trust-m-1/externals/mbedtls/library/bignum.c **** 
 1238              	 .loc 1 167 0
 1239 0038 0134     	 add r4,r4,#1
 1240              	.LVL244:
 1241 003a 8C42     	 cmp r4,r1
 1242 003c 00D2     	 bcs .L60
 1243 003e 0C1C     	 mov r4,r1
 1244              	.L60:
 1245              	.LVL245:
 172://MAC/Home/Downloads/getstarted-optiga-trust-m/optiga-trust-m-1/externals/mbedtls/library/bignum.c ****         return( MBEDTLS_ERR_MPI_ALLOC_FAILED );
 1246              	 .loc 1 172 0
 1247 0040 201C     	 mov r0,r4
 1248              	.LVL246:
 1249 0042 0421     	 mov r1,#4
 1250              	.LVL247:
 1251 0044 FFF7FEFF 	 bl calloc
 1252              	.LVL248:
 1253 0048 061E     	 sub r6,r0,#0
 1254              	.LVL249:
 1255 004a DDD0     	 beq .L61
 175://MAC/Home/Downloads/getstarted-optiga-trust-m/optiga-trust-m-1/externals/mbedtls/library/bignum.c ****     {
 1256              	 .loc 1 175 0
 1257 004c AF68     	 ldr r7,[r5,#8]
 1258 004e 002F     	 cmp r7,#0
 1259 0050 0BD0     	 beq .L62
 177://MAC/Home/Downloads/getstarted-optiga-trust-m/optiga-trust-m-1/externals/mbedtls/library/bignum.c ****         mbedtls_mpi_zeroize( X->p, X->n );
 1260              	 .loc 1 177 0
 1261 0052 A200     	 lsl r2,r4,#2
 1262 0054 391C     	 mov r1,r7
 1263 0056 FFF7FEFF 	 bl memcpy
 1264              	.LVL250:
 1265              	.LBB69:
 1266              	.LBB70:
  83://MAC/Home/Downloads/getstarted-optiga-trust-m/optiga-trust-m-1/externals/mbedtls/library/bignum.c **** }
 1267              	 .loc 1 83 0
 1268 005a 0199     	 ldr r1,[sp,#4]
 1269 005c 381C     	 mov r0,r7
 1270 005e 0431     	 add r1,r1,#4
 1271 0060 FFF7FEFF 	 bl mbedtls_platform_zeroize
 1272              	.LVL251:
 1273              	.LBE70:
 1274              	.LBE69:
 179://MAC/Home/Downloads/getstarted-optiga-trust-m/optiga-trust-m-1/externals/mbedtls/library/bignum.c ****     }
 1275              	 .loc 1 179 0
 1276 0064 A868     	 ldr r0,[r5,#8]
 1277 0066 FFF7FEFF 	 bl free
 1278              	.LVL252:
 1279              	.L62:
 185://MAC/Home/Downloads/getstarted-optiga-trust-m/optiga-trust-m-1/externals/mbedtls/library/bignum.c **** }
 1280              	 .loc 1 185 0
 1281 006a 0020     	 mov r0,#0
 182://MAC/Home/Downloads/getstarted-optiga-trust-m/optiga-trust-m-1/externals/mbedtls/library/bignum.c ****     X->p = p;
 1282              	 .loc 1 182 0
 1283 006c 6C60     	 str r4,[r5,#4]
 183://MAC/Home/Downloads/getstarted-optiga-trust-m/optiga-trust-m-1/externals/mbedtls/library/bignum.c **** 
 1284              	 .loc 1 183 0
 1285 006e AE60     	 str r6,[r5,#8]
 1286              	.LVL253:
 1287              	.L55:
 186://MAC/Home/Downloads/getstarted-optiga-trust-m/optiga-trust-m-1/externals/mbedtls/library/bignum.c **** 
 1288              	 .loc 1 186 0
 1289              	 
 1290 0070 FEBD     	 pop {r1,r2,r3,r4,r5,r6,r7,pc}
 1291              	.L70:
 1292 0072 C046     	 .align 2
 1293              	.L69:
 1294 0074 10270000 	 .word 10000
 1295 0078 FFFFFF3F 	 .word 1073741823
 1296              	 .cfi_endproc
 1297              	.LFE4:
 1299              	 .section .text.mbedtls_mpi_copy,"ax",%progbits
 1300              	 .align 1
 1301              	 .global mbedtls_mpi_copy
 1302              	 .code 16
 1303              	 .thumb_func
 1305              	mbedtls_mpi_copy:
 1306              	.LFB5:
 192://MAC/Home/Downloads/getstarted-optiga-trust-m/optiga-trust-m-1/externals/mbedtls/library/bignum.c ****     int ret = 0;
 1307              	 .loc 1 192 0
 1308              	 .cfi_startproc
 1309              	.LVL254:
 1310 0000 F8B5     	 push {r3,r4,r5,r6,r7,lr}
 1311              	.LCFI7:
 1312              	 .cfi_def_cfa_offset 24
 1313              	 .cfi_offset 3,-24
 1314              	 .cfi_offset 4,-20
 1315              	 .cfi_offset 5,-16
 1316              	 .cfi_offset 6,-12
 1317              	 .cfi_offset 7,-8
 1318              	 .cfi_offset 14,-4
 192://MAC/Home/Downloads/getstarted-optiga-trust-m/optiga-trust-m-1/externals/mbedtls/library/bignum.c ****     int ret = 0;
 1319              	 .loc 1 192 0
 1320 0002 051C     	 mov r5,r0
 199://MAC/Home/Downloads/getstarted-optiga-trust-m/optiga-trust-m-1/externals/mbedtls/library/bignum.c **** 
 1321              	 .loc 1 199 0
 1322 0004 0020     	 mov r0,#0
 1323              	.LVL255:
 198://MAC/Home/Downloads/getstarted-optiga-trust-m/optiga-trust-m-1/externals/mbedtls/library/bignum.c ****         return( 0 );
 1324              	 .loc 1 198 0
 1325 0006 8D42     	 cmp r5,r1
 1326 0008 2DD0     	 beq .L72
 201://MAC/Home/Downloads/getstarted-optiga-trust-m/optiga-trust-m-1/externals/mbedtls/library/bignum.c ****     {
 1327              	 .loc 1 201 0
 1328 000a 8F68     	 ldr r7,[r1,#8]
 1329 000c 0E1C     	 mov r6,r1
 1330 000e 8742     	 cmp r7,r0
 1331 0010 04D1     	 bne .L73
 203://MAC/Home/Downloads/getstarted-optiga-trust-m/optiga-trust-m-1/externals/mbedtls/library/bignum.c ****         return( 0 );
 1332              	 .loc 1 203 0
 1333 0012 281C     	 mov r0,r5
 1334 0014 FFF7FEFF 	 bl mbedtls_mpi_free
 1335              	.LVL256:
 204://MAC/Home/Downloads/getstarted-optiga-trust-m/optiga-trust-m-1/externals/mbedtls/library/bignum.c ****     }
 1336              	 .loc 1 204 0
 1337 0018 381C     	 mov r0,r7
 1338 001a 24E0     	 b .L72
 1339              	.LVL257:
 1340              	.L73:
 207://MAC/Home/Downloads/getstarted-optiga-trust-m/optiga-trust-m-1/externals/mbedtls/library/bignum.c ****         if( Y->p[i] != 0 )
 1341              	 .loc 1 207 0
 1342 001c 4B68     	 ldr r3,[r1,#4]
 1343 001e 5C1E     	 sub r4,r3,#1
 1344              	.LVL258:
 1345              	.L74:
 207://MAC/Home/Downloads/getstarted-optiga-trust-m/optiga-trust-m-1/externals/mbedtls/library/bignum.c ****         if( Y->p[i] != 0 )
 1346              	 .loc 1 207 0 is_stmt 0 discriminator 1
 1347 0020 002C     	 cmp r4,#0
 1348 0022 05D0     	 beq .L75
 1349 0024 A300     	 lsl r3,r4,#2
 208://MAC/Home/Downloads/getstarted-optiga-trust-m/optiga-trust-m-1/externals/mbedtls/library/bignum.c ****             break;
 1350              	 .loc 1 208 0 is_stmt 1
 1351 0026 FB58     	 ldr r3,[r7,r3]
 1352 0028 002B     	 cmp r3,#0
 1353 002a 01D1     	 bne .L75
 207://MAC/Home/Downloads/getstarted-optiga-trust-m/optiga-trust-m-1/externals/mbedtls/library/bignum.c ****         if( Y->p[i] != 0 )
 1354              	 .loc 1 207 0 discriminator 2
 1355 002c 013C     	 sub r4,r4,#1
 1356              	.LVL259:
 1357 002e F7E7     	 b .L74
 1358              	.L75:
 212://MAC/Home/Downloads/getstarted-optiga-trust-m/optiga-trust-m-1/externals/mbedtls/library/bignum.c **** 
 1359              	 .loc 1 212 0
 1360 0030 3368     	 ldr r3,[r6]
 214://MAC/Home/Downloads/getstarted-optiga-trust-m/optiga-trust-m-1/externals/mbedtls/library/bignum.c ****     {
 1361              	 .loc 1 214 0
 1362 0032 6A68     	 ldr r2,[r5,#4]
 210://MAC/Home/Downloads/getstarted-optiga-trust-m/optiga-trust-m-1/externals/mbedtls/library/bignum.c **** 
 1363              	 .loc 1 210 0
 1364 0034 0134     	 add r4,r4,#1
 1365              	.LVL260:
 212://MAC/Home/Downloads/getstarted-optiga-trust-m/optiga-trust-m-1/externals/mbedtls/library/bignum.c **** 
 1366              	 .loc 1 212 0
 1367 0036 2B60     	 str r3,[r5]
 214://MAC/Home/Downloads/getstarted-optiga-trust-m/optiga-trust-m-1/externals/mbedtls/library/bignum.c ****     {
 1368              	 .loc 1 214 0
 1369 0038 A242     	 cmp r2,r4
 1370 003a 06D2     	 bcs .L77
 216://MAC/Home/Downloads/getstarted-optiga-trust-m/optiga-trust-m-1/externals/mbedtls/library/bignum.c ****     }
 1371              	 .loc 1 216 0
 1372 003c 281C     	 mov r0,r5
 1373 003e 211C     	 mov r1,r4
 1374              	.LVL261:
 1375 0040 FFF7FEFF 	 bl mbedtls_mpi_grow
 1376              	.LVL262:
 1377 0044 0028     	 cmp r0,#0
 1378 0046 0ED1     	 bne .L72
 1379 0048 07E0     	 b .L78
 1380              	.LVL263:
 1381              	.L77:
 220://MAC/Home/Downloads/getstarted-optiga-trust-m/optiga-trust-m-1/externals/mbedtls/library/bignum.c ****     }
 1382              	 .loc 1 220 0
 1383 004a AB68     	 ldr r3,[r5,#8]
 1384 004c 121B     	 sub r2,r2,r4
 1385 004e A000     	 lsl r0,r4,#2
 1386 0050 9200     	 lsl r2,r2,#2
 1387 0052 1818     	 add r0,r3,r0
 1388 0054 0021     	 mov r1,#0
 1389              	.LVL264:
 1390 0056 FFF7FEFF 	 bl memset
 1391              	.LVL265:
 1392              	.L78:
 223://MAC/Home/Downloads/getstarted-optiga-trust-m/optiga-trust-m-1/externals/mbedtls/library/bignum.c **** 
 1393              	 .loc 1 223 0
 1394 005a A868     	 ldr r0,[r5,#8]
 1395 005c A200     	 lsl r2,r4,#2
 1396 005e B168     	 ldr r1,[r6,#8]
 1397 0060 FFF7FEFF 	 bl memcpy
 1398              	.LVL266:
 1399 0064 0020     	 mov r0,#0
 1400              	.LVL267:
 1401              	.L72:
 228://MAC/Home/Downloads/getstarted-optiga-trust-m/optiga-trust-m-1/externals/mbedtls/library/bignum.c **** 
 1402              	 .loc 1 228 0
 1403              	 
 1404              	.LVL268:
 1405 0066 F8BD     	 pop {r3,r4,r5,r6,r7,pc}
 1406              	 .cfi_endproc
 1407              	.LFE5:
 1409              	 .section .text.mbedtls_mpi_swap,"ax",%progbits
 1410              	 .align 1
 1411              	 .global mbedtls_mpi_swap
 1412              	 .code 16
 1413              	 .thumb_func
 1415              	mbedtls_mpi_swap:
 1416              	.LFB6:
 234://MAC/Home/Downloads/getstarted-optiga-trust-m/optiga-trust-m-1/externals/mbedtls/library/bignum.c ****     mbedtls_mpi T;
 1417              	 .loc 1 234 0
 1418              	 .cfi_startproc
 1419              	.LVL269:
 1420 0000 7FB5     	 push {r0,r1,r2,r3,r4,r5,r6,lr}
 1421              	.LCFI8:
 1422              	 .cfi_def_cfa_offset 32
 1423              	 .cfi_offset 0,-32
 1424              	 .cfi_offset 1,-28
 1425              	 .cfi_offset 2,-24
 1426              	 .cfi_offset 3,-20
 1427              	 .cfi_offset 4,-16
 1428              	 .cfi_offset 5,-12
 1429              	 .cfi_offset 6,-8
 1430              	 .cfi_offset 14,-4
 234://MAC/Home/Downloads/getstarted-optiga-trust-m/optiga-trust-m-1/externals/mbedtls/library/bignum.c ****     mbedtls_mpi T;
 1431              	 .loc 1 234 0
 1432 0002 061C     	 mov r6,r0
 239://MAC/Home/Downloads/getstarted-optiga-trust-m/optiga-trust-m-1/externals/mbedtls/library/bignum.c ****     memcpy(  X,  Y, sizeof( mbedtls_mpi ) );
 1433              	 .loc 1 239 0
 1434 0004 0C24     	 mov r4,#12
 234://MAC/Home/Downloads/getstarted-optiga-trust-m/optiga-trust-m-1/externals/mbedtls/library/bignum.c ****     mbedtls_mpi T;
 1435              	 .loc 1 234 0
 1436 0006 0D1C     	 mov r5,r1
 239://MAC/Home/Downloads/getstarted-optiga-trust-m/optiga-trust-m-1/externals/mbedtls/library/bignum.c ****     memcpy(  X,  Y, sizeof( mbedtls_mpi ) );
 1437              	 .loc 1 239 0
 1438 0008 221C     	 mov r2,r4
 1439 000a 311C     	 mov r1,r6
 1440              	.LVL270:
 1441 000c 01A8     	 add r0,sp,#4
 1442              	.LVL271:
 1443 000e FFF7FEFF 	 bl memcpy
 1444              	.LVL272:
 240://MAC/Home/Downloads/getstarted-optiga-trust-m/optiga-trust-m-1/externals/mbedtls/library/bignum.c ****     memcpy(  Y, &T, sizeof( mbedtls_mpi ) );
 1445              	 .loc 1 240 0
 1446 0012 291C     	 mov r1,r5
 1447 0014 301C     	 mov r0,r6
 1448 0016 221C     	 mov r2,r4
 1449 0018 FFF7FEFF 	 bl memcpy
 1450              	.LVL273:
 241://MAC/Home/Downloads/getstarted-optiga-trust-m/optiga-trust-m-1/externals/mbedtls/library/bignum.c **** }
 1451              	 .loc 1 241 0
 1452 001c 281C     	 mov r0,r5
 1453 001e 01A9     	 add r1,sp,#4
 1454 0020 221C     	 mov r2,r4
 1455 0022 FFF7FEFF 	 bl memcpy
 1456              	.LVL274:
 242://MAC/Home/Downloads/getstarted-optiga-trust-m/optiga-trust-m-1/externals/mbedtls/library/bignum.c **** 
 1457              	 .loc 1 242 0
 1458              	 
 1459              	.LVL275:
 1460              	.LVL276:
 1461 0026 7FBD     	 pop {r0,r1,r2,r3,r4,r5,r6,pc}
 1462              	 .cfi_endproc
 1463              	.LFE6:
 1465              	 .section .text.mbedtls_mpi_safe_cond_assign,"ax",%progbits
 1466              	 .align 1
 1467              	 .global mbedtls_mpi_safe_cond_assign
 1468              	 .code 16
 1469              	 .thumb_func
 1471              	mbedtls_mpi_safe_cond_assign:
 1472              	.LFB7:
 250://MAC/Home/Downloads/getstarted-optiga-trust-m/optiga-trust-m-1/externals/mbedtls/library/bignum.c ****     int ret = 0;
 1473              	 .loc 1 250 0
 1474              	 .cfi_startproc
 1475              	.LVL277:
 1476 0000 F7B5     	 push {r0,r1,r2,r4,r5,r6,r7,lr}
 1477              	.LCFI9:
 1478              	 .cfi_def_cfa_offset 32
 1479              	 .cfi_offset 0,-32
 1480              	 .cfi_offset 1,-28
 1481              	 .cfi_offset 2,-24
 1482              	 .cfi_offset 4,-20
 1483              	 .cfi_offset 5,-16
 1484              	 .cfi_offset 6,-12
 1485              	 .cfi_offset 7,-8
 1486              	 .cfi_offset 14,-4
 250://MAC/Home/Downloads/getstarted-optiga-trust-m/optiga-trust-m-1/externals/mbedtls/library/bignum.c ****     int ret = 0;
 1487              	 .loc 1 250 0
 1488 0002 0D1C     	 mov r5,r1
 259://MAC/Home/Downloads/getstarted-optiga-trust-m/optiga-trust-m-1/externals/mbedtls/library/bignum.c **** 
 1489              	 .loc 1 259 0
 1490 0004 4968     	 ldr r1,[r1,#4]
 1491              	.LVL278:
 250://MAC/Home/Downloads/getstarted-optiga-trust-m/optiga-trust-m-1/externals/mbedtls/library/bignum.c ****     int ret = 0;
 1492              	 .loc 1 250 0
 1493 0006 041C     	 mov r4,r0
 1494 0008 161C     	 mov r6,r2
 1495              	.LVL279:
 259://MAC/Home/Downloads/getstarted-optiga-trust-m/optiga-trust-m-1/externals/mbedtls/library/bignum.c **** 
 1496              	 .loc 1 259 0
 1497 000a FFF7FEFF 	 bl mbedtls_mpi_grow
 1498              	.LVL280:
 1499 000e 8446     	 mov ip,r0
 1500              	.LVL281:
 1501 0010 0028     	 cmp r0,#0
 1502 0012 2BD1     	 bne .L89
 261://MAC/Home/Downloads/getstarted-optiga-trust-m/optiga-trust-m-1/externals/mbedtls/library/bignum.c **** 
 1503              	 .loc 1 261 0
 1504 0014 0121     	 mov r1,#1
 263://MAC/Home/Downloads/getstarted-optiga-trust-m/optiga-trust-m-1/externals/mbedtls/library/bignum.c ****         X->p[i] = X->p[i] * ( 1 - assign ) + Y->p[i] * assign;
 1505              	 .loc 1 263 0
 1506 0016 6746     	 mov r7,ip
 257://MAC/Home/Downloads/getstarted-optiga-trust-m/optiga-trust-m-1/externals/mbedtls/library/bignum.c **** 
 1507              	 .loc 1 257 0
 1508 0018 7242     	 neg r2,r6
 1509 001a 3243     	 orr r2,r6
 1510 001c D2B2     	 uxtb r2,r2
 1511 001e D209     	 lsr r2,r2,#7
 261://MAC/Home/Downloads/getstarted-optiga-trust-m/optiga-trust-m-1/externals/mbedtls/library/bignum.c **** 
 1512              	 .loc 1 261 0
 1513 0020 2068     	 ldr r0,[r4]
 1514              	.LVL282:
 1515 0022 2B68     	 ldr r3,[r5]
 1516 0024 891A     	 sub r1,r1,r2
 1517 0026 4843     	 mul r0,r1
 1518 0028 5343     	 mul r3,r2
 1519 002a C318     	 add r3,r0,r3
 1520 002c 2360     	 str r3,[r4]
 1521              	.LVL283:
 263://MAC/Home/Downloads/getstarted-optiga-trust-m/optiga-trust-m-1/externals/mbedtls/library/bignum.c ****         X->p[i] = X->p[i] * ( 1 - assign ) + Y->p[i] * assign;
 1522              	 .loc 1 263 0
 1523 002e 6B68     	 ldr r3,[r5,#4]
 1524              	.LVL284:
 1525              	.L84:
 263://MAC/Home/Downloads/getstarted-optiga-trust-m/optiga-trust-m-1/externals/mbedtls/library/bignum.c ****         X->p[i] = X->p[i] * ( 1 - assign ) + Y->p[i] * assign;
 1526              	 .loc 1 263 0 is_stmt 0 discriminator 1
 1527 0030 9F42     	 cmp r7,r3
 1528 0032 0FD0     	 beq .L90
 264://MAC/Home/Downloads/getstarted-optiga-trust-m/optiga-trust-m-1/externals/mbedtls/library/bignum.c **** 
 1529              	 .loc 1 264 0 is_stmt 1 discriminator 3
 1530 0034 A068     	 ldr r0,[r4,#8]
 1531 0036 BE00     	 lsl r6,r7,#2
 1532 0038 8019     	 add r0,r0,r6
 1533 003a 0190     	 str r0,[sp,#4]
 1534 003c A868     	 ldr r0,[r5,#8]
 263://MAC/Home/Downloads/getstarted-optiga-trust-m/optiga-trust-m-1/externals/mbedtls/library/bignum.c ****         X->p[i] = X->p[i] * ( 1 - assign ) + Y->p[i] * assign;
 1535              	 .loc 1 263 0 discriminator 3
 1536 003e 0137     	 add r7,r7,#1
 1537              	.LVL285:
 264://MAC/Home/Downloads/getstarted-optiga-trust-m/optiga-trust-m-1/externals/mbedtls/library/bignum.c **** 
 1538              	 .loc 1 264 0 discriminator 3
 1539 0040 8659     	 ldr r6,[r0,r6]
 1540 0042 5643     	 mul r6,r2
 1541 0044 301C     	 mov r0,r6
 1542 0046 019E     	 ldr r6,[sp,#4]
 1543 0048 3668     	 ldr r6,[r6]
 1544 004a 4E43     	 mul r6,r1
 1545 004c 8619     	 add r6,r0,r6
 1546 004e 0198     	 ldr r0,[sp,#4]
 1547 0050 0660     	 str r6,[r0]
 1548 0052 EDE7     	 b .L84
 1549              	.L90:
 266://MAC/Home/Downloads/getstarted-optiga-trust-m/optiga-trust-m-1/externals/mbedtls/library/bignum.c ****         X->p[i] *= ( 1 - assign );
 1550              	 .loc 1 266 0
 1551 0054 6668     	 ldr r6,[r4,#4]
 1552 0056 9800     	 lsl r0,r3,#2
 1553              	.LVL286:
 1554              	.L86:
 266://MAC/Home/Downloads/getstarted-optiga-trust-m/optiga-trust-m-1/externals/mbedtls/library/bignum.c ****         X->p[i] *= ( 1 - assign );
 1555              	 .loc 1 266 0 is_stmt 0 discriminator 1
 1556 0058 B342     	 cmp r3,r6
 1557 005a 07D2     	 bcs .L89
 267://MAC/Home/Downloads/getstarted-optiga-trust-m/optiga-trust-m-1/externals/mbedtls/library/bignum.c **** 
 1558              	 .loc 1 267 0 is_stmt 1 discriminator 2
 1559 005c A268     	 ldr r2,[r4,#8]
 266://MAC/Home/Downloads/getstarted-optiga-trust-m/optiga-trust-m-1/externals/mbedtls/library/bignum.c ****         X->p[i] *= ( 1 - assign );
 1560              	 .loc 1 266 0 discriminator 2
 1561 005e 0133     	 add r3,r3,#1
 1562              	.LVL287:
 267://MAC/Home/Downloads/getstarted-optiga-trust-m/optiga-trust-m-1/externals/mbedtls/library/bignum.c **** 
 1563              	 .loc 1 267 0 discriminator 2
 1564 0060 1218     	 add r2,r2,r0
 1565 0062 1568     	 ldr r5,[r2]
 1566 0064 0430     	 add r0,r0,#4
 1567 0066 4D43     	 mul r5,r1
 1568 0068 1560     	 str r5,[r2]
 1569 006a F5E7     	 b .L86
 1570              	.LVL288:
 1571              	.L89:
 271://MAC/Home/Downloads/getstarted-optiga-trust-m/optiga-trust-m-1/externals/mbedtls/library/bignum.c **** 
 1572              	 .loc 1 271 0
 1573 006c 6046     	 mov r0,ip
 1574              	 
 1575              	.LVL289:
 1576 006e FEBD     	 pop {r1,r2,r3,r4,r5,r6,r7,pc}
 1577              	 .cfi_endproc
 1578              	.LFE7:
 1580              	 .section .text.mbedtls_mpi_safe_cond_swap,"ax",%progbits
 1581              	 .align 1
 1582              	 .global mbedtls_mpi_safe_cond_swap
 1583              	 .code 16
 1584              	 .thumb_func
 1586              	mbedtls_mpi_safe_cond_swap:
 1587              	.LFB8:
 280://MAC/Home/Downloads/getstarted-optiga-trust-m/optiga-trust-m-1/externals/mbedtls/library/bignum.c ****     int ret, s;
 1588              	 .loc 1 280 0
 1589              	 .cfi_startproc
 1590              	.LVL290:
 1591 0000 F7B5     	 push {r0,r1,r2,r4,r5,r6,r7,lr}
 1592              	.LCFI10:
 1593              	 .cfi_def_cfa_offset 32
 1594              	 .cfi_offset 0,-32
 1595              	 .cfi_offset 1,-28
 1596              	 .cfi_offset 2,-24
 1597              	 .cfi_offset 4,-20
 1598              	 .cfi_offset 5,-16
 1599              	 .cfi_offset 6,-12
 1600              	 .cfi_offset 7,-8
 1601              	 .cfi_offset 14,-4
 287://MAC/Home/Downloads/getstarted-optiga-trust-m/optiga-trust-m-1/externals/mbedtls/library/bignum.c ****         return( 0 );
 1602              	 .loc 1 287 0
 1603 0002 8842     	 cmp r0,r1
 1604 0004 01D1     	 bne .L92
 1605              	.LVL291:
 1606              	.L96:
 288://MAC/Home/Downloads/getstarted-optiga-trust-m/optiga-trust-m-1/externals/mbedtls/library/bignum.c **** 
 1607              	 .loc 1 288 0
 1608 0006 0023     	 mov r3,#0
 1609 0008 3CE0     	 b .L93
 1610              	.LVL292:
 1611              	.L92:
 1612 000a 0D1C     	 mov r5,r1
 293://MAC/Home/Downloads/getstarted-optiga-trust-m/optiga-trust-m-1/externals/mbedtls/library/bignum.c ****     MBEDTLS_MPI_CHK( mbedtls_mpi_grow( Y, X->n ) );
 1613              	 .loc 1 293 0
 1614 000c 4968     	 ldr r1,[r1,#4]
 1615              	.LVL293:
 1616 000e 161C     	 mov r6,r2
 1617 0010 041C     	 mov r4,r0
 1618              	.LVL294:
 1619 0012 FFF7FEFF 	 bl mbedtls_mpi_grow
 1620              	.LVL295:
 1621 0016 031E     	 sub r3,r0,#0
 1622 0018 34D1     	 bne .L93
 294://MAC/Home/Downloads/getstarted-optiga-trust-m/optiga-trust-m-1/externals/mbedtls/library/bignum.c **** 
 1623              	 .loc 1 294 0
 1624 001a 281C     	 mov r0,r5
 1625              	.LVL296:
 1626 001c 6168     	 ldr r1,[r4,#4]
 1627 001e FFF7FEFF 	 bl mbedtls_mpi_grow
 1628              	.LVL297:
 1629 0022 031E     	 sub r3,r0,#0
 1630 0024 2ED1     	 bne .L93
 297://MAC/Home/Downloads/getstarted-optiga-trust-m/optiga-trust-m-1/externals/mbedtls/library/bignum.c ****     Y->s = Y->s * ( 1 - swap ) +    s * swap;
 1631              	 .loc 1 297 0
 1632 0026 0123     	 mov r3,#1
 291://MAC/Home/Downloads/getstarted-optiga-trust-m/optiga-trust-m-1/externals/mbedtls/library/bignum.c **** 
 1633              	 .loc 1 291 0
 1634 0028 7242     	 neg r2,r6
 1635 002a 1643     	 orr r6,r2
 1636              	.LVL298:
 1637 002c F2B2     	 uxtb r2,r6
 1638 002e D209     	 lsr r2,r2,#7
 297://MAC/Home/Downloads/getstarted-optiga-trust-m/optiga-trust-m-1/externals/mbedtls/library/bignum.c ****     Y->s = Y->s * ( 1 - swap ) +    s * swap;
 1639              	 .loc 1 297 0
 1640 0030 9B1A     	 sub r3,r3,r2
 1641 0032 1F1C     	 mov r7,r3
 296://MAC/Home/Downloads/getstarted-optiga-trust-m/optiga-trust-m-1/externals/mbedtls/library/bignum.c ****     X->s = X->s * ( 1 - swap ) + Y->s * swap;
 1642              	 .loc 1 296 0
 1643 0034 2168     	 ldr r1,[r4]
 1644              	.LVL299:
 297://MAC/Home/Downloads/getstarted-optiga-trust-m/optiga-trust-m-1/externals/mbedtls/library/bignum.c ****     Y->s = Y->s * ( 1 - swap ) +    s * swap;
 1645              	 .loc 1 297 0
 1646 0036 2E68     	 ldr r6,[r5]
 1647 0038 4F43     	 mul r7,r1
 1648 003a 5643     	 mul r6,r2
 1649 003c BE19     	 add r6,r7,r6
 1650 003e 2660     	 str r6,[r4]
 298://MAC/Home/Downloads/getstarted-optiga-trust-m/optiga-trust-m-1/externals/mbedtls/library/bignum.c **** 
 1651              	 .loc 1 298 0
 1652 0040 2E68     	 ldr r6,[r5]
 1653 0042 5143     	 mul r1,r2
 1654              	.LVL300:
 1655 0044 5E43     	 mul r6,r3
 1656 0046 7118     	 add r1,r6,r1
 1657 0048 2960     	 str r1,[r5]
 1658              	.LVL301:
 301://MAC/Home/Downloads/getstarted-optiga-trust-m/optiga-trust-m-1/externals/mbedtls/library/bignum.c ****     {
 1659              	 .loc 1 301 0
 1660 004a 6168     	 ldr r1,[r4,#4]
 1661 004c 0191     	 str r1,[sp,#4]
 1662              	.LVL302:
 1663              	.L94:
 301://MAC/Home/Downloads/getstarted-optiga-trust-m/optiga-trust-m-1/externals/mbedtls/library/bignum.c ****     {
 1664              	 .loc 1 301 0 is_stmt 0 discriminator 1
 1665 004e 0199     	 ldr r1,[sp,#4]
 1666 0050 8842     	 cmp r0,r1
 1667 0052 D8D0     	 beq .L96
 303://MAC/Home/Downloads/getstarted-optiga-trust-m/optiga-trust-m-1/externals/mbedtls/library/bignum.c ****         X->p[i] = X->p[i] * ( 1 - swap ) + Y->p[i] * swap;
 1668              	 .loc 1 303 0 is_stmt 1 discriminator 3
 1669 0054 A668     	 ldr r6,[r4,#8]
 1670 0056 8100     	 lsl r1,r0,#2
 1671 0058 7618     	 add r6,r6,r1
 1672 005a 3768     	 ldr r7,[r6]
 1673 005c 0096     	 str r6,[sp]
 1674 005e BC46     	 mov ip,r7
 1675              	.LVL303:
 304://MAC/Home/Downloads/getstarted-optiga-trust-m/optiga-trust-m-1/externals/mbedtls/library/bignum.c ****         Y->p[i] = Y->p[i] * ( 1 - swap ) +     tmp * swap;
 1676              	 .loc 1 304 0 discriminator 3
 1677 0060 AF68     	 ldr r7,[r5,#8]
 1678              	.LVL304:
 301://MAC/Home/Downloads/getstarted-optiga-trust-m/optiga-trust-m-1/externals/mbedtls/library/bignum.c ****     {
 1679              	 .loc 1 301 0 discriminator 3
 1680 0062 0130     	 add r0,r0,#1
 1681              	.LVL305:
 304://MAC/Home/Downloads/getstarted-optiga-trust-m/optiga-trust-m-1/externals/mbedtls/library/bignum.c ****         Y->p[i] = Y->p[i] * ( 1 - swap ) +     tmp * swap;
 1682              	 .loc 1 304 0 discriminator 3
 1683 0064 7918     	 add r1,r7,r1
 1684 0066 0F68     	 ldr r7,[r1]
 1685 0068 5743     	 mul r7,r2
 1686 006a 3E1C     	 mov r6,r7
 1687 006c 6746     	 mov r7,ip
 1688 006e 5F43     	 mul r7,r3
 1689 0070 F719     	 add r7,r6,r7
 1690 0072 009E     	 ldr r6,[sp]
 1691 0074 3760     	 str r7,[r6]
 305://MAC/Home/Downloads/getstarted-optiga-trust-m/optiga-trust-m-1/externals/mbedtls/library/bignum.c ****     }
 1692              	 .loc 1 305 0 discriminator 3
 1693 0076 6746     	 mov r7,ip
 1694 0078 0E68     	 ldr r6,[r1]
 1695 007a 5743     	 mul r7,r2
 1696 007c 5E43     	 mul r6,r3
 1697 007e BE19     	 add r6,r7,r6
 1698 0080 0E60     	 str r6,[r1]
 1699 0082 E4E7     	 b .L94
 1700              	.LVL306:
 1701              	.L93:
 310://MAC/Home/Downloads/getstarted-optiga-trust-m/optiga-trust-m-1/externals/mbedtls/library/bignum.c **** 
 1702              	 .loc 1 310 0
 1703 0084 181C     	 mov r0,r3
 1704              	 
 1705 0086 FEBD     	 pop {r1,r2,r3,r4,r5,r6,r7,pc}
 1706              	 .cfi_endproc
 1707              	.LFE8:
 1709              	 .section .text.mbedtls_mpi_lset,"ax",%progbits
 1710              	 .align 1
 1711              	 .global mbedtls_mpi_lset
 1712              	 .code 16
 1713              	 .thumb_func
 1715              	mbedtls_mpi_lset:
 1716              	.LFB9:
 316://MAC/Home/Downloads/getstarted-optiga-trust-m/optiga-trust-m-1/externals/mbedtls/library/bignum.c ****     int ret;
 1717              	 .loc 1 316 0
 1718              	 .cfi_startproc
 1719              	.LVL307:
 1720 0000 70B5     	 push {r4,r5,r6,lr}
 1721              	.LCFI11:
 1722              	 .cfi_def_cfa_offset 16
 1723              	 .cfi_offset 4,-16
 1724              	 .cfi_offset 5,-12
 1725              	 .cfi_offset 6,-8
 1726              	 .cfi_offset 14,-4
 316://MAC/Home/Downloads/getstarted-optiga-trust-m/optiga-trust-m-1/externals/mbedtls/library/bignum.c ****     int ret;
 1727              	 .loc 1 316 0
 1728 0002 0C1C     	 mov r4,r1
 320://MAC/Home/Downloads/getstarted-optiga-trust-m/optiga-trust-m-1/externals/mbedtls/library/bignum.c ****     memset( X->p, 0, X->n * ciL );
 1729              	 .loc 1 320 0
 1730 0004 0121     	 mov r1,#1
 1731              	.LVL308:
 316://MAC/Home/Downloads/getstarted-optiga-trust-m/optiga-trust-m-1/externals/mbedtls/library/bignum.c ****     int ret;
 1732              	 .loc 1 316 0
 1733 0006 051C     	 mov r5,r0
 320://MAC/Home/Downloads/getstarted-optiga-trust-m/optiga-trust-m-1/externals/mbedtls/library/bignum.c ****     memset( X->p, 0, X->n * ciL );
 1734              	 .loc 1 320 0
 1735 0008 FFF7FEFF 	 bl mbedtls_mpi_grow
 1736              	.LVL309:
 1737 000c 061E     	 sub r6,r0,#0
 1738              	.LVL310:
 1739 000e 0ED1     	 bne .L100
 1740              	.LVL311:
 1741              	.LBB73:
 1742              	.LBB74:
 321://MAC/Home/Downloads/getstarted-optiga-trust-m/optiga-trust-m-1/externals/mbedtls/library/bignum.c **** 
 1743              	 .loc 1 321 0
 1744 0010 6B68     	 ldr r3,[r5,#4]
 1745 0012 311C     	 mov r1,r6
 1746 0014 9A00     	 lsl r2,r3,#2
 1747 0016 A868     	 ldr r0,[r5,#8]
 1748              	.LVL312:
 1749 0018 FFF7FEFF 	 bl memset
 1750              	.LVL313:
 323://MAC/Home/Downloads/getstarted-optiga-trust-m/optiga-trust-m-1/externals/mbedtls/library/bignum.c ****     X->s    = ( z < 0 ) ? -1 : 1;
 1751              	 .loc 1 323 0
 1752 001c E117     	 asr r1,r4,#31
 1753 001e AB68     	 ldr r3,[r5,#8]
 1754 0020 6218     	 add r2,r4,r1
 1755 0022 4A40     	 eor r2,r1
 1756 0024 1A60     	 str r2,[r3]
 324://MAC/Home/Downloads/getstarted-optiga-trust-m/optiga-trust-m-1/externals/mbedtls/library/bignum.c **** 
 1757              	 .loc 1 324 0
 1758 0026 0123     	 mov r3,#1
 1759 0028 E417     	 asr r4,r4,#31
 1760              	.LVL314:
 1761 002a 1C43     	 orr r4,r3
 1762 002c 2C60     	 str r4,[r5]
 1763              	.LVL315:
 1764              	.L100:
 1765              	.LBE74:
 1766              	.LBE73:
 329://MAC/Home/Downloads/getstarted-optiga-trust-m/optiga-trust-m-1/externals/mbedtls/library/bignum.c **** 
 1767              	 .loc 1 329 0
 1768 002e 301C     	 mov r0,r6
 1769              	 
 1770              	.LVL316:
 1771              	.LVL317:
 1772 0030 70BD     	 pop {r4,r5,r6,pc}
 1773              	 .cfi_endproc
 1774              	.LFE9:
 1776              	 .section .text.mbedtls_mpi_get_bit,"ax",%progbits
 1777              	 .align 1
 1778              	 .global mbedtls_mpi_get_bit
 1779              	 .code 16
 1780              	 .thumb_func
 1782              	mbedtls_mpi_get_bit:
 1783              	.LFB10:
 335://MAC/Home/Downloads/getstarted-optiga-trust-m/optiga-trust-m-1/externals/mbedtls/library/bignum.c ****     MPI_VALIDATE_RET( X != NULL );
 1784              	 .loc 1 335 0
 1785              	 .cfi_startproc
 1786              	.LVL318:
 338://MAC/Home/Downloads/getstarted-optiga-trust-m/optiga-trust-m-1/externals/mbedtls/library/bignum.c ****         return( 0 );
 1787              	 .loc 1 338 0
 1788 0000 4368     	 ldr r3,[r0,#4]
 335://MAC/Home/Downloads/getstarted-optiga-trust-m/optiga-trust-m-1/externals/mbedtls/library/bignum.c ****     MPI_VALIDATE_RET( X != NULL );
 1789              	 .loc 1 335 0
 1790 0002 10B5     	 push {r4,lr}
 1791              	.LCFI12:
 1792              	 .cfi_def_cfa_offset 8
 1793              	 .cfi_offset 4,-8
 1794              	 .cfi_offset 14,-4
 338://MAC/Home/Downloads/getstarted-optiga-trust-m/optiga-trust-m-1/externals/mbedtls/library/bignum.c ****         return( 0 );
 1795              	 .loc 1 338 0
 1796 0004 5B01     	 lsl r3,r3,#5
 335://MAC/Home/Downloads/getstarted-optiga-trust-m/optiga-trust-m-1/externals/mbedtls/library/bignum.c ****     MPI_VALIDATE_RET( X != NULL );
 1797              	 .loc 1 335 0
 1798 0006 041C     	 mov r4,r0
 339://MAC/Home/Downloads/getstarted-optiga-trust-m/optiga-trust-m-1/externals/mbedtls/library/bignum.c **** 
 1799              	 .loc 1 339 0
 1800 0008 0020     	 mov r0,#0
 1801              	.LVL319:
 338://MAC/Home/Downloads/getstarted-optiga-trust-m/optiga-trust-m-1/externals/mbedtls/library/bignum.c ****         return( 0 );
 1802              	 .loc 1 338 0
 1803 000a 8B42     	 cmp r3,r1
 1804 000c 09D9     	 bls .L104
 341://MAC/Home/Downloads/getstarted-optiga-trust-m/optiga-trust-m-1/externals/mbedtls/library/bignum.c **** }
 1805              	 .loc 1 341 0
 1806 000e 1F23     	 mov r3,#31
 1807 0010 4A09     	 lsr r2,r1,#5
 1808 0012 A468     	 ldr r4,[r4,#8]
 1809              	.LVL320:
 1810 0014 9200     	 lsl r2,r2,#2
 1811 0016 1940     	 and r1,r3
 1812              	.LVL321:
 1813 0018 1359     	 ldr r3,[r2,r4]
 1814 001a CB40     	 lsr r3,r3,r1
 1815 001c 181C     	 mov r0,r3
 1816 001e 0123     	 mov r3,#1
 1817 0020 1840     	 and r0,r3
 1818              	.L104:
 342://MAC/Home/Downloads/getstarted-optiga-trust-m/optiga-trust-m-1/externals/mbedtls/library/bignum.c **** 
 1819              	 .loc 1 342 0
 1820              	 
 1821 0022 10BD     	 pop {r4,pc}
 1822              	 .cfi_endproc
 1823              	.LFE10:
 1825              	 .section .text.mbedtls_mpi_set_bit,"ax",%progbits
 1826              	 .align 1
 1827              	 .global mbedtls_mpi_set_bit
 1828              	 .code 16
 1829              	 .thumb_func
 1831              	mbedtls_mpi_set_bit:
 1832              	.LFB11:
 352://MAC/Home/Downloads/getstarted-optiga-trust-m/optiga-trust-m-1/externals/mbedtls/library/bignum.c ****     int ret = 0;
 1833              	 .loc 1 352 0
 1834              	 .cfi_startproc
 1835              	.LVL322:
 1836 0000 F8B5     	 push {r3,r4,r5,r6,r7,lr}
 1837              	.LCFI13:
 1838              	 .cfi_def_cfa_offset 24
 1839              	 .cfi_offset 3,-24
 1840              	 .cfi_offset 4,-20
 1841              	 .cfi_offset 5,-16
 1842              	 .cfi_offset 6,-12
 1843              	 .cfi_offset 7,-8
 1844              	 .cfi_offset 14,-4
 354://MAC/Home/Downloads/getstarted-optiga-trust-m/optiga-trust-m-1/externals/mbedtls/library/bignum.c ****     size_t idx = pos % biL;
 1845              	 .loc 1 354 0
 1846 0002 4C09     	 lsr r4,r1,#5
 1847              	.LVL323:
 358://MAC/Home/Downloads/getstarted-optiga-trust-m/optiga-trust-m-1/externals/mbedtls/library/bignum.c ****         return( MBEDTLS_ERR_MPI_BAD_INPUT_DATA );
 1848              	 .loc 1 358 0
 1849 0004 012A     	 cmp r2,#1
 1850 0006 1FD8     	 bhi .L110
 361://MAC/Home/Downloads/getstarted-optiga-trust-m/optiga-trust-m-1/externals/mbedtls/library/bignum.c ****     {
 1851              	 .loc 1 361 0
 1852 0008 4368     	 ldr r3,[r0,#4]
 1853 000a 151C     	 mov r5,r2
 1854 000c 0E1C     	 mov r6,r1
 1855 000e 071C     	 mov r7,r0
 1856 0010 5B01     	 lsl r3,r3,#5
 1857 0012 8B42     	 cmp r3,r1
 1858 0014 0ED9     	 bls .L108
 1859              	.LVL324:
 1860              	.L109:
 355://MAC/Home/Downloads/getstarted-optiga-trust-m/optiga-trust-m-1/externals/mbedtls/library/bignum.c ****     MPI_VALIDATE_RET( X != NULL );
 1861              	 .loc 1 355 0
 1862 0016 1F21     	 mov r1,#31
 369://MAC/Home/Downloads/getstarted-optiga-trust-m/optiga-trust-m-1/externals/mbedtls/library/bignum.c ****     X->p[off] |= (mbedtls_mpi_uint) val << idx;
 1863              	 .loc 1 369 0
 1864 0018 BB68     	 ldr r3,[r7,#8]
 1865 001a A400     	 lsl r4,r4,#2
 1866              	.LVL325:
 1867 001c 1C19     	 add r4,r3,r4
 355://MAC/Home/Downloads/getstarted-optiga-trust-m/optiga-trust-m-1/externals/mbedtls/library/bignum.c ****     MPI_VALIDATE_RET( X != NULL );
 1868              	 .loc 1 355 0
 1869 001e 3140     	 and r1,r6
 369://MAC/Home/Downloads/getstarted-optiga-trust-m/optiga-trust-m-1/externals/mbedtls/library/bignum.c ****     X->p[off] |= (mbedtls_mpi_uint) val << idx;
 1870              	 .loc 1 369 0
 1871 0020 0123     	 mov r3,#1
 370://MAC/Home/Downloads/getstarted-optiga-trust-m/optiga-trust-m-1/externals/mbedtls/library/bignum.c **** 
 1872              	 .loc 1 370 0
 1873 0022 8D40     	 lsl r5,r5,r1
 369://MAC/Home/Downloads/getstarted-optiga-trust-m/optiga-trust-m-1/externals/mbedtls/library/bignum.c ****     X->p[off] |= (mbedtls_mpi_uint) val << idx;
 1874              	 .loc 1 369 0
 1875 0024 8B40     	 lsl r3,r3,r1
 370://MAC/Home/Downloads/getstarted-optiga-trust-m/optiga-trust-m-1/externals/mbedtls/library/bignum.c **** 
 1876              	 .loc 1 370 0
 1877 0026 291C     	 mov r1,r5
 369://MAC/Home/Downloads/getstarted-optiga-trust-m/optiga-trust-m-1/externals/mbedtls/library/bignum.c ****     X->p[off] |= (mbedtls_mpi_uint) val << idx;
 1878              	 .loc 1 369 0
 1879 0028 2268     	 ldr r2,[r4]
 370://MAC/Home/Downloads/getstarted-optiga-trust-m/optiga-trust-m-1/externals/mbedtls/library/bignum.c **** 
 1880              	 .loc 1 370 0
 1881 002a 0020     	 mov r0,#0
 369://MAC/Home/Downloads/getstarted-optiga-trust-m/optiga-trust-m-1/externals/mbedtls/library/bignum.c ****     X->p[off] |= (mbedtls_mpi_uint) val << idx;
 1882              	 .loc 1 369 0
 1883 002c 9A43     	 bic r2,r3
 370://MAC/Home/Downloads/getstarted-optiga-trust-m/optiga-trust-m-1/externals/mbedtls/library/bignum.c **** 
 1884              	 .loc 1 370 0
 1885 002e 1143     	 orr r1,r2
 1886 0030 2160     	 str r1,[r4]
 1887 0032 0BE0     	 b .L107
 1888              	.LVL326:
 1889              	.L108:
 364://MAC/Home/Downloads/getstarted-optiga-trust-m/optiga-trust-m-1/externals/mbedtls/library/bignum.c **** 
 1890              	 .loc 1 364 0
 1891 0034 0020     	 mov r0,#0
 1892              	.LVL327:
 363://MAC/Home/Downloads/getstarted-optiga-trust-m/optiga-trust-m-1/externals/mbedtls/library/bignum.c ****             return( 0 );
 1893              	 .loc 1 363 0
 1894 0036 8242     	 cmp r2,r0
 1895 0038 08D0     	 beq .L107
 366://MAC/Home/Downloads/getstarted-optiga-trust-m/optiga-trust-m-1/externals/mbedtls/library/bignum.c ****     }
 1896              	 .loc 1 366 0
 1897 003a 611C     	 add r1,r4,#1
 1898              	.LVL328:
 1899 003c 381C     	 mov r0,r7
 1900 003e FFF7FEFF 	 bl mbedtls_mpi_grow
 1901              	.LVL329:
 1902 0042 0028     	 cmp r0,#0
 1903 0044 E7D0     	 beq .L109
 1904 0046 01E0     	 b .L107
 1905              	.LVL330:
 1906              	.L110:
 359://MAC/Home/Downloads/getstarted-optiga-trust-m/optiga-trust-m-1/externals/mbedtls/library/bignum.c **** 
 1907              	 .loc 1 359 0
 1908 0048 0420     	 mov r0,#4
 1909              	.LVL331:
 1910 004a 4042     	 neg r0,r0
 1911              	.LVL332:
 1912              	.L107:
 375://MAC/Home/Downloads/getstarted-optiga-trust-m/optiga-trust-m-1/externals/mbedtls/library/bignum.c **** 
 1913              	 .loc 1 375 0
 1914              	 
 1915 004c F8BD     	 pop {r3,r4,r5,r6,r7,pc}
 1916              	 .cfi_endproc
 1917              	.LFE11:
 1919              	 .section .text.mbedtls_mpi_lsb,"ax",%progbits
 1920              	 .align 1
 1921              	 .global mbedtls_mpi_lsb
 1922              	 .code 16
 1923              	 .thumb_func
 1925              	mbedtls_mpi_lsb:
 1926              	.LFB12:
 381://MAC/Home/Downloads/getstarted-optiga-trust-m/optiga-trust-m-1/externals/mbedtls/library/bignum.c ****     size_t i, j, count = 0;
 1927              	 .loc 1 381 0
 1928              	 .cfi_startproc
 1929              	.LVL333:
 382://MAC/Home/Downloads/getstarted-optiga-trust-m/optiga-trust-m-1/externals/mbedtls/library/bignum.c ****     MBEDTLS_INTERNAL_VALIDATE_RET( X != NULL, 0 );
 1930              	 .loc 1 382 0
 1931 0000 0022     	 mov r2,#0
 385://MAC/Home/Downloads/getstarted-optiga-trust-m/optiga-trust-m-1/externals/mbedtls/library/bignum.c ****         for( j = 0; j < biL; j++, count++ )
 1932              	 .loc 1 385 0
 1933 0002 111C     	 mov r1,r2
 381://MAC/Home/Downloads/getstarted-optiga-trust-m/optiga-trust-m-1/externals/mbedtls/library/bignum.c ****     size_t i, j, count = 0;
 1934              	 .loc 1 381 0
 1935 0004 F0B5     	 push {r4,r5,r6,r7,lr}
 1936              	.LCFI14:
 1937              	 .cfi_def_cfa_offset 20
 1938              	 .cfi_offset 4,-20
 1939              	 .cfi_offset 5,-16
 1940              	 .cfi_offset 6,-12
 1941              	 .cfi_offset 7,-8
 1942              	 .cfi_offset 14,-4
 385://MAC/Home/Downloads/getstarted-optiga-trust-m/optiga-trust-m-1/externals/mbedtls/library/bignum.c ****         for( j = 0; j < biL; j++, count++ )
 1943              	 .loc 1 385 0
 1944 0006 4768     	 ldr r7,[r0,#4]
 1945              	.LVL334:
 1946              	.L117:
 385://MAC/Home/Downloads/getstarted-optiga-trust-m/optiga-trust-m-1/externals/mbedtls/library/bignum.c ****         for( j = 0; j < biL; j++, count++ )
 1947              	 .loc 1 385 0 is_stmt 0 discriminator 1
 1948 0008 B942     	 cmp r1,r7
 1949 000a 14D0     	 beq .L121
 1950 000c 151C     	 mov r5,r2
 387://MAC/Home/Downloads/getstarted-optiga-trust-m/optiga-trust-m-1/externals/mbedtls/library/bignum.c ****                 return( count );
 1951              	 .loc 1 387 0 is_stmt 1
 1952 000e 8468     	 ldr r4,[r0,#8]
 1953 0010 8B00     	 lsl r3,r1,#2
 1954 0012 2035     	 add r5,r5,#32
 1955 0014 1E59     	 ldr r6,[r3,r4]
 1956 0016 AC46     	 mov ip,r5
 1957 0018 131C     	 mov r3,r2
 1958              	.LVL335:
 1959              	.L119:
 1960 001a 351C     	 mov r5,r6
 1961 001c 9C1A     	 sub r4,r3,r2
 1962              	.LVL336:
 1963 001e E540     	 lsr r5,r5,r4
 1964 0020 2C1C     	 mov r4,r5
 1965              	.LVL337:
 1966 0022 E407     	 lsl r4,r4,#31
 1967 0024 05D4     	 bmi .L120
 1968              	.LVL338:
 386://MAC/Home/Downloads/getstarted-optiga-trust-m/optiga-trust-m-1/externals/mbedtls/library/bignum.c ****             if( ( ( X->p[i] >> j ) & 1 ) != 0 )
 1969              	 .loc 1 386 0 discriminator 2
 1970 0026 0133     	 add r3,r3,#1
 1971              	.LVL339:
 1972 0028 6345     	 cmp r3,ip
 1973 002a F6D1     	 bne .L119
 385://MAC/Home/Downloads/getstarted-optiga-trust-m/optiga-trust-m-1/externals/mbedtls/library/bignum.c ****         for( j = 0; j < biL; j++, count++ )
 1974              	 .loc 1 385 0 discriminator 2
 1975 002c 0131     	 add r1,r1,#1
 1976              	.LVL340:
 1977 002e 1A1C     	 mov r2,r3
 1978              	.LVL341:
 1979 0030 EAE7     	 b .L117
 1980              	.LVL342:
 1981              	.L120:
 388://MAC/Home/Downloads/getstarted-optiga-trust-m/optiga-trust-m-1/externals/mbedtls/library/bignum.c **** 
 1982              	 .loc 1 388 0
 1983 0032 181C     	 mov r0,r3
 1984              	.LVL343:
 1985 0034 00E0     	 b .L118
 1986              	.LVL344:
 1987              	.L121:
 390://MAC/Home/Downloads/getstarted-optiga-trust-m/optiga-trust-m-1/externals/mbedtls/library/bignum.c **** }
 1988              	 .loc 1 390 0
 1989 0036 0020     	 mov r0,#0
 1990              	.LVL345:
 1991              	.L118:
 391://MAC/Home/Downloads/getstarted-optiga-trust-m/optiga-trust-m-1/externals/mbedtls/library/bignum.c **** 
 1992              	 .loc 1 391 0
 1993              	 
 1994 0038 F0BD     	 pop {r4,r5,r6,r7,pc}
 1995              	 .cfi_endproc
 1996              	.LFE12:
 1998              	 .section .text.mbedtls_mpi_bitlen,"ax",%progbits
 1999              	 .align 1
 2000              	 .global mbedtls_mpi_bitlen
 2001              	 .code 16
 2002              	 .thumb_func
 2004              	mbedtls_mpi_bitlen:
 2005              	.LFB14:
 415://MAC/Home/Downloads/getstarted-optiga-trust-m/optiga-trust-m-1/externals/mbedtls/library/bignum.c ****     size_t i, j;
 2006              	 .loc 1 415 0
 2007              	 .cfi_startproc
 2008              	.LVL346:
 418://MAC/Home/Downloads/getstarted-optiga-trust-m/optiga-trust-m-1/externals/mbedtls/library/bignum.c ****         return( 0 );
 2009              	 .loc 1 418 0
 2010 0000 4368     	 ldr r3,[r0,#4]
 415://MAC/Home/Downloads/getstarted-optiga-trust-m/optiga-trust-m-1/externals/mbedtls/library/bignum.c ****     size_t i, j;
 2011              	 .loc 1 415 0
 2012 0002 10B5     	 push {r4,lr}
 2013              	.LCFI15:
 2014              	 .cfi_def_cfa_offset 8
 2015              	 .cfi_offset 4,-8
 2016              	 .cfi_offset 14,-4
 418://MAC/Home/Downloads/getstarted-optiga-trust-m/optiga-trust-m-1/externals/mbedtls/library/bignum.c ****         return( 0 );
 2017              	 .loc 1 418 0
 2018 0004 002B     	 cmp r3,#0
 2019 0006 1AD0     	 beq .L123
 2020 0008 0E4A     	 ldr r2,.L132
 421://MAC/Home/Downloads/getstarted-optiga-trust-m/optiga-trust-m-1/externals/mbedtls/library/bignum.c ****         if( X->p[i] != 0 )
 2021              	 .loc 1 421 0
 2022 000a 591E     	 sub r1,r3,#1
 2023              	.LVL347:
 2024 000c 9B18     	 add r3,r3,r2
 2025 000e 9B00     	 lsl r3,r3,#2
 2026              	.L124:
 2027 0010 8268     	 ldr r2,[r0,#8]
 421://MAC/Home/Downloads/getstarted-optiga-trust-m/optiga-trust-m-1/externals/mbedtls/library/bignum.c ****         if( X->p[i] != 0 )
 2028              	 .loc 1 421 0 is_stmt 0 discriminator 1
 2029 0012 0029     	 cmp r1,#0
 2030 0014 05D0     	 beq .L125
 422://MAC/Home/Downloads/getstarted-optiga-trust-m/optiga-trust-m-1/externals/mbedtls/library/bignum.c ****             break;
 2031              	 .loc 1 422 0 is_stmt 1
 2032 0016 D458     	 ldr r4,[r2,r3]
 2033 0018 043B     	 sub r3,r3,#4
 2034 001a 002C     	 cmp r4,#0
 2035 001c 01D1     	 bne .L125
 421://MAC/Home/Downloads/getstarted-optiga-trust-m/optiga-trust-m-1/externals/mbedtls/library/bignum.c ****         if( X->p[i] != 0 )
 2036              	 .loc 1 421 0 discriminator 2
 2037 001e 0139     	 sub r1,r1,#1
 2038              	.LVL348:
 2039 0020 F6E7     	 b .L124
 2040              	.L125:
 425://MAC/Home/Downloads/getstarted-optiga-trust-m/optiga-trust-m-1/externals/mbedtls/library/bignum.c **** 
 2041              	 .loc 1 425 0
 2042 0022 8B00     	 lsl r3,r1,#2
 2043 0024 D058     	 ldr r0,[r2,r3]
 2044              	.LVL349:
 2045              	.LBB77:
 2046              	.LBB78:
 399://MAC/Home/Downloads/getstarted-optiga-trust-m/optiga-trust-m-1/externals/mbedtls/library/bignum.c **** 
 2047              	 .loc 1 399 0
 2048 0026 8023     	 mov r3,#128
 401://MAC/Home/Downloads/getstarted-optiga-trust-m/optiga-trust-m-1/externals/mbedtls/library/bignum.c ****     {
 2049              	 .loc 1 401 0
 2050 0028 0022     	 mov r2,#0
 399://MAC/Home/Downloads/getstarted-optiga-trust-m/optiga-trust-m-1/externals/mbedtls/library/bignum.c **** 
 2051              	 .loc 1 399 0
 2052 002a 1B06     	 lsl r3,r3,#24
 2053              	.LVL350:
 2054              	.L128:
 403://MAC/Home/Downloads/getstarted-optiga-trust-m/optiga-trust-m-1/externals/mbedtls/library/bignum.c **** 
 2055              	 .loc 1 403 0
 2056 002c 1842     	 tst r0,r3
 2057 002e 03D1     	 bne .L127
 401://MAC/Home/Downloads/getstarted-optiga-trust-m/optiga-trust-m-1/externals/mbedtls/library/bignum.c ****     {
 2058              	 .loc 1 401 0
 2059 0030 0132     	 add r2,r2,#1
 2060              	.LVL351:
 405://MAC/Home/Downloads/getstarted-optiga-trust-m/optiga-trust-m-1/externals/mbedtls/library/bignum.c ****     }
 2061              	 .loc 1 405 0
 2062 0032 5B08     	 lsr r3,r3,#1
 2063              	.LVL352:
 401://MAC/Home/Downloads/getstarted-optiga-trust-m/optiga-trust-m-1/externals/mbedtls/library/bignum.c ****     {
 2064              	 .loc 1 401 0
 2065 0034 202A     	 cmp r2,#32
 2066 0036 F9D1     	 bne .L128
 2067              	.L127:
 2068              	.LVL353:
 2069              	.LBE78:
 2070              	.LBE77:
 427://MAC/Home/Downloads/getstarted-optiga-trust-m/optiga-trust-m-1/externals/mbedtls/library/bignum.c **** }
 2071              	 .loc 1 427 0
 2072 0038 4901     	 lsl r1,r1,#5
 2073              	.LVL354:
 2074 003a 2031     	 add r1,r1,#32
 2075 003c 8B1A     	 sub r3,r1,r2
 2076              	.LVL355:
 2077              	.L123:
 428://MAC/Home/Downloads/getstarted-optiga-trust-m/optiga-trust-m-1/externals/mbedtls/library/bignum.c **** 
 2078              	 .loc 1 428 0
 2079 003e 181C     	 mov r0,r3
 2080              	 
 2081 0040 10BD     	 pop {r4,pc}
 2082              	.L133:
 2083 0042 C046     	 .align 2
 2084              	.L132:
 2085 0044 FFFFFF3F 	 .word 1073741823
 2086              	 .cfi_endproc
 2087              	.LFE14:
 2089              	 .section .text.mbedtls_mpi_size,"ax",%progbits
 2090              	 .align 1
 2091              	 .global mbedtls_mpi_size
 2092              	 .code 16
 2093              	 .thumb_func
 2095              	mbedtls_mpi_size:
 2096              	.LFB15:
 434://MAC/Home/Downloads/getstarted-optiga-trust-m/optiga-trust-m-1/externals/mbedtls/library/bignum.c ****     return( ( mbedtls_mpi_bitlen( X ) + 7 ) >> 3 );
 2097              	 .loc 1 434 0
 2098              	 .cfi_startproc
 2099              	.LVL356:
 2100 0000 08B5     	 push {r3,lr}
 2101              	.LCFI16:
 2102              	 .cfi_def_cfa_offset 8
 2103              	 .cfi_offset 3,-8
 2104              	 .cfi_offset 14,-4
 435://MAC/Home/Downloads/getstarted-optiga-trust-m/optiga-trust-m-1/externals/mbedtls/library/bignum.c **** }
 2105              	 .loc 1 435 0
 2106 0002 FFF7FEFF 	 bl mbedtls_mpi_bitlen
 2107              	.LVL357:
 2108 0006 0730     	 add r0,r0,#7
 2109 0008 C008     	 lsr r0,r0,#3
 436://MAC/Home/Downloads/getstarted-optiga-trust-m/optiga-trust-m-1/externals/mbedtls/library/bignum.c **** 
 2110              	 .loc 1 436 0
 2111              	 
 2112 000a 08BD     	 pop {r3,pc}
 2113              	 .cfi_endproc
 2114              	.LFE15:
 2116              	 .section .text.mbedtls_mpi_read_binary,"ax",%progbits
 2117              	 .align 1
 2118              	 .global mbedtls_mpi_read_binary
 2119              	 .code 16
 2120              	 .thumb_func
 2122              	mbedtls_mpi_read_binary:
 2123              	.LFB20:
 722://MAC/Home/Downloads/getstarted-optiga-trust-m/optiga-trust-m-1/externals/mbedtls/library/bignum.c ****     int ret;
 2124              	 .loc 1 722 0
 2125              	 .cfi_startproc
 2126              	.LVL358:
 725://MAC/Home/Downloads/getstarted-optiga-trust-m/optiga-trust-m-1/externals/mbedtls/library/bignum.c **** 
 2127              	 .loc 1 725 0
 2128 0000 0323     	 mov r3,#3
 722://MAC/Home/Downloads/getstarted-optiga-trust-m/optiga-trust-m-1/externals/mbedtls/library/bignum.c ****     int ret;
 2129              	 .loc 1 722 0
 2130 0002 F7B5     	 push {r0,r1,r2,r4,r5,r6,r7,lr}
 2131              	.LCFI17:
 2132              	 .cfi_def_cfa_offset 32
 2133              	 .cfi_offset 0,-32
 2134              	 .cfi_offset 1,-28
 2135              	 .cfi_offset 2,-24
 2136              	 .cfi_offset 4,-20
 2137              	 .cfi_offset 5,-16
 2138              	 .cfi_offset 6,-12
 2139              	 .cfi_offset 7,-8
 2140              	 .cfi_offset 14,-4
 725://MAC/Home/Downloads/getstarted-optiga-trust-m/optiga-trust-m-1/externals/mbedtls/library/bignum.c **** 
 2141              	 .loc 1 725 0
 2142 0004 1340     	 and r3,r2
 722://MAC/Home/Downloads/getstarted-optiga-trust-m/optiga-trust-m-1/externals/mbedtls/library/bignum.c ****     int ret;
 2143              	 .loc 1 722 0
 2144 0006 151C     	 mov r5,r2
 725://MAC/Home/Downloads/getstarted-optiga-trust-m/optiga-trust-m-1/externals/mbedtls/library/bignum.c **** 
 2145              	 .loc 1 725 0
 2146 0008 5A1E     	 sub r2,r3,#1
 2147 000a 9341     	 sbc r3,r3,r2
 2148              	.LVL359:
 2149 000c AF08     	 lsr r7,r5,#2
 2150 000e DF19     	 add r7,r3,r7
 2151              	.LVL360:
 731://MAC/Home/Downloads/getstarted-optiga-trust-m/optiga-trust-m-1/externals/mbedtls/library/bignum.c ****     {
 2152              	 .loc 1 731 0
 2153 0010 4368     	 ldr r3,[r0,#4]
 722://MAC/Home/Downloads/getstarted-optiga-trust-m/optiga-trust-m-1/externals/mbedtls/library/bignum.c ****     int ret;
 2154              	 .loc 1 722 0
 2155 0012 041C     	 mov r4,r0
 2156 0014 0191     	 str r1,[sp,#4]
 731://MAC/Home/Downloads/getstarted-optiga-trust-m/optiga-trust-m-1/externals/mbedtls/library/bignum.c ****     {
 2157              	 .loc 1 731 0
 2158 0016 BB42     	 cmp r3,r7
 2159 0018 07D1     	 bne .L136
 2160              	.LVL361:
 2161              	.L139:
 738://MAC/Home/Downloads/getstarted-optiga-trust-m/optiga-trust-m-1/externals/mbedtls/library/bignum.c **** 
 2162              	 .loc 1 738 0
 2163 001a 201C     	 mov r0,r4
 2164 001c 0021     	 mov r1,#0
 2165 001e FFF7FEFF 	 bl mbedtls_mpi_lset
 2166              	.LVL362:
 2167 0022 2A1C     	 mov r2,r5
 2168 0024 0028     	 cmp r0,#0
 2169 0026 0ED0     	 beq .L138
 2170              	.LVL363:
 2171 0028 23E0     	 b .L137
 2172              	.LVL364:
 2173              	.L136:
 733://MAC/Home/Downloads/getstarted-optiga-trust-m/optiga-trust-m-1/externals/mbedtls/library/bignum.c ****         mbedtls_mpi_init( X );
 2174              	 .loc 1 733 0
 2175 002a FFF7FEFF 	 bl mbedtls_mpi_free
 2176              	.LVL365:
 2177              	.LBB79:
 2178              	.LBB80:
  93://MAC/Home/Downloads/getstarted-optiga-trust-m/optiga-trust-m-1/externals/mbedtls/library/bignum.c ****     X->n = 0;
 2179              	 .loc 1 93 0
 2180 002e 0123     	 mov r3,#1
 2181 0030 2360     	 str r3,[r4]
  94://MAC/Home/Downloads/getstarted-optiga-trust-m/optiga-trust-m-1/externals/mbedtls/library/bignum.c ****     X->p = NULL;
 2182              	 .loc 1 94 0
 2183 0032 0023     	 mov r3,#0
 2184              	.LBE80:
 2185              	.LBE79:
 735://MAC/Home/Downloads/getstarted-optiga-trust-m/optiga-trust-m-1/externals/mbedtls/library/bignum.c ****     }
 2186              	 .loc 1 735 0
 2187 0034 201C     	 mov r0,r4
 2188              	.LBB82:
 2189              	.LBB81:
  94://MAC/Home/Downloads/getstarted-optiga-trust-m/optiga-trust-m-1/externals/mbedtls/library/bignum.c ****     X->p = NULL;
 2190              	 .loc 1 94 0
 2191 0036 6360     	 str r3,[r4,#4]
  95://MAC/Home/Downloads/getstarted-optiga-trust-m/optiga-trust-m-1/externals/mbedtls/library/bignum.c **** }
 2192              	 .loc 1 95 0
 2193 0038 A360     	 str r3,[r4,#8]
 2194              	.LBE81:
 2195              	.LBE82:
 735://MAC/Home/Downloads/getstarted-optiga-trust-m/optiga-trust-m-1/externals/mbedtls/library/bignum.c ****     }
 2196              	 .loc 1 735 0
 2197 003a 391C     	 mov r1,r7
 2198 003c FFF7FEFF 	 bl mbedtls_mpi_grow
 2199              	.LVL366:
 2200 0040 0028     	 cmp r0,#0
 2201 0042 EAD0     	 beq .L139
 2202 0044 15E0     	 b .L137
 2203              	.LVL367:
 2204              	.L138:
 2205 0046 AB1A     	 sub r3,r5,r2
 2206 0048 9C46     	 mov ip,r3
 2207              	.LVL368:
 740://MAC/Home/Downloads/getstarted-optiga-trust-m/optiga-trust-m-1/externals/mbedtls/library/bignum.c ****         X->p[j / ciL] |= ((mbedtls_mpi_uint) buf[i - 1]) << ((j % ciL) << 3);
 2208              	 .loc 1 740 0 discriminator 1
 2209 004a 002A     	 cmp r2,#0
 2210 004c 11D0     	 beq .L137
 741://MAC/Home/Downloads/getstarted-optiga-trust-m/optiga-trust-m-1/externals/mbedtls/library/bignum.c **** 
 2211              	 .loc 1 741 0 discriminator 3
 2212 004e 6346     	 mov r3,ip
 2213 0050 A168     	 ldr r1,[r4,#8]
 2214 0052 9B08     	 lsr r3,r3,#2
 2215              	.LVL369:
 2216 0054 9B00     	 lsl r3,r3,#2
 2217 0056 CB18     	 add r3,r1,r3
 2218 0058 0199     	 ldr r1,[sp,#4]
 2219 005a 013A     	 sub r2,r2,#1
 2220              	.LVL370:
 2221 005c 8F5C     	 ldrb r7,[r1,r2]
 2222 005e 6646     	 mov r6,ip
 2223 0060 0321     	 mov r1,#3
 2224              	.LVL371:
 2225 0062 3140     	 and r1,r6
 2226              	.LVL372:
 2227 0064 C900     	 lsl r1,r1,#3
 2228 0066 8F40     	 lsl r7,r7,r1
 2229 0068 391C     	 mov r1,r7
 2230 006a 1E68     	 ldr r6,[r3]
 2231 006c 3143     	 orr r1,r6
 2232 006e 1960     	 str r1,[r3]
 2233              	.LVL373:
 2234 0070 E9E7     	 b .L138
 2235              	.LVL374:
 2236              	.L137:
 746://MAC/Home/Downloads/getstarted-optiga-trust-m/optiga-trust-m-1/externals/mbedtls/library/bignum.c **** 
 2237              	 .loc 1 746 0
 2238              	 
 2239              	.LVL375:
 2240              	.LVL376:
 2241 0072 FEBD     	 pop {r1,r2,r3,r4,r5,r6,r7,pc}
 2242              	 .cfi_endproc
 2243              	.LFE20:
 2245              	 .section .text.mbedtls_mpi_write_binary,"ax",%progbits
 2246              	 .align 1
 2247              	 .global mbedtls_mpi_write_binary
 2248              	 .code 16
 2249              	 .thumb_func
 2251              	mbedtls_mpi_write_binary:
 2252              	.LFB21:
 753://MAC/Home/Downloads/getstarted-optiga-trust-m/optiga-trust-m-1/externals/mbedtls/library/bignum.c ****     size_t stored_bytes;
 2253              	 .loc 1 753 0
 2254              	 .cfi_startproc
 2255              	.LVL377:
 2256 0000 F8B5     	 push {r3,r4,r5,r6,r7,lr}
 2257              	.LCFI18:
 2258              	 .cfi_def_cfa_offset 24
 2259              	 .cfi_offset 3,-24
 2260              	 .cfi_offset 4,-20
 2261              	 .cfi_offset 5,-16
 2262              	 .cfi_offset 6,-12
 2263              	 .cfi_offset 7,-8
 2264              	 .cfi_offset 14,-4
 762://MAC/Home/Downloads/getstarted-optiga-trust-m/optiga-trust-m-1/externals/mbedtls/library/bignum.c **** 
 2265              	 .loc 1 762 0
 2266 0002 4368     	 ldr r3,[r0,#4]
 753://MAC/Home/Downloads/getstarted-optiga-trust-m/optiga-trust-m-1/externals/mbedtls/library/bignum.c ****     size_t stored_bytes;
 2267              	 .loc 1 753 0
 2268 0004 051C     	 mov r5,r0
 762://MAC/Home/Downloads/getstarted-optiga-trust-m/optiga-trust-m-1/externals/mbedtls/library/bignum.c **** 
 2269              	 .loc 1 762 0
 2270 0006 9C00     	 lsl r4,r3,#2
 2271              	.LVL378:
 2272 0008 131C     	 mov r3,r2
 764://MAC/Home/Downloads/getstarted-optiga-trust-m/optiga-trust-m-1/externals/mbedtls/library/bignum.c ****     {
 2273              	 .loc 1 764 0
 2274 000a 9442     	 cmp r4,r2
 2275 000c 14D2     	 bcs .L143
 2276              	.LVL379:
 772://MAC/Home/Downloads/getstarted-optiga-trust-m/optiga-trust-m-1/externals/mbedtls/library/bignum.c ****         memset( buf, 0, buflen - stored_bytes );
 2277              	 .loc 1 772 0
 2278 000e 121B     	 sub r2,r2,r4
 2279              	.LVL380:
 2280 0010 8E18     	 add r6,r1,r2
 2281              	.LVL381:
 773://MAC/Home/Downloads/getstarted-optiga-trust-m/optiga-trust-m-1/externals/mbedtls/library/bignum.c ****     }
 2282              	 .loc 1 773 0
 2283 0012 081C     	 mov r0,r1
 2284              	.LVL382:
 2285 0014 0021     	 mov r1,#0
 2286              	.LVL383:
 2287 0016 FFF7FEFF 	 bl memset
 2288              	.LVL384:
 772://MAC/Home/Downloads/getstarted-optiga-trust-m/optiga-trust-m-1/externals/mbedtls/library/bignum.c ****         memset( buf, 0, buflen - stored_bytes );
 2289              	 .loc 1 772 0
 2290 001a 311C     	 mov r1,r6
 2291 001c 221C     	 mov r2,r4
 2292 001e 0DE0     	 b .L144
 2293              	.LVL385:
 2294              	.L146:
 783://MAC/Home/Downloads/getstarted-optiga-trust-m/optiga-trust-m-1/externals/mbedtls/library/bignum.c ****                 return( MBEDTLS_ERR_MPI_BUFFER_TOO_SMALL );
 2295              	 .loc 1 783 0
 2296 0020 9808     	 lsr r0,r3,#2
 2297 0022 8600     	 lsl r6,r0,#2
 2298 0024 0320     	 mov r0,#3
 2299 0026 AF68     	 ldr r7,[r5,#8]
 2300 0028 1840     	 and r0,r3
 2301 002a F659     	 ldr r6,[r6,r7]
 2302 002c C000     	 lsl r0,r0,#3
 2303 002e C640     	 lsr r6,r6,r0
 2304 0030 F0B2     	 uxtb r0,r6
 2305 0032 0028     	 cmp r0,#0
 2306 0034 14D1     	 bne .L149
 781://MAC/Home/Downloads/getstarted-optiga-trust-m/optiga-trust-m-1/externals/mbedtls/library/bignum.c ****         {
 2307              	 .loc 1 781 0 discriminator 2
 2308 0036 0133     	 add r3,r3,#1
 2309              	.LVL386:
 2310              	.L143:
 781://MAC/Home/Downloads/getstarted-optiga-trust-m/optiga-trust-m-1/externals/mbedtls/library/bignum.c ****         {
 2311              	 .loc 1 781 0 is_stmt 0 discriminator 1
 2312 0038 A342     	 cmp r3,r4
 2313 003a F1D1     	 bne .L146
 2314              	.LVL387:
 2315              	.L144:
 788://MAC/Home/Downloads/getstarted-optiga-trust-m/optiga-trust-m-1/externals/mbedtls/library/bignum.c ****         p[bytes_to_copy - i - 1] = GET_BYTE( X, i );
 2316              	 .loc 1 788 0 is_stmt 1
 2317 003c 0023     	 mov r3,#0
 2318 003e 8918     	 add r1,r1,r2
 2319              	.LVL388:
 2320              	.L147:
 2321 0040 0139     	 sub r1,r1,#1
 788://MAC/Home/Downloads/getstarted-optiga-trust-m/optiga-trust-m-1/externals/mbedtls/library/bignum.c ****         p[bytes_to_copy - i - 1] = GET_BYTE( X, i );
 2322              	 .loc 1 788 0 is_stmt 0 discriminator 1
 2323 0042 9342     	 cmp r3,r2
 2324 0044 0AD0     	 beq .L150
 789://MAC/Home/Downloads/getstarted-optiga-trust-m/optiga-trust-m-1/externals/mbedtls/library/bignum.c **** 
 2325              	 .loc 1 789 0 is_stmt 1 discriminator 3
 2326 0046 0324     	 mov r4,#3
 2327 0048 9808     	 lsr r0,r3,#2
 2328 004a AE68     	 ldr r6,[r5,#8]
 2329 004c 8000     	 lsl r0,r0,#2
 2330 004e 1C40     	 and r4,r3
 2331 0050 8059     	 ldr r0,[r0,r6]
 2332 0052 E400     	 lsl r4,r4,#3
 2333 0054 E040     	 lsr r0,r0,r4
 788://MAC/Home/Downloads/getstarted-optiga-trust-m/optiga-trust-m-1/externals/mbedtls/library/bignum.c ****         p[bytes_to_copy - i - 1] = GET_BYTE( X, i );
 2334              	 .loc 1 788 0 discriminator 3
 2335 0056 0133     	 add r3,r3,#1
 2336              	.LVL389:
 789://MAC/Home/Downloads/getstarted-optiga-trust-m/optiga-trust-m-1/externals/mbedtls/library/bignum.c **** 
 2337              	 .loc 1 789 0 discriminator 3
 2338 0058 0870     	 strb r0,[r1]
 2339 005a F1E7     	 b .L147
 2340              	.L150:
 791://MAC/Home/Downloads/getstarted-optiga-trust-m/optiga-trust-m-1/externals/mbedtls/library/bignum.c **** }
 2341              	 .loc 1 791 0
 2342 005c 0020     	 mov r0,#0
 2343 005e 01E0     	 b .L145
 2344              	.LVL390:
 2345              	.L149:
 784://MAC/Home/Downloads/getstarted-optiga-trust-m/optiga-trust-m-1/externals/mbedtls/library/bignum.c ****         }
 2346              	 .loc 1 784 0
 2347 0060 0820     	 mov r0,#8
 2348 0062 4042     	 neg r0,r0
 2349              	.LVL391:
 2350              	.L145:
 792://MAC/Home/Downloads/getstarted-optiga-trust-m/optiga-trust-m-1/externals/mbedtls/library/bignum.c **** 
 2351              	 .loc 1 792 0
 2352              	 
 2353              	.LVL392:
 2354 0064 F8BD     	 pop {r3,r4,r5,r6,r7,pc}
 2355              	 .cfi_endproc
 2356              	.LFE21:
 2358              	 .section .text.mbedtls_mpi_shift_l,"ax",%progbits
 2359              	 .align 1
 2360              	 .global mbedtls_mpi_shift_l
 2361              	 .code 16
 2362              	 .thumb_func
 2364              	mbedtls_mpi_shift_l:
 2365              	.LFB22:
 798://MAC/Home/Downloads/getstarted-optiga-trust-m/optiga-trust-m-1/externals/mbedtls/library/bignum.c ****     int ret;
 2366              	 .loc 1 798 0
 2367              	 .cfi_startproc
 2368              	.LVL393:
 2369 0000 F7B5     	 push {r0,r1,r2,r4,r5,r6,r7,lr}
 2370              	.LCFI19:
 2371              	 .cfi_def_cfa_offset 32
 2372              	 .cfi_offset 0,-32
 2373              	 .cfi_offset 1,-28
 2374              	 .cfi_offset 2,-24
 2375              	 .cfi_offset 4,-20
 2376              	 .cfi_offset 5,-16
 2377              	 .cfi_offset 6,-12
 2378              	 .cfi_offset 7,-8
 2379              	 .cfi_offset 14,-4
 805://MAC/Home/Downloads/getstarted-optiga-trust-m/optiga-trust-m-1/externals/mbedtls/library/bignum.c **** 
 2380              	 .loc 1 805 0
 2381 0002 0B1C     	 mov r3,r1
 2382 0004 1F27     	 mov r7,#31
 798://MAC/Home/Downloads/getstarted-optiga-trust-m/optiga-trust-m-1/externals/mbedtls/library/bignum.c ****     int ret;
 2383              	 .loc 1 798 0
 2384 0006 051C     	 mov r5,r0
 805://MAC/Home/Downloads/getstarted-optiga-trust-m/optiga-trust-m-1/externals/mbedtls/library/bignum.c **** 
 2385              	 .loc 1 805 0
 2386 0008 3B40     	 and r3,r7
 798://MAC/Home/Downloads/getstarted-optiga-trust-m/optiga-trust-m-1/externals/mbedtls/library/bignum.c ****     int ret;
 2387              	 .loc 1 798 0
 2388 000a 0C1C     	 mov r4,r1
 805://MAC/Home/Downloads/getstarted-optiga-trust-m/optiga-trust-m-1/externals/mbedtls/library/bignum.c **** 
 2389              	 .loc 1 805 0
 2390 000c 0093     	 str r3,[sp]
 804://MAC/Home/Downloads/getstarted-optiga-trust-m/optiga-trust-m-1/externals/mbedtls/library/bignum.c ****     t1 = count & (biL - 1);
 2391              	 .loc 1 804 0
 2392 000e 4E09     	 lsr r6,r1,#5
 2393              	.LVL394:
 807://MAC/Home/Downloads/getstarted-optiga-trust-m/optiga-trust-m-1/externals/mbedtls/library/bignum.c **** 
 2394              	 .loc 1 807 0
 2395 0010 FFF7FEFF 	 bl mbedtls_mpi_bitlen
 2396              	.LVL395:
 809://MAC/Home/Downloads/getstarted-optiga-trust-m/optiga-trust-m-1/externals/mbedtls/library/bignum.c ****         MBEDTLS_MPI_CHK( mbedtls_mpi_grow( X, BITS_TO_LIMBS( i ) ) );
 2397              	 .loc 1 809 0
 2398 0014 6B68     	 ldr r3,[r5,#4]
 807://MAC/Home/Downloads/getstarted-optiga-trust-m/optiga-trust-m-1/externals/mbedtls/library/bignum.c **** 
 2399              	 .loc 1 807 0
 2400 0016 0419     	 add r4,r0,r4
 2401              	.LVL396:
 809://MAC/Home/Downloads/getstarted-optiga-trust-m/optiga-trust-m-1/externals/mbedtls/library/bignum.c ****         MBEDTLS_MPI_CHK( mbedtls_mpi_grow( X, BITS_TO_LIMBS( i ) ) );
 2402              	 .loc 1 809 0
 2403 0018 5B01     	 lsl r3,r3,#5
 2404 001a A342     	 cmp r3,r4
 2405 001c 02D3     	 bcc .L152
 2406              	.LVL397:
 2407              	.L156:
 817://MAC/Home/Downloads/getstarted-optiga-trust-m/optiga-trust-m-1/externals/mbedtls/library/bignum.c ****     {
 2408              	 .loc 1 817 0
 2409 001e 002E     	 cmp r6,#0
 2410 0020 0FD1     	 bne .L153
 2411 0022 0AE0     	 b .L154
 2412              	.LVL398:
 2413              	.L152:
 810://MAC/Home/Downloads/getstarted-optiga-trust-m/optiga-trust-m-1/externals/mbedtls/library/bignum.c **** 
 2414              	 .loc 1 810 0
 2415 0024 2740     	 and r7,r4
 2416 0026 791E     	 sub r1,r7,#1
 2417 0028 8F41     	 sbc r7,r7,r1
 2418 002a 6409     	 lsr r4,r4,#5
 2419              	.LVL399:
 2420 002c 3919     	 add r1,r7,r4
 2421 002e 281C     	 mov r0,r5
 2422              	.LVL400:
 2423 0030 FFF7FEFF 	 bl mbedtls_mpi_grow
 2424              	.LVL401:
 2425 0034 0028     	 cmp r0,#0
 2426 0036 F2D0     	 beq .L156
 2427 0038 36E0     	 b .L155
 2428              	.LVL402:
 2429              	.L154:
 829://MAC/Home/Downloads/getstarted-optiga-trust-m/optiga-trust-m-1/externals/mbedtls/library/bignum.c ****     {
 2430              	 .loc 1 829 0
 2431 003a 009B     	 ldr r3,[sp]
 2432 003c 002B     	 cmp r3,#0
 2433 003e 1BD1     	 bne .L157
 2434 0040 18E0     	 b .L158
 2435              	.L153:
 819://MAC/Home/Downloads/getstarted-optiga-trust-m/optiga-trust-m-1/externals/mbedtls/library/bignum.c ****             X->p[i - 1] = X->p[i - v0 - 1];
 2436              	 .loc 1 819 0
 2437 0042 6B68     	 ldr r3,[r5,#4]
 2438              	.LVL403:
 2439 0044 194A     	 ldr r2,.L166
 2440 0046 B100     	 lsl r1,r6,#2
 2441 0048 9A18     	 add r2,r3,r2
 2442 004a 9200     	 lsl r2,r2,#2
 2443 004c 4942     	 neg r1,r1
 2444              	.L159:
 819://MAC/Home/Downloads/getstarted-optiga-trust-m/optiga-trust-m-1/externals/mbedtls/library/bignum.c ****             X->p[i - 1] = X->p[i - v0 - 1];
 2445              	 .loc 1 819 0 is_stmt 0 discriminator 1
 2446 004e B342     	 cmp r3,r6
 2447 0050 06D9     	 bls .L165
 820://MAC/Home/Downloads/getstarted-optiga-trust-m/optiga-trust-m-1/externals/mbedtls/library/bignum.c **** 
 2448              	 .loc 1 820 0 is_stmt 1 discriminator 3
 2449 0052 A868     	 ldr r0,[r5,#8]
 819://MAC/Home/Downloads/getstarted-optiga-trust-m/optiga-trust-m-1/externals/mbedtls/library/bignum.c ****             X->p[i - 1] = X->p[i - v0 - 1];
 2450              	 .loc 1 819 0 discriminator 3
 2451 0054 013B     	 sub r3,r3,#1
 2452              	.LVL404:
 820://MAC/Home/Downloads/getstarted-optiga-trust-m/optiga-trust-m-1/externals/mbedtls/library/bignum.c **** 
 2453              	 .loc 1 820 0 discriminator 3
 2454 0056 8418     	 add r4,r0,r2
 2455 0058 6458     	 ldr r4,[r4,r1]
 2456 005a 8450     	 str r4,[r0,r2]
 2457 005c 043A     	 sub r2,r2,#4
 2458 005e F6E7     	 b .L159
 2459              	.L165:
 2460 0060 124A     	 ldr r2,.L166
 2461 0062 9B18     	 add r3,r3,r2
 2462              	.LVL405:
 2463 0064 9B00     	 lsl r3,r3,#2
 2464              	.LVL406:
 2465              	.L161:
 822://MAC/Home/Downloads/getstarted-optiga-trust-m/optiga-trust-m-1/externals/mbedtls/library/bignum.c ****             X->p[i - 1] = 0;
 2466              	 .loc 1 822 0 discriminator 1
 2467 0066 1A1D     	 add r2,r3,#4
 2468 0068 E7D0     	 beq .L154
 823://MAC/Home/Downloads/getstarted-optiga-trust-m/optiga-trust-m-1/externals/mbedtls/library/bignum.c ****     }
 2469              	 .loc 1 823 0 discriminator 2
 2470 006a 0022     	 mov r2,#0
 2471 006c A968     	 ldr r1,[r5,#8]
 2472 006e CA50     	 str r2,[r1,r3]
 2473 0070 043B     	 sub r3,r3,#4
 2474 0072 F8E7     	 b .L161
 2475              	.LVL407:
 2476              	.L158:
 812://MAC/Home/Downloads/getstarted-optiga-trust-m/optiga-trust-m-1/externals/mbedtls/library/bignum.c **** 
 2477              	 .loc 1 812 0
 2478 0074 0020     	 mov r0,#0
 2479 0076 17E0     	 b .L155
 2480              	.LVL408:
 2481              	.L157:
 831://MAC/Home/Downloads/getstarted-optiga-trust-m/optiga-trust-m-1/externals/mbedtls/library/bignum.c ****         {
 2482              	 .loc 1 831 0
 2483 0078 6B68     	 ldr r3,[r5,#4]
 2484 007a 0024     	 mov r4,#0
 2485 007c 9C46     	 mov ip,r3
 2486 007e B200     	 lsl r2,r6,#2
 2487              	.LVL409:
 2488              	.L163:
 831://MAC/Home/Downloads/getstarted-optiga-trust-m/optiga-trust-m-1/externals/mbedtls/library/bignum.c ****         {
 2489              	 .loc 1 831 0 is_stmt 0 discriminator 1
 2490 0080 6645     	 cmp r6,ip
 2491 0082 F7D2     	 bcs .L158
 833://MAC/Home/Downloads/getstarted-optiga-trust-m/optiga-trust-m-1/externals/mbedtls/library/bignum.c ****             X->p[i] <<= t1;
 2492              	 .loc 1 833 0 is_stmt 1 discriminator 3
 2493 0084 2021     	 mov r1,#32
 2494 0086 AB68     	 ldr r3,[r5,#8]
 2495 0088 0098     	 ldr r0,[sp]
 2496 008a 9B18     	 add r3,r3,r2
 2497 008c 1F68     	 ldr r7,[r3]
 2498              	.LVL410:
 2499 008e 091A     	 sub r1,r1,r0
 834://MAC/Home/Downloads/getstarted-optiga-trust-m/optiga-trust-m-1/externals/mbedtls/library/bignum.c ****             X->p[i] |= r0;
 2500              	 .loc 1 834 0 discriminator 3
 2501 0090 381C     	 mov r0,r7
 833://MAC/Home/Downloads/getstarted-optiga-trust-m/optiga-trust-m-1/externals/mbedtls/library/bignum.c ****             X->p[i] <<= t1;
 2502              	 .loc 1 833 0 discriminator 3
 2503 0092 0191     	 str r1,[sp,#4]
 2504              	.LVL411:
 834://MAC/Home/Downloads/getstarted-optiga-trust-m/optiga-trust-m-1/externals/mbedtls/library/bignum.c ****             X->p[i] |= r0;
 2505              	 .loc 1 834 0 discriminator 3
 2506 0094 0099     	 ldr r1,[sp]
 831://MAC/Home/Downloads/getstarted-optiga-trust-m/optiga-trust-m-1/externals/mbedtls/library/bignum.c ****         {
 2507              	 .loc 1 831 0 discriminator 3
 2508 0096 0136     	 add r6,r6,#1
 2509              	.LVL412:
 834://MAC/Home/Downloads/getstarted-optiga-trust-m/optiga-trust-m-1/externals/mbedtls/library/bignum.c ****             X->p[i] |= r0;
 2510              	 .loc 1 834 0 discriminator 3
 2511 0098 8840     	 lsl r0,r0,r1
 835://MAC/Home/Downloads/getstarted-optiga-trust-m/optiga-trust-m-1/externals/mbedtls/library/bignum.c ****             r0 = r1;
 2512              	 .loc 1 835 0 discriminator 3
 2513 009a 2043     	 orr r0,r4
 836://MAC/Home/Downloads/getstarted-optiga-trust-m/optiga-trust-m-1/externals/mbedtls/library/bignum.c ****         }
 2514              	 .loc 1 836 0 discriminator 3
 2515 009c 3C1C     	 mov r4,r7
 2516              	.LVL413:
 835://MAC/Home/Downloads/getstarted-optiga-trust-m/optiga-trust-m-1/externals/mbedtls/library/bignum.c ****             r0 = r1;
 2517              	 .loc 1 835 0 discriminator 3
 2518 009e 1860     	 str r0,[r3]
 2519              	.LVL414:
 836://MAC/Home/Downloads/getstarted-optiga-trust-m/optiga-trust-m-1/externals/mbedtls/library/bignum.c ****         }
 2520              	 .loc 1 836 0 discriminator 3
 2521 00a0 019B     	 ldr r3,[sp,#4]
 2522 00a2 0432     	 add r2,r2,#4
 2523 00a4 DC40     	 lsr r4,r4,r3
 2524              	.LVL415:
 2525 00a6 EBE7     	 b .L163
 2526              	.LVL416:
 2527              	.L155:
 843://MAC/Home/Downloads/getstarted-optiga-trust-m/optiga-trust-m-1/externals/mbedtls/library/bignum.c **** 
 2528              	 .loc 1 843 0
 2529              	 
 2530              	.LVL417:
 2531 00a8 FEBD     	 pop {r1,r2,r3,r4,r5,r6,r7,pc}
 2532              	.L167:
 2533 00aa C046     	 .align 2
 2534              	.L166:
 2535 00ac FFFFFF3F 	 .word 1073741823
 2536              	 .cfi_endproc
 2537              	.LFE22:
 2539              	 .section .text.mbedtls_mpi_shift_r,"ax",%progbits
 2540              	 .align 1
 2541              	 .global mbedtls_mpi_shift_r
 2542              	 .code 16
 2543              	 .thumb_func
 2545              	mbedtls_mpi_shift_r:
 2546              	.LFB23:
 849://MAC/Home/Downloads/getstarted-optiga-trust-m/optiga-trust-m-1/externals/mbedtls/library/bignum.c ****     size_t i, v0, v1;
 2547              	 .loc 1 849 0
 2548              	 .cfi_startproc
 2549              	.LVL418:
 855://MAC/Home/Downloads/getstarted-optiga-trust-m/optiga-trust-m-1/externals/mbedtls/library/bignum.c **** 
 2550              	 .loc 1 855 0
 2551 0000 1F23     	 mov r3,#31
 849://MAC/Home/Downloads/getstarted-optiga-trust-m/optiga-trust-m-1/externals/mbedtls/library/bignum.c ****     size_t i, v0, v1;
 2552              	 .loc 1 849 0
 2553 0002 F7B5     	 push {r0,r1,r2,r4,r5,r6,r7,lr}
 2554              	.LCFI20:
 2555              	 .cfi_def_cfa_offset 32
 2556              	 .cfi_offset 0,-32
 2557              	 .cfi_offset 1,-28
 2558              	 .cfi_offset 2,-24
 2559              	 .cfi_offset 4,-20
 2560              	 .cfi_offset 5,-16
 2561              	 .cfi_offset 6,-12
 2562              	 .cfi_offset 7,-8
 2563              	 .cfi_offset 14,-4
 854://MAC/Home/Downloads/getstarted-optiga-trust-m/optiga-trust-m-1/externals/mbedtls/library/bignum.c ****     v1 = count & (biL - 1);
 2564              	 .loc 1 854 0
 2565 0004 4A09     	 lsr r2,r1,#5
 2566              	.LVL419:
 855://MAC/Home/Downloads/getstarted-optiga-trust-m/optiga-trust-m-1/externals/mbedtls/library/bignum.c **** 
 2567              	 .loc 1 855 0
 2568 0006 1940     	 and r1,r3
 2569              	.LVL420:
 857://MAC/Home/Downloads/getstarted-optiga-trust-m/optiga-trust-m-1/externals/mbedtls/library/bignum.c ****         return mbedtls_mpi_lset( X, 0 );
 2570              	 .loc 1 857 0
 2571 0008 4368     	 ldr r3,[r0,#4]
 2572 000a 9A42     	 cmp r2,r3
 2573 000c 02D8     	 bhi .L169
 857://MAC/Home/Downloads/getstarted-optiga-trust-m/optiga-trust-m-1/externals/mbedtls/library/bignum.c ****         return mbedtls_mpi_lset( X, 0 );
 2574              	 .loc 1 857 0 is_stmt 0 discriminator 1
 2575 000e 05D1     	 bne .L170
 857://MAC/Home/Downloads/getstarted-optiga-trust-m/optiga-trust-m-1/externals/mbedtls/library/bignum.c ****         return mbedtls_mpi_lset( X, 0 );
 2576              	 .loc 1 857 0 discriminator 2
 2577 0010 0029     	 cmp r1,#0
 2578 0012 0AD0     	 beq .L171
 2579              	.L169:
 858://MAC/Home/Downloads/getstarted-optiga-trust-m/optiga-trust-m-1/externals/mbedtls/library/bignum.c **** 
 2580              	 .loc 1 858 0 is_stmt 1
 2581 0014 0021     	 mov r1,#0
 2582              	.LVL421:
 2583 0016 FFF7FEFF 	 bl mbedtls_mpi_lset
 2584              	.LVL422:
 2585 001a 37E0     	 b .L184
 2586              	.LVL423:
 2587              	.L170:
 863://MAC/Home/Downloads/getstarted-optiga-trust-m/optiga-trust-m-1/externals/mbedtls/library/bignum.c ****     {
 2588              	 .loc 1 863 0
 2589 001c 002A     	 cmp r2,#0
 2590 001e 02D1     	 bne .L182
 2591              	.LVL424:
 2592              	.L179:
 875://MAC/Home/Downloads/getstarted-optiga-trust-m/optiga-trust-m-1/externals/mbedtls/library/bignum.c ****     {
 2593              	 .loc 1 875 0
 2594 0020 0029     	 cmp r1,#0
 2595 0022 1BD1     	 bne .L174
 2596 0024 18E0     	 b .L175
 2597              	.LVL425:
 2598              	.L182:
 2599 0026 0024     	 mov r4,#0
 2600 0028 02E0     	 b .L173
 2601              	.L171:
 863://MAC/Home/Downloads/getstarted-optiga-trust-m/optiga-trust-m-1/externals/mbedtls/library/bignum.c ****     {
 2602              	 .loc 1 863 0
 2603 002a 002A     	 cmp r2,#0
 2604 002c 14D0     	 beq .L175
 2605 002e 0C1C     	 mov r4,r1
 2606              	.L173:
 2607              	.LVL426:
 865://MAC/Home/Downloads/getstarted-optiga-trust-m/optiga-trust-m-1/externals/mbedtls/library/bignum.c ****             X->p[i] = X->p[i + v0];
 2608              	 .loc 1 865 0 discriminator 1
 2609 0030 9D1A     	 sub r5,r3,r2
 2610 0032 AC42     	 cmp r4,r5
 2611 0034 07D2     	 bcs .L185
 866://MAC/Home/Downloads/getstarted-optiga-trust-m/optiga-trust-m-1/externals/mbedtls/library/bignum.c **** 
 2612              	 .loc 1 866 0 discriminator 3
 2613 0036 8668     	 ldr r6,[r0,#8]
 2614 0038 A518     	 add r5,r4,r2
 2615 003a AD00     	 lsl r5,r5,#2
 2616 003c AF59     	 ldr r7,[r5,r6]
 2617 003e A500     	 lsl r5,r4,#2
 2618 0040 AF51     	 str r7,[r5,r6]
 865://MAC/Home/Downloads/getstarted-optiga-trust-m/optiga-trust-m-1/externals/mbedtls/library/bignum.c ****             X->p[i] = X->p[i + v0];
 2619              	 .loc 1 865 0 discriminator 3
 2620 0042 0134     	 add r4,r4,#1
 2621              	.LVL427:
 2622 0044 F4E7     	 b .L173
 2623              	.L185:
 2624 0046 AA00     	 lsl r2,r5,#2
 2625              	.LVL428:
 2626              	.L177:
 868://MAC/Home/Downloads/getstarted-optiga-trust-m/optiga-trust-m-1/externals/mbedtls/library/bignum.c ****             X->p[i] = 0;
 2627              	 .loc 1 868 0 discriminator 1
 2628 0048 9D42     	 cmp r5,r3
 2629 004a E9D2     	 bcs .L179
 869://MAC/Home/Downloads/getstarted-optiga-trust-m/optiga-trust-m-1/externals/mbedtls/library/bignum.c ****     }
 2630              	 .loc 1 869 0 discriminator 2
 2631 004c 0024     	 mov r4,#0
 2632 004e 8668     	 ldr r6,[r0,#8]
 868://MAC/Home/Downloads/getstarted-optiga-trust-m/optiga-trust-m-1/externals/mbedtls/library/bignum.c ****             X->p[i] = 0;
 2633              	 .loc 1 868 0 discriminator 2
 2634 0050 0135     	 add r5,r5,#1
 2635              	.LVL429:
 869://MAC/Home/Downloads/getstarted-optiga-trust-m/optiga-trust-m-1/externals/mbedtls/library/bignum.c ****     }
 2636              	 .loc 1 869 0 discriminator 2
 2637 0052 B450     	 str r4,[r6,r2]
 2638 0054 0432     	 add r2,r2,#4
 2639 0056 F7E7     	 b .L177
 2640              	.LVL430:
 2641              	.L175:
 886://MAC/Home/Downloads/getstarted-optiga-trust-m/optiga-trust-m-1/externals/mbedtls/library/bignum.c **** }
 2642              	 .loc 1 886 0
 2643 0058 0020     	 mov r0,#0
 2644              	.LVL431:
 2645 005a 17E0     	 b .L184
 2646              	.LVL432:
 2647              	.L174:
 875://MAC/Home/Downloads/getstarted-optiga-trust-m/optiga-trust-m-1/externals/mbedtls/library/bignum.c ****     {
 2648              	 .loc 1 875 0
 2649 005c 0024     	 mov r4,#0
 2650 005e A446     	 mov ip,r4
 2651 0060 0B4A     	 ldr r2,.L186
 2652 0062 9A18     	 add r2,r3,r2
 2653 0064 9200     	 lsl r2,r2,#2
 2654              	.LVL433:
 2655              	.L180:
 877://MAC/Home/Downloads/getstarted-optiga-trust-m/optiga-trust-m-1/externals/mbedtls/library/bignum.c ****         {
 2656              	 .loc 1 877 0 discriminator 1
 2657 0066 002B     	 cmp r3,#0
 2658 0068 F6D0     	 beq .L175
 879://MAC/Home/Downloads/getstarted-optiga-trust-m/optiga-trust-m-1/externals/mbedtls/library/bignum.c ****             X->p[i - 1] >>= v1;
 2659              	 .loc 1 879 0 discriminator 3
 2660 006a 8468     	 ldr r4,[r0,#8]
 2661 006c 2025     	 mov r5,#32
 2662 006e A418     	 add r4,r4,r2
 2663 0070 2768     	 ldr r7,[r4]
 2664              	.LVL434:
 2665 0072 6D1A     	 sub r5,r5,r1
 880://MAC/Home/Downloads/getstarted-optiga-trust-m/optiga-trust-m-1/externals/mbedtls/library/bignum.c ****             X->p[i - 1] |= r0;
 2666              	 .loc 1 880 0 discriminator 3
 2667 0074 3E1C     	 mov r6,r7
 879://MAC/Home/Downloads/getstarted-optiga-trust-m/optiga-trust-m-1/externals/mbedtls/library/bignum.c ****             X->p[i - 1] >>= v1;
 2668              	 .loc 1 879 0 discriminator 3
 2669 0076 0195     	 str r5,[sp,#4]
 2670              	.LVL435:
 880://MAC/Home/Downloads/getstarted-optiga-trust-m/optiga-trust-m-1/externals/mbedtls/library/bignum.c ****             X->p[i - 1] |= r0;
 2671              	 .loc 1 880 0 discriminator 3
 2672 0078 CE40     	 lsr r6,r6,r1
 881://MAC/Home/Downloads/getstarted-optiga-trust-m/optiga-trust-m-1/externals/mbedtls/library/bignum.c ****             r0 = r1;
 2673              	 .loc 1 881 0 discriminator 3
 2674 007a 6546     	 mov r5,ip
 2675 007c 3543     	 orr r5,r6
 2676 007e 2560     	 str r5,[r4]
 2677              	.LVL436:
 882://MAC/Home/Downloads/getstarted-optiga-trust-m/optiga-trust-m-1/externals/mbedtls/library/bignum.c ****         }
 2678              	 .loc 1 882 0 discriminator 3
 2679 0080 019C     	 ldr r4,[sp,#4]
 877://MAC/Home/Downloads/getstarted-optiga-trust-m/optiga-trust-m-1/externals/mbedtls/library/bignum.c ****         {
 2680              	 .loc 1 877 0 discriminator 3
 2681 0082 013B     	 sub r3,r3,#1
 2682              	.LVL437:
 882://MAC/Home/Downloads/getstarted-optiga-trust-m/optiga-trust-m-1/externals/mbedtls/library/bignum.c ****         }
 2683              	 .loc 1 882 0 discriminator 3
 2684 0084 A740     	 lsl r7,r7,r4
 2685              	.LVL438:
 2686 0086 043A     	 sub r2,r2,#4
 2687 0088 BC46     	 mov ip,r7
 2688 008a ECE7     	 b .L180
 2689              	.LVL439:
 2690              	.L184:
 887://MAC/Home/Downloads/getstarted-optiga-trust-m/optiga-trust-m-1/externals/mbedtls/library/bignum.c **** 
 2691              	 .loc 1 887 0
 2692              	 
 2693 008c FEBD     	 pop {r1,r2,r3,r4,r5,r6,r7,pc}
 2694              	.L187:
 2695 008e C046     	 .align 2
 2696              	.L186:
 2697 0090 FFFFFF3F 	 .word 1073741823
 2698              	 .cfi_endproc
 2699              	.LFE23:
 2701              	 .section .text.mbedtls_mpi_cmp_abs,"ax",%progbits
 2702              	 .align 1
 2703              	 .global mbedtls_mpi_cmp_abs
 2704              	 .code 16
 2705              	 .thumb_func
 2707              	mbedtls_mpi_cmp_abs:
 2708              	.LFB24:
 893://MAC/Home/Downloads/getstarted-optiga-trust-m/optiga-trust-m-1/externals/mbedtls/library/bignum.c ****     size_t i, j;
 2709              	 .loc 1 893 0
 2710              	 .cfi_startproc
 2711              	.LVL440:
 2712 0000 30B5     	 push {r4,r5,lr}
 2713              	.LCFI21:
 2714              	 .cfi_def_cfa_offset 12
 2715              	 .cfi_offset 4,-12
 2716              	 .cfi_offset 5,-8
 2717              	 .cfi_offset 14,-4
 893://MAC/Home/Downloads/getstarted-optiga-trust-m/optiga-trust-m-1/externals/mbedtls/library/bignum.c ****     size_t i, j;
 2718              	 .loc 1 893 0
 2719 0002 051C     	 mov r5,r0
 898://MAC/Home/Downloads/getstarted-optiga-trust-m/optiga-trust-m-1/externals/mbedtls/library/bignum.c ****         if( X->p[i - 1] != 0 )
 2720              	 .loc 1 898 0
 2721 0004 4368     	 ldr r3,[r0,#4]
 2722              	.LVL441:
 2723 0006 1D4A     	 ldr r2,.L205
 2724 0008 9A18     	 add r2,r3,r2
 2725 000a 9200     	 lsl r2,r2,#2
 2726              	.LVL442:
 2727              	.L189:
 898://MAC/Home/Downloads/getstarted-optiga-trust-m/optiga-trust-m-1/externals/mbedtls/library/bignum.c ****         if( X->p[i - 1] != 0 )
 2728              	 .loc 1 898 0 is_stmt 0 discriminator 1
 2729 000c 002B     	 cmp r3,#0
 2730 000e 06D0     	 beq .L190
 899://MAC/Home/Downloads/getstarted-optiga-trust-m/optiga-trust-m-1/externals/mbedtls/library/bignum.c ****             break;
 2731              	 .loc 1 899 0 is_stmt 1
 2732 0010 A868     	 ldr r0,[r5,#8]
 2733 0012 8058     	 ldr r0,[r0,r2]
 2734 0014 043A     	 sub r2,r2,#4
 2735 0016 0028     	 cmp r0,#0
 2736 0018 01D1     	 bne .L190
 898://MAC/Home/Downloads/getstarted-optiga-trust-m/optiga-trust-m-1/externals/mbedtls/library/bignum.c ****         if( X->p[i - 1] != 0 )
 2737              	 .loc 1 898 0 discriminator 2
 2738 001a 013B     	 sub r3,r3,#1
 2739              	.LVL443:
 2740 001c F6E7     	 b .L189
 2741              	.L190:
 902://MAC/Home/Downloads/getstarted-optiga-trust-m/optiga-trust-m-1/externals/mbedtls/library/bignum.c ****         if( Y->p[j - 1] != 0 )
 2742              	 .loc 1 902 0
 2743 001e 4A68     	 ldr r2,[r1,#4]
 2744              	.LVL444:
 2745 0020 1648     	 ldr r0,.L205
 2746 0022 1418     	 add r4,r2,r0
 2747 0024 A400     	 lsl r4,r4,#2
 2748              	.L192:
 902://MAC/Home/Downloads/getstarted-optiga-trust-m/optiga-trust-m-1/externals/mbedtls/library/bignum.c ****         if( Y->p[j - 1] != 0 )
 2749              	 .loc 1 902 0 is_stmt 0 discriminator 1
 2750 0026 002A     	 cmp r2,#0
 2751 0028 06D0     	 beq .L193
 903://MAC/Home/Downloads/getstarted-optiga-trust-m/optiga-trust-m-1/externals/mbedtls/library/bignum.c ****             break;
 2752              	 .loc 1 903 0 is_stmt 1
 2753 002a 8868     	 ldr r0,[r1,#8]
 2754 002c 0059     	 ldr r0,[r0,r4]
 2755 002e 043C     	 sub r4,r4,#4
 2756 0030 0028     	 cmp r0,#0
 2757 0032 01D1     	 bne .L193
 902://MAC/Home/Downloads/getstarted-optiga-trust-m/optiga-trust-m-1/externals/mbedtls/library/bignum.c ****         if( Y->p[j - 1] != 0 )
 2758              	 .loc 1 902 0 discriminator 2
 2759 0034 013A     	 sub r2,r2,#1
 2760              	.LVL445:
 2761 0036 F6E7     	 b .L192
 2762              	.L193:
 906://MAC/Home/Downloads/getstarted-optiga-trust-m/optiga-trust-m-1/externals/mbedtls/library/bignum.c ****         return( 0 );
 2763              	 .loc 1 906 0
 2764 0038 141C     	 mov r4,r2
 907://MAC/Home/Downloads/getstarted-optiga-trust-m/optiga-trust-m-1/externals/mbedtls/library/bignum.c **** 
 2765              	 .loc 1 907 0
 2766 003a 0020     	 mov r0,#0
 906://MAC/Home/Downloads/getstarted-optiga-trust-m/optiga-trust-m-1/externals/mbedtls/library/bignum.c ****         return( 0 );
 2767              	 .loc 1 906 0
 2768 003c 1C43     	 orr r4,r3
 2769 003e 8442     	 cmp r4,r0
 2770 0040 1AD0     	 beq .L195
 909://MAC/Home/Downloads/getstarted-optiga-trust-m/optiga-trust-m-1/externals/mbedtls/library/bignum.c ****     if( j > i ) return( -1 );
 2771              	 .loc 1 909 0
 2772 0042 0130     	 add r0,r0,#1
 2773 0044 9342     	 cmp r3,r2
 2774 0046 17D8     	 bhi .L195
 910://MAC/Home/Downloads/getstarted-optiga-trust-m/optiga-trust-m-1/externals/mbedtls/library/bignum.c **** 
 2775              	 .loc 1 910 0
 2776 0048 9A42     	 cmp r2,r3
 2777 004a 13D8     	 bhi .L202
 2778 004c 0B4A     	 ldr r2,.L205
 2779              	.LVL446:
 2780 004e 9A18     	 add r2,r3,r2
 2781 0050 9200     	 lsl r2,r2,#2
 2782              	.L196:
 912://MAC/Home/Downloads/getstarted-optiga-trust-m/optiga-trust-m-1/externals/mbedtls/library/bignum.c ****     {
 2783              	 .loc 1 912 0 discriminator 1
 2784 0052 002B     	 cmp r3,#0
 2785 0054 0AD0     	 beq .L204
 914://MAC/Home/Downloads/getstarted-optiga-trust-m/optiga-trust-m-1/externals/mbedtls/library/bignum.c ****         if( X->p[i - 1] < Y->p[i - 1] ) return( -1 );
 2786              	 .loc 1 914 0
 2787 0056 A868     	 ldr r0,[r5,#8]
 2788 0058 8458     	 ldr r4,[r0,r2]
 2789 005a 8868     	 ldr r0,[r1,#8]
 2790 005c 8058     	 ldr r0,[r0,r2]
 2791 005e 8442     	 cmp r4,r0
 2792 0060 06D8     	 bhi .L201
 2793 0062 043A     	 sub r2,r2,#4
 915://MAC/Home/Downloads/getstarted-optiga-trust-m/optiga-trust-m-1/externals/mbedtls/library/bignum.c ****     }
 2794              	 .loc 1 915 0
 2795 0064 8442     	 cmp r4,r0
 2796 0066 05D3     	 bcc .L202
 912://MAC/Home/Downloads/getstarted-optiga-trust-m/optiga-trust-m-1/externals/mbedtls/library/bignum.c ****     {
 2797              	 .loc 1 912 0
 2798 0068 013B     	 sub r3,r3,#1
 2799              	.LVL447:
 2800 006a F2E7     	 b .L196
 2801              	.L204:
 907://MAC/Home/Downloads/getstarted-optiga-trust-m/optiga-trust-m-1/externals/mbedtls/library/bignum.c **** 
 2802              	 .loc 1 907 0
 2803 006c 181C     	 mov r0,r3
 2804 006e 03E0     	 b .L195
 2805              	.L201:
 909://MAC/Home/Downloads/getstarted-optiga-trust-m/optiga-trust-m-1/externals/mbedtls/library/bignum.c ****     if( j > i ) return( -1 );
 2806              	 .loc 1 909 0
 2807 0070 0120     	 mov r0,#1
 2808 0072 01E0     	 b .L195
 2809              	.L202:
 910://MAC/Home/Downloads/getstarted-optiga-trust-m/optiga-trust-m-1/externals/mbedtls/library/bignum.c **** 
 2810              	 .loc 1 910 0
 2811 0074 0120     	 mov r0,#1
 2812 0076 4042     	 neg r0,r0
 2813              	.L195:
 919://MAC/Home/Downloads/getstarted-optiga-trust-m/optiga-trust-m-1/externals/mbedtls/library/bignum.c **** 
 2814              	 .loc 1 919 0
 2815              	 
 2816              	.LVL448:
 2817 0078 30BD     	 pop {r4,r5,pc}
 2818              	.L206:
 2819 007a C046     	 .align 2
 2820              	.L205:
 2821 007c FFFFFF3F 	 .word 1073741823
 2822              	 .cfi_endproc
 2823              	.LFE24:
 2825              	 .section .text.mpi_montmul,"ax",%progbits
 2826              	 .align 1
 2827              	 .code 16
 2828              	 .thumb_func
 2830              	mpi_montmul:
 2831              	.LFB43:
1276://MAC/Home/Downloads/getstarted-optiga-trust-m/optiga-trust-m-1/externals/mbedtls/library/bignum.c **** 
1277://MAC/Home/Downloads/getstarted-optiga-trust-m/optiga-trust-m-1/externals/mbedtls/library/bignum.c **** /*
1278://MAC/Home/Downloads/getstarted-optiga-trust-m/optiga-trust-m-1/externals/mbedtls/library/bignum.c ****  * Baseline multiplication: X = A * B  (HAC 14.12)
1279://MAC/Home/Downloads/getstarted-optiga-trust-m/optiga-trust-m-1/externals/mbedtls/library/bignum.c ****  */
1280://MAC/Home/Downloads/getstarted-optiga-trust-m/optiga-trust-m-1/externals/mbedtls/library/bignum.c **** int mbedtls_mpi_mul_mpi( mbedtls_mpi *X, const mbedtls_mpi *A, const mbedtls_mpi *B )
1281://MAC/Home/Downloads/getstarted-optiga-trust-m/optiga-trust-m-1/externals/mbedtls/library/bignum.c **** {
1282://MAC/Home/Downloads/getstarted-optiga-trust-m/optiga-trust-m-1/externals/mbedtls/library/bignum.c ****     int ret;
1283://MAC/Home/Downloads/getstarted-optiga-trust-m/optiga-trust-m-1/externals/mbedtls/library/bignum.c ****     size_t i, j;
1284://MAC/Home/Downloads/getstarted-optiga-trust-m/optiga-trust-m-1/externals/mbedtls/library/bignum.c ****     mbedtls_mpi TA, TB;
1285://MAC/Home/Downloads/getstarted-optiga-trust-m/optiga-trust-m-1/externals/mbedtls/library/bignum.c ****     MPI_VALIDATE_RET( X != NULL );
1286://MAC/Home/Downloads/getstarted-optiga-trust-m/optiga-trust-m-1/externals/mbedtls/library/bignum.c ****     MPI_VALIDATE_RET( A != NULL );
1287://MAC/Home/Downloads/getstarted-optiga-trust-m/optiga-trust-m-1/externals/mbedtls/library/bignum.c ****     MPI_VALIDATE_RET( B != NULL );
1288://MAC/Home/Downloads/getstarted-optiga-trust-m/optiga-trust-m-1/externals/mbedtls/library/bignum.c **** 
1289://MAC/Home/Downloads/getstarted-optiga-trust-m/optiga-trust-m-1/externals/mbedtls/library/bignum.c ****     mbedtls_mpi_init( &TA ); mbedtls_mpi_init( &TB );
1290://MAC/Home/Downloads/getstarted-optiga-trust-m/optiga-trust-m-1/externals/mbedtls/library/bignum.c **** 
1291://MAC/Home/Downloads/getstarted-optiga-trust-m/optiga-trust-m-1/externals/mbedtls/library/bignum.c ****     if( X == A ) { MBEDTLS_MPI_CHK( mbedtls_mpi_copy( &TA, A ) ); A = &TA; }
1292://MAC/Home/Downloads/getstarted-optiga-trust-m/optiga-trust-m-1/externals/mbedtls/library/bignum.c ****     if( X == B ) { MBEDTLS_MPI_CHK( mbedtls_mpi_copy( &TB, B ) ); B = &TB; }
1293://MAC/Home/Downloads/getstarted-optiga-trust-m/optiga-trust-m-1/externals/mbedtls/library/bignum.c **** 
1294://MAC/Home/Downloads/getstarted-optiga-trust-m/optiga-trust-m-1/externals/mbedtls/library/bignum.c ****     for( i = A->n; i > 0; i-- )
1295://MAC/Home/Downloads/getstarted-optiga-trust-m/optiga-trust-m-1/externals/mbedtls/library/bignum.c ****         if( A->p[i - 1] != 0 )
1296://MAC/Home/Downloads/getstarted-optiga-trust-m/optiga-trust-m-1/externals/mbedtls/library/bignum.c ****             break;
1297://MAC/Home/Downloads/getstarted-optiga-trust-m/optiga-trust-m-1/externals/mbedtls/library/bignum.c **** 
1298://MAC/Home/Downloads/getstarted-optiga-trust-m/optiga-trust-m-1/externals/mbedtls/library/bignum.c ****     for( j = B->n; j > 0; j-- )
1299://MAC/Home/Downloads/getstarted-optiga-trust-m/optiga-trust-m-1/externals/mbedtls/library/bignum.c ****         if( B->p[j - 1] != 0 )
1300://MAC/Home/Downloads/getstarted-optiga-trust-m/optiga-trust-m-1/externals/mbedtls/library/bignum.c ****             break;
1301://MAC/Home/Downloads/getstarted-optiga-trust-m/optiga-trust-m-1/externals/mbedtls/library/bignum.c **** 
1302://MAC/Home/Downloads/getstarted-optiga-trust-m/optiga-trust-m-1/externals/mbedtls/library/bignum.c ****     MBEDTLS_MPI_CHK( mbedtls_mpi_grow( X, i + j ) );
1303://MAC/Home/Downloads/getstarted-optiga-trust-m/optiga-trust-m-1/externals/mbedtls/library/bignum.c ****     MBEDTLS_MPI_CHK( mbedtls_mpi_lset( X, 0 ) );
1304://MAC/Home/Downloads/getstarted-optiga-trust-m/optiga-trust-m-1/externals/mbedtls/library/bignum.c **** 
1305://MAC/Home/Downloads/getstarted-optiga-trust-m/optiga-trust-m-1/externals/mbedtls/library/bignum.c ****     for( ; j > 0; j-- )
1306://MAC/Home/Downloads/getstarted-optiga-trust-m/optiga-trust-m-1/externals/mbedtls/library/bignum.c ****         mpi_mul_hlp( i, A->p, X->p + j - 1, B->p[j - 1] );
1307://MAC/Home/Downloads/getstarted-optiga-trust-m/optiga-trust-m-1/externals/mbedtls/library/bignum.c **** 
1308://MAC/Home/Downloads/getstarted-optiga-trust-m/optiga-trust-m-1/externals/mbedtls/library/bignum.c ****     X->s = A->s * B->s;
1309://MAC/Home/Downloads/getstarted-optiga-trust-m/optiga-trust-m-1/externals/mbedtls/library/bignum.c **** 
1310://MAC/Home/Downloads/getstarted-optiga-trust-m/optiga-trust-m-1/externals/mbedtls/library/bignum.c **** cleanup:
1311://MAC/Home/Downloads/getstarted-optiga-trust-m/optiga-trust-m-1/externals/mbedtls/library/bignum.c **** 
1312://MAC/Home/Downloads/getstarted-optiga-trust-m/optiga-trust-m-1/externals/mbedtls/library/bignum.c ****     mbedtls_mpi_free( &TB ); mbedtls_mpi_free( &TA );
1313://MAC/Home/Downloads/getstarted-optiga-trust-m/optiga-trust-m-1/externals/mbedtls/library/bignum.c **** 
1314://MAC/Home/Downloads/getstarted-optiga-trust-m/optiga-trust-m-1/externals/mbedtls/library/bignum.c ****     return( ret );
1315://MAC/Home/Downloads/getstarted-optiga-trust-m/optiga-trust-m-1/externals/mbedtls/library/bignum.c **** }
1316://MAC/Home/Downloads/getstarted-optiga-trust-m/optiga-trust-m-1/externals/mbedtls/library/bignum.c **** 
1317://MAC/Home/Downloads/getstarted-optiga-trust-m/optiga-trust-m-1/externals/mbedtls/library/bignum.c **** /*
1318://MAC/Home/Downloads/getstarted-optiga-trust-m/optiga-trust-m-1/externals/mbedtls/library/bignum.c ****  * Baseline multiplication: X = A * b
1319://MAC/Home/Downloads/getstarted-optiga-trust-m/optiga-trust-m-1/externals/mbedtls/library/bignum.c ****  */
1320://MAC/Home/Downloads/getstarted-optiga-trust-m/optiga-trust-m-1/externals/mbedtls/library/bignum.c **** int mbedtls_mpi_mul_int( mbedtls_mpi *X, const mbedtls_mpi *A, mbedtls_mpi_uint b )
1321://MAC/Home/Downloads/getstarted-optiga-trust-m/optiga-trust-m-1/externals/mbedtls/library/bignum.c **** {
1322://MAC/Home/Downloads/getstarted-optiga-trust-m/optiga-trust-m-1/externals/mbedtls/library/bignum.c ****     mbedtls_mpi _B;
1323://MAC/Home/Downloads/getstarted-optiga-trust-m/optiga-trust-m-1/externals/mbedtls/library/bignum.c ****     mbedtls_mpi_uint p[1];
1324://MAC/Home/Downloads/getstarted-optiga-trust-m/optiga-trust-m-1/externals/mbedtls/library/bignum.c ****     MPI_VALIDATE_RET( X != NULL );
1325://MAC/Home/Downloads/getstarted-optiga-trust-m/optiga-trust-m-1/externals/mbedtls/library/bignum.c ****     MPI_VALIDATE_RET( A != NULL );
1326://MAC/Home/Downloads/getstarted-optiga-trust-m/optiga-trust-m-1/externals/mbedtls/library/bignum.c **** 
1327://MAC/Home/Downloads/getstarted-optiga-trust-m/optiga-trust-m-1/externals/mbedtls/library/bignum.c ****     _B.s = 1;
1328://MAC/Home/Downloads/getstarted-optiga-trust-m/optiga-trust-m-1/externals/mbedtls/library/bignum.c ****     _B.n = 1;
1329://MAC/Home/Downloads/getstarted-optiga-trust-m/optiga-trust-m-1/externals/mbedtls/library/bignum.c ****     _B.p = p;
1330://MAC/Home/Downloads/getstarted-optiga-trust-m/optiga-trust-m-1/externals/mbedtls/library/bignum.c ****     p[0] = b;
1331://MAC/Home/Downloads/getstarted-optiga-trust-m/optiga-trust-m-1/externals/mbedtls/library/bignum.c **** 
1332://MAC/Home/Downloads/getstarted-optiga-trust-m/optiga-trust-m-1/externals/mbedtls/library/bignum.c ****     return( mbedtls_mpi_mul_mpi( X, A, &_B ) );
1333://MAC/Home/Downloads/getstarted-optiga-trust-m/optiga-trust-m-1/externals/mbedtls/library/bignum.c **** }
1334://MAC/Home/Downloads/getstarted-optiga-trust-m/optiga-trust-m-1/externals/mbedtls/library/bignum.c **** 
1335://MAC/Home/Downloads/getstarted-optiga-trust-m/optiga-trust-m-1/externals/mbedtls/library/bignum.c **** /*
1336://MAC/Home/Downloads/getstarted-optiga-trust-m/optiga-trust-m-1/externals/mbedtls/library/bignum.c ****  * Unsigned integer divide - double mbedtls_mpi_uint dividend, u1/u0, and
1337://MAC/Home/Downloads/getstarted-optiga-trust-m/optiga-trust-m-1/externals/mbedtls/library/bignum.c ****  * mbedtls_mpi_uint divisor, d
1338://MAC/Home/Downloads/getstarted-optiga-trust-m/optiga-trust-m-1/externals/mbedtls/library/bignum.c ****  */
1339://MAC/Home/Downloads/getstarted-optiga-trust-m/optiga-trust-m-1/externals/mbedtls/library/bignum.c **** static mbedtls_mpi_uint mbedtls_int_div_int( mbedtls_mpi_uint u1,
1340://MAC/Home/Downloads/getstarted-optiga-trust-m/optiga-trust-m-1/externals/mbedtls/library/bignum.c ****             mbedtls_mpi_uint u0, mbedtls_mpi_uint d, mbedtls_mpi_uint *r )
1341://MAC/Home/Downloads/getstarted-optiga-trust-m/optiga-trust-m-1/externals/mbedtls/library/bignum.c **** {
1342://MAC/Home/Downloads/getstarted-optiga-trust-m/optiga-trust-m-1/externals/mbedtls/library/bignum.c **** #if defined(MBEDTLS_HAVE_UDBL)
1343://MAC/Home/Downloads/getstarted-optiga-trust-m/optiga-trust-m-1/externals/mbedtls/library/bignum.c ****     mbedtls_t_udbl dividend, quotient;
1344://MAC/Home/Downloads/getstarted-optiga-trust-m/optiga-trust-m-1/externals/mbedtls/library/bignum.c **** #else
1345://MAC/Home/Downloads/getstarted-optiga-trust-m/optiga-trust-m-1/externals/mbedtls/library/bignum.c ****     const mbedtls_mpi_uint radix = (mbedtls_mpi_uint) 1 << biH;
1346://MAC/Home/Downloads/getstarted-optiga-trust-m/optiga-trust-m-1/externals/mbedtls/library/bignum.c ****     const mbedtls_mpi_uint uint_halfword_mask = ( (mbedtls_mpi_uint) 1 << biH ) - 1;
1347://MAC/Home/Downloads/getstarted-optiga-trust-m/optiga-trust-m-1/externals/mbedtls/library/bignum.c ****     mbedtls_mpi_uint d0, d1, q0, q1, rAX, r0, quotient;
1348://MAC/Home/Downloads/getstarted-optiga-trust-m/optiga-trust-m-1/externals/mbedtls/library/bignum.c ****     mbedtls_mpi_uint u0_msw, u0_lsw;
1349://MAC/Home/Downloads/getstarted-optiga-trust-m/optiga-trust-m-1/externals/mbedtls/library/bignum.c ****     size_t s;
1350://MAC/Home/Downloads/getstarted-optiga-trust-m/optiga-trust-m-1/externals/mbedtls/library/bignum.c **** #endif
1351://MAC/Home/Downloads/getstarted-optiga-trust-m/optiga-trust-m-1/externals/mbedtls/library/bignum.c **** 
1352://MAC/Home/Downloads/getstarted-optiga-trust-m/optiga-trust-m-1/externals/mbedtls/library/bignum.c ****     /*
1353://MAC/Home/Downloads/getstarted-optiga-trust-m/optiga-trust-m-1/externals/mbedtls/library/bignum.c ****      * Check for overflow
1354://MAC/Home/Downloads/getstarted-optiga-trust-m/optiga-trust-m-1/externals/mbedtls/library/bignum.c ****      */
1355://MAC/Home/Downloads/getstarted-optiga-trust-m/optiga-trust-m-1/externals/mbedtls/library/bignum.c ****     if( 0 == d || u1 >= d )
1356://MAC/Home/Downloads/getstarted-optiga-trust-m/optiga-trust-m-1/externals/mbedtls/library/bignum.c ****     {
1357://MAC/Home/Downloads/getstarted-optiga-trust-m/optiga-trust-m-1/externals/mbedtls/library/bignum.c ****         if (r != NULL) *r = ~0;
1358://MAC/Home/Downloads/getstarted-optiga-trust-m/optiga-trust-m-1/externals/mbedtls/library/bignum.c **** 
1359://MAC/Home/Downloads/getstarted-optiga-trust-m/optiga-trust-m-1/externals/mbedtls/library/bignum.c ****         return ( ~0 );
1360://MAC/Home/Downloads/getstarted-optiga-trust-m/optiga-trust-m-1/externals/mbedtls/library/bignum.c ****     }
1361://MAC/Home/Downloads/getstarted-optiga-trust-m/optiga-trust-m-1/externals/mbedtls/library/bignum.c **** 
1362://MAC/Home/Downloads/getstarted-optiga-trust-m/optiga-trust-m-1/externals/mbedtls/library/bignum.c **** #if defined(MBEDTLS_HAVE_UDBL)
1363://MAC/Home/Downloads/getstarted-optiga-trust-m/optiga-trust-m-1/externals/mbedtls/library/bignum.c ****     dividend  = (mbedtls_t_udbl) u1 << biL;
1364://MAC/Home/Downloads/getstarted-optiga-trust-m/optiga-trust-m-1/externals/mbedtls/library/bignum.c ****     dividend |= (mbedtls_t_udbl) u0;
1365://MAC/Home/Downloads/getstarted-optiga-trust-m/optiga-trust-m-1/externals/mbedtls/library/bignum.c ****     quotient = dividend / d;
1366://MAC/Home/Downloads/getstarted-optiga-trust-m/optiga-trust-m-1/externals/mbedtls/library/bignum.c ****     if( quotient > ( (mbedtls_t_udbl) 1 << biL ) - 1 )
1367://MAC/Home/Downloads/getstarted-optiga-trust-m/optiga-trust-m-1/externals/mbedtls/library/bignum.c ****         quotient = ( (mbedtls_t_udbl) 1 << biL ) - 1;
1368://MAC/Home/Downloads/getstarted-optiga-trust-m/optiga-trust-m-1/externals/mbedtls/library/bignum.c **** 
1369://MAC/Home/Downloads/getstarted-optiga-trust-m/optiga-trust-m-1/externals/mbedtls/library/bignum.c ****     if( r != NULL )
1370://MAC/Home/Downloads/getstarted-optiga-trust-m/optiga-trust-m-1/externals/mbedtls/library/bignum.c ****         *r = (mbedtls_mpi_uint)( dividend - (quotient * d ) );
1371://MAC/Home/Downloads/getstarted-optiga-trust-m/optiga-trust-m-1/externals/mbedtls/library/bignum.c **** 
1372://MAC/Home/Downloads/getstarted-optiga-trust-m/optiga-trust-m-1/externals/mbedtls/library/bignum.c ****     return (mbedtls_mpi_uint) quotient;
1373://MAC/Home/Downloads/getstarted-optiga-trust-m/optiga-trust-m-1/externals/mbedtls/library/bignum.c **** #else
1374://MAC/Home/Downloads/getstarted-optiga-trust-m/optiga-trust-m-1/externals/mbedtls/library/bignum.c **** 
1375://MAC/Home/Downloads/getstarted-optiga-trust-m/optiga-trust-m-1/externals/mbedtls/library/bignum.c ****     /*
1376://MAC/Home/Downloads/getstarted-optiga-trust-m/optiga-trust-m-1/externals/mbedtls/library/bignum.c ****      * Algorithm D, Section 4.3.1 - The Art of Computer Programming
1377://MAC/Home/Downloads/getstarted-optiga-trust-m/optiga-trust-m-1/externals/mbedtls/library/bignum.c ****      *   Vol. 2 - Seminumerical Algorithms, Knuth
1378://MAC/Home/Downloads/getstarted-optiga-trust-m/optiga-trust-m-1/externals/mbedtls/library/bignum.c ****      */
1379://MAC/Home/Downloads/getstarted-optiga-trust-m/optiga-trust-m-1/externals/mbedtls/library/bignum.c **** 
1380://MAC/Home/Downloads/getstarted-optiga-trust-m/optiga-trust-m-1/externals/mbedtls/library/bignum.c ****     /*
1381://MAC/Home/Downloads/getstarted-optiga-trust-m/optiga-trust-m-1/externals/mbedtls/library/bignum.c ****      * Normalize the divisor, d, and dividend, u0, u1
1382://MAC/Home/Downloads/getstarted-optiga-trust-m/optiga-trust-m-1/externals/mbedtls/library/bignum.c ****      */
1383://MAC/Home/Downloads/getstarted-optiga-trust-m/optiga-trust-m-1/externals/mbedtls/library/bignum.c ****     s = mbedtls_clz( d );
1384://MAC/Home/Downloads/getstarted-optiga-trust-m/optiga-trust-m-1/externals/mbedtls/library/bignum.c ****     d = d << s;
1385://MAC/Home/Downloads/getstarted-optiga-trust-m/optiga-trust-m-1/externals/mbedtls/library/bignum.c **** 
1386://MAC/Home/Downloads/getstarted-optiga-trust-m/optiga-trust-m-1/externals/mbedtls/library/bignum.c ****     u1 = u1 << s;
1387://MAC/Home/Downloads/getstarted-optiga-trust-m/optiga-trust-m-1/externals/mbedtls/library/bignum.c ****     u1 |= ( u0 >> ( biL - s ) ) & ( -(mbedtls_mpi_sint)s >> ( biL - 1 ) );
1388://MAC/Home/Downloads/getstarted-optiga-trust-m/optiga-trust-m-1/externals/mbedtls/library/bignum.c ****     u0 =  u0 << s;
1389://MAC/Home/Downloads/getstarted-optiga-trust-m/optiga-trust-m-1/externals/mbedtls/library/bignum.c **** 
1390://MAC/Home/Downloads/getstarted-optiga-trust-m/optiga-trust-m-1/externals/mbedtls/library/bignum.c ****     d1 = d >> biH;
1391://MAC/Home/Downloads/getstarted-optiga-trust-m/optiga-trust-m-1/externals/mbedtls/library/bignum.c ****     d0 = d & uint_halfword_mask;
1392://MAC/Home/Downloads/getstarted-optiga-trust-m/optiga-trust-m-1/externals/mbedtls/library/bignum.c **** 
1393://MAC/Home/Downloads/getstarted-optiga-trust-m/optiga-trust-m-1/externals/mbedtls/library/bignum.c ****     u0_msw = u0 >> biH;
1394://MAC/Home/Downloads/getstarted-optiga-trust-m/optiga-trust-m-1/externals/mbedtls/library/bignum.c ****     u0_lsw = u0 & uint_halfword_mask;
1395://MAC/Home/Downloads/getstarted-optiga-trust-m/optiga-trust-m-1/externals/mbedtls/library/bignum.c **** 
1396://MAC/Home/Downloads/getstarted-optiga-trust-m/optiga-trust-m-1/externals/mbedtls/library/bignum.c ****     /*
1397://MAC/Home/Downloads/getstarted-optiga-trust-m/optiga-trust-m-1/externals/mbedtls/library/bignum.c ****      * Find the first quotient and remainder
1398://MAC/Home/Downloads/getstarted-optiga-trust-m/optiga-trust-m-1/externals/mbedtls/library/bignum.c ****      */
1399://MAC/Home/Downloads/getstarted-optiga-trust-m/optiga-trust-m-1/externals/mbedtls/library/bignum.c ****     q1 = u1 / d1;
1400://MAC/Home/Downloads/getstarted-optiga-trust-m/optiga-trust-m-1/externals/mbedtls/library/bignum.c ****     r0 = u1 - d1 * q1;
1401://MAC/Home/Downloads/getstarted-optiga-trust-m/optiga-trust-m-1/externals/mbedtls/library/bignum.c **** 
1402://MAC/Home/Downloads/getstarted-optiga-trust-m/optiga-trust-m-1/externals/mbedtls/library/bignum.c ****     while( q1 >= radix || ( q1 * d0 > radix * r0 + u0_msw ) )
1403://MAC/Home/Downloads/getstarted-optiga-trust-m/optiga-trust-m-1/externals/mbedtls/library/bignum.c ****     {
1404://MAC/Home/Downloads/getstarted-optiga-trust-m/optiga-trust-m-1/externals/mbedtls/library/bignum.c ****         q1 -= 1;
1405://MAC/Home/Downloads/getstarted-optiga-trust-m/optiga-trust-m-1/externals/mbedtls/library/bignum.c ****         r0 += d1;
1406://MAC/Home/Downloads/getstarted-optiga-trust-m/optiga-trust-m-1/externals/mbedtls/library/bignum.c **** 
1407://MAC/Home/Downloads/getstarted-optiga-trust-m/optiga-trust-m-1/externals/mbedtls/library/bignum.c ****         if ( r0 >= radix ) break;
1408://MAC/Home/Downloads/getstarted-optiga-trust-m/optiga-trust-m-1/externals/mbedtls/library/bignum.c ****     }
1409://MAC/Home/Downloads/getstarted-optiga-trust-m/optiga-trust-m-1/externals/mbedtls/library/bignum.c **** 
1410://MAC/Home/Downloads/getstarted-optiga-trust-m/optiga-trust-m-1/externals/mbedtls/library/bignum.c ****     rAX = ( u1 * radix ) + ( u0_msw - q1 * d );
1411://MAC/Home/Downloads/getstarted-optiga-trust-m/optiga-trust-m-1/externals/mbedtls/library/bignum.c ****     q0 = rAX / d1;
1412://MAC/Home/Downloads/getstarted-optiga-trust-m/optiga-trust-m-1/externals/mbedtls/library/bignum.c ****     r0 = rAX - q0 * d1;
1413://MAC/Home/Downloads/getstarted-optiga-trust-m/optiga-trust-m-1/externals/mbedtls/library/bignum.c **** 
1414://MAC/Home/Downloads/getstarted-optiga-trust-m/optiga-trust-m-1/externals/mbedtls/library/bignum.c ****     while( q0 >= radix || ( q0 * d0 > radix * r0 + u0_lsw ) )
1415://MAC/Home/Downloads/getstarted-optiga-trust-m/optiga-trust-m-1/externals/mbedtls/library/bignum.c ****     {
1416://MAC/Home/Downloads/getstarted-optiga-trust-m/optiga-trust-m-1/externals/mbedtls/library/bignum.c ****         q0 -= 1;
1417://MAC/Home/Downloads/getstarted-optiga-trust-m/optiga-trust-m-1/externals/mbedtls/library/bignum.c ****         r0 += d1;
1418://MAC/Home/Downloads/getstarted-optiga-trust-m/optiga-trust-m-1/externals/mbedtls/library/bignum.c **** 
1419://MAC/Home/Downloads/getstarted-optiga-trust-m/optiga-trust-m-1/externals/mbedtls/library/bignum.c ****         if ( r0 >= radix ) break;
1420://MAC/Home/Downloads/getstarted-optiga-trust-m/optiga-trust-m-1/externals/mbedtls/library/bignum.c ****     }
1421://MAC/Home/Downloads/getstarted-optiga-trust-m/optiga-trust-m-1/externals/mbedtls/library/bignum.c **** 
1422://MAC/Home/Downloads/getstarted-optiga-trust-m/optiga-trust-m-1/externals/mbedtls/library/bignum.c ****     if (r != NULL)
1423://MAC/Home/Downloads/getstarted-optiga-trust-m/optiga-trust-m-1/externals/mbedtls/library/bignum.c ****         *r = ( rAX * radix + u0_lsw - q0 * d ) >> s;
1424://MAC/Home/Downloads/getstarted-optiga-trust-m/optiga-trust-m-1/externals/mbedtls/library/bignum.c **** 
1425://MAC/Home/Downloads/getstarted-optiga-trust-m/optiga-trust-m-1/externals/mbedtls/library/bignum.c ****     quotient = q1 * radix + q0;
1426://MAC/Home/Downloads/getstarted-optiga-trust-m/optiga-trust-m-1/externals/mbedtls/library/bignum.c **** 
1427://MAC/Home/Downloads/getstarted-optiga-trust-m/optiga-trust-m-1/externals/mbedtls/library/bignum.c ****     return quotient;
1428://MAC/Home/Downloads/getstarted-optiga-trust-m/optiga-trust-m-1/externals/mbedtls/library/bignum.c **** #endif
1429://MAC/Home/Downloads/getstarted-optiga-trust-m/optiga-trust-m-1/externals/mbedtls/library/bignum.c **** }
1430://MAC/Home/Downloads/getstarted-optiga-trust-m/optiga-trust-m-1/externals/mbedtls/library/bignum.c **** 
1431://MAC/Home/Downloads/getstarted-optiga-trust-m/optiga-trust-m-1/externals/mbedtls/library/bignum.c **** /*
1432://MAC/Home/Downloads/getstarted-optiga-trust-m/optiga-trust-m-1/externals/mbedtls/library/bignum.c ****  * Division by mbedtls_mpi: A = Q * B + R  (HAC 14.20)
1433://MAC/Home/Downloads/getstarted-optiga-trust-m/optiga-trust-m-1/externals/mbedtls/library/bignum.c ****  */
1434://MAC/Home/Downloads/getstarted-optiga-trust-m/optiga-trust-m-1/externals/mbedtls/library/bignum.c **** int mbedtls_mpi_div_mpi( mbedtls_mpi *Q, mbedtls_mpi *R, const mbedtls_mpi *A,
1435://MAC/Home/Downloads/getstarted-optiga-trust-m/optiga-trust-m-1/externals/mbedtls/library/bignum.c ****                          const mbedtls_mpi *B )
1436://MAC/Home/Downloads/getstarted-optiga-trust-m/optiga-trust-m-1/externals/mbedtls/library/bignum.c **** {
1437://MAC/Home/Downloads/getstarted-optiga-trust-m/optiga-trust-m-1/externals/mbedtls/library/bignum.c ****     int ret;
1438://MAC/Home/Downloads/getstarted-optiga-trust-m/optiga-trust-m-1/externals/mbedtls/library/bignum.c ****     size_t i, n, t, k;
1439://MAC/Home/Downloads/getstarted-optiga-trust-m/optiga-trust-m-1/externals/mbedtls/library/bignum.c ****     mbedtls_mpi X, Y, Z, T1, T2;
1440://MAC/Home/Downloads/getstarted-optiga-trust-m/optiga-trust-m-1/externals/mbedtls/library/bignum.c ****     MPI_VALIDATE_RET( A != NULL );
1441://MAC/Home/Downloads/getstarted-optiga-trust-m/optiga-trust-m-1/externals/mbedtls/library/bignum.c ****     MPI_VALIDATE_RET( B != NULL );
1442://MAC/Home/Downloads/getstarted-optiga-trust-m/optiga-trust-m-1/externals/mbedtls/library/bignum.c **** 
1443://MAC/Home/Downloads/getstarted-optiga-trust-m/optiga-trust-m-1/externals/mbedtls/library/bignum.c ****     if( mbedtls_mpi_cmp_int( B, 0 ) == 0 )
1444://MAC/Home/Downloads/getstarted-optiga-trust-m/optiga-trust-m-1/externals/mbedtls/library/bignum.c ****         return( MBEDTLS_ERR_MPI_DIVISION_BY_ZERO );
1445://MAC/Home/Downloads/getstarted-optiga-trust-m/optiga-trust-m-1/externals/mbedtls/library/bignum.c **** 
1446://MAC/Home/Downloads/getstarted-optiga-trust-m/optiga-trust-m-1/externals/mbedtls/library/bignum.c ****     mbedtls_mpi_init( &X ); mbedtls_mpi_init( &Y ); mbedtls_mpi_init( &Z );
1447://MAC/Home/Downloads/getstarted-optiga-trust-m/optiga-trust-m-1/externals/mbedtls/library/bignum.c ****     mbedtls_mpi_init( &T1 ); mbedtls_mpi_init( &T2 );
1448://MAC/Home/Downloads/getstarted-optiga-trust-m/optiga-trust-m-1/externals/mbedtls/library/bignum.c **** 
1449://MAC/Home/Downloads/getstarted-optiga-trust-m/optiga-trust-m-1/externals/mbedtls/library/bignum.c ****     if( mbedtls_mpi_cmp_abs( A, B ) < 0 )
1450://MAC/Home/Downloads/getstarted-optiga-trust-m/optiga-trust-m-1/externals/mbedtls/library/bignum.c ****     {
1451://MAC/Home/Downloads/getstarted-optiga-trust-m/optiga-trust-m-1/externals/mbedtls/library/bignum.c ****         if( Q != NULL ) MBEDTLS_MPI_CHK( mbedtls_mpi_lset( Q, 0 ) );
1452://MAC/Home/Downloads/getstarted-optiga-trust-m/optiga-trust-m-1/externals/mbedtls/library/bignum.c ****         if( R != NULL ) MBEDTLS_MPI_CHK( mbedtls_mpi_copy( R, A ) );
1453://MAC/Home/Downloads/getstarted-optiga-trust-m/optiga-trust-m-1/externals/mbedtls/library/bignum.c ****         return( 0 );
1454://MAC/Home/Downloads/getstarted-optiga-trust-m/optiga-trust-m-1/externals/mbedtls/library/bignum.c ****     }
1455://MAC/Home/Downloads/getstarted-optiga-trust-m/optiga-trust-m-1/externals/mbedtls/library/bignum.c **** 
1456://MAC/Home/Downloads/getstarted-optiga-trust-m/optiga-trust-m-1/externals/mbedtls/library/bignum.c ****     MBEDTLS_MPI_CHK( mbedtls_mpi_copy( &X, A ) );
1457://MAC/Home/Downloads/getstarted-optiga-trust-m/optiga-trust-m-1/externals/mbedtls/library/bignum.c ****     MBEDTLS_MPI_CHK( mbedtls_mpi_copy( &Y, B ) );
1458://MAC/Home/Downloads/getstarted-optiga-trust-m/optiga-trust-m-1/externals/mbedtls/library/bignum.c ****     X.s = Y.s = 1;
1459://MAC/Home/Downloads/getstarted-optiga-trust-m/optiga-trust-m-1/externals/mbedtls/library/bignum.c **** 
1460://MAC/Home/Downloads/getstarted-optiga-trust-m/optiga-trust-m-1/externals/mbedtls/library/bignum.c ****     MBEDTLS_MPI_CHK( mbedtls_mpi_grow( &Z, A->n + 2 ) );
1461://MAC/Home/Downloads/getstarted-optiga-trust-m/optiga-trust-m-1/externals/mbedtls/library/bignum.c ****     MBEDTLS_MPI_CHK( mbedtls_mpi_lset( &Z,  0 ) );
1462://MAC/Home/Downloads/getstarted-optiga-trust-m/optiga-trust-m-1/externals/mbedtls/library/bignum.c ****     MBEDTLS_MPI_CHK( mbedtls_mpi_grow( &T1, 2 ) );
1463://MAC/Home/Downloads/getstarted-optiga-trust-m/optiga-trust-m-1/externals/mbedtls/library/bignum.c ****     MBEDTLS_MPI_CHK( mbedtls_mpi_grow( &T2, 3 ) );
1464://MAC/Home/Downloads/getstarted-optiga-trust-m/optiga-trust-m-1/externals/mbedtls/library/bignum.c **** 
1465://MAC/Home/Downloads/getstarted-optiga-trust-m/optiga-trust-m-1/externals/mbedtls/library/bignum.c ****     k = mbedtls_mpi_bitlen( &Y ) % biL;
1466://MAC/Home/Downloads/getstarted-optiga-trust-m/optiga-trust-m-1/externals/mbedtls/library/bignum.c ****     if( k < biL - 1 )
1467://MAC/Home/Downloads/getstarted-optiga-trust-m/optiga-trust-m-1/externals/mbedtls/library/bignum.c ****     {
1468://MAC/Home/Downloads/getstarted-optiga-trust-m/optiga-trust-m-1/externals/mbedtls/library/bignum.c ****         k = biL - 1 - k;
1469://MAC/Home/Downloads/getstarted-optiga-trust-m/optiga-trust-m-1/externals/mbedtls/library/bignum.c ****         MBEDTLS_MPI_CHK( mbedtls_mpi_shift_l( &X, k ) );
1470://MAC/Home/Downloads/getstarted-optiga-trust-m/optiga-trust-m-1/externals/mbedtls/library/bignum.c ****         MBEDTLS_MPI_CHK( mbedtls_mpi_shift_l( &Y, k ) );
1471://MAC/Home/Downloads/getstarted-optiga-trust-m/optiga-trust-m-1/externals/mbedtls/library/bignum.c ****     }
1472://MAC/Home/Downloads/getstarted-optiga-trust-m/optiga-trust-m-1/externals/mbedtls/library/bignum.c ****     else k = 0;
1473://MAC/Home/Downloads/getstarted-optiga-trust-m/optiga-trust-m-1/externals/mbedtls/library/bignum.c **** 
1474://MAC/Home/Downloads/getstarted-optiga-trust-m/optiga-trust-m-1/externals/mbedtls/library/bignum.c ****     n = X.n - 1;
1475://MAC/Home/Downloads/getstarted-optiga-trust-m/optiga-trust-m-1/externals/mbedtls/library/bignum.c ****     t = Y.n - 1;
1476://MAC/Home/Downloads/getstarted-optiga-trust-m/optiga-trust-m-1/externals/mbedtls/library/bignum.c ****     MBEDTLS_MPI_CHK( mbedtls_mpi_shift_l( &Y, biL * ( n - t ) ) );
1477://MAC/Home/Downloads/getstarted-optiga-trust-m/optiga-trust-m-1/externals/mbedtls/library/bignum.c **** 
1478://MAC/Home/Downloads/getstarted-optiga-trust-m/optiga-trust-m-1/externals/mbedtls/library/bignum.c ****     while( mbedtls_mpi_cmp_mpi( &X, &Y ) >= 0 )
1479://MAC/Home/Downloads/getstarted-optiga-trust-m/optiga-trust-m-1/externals/mbedtls/library/bignum.c ****     {
1480://MAC/Home/Downloads/getstarted-optiga-trust-m/optiga-trust-m-1/externals/mbedtls/library/bignum.c ****         Z.p[n - t]++;
1481://MAC/Home/Downloads/getstarted-optiga-trust-m/optiga-trust-m-1/externals/mbedtls/library/bignum.c ****         MBEDTLS_MPI_CHK( mbedtls_mpi_sub_mpi( &X, &X, &Y ) );
1482://MAC/Home/Downloads/getstarted-optiga-trust-m/optiga-trust-m-1/externals/mbedtls/library/bignum.c ****     }
1483://MAC/Home/Downloads/getstarted-optiga-trust-m/optiga-trust-m-1/externals/mbedtls/library/bignum.c ****     MBEDTLS_MPI_CHK( mbedtls_mpi_shift_r( &Y, biL * ( n - t ) ) );
1484://MAC/Home/Downloads/getstarted-optiga-trust-m/optiga-trust-m-1/externals/mbedtls/library/bignum.c **** 
1485://MAC/Home/Downloads/getstarted-optiga-trust-m/optiga-trust-m-1/externals/mbedtls/library/bignum.c ****     for( i = n; i > t ; i-- )
1486://MAC/Home/Downloads/getstarted-optiga-trust-m/optiga-trust-m-1/externals/mbedtls/library/bignum.c ****     {
1487://MAC/Home/Downloads/getstarted-optiga-trust-m/optiga-trust-m-1/externals/mbedtls/library/bignum.c ****         if( X.p[i] >= Y.p[t] )
1488://MAC/Home/Downloads/getstarted-optiga-trust-m/optiga-trust-m-1/externals/mbedtls/library/bignum.c ****             Z.p[i - t - 1] = ~0;
1489://MAC/Home/Downloads/getstarted-optiga-trust-m/optiga-trust-m-1/externals/mbedtls/library/bignum.c ****         else
1490://MAC/Home/Downloads/getstarted-optiga-trust-m/optiga-trust-m-1/externals/mbedtls/library/bignum.c ****         {
1491://MAC/Home/Downloads/getstarted-optiga-trust-m/optiga-trust-m-1/externals/mbedtls/library/bignum.c ****             Z.p[i - t - 1] = mbedtls_int_div_int( X.p[i], X.p[i - 1],
1492://MAC/Home/Downloads/getstarted-optiga-trust-m/optiga-trust-m-1/externals/mbedtls/library/bignum.c ****                                                             Y.p[t], NULL);
1493://MAC/Home/Downloads/getstarted-optiga-trust-m/optiga-trust-m-1/externals/mbedtls/library/bignum.c ****         }
1494://MAC/Home/Downloads/getstarted-optiga-trust-m/optiga-trust-m-1/externals/mbedtls/library/bignum.c **** 
1495://MAC/Home/Downloads/getstarted-optiga-trust-m/optiga-trust-m-1/externals/mbedtls/library/bignum.c ****         Z.p[i - t - 1]++;
1496://MAC/Home/Downloads/getstarted-optiga-trust-m/optiga-trust-m-1/externals/mbedtls/library/bignum.c ****         do
1497://MAC/Home/Downloads/getstarted-optiga-trust-m/optiga-trust-m-1/externals/mbedtls/library/bignum.c ****         {
1498://MAC/Home/Downloads/getstarted-optiga-trust-m/optiga-trust-m-1/externals/mbedtls/library/bignum.c ****             Z.p[i - t - 1]--;
1499://MAC/Home/Downloads/getstarted-optiga-trust-m/optiga-trust-m-1/externals/mbedtls/library/bignum.c **** 
1500://MAC/Home/Downloads/getstarted-optiga-trust-m/optiga-trust-m-1/externals/mbedtls/library/bignum.c ****             MBEDTLS_MPI_CHK( mbedtls_mpi_lset( &T1, 0 ) );
1501://MAC/Home/Downloads/getstarted-optiga-trust-m/optiga-trust-m-1/externals/mbedtls/library/bignum.c ****             T1.p[0] = ( t < 1 ) ? 0 : Y.p[t - 1];
1502://MAC/Home/Downloads/getstarted-optiga-trust-m/optiga-trust-m-1/externals/mbedtls/library/bignum.c ****             T1.p[1] = Y.p[t];
1503://MAC/Home/Downloads/getstarted-optiga-trust-m/optiga-trust-m-1/externals/mbedtls/library/bignum.c ****             MBEDTLS_MPI_CHK( mbedtls_mpi_mul_int( &T1, &T1, Z.p[i - t - 1] ) );
1504://MAC/Home/Downloads/getstarted-optiga-trust-m/optiga-trust-m-1/externals/mbedtls/library/bignum.c **** 
1505://MAC/Home/Downloads/getstarted-optiga-trust-m/optiga-trust-m-1/externals/mbedtls/library/bignum.c ****             MBEDTLS_MPI_CHK( mbedtls_mpi_lset( &T2, 0 ) );
1506://MAC/Home/Downloads/getstarted-optiga-trust-m/optiga-trust-m-1/externals/mbedtls/library/bignum.c ****             T2.p[0] = ( i < 2 ) ? 0 : X.p[i - 2];
1507://MAC/Home/Downloads/getstarted-optiga-trust-m/optiga-trust-m-1/externals/mbedtls/library/bignum.c ****             T2.p[1] = ( i < 1 ) ? 0 : X.p[i - 1];
1508://MAC/Home/Downloads/getstarted-optiga-trust-m/optiga-trust-m-1/externals/mbedtls/library/bignum.c ****             T2.p[2] = X.p[i];
1509://MAC/Home/Downloads/getstarted-optiga-trust-m/optiga-trust-m-1/externals/mbedtls/library/bignum.c ****         }
1510://MAC/Home/Downloads/getstarted-optiga-trust-m/optiga-trust-m-1/externals/mbedtls/library/bignum.c ****         while( mbedtls_mpi_cmp_mpi( &T1, &T2 ) > 0 );
1511://MAC/Home/Downloads/getstarted-optiga-trust-m/optiga-trust-m-1/externals/mbedtls/library/bignum.c **** 
1512://MAC/Home/Downloads/getstarted-optiga-trust-m/optiga-trust-m-1/externals/mbedtls/library/bignum.c ****         MBEDTLS_MPI_CHK( mbedtls_mpi_mul_int( &T1, &Y, Z.p[i - t - 1] ) );
1513://MAC/Home/Downloads/getstarted-optiga-trust-m/optiga-trust-m-1/externals/mbedtls/library/bignum.c ****         MBEDTLS_MPI_CHK( mbedtls_mpi_shift_l( &T1,  biL * ( i - t - 1 ) ) );
1514://MAC/Home/Downloads/getstarted-optiga-trust-m/optiga-trust-m-1/externals/mbedtls/library/bignum.c ****         MBEDTLS_MPI_CHK( mbedtls_mpi_sub_mpi( &X, &X, &T1 ) );
1515://MAC/Home/Downloads/getstarted-optiga-trust-m/optiga-trust-m-1/externals/mbedtls/library/bignum.c **** 
1516://MAC/Home/Downloads/getstarted-optiga-trust-m/optiga-trust-m-1/externals/mbedtls/library/bignum.c ****         if( mbedtls_mpi_cmp_int( &X, 0 ) < 0 )
1517://MAC/Home/Downloads/getstarted-optiga-trust-m/optiga-trust-m-1/externals/mbedtls/library/bignum.c ****         {
1518://MAC/Home/Downloads/getstarted-optiga-trust-m/optiga-trust-m-1/externals/mbedtls/library/bignum.c ****             MBEDTLS_MPI_CHK( mbedtls_mpi_copy( &T1, &Y ) );
1519://MAC/Home/Downloads/getstarted-optiga-trust-m/optiga-trust-m-1/externals/mbedtls/library/bignum.c ****             MBEDTLS_MPI_CHK( mbedtls_mpi_shift_l( &T1, biL * ( i - t - 1 ) ) );
1520://MAC/Home/Downloads/getstarted-optiga-trust-m/optiga-trust-m-1/externals/mbedtls/library/bignum.c ****             MBEDTLS_MPI_CHK( mbedtls_mpi_add_mpi( &X, &X, &T1 ) );
1521://MAC/Home/Downloads/getstarted-optiga-trust-m/optiga-trust-m-1/externals/mbedtls/library/bignum.c ****             Z.p[i - t - 1]--;
1522://MAC/Home/Downloads/getstarted-optiga-trust-m/optiga-trust-m-1/externals/mbedtls/library/bignum.c ****         }
1523://MAC/Home/Downloads/getstarted-optiga-trust-m/optiga-trust-m-1/externals/mbedtls/library/bignum.c ****     }
1524://MAC/Home/Downloads/getstarted-optiga-trust-m/optiga-trust-m-1/externals/mbedtls/library/bignum.c **** 
1525://MAC/Home/Downloads/getstarted-optiga-trust-m/optiga-trust-m-1/externals/mbedtls/library/bignum.c ****     if( Q != NULL )
1526://MAC/Home/Downloads/getstarted-optiga-trust-m/optiga-trust-m-1/externals/mbedtls/library/bignum.c ****     {
1527://MAC/Home/Downloads/getstarted-optiga-trust-m/optiga-trust-m-1/externals/mbedtls/library/bignum.c ****         MBEDTLS_MPI_CHK( mbedtls_mpi_copy( Q, &Z ) );
1528://MAC/Home/Downloads/getstarted-optiga-trust-m/optiga-trust-m-1/externals/mbedtls/library/bignum.c ****         Q->s = A->s * B->s;
1529://MAC/Home/Downloads/getstarted-optiga-trust-m/optiga-trust-m-1/externals/mbedtls/library/bignum.c ****     }
1530://MAC/Home/Downloads/getstarted-optiga-trust-m/optiga-trust-m-1/externals/mbedtls/library/bignum.c **** 
1531://MAC/Home/Downloads/getstarted-optiga-trust-m/optiga-trust-m-1/externals/mbedtls/library/bignum.c ****     if( R != NULL )
1532://MAC/Home/Downloads/getstarted-optiga-trust-m/optiga-trust-m-1/externals/mbedtls/library/bignum.c ****     {
1533://MAC/Home/Downloads/getstarted-optiga-trust-m/optiga-trust-m-1/externals/mbedtls/library/bignum.c ****         MBEDTLS_MPI_CHK( mbedtls_mpi_shift_r( &X, k ) );
1534://MAC/Home/Downloads/getstarted-optiga-trust-m/optiga-trust-m-1/externals/mbedtls/library/bignum.c ****         X.s = A->s;
1535://MAC/Home/Downloads/getstarted-optiga-trust-m/optiga-trust-m-1/externals/mbedtls/library/bignum.c ****         MBEDTLS_MPI_CHK( mbedtls_mpi_copy( R, &X ) );
1536://MAC/Home/Downloads/getstarted-optiga-trust-m/optiga-trust-m-1/externals/mbedtls/library/bignum.c **** 
1537://MAC/Home/Downloads/getstarted-optiga-trust-m/optiga-trust-m-1/externals/mbedtls/library/bignum.c ****         if( mbedtls_mpi_cmp_int( R, 0 ) == 0 )
1538://MAC/Home/Downloads/getstarted-optiga-trust-m/optiga-trust-m-1/externals/mbedtls/library/bignum.c ****             R->s = 1;
1539://MAC/Home/Downloads/getstarted-optiga-trust-m/optiga-trust-m-1/externals/mbedtls/library/bignum.c ****     }
1540://MAC/Home/Downloads/getstarted-optiga-trust-m/optiga-trust-m-1/externals/mbedtls/library/bignum.c **** 
1541://MAC/Home/Downloads/getstarted-optiga-trust-m/optiga-trust-m-1/externals/mbedtls/library/bignum.c **** cleanup:
1542://MAC/Home/Downloads/getstarted-optiga-trust-m/optiga-trust-m-1/externals/mbedtls/library/bignum.c **** 
1543://MAC/Home/Downloads/getstarted-optiga-trust-m/optiga-trust-m-1/externals/mbedtls/library/bignum.c ****     mbedtls_mpi_free( &X ); mbedtls_mpi_free( &Y ); mbedtls_mpi_free( &Z );
1544://MAC/Home/Downloads/getstarted-optiga-trust-m/optiga-trust-m-1/externals/mbedtls/library/bignum.c ****     mbedtls_mpi_free( &T1 ); mbedtls_mpi_free( &T2 );
1545://MAC/Home/Downloads/getstarted-optiga-trust-m/optiga-trust-m-1/externals/mbedtls/library/bignum.c **** 
1546://MAC/Home/Downloads/getstarted-optiga-trust-m/optiga-trust-m-1/externals/mbedtls/library/bignum.c ****     return( ret );
1547://MAC/Home/Downloads/getstarted-optiga-trust-m/optiga-trust-m-1/externals/mbedtls/library/bignum.c **** }
1548://MAC/Home/Downloads/getstarted-optiga-trust-m/optiga-trust-m-1/externals/mbedtls/library/bignum.c **** 
1549://MAC/Home/Downloads/getstarted-optiga-trust-m/optiga-trust-m-1/externals/mbedtls/library/bignum.c **** /*
1550://MAC/Home/Downloads/getstarted-optiga-trust-m/optiga-trust-m-1/externals/mbedtls/library/bignum.c ****  * Division by int: A = Q * b + R
1551://MAC/Home/Downloads/getstarted-optiga-trust-m/optiga-trust-m-1/externals/mbedtls/library/bignum.c ****  */
1552://MAC/Home/Downloads/getstarted-optiga-trust-m/optiga-trust-m-1/externals/mbedtls/library/bignum.c **** int mbedtls_mpi_div_int( mbedtls_mpi *Q, mbedtls_mpi *R,
1553://MAC/Home/Downloads/getstarted-optiga-trust-m/optiga-trust-m-1/externals/mbedtls/library/bignum.c ****                          const mbedtls_mpi *A,
1554://MAC/Home/Downloads/getstarted-optiga-trust-m/optiga-trust-m-1/externals/mbedtls/library/bignum.c ****                          mbedtls_mpi_sint b )
1555://MAC/Home/Downloads/getstarted-optiga-trust-m/optiga-trust-m-1/externals/mbedtls/library/bignum.c **** {
1556://MAC/Home/Downloads/getstarted-optiga-trust-m/optiga-trust-m-1/externals/mbedtls/library/bignum.c ****     mbedtls_mpi _B;
1557://MAC/Home/Downloads/getstarted-optiga-trust-m/optiga-trust-m-1/externals/mbedtls/library/bignum.c ****     mbedtls_mpi_uint p[1];
1558://MAC/Home/Downloads/getstarted-optiga-trust-m/optiga-trust-m-1/externals/mbedtls/library/bignum.c ****     MPI_VALIDATE_RET( A != NULL );
1559://MAC/Home/Downloads/getstarted-optiga-trust-m/optiga-trust-m-1/externals/mbedtls/library/bignum.c **** 
1560://MAC/Home/Downloads/getstarted-optiga-trust-m/optiga-trust-m-1/externals/mbedtls/library/bignum.c ****     p[0] = ( b < 0 ) ? -b : b;
1561://MAC/Home/Downloads/getstarted-optiga-trust-m/optiga-trust-m-1/externals/mbedtls/library/bignum.c ****     _B.s = ( b < 0 ) ? -1 : 1;
1562://MAC/Home/Downloads/getstarted-optiga-trust-m/optiga-trust-m-1/externals/mbedtls/library/bignum.c ****     _B.n = 1;
1563://MAC/Home/Downloads/getstarted-optiga-trust-m/optiga-trust-m-1/externals/mbedtls/library/bignum.c ****     _B.p = p;
1564://MAC/Home/Downloads/getstarted-optiga-trust-m/optiga-trust-m-1/externals/mbedtls/library/bignum.c **** 
1565://MAC/Home/Downloads/getstarted-optiga-trust-m/optiga-trust-m-1/externals/mbedtls/library/bignum.c ****     return( mbedtls_mpi_div_mpi( Q, R, A, &_B ) );
1566://MAC/Home/Downloads/getstarted-optiga-trust-m/optiga-trust-m-1/externals/mbedtls/library/bignum.c **** }
1567://MAC/Home/Downloads/getstarted-optiga-trust-m/optiga-trust-m-1/externals/mbedtls/library/bignum.c **** 
1568://MAC/Home/Downloads/getstarted-optiga-trust-m/optiga-trust-m-1/externals/mbedtls/library/bignum.c **** /*
1569://MAC/Home/Downloads/getstarted-optiga-trust-m/optiga-trust-m-1/externals/mbedtls/library/bignum.c ****  * Modulo: R = A mod B
1570://MAC/Home/Downloads/getstarted-optiga-trust-m/optiga-trust-m-1/externals/mbedtls/library/bignum.c ****  */
1571://MAC/Home/Downloads/getstarted-optiga-trust-m/optiga-trust-m-1/externals/mbedtls/library/bignum.c **** int mbedtls_mpi_mod_mpi( mbedtls_mpi *R, const mbedtls_mpi *A, const mbedtls_mpi *B )
1572://MAC/Home/Downloads/getstarted-optiga-trust-m/optiga-trust-m-1/externals/mbedtls/library/bignum.c **** {
1573://MAC/Home/Downloads/getstarted-optiga-trust-m/optiga-trust-m-1/externals/mbedtls/library/bignum.c ****     int ret;
1574://MAC/Home/Downloads/getstarted-optiga-trust-m/optiga-trust-m-1/externals/mbedtls/library/bignum.c ****     MPI_VALIDATE_RET( R != NULL );
1575://MAC/Home/Downloads/getstarted-optiga-trust-m/optiga-trust-m-1/externals/mbedtls/library/bignum.c ****     MPI_VALIDATE_RET( A != NULL );
1576://MAC/Home/Downloads/getstarted-optiga-trust-m/optiga-trust-m-1/externals/mbedtls/library/bignum.c ****     MPI_VALIDATE_RET( B != NULL );
1577://MAC/Home/Downloads/getstarted-optiga-trust-m/optiga-trust-m-1/externals/mbedtls/library/bignum.c **** 
1578://MAC/Home/Downloads/getstarted-optiga-trust-m/optiga-trust-m-1/externals/mbedtls/library/bignum.c ****     if( mbedtls_mpi_cmp_int( B, 0 ) < 0 )
1579://MAC/Home/Downloads/getstarted-optiga-trust-m/optiga-trust-m-1/externals/mbedtls/library/bignum.c ****         return( MBEDTLS_ERR_MPI_NEGATIVE_VALUE );
1580://MAC/Home/Downloads/getstarted-optiga-trust-m/optiga-trust-m-1/externals/mbedtls/library/bignum.c **** 
1581://MAC/Home/Downloads/getstarted-optiga-trust-m/optiga-trust-m-1/externals/mbedtls/library/bignum.c ****     MBEDTLS_MPI_CHK( mbedtls_mpi_div_mpi( NULL, R, A, B ) );
1582://MAC/Home/Downloads/getstarted-optiga-trust-m/optiga-trust-m-1/externals/mbedtls/library/bignum.c **** 
1583://MAC/Home/Downloads/getstarted-optiga-trust-m/optiga-trust-m-1/externals/mbedtls/library/bignum.c ****     while( mbedtls_mpi_cmp_int( R, 0 ) < 0 )
1584://MAC/Home/Downloads/getstarted-optiga-trust-m/optiga-trust-m-1/externals/mbedtls/library/bignum.c ****       MBEDTLS_MPI_CHK( mbedtls_mpi_add_mpi( R, R, B ) );
1585://MAC/Home/Downloads/getstarted-optiga-trust-m/optiga-trust-m-1/externals/mbedtls/library/bignum.c **** 
1586://MAC/Home/Downloads/getstarted-optiga-trust-m/optiga-trust-m-1/externals/mbedtls/library/bignum.c ****     while( mbedtls_mpi_cmp_mpi( R, B ) >= 0 )
1587://MAC/Home/Downloads/getstarted-optiga-trust-m/optiga-trust-m-1/externals/mbedtls/library/bignum.c ****       MBEDTLS_MPI_CHK( mbedtls_mpi_sub_mpi( R, R, B ) );
1588://MAC/Home/Downloads/getstarted-optiga-trust-m/optiga-trust-m-1/externals/mbedtls/library/bignum.c **** 
1589://MAC/Home/Downloads/getstarted-optiga-trust-m/optiga-trust-m-1/externals/mbedtls/library/bignum.c **** cleanup:
1590://MAC/Home/Downloads/getstarted-optiga-trust-m/optiga-trust-m-1/externals/mbedtls/library/bignum.c **** 
1591://MAC/Home/Downloads/getstarted-optiga-trust-m/optiga-trust-m-1/externals/mbedtls/library/bignum.c ****     return( ret );
1592://MAC/Home/Downloads/getstarted-optiga-trust-m/optiga-trust-m-1/externals/mbedtls/library/bignum.c **** }
1593://MAC/Home/Downloads/getstarted-optiga-trust-m/optiga-trust-m-1/externals/mbedtls/library/bignum.c **** 
1594://MAC/Home/Downloads/getstarted-optiga-trust-m/optiga-trust-m-1/externals/mbedtls/library/bignum.c **** /*
1595://MAC/Home/Downloads/getstarted-optiga-trust-m/optiga-trust-m-1/externals/mbedtls/library/bignum.c ****  * Modulo: r = A mod b
1596://MAC/Home/Downloads/getstarted-optiga-trust-m/optiga-trust-m-1/externals/mbedtls/library/bignum.c ****  */
1597://MAC/Home/Downloads/getstarted-optiga-trust-m/optiga-trust-m-1/externals/mbedtls/library/bignum.c **** int mbedtls_mpi_mod_int( mbedtls_mpi_uint *r, const mbedtls_mpi *A, mbedtls_mpi_sint b )
1598://MAC/Home/Downloads/getstarted-optiga-trust-m/optiga-trust-m-1/externals/mbedtls/library/bignum.c **** {
1599://MAC/Home/Downloads/getstarted-optiga-trust-m/optiga-trust-m-1/externals/mbedtls/library/bignum.c ****     size_t i;
1600://MAC/Home/Downloads/getstarted-optiga-trust-m/optiga-trust-m-1/externals/mbedtls/library/bignum.c ****     mbedtls_mpi_uint x, y, z;
1601://MAC/Home/Downloads/getstarted-optiga-trust-m/optiga-trust-m-1/externals/mbedtls/library/bignum.c ****     MPI_VALIDATE_RET( r != NULL );
1602://MAC/Home/Downloads/getstarted-optiga-trust-m/optiga-trust-m-1/externals/mbedtls/library/bignum.c ****     MPI_VALIDATE_RET( A != NULL );
1603://MAC/Home/Downloads/getstarted-optiga-trust-m/optiga-trust-m-1/externals/mbedtls/library/bignum.c **** 
1604://MAC/Home/Downloads/getstarted-optiga-trust-m/optiga-trust-m-1/externals/mbedtls/library/bignum.c ****     if( b == 0 )
1605://MAC/Home/Downloads/getstarted-optiga-trust-m/optiga-trust-m-1/externals/mbedtls/library/bignum.c ****         return( MBEDTLS_ERR_MPI_DIVISION_BY_ZERO );
1606://MAC/Home/Downloads/getstarted-optiga-trust-m/optiga-trust-m-1/externals/mbedtls/library/bignum.c **** 
1607://MAC/Home/Downloads/getstarted-optiga-trust-m/optiga-trust-m-1/externals/mbedtls/library/bignum.c ****     if( b < 0 )
1608://MAC/Home/Downloads/getstarted-optiga-trust-m/optiga-trust-m-1/externals/mbedtls/library/bignum.c ****         return( MBEDTLS_ERR_MPI_NEGATIVE_VALUE );
1609://MAC/Home/Downloads/getstarted-optiga-trust-m/optiga-trust-m-1/externals/mbedtls/library/bignum.c **** 
1610://MAC/Home/Downloads/getstarted-optiga-trust-m/optiga-trust-m-1/externals/mbedtls/library/bignum.c ****     /*
1611://MAC/Home/Downloads/getstarted-optiga-trust-m/optiga-trust-m-1/externals/mbedtls/library/bignum.c ****      * handle trivial cases
1612://MAC/Home/Downloads/getstarted-optiga-trust-m/optiga-trust-m-1/externals/mbedtls/library/bignum.c ****      */
1613://MAC/Home/Downloads/getstarted-optiga-trust-m/optiga-trust-m-1/externals/mbedtls/library/bignum.c ****     if( b == 1 )
1614://MAC/Home/Downloads/getstarted-optiga-trust-m/optiga-trust-m-1/externals/mbedtls/library/bignum.c ****     {
1615://MAC/Home/Downloads/getstarted-optiga-trust-m/optiga-trust-m-1/externals/mbedtls/library/bignum.c ****         *r = 0;
1616://MAC/Home/Downloads/getstarted-optiga-trust-m/optiga-trust-m-1/externals/mbedtls/library/bignum.c ****         return( 0 );
1617://MAC/Home/Downloads/getstarted-optiga-trust-m/optiga-trust-m-1/externals/mbedtls/library/bignum.c ****     }
1618://MAC/Home/Downloads/getstarted-optiga-trust-m/optiga-trust-m-1/externals/mbedtls/library/bignum.c **** 
1619://MAC/Home/Downloads/getstarted-optiga-trust-m/optiga-trust-m-1/externals/mbedtls/library/bignum.c ****     if( b == 2 )
1620://MAC/Home/Downloads/getstarted-optiga-trust-m/optiga-trust-m-1/externals/mbedtls/library/bignum.c ****     {
1621://MAC/Home/Downloads/getstarted-optiga-trust-m/optiga-trust-m-1/externals/mbedtls/library/bignum.c ****         *r = A->p[0] & 1;
1622://MAC/Home/Downloads/getstarted-optiga-trust-m/optiga-trust-m-1/externals/mbedtls/library/bignum.c ****         return( 0 );
1623://MAC/Home/Downloads/getstarted-optiga-trust-m/optiga-trust-m-1/externals/mbedtls/library/bignum.c ****     }
1624://MAC/Home/Downloads/getstarted-optiga-trust-m/optiga-trust-m-1/externals/mbedtls/library/bignum.c **** 
1625://MAC/Home/Downloads/getstarted-optiga-trust-m/optiga-trust-m-1/externals/mbedtls/library/bignum.c ****     /*
1626://MAC/Home/Downloads/getstarted-optiga-trust-m/optiga-trust-m-1/externals/mbedtls/library/bignum.c ****      * general case
1627://MAC/Home/Downloads/getstarted-optiga-trust-m/optiga-trust-m-1/externals/mbedtls/library/bignum.c ****      */
1628://MAC/Home/Downloads/getstarted-optiga-trust-m/optiga-trust-m-1/externals/mbedtls/library/bignum.c ****     for( i = A->n, y = 0; i > 0; i-- )
1629://MAC/Home/Downloads/getstarted-optiga-trust-m/optiga-trust-m-1/externals/mbedtls/library/bignum.c ****     {
1630://MAC/Home/Downloads/getstarted-optiga-trust-m/optiga-trust-m-1/externals/mbedtls/library/bignum.c ****         x  = A->p[i - 1];
1631://MAC/Home/Downloads/getstarted-optiga-trust-m/optiga-trust-m-1/externals/mbedtls/library/bignum.c ****         y  = ( y << biH ) | ( x >> biH );
1632://MAC/Home/Downloads/getstarted-optiga-trust-m/optiga-trust-m-1/externals/mbedtls/library/bignum.c ****         z  = y / b;
1633://MAC/Home/Downloads/getstarted-optiga-trust-m/optiga-trust-m-1/externals/mbedtls/library/bignum.c ****         y -= z * b;
1634://MAC/Home/Downloads/getstarted-optiga-trust-m/optiga-trust-m-1/externals/mbedtls/library/bignum.c **** 
1635://MAC/Home/Downloads/getstarted-optiga-trust-m/optiga-trust-m-1/externals/mbedtls/library/bignum.c ****         x <<= biH;
1636://MAC/Home/Downloads/getstarted-optiga-trust-m/optiga-trust-m-1/externals/mbedtls/library/bignum.c ****         y  = ( y << biH ) | ( x >> biH );
1637://MAC/Home/Downloads/getstarted-optiga-trust-m/optiga-trust-m-1/externals/mbedtls/library/bignum.c ****         z  = y / b;
1638://MAC/Home/Downloads/getstarted-optiga-trust-m/optiga-trust-m-1/externals/mbedtls/library/bignum.c ****         y -= z * b;
1639://MAC/Home/Downloads/getstarted-optiga-trust-m/optiga-trust-m-1/externals/mbedtls/library/bignum.c ****     }
1640://MAC/Home/Downloads/getstarted-optiga-trust-m/optiga-trust-m-1/externals/mbedtls/library/bignum.c **** 
1641://MAC/Home/Downloads/getstarted-optiga-trust-m/optiga-trust-m-1/externals/mbedtls/library/bignum.c ****     /*
1642://MAC/Home/Downloads/getstarted-optiga-trust-m/optiga-trust-m-1/externals/mbedtls/library/bignum.c ****      * If A is negative, then the current y represents a negative value.
1643://MAC/Home/Downloads/getstarted-optiga-trust-m/optiga-trust-m-1/externals/mbedtls/library/bignum.c ****      * Flipping it to the positive side.
1644://MAC/Home/Downloads/getstarted-optiga-trust-m/optiga-trust-m-1/externals/mbedtls/library/bignum.c ****      */
1645://MAC/Home/Downloads/getstarted-optiga-trust-m/optiga-trust-m-1/externals/mbedtls/library/bignum.c ****     if( A->s < 0 && y != 0 )
1646://MAC/Home/Downloads/getstarted-optiga-trust-m/optiga-trust-m-1/externals/mbedtls/library/bignum.c ****         y = b - y;
1647://MAC/Home/Downloads/getstarted-optiga-trust-m/optiga-trust-m-1/externals/mbedtls/library/bignum.c **** 
1648://MAC/Home/Downloads/getstarted-optiga-trust-m/optiga-trust-m-1/externals/mbedtls/library/bignum.c ****     *r = y;
1649://MAC/Home/Downloads/getstarted-optiga-trust-m/optiga-trust-m-1/externals/mbedtls/library/bignum.c **** 
1650://MAC/Home/Downloads/getstarted-optiga-trust-m/optiga-trust-m-1/externals/mbedtls/library/bignum.c ****     return( 0 );
1651://MAC/Home/Downloads/getstarted-optiga-trust-m/optiga-trust-m-1/externals/mbedtls/library/bignum.c **** }
1652://MAC/Home/Downloads/getstarted-optiga-trust-m/optiga-trust-m-1/externals/mbedtls/library/bignum.c **** 
1653://MAC/Home/Downloads/getstarted-optiga-trust-m/optiga-trust-m-1/externals/mbedtls/library/bignum.c **** /*
1654://MAC/Home/Downloads/getstarted-optiga-trust-m/optiga-trust-m-1/externals/mbedtls/library/bignum.c ****  * Fast Montgomery initialization (thanks to Tom St Denis)
1655://MAC/Home/Downloads/getstarted-optiga-trust-m/optiga-trust-m-1/externals/mbedtls/library/bignum.c ****  */
1656://MAC/Home/Downloads/getstarted-optiga-trust-m/optiga-trust-m-1/externals/mbedtls/library/bignum.c **** static void mpi_montg_init( mbedtls_mpi_uint *mm, const mbedtls_mpi *N )
1657://MAC/Home/Downloads/getstarted-optiga-trust-m/optiga-trust-m-1/externals/mbedtls/library/bignum.c **** {
1658://MAC/Home/Downloads/getstarted-optiga-trust-m/optiga-trust-m-1/externals/mbedtls/library/bignum.c ****     mbedtls_mpi_uint x, m0 = N->p[0];
1659://MAC/Home/Downloads/getstarted-optiga-trust-m/optiga-trust-m-1/externals/mbedtls/library/bignum.c ****     unsigned int i;
1660://MAC/Home/Downloads/getstarted-optiga-trust-m/optiga-trust-m-1/externals/mbedtls/library/bignum.c **** 
1661://MAC/Home/Downloads/getstarted-optiga-trust-m/optiga-trust-m-1/externals/mbedtls/library/bignum.c ****     x  = m0;
1662://MAC/Home/Downloads/getstarted-optiga-trust-m/optiga-trust-m-1/externals/mbedtls/library/bignum.c ****     x += ( ( m0 + 2 ) & 4 ) << 1;
1663://MAC/Home/Downloads/getstarted-optiga-trust-m/optiga-trust-m-1/externals/mbedtls/library/bignum.c **** 
1664://MAC/Home/Downloads/getstarted-optiga-trust-m/optiga-trust-m-1/externals/mbedtls/library/bignum.c ****     for( i = biL; i >= 8; i /= 2 )
1665://MAC/Home/Downloads/getstarted-optiga-trust-m/optiga-trust-m-1/externals/mbedtls/library/bignum.c ****         x *= ( 2 - ( m0 * x ) );
1666://MAC/Home/Downloads/getstarted-optiga-trust-m/optiga-trust-m-1/externals/mbedtls/library/bignum.c **** 
1667://MAC/Home/Downloads/getstarted-optiga-trust-m/optiga-trust-m-1/externals/mbedtls/library/bignum.c ****     *mm = ~x + 1;
1668://MAC/Home/Downloads/getstarted-optiga-trust-m/optiga-trust-m-1/externals/mbedtls/library/bignum.c **** }
1669://MAC/Home/Downloads/getstarted-optiga-trust-m/optiga-trust-m-1/externals/mbedtls/library/bignum.c **** 
1670://MAC/Home/Downloads/getstarted-optiga-trust-m/optiga-trust-m-1/externals/mbedtls/library/bignum.c **** /*
1671://MAC/Home/Downloads/getstarted-optiga-trust-m/optiga-trust-m-1/externals/mbedtls/library/bignum.c ****  * Montgomery multiplication: A = A * B * R^-1 mod N  (HAC 14.36)
1672://MAC/Home/Downloads/getstarted-optiga-trust-m/optiga-trust-m-1/externals/mbedtls/library/bignum.c ****  */
1673://MAC/Home/Downloads/getstarted-optiga-trust-m/optiga-trust-m-1/externals/mbedtls/library/bignum.c **** static int mpi_montmul( mbedtls_mpi *A, const mbedtls_mpi *B, const mbedtls_mpi *N, mbedtls_mpi_uin
1674://MAC/Home/Downloads/getstarted-optiga-trust-m/optiga-trust-m-1/externals/mbedtls/library/bignum.c ****                          const mbedtls_mpi *T )
1675://MAC/Home/Downloads/getstarted-optiga-trust-m/optiga-trust-m-1/externals/mbedtls/library/bignum.c **** {
 2832              	 .loc 1 1675 0
 2833              	 .cfi_startproc
 2834              	.LVL449:
 2835 0000 F0B5     	 push {r4,r5,r6,r7,lr}
 2836              	.LCFI22:
 2837              	 .cfi_def_cfa_offset 20
 2838              	 .cfi_offset 4,-20
 2839              	 .cfi_offset 5,-16
 2840              	 .cfi_offset 6,-12
 2841              	 .cfi_offset 7,-8
 2842              	 .cfi_offset 14,-4
 2843 0002 89B0     	 sub sp,sp,#36
 2844              	.LCFI23:
 2845              	 .cfi_def_cfa_offset 56
1676://MAC/Home/Downloads/getstarted-optiga-trust-m/optiga-trust-m-1/externals/mbedtls/library/bignum.c ****     size_t i, n, m;
1677://MAC/Home/Downloads/getstarted-optiga-trust-m/optiga-trust-m-1/externals/mbedtls/library/bignum.c ****     mbedtls_mpi_uint u0, u1, *d;
1678://MAC/Home/Downloads/getstarted-optiga-trust-m/optiga-trust-m-1/externals/mbedtls/library/bignum.c **** 
1679://MAC/Home/Downloads/getstarted-optiga-trust-m/optiga-trust-m-1/externals/mbedtls/library/bignum.c ****     if( T->n < N->n + 1 || T->p == NULL )
 2846              	 .loc 1 1679 0
 2847 0004 0E9C     	 ldr r4,[sp,#56]
 2848 0006 6568     	 ldr r5,[r4,#4]
 2849 0008 5468     	 ldr r4,[r2,#4]
 2850 000a 661C     	 add r6,r4,#1
 2851 000c B542     	 cmp r5,r6
 2852 000e 5CD3     	 bcc .L214
 2853              	 .loc 1 1679 0 is_stmt 0 discriminator 1
 2854 0010 0E9C     	 ldr r4,[sp,#56]
 2855 0012 A668     	 ldr r6,[r4,#8]
 2856 0014 002E     	 cmp r6,#0
 2857 0016 58D0     	 beq .L214
 2858 0018 141C     	 mov r4,r2
 2859 001a 0591     	 str r1,[sp,#20]
1680://MAC/Home/Downloads/getstarted-optiga-trust-m/optiga-trust-m-1/externals/mbedtls/library/bignum.c ****         return( MBEDTLS_ERR_MPI_BAD_INPUT_DATA );
1681://MAC/Home/Downloads/getstarted-optiga-trust-m/optiga-trust-m-1/externals/mbedtls/library/bignum.c **** 
1682://MAC/Home/Downloads/getstarted-optiga-trust-m/optiga-trust-m-1/externals/mbedtls/library/bignum.c ****     memset( T->p, 0, T->n * ciL );
 2860              	 .loc 1 1682 0 is_stmt 1
 2861 001c AA00     	 lsl r2,r5,#2
 2862              	.LVL450:
 2863 001e 071C     	 mov r7,r0
 2864 0020 0021     	 mov r1,#0
 2865              	.LVL451:
 2866 0022 301C     	 mov r0,r6
 2867              	.LVL452:
 2868 0024 0793     	 str r3,[sp,#28]
 2869 0026 FFF7FEFF 	 bl memset
 2870              	.LVL453:
1683://MAC/Home/Downloads/getstarted-optiga-trust-m/optiga-trust-m-1/externals/mbedtls/library/bignum.c **** 
1684://MAC/Home/Downloads/getstarted-optiga-trust-m/optiga-trust-m-1/externals/mbedtls/library/bignum.c ****     d = T->p;
 2871              	 .loc 1 1684 0
 2872 002a 0E9B     	 ldr r3,[sp,#56]
 2873 002c 9B68     	 ldr r3,[r3,#8]
 2874 002e 0493     	 str r3,[sp,#16]
 2875              	.LVL454:
1685://MAC/Home/Downloads/getstarted-optiga-trust-m/optiga-trust-m-1/externals/mbedtls/library/bignum.c ****     n = N->n;
 2876              	 .loc 1 1685 0
 2877 0030 6368     	 ldr r3,[r4,#4]
 2878              	.LVL455:
 2879 0032 0093     	 str r3,[sp]
 2880              	.LVL456:
1686://MAC/Home/Downloads/getstarted-optiga-trust-m/optiga-trust-m-1/externals/mbedtls/library/bignum.c ****     m = ( B->n < n ) ? B->n : n;
 2881              	 .loc 1 1686 0
 2882 0034 059B     	 ldr r3,[sp,#20]
 2883              	.LVL457:
 2884 0036 009A     	 ldr r2,[sp]
 2885 0038 5B68     	 ldr r3,[r3,#4]
 2886 003a 0193     	 str r3,[sp,#4]
 2887 003c 9342     	 cmp r3,r2
 2888 003e 00D9     	 bls .L209
 2889 0040 0192     	 str r2,[sp,#4]
 2890              	.LVL458:
 2891              	.L209:
1687://MAC/Home/Downloads/getstarted-optiga-trust-m/optiga-trust-m-1/externals/mbedtls/library/bignum.c **** 
1688://MAC/Home/Downloads/getstarted-optiga-trust-m/optiga-trust-m-1/externals/mbedtls/library/bignum.c ****     for( i = 0; i < n; i++ )
 2892              	 .loc 1 1688 0
 2893 0042 0026     	 mov r6,#0
1689://MAC/Home/Downloads/getstarted-optiga-trust-m/optiga-trust-m-1/externals/mbedtls/library/bignum.c ****     {
1690://MAC/Home/Downloads/getstarted-optiga-trust-m/optiga-trust-m-1/externals/mbedtls/library/bignum.c ****         /*
1691://MAC/Home/Downloads/getstarted-optiga-trust-m/optiga-trust-m-1/externals/mbedtls/library/bignum.c ****          * T = (T + u0*B + u1*N) / 2^biL
1692://MAC/Home/Downloads/getstarted-optiga-trust-m/optiga-trust-m-1/externals/mbedtls/library/bignum.c ****          */
1693://MAC/Home/Downloads/getstarted-optiga-trust-m/optiga-trust-m-1/externals/mbedtls/library/bignum.c ****         u0 = A->p[i];
1694://MAC/Home/Downloads/getstarted-optiga-trust-m/optiga-trust-m-1/externals/mbedtls/library/bignum.c ****         u1 = ( d[0] + u0 * B->p[0] ) * mm;
1695://MAC/Home/Downloads/getstarted-optiga-trust-m/optiga-trust-m-1/externals/mbedtls/library/bignum.c **** 
1696://MAC/Home/Downloads/getstarted-optiga-trust-m/optiga-trust-m-1/externals/mbedtls/library/bignum.c ****         mpi_mul_hlp( m, B->p, d, u0 );
1697://MAC/Home/Downloads/getstarted-optiga-trust-m/optiga-trust-m-1/externals/mbedtls/library/bignum.c ****         mpi_mul_hlp( n, N->p, d, u1 );
1698://MAC/Home/Downloads/getstarted-optiga-trust-m/optiga-trust-m-1/externals/mbedtls/library/bignum.c **** 
1699://MAC/Home/Downloads/getstarted-optiga-trust-m/optiga-trust-m-1/externals/mbedtls/library/bignum.c ****         *d++ = u0; d[n + 1] = 0;
 2894              	 .loc 1 1699 0
 2895 0044 009B     	 ldr r3,[sp]
 2896 0046 049D     	 ldr r5,[sp,#16]
 2897 0048 0133     	 add r3,r3,#1
 2898 004a 9B00     	 lsl r3,r3,#2
 2899 004c 0393     	 str r3,[sp,#12]
 2900              	.LVL459:
 2901              	.L210:
1688://MAC/Home/Downloads/getstarted-optiga-trust-m/optiga-trust-m-1/externals/mbedtls/library/bignum.c ****     {
 2902              	 .loc 1 1688 0 discriminator 1
 2903 004e 009B     	 ldr r3,[sp]
 2904 0050 B868     	 ldr r0,[r7,#8]
 2905 0052 9E42     	 cmp r6,r3
 2906 0054 20D0     	 beq .L216
1693://MAC/Home/Downloads/getstarted-optiga-trust-m/optiga-trust-m-1/externals/mbedtls/library/bignum.c ****         u1 = ( d[0] + u0 * B->p[0] ) * mm;
 2907              	 .loc 1 1693 0 discriminator 3
 2908 0056 B300     	 lsl r3,r6,#2
 2909 0058 C358     	 ldr r3,[r0,r3]
1696://MAC/Home/Downloads/getstarted-optiga-trust-m/optiga-trust-m-1/externals/mbedtls/library/bignum.c ****         mpi_mul_hlp( n, N->p, d, u1 );
 2910              	 .loc 1 1696 0 discriminator 3
 2911 005a 0198     	 ldr r0,[sp,#4]
1693://MAC/Home/Downloads/getstarted-optiga-trust-m/optiga-trust-m-1/externals/mbedtls/library/bignum.c ****         u1 = ( d[0] + u0 * B->p[0] ) * mm;
 2912              	 .loc 1 1693 0 discriminator 3
 2913 005c 0293     	 str r3,[sp,#8]
 2914              	.LVL460:
1694://MAC/Home/Downloads/getstarted-optiga-trust-m/optiga-trust-m-1/externals/mbedtls/library/bignum.c **** 
 2915              	 .loc 1 1694 0 discriminator 3
 2916 005e 059B     	 ldr r3,[sp,#20]
 2917              	.LVL461:
 2918 0060 029A     	 ldr r2,[sp,#8]
 2919 0062 9968     	 ldr r1,[r3,#8]
1688://MAC/Home/Downloads/getstarted-optiga-trust-m/optiga-trust-m-1/externals/mbedtls/library/bignum.c ****     {
 2920              	 .loc 1 1688 0 discriminator 3
 2921 0064 0136     	 add r6,r6,#1
 2922              	.LVL462:
1694://MAC/Home/Downloads/getstarted-optiga-trust-m/optiga-trust-m-1/externals/mbedtls/library/bignum.c **** 
 2923              	 .loc 1 1694 0 discriminator 3
 2924 0066 0B68     	 ldr r3,[r1]
 2925 0068 5343     	 mul r3,r2
 2926 006a 2A68     	 ldr r2,[r5]
 2927              	.LVL463:
 2928 006c 9B18     	 add r3,r3,r2
 2929 006e 079A     	 ldr r2,[sp,#28]
 2930 0070 5A43     	 mul r2,r3
1696://MAC/Home/Downloads/getstarted-optiga-trust-m/optiga-trust-m-1/externals/mbedtls/library/bignum.c ****         mpi_mul_hlp( n, N->p, d, u1 );
 2931              	 .loc 1 1696 0 discriminator 3
 2932 0072 029B     	 ldr r3,[sp,#8]
1694://MAC/Home/Downloads/getstarted-optiga-trust-m/optiga-trust-m-1/externals/mbedtls/library/bignum.c **** 
 2933              	 .loc 1 1694 0 discriminator 3
 2934 0074 0692     	 str r2,[sp,#24]
 2935              	.LVL464:
1696://MAC/Home/Downloads/getstarted-optiga-trust-m/optiga-trust-m-1/externals/mbedtls/library/bignum.c ****         mpi_mul_hlp( n, N->p, d, u1 );
 2936              	 .loc 1 1696 0 discriminator 3
 2937 0076 2A1C     	 mov r2,r5
 2938              	.LVL465:
 2939 0078 FFF7FEFF 	 bl mpi_mul_hlp
 2940              	.LVL466:
1697://MAC/Home/Downloads/getstarted-optiga-trust-m/optiga-trust-m-1/externals/mbedtls/library/bignum.c **** 
 2941              	 .loc 1 1697 0 discriminator 3
 2942 007c 2A1C     	 mov r2,r5
 2943 007e 069B     	 ldr r3,[sp,#24]
 2944 0080 0098     	 ldr r0,[sp]
 2945 0082 A168     	 ldr r1,[r4,#8]
 2946 0084 FFF7FEFF 	 bl mpi_mul_hlp
 2947              	.LVL467:
 2948              	 .loc 1 1699 0 discriminator 3
 2949 0088 0022     	 mov r2,#0
 2950 008a 029B     	 ldr r3,[sp,#8]
 2951 008c 2B60     	 str r3,[r5]
 2952 008e 039B     	 ldr r3,[sp,#12]
 2953 0090 EB18     	 add r3,r5,r3
 2954 0092 5A60     	 str r2,[r3,#4]
 2955 0094 0435     	 add r5,r5,#4
 2956              	.LVL468:
 2957 0096 DAE7     	 b .L210
 2958              	.LVL469:
 2959              	.L216:
 2960 0098 039B     	 ldr r3,[sp,#12]
1700://MAC/Home/Downloads/getstarted-optiga-trust-m/optiga-trust-m-1/externals/mbedtls/library/bignum.c ****     }
1701://MAC/Home/Downloads/getstarted-optiga-trust-m/optiga-trust-m-1/externals/mbedtls/library/bignum.c **** 
1702://MAC/Home/Downloads/getstarted-optiga-trust-m/optiga-trust-m-1/externals/mbedtls/library/bignum.c ****     memcpy( A->p, d, ( n + 1 ) * ciL );
 2961              	 .loc 1 1702 0
 2962 009a 039A     	 ldr r2,[sp,#12]
 2963 009c 191F     	 sub r1,r3,#4
 2964 009e 049B     	 ldr r3,[sp,#16]
 2965 00a0 5918     	 add r1,r3,r1
 2966 00a2 FFF7FEFF 	 bl memcpy
 2967              	.LVL470:
1703://MAC/Home/Downloads/getstarted-optiga-trust-m/optiga-trust-m-1/externals/mbedtls/library/bignum.c **** 
1704://MAC/Home/Downloads/getstarted-optiga-trust-m/optiga-trust-m-1/externals/mbedtls/library/bignum.c ****     if( mbedtls_mpi_cmp_abs( A, N ) >= 0 )
 2968              	 .loc 1 1704 0
 2969 00a6 381C     	 mov r0,r7
 2970 00a8 211C     	 mov r1,r4
 2971 00aa FFF7FEFF 	 bl mbedtls_mpi_cmp_abs
 2972              	.LVL471:
 2973 00ae 0028     	 cmp r0,#0
 2974 00b0 03DB     	 blt .L212
1705://MAC/Home/Downloads/getstarted-optiga-trust-m/optiga-trust-m-1/externals/mbedtls/library/bignum.c ****         mpi_sub_hlp( n, N->p, A->p );
 2975              	 .loc 1 1705 0
 2976 00b2 301C     	 mov r0,r6
 2977 00b4 A168     	 ldr r1,[r4,#8]
 2978 00b6 BA68     	 ldr r2,[r7,#8]
 2979 00b8 03E0     	 b .L215
 2980              	.L212:
1706://MAC/Home/Downloads/getstarted-optiga-trust-m/optiga-trust-m-1/externals/mbedtls/library/bignum.c ****     else
1707://MAC/Home/Downloads/getstarted-optiga-trust-m/optiga-trust-m-1/externals/mbedtls/library/bignum.c ****         /* prevent timing attacks */
1708://MAC/Home/Downloads/getstarted-optiga-trust-m/optiga-trust-m-1/externals/mbedtls/library/bignum.c ****         mpi_sub_hlp( n, A->p, T->p );
 2981              	 .loc 1 1708 0
 2982 00ba 301C     	 mov r0,r6
 2983 00bc 0E9B     	 ldr r3,[sp,#56]
 2984 00be B968     	 ldr r1,[r7,#8]
 2985 00c0 9A68     	 ldr r2,[r3,#8]
 2986              	.LVL472:
 2987              	.L215:
 2988 00c2 FFF7FEFF 	 bl mpi_sub_hlp
 2989              	.LVL473:
1709://MAC/Home/Downloads/getstarted-optiga-trust-m/optiga-trust-m-1/externals/mbedtls/library/bignum.c **** 
1710://MAC/Home/Downloads/getstarted-optiga-trust-m/optiga-trust-m-1/externals/mbedtls/library/bignum.c ****     return( 0 );
 2990              	 .loc 1 1710 0
 2991 00c6 0020     	 mov r0,#0
 2992 00c8 01E0     	 b .L208
 2993              	.LVL474:
 2994              	.L214:
1680://MAC/Home/Downloads/getstarted-optiga-trust-m/optiga-trust-m-1/externals/mbedtls/library/bignum.c **** 
 2995              	 .loc 1 1680 0
 2996 00ca 0420     	 mov r0,#4
 2997              	.LVL475:
 2998 00cc 4042     	 neg r0,r0
 2999              	.LVL476:
 3000              	.L208:
1711://MAC/Home/Downloads/getstarted-optiga-trust-m/optiga-trust-m-1/externals/mbedtls/library/bignum.c **** }
 3001              	 .loc 1 1711 0
 3002 00ce 09B0     	 add sp,sp,#36
 3003              	 
 3004 00d0 F0BD     	 pop {r4,r5,r6,r7,pc}
 3005              	 .cfi_endproc
 3006              	.LFE43:
 3008              	 .section .text.mbedtls_mpi_cmp_mpi,"ax",%progbits
 3009              	 .align 1
 3010              	 .global mbedtls_mpi_cmp_mpi
 3011              	 .code 16
 3012              	 .thumb_func
 3014              	mbedtls_mpi_cmp_mpi:
 3015              	.LFB25:
 925://MAC/Home/Downloads/getstarted-optiga-trust-m/optiga-trust-m-1/externals/mbedtls/library/bignum.c ****     size_t i, j;
 3016              	 .loc 1 925 0
 3017              	 .cfi_startproc
 3018              	.LVL477:
 3019 0000 70B5     	 push {r4,r5,r6,lr}
 3020              	.LCFI24:
 3021              	 .cfi_def_cfa_offset 16
 3022              	 .cfi_offset 4,-16
 3023              	 .cfi_offset 5,-12
 3024              	 .cfi_offset 6,-8
 3025              	 .cfi_offset 14,-4
 930://MAC/Home/Downloads/getstarted-optiga-trust-m/optiga-trust-m-1/externals/mbedtls/library/bignum.c ****         if( X->p[i - 1] != 0 )
 3026              	 .loc 1 930 0
 3027 0002 4368     	 ldr r3,[r0,#4]
 3028              	.LVL478:
 3029 0004 234A     	 ldr r2,.L238
 3030 0006 9A18     	 add r2,r3,r2
 3031 0008 9200     	 lsl r2,r2,#2
 3032              	.L218:
 930://MAC/Home/Downloads/getstarted-optiga-trust-m/optiga-trust-m-1/externals/mbedtls/library/bignum.c ****         if( X->p[i - 1] != 0 )
 3033              	 .loc 1 930 0 is_stmt 0 discriminator 1
 3034 000a 002B     	 cmp r3,#0
 3035 000c 06D0     	 beq .L219
 931://MAC/Home/Downloads/getstarted-optiga-trust-m/optiga-trust-m-1/externals/mbedtls/library/bignum.c ****             break;
 3036              	 .loc 1 931 0 is_stmt 1
 3037 000e 8468     	 ldr r4,[r0,#8]
 3038 0010 A458     	 ldr r4,[r4,r2]
 3039 0012 043A     	 sub r2,r2,#4
 3040 0014 002C     	 cmp r4,#0
 3041 0016 01D1     	 bne .L219
 930://MAC/Home/Downloads/getstarted-optiga-trust-m/optiga-trust-m-1/externals/mbedtls/library/bignum.c ****         if( X->p[i - 1] != 0 )
 3042              	 .loc 1 930 0 discriminator 2
 3043 0018 013B     	 sub r3,r3,#1
 3044              	.LVL479:
 3045 001a F6E7     	 b .L218
 3046              	.L219:
 934://MAC/Home/Downloads/getstarted-optiga-trust-m/optiga-trust-m-1/externals/mbedtls/library/bignum.c ****         if( Y->p[j - 1] != 0 )
 3047              	 .loc 1 934 0
 3048 001c 4C68     	 ldr r4,[r1,#4]
 3049              	.LVL480:
 3050 001e 1D4A     	 ldr r2,.L238
 3051 0020 A218     	 add r2,r4,r2
 3052 0022 9200     	 lsl r2,r2,#2
 3053              	.L221:
 934://MAC/Home/Downloads/getstarted-optiga-trust-m/optiga-trust-m-1/externals/mbedtls/library/bignum.c ****         if( Y->p[j - 1] != 0 )
 3054              	 .loc 1 934 0 is_stmt 0 discriminator 1
 3055 0024 002C     	 cmp r4,#0
 3056 0026 06D0     	 beq .L222
 935://MAC/Home/Downloads/getstarted-optiga-trust-m/optiga-trust-m-1/externals/mbedtls/library/bignum.c ****             break;
 3057              	 .loc 1 935 0 is_stmt 1
 3058 0028 8D68     	 ldr r5,[r1,#8]
 3059 002a AD58     	 ldr r5,[r5,r2]
 3060 002c 043A     	 sub r2,r2,#4
 3061 002e 002D     	 cmp r5,#0
 3062 0030 01D1     	 bne .L222
 934://MAC/Home/Downloads/getstarted-optiga-trust-m/optiga-trust-m-1/externals/mbedtls/library/bignum.c ****         if( Y->p[j - 1] != 0 )
 3063              	 .loc 1 934 0 discriminator 2
 3064 0032 013C     	 sub r4,r4,#1
 3065              	.LVL481:
 3066 0034 F6E7     	 b .L221
 3067              	.L222:
 938://MAC/Home/Downloads/getstarted-optiga-trust-m/optiga-trust-m-1/externals/mbedtls/library/bignum.c ****         return( 0 );
 3068              	 .loc 1 938 0
 3069 0036 251C     	 mov r5,r4
 939://MAC/Home/Downloads/getstarted-optiga-trust-m/optiga-trust-m-1/externals/mbedtls/library/bignum.c **** 
 3070              	 .loc 1 939 0
 3071 0038 0022     	 mov r2,#0
 938://MAC/Home/Downloads/getstarted-optiga-trust-m/optiga-trust-m-1/externals/mbedtls/library/bignum.c ****         return( 0 );
 3072              	 .loc 1 938 0
 3073 003a 1D43     	 orr r5,r3
 3074 003c 9542     	 cmp r5,r2
 3075 003e 27D0     	 beq .L224
 941://MAC/Home/Downloads/getstarted-optiga-trust-m/optiga-trust-m-1/externals/mbedtls/library/bignum.c ****     if( j > i ) return( -Y->s );
 3076              	 .loc 1 941 0
 3077 0040 A342     	 cmp r3,r4
 3078 0042 01D9     	 bls .L225
 941://MAC/Home/Downloads/getstarted-optiga-trust-m/optiga-trust-m-1/externals/mbedtls/library/bignum.c ****     if( j > i ) return( -Y->s );
 3079              	 .loc 1 941 0 is_stmt 0 discriminator 1
 3080 0044 0268     	 ldr r2,[r0]
 3081 0046 23E0     	 b .L224
 3082              	.L225:
 3083 0048 0D68     	 ldr r5,[r1]
 942://MAC/Home/Downloads/getstarted-optiga-trust-m/optiga-trust-m-1/externals/mbedtls/library/bignum.c **** 
 3084              	 .loc 1 942 0 is_stmt 1
 3085 004a 6A42     	 neg r2,r5
 3086 004c 9C42     	 cmp r4,r3
 3087 004e 1FD8     	 bhi .L224
 944://MAC/Home/Downloads/getstarted-optiga-trust-m/optiga-trust-m-1/externals/mbedtls/library/bignum.c ****     if( Y->s > 0 && X->s < 0 ) return( -1 );
 3088              	 .loc 1 944 0
 3089 0050 0268     	 ldr r2,[r0]
 3090 0052 002A     	 cmp r2,#0
 3091 0054 01DD     	 ble .L227
 944://MAC/Home/Downloads/getstarted-optiga-trust-m/optiga-trust-m-1/externals/mbedtls/library/bignum.c ****     if( Y->s > 0 && X->s < 0 ) return( -1 );
 3092              	 .loc 1 944 0 is_stmt 0 discriminator 1
 3093 0056 002D     	 cmp r5,#0
 3094 0058 17DB     	 blt .L234
 3095              	.L227:
 945://MAC/Home/Downloads/getstarted-optiga-trust-m/optiga-trust-m-1/externals/mbedtls/library/bignum.c **** 
 3096              	 .loc 1 945 0 is_stmt 1
 3097 005a 002D     	 cmp r5,#0
 3098 005c 03DC     	 bgt .L228
 3099              	.L230:
 3100 005e 0D4C     	 ldr r4,.L238
 3101              	.LVL482:
 3102 0060 1C19     	 add r4,r3,r4
 3103 0062 A400     	 lsl r4,r4,#2
 3104 0064 0DE0     	 b .L229
 3105              	.LVL483:
 3106              	.L228:
 945://MAC/Home/Downloads/getstarted-optiga-trust-m/optiga-trust-m-1/externals/mbedtls/library/bignum.c **** 
 3107              	 .loc 1 945 0 is_stmt 0 discriminator 1
 3108 0066 002A     	 cmp r2,#0
 3109 0068 F9DA     	 bge .L230
 945://MAC/Home/Downloads/getstarted-optiga-trust-m/optiga-trust-m-1/externals/mbedtls/library/bignum.c **** 
 3110              	 .loc 1 945 0
 3111 006a 0122     	 mov r2,#1
 3112 006c 0FE0     	 b .L237
 3113              	.LVL484:
 3114              	.L232:
 949://MAC/Home/Downloads/getstarted-optiga-trust-m/optiga-trust-m-1/externals/mbedtls/library/bignum.c ****         if( X->p[i - 1] < Y->p[i - 1] ) return( -X->s );
 3115              	 .loc 1 949 0 is_stmt 1
 3116 006e 8568     	 ldr r5,[r0,#8]
 3117 0070 2E59     	 ldr r6,[r5,r4]
 3118 0072 8D68     	 ldr r5,[r1,#8]
 3119 0074 2D59     	 ldr r5,[r5,r4]
 3120 0076 AE42     	 cmp r6,r5
 3121 0078 0AD8     	 bhi .L224
 3122 007a 043C     	 sub r4,r4,#4
 950://MAC/Home/Downloads/getstarted-optiga-trust-m/optiga-trust-m-1/externals/mbedtls/library/bignum.c ****     }
 3123              	 .loc 1 950 0
 3124 007c AE42     	 cmp r6,r5
 3125 007e 06D3     	 bcc .L237
 947://MAC/Home/Downloads/getstarted-optiga-trust-m/optiga-trust-m-1/externals/mbedtls/library/bignum.c ****     {
 3126              	 .loc 1 947 0
 3127 0080 013B     	 sub r3,r3,#1
 3128              	.LVL485:
 3129              	.L229:
 947://MAC/Home/Downloads/getstarted-optiga-trust-m/optiga-trust-m-1/externals/mbedtls/library/bignum.c ****     {
 3130              	 .loc 1 947 0 is_stmt 0 discriminator 1
 3131 0082 002B     	 cmp r3,#0
 3132 0084 F3D1     	 bne .L232
 939://MAC/Home/Downloads/getstarted-optiga-trust-m/optiga-trust-m-1/externals/mbedtls/library/bignum.c **** 
 3133              	 .loc 1 939 0 is_stmt 1
 3134 0086 1A1C     	 mov r2,r3
 3135 0088 02E0     	 b .L224
 3136              	.LVL486:
 3137              	.L234:
 944://MAC/Home/Downloads/getstarted-optiga-trust-m/optiga-trust-m-1/externals/mbedtls/library/bignum.c ****     if( Y->s > 0 && X->s < 0 ) return( -1 );
 3138              	 .loc 1 944 0
 3139 008a 0122     	 mov r2,#1
 3140 008c 00E0     	 b .L224
 3141              	.LVL487:
 3142              	.L237:
 945://MAC/Home/Downloads/getstarted-optiga-trust-m/optiga-trust-m-1/externals/mbedtls/library/bignum.c **** 
 3143              	 .loc 1 945 0
 3144 008e 5242     	 neg r2,r2
 3145              	.L224:
 954://MAC/Home/Downloads/getstarted-optiga-trust-m/optiga-trust-m-1/externals/mbedtls/library/bignum.c **** 
 3146              	 .loc 1 954 0
 3147 0090 101C     	 mov r0,r2
 3148              	.LVL488:
 3149              	 
 3150 0092 70BD     	 pop {r4,r5,r6,pc}
 3151              	.L239:
 3152              	 .align 2
 3153              	.L238:
 3154 0094 FFFFFF3F 	 .word 1073741823
 3155              	 .cfi_endproc
 3156              	.LFE25:
 3158              	 .section .text.mbedtls_mpi_cmp_int,"ax",%progbits
 3159              	 .align 1
 3160              	 .global mbedtls_mpi_cmp_int
 3161              	 .code 16
 3162              	 .thumb_func
 3164              	mbedtls_mpi_cmp_int:
 3165              	.LFB26:
 960://MAC/Home/Downloads/getstarted-optiga-trust-m/optiga-trust-m-1/externals/mbedtls/library/bignum.c ****     mbedtls_mpi Y;
 3166              	 .loc 1 960 0
 3167              	 .cfi_startproc
 3168              	.LVL489:
 3169 0000 1FB5     	 push {r0,r1,r2,r3,r4,lr}
 3170              	.LCFI25:
 3171              	 .cfi_def_cfa_offset 24
 3172              	 .cfi_offset 0,-24
 3173              	 .cfi_offset 1,-20
 3174              	 .cfi_offset 2,-16
 3175              	 .cfi_offset 3,-12
 3176              	 .cfi_offset 4,-8
 3177              	 .cfi_offset 14,-4
 965://MAC/Home/Downloads/getstarted-optiga-trust-m/optiga-trust-m-1/externals/mbedtls/library/bignum.c ****     Y.s = ( z < 0 ) ? -1 : 1;
 3178              	 .loc 1 965 0
 3179 0002 CA17     	 asr r2,r1,#31
 3180 0004 8B18     	 add r3,r1,r2
 3181 0006 5340     	 eor r3,r2
 3182 0008 0093     	 str r3,[sp]
 3183 000a 0123     	 mov r3,#1
 966://MAC/Home/Downloads/getstarted-optiga-trust-m/optiga-trust-m-1/externals/mbedtls/library/bignum.c ****     Y.n = 1;
 3184              	 .loc 1 966 0
 3185 000c C917     	 asr r1,r1,#31
 3186              	.LVL490:
 3187 000e 1943     	 orr r1,r3
 967://MAC/Home/Downloads/getstarted-optiga-trust-m/optiga-trust-m-1/externals/mbedtls/library/bignum.c ****     Y.p = p;
 3188              	 .loc 1 967 0
 3189 0010 0293     	 str r3,[sp,#8]
 968://MAC/Home/Downloads/getstarted-optiga-trust-m/optiga-trust-m-1/externals/mbedtls/library/bignum.c **** 
 3190              	 .loc 1 968 0
 3191 0012 6B46     	 mov r3,sp
 966://MAC/Home/Downloads/getstarted-optiga-trust-m/optiga-trust-m-1/externals/mbedtls/library/bignum.c ****     Y.n = 1;
 3192              	 .loc 1 966 0
 3193 0014 0191     	 str r1,[sp,#4]
 970://MAC/Home/Downloads/getstarted-optiga-trust-m/optiga-trust-m-1/externals/mbedtls/library/bignum.c **** }
 3194              	 .loc 1 970 0
 3195 0016 01A9     	 add r1,sp,#4
 968://MAC/Home/Downloads/getstarted-optiga-trust-m/optiga-trust-m-1/externals/mbedtls/library/bignum.c **** 
 3196              	 .loc 1 968 0
 3197 0018 0393     	 str r3,[sp,#12]
 970://MAC/Home/Downloads/getstarted-optiga-trust-m/optiga-trust-m-1/externals/mbedtls/library/bignum.c **** }
 3198              	 .loc 1 970 0
 3199 001a FFF7FEFF 	 bl mbedtls_mpi_cmp_mpi
 3200              	.LVL491:
 971://MAC/Home/Downloads/getstarted-optiga-trust-m/optiga-trust-m-1/externals/mbedtls/library/bignum.c **** 
 3201              	 .loc 1 971 0
 3202 001e 05B0     	 add sp,sp,#20
 3203              	 
 3204 0020 00BD     	 pop {pc}
 3205              	 .cfi_endproc
 3206              	.LFE26:
 3208              	 .section .text.mbedtls_mpi_add_abs,"ax",%progbits
 3209              	 .align 1
 3210              	 .global mbedtls_mpi_add_abs
 3211              	 .code 16
 3212              	 .thumb_func
 3214              	mbedtls_mpi_add_abs:
 3215              	.LFB27:
 977://MAC/Home/Downloads/getstarted-optiga-trust-m/optiga-trust-m-1/externals/mbedtls/library/bignum.c ****     int ret;
 3216              	 .loc 1 977 0
 3217              	 .cfi_startproc
 3218              	.LVL492:
 3219 0000 F7B5     	 push {r0,r1,r2,r4,r5,r6,r7,lr}
 3220              	.LCFI26:
 3221              	 .cfi_def_cfa_offset 32
 3222              	 .cfi_offset 0,-32
 3223              	 .cfi_offset 1,-28
 3224              	 .cfi_offset 2,-24
 3225              	 .cfi_offset 4,-20
 3226              	 .cfi_offset 5,-16
 3227              	 .cfi_offset 6,-12
 3228              	 .cfi_offset 7,-8
 3229              	 .cfi_offset 14,-4
 977://MAC/Home/Downloads/getstarted-optiga-trust-m/optiga-trust-m-1/externals/mbedtls/library/bignum.c ****     int ret;
 3230              	 .loc 1 977 0
 3231 0002 051C     	 mov r5,r0
 3232 0004 141C     	 mov r4,r2
 985://MAC/Home/Downloads/getstarted-optiga-trust-m/optiga-trust-m-1/externals/mbedtls/library/bignum.c ****     {
 3233              	 .loc 1 985 0
 3234 0006 9042     	 cmp r0,r2
 3235 0008 07D0     	 beq .L256
 990://MAC/Home/Downloads/getstarted-optiga-trust-m/optiga-trust-m-1/externals/mbedtls/library/bignum.c ****         MBEDTLS_MPI_CHK( mbedtls_mpi_copy( X, A ) );
 3236              	 .loc 1 990 0
 3237 000a 8842     	 cmp r0,r1
 3238 000c 06D0     	 beq .L244
 991://MAC/Home/Downloads/getstarted-optiga-trust-m/optiga-trust-m-1/externals/mbedtls/library/bignum.c **** 
 3239              	 .loc 1 991 0
 3240 000e FFF7FEFF 	 bl mbedtls_mpi_copy
 3241              	.LVL493:
 3242 0012 0090     	 str r0,[sp]
 3243              	.LVL494:
 3244 0014 0028     	 cmp r0,#0
 3245 0016 01D0     	 beq .L244
 3246 0018 4BE0     	 b .L246
 3247              	.LVL495:
 3248              	.L256:
 3249 001a 0C1C     	 mov r4,r1
 3250              	.LVL496:
 3251              	.L244:
 996://MAC/Home/Downloads/getstarted-optiga-trust-m/optiga-trust-m-1/externals/mbedtls/library/bignum.c **** 
 3252              	 .loc 1 996 0
 3253 001c 0123     	 mov r3,#1
 998://MAC/Home/Downloads/getstarted-optiga-trust-m/optiga-trust-m-1/externals/mbedtls/library/bignum.c ****         if( B->p[j - 1] != 0 )
 3254              	 .loc 1 998 0
 3255 001e 6768     	 ldr r7,[r4,#4]
 3256              	.LVL497:
 996://MAC/Home/Downloads/getstarted-optiga-trust-m/optiga-trust-m-1/externals/mbedtls/library/bignum.c **** 
 3257              	 .loc 1 996 0
 3258 0020 2B60     	 str r3,[r5]
 3259 0022 254B     	 ldr r3,.L259
 3260 0024 FB18     	 add r3,r7,r3
 3261 0026 9B00     	 lsl r3,r3,#2
 3262              	.L248:
 998://MAC/Home/Downloads/getstarted-optiga-trust-m/optiga-trust-m-1/externals/mbedtls/library/bignum.c ****         if( B->p[j - 1] != 0 )
 3263              	 .loc 1 998 0 discriminator 1
 3264 0028 002F     	 cmp r7,#0
 3265 002a 06D0     	 beq .L249
 999://MAC/Home/Downloads/getstarted-optiga-trust-m/optiga-trust-m-1/externals/mbedtls/library/bignum.c ****             break;
 3266              	 .loc 1 999 0
 3267 002c A268     	 ldr r2,[r4,#8]
 3268 002e D258     	 ldr r2,[r2,r3]
 3269 0030 043B     	 sub r3,r3,#4
 3270 0032 002A     	 cmp r2,#0
 3271 0034 01D1     	 bne .L249
 998://MAC/Home/Downloads/getstarted-optiga-trust-m/optiga-trust-m-1/externals/mbedtls/library/bignum.c ****         if( B->p[j - 1] != 0 )
 3272              	 .loc 1 998 0 discriminator 2
 3273 0036 013F     	 sub r7,r7,#1
 3274              	.LVL498:
 3275 0038 F6E7     	 b .L248
 3276              	.L249:
1002://MAC/Home/Downloads/getstarted-optiga-trust-m/optiga-trust-m-1/externals/mbedtls/library/bignum.c **** 
 3277              	 .loc 1 1002 0
 3278 003a 281C     	 mov r0,r5
 3279 003c 391C     	 mov r1,r7
 3280 003e FFF7FEFF 	 bl mbedtls_mpi_grow
 3281              	.LVL499:
 3282 0042 0090     	 str r0,[sp]
 3283              	.LVL500:
 3284 0044 0028     	 cmp r0,#0
 3285 0046 34D1     	 bne .L246
1004://MAC/Home/Downloads/getstarted-optiga-trust-m/optiga-trust-m-1/externals/mbedtls/library/bignum.c **** 
 3286              	 .loc 1 1004 0
 3287 0048 A368     	 ldr r3,[r4,#8]
 3288 004a AA68     	 ldr r2,[r5,#8]
 3289 004c 009C     	 ldr r4,[sp]
 3290 004e 9C46     	 mov ip,r3
 3291              	.LVL501:
 3292 0050 101C     	 mov r0,r2
 3293              	.LVL502:
1009://MAC/Home/Downloads/getstarted-optiga-trust-m/optiga-trust-m-1/externals/mbedtls/library/bignum.c ****     {
 3294              	 .loc 1 1009 0
 3295 0052 211C     	 mov r1,r4
 3296              	.LVL503:
 3297              	.L251:
1009://MAC/Home/Downloads/getstarted-optiga-trust-m/optiga-trust-m-1/externals/mbedtls/library/bignum.c ****     {
 3298              	 .loc 1 1009 0 is_stmt 0 discriminator 1
 3299 0054 B942     	 cmp r1,r7
 3300 0056 11D0     	 beq .L258
1011://MAC/Home/Downloads/getstarted-optiga-trust-m/optiga-trust-m-1/externals/mbedtls/library/bignum.c ****         *p +=  c; c  = ( *p <  c );
 3301              	 .loc 1 1011 0 is_stmt 1 discriminator 3
 3302 0058 6646     	 mov r6,ip
 3303 005a 8B00     	 lsl r3,r1,#2
 3304 005c F658     	 ldr r6,[r6,r3]
 3305              	.LVL504:
1012://MAC/Home/Downloads/getstarted-optiga-trust-m/optiga-trust-m-1/externals/mbedtls/library/bignum.c ****         *p += tmp; c += ( *p < tmp );
 3306              	 .loc 1 1012 0 discriminator 3
 3307 005e 0368     	 ldr r3,[r0]
1009://MAC/Home/Downloads/getstarted-optiga-trust-m/optiga-trust-m-1/externals/mbedtls/library/bignum.c ****     {
 3308              	 .loc 1 1009 0 discriminator 3
 3309 0060 0131     	 add r1,r1,#1
 3310              	.LVL505:
1012://MAC/Home/Downloads/getstarted-optiga-trust-m/optiga-trust-m-1/externals/mbedtls/library/bignum.c ****         *p += tmp; c += ( *p < tmp );
 3311              	 .loc 1 1012 0 discriminator 3
 3312 0062 E318     	 add r3,r4,r3
 3313 0064 A342     	 cmp r3,r4
 3314 0066 A441     	 sbc r4,r4,r4
 3315              	.LVL506:
1013://MAC/Home/Downloads/getstarted-optiga-trust-m/optiga-trust-m-1/externals/mbedtls/library/bignum.c ****     }
 3316              	 .loc 1 1013 0 discriminator 3
 3317 0068 9B19     	 add r3,r3,r6
 3318 006a 08C0     	 stmia r0!,{r3}
 3319              	.LVL507:
 3320 006c B342     	 cmp r3,r6
 3321 006e 9B41     	 sbc r3,r3,r3
1012://MAC/Home/Downloads/getstarted-optiga-trust-m/optiga-trust-m-1/externals/mbedtls/library/bignum.c ****         *p += tmp; c += ( *p < tmp );
 3322              	 .loc 1 1012 0 discriminator 3
 3323 0070 6442     	 neg r4,r4
 3324 0072 0194     	 str r4,[sp,#4]
 3325              	.LVL508:
1013://MAC/Home/Downloads/getstarted-optiga-trust-m/optiga-trust-m-1/externals/mbedtls/library/bignum.c ****     }
 3326              	 .loc 1 1013 0 discriminator 3
 3327 0074 5C42     	 neg r4,r3
 3328              	.LVL509:
 3329 0076 019B     	 ldr r3,[sp,#4]
 3330 0078 E418     	 add r4,r4,r3
 3331              	.LVL510:
 3332 007a EBE7     	 b .L251
 3333              	.LVL511:
 3334              	.L258:
 3335 007c BE00     	 lsl r6,r7,#2
 3336 007e 9219     	 add r2,r2,r6
 3337              	.LVL512:
 3338              	.L253:
1016://MAC/Home/Downloads/getstarted-optiga-trust-m/optiga-trust-m-1/externals/mbedtls/library/bignum.c ****     {
 3339              	 .loc 1 1016 0
 3340 0080 002C     	 cmp r4,#0
 3341 0082 16D0     	 beq .L246
 3342 0084 7B1C     	 add r3,r7,#1
 3343 0086 0193     	 str r3,[sp,#4]
1018://MAC/Home/Downloads/getstarted-optiga-trust-m/optiga-trust-m-1/externals/mbedtls/library/bignum.c ****         {
 3344              	 .loc 1 1018 0
 3345 0088 6B68     	 ldr r3,[r5,#4]
 3346 008a 9F42     	 cmp r7,r3
 3347 008c 07D3     	 bcc .L254
1020://MAC/Home/Downloads/getstarted-optiga-trust-m/optiga-trust-m-1/externals/mbedtls/library/bignum.c ****             p = X->p + i;
 3348              	 .loc 1 1020 0
 3349 008e 281C     	 mov r0,r5
 3350 0090 0199     	 ldr r1,[sp,#4]
 3351 0092 FFF7FEFF 	 bl mbedtls_mpi_grow
 3352              	.LVL513:
 3353 0096 0028     	 cmp r0,#0
 3354 0098 0AD1     	 bne .L257
1021://MAC/Home/Downloads/getstarted-optiga-trust-m/optiga-trust-m-1/externals/mbedtls/library/bignum.c ****         }
 3355              	 .loc 1 1021 0
 3356 009a AB68     	 ldr r3,[r5,#8]
 3357 009c 9A19     	 add r2,r3,r6
 3358              	.LVL514:
 3359              	.L254:
1024://MAC/Home/Downloads/getstarted-optiga-trust-m/optiga-trust-m-1/externals/mbedtls/library/bignum.c ****     }
 3360              	 .loc 1 1024 0
 3361 009e 1368     	 ldr r3,[r2]
 3362 00a0 019F     	 ldr r7,[sp,#4]
 3363              	.LVL515:
 3364 00a2 E318     	 add r3,r4,r3
 3365 00a4 A342     	 cmp r3,r4
 3366 00a6 A441     	 sbc r4,r4,r4
 3367              	.LVL516:
 3368 00a8 08C2     	 stmia r2!,{r3}
 3369              	.LVL517:
 3370 00aa 6442     	 neg r4,r4
 3371              	.LVL518:
 3372 00ac 0436     	 add r6,r6,#4
 3373 00ae E7E7     	 b .L253
 3374              	.LVL519:
 3375              	.L257:
 3376 00b0 0090     	 str r0,[sp]
 3377              	.LVL520:
 3378              	.L246:
1030://MAC/Home/Downloads/getstarted-optiga-trust-m/optiga-trust-m-1/externals/mbedtls/library/bignum.c **** 
 3379              	 .loc 1 1030 0
 3380 00b2 0098     	 ldr r0,[sp]
 3381              	 
 3382              	.LVL521:
 3383 00b4 FEBD     	 pop {r1,r2,r3,r4,r5,r6,r7,pc}
 3384              	.L260:
 3385 00b6 C046     	 .align 2
 3386              	.L259:
 3387 00b8 FFFFFF3F 	 .word 1073741823
 3388              	 .cfi_endproc
 3389              	.LFE27:
 3391              	 .section .text.mbedtls_mpi_sub_abs,"ax",%progbits
 3392              	 .align 1
 3393              	 .global mbedtls_mpi_sub_abs
 3394              	 .code 16
 3395              	 .thumb_func
 3397              	mbedtls_mpi_sub_abs:
 3398              	.LFB29:
1057://MAC/Home/Downloads/getstarted-optiga-trust-m/optiga-trust-m-1/externals/mbedtls/library/bignum.c ****     mbedtls_mpi TB;
 3399              	 .loc 1 1057 0
 3400              	 .cfi_startproc
 3401              	.LVL522:
 3402 0000 F0B5     	 push {r4,r5,r6,r7,lr}
 3403              	.LCFI27:
 3404              	 .cfi_def_cfa_offset 20
 3405              	 .cfi_offset 4,-20
 3406              	 .cfi_offset 5,-16
 3407              	 .cfi_offset 6,-12
 3408              	 .cfi_offset 7,-8
 3409              	 .cfi_offset 14,-4
 3410 0002 051C     	 mov r5,r0
 3411 0004 85B0     	 sub sp,sp,#20
 3412              	.LCFI28:
 3413              	 .cfi_def_cfa_offset 40
1057://MAC/Home/Downloads/getstarted-optiga-trust-m/optiga-trust-m-1/externals/mbedtls/library/bignum.c ****     mbedtls_mpi TB;
 3414              	 .loc 1 1057 0
 3415 0006 0F1C     	 mov r7,r1
1065://MAC/Home/Downloads/getstarted-optiga-trust-m/optiga-trust-m-1/externals/mbedtls/library/bignum.c ****         return( MBEDTLS_ERR_MPI_NEGATIVE_VALUE );
 3416              	 .loc 1 1065 0
 3417 0008 081C     	 mov r0,r1
 3418              	.LVL523:
 3419 000a 111C     	 mov r1,r2
 3420              	.LVL524:
1057://MAC/Home/Downloads/getstarted-optiga-trust-m/optiga-trust-m-1/externals/mbedtls/library/bignum.c ****     mbedtls_mpi TB;
 3421              	 .loc 1 1057 0
 3422 000c 161C     	 mov r6,r2
1065://MAC/Home/Downloads/getstarted-optiga-trust-m/optiga-trust-m-1/externals/mbedtls/library/bignum.c ****         return( MBEDTLS_ERR_MPI_NEGATIVE_VALUE );
 3423              	 .loc 1 1065 0
 3424 000e FFF7FEFF 	 bl mbedtls_mpi_cmp_abs
 3425              	.LVL525:
 3426 0012 0028     	 cmp r0,#0
 3427 0014 2FDB     	 blt .L270
 3428              	.LVL526:
 3429              	.LBB83:
 3430              	.LBB84:
  93://MAC/Home/Downloads/getstarted-optiga-trust-m/optiga-trust-m-1/externals/mbedtls/library/bignum.c ****     X->n = 0;
 3431              	 .loc 1 93 0
 3432 0016 0123     	 mov r3,#1
 3433 0018 0193     	 str r3,[sp,#4]
  94://MAC/Home/Downloads/getstarted-optiga-trust-m/optiga-trust-m-1/externals/mbedtls/library/bignum.c ****     X->p = NULL;
 3434              	 .loc 1 94 0
 3435 001a 0023     	 mov r3,#0
 3436 001c 0293     	 str r3,[sp,#8]
  95://MAC/Home/Downloads/getstarted-optiga-trust-m/optiga-trust-m-1/externals/mbedtls/library/bignum.c **** }
 3437              	 .loc 1 95 0
 3438 001e 0393     	 str r3,[sp,#12]
 3439              	.LBE84:
 3440              	.LBE83:
1070://MAC/Home/Downloads/getstarted-optiga-trust-m/optiga-trust-m-1/externals/mbedtls/library/bignum.c ****     {
 3441              	 .loc 1 1070 0
 3442 0020 B542     	 cmp r5,r6
 3443 0022 06D1     	 bne .L263
1072://MAC/Home/Downloads/getstarted-optiga-trust-m/optiga-trust-m-1/externals/mbedtls/library/bignum.c ****         B = &TB;
 3444              	 .loc 1 1072 0
 3445 0024 01A8     	 add r0,sp,#4
 3446              	.LVL527:
 3447 0026 291C     	 mov r1,r5
 3448 0028 FFF7FEFF 	 bl mbedtls_mpi_copy
 3449              	.LVL528:
 3450 002c 041E     	 sub r4,r0,#0
 3451              	.LVL529:
 3452 002e 1DD1     	 bne .L264
1073://MAC/Home/Downloads/getstarted-optiga-trust-m/optiga-trust-m-1/externals/mbedtls/library/bignum.c ****     }
 3453              	 .loc 1 1073 0
 3454 0030 01AE     	 add r6,sp,#4
 3455              	.LVL530:
 3456              	.L263:
1076://MAC/Home/Downloads/getstarted-optiga-trust-m/optiga-trust-m-1/externals/mbedtls/library/bignum.c ****         MBEDTLS_MPI_CHK( mbedtls_mpi_copy( X, A ) );
 3457              	 .loc 1 1076 0
 3458 0032 BD42     	 cmp r5,r7
 3459 0034 06D1     	 bne .L265
 3460              	.L267:
1082://MAC/Home/Downloads/getstarted-optiga-trust-m/optiga-trust-m-1/externals/mbedtls/library/bignum.c **** 
 3461              	 .loc 1 1082 0
 3462 0036 0123     	 mov r3,#1
1086://MAC/Home/Downloads/getstarted-optiga-trust-m/optiga-trust-m-1/externals/mbedtls/library/bignum.c ****         if( B->p[n - 1] != 0 )
 3463              	 .loc 1 1086 0
 3464 0038 7068     	 ldr r0,[r6,#4]
1082://MAC/Home/Downloads/getstarted-optiga-trust-m/optiga-trust-m-1/externals/mbedtls/library/bignum.c **** 
 3465              	 .loc 1 1082 0
 3466 003a 2B60     	 str r3,[r5]
 3467              	.LVL531:
 3468 003c 104B     	 ldr r3,.L271
 3469 003e C318     	 add r3,r0,r3
 3470 0040 9B00     	 lsl r3,r3,#2
1086://MAC/Home/Downloads/getstarted-optiga-trust-m/optiga-trust-m-1/externals/mbedtls/library/bignum.c ****         if( B->p[n - 1] != 0 )
 3471              	 .loc 1 1086 0
 3472 0042 0CE0     	 b .L266
 3473              	.LVL532:
 3474              	.L265:
1077://MAC/Home/Downloads/getstarted-optiga-trust-m/optiga-trust-m-1/externals/mbedtls/library/bignum.c **** 
 3475              	 .loc 1 1077 0
 3476 0044 281C     	 mov r0,r5
 3477 0046 391C     	 mov r1,r7
 3478 0048 FFF7FEFF 	 bl mbedtls_mpi_copy
 3479              	.LVL533:
 3480 004c 041E     	 sub r4,r0,#0
 3481              	.LVL534:
 3482 004e 0DD1     	 bne .L264
 3483 0050 F1E7     	 b .L267
 3484              	.LVL535:
 3485              	.L269:
1087://MAC/Home/Downloads/getstarted-optiga-trust-m/optiga-trust-m-1/externals/mbedtls/library/bignum.c ****             break;
 3486              	 .loc 1 1087 0
 3487 0052 B268     	 ldr r2,[r6,#8]
 3488 0054 D258     	 ldr r2,[r2,r3]
 3489 0056 043B     	 sub r3,r3,#4
 3490 0058 002A     	 cmp r2,#0
 3491 005a 02D1     	 bne .L268
1086://MAC/Home/Downloads/getstarted-optiga-trust-m/optiga-trust-m-1/externals/mbedtls/library/bignum.c ****         if( B->p[n - 1] != 0 )
 3492              	 .loc 1 1086 0 discriminator 2
 3493 005c 0138     	 sub r0,r0,#1
 3494              	.LVL536:
 3495              	.L266:
1086://MAC/Home/Downloads/getstarted-optiga-trust-m/optiga-trust-m-1/externals/mbedtls/library/bignum.c ****         if( B->p[n - 1] != 0 )
 3496              	 .loc 1 1086 0 is_stmt 0 discriminator 1
 3497 005e 0028     	 cmp r0,#0
 3498 0060 F7D1     	 bne .L269
 3499              	.L268:
1090://MAC/Home/Downloads/getstarted-optiga-trust-m/optiga-trust-m-1/externals/mbedtls/library/bignum.c **** 
 3500              	 .loc 1 1090 0 is_stmt 1
 3501 0062 B168     	 ldr r1,[r6,#8]
 3502 0064 AA68     	 ldr r2,[r5,#8]
 3503 0066 FFF7FEFF 	 bl mpi_sub_hlp
 3504              	.LVL537:
1084://MAC/Home/Downloads/getstarted-optiga-trust-m/optiga-trust-m-1/externals/mbedtls/library/bignum.c **** 
 3505              	 .loc 1 1084 0
 3506 006a 0024     	 mov r4,#0
 3507              	.LVL538:
 3508              	.L264:
1094://MAC/Home/Downloads/getstarted-optiga-trust-m/optiga-trust-m-1/externals/mbedtls/library/bignum.c **** 
 3509              	 .loc 1 1094 0
 3510 006c 01A8     	 add r0,sp,#4
 3511              	.LVL539:
 3512 006e FFF7FEFF 	 bl mbedtls_mpi_free
 3513              	.LVL540:
1096://MAC/Home/Downloads/getstarted-optiga-trust-m/optiga-trust-m-1/externals/mbedtls/library/bignum.c **** }
 3514              	 .loc 1 1096 0
 3515 0072 201C     	 mov r0,r4
 3516 0074 01E0     	 b .L262
 3517              	.LVL541:
 3518              	.L270:
1066://MAC/Home/Downloads/getstarted-optiga-trust-m/optiga-trust-m-1/externals/mbedtls/library/bignum.c **** 
 3519              	 .loc 1 1066 0
 3520 0076 0A20     	 mov r0,#10
 3521 0078 4042     	 neg r0,r0
 3522              	.L262:
1097://MAC/Home/Downloads/getstarted-optiga-trust-m/optiga-trust-m-1/externals/mbedtls/library/bignum.c **** 
 3523              	 .loc 1 1097 0
 3524 007a 05B0     	 add sp,sp,#20
 3525              	 
 3526              	.LVL542:
 3527              	.LVL543:
 3528              	.LVL544:
 3529 007c F0BD     	 pop {r4,r5,r6,r7,pc}
 3530              	.L272:
 3531 007e C046     	 .align 2
 3532              	.L271:
 3533 0080 FFFFFF3F 	 .word 1073741823
 3534              	 .cfi_endproc
 3535              	.LFE29:
 3537              	 .section .text.mbedtls_mpi_add_mpi,"ax",%progbits
 3538              	 .align 1
 3539              	 .global mbedtls_mpi_add_mpi
 3540              	 .code 16
 3541              	 .thumb_func
 3543              	mbedtls_mpi_add_mpi:
 3544              	.LFB30:
1103://MAC/Home/Downloads/getstarted-optiga-trust-m/optiga-trust-m-1/externals/mbedtls/library/bignum.c ****     int ret, s;
 3545              	 .loc 1 1103 0
 3546              	 .cfi_startproc
 3547              	.LVL545:
 3548 0000 F8B5     	 push {r3,r4,r5,r6,r7,lr}
 3549              	.LCFI29:
 3550              	 .cfi_def_cfa_offset 24
 3551              	 .cfi_offset 3,-24
 3552              	 .cfi_offset 4,-20
 3553              	 .cfi_offset 5,-16
 3554              	 .cfi_offset 6,-12
 3555              	 .cfi_offset 7,-8
 3556              	 .cfi_offset 14,-4
1109://MAC/Home/Downloads/getstarted-optiga-trust-m/optiga-trust-m-1/externals/mbedtls/library/bignum.c ****     if( A->s * B->s < 0 )
 3557              	 .loc 1 1109 0
 3558 0002 0D68     	 ldr r5,[r1]
 3559              	.LVL546:
1110://MAC/Home/Downloads/getstarted-optiga-trust-m/optiga-trust-m-1/externals/mbedtls/library/bignum.c ****     {
 3560              	 .loc 1 1110 0
 3561 0004 1368     	 ldr r3,[r2]
1103://MAC/Home/Downloads/getstarted-optiga-trust-m/optiga-trust-m-1/externals/mbedtls/library/bignum.c ****     int ret, s;
 3562              	 .loc 1 1103 0
 3563 0006 041C     	 mov r4,r0
1110://MAC/Home/Downloads/getstarted-optiga-trust-m/optiga-trust-m-1/externals/mbedtls/library/bignum.c ****     {
 3564              	 .loc 1 1110 0
 3565 0008 6B43     	 mul r3,r5
1103://MAC/Home/Downloads/getstarted-optiga-trust-m/optiga-trust-m-1/externals/mbedtls/library/bignum.c ****     int ret, s;
 3566              	 .loc 1 1103 0
 3567 000a 0F1C     	 mov r7,r1
 3568 000c 161C     	 mov r6,r2
1110://MAC/Home/Downloads/getstarted-optiga-trust-m/optiga-trust-m-1/externals/mbedtls/library/bignum.c ****     {
 3569              	 .loc 1 1110 0
 3570 000e 002B     	 cmp r3,#0
 3571 0010 14DA     	 bge .L274
1112://MAC/Home/Downloads/getstarted-optiga-trust-m/optiga-trust-m-1/externals/mbedtls/library/bignum.c ****         {
 3572              	 .loc 1 1112 0
 3573 0012 081C     	 mov r0,r1
 3574              	.LVL547:
 3575 0014 111C     	 mov r1,r2
 3576              	.LVL548:
 3577 0016 FFF7FEFF 	 bl mbedtls_mpi_cmp_abs
 3578              	.LVL549:
 3579 001a 0028     	 cmp r0,#0
 3580 001c 05DB     	 blt .L275
1114://MAC/Home/Downloads/getstarted-optiga-trust-m/optiga-trust-m-1/externals/mbedtls/library/bignum.c ****             X->s =  s;
 3581              	 .loc 1 1114 0
 3582 001e 201C     	 mov r0,r4
 3583 0020 391C     	 mov r1,r7
 3584 0022 321C     	 mov r2,r6
 3585 0024 FFF7FEFF 	 bl mbedtls_mpi_sub_abs
 3586              	.LVL550:
 3587 0028 0AE0     	 b .L278
 3588              	.LVL551:
 3589              	.L275:
1119://MAC/Home/Downloads/getstarted-optiga-trust-m/optiga-trust-m-1/externals/mbedtls/library/bignum.c ****             X->s = -s;
 3590              	 .loc 1 1119 0
 3591 002a 201C     	 mov r0,r4
 3592 002c 311C     	 mov r1,r6
 3593 002e 3A1C     	 mov r2,r7
 3594 0030 FFF7FEFF 	 bl mbedtls_mpi_sub_abs
 3595              	.LVL552:
1120://MAC/Home/Downloads/getstarted-optiga-trust-m/optiga-trust-m-1/externals/mbedtls/library/bignum.c ****         }
 3596              	 .loc 1 1120 0
 3597 0034 6D42     	 neg r5,r5
 3598              	.LVL553:
1119://MAC/Home/Downloads/getstarted-optiga-trust-m/optiga-trust-m-1/externals/mbedtls/library/bignum.c ****             X->s = -s;
 3599              	 .loc 1 1119 0
 3600 0036 0028     	 cmp r0,#0
 3601 0038 04D0     	 beq .L277
 3602 003a 04E0     	 b .L276
 3603              	.LVL554:
 3604              	.L274:
1125://MAC/Home/Downloads/getstarted-optiga-trust-m/optiga-trust-m-1/externals/mbedtls/library/bignum.c ****         X->s = s;
 3605              	 .loc 1 1125 0
 3606 003c FFF7FEFF 	 bl mbedtls_mpi_add_abs
 3607              	.LVL555:
 3608              	.L278:
 3609 0040 0028     	 cmp r0,#0
 3610 0042 00D1     	 bne .L276
 3611              	.LVL556:
 3612              	.L277:
1126://MAC/Home/Downloads/getstarted-optiga-trust-m/optiga-trust-m-1/externals/mbedtls/library/bignum.c ****     }
 3613              	 .loc 1 1126 0
 3614 0044 2560     	 str r5,[r4]
 3615              	.L276:
1132://MAC/Home/Downloads/getstarted-optiga-trust-m/optiga-trust-m-1/externals/mbedtls/library/bignum.c **** 
 3616              	 .loc 1 1132 0
 3617              	 
 3618              	.LVL557:
 3619              	.LVL558:
 3620              	.LVL559:
 3621 0046 F8BD     	 pop {r3,r4,r5,r6,r7,pc}
 3622              	 .cfi_endproc
 3623              	.LFE30:
 3625              	 .section .text.mbedtls_mpi_sub_mpi,"ax",%progbits
 3626              	 .align 1
 3627              	 .global mbedtls_mpi_sub_mpi
 3628              	 .code 16
 3629              	 .thumb_func
 3631              	mbedtls_mpi_sub_mpi:
 3632              	.LFB31:
1138://MAC/Home/Downloads/getstarted-optiga-trust-m/optiga-trust-m-1/externals/mbedtls/library/bignum.c ****     int ret, s;
 3633              	 .loc 1 1138 0
 3634              	 .cfi_startproc
 3635              	.LVL560:
 3636 0000 F8B5     	 push {r3,r4,r5,r6,r7,lr}
 3637              	.LCFI30:
 3638              	 .cfi_def_cfa_offset 24
 3639              	 .cfi_offset 3,-24
 3640              	 .cfi_offset 4,-20
 3641              	 .cfi_offset 5,-16
 3642              	 .cfi_offset 6,-12
 3643              	 .cfi_offset 7,-8
 3644              	 .cfi_offset 14,-4
1144://MAC/Home/Downloads/getstarted-optiga-trust-m/optiga-trust-m-1/externals/mbedtls/library/bignum.c ****     if( A->s * B->s > 0 )
 3645              	 .loc 1 1144 0
 3646 0002 0D68     	 ldr r5,[r1]
 3647              	.LVL561:
1145://MAC/Home/Downloads/getstarted-optiga-trust-m/optiga-trust-m-1/externals/mbedtls/library/bignum.c ****     {
 3648              	 .loc 1 1145 0
 3649 0004 1368     	 ldr r3,[r2]
1138://MAC/Home/Downloads/getstarted-optiga-trust-m/optiga-trust-m-1/externals/mbedtls/library/bignum.c ****     int ret, s;
 3650              	 .loc 1 1138 0
 3651 0006 041C     	 mov r4,r0
1145://MAC/Home/Downloads/getstarted-optiga-trust-m/optiga-trust-m-1/externals/mbedtls/library/bignum.c ****     {
 3652              	 .loc 1 1145 0
 3653 0008 6B43     	 mul r3,r5
1138://MAC/Home/Downloads/getstarted-optiga-trust-m/optiga-trust-m-1/externals/mbedtls/library/bignum.c ****     int ret, s;
 3654              	 .loc 1 1138 0
 3655 000a 0F1C     	 mov r7,r1
 3656 000c 161C     	 mov r6,r2
1145://MAC/Home/Downloads/getstarted-optiga-trust-m/optiga-trust-m-1/externals/mbedtls/library/bignum.c ****     {
 3657              	 .loc 1 1145 0
 3658 000e 002B     	 cmp r3,#0
 3659 0010 14DD     	 ble .L280
1147://MAC/Home/Downloads/getstarted-optiga-trust-m/optiga-trust-m-1/externals/mbedtls/library/bignum.c ****         {
 3660              	 .loc 1 1147 0
 3661 0012 081C     	 mov r0,r1
 3662              	.LVL562:
 3663 0014 111C     	 mov r1,r2
 3664              	.LVL563:
 3665 0016 FFF7FEFF 	 bl mbedtls_mpi_cmp_abs
 3666              	.LVL564:
 3667 001a 0028     	 cmp r0,#0
 3668 001c 05DB     	 blt .L281
1149://MAC/Home/Downloads/getstarted-optiga-trust-m/optiga-trust-m-1/externals/mbedtls/library/bignum.c ****             X->s =  s;
 3669              	 .loc 1 1149 0
 3670 001e 201C     	 mov r0,r4
 3671 0020 391C     	 mov r1,r7
 3672 0022 321C     	 mov r2,r6
 3673 0024 FFF7FEFF 	 bl mbedtls_mpi_sub_abs
 3674              	.LVL565:
 3675 0028 0AE0     	 b .L284
 3676              	.LVL566:
 3677              	.L281:
1154://MAC/Home/Downloads/getstarted-optiga-trust-m/optiga-trust-m-1/externals/mbedtls/library/bignum.c ****             X->s = -s;
 3678              	 .loc 1 1154 0
 3679 002a 201C     	 mov r0,r4
 3680 002c 311C     	 mov r1,r6
 3681 002e 3A1C     	 mov r2,r7
 3682 0030 FFF7FEFF 	 bl mbedtls_mpi_sub_abs
 3683              	.LVL567:
1155://MAC/Home/Downloads/getstarted-optiga-trust-m/optiga-trust-m-1/externals/mbedtls/library/bignum.c ****         }
 3684              	 .loc 1 1155 0
 3685 0034 6D42     	 neg r5,r5
 3686              	.LVL568:
1154://MAC/Home/Downloads/getstarted-optiga-trust-m/optiga-trust-m-1/externals/mbedtls/library/bignum.c ****             X->s = -s;
 3687              	 .loc 1 1154 0
 3688 0036 0028     	 cmp r0,#0
 3689 0038 04D0     	 beq .L283
 3690 003a 04E0     	 b .L282
 3691              	.LVL569:
 3692              	.L280:
1160://MAC/Home/Downloads/getstarted-optiga-trust-m/optiga-trust-m-1/externals/mbedtls/library/bignum.c ****         X->s = s;
 3693              	 .loc 1 1160 0
 3694 003c FFF7FEFF 	 bl mbedtls_mpi_add_abs
 3695              	.LVL570:
 3696              	.L284:
 3697 0040 0028     	 cmp r0,#0
 3698 0042 00D1     	 bne .L282
 3699              	.LVL571:
 3700              	.L283:
1161://MAC/Home/Downloads/getstarted-optiga-trust-m/optiga-trust-m-1/externals/mbedtls/library/bignum.c ****     }
 3701              	 .loc 1 1161 0
 3702 0044 2560     	 str r5,[r4]
 3703              	.L282:
1167://MAC/Home/Downloads/getstarted-optiga-trust-m/optiga-trust-m-1/externals/mbedtls/library/bignum.c **** 
 3704              	 .loc 1 1167 0
 3705              	 
 3706              	.LVL572:
 3707              	.LVL573:
 3708              	.LVL574:
 3709 0046 F8BD     	 pop {r3,r4,r5,r6,r7,pc}
 3710              	 .cfi_endproc
 3711              	.LFE31:
 3713              	 .section .text.mbedtls_mpi_add_int,"ax",%progbits
 3714              	 .align 1
 3715              	 .global mbedtls_mpi_add_int
 3716              	 .code 16
 3717              	 .thumb_func
 3719              	mbedtls_mpi_add_int:
 3720              	.LFB32:
1173://MAC/Home/Downloads/getstarted-optiga-trust-m/optiga-trust-m-1/externals/mbedtls/library/bignum.c ****     mbedtls_mpi _B;
 3721              	 .loc 1 1173 0
 3722              	 .cfi_startproc
 3723              	.LVL575:
 3724 0000 1FB5     	 push {r0,r1,r2,r3,r4,lr}
 3725              	.LCFI31:
 3726              	 .cfi_def_cfa_offset 24
 3727              	 .cfi_offset 0,-24
 3728              	 .cfi_offset 1,-20
 3729              	 .cfi_offset 2,-16
 3730              	 .cfi_offset 3,-12
 3731              	 .cfi_offset 4,-8
 3732              	 .cfi_offset 14,-4
1179://MAC/Home/Downloads/getstarted-optiga-trust-m/optiga-trust-m-1/externals/mbedtls/library/bignum.c ****     _B.s = ( b < 0 ) ? -1 : 1;
 3733              	 .loc 1 1179 0
 3734 0002 D417     	 asr r4,r2,#31
 3735 0004 1319     	 add r3,r2,r4
 3736 0006 6340     	 eor r3,r4
 3737 0008 0093     	 str r3,[sp]
 3738 000a 0123     	 mov r3,#1
1180://MAC/Home/Downloads/getstarted-optiga-trust-m/optiga-trust-m-1/externals/mbedtls/library/bignum.c ****     _B.n = 1;
 3739              	 .loc 1 1180 0
 3740 000c D217     	 asr r2,r2,#31
 3741              	.LVL576:
 3742 000e 1A43     	 orr r2,r3
1181://MAC/Home/Downloads/getstarted-optiga-trust-m/optiga-trust-m-1/externals/mbedtls/library/bignum.c ****     _B.p = p;
 3743              	 .loc 1 1181 0
 3744 0010 0293     	 str r3,[sp,#8]
1182://MAC/Home/Downloads/getstarted-optiga-trust-m/optiga-trust-m-1/externals/mbedtls/library/bignum.c **** 
 3745              	 .loc 1 1182 0
 3746 0012 6B46     	 mov r3,sp
1180://MAC/Home/Downloads/getstarted-optiga-trust-m/optiga-trust-m-1/externals/mbedtls/library/bignum.c ****     _B.n = 1;
 3747              	 .loc 1 1180 0
 3748 0014 0192     	 str r2,[sp,#4]
1184://MAC/Home/Downloads/getstarted-optiga-trust-m/optiga-trust-m-1/externals/mbedtls/library/bignum.c **** }
 3749              	 .loc 1 1184 0
 3750 0016 01AA     	 add r2,sp,#4
1182://MAC/Home/Downloads/getstarted-optiga-trust-m/optiga-trust-m-1/externals/mbedtls/library/bignum.c **** 
 3751              	 .loc 1 1182 0
 3752 0018 0393     	 str r3,[sp,#12]
1184://MAC/Home/Downloads/getstarted-optiga-trust-m/optiga-trust-m-1/externals/mbedtls/library/bignum.c **** }
 3753              	 .loc 1 1184 0
 3754 001a FFF7FEFF 	 bl mbedtls_mpi_add_mpi
 3755              	.LVL577:
1185://MAC/Home/Downloads/getstarted-optiga-trust-m/optiga-trust-m-1/externals/mbedtls/library/bignum.c **** 
 3756              	 .loc 1 1185 0
 3757 001e 04B0     	 add sp,sp,#16
 3758              	 
 3759 0020 10BD     	 pop {r4,pc}
 3760              	 .cfi_endproc
 3761              	.LFE32:
 3763              	 .section .text.mbedtls_mpi_sub_int,"ax",%progbits
 3764              	 .align 1
 3765              	 .global mbedtls_mpi_sub_int
 3766              	 .code 16
 3767              	 .thumb_func
 3769              	mbedtls_mpi_sub_int:
 3770              	.LFB33:
1191://MAC/Home/Downloads/getstarted-optiga-trust-m/optiga-trust-m-1/externals/mbedtls/library/bignum.c ****     mbedtls_mpi _B;
 3771              	 .loc 1 1191 0
 3772              	 .cfi_startproc
 3773              	.LVL578:
 3774 0000 1FB5     	 push {r0,r1,r2,r3,r4,lr}
 3775              	.LCFI32:
 3776              	 .cfi_def_cfa_offset 24
 3777              	 .cfi_offset 0,-24
 3778              	 .cfi_offset 1,-20
 3779              	 .cfi_offset 2,-16
 3780              	 .cfi_offset 3,-12
 3781              	 .cfi_offset 4,-8
 3782              	 .cfi_offset 14,-4
1197://MAC/Home/Downloads/getstarted-optiga-trust-m/optiga-trust-m-1/externals/mbedtls/library/bignum.c ****     _B.s = ( b < 0 ) ? -1 : 1;
 3783              	 .loc 1 1197 0
 3784 0002 D417     	 asr r4,r2,#31
 3785 0004 1319     	 add r3,r2,r4
 3786 0006 6340     	 eor r3,r4
 3787 0008 0093     	 str r3,[sp]
 3788 000a 0123     	 mov r3,#1
1198://MAC/Home/Downloads/getstarted-optiga-trust-m/optiga-trust-m-1/externals/mbedtls/library/bignum.c ****     _B.n = 1;
 3789              	 .loc 1 1198 0
 3790 000c D217     	 asr r2,r2,#31
 3791              	.LVL579:
 3792 000e 1A43     	 orr r2,r3
1199://MAC/Home/Downloads/getstarted-optiga-trust-m/optiga-trust-m-1/externals/mbedtls/library/bignum.c ****     _B.p = p;
 3793              	 .loc 1 1199 0
 3794 0010 0293     	 str r3,[sp,#8]
1200://MAC/Home/Downloads/getstarted-optiga-trust-m/optiga-trust-m-1/externals/mbedtls/library/bignum.c **** 
 3795              	 .loc 1 1200 0
 3796 0012 6B46     	 mov r3,sp
1198://MAC/Home/Downloads/getstarted-optiga-trust-m/optiga-trust-m-1/externals/mbedtls/library/bignum.c ****     _B.n = 1;
 3797              	 .loc 1 1198 0
 3798 0014 0192     	 str r2,[sp,#4]
1202://MAC/Home/Downloads/getstarted-optiga-trust-m/optiga-trust-m-1/externals/mbedtls/library/bignum.c **** }
 3799              	 .loc 1 1202 0
 3800 0016 01AA     	 add r2,sp,#4
1200://MAC/Home/Downloads/getstarted-optiga-trust-m/optiga-trust-m-1/externals/mbedtls/library/bignum.c **** 
 3801              	 .loc 1 1200 0
 3802 0018 0393     	 str r3,[sp,#12]
1202://MAC/Home/Downloads/getstarted-optiga-trust-m/optiga-trust-m-1/externals/mbedtls/library/bignum.c **** }
 3803              	 .loc 1 1202 0
 3804 001a FFF7FEFF 	 bl mbedtls_mpi_sub_mpi
 3805              	.LVL580:
1203://MAC/Home/Downloads/getstarted-optiga-trust-m/optiga-trust-m-1/externals/mbedtls/library/bignum.c **** 
 3806              	 .loc 1 1203 0
 3807 001e 04B0     	 add sp,sp,#16
 3808              	 
 3809 0020 10BD     	 pop {r4,pc}
 3810              	 .cfi_endproc
 3811              	.LFE33:
 3813              	 .section .text.mbedtls_mpi_mul_mpi,"ax",%progbits
 3814              	 .align 1
 3815              	 .global mbedtls_mpi_mul_mpi
 3816              	 .code 16
 3817              	 .thumb_func
 3819              	mbedtls_mpi_mul_mpi:
 3820              	.LFB35:
1281://MAC/Home/Downloads/getstarted-optiga-trust-m/optiga-trust-m-1/externals/mbedtls/library/bignum.c ****     int ret;
 3821              	 .loc 1 1281 0
 3822              	 .cfi_startproc
 3823              	.LVL581:
 3824 0000 F0B5     	 push {r4,r5,r6,r7,lr}
 3825              	.LCFI33:
 3826              	 .cfi_def_cfa_offset 20
 3827              	 .cfi_offset 4,-20
 3828              	 .cfi_offset 5,-16
 3829              	 .cfi_offset 6,-12
 3830              	 .cfi_offset 7,-8
 3831              	 .cfi_offset 14,-4
 3832 0002 8BB0     	 sub sp,sp,#44
 3833              	.LCFI34:
 3834              	 .cfi_def_cfa_offset 64
 3835              	.LVL582:
 3836              	.LBB85:
 3837              	.LBB86:
  94://MAC/Home/Downloads/getstarted-optiga-trust-m/optiga-trust-m-1/externals/mbedtls/library/bignum.c ****     X->p = NULL;
 3838              	 .loc 1 94 0
 3839 0004 0023     	 mov r3,#0
 3840              	.LBE86:
 3841              	.LBE85:
1281://MAC/Home/Downloads/getstarted-optiga-trust-m/optiga-trust-m-1/externals/mbedtls/library/bignum.c ****     int ret;
 3842              	 .loc 1 1281 0
 3843 0006 0392     	 str r2,[sp,#12]
 3844              	.LBB89:
 3845              	.LBB87:
  93://MAC/Home/Downloads/getstarted-optiga-trust-m/optiga-trust-m-1/externals/mbedtls/library/bignum.c ****     X->n = 0;
 3846              	 .loc 1 93 0
 3847 0008 0122     	 mov r2,#1
 3848              	.LVL583:
 3849              	.LBE87:
 3850              	.LBE89:
1281://MAC/Home/Downloads/getstarted-optiga-trust-m/optiga-trust-m-1/externals/mbedtls/library/bignum.c ****     int ret;
 3851              	 .loc 1 1281 0
 3852 000a 051C     	 mov r5,r0
 3853 000c 0F1C     	 mov r7,r1
 3854              	.LBB90:
 3855              	.LBB88:
  93://MAC/Home/Downloads/getstarted-optiga-trust-m/optiga-trust-m-1/externals/mbedtls/library/bignum.c ****     X->n = 0;
 3856              	 .loc 1 93 0
 3857 000e 0492     	 str r2,[sp,#16]
  94://MAC/Home/Downloads/getstarted-optiga-trust-m/optiga-trust-m-1/externals/mbedtls/library/bignum.c ****     X->p = NULL;
 3858              	 .loc 1 94 0
 3859 0010 0593     	 str r3,[sp,#20]
  95://MAC/Home/Downloads/getstarted-optiga-trust-m/optiga-trust-m-1/externals/mbedtls/library/bignum.c **** }
 3860              	 .loc 1 95 0
 3861 0012 0693     	 str r3,[sp,#24]
 3862              	.LVL584:
 3863              	.LBE88:
 3864              	.LBE90:
 3865              	.LBB91:
 3866              	.LBB92:
  93://MAC/Home/Downloads/getstarted-optiga-trust-m/optiga-trust-m-1/externals/mbedtls/library/bignum.c ****     X->n = 0;
 3867              	 .loc 1 93 0
 3868 0014 0792     	 str r2,[sp,#28]
  94://MAC/Home/Downloads/getstarted-optiga-trust-m/optiga-trust-m-1/externals/mbedtls/library/bignum.c ****     X->p = NULL;
 3869              	 .loc 1 94 0
 3870 0016 0893     	 str r3,[sp,#32]
  95://MAC/Home/Downloads/getstarted-optiga-trust-m/optiga-trust-m-1/externals/mbedtls/library/bignum.c **** }
 3871              	 .loc 1 95 0
 3872 0018 0993     	 str r3,[sp,#36]
 3873              	.LBE92:
 3874              	.LBE91:
1291://MAC/Home/Downloads/getstarted-optiga-trust-m/optiga-trust-m-1/externals/mbedtls/library/bignum.c ****     if( X == B ) { MBEDTLS_MPI_CHK( mbedtls_mpi_copy( &TB, B ) ); B = &TB; }
 3875              	 .loc 1 1291 0
 3876 001a 8842     	 cmp r0,r1
 3877 001c 06D1     	 bne .L292
1291://MAC/Home/Downloads/getstarted-optiga-trust-m/optiga-trust-m-1/externals/mbedtls/library/bignum.c ****     if( X == B ) { MBEDTLS_MPI_CHK( mbedtls_mpi_copy( &TB, B ) ); B = &TB; }
 3878              	 .loc 1 1291 0 is_stmt 0 discriminator 1
 3879 001e 04A8     	 add r0,sp,#16
 3880              	.LVL585:
 3881 0020 291C     	 mov r1,r5
 3882              	.LVL586:
 3883 0022 FFF7FEFF 	 bl mbedtls_mpi_copy
 3884              	.LVL587:
 3885 0026 041E     	 sub r4,r0,#0
 3886              	.LVL588:
 3887 0028 59D1     	 bne .L293
1291://MAC/Home/Downloads/getstarted-optiga-trust-m/optiga-trust-m-1/externals/mbedtls/library/bignum.c ****     if( X == B ) { MBEDTLS_MPI_CHK( mbedtls_mpi_copy( &TB, B ) ); B = &TB; }
 3888              	 .loc 1 1291 0
 3889 002a 04AF     	 add r7,sp,#16
 3890              	.LVL589:
 3891              	.L292:
1292://MAC/Home/Downloads/getstarted-optiga-trust-m/optiga-trust-m-1/externals/mbedtls/library/bignum.c **** 
 3892              	 .loc 1 1292 0 is_stmt 1
 3893 002c 039B     	 ldr r3,[sp,#12]
 3894 002e 9D42     	 cmp r5,r3
 3895 0030 07D1     	 bne .L294
1292://MAC/Home/Downloads/getstarted-optiga-trust-m/optiga-trust-m-1/externals/mbedtls/library/bignum.c **** 
 3896              	 .loc 1 1292 0 is_stmt 0 discriminator 1
 3897 0032 07A8     	 add r0,sp,#28
 3898              	.LVL590:
 3899 0034 291C     	 mov r1,r5
 3900 0036 FFF7FEFF 	 bl mbedtls_mpi_copy
 3901              	.LVL591:
 3902 003a 041E     	 sub r4,r0,#0
 3903              	.LVL592:
 3904 003c 4FD1     	 bne .L293
1292://MAC/Home/Downloads/getstarted-optiga-trust-m/optiga-trust-m-1/externals/mbedtls/library/bignum.c **** 
 3905              	 .loc 1 1292 0
 3906 003e 07AE     	 add r6,sp,#28
 3907              	.LVL593:
 3908 0040 0396     	 str r6,[sp,#12]
 3909              	.LVL594:
 3910              	.L294:
1294://MAC/Home/Downloads/getstarted-optiga-trust-m/optiga-trust-m-1/externals/mbedtls/library/bignum.c ****         if( A->p[i - 1] != 0 )
 3911              	 .loc 1 1294 0 is_stmt 1
 3912 0042 7B68     	 ldr r3,[r7,#4]
 3913 0044 2A4A     	 ldr r2,.L305
 3914 0046 0293     	 str r3,[sp,#8]
 3915              	.LVL595:
 3916 0048 9B18     	 add r3,r3,r2
 3917              	.LVL596:
 3918 004a 9B00     	 lsl r3,r3,#2
 3919              	.LVL597:
 3920              	.L295:
1294://MAC/Home/Downloads/getstarted-optiga-trust-m/optiga-trust-m-1/externals/mbedtls/library/bignum.c ****         if( A->p[i - 1] != 0 )
 3921              	 .loc 1 1294 0 is_stmt 0 discriminator 1
 3922 004c 029A     	 ldr r2,[sp,#8]
 3923 004e 002A     	 cmp r2,#0
 3924 0050 08D0     	 beq .L296
1295://MAC/Home/Downloads/getstarted-optiga-trust-m/optiga-trust-m-1/externals/mbedtls/library/bignum.c ****             break;
 3925              	 .loc 1 1295 0 is_stmt 1
 3926 0052 BA68     	 ldr r2,[r7,#8]
 3927 0054 D258     	 ldr r2,[r2,r3]
 3928 0056 043B     	 sub r3,r3,#4
 3929 0058 002A     	 cmp r2,#0
 3930 005a 03D1     	 bne .L296
1294://MAC/Home/Downloads/getstarted-optiga-trust-m/optiga-trust-m-1/externals/mbedtls/library/bignum.c ****         if( A->p[i - 1] != 0 )
 3931              	 .loc 1 1294 0 discriminator 2
 3932 005c 029A     	 ldr r2,[sp,#8]
 3933 005e 013A     	 sub r2,r2,#1
 3934 0060 0292     	 str r2,[sp,#8]
 3935              	.LVL598:
 3936 0062 F3E7     	 b .L295
 3937              	.LVL599:
 3938              	.L296:
1298://MAC/Home/Downloads/getstarted-optiga-trust-m/optiga-trust-m-1/externals/mbedtls/library/bignum.c ****         if( B->p[j - 1] != 0 )
 3939              	 .loc 1 1298 0
 3940 0064 039B     	 ldr r3,[sp,#12]
 3941 0066 224A     	 ldr r2,.L305
 3942 0068 5B68     	 ldr r3,[r3,#4]
 3943 006a 0193     	 str r3,[sp,#4]
 3944              	.LVL600:
 3945 006c 9B18     	 add r3,r3,r2
 3946              	.LVL601:
 3947 006e 9B00     	 lsl r3,r3,#2
 3948              	.LVL602:
 3949              	.L298:
1298://MAC/Home/Downloads/getstarted-optiga-trust-m/optiga-trust-m-1/externals/mbedtls/library/bignum.c ****         if( B->p[j - 1] != 0 )
 3950              	 .loc 1 1298 0 is_stmt 0 discriminator 1
 3951 0070 019A     	 ldr r2,[sp,#4]
 3952 0072 002A     	 cmp r2,#0
 3953 0074 09D0     	 beq .L299
1299://MAC/Home/Downloads/getstarted-optiga-trust-m/optiga-trust-m-1/externals/mbedtls/library/bignum.c ****             break;
 3954              	 .loc 1 1299 0 is_stmt 1
 3955 0076 039A     	 ldr r2,[sp,#12]
 3956 0078 9268     	 ldr r2,[r2,#8]
 3957 007a D258     	 ldr r2,[r2,r3]
 3958 007c 043B     	 sub r3,r3,#4
 3959 007e 002A     	 cmp r2,#0
 3960 0080 03D1     	 bne .L299
1298://MAC/Home/Downloads/getstarted-optiga-trust-m/optiga-trust-m-1/externals/mbedtls/library/bignum.c ****         if( B->p[j - 1] != 0 )
 3961              	 .loc 1 1298 0 discriminator 2
 3962 0082 019A     	 ldr r2,[sp,#4]
 3963 0084 013A     	 sub r2,r2,#1
 3964 0086 0192     	 str r2,[sp,#4]
 3965              	.LVL603:
 3966 0088 F2E7     	 b .L298
 3967              	.LVL604:
 3968              	.L299:
1302://MAC/Home/Downloads/getstarted-optiga-trust-m/optiga-trust-m-1/externals/mbedtls/library/bignum.c ****     MBEDTLS_MPI_CHK( mbedtls_mpi_lset( X, 0 ) );
 3969              	 .loc 1 1302 0
 3970 008a 019B     	 ldr r3,[sp,#4]
 3971 008c 029A     	 ldr r2,[sp,#8]
 3972 008e 281C     	 mov r0,r5
 3973 0090 9918     	 add r1,r3,r2
 3974 0092 FFF7FEFF 	 bl mbedtls_mpi_grow
 3975              	.LVL605:
 3976 0096 041E     	 sub r4,r0,#0
 3977              	.LVL606:
 3978 0098 21D1     	 bne .L293
1303://MAC/Home/Downloads/getstarted-optiga-trust-m/optiga-trust-m-1/externals/mbedtls/library/bignum.c **** 
 3979              	 .loc 1 1303 0
 3980 009a 211C     	 mov r1,r4
 3981 009c 281C     	 mov r0,r5
 3982              	.LVL607:
 3983 009e FFF7FEFF 	 bl mbedtls_mpi_lset
 3984              	.LVL608:
 3985 00a2 041E     	 sub r4,r0,#0
 3986              	.LVL609:
 3987 00a4 1BD1     	 bne .L293
 3988 00a6 019B     	 ldr r3,[sp,#4]
 3989 00a8 114A     	 ldr r2,.L305
 3990 00aa 9B18     	 add r3,r3,r2
 3991 00ac 9B00     	 lsl r3,r3,#2
 3992              	.LVL610:
 3993              	.L303:
 3994 00ae 1E1C     	 mov r6,r3
1305://MAC/Home/Downloads/getstarted-optiga-trust-m/optiga-trust-m-1/externals/mbedtls/library/bignum.c ****         mpi_mul_hlp( i, A->p, X->p + j - 1, B->p[j - 1] );
 3995              	 .loc 1 1305 0 discriminator 2
 3996 00b0 019B     	 ldr r3,[sp,#4]
 3997 00b2 002B     	 cmp r3,#0
 3998 00b4 0ED0     	 beq .L304
1306://MAC/Home/Downloads/getstarted-optiga-trust-m/optiga-trust-m-1/externals/mbedtls/library/bignum.c **** 
 3999              	 .loc 1 1306 0 discriminator 2
 4000 00b6 AB68     	 ldr r3,[r5,#8]
 4001 00b8 0298     	 ldr r0,[sp,#8]
 4002 00ba 9A19     	 add r2,r3,r6
 4003 00bc 039B     	 ldr r3,[sp,#12]
 4004 00be B968     	 ldr r1,[r7,#8]
 4005 00c0 9B68     	 ldr r3,[r3,#8]
 4006 00c2 9B59     	 ldr r3,[r3,r6]
 4007 00c4 FFF7FEFF 	 bl mpi_mul_hlp
 4008              	.LVL611:
1305://MAC/Home/Downloads/getstarted-optiga-trust-m/optiga-trust-m-1/externals/mbedtls/library/bignum.c ****         mpi_mul_hlp( i, A->p, X->p + j - 1, B->p[j - 1] );
 4009              	 .loc 1 1305 0 discriminator 2
 4010 00c8 019B     	 ldr r3,[sp,#4]
 4011 00ca 013B     	 sub r3,r3,#1
 4012 00cc 0193     	 str r3,[sp,#4]
 4013              	.LVL612:
 4014 00ce 331C     	 mov r3,r6
 4015              	.LVL613:
 4016 00d0 043B     	 sub r3,r3,#4
 4017 00d2 ECE7     	 b .L303
 4018              	.LVL614:
 4019              	.L304:
1308://MAC/Home/Downloads/getstarted-optiga-trust-m/optiga-trust-m-1/externals/mbedtls/library/bignum.c **** 
 4020              	 .loc 1 1308 0
 4021 00d4 039B     	 ldr r3,[sp,#12]
 4022              	.LVL615:
 4023 00d6 3A68     	 ldr r2,[r7]
 4024 00d8 1B68     	 ldr r3,[r3]
 4025 00da 5343     	 mul r3,r2
 4026 00dc 2B60     	 str r3,[r5]
 4027              	.LVL616:
 4028              	.L293:
1312://MAC/Home/Downloads/getstarted-optiga-trust-m/optiga-trust-m-1/externals/mbedtls/library/bignum.c **** 
 4029              	 .loc 1 1312 0
 4030 00de 07A8     	 add r0,sp,#28
 4031              	.LVL617:
 4032 00e0 FFF7FEFF 	 bl mbedtls_mpi_free
 4033              	.LVL618:
 4034 00e4 04A8     	 add r0,sp,#16
 4035              	.LVL619:
 4036 00e6 FFF7FEFF 	 bl mbedtls_mpi_free
 4037              	.LVL620:
1315://MAC/Home/Downloads/getstarted-optiga-trust-m/optiga-trust-m-1/externals/mbedtls/library/bignum.c **** 
 4038              	 .loc 1 1315 0
 4039 00ea 201C     	 mov r0,r4
 4040 00ec 0BB0     	 add sp,sp,#44
 4041              	 
 4042              	.LVL621:
 4043              	.LVL622:
 4044              	.LVL623:
 4045 00ee F0BD     	 pop {r4,r5,r6,r7,pc}
 4046              	.L306:
 4047              	 .align 2
 4048              	.L305:
 4049 00f0 FFFFFF3F 	 .word 1073741823
 4050              	 .cfi_endproc
 4051              	.LFE35:
 4053              	 .section .text.mbedtls_mpi_mul_int,"ax",%progbits
 4054              	 .align 1
 4055              	 .global mbedtls_mpi_mul_int
 4056              	 .code 16
 4057              	 .thumb_func
 4059              	mbedtls_mpi_mul_int:
 4060              	.LFB36:
1321://MAC/Home/Downloads/getstarted-optiga-trust-m/optiga-trust-m-1/externals/mbedtls/library/bignum.c ****     mbedtls_mpi _B;
 4061              	 .loc 1 1321 0
 4062              	 .cfi_startproc
 4063              	.LVL624:
 4064 0000 1FB5     	 push {r0,r1,r2,r3,r4,lr}
 4065              	.LCFI35:
 4066              	 .cfi_def_cfa_offset 24
 4067              	 .cfi_offset 0,-24
 4068              	 .cfi_offset 1,-20
 4069              	 .cfi_offset 2,-16
 4070              	 .cfi_offset 3,-12
 4071              	 .cfi_offset 4,-8
 4072              	 .cfi_offset 14,-4
1327://MAC/Home/Downloads/getstarted-optiga-trust-m/optiga-trust-m-1/externals/mbedtls/library/bignum.c ****     _B.n = 1;
 4073              	 .loc 1 1327 0
 4074 0002 0123     	 mov r3,#1
 4075 0004 0193     	 str r3,[sp,#4]
1328://MAC/Home/Downloads/getstarted-optiga-trust-m/optiga-trust-m-1/externals/mbedtls/library/bignum.c ****     _B.p = p;
 4076              	 .loc 1 1328 0
 4077 0006 0293     	 str r3,[sp,#8]
1329://MAC/Home/Downloads/getstarted-optiga-trust-m/optiga-trust-m-1/externals/mbedtls/library/bignum.c ****     p[0] = b;
 4078              	 .loc 1 1329 0
 4079 0008 6B46     	 mov r3,sp
1330://MAC/Home/Downloads/getstarted-optiga-trust-m/optiga-trust-m-1/externals/mbedtls/library/bignum.c **** 
 4080              	 .loc 1 1330 0
 4081 000a 0092     	 str r2,[sp]
1332://MAC/Home/Downloads/getstarted-optiga-trust-m/optiga-trust-m-1/externals/mbedtls/library/bignum.c **** }
 4082              	 .loc 1 1332 0
 4083 000c 01AA     	 add r2,sp,#4
 4084              	.LVL625:
1329://MAC/Home/Downloads/getstarted-optiga-trust-m/optiga-trust-m-1/externals/mbedtls/library/bignum.c ****     p[0] = b;
 4085              	 .loc 1 1329 0
 4086 000e 0393     	 str r3,[sp,#12]
1332://MAC/Home/Downloads/getstarted-optiga-trust-m/optiga-trust-m-1/externals/mbedtls/library/bignum.c **** }
 4087              	 .loc 1 1332 0
 4088 0010 FFF7FEFF 	 bl mbedtls_mpi_mul_mpi
 4089              	.LVL626:
1333://MAC/Home/Downloads/getstarted-optiga-trust-m/optiga-trust-m-1/externals/mbedtls/library/bignum.c **** 
 4090              	 .loc 1 1333 0
 4091 0014 05B0     	 add sp,sp,#20
 4092              	 
 4093 0016 00BD     	 pop {pc}
 4094              	 .cfi_endproc
 4095              	.LFE36:
 4097              	 .section .text.mbedtls_mpi_read_string,"ax",%progbits
 4098              	 .align 1
 4099              	 .global mbedtls_mpi_read_string
 4100              	 .code 16
 4101              	 .thumb_func
 4103              	mbedtls_mpi_read_string:
 4104              	.LFB17:
 459://MAC/Home/Downloads/getstarted-optiga-trust-m/optiga-trust-m-1/externals/mbedtls/library/bignum.c ****     int ret;
 4105              	 .loc 1 459 0
 4106              	 .cfi_startproc
 4107              	.LVL627:
 4108 0000 F0B5     	 push {r4,r5,r6,r7,lr}
 4109              	.LCFI36:
 4110              	 .cfi_def_cfa_offset 20
 4111              	 .cfi_offset 4,-20
 4112              	 .cfi_offset 5,-16
 4113              	 .cfi_offset 6,-12
 4114              	 .cfi_offset 7,-8
 4115              	 .cfi_offset 14,-4
 467://MAC/Home/Downloads/getstarted-optiga-trust-m/optiga-trust-m-1/externals/mbedtls/library/bignum.c ****         return( MBEDTLS_ERR_MPI_BAD_INPUT_DATA );
 4116              	 .loc 1 467 0
 4117 0002 8B1E     	 sub r3,r1,#2
 459://MAC/Home/Downloads/getstarted-optiga-trust-m/optiga-trust-m-1/externals/mbedtls/library/bignum.c ****     int ret;
 4118              	 .loc 1 459 0
 4119 0004 87B0     	 sub sp,sp,#28
 4120              	.LCFI37:
 4121              	 .cfi_def_cfa_offset 48
 467://MAC/Home/Downloads/getstarted-optiga-trust-m/optiga-trust-m-1/externals/mbedtls/library/bignum.c ****         return( MBEDTLS_ERR_MPI_BAD_INPUT_DATA );
 4122              	 .loc 1 467 0
 4123 0006 0E2B     	 cmp r3,#14
 4124 0008 02D9     	 bls .L309
 4125              	.LVL628:
 4126              	.L312:
 468://MAC/Home/Downloads/getstarted-optiga-trust-m/optiga-trust-m-1/externals/mbedtls/library/bignum.c **** 
 4127              	 .loc 1 468 0
 4128 000a 0420     	 mov r0,#4
 4129 000c 4042     	 neg r0,r0
 4130 000e 81E0     	 b .L310
 4131              	.LVL629:
 4132              	.L309:
 4133              	.LBB93:
 4134              	.LBB94:
  93://MAC/Home/Downloads/getstarted-optiga-trust-m/optiga-trust-m-1/externals/mbedtls/library/bignum.c ****     X->n = 0;
 4135              	 .loc 1 93 0
 4136 0010 0123     	 mov r3,#1
  94://MAC/Home/Downloads/getstarted-optiga-trust-m/optiga-trust-m-1/externals/mbedtls/library/bignum.c ****     X->p = NULL;
 4137              	 .loc 1 94 0
 4138 0012 0024     	 mov r4,#0
 4139 0014 051C     	 mov r5,r0
 4140              	.LVL630:
 4141              	.LBE94:
 4142              	.LBE93:
 472://MAC/Home/Downloads/getstarted-optiga-trust-m/optiga-trust-m-1/externals/mbedtls/library/bignum.c **** 
 4143              	 .loc 1 472 0
 4144 0016 101C     	 mov r0,r2
 4145              	.LVL631:
 4146              	.LBB96:
 4147              	.LBB95:
  93://MAC/Home/Downloads/getstarted-optiga-trust-m/optiga-trust-m-1/externals/mbedtls/library/bignum.c ****     X->n = 0;
 4148              	 .loc 1 93 0
 4149 0018 0393     	 str r3,[sp,#12]
 4150 001a 0092     	 str r2,[sp]
 4151 001c 0191     	 str r1,[sp,#4]
  94://MAC/Home/Downloads/getstarted-optiga-trust-m/optiga-trust-m-1/externals/mbedtls/library/bignum.c ****     X->p = NULL;
 4152              	 .loc 1 94 0
 4153 001e 0494     	 str r4,[sp,#16]
  95://MAC/Home/Downloads/getstarted-optiga-trust-m/optiga-trust-m-1/externals/mbedtls/library/bignum.c **** }
 4154              	 .loc 1 95 0
 4155 0020 0594     	 str r4,[sp,#20]
 4156              	.LBE95:
 4157              	.LBE96:
 472://MAC/Home/Downloads/getstarted-optiga-trust-m/optiga-trust-m-1/externals/mbedtls/library/bignum.c **** 
 4158              	 .loc 1 472 0
 4159 0022 FFF7FEFF 	 bl strlen
 4160              	.LVL632:
 474://MAC/Home/Downloads/getstarted-optiga-trust-m/optiga-trust-m-1/externals/mbedtls/library/bignum.c ****     {
 4161              	 .loc 1 474 0
 4162 0026 019B     	 ldr r3,[sp,#4]
 472://MAC/Home/Downloads/getstarted-optiga-trust-m/optiga-trust-m-1/externals/mbedtls/library/bignum.c **** 
 4163              	 .loc 1 472 0
 4164 0028 071C     	 mov r7,r0
 4165              	.LVL633:
 474://MAC/Home/Downloads/getstarted-optiga-trust-m/optiga-trust-m-1/externals/mbedtls/library/bignum.c ****     {
 4166              	 .loc 1 474 0
 4167 002a 102B     	 cmp r3,#16
 4168 002c 3BD1     	 bne .L311
 4169              	.LVL634:
 476://MAC/Home/Downloads/getstarted-optiga-trust-m/optiga-trust-m-1/externals/mbedtls/library/bignum.c ****             return( MBEDTLS_ERR_MPI_BAD_INPUT_DATA );
 4170              	 .loc 1 476 0
 4171 002e 3A4B     	 ldr r3,.L326
 4172              	.LVL635:
 4173 0030 9842     	 cmp r0,r3
 4174 0032 EAD8     	 bhi .L312
 479://MAC/Home/Downloads/getstarted-optiga-trust-m/optiga-trust-m-1/externals/mbedtls/library/bignum.c **** 
 4175              	 .loc 1 479 0
 4176 0034 1F21     	 mov r1,#31
 4177 0036 8300     	 lsl r3,r0,#2
 4178              	.LVL636:
 4179 0038 1940     	 and r1,r3
 4180 003a 4A1E     	 sub r2,r1,#1
 4181 003c 9141     	 sbc r1,r1,r2
 4182 003e 5B09     	 lsr r3,r3,#5
 4183              	.LVL637:
 4184 0040 C918     	 add r1,r1,r3
 481://MAC/Home/Downloads/getstarted-optiga-trust-m/optiga-trust-m-1/externals/mbedtls/library/bignum.c ****         MBEDTLS_MPI_CHK( mbedtls_mpi_lset( X, 0 ) );
 4185              	 .loc 1 481 0
 4186 0042 281C     	 mov r0,r5
 4187              	.LVL638:
 4188 0044 FFF7FEFF 	 bl mbedtls_mpi_grow
 4189              	.LVL639:
 4190 0048 041E     	 sub r4,r0,#0
 4191              	.LVL640:
 4192 004a 5FD1     	 bne .L313
 482://MAC/Home/Downloads/getstarted-optiga-trust-m/optiga-trust-m-1/externals/mbedtls/library/bignum.c **** 
 4193              	 .loc 1 482 0
 4194 004c 211C     	 mov r1,r4
 4195 004e 281C     	 mov r0,r5
 4196              	.LVL641:
 4197 0050 FFF7FEFF 	 bl mbedtls_mpi_lset
 4198              	.LVL642:
 4199 0054 3E1C     	 mov r6,r7
 4200 0056 041E     	 sub r4,r0,#0
 4201              	.LVL643:
 4202 0058 58D1     	 bne .L313
 4203              	.LVL644:
 4204              	.L314:
 4205 005a BB1B     	 sub r3,r7,r6
 4206 005c 0193     	 str r3,[sp,#4]
 4207              	.LVL645:
 484://MAC/Home/Downloads/getstarted-optiga-trust-m/optiga-trust-m-1/externals/mbedtls/library/bignum.c ****         {
 4208              	 .loc 1 484 0 discriminator 1
 4209 005e 002E     	 cmp r6,#0
 4210 0060 2AD0     	 beq .L323
 486://MAC/Home/Downloads/getstarted-optiga-trust-m/optiga-trust-m-1/externals/mbedtls/library/bignum.c ****             {
 4211              	 .loc 1 486 0
 4212 0062 012E     	 cmp r6,#1
 4213 0064 06D1     	 bne .L315
 486://MAC/Home/Downloads/getstarted-optiga-trust-m/optiga-trust-m-1/externals/mbedtls/library/bignum.c ****             {
 4214              	 .loc 1 486 0 is_stmt 0 discriminator 1
 4215 0066 009B     	 ldr r3,[sp]
 4216              	.LVL646:
 4217 0068 1B78     	 ldrb r3,[r3]
 4218 006a 2D2B     	 cmp r3,#45
 4219 006c 02D1     	 bne .L315
 488://MAC/Home/Downloads/getstarted-optiga-trust-m/optiga-trust-m-1/externals/mbedtls/library/bignum.c ****                 break;
 4220              	 .loc 1 488 0 is_stmt 1
 4221 006e 2E3B     	 sub r3,r3,#46
 4222 0070 2B60     	 str r3,[r5]
 489://MAC/Home/Downloads/getstarted-optiga-trust-m/optiga-trust-m-1/externals/mbedtls/library/bignum.c ****             }
 4223              	 .loc 1 489 0
 4224 0072 4BE0     	 b .L313
 4225              	.L315:
 492://MAC/Home/Downloads/getstarted-optiga-trust-m/optiga-trust-m-1/externals/mbedtls/library/bignum.c ****             X->p[j / ( 2 * ciL )] |= d << ( ( j % ( 2 * ciL ) ) << 2 );
 4226              	 .loc 1 492 0
 4227 0074 009B     	 ldr r3,[sp]
 4228 0076 013E     	 sub r6,r6,#1
 4229              	.LVL647:
 4230 0078 9A5D     	 ldrb r2,[r3,r6]
 4231 007a 02A8     	 add r0,sp,#8
 4232 007c 1021     	 mov r1,#16
 4233 007e FFF7FEFF 	 bl mpi_get_digit
 4234              	.LVL648:
 4235 0082 0028     	 cmp r0,#0
 4236 0084 41D1     	 bne .L324
 493://MAC/Home/Downloads/getstarted-optiga-trust-m/optiga-trust-m-1/externals/mbedtls/library/bignum.c ****         }
 4237              	 .loc 1 493 0 discriminator 2
 4238 0086 019B     	 ldr r3,[sp,#4]
 4239 0088 AA68     	 ldr r2,[r5,#8]
 4240 008a DB08     	 lsr r3,r3,#3
 4241 008c 9B00     	 lsl r3,r3,#2
 4242 008e D318     	 add r3,r2,r3
 4243 0090 0722     	 mov r2,#7
 4244 0092 0199     	 ldr r1,[sp,#4]
 4245 0094 0A40     	 and r2,r1
 4246 0096 0299     	 ldr r1,[sp,#8]
 4247 0098 9200     	 lsl r2,r2,#2
 4248 009a 9140     	 lsl r1,r1,r2
 4249 009c 0A1C     	 mov r2,r1
 4250 009e 1968     	 ldr r1,[r3]
 4251 00a0 0A43     	 orr r2,r1
 4252 00a2 1A60     	 str r2,[r3]
 4253              	.LVL649:
 4254 00a4 D9E7     	 b .L314
 4255              	.LVL650:
 4256              	.L311:
 498://MAC/Home/Downloads/getstarted-optiga-trust-m/optiga-trust-m-1/externals/mbedtls/library/bignum.c **** 
 4257              	 .loc 1 498 0
 4258 00a6 211C     	 mov r1,r4
 4259 00a8 281C     	 mov r0,r5
 4260              	.LVL651:
 4261 00aa FFF7FEFF 	 bl mbedtls_mpi_lset
 4262              	.LVL652:
 4263 00ae 041C     	 mov r4,r0
 4264              	.LVL653:
 4265 00b0 061E     	 sub r6,r0,#0
 4266 00b2 2BD1     	 bne .L313
 4267              	.LVL654:
 4268              	.L317:
 500://MAC/Home/Downloads/getstarted-optiga-trust-m/optiga-trust-m-1/externals/mbedtls/library/bignum.c ****         {
 4269              	 .loc 1 500 0 discriminator 1
 4270 00b4 BE42     	 cmp r6,r7
 4271 00b6 01D1     	 bne .L322
 4272              	.LVL655:
 4273              	.L323:
 4274 00b8 0024     	 mov r4,#0
 4275 00ba 27E0     	 b .L313
 4276              	.LVL656:
 4277              	.L322:
 502://MAC/Home/Downloads/getstarted-optiga-trust-m/optiga-trust-m-1/externals/mbedtls/library/bignum.c ****             {
 4278              	 .loc 1 502 0
 4279 00bc 002E     	 cmp r6,#0
 4280 00be 06D1     	 bne .L318
 502://MAC/Home/Downloads/getstarted-optiga-trust-m/optiga-trust-m-1/externals/mbedtls/library/bignum.c ****             {
 4281              	 .loc 1 502 0 is_stmt 0 discriminator 1
 4282 00c0 009B     	 ldr r3,[sp]
 4283 00c2 1B78     	 ldrb r3,[r3]
 4284 00c4 2D2B     	 cmp r3,#45
 4285 00c6 02D1     	 bne .L318
 504://MAC/Home/Downloads/getstarted-optiga-trust-m/optiga-trust-m-1/externals/mbedtls/library/bignum.c ****                 continue;
 4286              	 .loc 1 504 0 is_stmt 1
 4287 00c8 2E3B     	 sub r3,r3,#46
 4288 00ca 2B60     	 str r3,[r5]
 505://MAC/Home/Downloads/getstarted-optiga-trust-m/optiga-trust-m-1/externals/mbedtls/library/bignum.c ****             }
 4289              	 .loc 1 505 0
 4290 00cc 1BE0     	 b .L319
 4291              	.L318:
 508://MAC/Home/Downloads/getstarted-optiga-trust-m/optiga-trust-m-1/externals/mbedtls/library/bignum.c ****             MBEDTLS_MPI_CHK( mbedtls_mpi_mul_int( &T, X, radix ) );
 4292              	 .loc 1 508 0
 4293 00ce 009B     	 ldr r3,[sp]
 4294 00d0 02A8     	 add r0,sp,#8
 4295 00d2 9A5D     	 ldrb r2,[r3,r6]
 4296 00d4 0199     	 ldr r1,[sp,#4]
 4297 00d6 FFF7FEFF 	 bl mpi_get_digit
 4298              	.LVL657:
 4299 00da 041E     	 sub r4,r0,#0
 4300              	.LVL658:
 4301 00dc 16D1     	 bne .L313
 509://MAC/Home/Downloads/getstarted-optiga-trust-m/optiga-trust-m-1/externals/mbedtls/library/bignum.c **** 
 4302              	 .loc 1 509 0
 4303 00de 03A8     	 add r0,sp,#12
 4304              	.LVL659:
 4305 00e0 291C     	 mov r1,r5
 4306 00e2 019A     	 ldr r2,[sp,#4]
 4307 00e4 FFF7FEFF 	 bl mbedtls_mpi_mul_int
 4308              	.LVL660:
 4309 00e8 041E     	 sub r4,r0,#0
 4310              	.LVL661:
 4311 00ea 0FD1     	 bne .L313
 511://MAC/Home/Downloads/getstarted-optiga-trust-m/optiga-trust-m-1/externals/mbedtls/library/bignum.c ****             {
 4312              	 .loc 1 511 0
 4313 00ec 2B68     	 ldr r3,[r5]
 513://MAC/Home/Downloads/getstarted-optiga-trust-m/optiga-trust-m-1/externals/mbedtls/library/bignum.c ****             }
 4314              	 .loc 1 513 0
 4315 00ee 281C     	 mov r0,r5
 4316              	.LVL662:
 4317 00f0 03A9     	 add r1,sp,#12
 4318              	.LVL663:
 4319 00f2 029A     	 ldr r2,[sp,#8]
 511://MAC/Home/Downloads/getstarted-optiga-trust-m/optiga-trust-m-1/externals/mbedtls/library/bignum.c ****             {
 4320              	 .loc 1 511 0
 4321 00f4 012B     	 cmp r3,#1
 4322 00f6 02D1     	 bne .L320
 4323              	.LVL664:
 513://MAC/Home/Downloads/getstarted-optiga-trust-m/optiga-trust-m-1/externals/mbedtls/library/bignum.c ****             }
 4324              	 .loc 1 513 0
 4325 00f8 FFF7FEFF 	 bl mbedtls_mpi_add_int
 4326              	.LVL665:
 4327 00fc 01E0     	 b .L325
 4328              	.LVL666:
 4329              	.L320:
 517://MAC/Home/Downloads/getstarted-optiga-trust-m/optiga-trust-m-1/externals/mbedtls/library/bignum.c ****             }
 4330              	 .loc 1 517 0
 4331 00fe FFF7FEFF 	 bl mbedtls_mpi_sub_int
 4332              	.LVL667:
 4333              	.L325:
 4334 0102 041E     	 sub r4,r0,#0
 4335              	.LVL668:
 4336 0104 02D1     	 bne .L313
 4337              	.LVL669:
 4338              	.L319:
 500://MAC/Home/Downloads/getstarted-optiga-trust-m/optiga-trust-m-1/externals/mbedtls/library/bignum.c ****         {
 4339              	 .loc 1 500 0 discriminator 2
 4340 0106 0136     	 add r6,r6,#1
 4341              	.LVL670:
 4342 0108 D4E7     	 b .L317
 4343              	.LVL671:
 4344              	.L324:
 4345 010a 041C     	 mov r4,r0
 4346              	.LVL672:
 4347              	.L313:
 524://MAC/Home/Downloads/getstarted-optiga-trust-m/optiga-trust-m-1/externals/mbedtls/library/bignum.c **** 
 4348              	 .loc 1 524 0
 4349 010c 03A8     	 add r0,sp,#12
 4350              	.LVL673:
 4351 010e FFF7FEFF 	 bl mbedtls_mpi_free
 4352              	.LVL674:
 526://MAC/Home/Downloads/getstarted-optiga-trust-m/optiga-trust-m-1/externals/mbedtls/library/bignum.c **** }
 4353              	 .loc 1 526 0
 4354 0112 201C     	 mov r0,r4
 4355              	.LVL675:
 4356              	.L310:
 527://MAC/Home/Downloads/getstarted-optiga-trust-m/optiga-trust-m-1/externals/mbedtls/library/bignum.c **** 
 4357              	 .loc 1 527 0
 4358 0114 07B0     	 add sp,sp,#28
 4359              	 
 4360 0116 F0BD     	 pop {r4,r5,r6,r7,pc}
 4361              	.L327:
 4362              	 .align 2
 4363              	.L326:
 4364 0118 FFFFFF3F 	 .word 1073741823
 4365              	 .cfi_endproc
 4366              	.LFE17:
 4368              	 .global __aeabi_uldivmod
 4369              	 .section .text.mbedtls_mpi_div_mpi,"ax",%progbits
 4370              	 .align 1
 4371              	 .global mbedtls_mpi_div_mpi
 4372              	 .code 16
 4373              	 .thumb_func
 4375              	mbedtls_mpi_div_mpi:
 4376              	.LFB38:
1436://MAC/Home/Downloads/getstarted-optiga-trust-m/optiga-trust-m-1/externals/mbedtls/library/bignum.c ****     int ret;
 4377              	 .loc 1 1436 0
 4378              	 .cfi_startproc
 4379              	.LVL676:
 4380 0000 F0B5     	 push {r4,r5,r6,r7,lr}
 4381              	.LCFI38:
 4382              	 .cfi_def_cfa_offset 20
 4383              	 .cfi_offset 4,-20
 4384              	 .cfi_offset 5,-16
 4385              	 .cfi_offset 6,-12
 4386              	 .cfi_offset 7,-8
 4387              	 .cfi_offset 14,-4
 4388 0002 9FB0     	 sub sp,sp,#124
 4389              	.LCFI39:
 4390              	 .cfi_def_cfa_offset 144
1436://MAC/Home/Downloads/getstarted-optiga-trust-m/optiga-trust-m-1/externals/mbedtls/library/bignum.c ****     int ret;
 4391              	 .loc 1 1436 0
 4392 0004 0390     	 str r0,[sp,#12]
 4393 0006 0191     	 str r1,[sp,#4]
1443://MAC/Home/Downloads/getstarted-optiga-trust-m/optiga-trust-m-1/externals/mbedtls/library/bignum.c ****         return( MBEDTLS_ERR_MPI_DIVISION_BY_ZERO );
 4394              	 .loc 1 1443 0
 4395 0008 181C     	 mov r0,r3
 4396              	.LVL677:
 4397 000a 0021     	 mov r1,#0
 4398              	.LVL678:
1436://MAC/Home/Downloads/getstarted-optiga-trust-m/optiga-trust-m-1/externals/mbedtls/library/bignum.c ****     int ret;
 4399              	 .loc 1 1436 0
 4400 000c 171C     	 mov r7,r2
 4401 000e 0793     	 str r3,[sp,#28]
1443://MAC/Home/Downloads/getstarted-optiga-trust-m/optiga-trust-m-1/externals/mbedtls/library/bignum.c ****         return( MBEDTLS_ERR_MPI_DIVISION_BY_ZERO );
 4402              	 .loc 1 1443 0
 4403 0010 FFF7FEFF 	 bl mbedtls_mpi_cmp_int
 4404              	.LVL679:
 4405 0014 0028     	 cmp r0,#0
 4406 0016 00D1     	 bne .LCB5005
 4407 0018 9BE1     	 b .L353
 4408              	.LCB5005:
 4409              	.LVL680:
 4410              	.LBB109:
 4411              	.LBB110:
  94://MAC/Home/Downloads/getstarted-optiga-trust-m/optiga-trust-m-1/externals/mbedtls/library/bignum.c ****     X->p = NULL;
 4412              	 .loc 1 94 0
 4413 001a 0024     	 mov r4,#0
  93://MAC/Home/Downloads/getstarted-optiga-trust-m/optiga-trust-m-1/externals/mbedtls/library/bignum.c ****     X->n = 0;
 4414              	 .loc 1 93 0
 4415 001c 0126     	 mov r6,#1
 4416              	.LBE110:
 4417              	.LBE109:
 4418              	.LBB112:
 4419              	.LBB113:
 4420 001e 12AD     	 add r5,sp,#72
 4421              	.LBE113:
 4422              	.LBE112:
1449://MAC/Home/Downloads/getstarted-optiga-trust-m/optiga-trust-m-1/externals/mbedtls/library/bignum.c ****     {
 4423              	 .loc 1 1449 0
 4424 0020 381C     	 mov r0,r7
 4425 0022 0799     	 ldr r1,[sp,#28]
 4426              	.LBB115:
 4427              	.LBB111:
  93://MAC/Home/Downloads/getstarted-optiga-trust-m/optiga-trust-m-1/externals/mbedtls/library/bignum.c ****     X->n = 0;
 4428              	 .loc 1 93 0
 4429 0024 0F96     	 str r6,[sp,#60]
  94://MAC/Home/Downloads/getstarted-optiga-trust-m/optiga-trust-m-1/externals/mbedtls/library/bignum.c ****     X->p = NULL;
 4430              	 .loc 1 94 0
 4431 0026 1094     	 str r4,[sp,#64]
  95://MAC/Home/Downloads/getstarted-optiga-trust-m/optiga-trust-m-1/externals/mbedtls/library/bignum.c **** }
 4432              	 .loc 1 95 0
 4433 0028 1194     	 str r4,[sp,#68]
 4434              	.LVL681:
 4435              	.LBE111:
 4436              	.LBE115:
 4437              	.LBB116:
 4438              	.LBB114:
  93://MAC/Home/Downloads/getstarted-optiga-trust-m/optiga-trust-m-1/externals/mbedtls/library/bignum.c ****     X->n = 0;
 4439              	 .loc 1 93 0
 4440 002a 1296     	 str r6,[sp,#72]
  94://MAC/Home/Downloads/getstarted-optiga-trust-m/optiga-trust-m-1/externals/mbedtls/library/bignum.c ****     X->p = NULL;
 4441              	 .loc 1 94 0
 4442 002c 6C60     	 str r4,[r5,#4]
  95://MAC/Home/Downloads/getstarted-optiga-trust-m/optiga-trust-m-1/externals/mbedtls/library/bignum.c **** }
 4443              	 .loc 1 95 0
 4444 002e AC60     	 str r4,[r5,#8]
 4445              	.LVL682:
 4446              	.LBE114:
 4447              	.LBE116:
 4448              	.LBB117:
 4449              	.LBB118:
  93://MAC/Home/Downloads/getstarted-optiga-trust-m/optiga-trust-m-1/externals/mbedtls/library/bignum.c ****     X->n = 0;
 4450              	 .loc 1 93 0
 4451 0030 1596     	 str r6,[sp,#84]
  94://MAC/Home/Downloads/getstarted-optiga-trust-m/optiga-trust-m-1/externals/mbedtls/library/bignum.c ****     X->p = NULL;
 4452              	 .loc 1 94 0
 4453 0032 1694     	 str r4,[sp,#88]
  95://MAC/Home/Downloads/getstarted-optiga-trust-m/optiga-trust-m-1/externals/mbedtls/library/bignum.c **** }
 4454              	 .loc 1 95 0
 4455 0034 1794     	 str r4,[sp,#92]
 4456              	.LVL683:
 4457              	.LBE118:
 4458              	.LBE117:
 4459              	.LBB119:
 4460              	.LBB120:
  93://MAC/Home/Downloads/getstarted-optiga-trust-m/optiga-trust-m-1/externals/mbedtls/library/bignum.c ****     X->n = 0;
 4461              	 .loc 1 93 0
 4462 0036 1896     	 str r6,[sp,#96]
  94://MAC/Home/Downloads/getstarted-optiga-trust-m/optiga-trust-m-1/externals/mbedtls/library/bignum.c ****     X->p = NULL;
 4463              	 .loc 1 94 0
 4464 0038 1994     	 str r4,[sp,#100]
  95://MAC/Home/Downloads/getstarted-optiga-trust-m/optiga-trust-m-1/externals/mbedtls/library/bignum.c **** }
 4465              	 .loc 1 95 0
 4466 003a 1A94     	 str r4,[sp,#104]
 4467              	.LVL684:
 4468              	.LBE120:
 4469              	.LBE119:
 4470              	.LBB121:
 4471              	.LBB122:
  93://MAC/Home/Downloads/getstarted-optiga-trust-m/optiga-trust-m-1/externals/mbedtls/library/bignum.c ****     X->n = 0;
 4472              	 .loc 1 93 0
 4473 003c 1B96     	 str r6,[sp,#108]
  94://MAC/Home/Downloads/getstarted-optiga-trust-m/optiga-trust-m-1/externals/mbedtls/library/bignum.c ****     X->p = NULL;
 4474              	 .loc 1 94 0
 4475 003e 1C94     	 str r4,[sp,#112]
  95://MAC/Home/Downloads/getstarted-optiga-trust-m/optiga-trust-m-1/externals/mbedtls/library/bignum.c **** }
 4476              	 .loc 1 95 0
 4477 0040 1D94     	 str r4,[sp,#116]
 4478              	.LBE122:
 4479              	.LBE121:
1449://MAC/Home/Downloads/getstarted-optiga-trust-m/optiga-trust-m-1/externals/mbedtls/library/bignum.c ****     {
 4480              	 .loc 1 1449 0
 4481 0042 FFF7FEFF 	 bl mbedtls_mpi_cmp_abs
 4482              	.LVL685:
 4483 0046 A042     	 cmp r0,r4
 4484 0048 17DA     	 bge .L330
1451://MAC/Home/Downloads/getstarted-optiga-trust-m/optiga-trust-m-1/externals/mbedtls/library/bignum.c ****         if( R != NULL ) MBEDTLS_MPI_CHK( mbedtls_mpi_copy( R, A ) );
 4485              	 .loc 1 1451 0
 4486 004a 039B     	 ldr r3,[sp,#12]
 4487 004c A342     	 cmp r3,r4
 4488 004e 03D1     	 bne .L331
 4489              	.L335:
1452://MAC/Home/Downloads/getstarted-optiga-trust-m/optiga-trust-m-1/externals/mbedtls/library/bignum.c ****         return( 0 );
 4490              	 .loc 1 1452 0
 4491 0050 019B     	 ldr r3,[sp,#4]
 4492 0052 002B     	 cmp r3,#0
 4493 0054 08D1     	 bne .L332
 4494 0056 0EE0     	 b .L333
 4495              	.LVL686:
 4496              	.L331:
1451://MAC/Home/Downloads/getstarted-optiga-trust-m/optiga-trust-m-1/externals/mbedtls/library/bignum.c ****         if( R != NULL ) MBEDTLS_MPI_CHK( mbedtls_mpi_copy( R, A ) );
 4497              	 .loc 1 1451 0 discriminator 1
 4498 0058 211C     	 mov r1,r4
 4499 005a 0398     	 ldr r0,[sp,#12]
 4500 005c FFF7FEFF 	 bl mbedtls_mpi_lset
 4501              	.LVL687:
 4502 0060 041E     	 sub r4,r0,#0
 4503              	.LVL688:
 4504 0062 00D0     	 beq .LCB5088
 4505 0064 64E1     	 b .L334
 4506              	.LCB5088:
 4507 0066 F3E7     	 b .L335
 4508              	.LVL689:
 4509              	.L332:
1452://MAC/Home/Downloads/getstarted-optiga-trust-m/optiga-trust-m-1/externals/mbedtls/library/bignum.c ****         return( 0 );
 4510              	 .loc 1 1452 0 discriminator 1
 4511 0068 0198     	 ldr r0,[sp,#4]
 4512 006a 391C     	 mov r1,r7
 4513 006c FFF7FEFF 	 bl mbedtls_mpi_copy
 4514              	.LVL690:
 4515 0070 041E     	 sub r4,r0,#0
 4516              	.LVL691:
 4517 0072 00D0     	 beq .LCB5101
 4518 0074 5CE1     	 b .L334
 4519              	.LCB5101:
 4520              	.LVL692:
 4521              	.L333:
1453://MAC/Home/Downloads/getstarted-optiga-trust-m/optiga-trust-m-1/externals/mbedtls/library/bignum.c ****     }
 4522              	 .loc 1 1453 0
 4523 0076 0020     	 mov r0,#0
 4524 0078 6DE1     	 b .L329
 4525              	.L330:
1456://MAC/Home/Downloads/getstarted-optiga-trust-m/optiga-trust-m-1/externals/mbedtls/library/bignum.c ****     MBEDTLS_MPI_CHK( mbedtls_mpi_copy( &Y, B ) );
 4526              	 .loc 1 1456 0
 4527 007a 0FA8     	 add r0,sp,#60
 4528              	.LVL693:
 4529 007c 391C     	 mov r1,r7
 4530 007e FFF7FEFF 	 bl mbedtls_mpi_copy
 4531              	.LVL694:
 4532 0082 041E     	 sub r4,r0,#0
 4533              	.LVL695:
 4534 0084 00D0     	 beq .LCB5119
 4535 0086 53E1     	 b .L334
 4536              	.LCB5119:
1457://MAC/Home/Downloads/getstarted-optiga-trust-m/optiga-trust-m-1/externals/mbedtls/library/bignum.c ****     X.s = Y.s = 1;
 4537              	 .loc 1 1457 0
 4538 0088 281C     	 mov r0,r5
 4539              	.LVL696:
 4540 008a 0799     	 ldr r1,[sp,#28]
 4541 008c FFF7FEFF 	 bl mbedtls_mpi_copy
 4542              	.LVL697:
 4543 0090 041E     	 sub r4,r0,#0
 4544              	.LVL698:
 4545 0092 00D0     	 beq .LCB5129
 4546 0094 4CE1     	 b .L334
 4547              	.LCB5129:
1460://MAC/Home/Downloads/getstarted-optiga-trust-m/optiga-trust-m-1/externals/mbedtls/library/bignum.c ****     MBEDTLS_MPI_CHK( mbedtls_mpi_lset( &Z,  0 ) );
 4548              	 .loc 1 1460 0
 4549 0096 7B68     	 ldr r3,[r7,#4]
 4550 0098 15A8     	 add r0,sp,#84
 4551              	.LVL699:
 4552 009a 991C     	 add r1,r3,#2
1458://MAC/Home/Downloads/getstarted-optiga-trust-m/optiga-trust-m-1/externals/mbedtls/library/bignum.c **** 
 4553              	 .loc 1 1458 0
 4554 009c 2E60     	 str r6,[r5]
 4555 009e 0F96     	 str r6,[sp,#60]
1460://MAC/Home/Downloads/getstarted-optiga-trust-m/optiga-trust-m-1/externals/mbedtls/library/bignum.c ****     MBEDTLS_MPI_CHK( mbedtls_mpi_lset( &Z,  0 ) );
 4556              	 .loc 1 1460 0
 4557 00a0 FFF7FEFF 	 bl mbedtls_mpi_grow
 4558              	.LVL700:
 4559 00a4 041E     	 sub r4,r0,#0
 4560              	.LVL701:
 4561 00a6 00D0     	 beq .LCB5145
 4562 00a8 42E1     	 b .L334
 4563              	.LCB5145:
1461://MAC/Home/Downloads/getstarted-optiga-trust-m/optiga-trust-m-1/externals/mbedtls/library/bignum.c ****     MBEDTLS_MPI_CHK( mbedtls_mpi_grow( &T1, 2 ) );
 4564              	 .loc 1 1461 0
 4565 00aa 211C     	 mov r1,r4
 4566 00ac 15A8     	 add r0,sp,#84
 4567              	.LVL702:
 4568 00ae FFF7FEFF 	 bl mbedtls_mpi_lset
 4569              	.LVL703:
 4570 00b2 041E     	 sub r4,r0,#0
 4571              	.LVL704:
 4572 00b4 00D0     	 beq .LCB5158
 4573 00b6 3BE1     	 b .L334
 4574              	.LCB5158:
1462://MAC/Home/Downloads/getstarted-optiga-trust-m/optiga-trust-m-1/externals/mbedtls/library/bignum.c ****     MBEDTLS_MPI_CHK( mbedtls_mpi_grow( &T2, 3 ) );
 4575              	 .loc 1 1462 0
 4576 00b8 18A8     	 add r0,sp,#96
 4577              	.LVL705:
 4578 00ba 0221     	 mov r1,#2
 4579 00bc FFF7FEFF 	 bl mbedtls_mpi_grow
 4580              	.LVL706:
 4581 00c0 041E     	 sub r4,r0,#0
 4582              	.LVL707:
 4583 00c2 00D0     	 beq .LCB5170
 4584 00c4 34E1     	 b .L334
 4585              	.LCB5170:
1463://MAC/Home/Downloads/getstarted-optiga-trust-m/optiga-trust-m-1/externals/mbedtls/library/bignum.c **** 
 4586              	 .loc 1 1463 0
 4587 00c6 1BA8     	 add r0,sp,#108
 4588              	.LVL708:
 4589 00c8 0321     	 mov r1,#3
 4590 00ca FFF7FEFF 	 bl mbedtls_mpi_grow
 4591              	.LVL709:
 4592 00ce 041E     	 sub r4,r0,#0
 4593              	.LVL710:
 4594 00d0 00D0     	 beq .LCB5182
 4595 00d2 2DE1     	 b .L334
 4596              	.LCB5182:
1465://MAC/Home/Downloads/getstarted-optiga-trust-m/optiga-trust-m-1/externals/mbedtls/library/bignum.c ****     if( k < biL - 1 )
 4597              	 .loc 1 1465 0
 4598 00d4 281C     	 mov r0,r5
 4599              	.LVL711:
 4600 00d6 FFF7FEFF 	 bl mbedtls_mpi_bitlen
 4601              	.LVL712:
 4602 00da 1F23     	 mov r3,#31
 4603 00dc 1840     	 and r0,r3
 4604              	.LVL713:
1466://MAC/Home/Downloads/getstarted-optiga-trust-m/optiga-trust-m-1/externals/mbedtls/library/bignum.c ****     {
 4605              	 .loc 1 1466 0
 4606 00de 9842     	 cmp r0,r3
 4607 00e0 10D0     	 beq .L354
1468://MAC/Home/Downloads/getstarted-optiga-trust-m/optiga-trust-m-1/externals/mbedtls/library/bignum.c ****         MBEDTLS_MPI_CHK( mbedtls_mpi_shift_l( &X, k ) );
 4608              	 .loc 1 1468 0
 4609 00e2 1B1A     	 sub r3,r3,r0
1469://MAC/Home/Downloads/getstarted-optiga-trust-m/optiga-trust-m-1/externals/mbedtls/library/bignum.c ****         MBEDTLS_MPI_CHK( mbedtls_mpi_shift_l( &Y, k ) );
 4610              	 .loc 1 1469 0
 4611 00e4 191C     	 mov r1,r3
 4612 00e6 0FA8     	 add r0,sp,#60
 4613              	.LVL714:
1468://MAC/Home/Downloads/getstarted-optiga-trust-m/optiga-trust-m-1/externals/mbedtls/library/bignum.c ****         MBEDTLS_MPI_CHK( mbedtls_mpi_shift_l( &X, k ) );
 4614              	 .loc 1 1468 0
 4615 00e8 0493     	 str r3,[sp,#16]
 4616              	.LVL715:
1469://MAC/Home/Downloads/getstarted-optiga-trust-m/optiga-trust-m-1/externals/mbedtls/library/bignum.c ****         MBEDTLS_MPI_CHK( mbedtls_mpi_shift_l( &Y, k ) );
 4617              	 .loc 1 1469 0
 4618 00ea FFF7FEFF 	 bl mbedtls_mpi_shift_l
 4619              	.LVL716:
 4620 00ee 041E     	 sub r4,r0,#0
 4621              	.LVL717:
 4622 00f0 00D0     	 beq .LCB5207
 4623 00f2 1DE1     	 b .L334
 4624              	.LCB5207:
1470://MAC/Home/Downloads/getstarted-optiga-trust-m/optiga-trust-m-1/externals/mbedtls/library/bignum.c ****     }
 4625              	 .loc 1 1470 0
 4626 00f4 281C     	 mov r0,r5
 4627              	.LVL718:
 4628 00f6 0499     	 ldr r1,[sp,#16]
 4629 00f8 FFF7FEFF 	 bl mbedtls_mpi_shift_l
 4630              	.LVL719:
 4631 00fc 041E     	 sub r4,r0,#0
 4632              	.LVL720:
 4633 00fe 00D0     	 beq .LCB5217
 4634 0100 16E1     	 b .L334
 4635              	.LCB5217:
 4636 0102 00E0     	 b .L336
 4637              	.LVL721:
 4638              	.L354:
1472://MAC/Home/Downloads/getstarted-optiga-trust-m/optiga-trust-m-1/externals/mbedtls/library/bignum.c **** 
 4639              	 .loc 1 1472 0
 4640 0104 0494     	 str r4,[sp,#16]
 4641              	.LVL722:
 4642              	.L336:
1474://MAC/Home/Downloads/getstarted-optiga-trust-m/optiga-trust-m-1/externals/mbedtls/library/bignum.c ****     t = Y.n - 1;
 4643              	 .loc 1 1474 0
 4644 0106 109B     	 ldr r3,[sp,#64]
1476://MAC/Home/Downloads/getstarted-optiga-trust-m/optiga-trust-m-1/externals/mbedtls/library/bignum.c **** 
 4645              	 .loc 1 1476 0
 4646 0108 281C     	 mov r0,r5
1474://MAC/Home/Downloads/getstarted-optiga-trust-m/optiga-trust-m-1/externals/mbedtls/library/bignum.c ****     t = Y.n - 1;
 4647              	 .loc 1 1474 0
 4648 010a 0893     	 str r3,[sp,#32]
 4649 010c 013B     	 sub r3,r3,#1
 4650 010e 0293     	 str r3,[sp,#8]
 4651              	.LVL723:
1475://MAC/Home/Downloads/getstarted-optiga-trust-m/optiga-trust-m-1/externals/mbedtls/library/bignum.c ****     MBEDTLS_MPI_CHK( mbedtls_mpi_shift_l( &Y, biL * ( n - t ) ) );
 4652              	 .loc 1 1475 0
 4653 0110 6B68     	 ldr r3,[r5,#4]
 4654              	.LVL724:
 4655 0112 0993     	 str r3,[sp,#36]
 4656 0114 013B     	 sub r3,r3,#1
 4657 0116 0593     	 str r3,[sp,#20]
 4658              	.LVL725:
1476://MAC/Home/Downloads/getstarted-optiga-trust-m/optiga-trust-m-1/externals/mbedtls/library/bignum.c **** 
 4659              	 .loc 1 1476 0
 4660 0118 059A     	 ldr r2,[sp,#20]
 4661 011a 029B     	 ldr r3,[sp,#8]
 4662              	.LVL726:
 4663 011c 9E1A     	 sub r6,r3,r2
 4664 011e 7301     	 lsl r3,r6,#5
 4665 0120 191C     	 mov r1,r3
 4666 0122 0693     	 str r3,[sp,#24]
 4667 0124 FFF7FEFF 	 bl mbedtls_mpi_shift_l
 4668              	.LVL727:
1480://MAC/Home/Downloads/getstarted-optiga-trust-m/optiga-trust-m-1/externals/mbedtls/library/bignum.c ****         MBEDTLS_MPI_CHK( mbedtls_mpi_sub_mpi( &X, &X, &Y ) );
 4669              	 .loc 1 1480 0
 4670 0128 B600     	 lsl r6,r6,#2
1476://MAC/Home/Downloads/getstarted-optiga-trust-m/optiga-trust-m-1/externals/mbedtls/library/bignum.c **** 
 4671              	 .loc 1 1476 0
 4672 012a 041E     	 sub r4,r0,#0
 4673              	.LVL728:
 4674 012c 00D0     	 beq .LCB5258
 4675 012e FFE0     	 b .L334
 4676              	.LCB5258:
 4677              	.L337:
1478://MAC/Home/Downloads/getstarted-optiga-trust-m/optiga-trust-m-1/externals/mbedtls/library/bignum.c ****     {
 4678              	 .loc 1 1478 0
 4679 0130 0FA8     	 add r0,sp,#60
 4680              	.LVL729:
 4681 0132 12A9     	 add r1,sp,#72
 4682 0134 FFF7FEFF 	 bl mbedtls_mpi_cmp_mpi
 4683              	.LVL730:
 4684 0138 0028     	 cmp r0,#0
 4685 013a 0CDB     	 blt .L374
1480://MAC/Home/Downloads/getstarted-optiga-trust-m/optiga-trust-m-1/externals/mbedtls/library/bignum.c ****         MBEDTLS_MPI_CHK( mbedtls_mpi_sub_mpi( &X, &X, &Y ) );
 4686              	 .loc 1 1480 0
 4687 013c 179B     	 ldr r3,[sp,#92]
1481://MAC/Home/Downloads/getstarted-optiga-trust-m/optiga-trust-m-1/externals/mbedtls/library/bignum.c ****     }
 4688              	 .loc 1 1481 0
 4689 013e 0FA8     	 add r0,sp,#60
 4690              	.LVL731:
1480://MAC/Home/Downloads/getstarted-optiga-trust-m/optiga-trust-m-1/externals/mbedtls/library/bignum.c ****         MBEDTLS_MPI_CHK( mbedtls_mpi_sub_mpi( &X, &X, &Y ) );
 4691              	 .loc 1 1480 0
 4692 0140 9B19     	 add r3,r3,r6
 4693 0142 1A68     	 ldr r2,[r3]
1481://MAC/Home/Downloads/getstarted-optiga-trust-m/optiga-trust-m-1/externals/mbedtls/library/bignum.c ****     }
 4694              	 .loc 1 1481 0
 4695 0144 011C     	 mov r1,r0
1480://MAC/Home/Downloads/getstarted-optiga-trust-m/optiga-trust-m-1/externals/mbedtls/library/bignum.c ****         MBEDTLS_MPI_CHK( mbedtls_mpi_sub_mpi( &X, &X, &Y ) );
 4696              	 .loc 1 1480 0
 4697 0146 0132     	 add r2,r2,#1
 4698 0148 1A60     	 str r2,[r3]
1481://MAC/Home/Downloads/getstarted-optiga-trust-m/optiga-trust-m-1/externals/mbedtls/library/bignum.c ****     }
 4699              	 .loc 1 1481 0
 4700 014a 12AA     	 add r2,sp,#72
 4701 014c FFF7FEFF 	 bl mbedtls_mpi_sub_mpi
 4702              	.LVL732:
 4703 0150 041E     	 sub r4,r0,#0
 4704              	.LVL733:
 4705 0152 EDD0     	 beq .L337
 4706 0154 ECE0     	 b .L334
 4707              	.LVL734:
 4708              	.L374:
1483://MAC/Home/Downloads/getstarted-optiga-trust-m/optiga-trust-m-1/externals/mbedtls/library/bignum.c **** 
 4709              	 .loc 1 1483 0
 4710 0156 12A8     	 add r0,sp,#72
 4711 0158 0699     	 ldr r1,[sp,#24]
 4712 015a FFF7FEFF 	 bl mbedtls_mpi_shift_r
 4713              	.LVL735:
 4714 015e 041E     	 sub r4,r0,#0
 4715              	.LVL736:
 4716 0160 00D0     	 beq .LCB5305
 4717 0162 E5E0     	 b .L334
 4718              	.LCB5305:
1487://MAC/Home/Downloads/getstarted-optiga-trust-m/optiga-trust-m-1/externals/mbedtls/library/bignum.c ****             Z.p[i - t - 1] = ~0;
 4719              	 .loc 1 1487 0
 4720 0164 059B     	 ldr r3,[sp,#20]
 4721 0166 7D4A     	 ldr r2,.L376
 4722 0168 9B00     	 lsl r3,r3,#2
 4723 016a 0A93     	 str r3,[sp,#40]
1501://MAC/Home/Downloads/getstarted-optiga-trust-m/optiga-trust-m-1/externals/mbedtls/library/bignum.c ****             T1.p[1] = Y.p[t];
 4724              	 .loc 1 1501 0
 4725 016c 043B     	 sub r3,r3,#4
 4726 016e 0B93     	 str r3,[sp,#44]
 4727 0170 089B     	 ldr r3,[sp,#32]
 4728 0172 9B18     	 add r3,r3,r2
 4729 0174 099A     	 ldr r2,[sp,#36]
 4730 0176 9B1A     	 sub r3,r3,r2
 4731 0178 794A     	 ldr r2,.L376+4
 4732 017a 5B01     	 lsl r3,r3,#5
 4733 017c 9446     	 mov ip,r2
 4734 017e 0693     	 str r3,[sp,#24]
 4735 0180 089B     	 ldr r3,[sp,#32]
 4736 0182 6344     	 add r3,r3,ip
 4737 0184 9D00     	 lsl r5,r3,#2
 4738              	.LVL737:
 4739 0186 099B     	 ldr r3,[sp,#36]
 4740 0188 9B00     	 lsl r3,r3,#2
 4741 018a 5B42     	 neg r3,r3
 4742 018c 0893     	 str r3,[sp,#32]
 4743              	.LVL738:
 4744              	.L339:
1485://MAC/Home/Downloads/getstarted-optiga-trust-m/optiga-trust-m-1/externals/mbedtls/library/bignum.c ****     {
 4745              	 .loc 1 1485 0 discriminator 1
 4746 018e 029B     	 ldr r3,[sp,#8]
 4747 0190 059A     	 ldr r2,[sp,#20]
 4748 0192 9342     	 cmp r3,r2
 4749 0194 00D8     	 bhi .LCB5338
 4750 0196 A0E0     	 b .L375
 4751              	.LCB5338:
1487://MAC/Home/Downloads/getstarted-optiga-trust-m/optiga-trust-m-1/externals/mbedtls/library/bignum.c ****             Z.p[i - t - 1] = ~0;
 4752              	 .loc 1 1487 0
 4753 0198 119B     	 ldr r3,[sp,#68]
 4754 019a 149A     	 ldr r2,[sp,#80]
 4755 019c 0A98     	 ldr r0,[sp,#40]
 4756 019e 5959     	 ldr r1,[r3,r5]
 4757 01a0 1258     	 ldr r2,[r2,r0]
 4758 01a2 9142     	 cmp r1,r2
 4759 01a4 06D3     	 bcc .L340
1488://MAC/Home/Downloads/getstarted-optiga-trust-m/optiga-trust-m-1/externals/mbedtls/library/bignum.c ****         else
 4760              	 .loc 1 1488 0
 4761 01a6 0122     	 mov r2,#1
 4762 01a8 179B     	 ldr r3,[sp,#92]
 4763 01aa 0899     	 ldr r1,[sp,#32]
 4764 01ac 5B19     	 add r3,r3,r5
 4765 01ae 5242     	 neg r2,r2
 4766 01b0 5A50     	 str r2,[r3,r1]
 4767 01b2 10E0     	 b .L341
 4768              	.L340:
 4769 01b4 0898     	 ldr r0,[sp,#32]
1491://MAC/Home/Downloads/getstarted-optiga-trust-m/optiga-trust-m-1/externals/mbedtls/library/bignum.c ****                                                             Y.p[t], NULL);
 4770              	 .loc 1 1491 0
 4771 01b6 5B19     	 add r3,r3,r5
 4772 01b8 2E18     	 add r6,r5,r0
 4773 01ba 1798     	 ldr r0,[sp,#92]
 4774 01bc 043B     	 sub r3,r3,#4
 4775 01be 8619     	 add r6,r0,r6
 4776 01c0 1868     	 ldr r0,[r3]
 4777              	.LVL739:
 4778              	.LBB123:
 4779              	.LBB124:
1355://MAC/Home/Downloads/getstarted-optiga-trust-m/optiga-trust-m-1/externals/mbedtls/library/bignum.c ****     {
 4780              	 .loc 1 1355 0
 4781 01c2 002A     	 cmp r2,#0
 4782 01c4 04D0     	 beq .L355
 4783              	.LVL740:
1365://MAC/Home/Downloads/getstarted-optiga-trust-m/optiga-trust-m-1/externals/mbedtls/library/bignum.c ****     if( quotient > ( (mbedtls_t_udbl) 1 << biL ) - 1 )
 4784              	 .loc 1 1365 0
 4785 01c6 0023     	 mov r3,#0
 4786 01c8 FFF7FEFF 	 bl __aeabi_uldivmod
 4787              	.LVL741:
 4788 01cc 0029     	 cmp r1,#0
 4789 01ce 01D0     	 beq .L342
 4790              	.LVL742:
 4791              	.L355:
1359://MAC/Home/Downloads/getstarted-optiga-trust-m/optiga-trust-m-1/externals/mbedtls/library/bignum.c ****     }
 4792              	 .loc 1 1359 0
 4793 01d0 0120     	 mov r0,#1
 4794 01d2 4042     	 neg r0,r0
 4795              	.L342:
 4796              	.LBE124:
 4797              	.LBE123:
1491://MAC/Home/Downloads/getstarted-optiga-trust-m/optiga-trust-m-1/externals/mbedtls/library/bignum.c ****                                                             Y.p[t], NULL);
 4798              	 .loc 1 1491 0
 4799 01d4 3060     	 str r0,[r6]
 4800              	.LVL743:
 4801              	.L341:
 4802 01d6 089B     	 ldr r3,[sp,#32]
 4803 01d8 EE18     	 add r6,r5,r3
1495://MAC/Home/Downloads/getstarted-optiga-trust-m/optiga-trust-m-1/externals/mbedtls/library/bignum.c ****         do
 4804              	 .loc 1 1495 0
 4805 01da 179B     	 ldr r3,[sp,#92]
 4806 01dc 9B19     	 add r3,r3,r6
 4807 01de 1A68     	 ldr r2,[r3]
 4808 01e0 0132     	 add r2,r2,#1
 4809 01e2 1A60     	 str r2,[r3]
 4810 01e4 2B1C     	 mov r3,r5
 4811 01e6 083B     	 sub r3,r3,#8
 4812 01e8 0C93     	 str r3,[sp,#48]
 4813 01ea 2B1F     	 sub r3,r5,#4
 4814 01ec 0D93     	 str r3,[sp,#52]
 4815              	.LVL744:
 4816              	.L347:
1498://MAC/Home/Downloads/getstarted-optiga-trust-m/optiga-trust-m-1/externals/mbedtls/library/bignum.c **** 
 4817              	 .loc 1 1498 0
 4818 01ee 179B     	 ldr r3,[sp,#92]
1500://MAC/Home/Downloads/getstarted-optiga-trust-m/optiga-trust-m-1/externals/mbedtls/library/bignum.c ****             T1.p[0] = ( t < 1 ) ? 0 : Y.p[t - 1];
 4819              	 .loc 1 1500 0
 4820 01f0 18A8     	 add r0,sp,#96
 4821              	.LVL745:
1498://MAC/Home/Downloads/getstarted-optiga-trust-m/optiga-trust-m-1/externals/mbedtls/library/bignum.c **** 
 4822              	 .loc 1 1498 0
 4823 01f2 9B19     	 add r3,r3,r6
 4824 01f4 1A68     	 ldr r2,[r3]
1500://MAC/Home/Downloads/getstarted-optiga-trust-m/optiga-trust-m-1/externals/mbedtls/library/bignum.c ****             T1.p[0] = ( t < 1 ) ? 0 : Y.p[t - 1];
 4825              	 .loc 1 1500 0
 4826 01f6 0021     	 mov r1,#0
1498://MAC/Home/Downloads/getstarted-optiga-trust-m/optiga-trust-m-1/externals/mbedtls/library/bignum.c **** 
 4827              	 .loc 1 1498 0
 4828 01f8 013A     	 sub r2,r2,#1
 4829 01fa 1A60     	 str r2,[r3]
1500://MAC/Home/Downloads/getstarted-optiga-trust-m/optiga-trust-m-1/externals/mbedtls/library/bignum.c ****             T1.p[0] = ( t < 1 ) ? 0 : Y.p[t - 1];
 4830              	 .loc 1 1500 0
 4831 01fc FFF7FEFF 	 bl mbedtls_mpi_lset
 4832              	.LVL746:
 4833 0200 0028     	 cmp r0,#0
 4834 0202 00D0     	 beq .LCB5439
 4835 0204 91E0     	 b .L368
 4836              	.LCB5439:
1501://MAC/Home/Downloads/getstarted-optiga-trust-m/optiga-trust-m-1/externals/mbedtls/library/bignum.c ****             T1.p[1] = Y.p[t];
 4837              	 .loc 1 1501 0
 4838 0206 059A     	 ldr r2,[sp,#20]
 4839 0208 1A9B     	 ldr r3,[sp,#104]
 4840 020a 002A     	 cmp r2,#0
 4841 020c 02D0     	 beq .L345
1501://MAC/Home/Downloads/getstarted-optiga-trust-m/optiga-trust-m-1/externals/mbedtls/library/bignum.c ****             T1.p[1] = Y.p[t];
 4842              	 .loc 1 1501 0 is_stmt 0 discriminator 1
 4843 020e 149A     	 ldr r2,[sp,#80]
 4844 0210 0B99     	 ldr r1,[sp,#44]
 4845 0212 5058     	 ldr r0,[r2,r1]
 4846              	.LVL747:
 4847              	.L345:
1502://MAC/Home/Downloads/getstarted-optiga-trust-m/optiga-trust-m-1/externals/mbedtls/library/bignum.c ****             MBEDTLS_MPI_CHK( mbedtls_mpi_mul_int( &T1, &T1, Z.p[i - t - 1] ) );
 4848              	 .loc 1 1502 0 is_stmt 1 discriminator 4
 4849 0214 149A     	 ldr r2,[sp,#80]
 4850 0216 0A99     	 ldr r1,[sp,#40]
1501://MAC/Home/Downloads/getstarted-optiga-trust-m/optiga-trust-m-1/externals/mbedtls/library/bignum.c ****             T1.p[1] = Y.p[t];
 4851              	 .loc 1 1501 0 discriminator 4
 4852 0218 1860     	 str r0,[r3]
1502://MAC/Home/Downloads/getstarted-optiga-trust-m/optiga-trust-m-1/externals/mbedtls/library/bignum.c ****             MBEDTLS_MPI_CHK( mbedtls_mpi_mul_int( &T1, &T1, Z.p[i - t - 1] ) );
 4853              	 .loc 1 1502 0 discriminator 4
 4854 021a 5258     	 ldr r2,[r2,r1]
1503://MAC/Home/Downloads/getstarted-optiga-trust-m/optiga-trust-m-1/externals/mbedtls/library/bignum.c **** 
 4855              	 .loc 1 1503 0 discriminator 4
 4856 021c 18A8     	 add r0,sp,#96
 4857              	.LVL748:
1502://MAC/Home/Downloads/getstarted-optiga-trust-m/optiga-trust-m-1/externals/mbedtls/library/bignum.c ****             MBEDTLS_MPI_CHK( mbedtls_mpi_mul_int( &T1, &T1, Z.p[i - t - 1] ) );
 4858              	 .loc 1 1502 0 discriminator 4
 4859 021e 5A60     	 str r2,[r3,#4]
1503://MAC/Home/Downloads/getstarted-optiga-trust-m/optiga-trust-m-1/externals/mbedtls/library/bignum.c **** 
 4860              	 .loc 1 1503 0 discriminator 4
 4861 0220 179B     	 ldr r3,[sp,#92]
 4862 0222 011C     	 mov r1,r0
 4863 0224 9A59     	 ldr r2,[r3,r6]
 4864 0226 FFF7FEFF 	 bl mbedtls_mpi_mul_int
 4865              	.LVL749:
 4866 022a 011E     	 sub r1,r0,#0
 4867              	.LVL750:
 4868 022c 00D0     	 beq .LCB5473
 4869 022e 7EE0     	 b .L369
 4870              	.LCB5473:
1505://MAC/Home/Downloads/getstarted-optiga-trust-m/optiga-trust-m-1/externals/mbedtls/library/bignum.c ****             T2.p[0] = ( i < 2 ) ? 0 : X.p[i - 2];
 4871              	 .loc 1 1505 0
 4872 0230 1BA8     	 add r0,sp,#108
 4873              	.LVL751:
 4874 0232 FFF7FEFF 	 bl mbedtls_mpi_lset
 4875              	.LVL752:
 4876 0236 0028     	 cmp r0,#0
 4877 0238 77D1     	 bne .L368
1506://MAC/Home/Downloads/getstarted-optiga-trust-m/optiga-trust-m-1/externals/mbedtls/library/bignum.c ****             T2.p[1] = ( i < 1 ) ? 0 : X.p[i - 1];
 4878              	 .loc 1 1506 0
 4879 023a 029A     	 ldr r2,[sp,#8]
 4880 023c 1D9B     	 ldr r3,[sp,#116]
 4881 023e 012A     	 cmp r2,#1
 4882 0240 02D0     	 beq .L346
1506://MAC/Home/Downloads/getstarted-optiga-trust-m/optiga-trust-m-1/externals/mbedtls/library/bignum.c ****             T2.p[1] = ( i < 1 ) ? 0 : X.p[i - 1];
 4883              	 .loc 1 1506 0 is_stmt 0 discriminator 1
 4884 0242 119A     	 ldr r2,[sp,#68]
 4885 0244 0C99     	 ldr r1,[sp,#48]
 4886 0246 5058     	 ldr r0,[r2,r1]
 4887              	.LVL753:
 4888              	.L346:
1507://MAC/Home/Downloads/getstarted-optiga-trust-m/optiga-trust-m-1/externals/mbedtls/library/bignum.c ****             T2.p[2] = X.p[i];
 4889              	 .loc 1 1507 0 is_stmt 1 discriminator 4
 4890 0248 119A     	 ldr r2,[sp,#68]
 4891 024a 0D99     	 ldr r1,[sp,#52]
1506://MAC/Home/Downloads/getstarted-optiga-trust-m/optiga-trust-m-1/externals/mbedtls/library/bignum.c ****             T2.p[1] = ( i < 1 ) ? 0 : X.p[i - 1];
 4892              	 .loc 1 1506 0 discriminator 4
 4893 024c 1860     	 str r0,[r3]
1507://MAC/Home/Downloads/getstarted-optiga-trust-m/optiga-trust-m-1/externals/mbedtls/library/bignum.c ****             T2.p[2] = X.p[i];
 4894              	 .loc 1 1507 0 discriminator 4
 4895 024e 5158     	 ldr r1,[r2,r1]
1510://MAC/Home/Downloads/getstarted-optiga-trust-m/optiga-trust-m-1/externals/mbedtls/library/bignum.c **** 
 4896              	 .loc 1 1510 0 discriminator 4
 4897 0250 18A8     	 add r0,sp,#96
 4898              	.LVL754:
1507://MAC/Home/Downloads/getstarted-optiga-trust-m/optiga-trust-m-1/externals/mbedtls/library/bignum.c ****             T2.p[2] = X.p[i];
 4899              	 .loc 1 1507 0 discriminator 4
 4900 0252 5960     	 str r1,[r3,#4]
1508://MAC/Home/Downloads/getstarted-optiga-trust-m/optiga-trust-m-1/externals/mbedtls/library/bignum.c ****         }
 4901              	 .loc 1 1508 0 discriminator 4
 4902 0254 5259     	 ldr r2,[r2,r5]
1507://MAC/Home/Downloads/getstarted-optiga-trust-m/optiga-trust-m-1/externals/mbedtls/library/bignum.c ****             T2.p[2] = X.p[i];
 4903              	 .loc 1 1507 0 discriminator 4
 4904 0256 0991     	 str r1,[sp,#36]
1508://MAC/Home/Downloads/getstarted-optiga-trust-m/optiga-trust-m-1/externals/mbedtls/library/bignum.c ****         }
 4905              	 .loc 1 1508 0 discriminator 4
 4906 0258 9A60     	 str r2,[r3,#8]
1510://MAC/Home/Downloads/getstarted-optiga-trust-m/optiga-trust-m-1/externals/mbedtls/library/bignum.c **** 
 4907              	 .loc 1 1510 0 discriminator 4
 4908 025a 1BA9     	 add r1,sp,#108
 4909              	.LVL755:
 4910 025c FFF7FEFF 	 bl mbedtls_mpi_cmp_mpi
 4911              	.LVL756:
 4912 0260 0028     	 cmp r0,#0
 4913 0262 C4DC     	 bgt .L347
1512://MAC/Home/Downloads/getstarted-optiga-trust-m/optiga-trust-m-1/externals/mbedtls/library/bignum.c ****         MBEDTLS_MPI_CHK( mbedtls_mpi_shift_l( &T1,  biL * ( i - t - 1 ) ) );
 4914              	 .loc 1 1512 0
 4915 0264 179B     	 ldr r3,[sp,#92]
 4916 0266 18A8     	 add r0,sp,#96
 4917              	.LVL757:
 4918 0268 12A9     	 add r1,sp,#72
 4919 026a 9A59     	 ldr r2,[r3,r6]
 4920 026c 0993     	 str r3,[sp,#36]
 4921 026e FFF7FEFF 	 bl mbedtls_mpi_mul_int
 4922              	.LVL758:
 4923 0272 0028     	 cmp r0,#0
 4924 0274 59D1     	 bne .L368
1513://MAC/Home/Downloads/getstarted-optiga-trust-m/optiga-trust-m-1/externals/mbedtls/library/bignum.c ****         MBEDTLS_MPI_CHK( mbedtls_mpi_sub_mpi( &X, &X, &T1 ) );
 4925              	 .loc 1 1513 0
 4926 0276 18A8     	 add r0,sp,#96
 4927              	.LVL759:
 4928 0278 0699     	 ldr r1,[sp,#24]
 4929 027a FFF7FEFF 	 bl mbedtls_mpi_shift_l
 4930              	.LVL760:
 4931 027e 0028     	 cmp r0,#0
 4932 0280 53D1     	 bne .L368
1514://MAC/Home/Downloads/getstarted-optiga-trust-m/optiga-trust-m-1/externals/mbedtls/library/bignum.c **** 
 4933              	 .loc 1 1514 0
 4934 0282 0FA8     	 add r0,sp,#60
 4935              	.LVL761:
 4936 0284 011C     	 mov r1,r0
 4937 0286 18AA     	 add r2,sp,#96
 4938              	.LVL762:
 4939 0288 FFF7FEFF 	 bl mbedtls_mpi_sub_mpi
 4940              	.LVL763:
 4941 028c 011E     	 sub r1,r0,#0
 4942              	.LVL764:
 4943 028e 4ED1     	 bne .L369
1516://MAC/Home/Downloads/getstarted-optiga-trust-m/optiga-trust-m-1/externals/mbedtls/library/bignum.c ****         {
 4944              	 .loc 1 1516 0
 4945 0290 0FA8     	 add r0,sp,#60
 4946              	.LVL765:
 4947 0292 FFF7FEFF 	 bl mbedtls_mpi_cmp_int
 4948              	.LVL766:
 4949 0296 0028     	 cmp r0,#0
 4950 0298 17DA     	 bge .L348
1518://MAC/Home/Downloads/getstarted-optiga-trust-m/optiga-trust-m-1/externals/mbedtls/library/bignum.c ****             MBEDTLS_MPI_CHK( mbedtls_mpi_shift_l( &T1, biL * ( i - t - 1 ) ) );
 4951              	 .loc 1 1518 0
 4952 029a 18A8     	 add r0,sp,#96
 4953              	.LVL767:
 4954 029c 12A9     	 add r1,sp,#72
 4955 029e FFF7FEFF 	 bl mbedtls_mpi_copy
 4956              	.LVL768:
 4957 02a2 0028     	 cmp r0,#0
 4958 02a4 41D1     	 bne .L368
1519://MAC/Home/Downloads/getstarted-optiga-trust-m/optiga-trust-m-1/externals/mbedtls/library/bignum.c ****             MBEDTLS_MPI_CHK( mbedtls_mpi_add_mpi( &X, &X, &T1 ) );
 4959              	 .loc 1 1519 0
 4960 02a6 18A8     	 add r0,sp,#96
 4961              	.LVL769:
 4962 02a8 0699     	 ldr r1,[sp,#24]
 4963 02aa FFF7FEFF 	 bl mbedtls_mpi_shift_l
 4964              	.LVL770:
 4965 02ae 0028     	 cmp r0,#0
 4966 02b0 3BD1     	 bne .L368
1520://MAC/Home/Downloads/getstarted-optiga-trust-m/optiga-trust-m-1/externals/mbedtls/library/bignum.c ****             Z.p[i - t - 1]--;
 4967              	 .loc 1 1520 0
 4968 02b2 0FA8     	 add r0,sp,#60
 4969              	.LVL771:
 4970 02b4 011C     	 mov r1,r0
 4971 02b6 18AA     	 add r2,sp,#96
 4972              	.LVL772:
 4973 02b8 FFF7FEFF 	 bl mbedtls_mpi_add_mpi
 4974              	.LVL773:
 4975 02bc 0028     	 cmp r0,#0
 4976 02be 34D1     	 bne .L368
1521://MAC/Home/Downloads/getstarted-optiga-trust-m/optiga-trust-m-1/externals/mbedtls/library/bignum.c ****         }
 4977              	 .loc 1 1521 0
 4978 02c0 179B     	 ldr r3,[sp,#92]
 4979 02c2 9E19     	 add r6,r3,r6
 4980 02c4 3368     	 ldr r3,[r6]
 4981 02c6 013B     	 sub r3,r3,#1
 4982 02c8 3360     	 str r3,[r6]
 4983              	.LVL774:
 4984              	.L348:
1485://MAC/Home/Downloads/getstarted-optiga-trust-m/optiga-trust-m-1/externals/mbedtls/library/bignum.c ****     {
 4985              	 .loc 1 1485 0 discriminator 2
 4986 02ca 029B     	 ldr r3,[sp,#8]
 4987 02cc 043D     	 sub r5,r5,#4
 4988 02ce 013B     	 sub r3,r3,#1
 4989 02d0 0293     	 str r3,[sp,#8]
 4990              	.LVL775:
 4991 02d2 069B     	 ldr r3,[sp,#24]
 4992              	.LVL776:
 4993 02d4 203B     	 sub r3,r3,#32
 4994 02d6 0693     	 str r3,[sp,#24]
 4995 02d8 59E7     	 b .L339
 4996              	.LVL777:
 4997              	.L375:
1525://MAC/Home/Downloads/getstarted-optiga-trust-m/optiga-trust-m-1/externals/mbedtls/library/bignum.c ****     {
 4998              	 .loc 1 1525 0
 4999 02da 039B     	 ldr r3,[sp,#12]
 5000              	.LVL778:
 5001 02dc 002B     	 cmp r3,#0
 5002 02de 0BD0     	 beq .L350
1527://MAC/Home/Downloads/getstarted-optiga-trust-m/optiga-trust-m-1/externals/mbedtls/library/bignum.c ****         Q->s = A->s * B->s;
 5003              	 .loc 1 1527 0
 5004 02e0 181C     	 mov r0,r3
 5005 02e2 15A9     	 add r1,sp,#84
 5006              	.LVL779:
 5007 02e4 FFF7FEFF 	 bl mbedtls_mpi_copy
 5008              	.LVL780:
 5009 02e8 0028     	 cmp r0,#0
 5010 02ea 1ED1     	 bne .L368
1528://MAC/Home/Downloads/getstarted-optiga-trust-m/optiga-trust-m-1/externals/mbedtls/library/bignum.c ****     }
 5011              	 .loc 1 1528 0
 5012 02ec 079B     	 ldr r3,[sp,#28]
 5013 02ee 3A68     	 ldr r2,[r7]
 5014 02f0 1B68     	 ldr r3,[r3]
 5015 02f2 5343     	 mul r3,r2
 5016 02f4 039A     	 ldr r2,[sp,#12]
 5017 02f6 1360     	 str r3,[r2]
 5018              	.LVL781:
 5019              	.L350:
1531://MAC/Home/Downloads/getstarted-optiga-trust-m/optiga-trust-m-1/externals/mbedtls/library/bignum.c ****     {
 5020              	 .loc 1 1531 0
 5021 02f8 019B     	 ldr r3,[sp,#4]
 5022 02fa 002B     	 cmp r3,#0
 5023 02fc 18D0     	 beq .L334
1533://MAC/Home/Downloads/getstarted-optiga-trust-m/optiga-trust-m-1/externals/mbedtls/library/bignum.c ****         X.s = A->s;
 5024              	 .loc 1 1533 0
 5025 02fe 0FA8     	 add r0,sp,#60
 5026              	.LVL782:
 5027 0300 0499     	 ldr r1,[sp,#16]
 5028 0302 FFF7FEFF 	 bl mbedtls_mpi_shift_r
 5029              	.LVL783:
 5030 0306 0028     	 cmp r0,#0
 5031 0308 0FD1     	 bne .L368
1534://MAC/Home/Downloads/getstarted-optiga-trust-m/optiga-trust-m-1/externals/mbedtls/library/bignum.c ****         MBEDTLS_MPI_CHK( mbedtls_mpi_copy( R, &X ) );
 5032              	 .loc 1 1534 0
 5033 030a 3B68     	 ldr r3,[r7]
1535://MAC/Home/Downloads/getstarted-optiga-trust-m/optiga-trust-m-1/externals/mbedtls/library/bignum.c **** 
 5034              	 .loc 1 1535 0
 5035 030c 0FA9     	 add r1,sp,#60
 5036              	.LVL784:
 5037 030e 0198     	 ldr r0,[sp,#4]
 5038              	.LVL785:
1534://MAC/Home/Downloads/getstarted-optiga-trust-m/optiga-trust-m-1/externals/mbedtls/library/bignum.c ****         MBEDTLS_MPI_CHK( mbedtls_mpi_copy( R, &X ) );
 5039              	 .loc 1 1534 0
 5040 0310 0F93     	 str r3,[sp,#60]
1535://MAC/Home/Downloads/getstarted-optiga-trust-m/optiga-trust-m-1/externals/mbedtls/library/bignum.c **** 
 5041              	 .loc 1 1535 0
 5042 0312 FFF7FEFF 	 bl mbedtls_mpi_copy
 5043              	.LVL786:
 5044 0316 011E     	 sub r1,r0,#0
 5045              	.LVL787:
 5046 0318 09D1     	 bne .L369
1537://MAC/Home/Downloads/getstarted-optiga-trust-m/optiga-trust-m-1/externals/mbedtls/library/bignum.c ****             R->s = 1;
 5047              	 .loc 1 1537 0
 5048 031a 0198     	 ldr r0,[sp,#4]
 5049              	.LVL788:
 5050 031c FFF7FEFF 	 bl mbedtls_mpi_cmp_int
 5051              	.LVL789:
 5052 0320 0028     	 cmp r0,#0
 5053 0322 05D1     	 bne .L334
1538://MAC/Home/Downloads/getstarted-optiga-trust-m/optiga-trust-m-1/externals/mbedtls/library/bignum.c ****     }
 5054              	 .loc 1 1538 0
 5055 0324 0123     	 mov r3,#1
 5056 0326 019A     	 ldr r2,[sp,#4]
 5057 0328 1360     	 str r3,[r2]
 5058              	.L368:
 5059 032a 041C     	 mov r4,r0
 5060 032c 00E0     	 b .L334
 5061              	.LVL790:
 5062              	.L369:
 5063 032e 0C1C     	 mov r4,r1
 5064              	.LVL791:
 5065              	.L334:
1543://MAC/Home/Downloads/getstarted-optiga-trust-m/optiga-trust-m-1/externals/mbedtls/library/bignum.c ****     mbedtls_mpi_free( &T1 ); mbedtls_mpi_free( &T2 );
 5066              	 .loc 1 1543 0
 5067 0330 0FA8     	 add r0,sp,#60
 5068              	.LVL792:
 5069 0332 FFF7FEFF 	 bl mbedtls_mpi_free
 5070              	.LVL793:
 5071 0336 12A8     	 add r0,sp,#72
 5072              	.LVL794:
 5073 0338 FFF7FEFF 	 bl mbedtls_mpi_free
 5074              	.LVL795:
 5075 033c 15A8     	 add r0,sp,#84
 5076              	.LVL796:
 5077 033e FFF7FEFF 	 bl mbedtls_mpi_free
 5078              	.LVL797:
1544://MAC/Home/Downloads/getstarted-optiga-trust-m/optiga-trust-m-1/externals/mbedtls/library/bignum.c **** 
 5079              	 .loc 1 1544 0
 5080 0342 18A8     	 add r0,sp,#96
 5081              	.LVL798:
 5082 0344 FFF7FEFF 	 bl mbedtls_mpi_free
 5083              	.LVL799:
 5084 0348 1BA8     	 add r0,sp,#108
 5085              	.LVL800:
 5086 034a FFF7FEFF 	 bl mbedtls_mpi_free
 5087              	.LVL801:
1546://MAC/Home/Downloads/getstarted-optiga-trust-m/optiga-trust-m-1/externals/mbedtls/library/bignum.c **** }
 5088              	 .loc 1 1546 0
 5089 034e 201C     	 mov r0,r4
 5090 0350 01E0     	 b .L329
 5091              	.LVL802:
 5092              	.L353:
1444://MAC/Home/Downloads/getstarted-optiga-trust-m/optiga-trust-m-1/externals/mbedtls/library/bignum.c **** 
 5093              	 .loc 1 1444 0
 5094 0352 0C20     	 mov r0,#12
 5095 0354 4042     	 neg r0,r0
 5096              	.L329:
1547://MAC/Home/Downloads/getstarted-optiga-trust-m/optiga-trust-m-1/externals/mbedtls/library/bignum.c **** 
 5097              	 .loc 1 1547 0
 5098 0356 1FB0     	 add sp,sp,#124
 5099              	 
 5100              	.LVL803:
 5101 0358 F0BD     	 pop {r4,r5,r6,r7,pc}
 5102              	.L377:
 5103 035a C046     	 .align 2
 5104              	.L376:
 5105 035c FFFFFF07 	 .word 134217727
 5106 0360 FFFFFF3F 	 .word 1073741823
 5107              	 .cfi_endproc
 5108              	.LFE38:
 5110              	 .section .text.mbedtls_mpi_div_int,"ax",%progbits
 5111              	 .align 1
 5112              	 .global mbedtls_mpi_div_int
 5113              	 .code 16
 5114              	 .thumb_func
 5116              	mbedtls_mpi_div_int:
 5117              	.LFB39:
1555://MAC/Home/Downloads/getstarted-optiga-trust-m/optiga-trust-m-1/externals/mbedtls/library/bignum.c ****     mbedtls_mpi _B;
 5118              	 .loc 1 1555 0
 5119              	 .cfi_startproc
 5120              	.LVL804:
 5121 0000 30B5     	 push {r4,r5,lr}
 5122              	.LCFI40:
 5123              	 .cfi_def_cfa_offset 12
 5124              	 .cfi_offset 4,-12
 5125              	 .cfi_offset 5,-8
 5126              	 .cfi_offset 14,-4
1560://MAC/Home/Downloads/getstarted-optiga-trust-m/optiga-trust-m-1/externals/mbedtls/library/bignum.c ****     _B.s = ( b < 0 ) ? -1 : 1;
 5127              	 .loc 1 1560 0
 5128 0002 DD17     	 asr r5,r3,#31
 5129 0004 5C19     	 add r4,r3,r5
1555://MAC/Home/Downloads/getstarted-optiga-trust-m/optiga-trust-m-1/externals/mbedtls/library/bignum.c ****     mbedtls_mpi _B;
 5130              	 .loc 1 1555 0
 5131 0006 85B0     	 sub sp,sp,#20
 5132              	.LCFI41:
 5133              	 .cfi_def_cfa_offset 32
1560://MAC/Home/Downloads/getstarted-optiga-trust-m/optiga-trust-m-1/externals/mbedtls/library/bignum.c ****     _B.s = ( b < 0 ) ? -1 : 1;
 5134              	 .loc 1 1560 0
 5135 0008 6C40     	 eor r4,r5
 5136 000a 0094     	 str r4,[sp]
 5137 000c 0124     	 mov r4,#1
1561://MAC/Home/Downloads/getstarted-optiga-trust-m/optiga-trust-m-1/externals/mbedtls/library/bignum.c ****     _B.n = 1;
 5138              	 .loc 1 1561 0
 5139 000e DB17     	 asr r3,r3,#31
 5140              	.LVL805:
 5141 0010 2343     	 orr r3,r4
 5142 0012 0193     	 str r3,[sp,#4]
1563://MAC/Home/Downloads/getstarted-optiga-trust-m/optiga-trust-m-1/externals/mbedtls/library/bignum.c **** 
 5143              	 .loc 1 1563 0
 5144 0014 6B46     	 mov r3,sp
 5145 0016 0393     	 str r3,[sp,#12]
1565://MAC/Home/Downloads/getstarted-optiga-trust-m/optiga-trust-m-1/externals/mbedtls/library/bignum.c **** }
 5146              	 .loc 1 1565 0
 5147 0018 01AB     	 add r3,sp,#4
1562://MAC/Home/Downloads/getstarted-optiga-trust-m/optiga-trust-m-1/externals/mbedtls/library/bignum.c ****     _B.p = p;
 5148              	 .loc 1 1562 0
 5149 001a 0294     	 str r4,[sp,#8]
1565://MAC/Home/Downloads/getstarted-optiga-trust-m/optiga-trust-m-1/externals/mbedtls/library/bignum.c **** }
 5150              	 .loc 1 1565 0
 5151 001c FFF7FEFF 	 bl mbedtls_mpi_div_mpi
 5152              	.LVL806:
1566://MAC/Home/Downloads/getstarted-optiga-trust-m/optiga-trust-m-1/externals/mbedtls/library/bignum.c **** 
 5153              	 .loc 1 1566 0
 5154 0020 05B0     	 add sp,sp,#20
 5155              	 
 5156 0022 30BD     	 pop {r4,r5,pc}
 5157              	 .cfi_endproc
 5158              	.LFE39:
 5160              	 .section .text.mbedtls_mpi_mod_mpi,"ax",%progbits
 5161              	 .align 1
 5162              	 .global mbedtls_mpi_mod_mpi
 5163              	 .code 16
 5164              	 .thumb_func
 5166              	mbedtls_mpi_mod_mpi:
 5167              	.LFB40:
1572://MAC/Home/Downloads/getstarted-optiga-trust-m/optiga-trust-m-1/externals/mbedtls/library/bignum.c ****     int ret;
 5168              	 .loc 1 1572 0
 5169              	 .cfi_startproc
 5170              	.LVL807:
 5171 0000 70B5     	 push {r4,r5,r6,lr}
 5172              	.LCFI42:
 5173              	 .cfi_def_cfa_offset 16
 5174              	 .cfi_offset 4,-16
 5175              	 .cfi_offset 5,-12
 5176              	 .cfi_offset 6,-8
 5177              	 .cfi_offset 14,-4
1572://MAC/Home/Downloads/getstarted-optiga-trust-m/optiga-trust-m-1/externals/mbedtls/library/bignum.c ****     int ret;
 5178              	 .loc 1 1572 0
 5179 0002 041C     	 mov r4,r0
 5180 0004 0E1C     	 mov r6,r1
1578://MAC/Home/Downloads/getstarted-optiga-trust-m/optiga-trust-m-1/externals/mbedtls/library/bignum.c ****         return( MBEDTLS_ERR_MPI_NEGATIVE_VALUE );
 5181              	 .loc 1 1578 0
 5182 0006 101C     	 mov r0,r2
 5183              	.LVL808:
 5184 0008 0021     	 mov r1,#0
 5185              	.LVL809:
1572://MAC/Home/Downloads/getstarted-optiga-trust-m/optiga-trust-m-1/externals/mbedtls/library/bignum.c ****     int ret;
 5186              	 .loc 1 1572 0
 5187 000a 151C     	 mov r5,r2
1578://MAC/Home/Downloads/getstarted-optiga-trust-m/optiga-trust-m-1/externals/mbedtls/library/bignum.c ****         return( MBEDTLS_ERR_MPI_NEGATIVE_VALUE );
 5188              	 .loc 1 1578 0
 5189 000c FFF7FEFF 	 bl mbedtls_mpi_cmp_int
 5190              	.LVL810:
 5191 0010 0028     	 cmp r0,#0
 5192 0012 22DB     	 blt .L387
1581://MAC/Home/Downloads/getstarted-optiga-trust-m/optiga-trust-m-1/externals/mbedtls/library/bignum.c **** 
 5193              	 .loc 1 1581 0
 5194 0014 0020     	 mov r0,#0
 5195 0016 211C     	 mov r1,r4
 5196 0018 321C     	 mov r2,r6
 5197 001a 2B1C     	 mov r3,r5
 5198 001c FFF7FEFF 	 bl mbedtls_mpi_div_mpi
 5199              	.LVL811:
 5200              	.L392:
1584://MAC/Home/Downloads/getstarted-optiga-trust-m/optiga-trust-m-1/externals/mbedtls/library/bignum.c **** 
 5201              	 .loc 1 1584 0
 5202 0020 0028     	 cmp r0,#0
 5203 0022 1CD1     	 bne .L382
 5204              	.LVL812:
1583://MAC/Home/Downloads/getstarted-optiga-trust-m/optiga-trust-m-1/externals/mbedtls/library/bignum.c ****       MBEDTLS_MPI_CHK( mbedtls_mpi_add_mpi( R, R, B ) );
 5205              	 .loc 1 1583 0
 5206 0024 201C     	 mov r0,r4
 5207 0026 0021     	 mov r1,#0
 5208 0028 FFF7FEFF 	 bl mbedtls_mpi_cmp_int
 5209              	.LVL813:
 5210 002c 0028     	 cmp r0,#0
 5211 002e 0CDA     	 bge .L385
1584://MAC/Home/Downloads/getstarted-optiga-trust-m/optiga-trust-m-1/externals/mbedtls/library/bignum.c **** 
 5212              	 .loc 1 1584 0
 5213 0030 201C     	 mov r0,r4
 5214 0032 211C     	 mov r1,r4
 5215 0034 2A1C     	 mov r2,r5
 5216 0036 FFF7FEFF 	 bl mbedtls_mpi_add_mpi
 5217              	.LVL814:
 5218 003a F1E7     	 b .L392
 5219              	.L386:
1587://MAC/Home/Downloads/getstarted-optiga-trust-m/optiga-trust-m-1/externals/mbedtls/library/bignum.c **** 
 5220              	 .loc 1 1587 0
 5221 003c 201C     	 mov r0,r4
 5222 003e 211C     	 mov r1,r4
 5223 0040 2A1C     	 mov r2,r5
 5224 0042 FFF7FEFF 	 bl mbedtls_mpi_sub_mpi
 5225              	.LVL815:
 5226 0046 0028     	 cmp r0,#0
 5227 0048 09D1     	 bne .L382
 5228              	.LVL816:
 5229              	.L385:
1586://MAC/Home/Downloads/getstarted-optiga-trust-m/optiga-trust-m-1/externals/mbedtls/library/bignum.c ****       MBEDTLS_MPI_CHK( mbedtls_mpi_sub_mpi( R, R, B ) );
 5230              	 .loc 1 1586 0
 5231 004a 201C     	 mov r0,r4
 5232 004c 291C     	 mov r1,r5
 5233 004e FFF7FEFF 	 bl mbedtls_mpi_cmp_mpi
 5234              	.LVL817:
 5235 0052 0028     	 cmp r0,#0
 5236 0054 F2DA     	 bge .L386
 5237 0056 0020     	 mov r0,#0
 5238 0058 01E0     	 b .L382
 5239              	.LVL818:
 5240              	.L387:
1579://MAC/Home/Downloads/getstarted-optiga-trust-m/optiga-trust-m-1/externals/mbedtls/library/bignum.c **** 
 5241              	 .loc 1 1579 0
 5242 005a 0A20     	 mov r0,#10
 5243 005c 4042     	 neg r0,r0
 5244              	.L382:
1592://MAC/Home/Downloads/getstarted-optiga-trust-m/optiga-trust-m-1/externals/mbedtls/library/bignum.c **** 
 5245              	 .loc 1 1592 0
 5246              	 
 5247              	.LVL819:
 5248              	.LVL820:
 5249              	.LVL821:
 5250 005e 70BD     	 pop {r4,r5,r6,pc}
 5251              	 .cfi_endproc
 5252              	.LFE40:
 5254              	 .global __aeabi_uidiv
 5255              	 .section .text.mbedtls_mpi_mod_int,"ax",%progbits
 5256              	 .align 1
 5257              	 .global mbedtls_mpi_mod_int
 5258              	 .code 16
 5259              	 .thumb_func
 5261              	mbedtls_mpi_mod_int:
 5262              	.LFB41:
1598://MAC/Home/Downloads/getstarted-optiga-trust-m/optiga-trust-m-1/externals/mbedtls/library/bignum.c ****     size_t i;
 5263              	 .loc 1 1598 0
 5264              	 .cfi_startproc
 5265              	.LVL822:
 5266 0000 F0B5     	 push {r4,r5,r6,r7,lr}
 5267              	.LCFI43:
 5268              	 .cfi_def_cfa_offset 20
 5269              	 .cfi_offset 4,-20
 5270              	 .cfi_offset 5,-16
 5271              	 .cfi_offset 6,-12
 5272              	 .cfi_offset 7,-8
 5273              	 .cfi_offset 14,-4
 5274 0002 85B0     	 sub sp,sp,#20
 5275              	.LCFI44:
 5276              	 .cfi_def_cfa_offset 40
1604://MAC/Home/Downloads/getstarted-optiga-trust-m/optiga-trust-m-1/externals/mbedtls/library/bignum.c ****         return( MBEDTLS_ERR_MPI_DIVISION_BY_ZERO );
 5277              	 .loc 1 1604 0
 5278 0004 002A     	 cmp r2,#0
 5279 0006 3BD0     	 beq .L400
1607://MAC/Home/Downloads/getstarted-optiga-trust-m/optiga-trust-m-1/externals/mbedtls/library/bignum.c ****         return( MBEDTLS_ERR_MPI_NEGATIVE_VALUE );
 5280              	 .loc 1 1607 0
 5281 0008 3CDB     	 blt .L401
1615://MAC/Home/Downloads/getstarted-optiga-trust-m/optiga-trust-m-1/externals/mbedtls/library/bignum.c ****         return( 0 );
 5282              	 .loc 1 1615 0
 5283 000a 0023     	 mov r3,#0
1613://MAC/Home/Downloads/getstarted-optiga-trust-m/optiga-trust-m-1/externals/mbedtls/library/bignum.c ****     {
 5284              	 .loc 1 1613 0
 5285 000c 012A     	 cmp r2,#1
 5286 000e 05D0     	 beq .L408
1619://MAC/Home/Downloads/getstarted-optiga-trust-m/optiga-trust-m-1/externals/mbedtls/library/bignum.c ****     {
 5287              	 .loc 1 1619 0
 5288 0010 022A     	 cmp r2,#2
 5289 0012 05D1     	 bne .L396
1621://MAC/Home/Downloads/getstarted-optiga-trust-m/optiga-trust-m-1/externals/mbedtls/library/bignum.c ****         return( 0 );
 5290              	 .loc 1 1621 0
 5291 0014 8B68     	 ldr r3,[r1,#8]
 5292 0016 1A68     	 ldr r2,[r3]
 5293              	.LVL823:
 5294 0018 0123     	 mov r3,#1
 5295 001a 1340     	 and r3,r2
 5296              	.L408:
 5297 001c 0360     	 str r3,[r0]
 5298 001e 2DE0     	 b .L406
 5299              	.LVL824:
 5300              	.L396:
 5301 0020 0390     	 str r0,[sp,#12]
 5302              	.LVL825:
 5303 0022 141C     	 mov r4,r2
 5304              	.LVL826:
 5305 0024 0D1C     	 mov r5,r1
 5306              	.LBB127:
 5307              	.LBB128:
1628://MAC/Home/Downloads/getstarted-optiga-trust-m/optiga-trust-m-1/externals/mbedtls/library/bignum.c ****     {
 5308              	 .loc 1 1628 0
 5309 0026 0020     	 mov r0,#0
 5310              	.LVL827:
 5311 0028 4F68     	 ldr r7,[r1,#4]
 5312              	.LVL828:
 5313 002a 184B     	 ldr r3,.L410
 5314 002c FE18     	 add r6,r7,r3
 5315 002e B600     	 lsl r6,r6,#2
 5316              	.LVL829:
 5317              	.L397:
 5318 0030 002F     	 cmp r7,#0
 5319 0032 1BD0     	 beq .L409
1630://MAC/Home/Downloads/getstarted-optiga-trust-m/optiga-trust-m-1/externals/mbedtls/library/bignum.c ****         y  = ( y << biH ) | ( x >> biH );
 5320              	 .loc 1 1630 0
 5321 0034 AB68     	 ldr r3,[r5,#8]
1631://MAC/Home/Downloads/getstarted-optiga-trust-m/optiga-trust-m-1/externals/mbedtls/library/bignum.c ****         z  = y / b;
 5322              	 .loc 1 1631 0
 5323 0036 0004     	 lsl r0,r0,#16
 5324              	.LVL830:
1630://MAC/Home/Downloads/getstarted-optiga-trust-m/optiga-trust-m-1/externals/mbedtls/library/bignum.c ****         y  = ( y << biH ) | ( x >> biH );
 5325              	 .loc 1 1630 0
 5326 0038 9B59     	 ldr r3,[r3,r6]
1632://MAC/Home/Downloads/getstarted-optiga-trust-m/optiga-trust-m-1/externals/mbedtls/library/bignum.c ****         y -= z * b;
 5327              	 .loc 1 1632 0
 5328 003a 211C     	 mov r1,r4
1630://MAC/Home/Downloads/getstarted-optiga-trust-m/optiga-trust-m-1/externals/mbedtls/library/bignum.c ****         y  = ( y << biH ) | ( x >> biH );
 5329              	 .loc 1 1630 0
 5330 003c 0193     	 str r3,[sp,#4]
 5331              	.LVL831:
1631://MAC/Home/Downloads/getstarted-optiga-trust-m/optiga-trust-m-1/externals/mbedtls/library/bignum.c ****         z  = y / b;
 5332              	 .loc 1 1631 0
 5333 003e 1B0C     	 lsr r3,r3,#16
 5334              	.LVL832:
 5335 0040 0343     	 orr r3,r0
1632://MAC/Home/Downloads/getstarted-optiga-trust-m/optiga-trust-m-1/externals/mbedtls/library/bignum.c ****         y -= z * b;
 5336              	 .loc 1 1632 0
 5337 0042 181C     	 mov r0,r3
1631://MAC/Home/Downloads/getstarted-optiga-trust-m/optiga-trust-m-1/externals/mbedtls/library/bignum.c ****         z  = y / b;
 5338              	 .loc 1 1631 0
 5339 0044 0293     	 str r3,[sp,#8]
 5340              	.LVL833:
1632://MAC/Home/Downloads/getstarted-optiga-trust-m/optiga-trust-m-1/externals/mbedtls/library/bignum.c ****         y -= z * b;
 5341              	 .loc 1 1632 0
 5342 0046 FFF7FEFF 	 bl __aeabi_uidiv
 5343              	.LVL834:
1633://MAC/Home/Downloads/getstarted-optiga-trust-m/optiga-trust-m-1/externals/mbedtls/library/bignum.c **** 
 5344              	 .loc 1 1633 0
 5345 004a 6043     	 mul r0,r4
 5346              	.LVL835:
 5347 004c 029B     	 ldr r3,[sp,#8]
1637://MAC/Home/Downloads/getstarted-optiga-trust-m/optiga-trust-m-1/externals/mbedtls/library/bignum.c ****         y -= z * b;
 5348              	 .loc 1 1637 0
 5349 004e 211C     	 mov r1,r4
1633://MAC/Home/Downloads/getstarted-optiga-trust-m/optiga-trust-m-1/externals/mbedtls/library/bignum.c **** 
 5350              	 .loc 1 1633 0
 5351 0050 181A     	 sub r0,r3,r0
 5352              	.LVL836:
1636://MAC/Home/Downloads/getstarted-optiga-trust-m/optiga-trust-m-1/externals/mbedtls/library/bignum.c ****         z  = y / b;
 5353              	 .loc 1 1636 0
 5354 0052 6B46     	 mov r3,sp
 5355 0054 9B88     	 ldrh r3,[r3,#4]
 5356 0056 0004     	 lsl r0,r0,#16
 5357              	.LVL837:
 5358 0058 1843     	 orr r0,r3
 5359 005a 0190     	 str r0,[sp,#4]
 5360              	.LVL838:
1637://MAC/Home/Downloads/getstarted-optiga-trust-m/optiga-trust-m-1/externals/mbedtls/library/bignum.c ****         y -= z * b;
 5361              	 .loc 1 1637 0
 5362 005c FFF7FEFF 	 bl __aeabi_uidiv
 5363              	.LVL839:
1638://MAC/Home/Downloads/getstarted-optiga-trust-m/optiga-trust-m-1/externals/mbedtls/library/bignum.c ****     }
 5364              	 .loc 1 1638 0
 5365 0060 6043     	 mul r0,r4
 5366 0062 019B     	 ldr r3,[sp,#4]
1628://MAC/Home/Downloads/getstarted-optiga-trust-m/optiga-trust-m-1/externals/mbedtls/library/bignum.c ****     {
 5367              	 .loc 1 1628 0
 5368 0064 013F     	 sub r7,r7,#1
 5369              	.LVL840:
1638://MAC/Home/Downloads/getstarted-optiga-trust-m/optiga-trust-m-1/externals/mbedtls/library/bignum.c ****     }
 5370              	 .loc 1 1638 0
 5371 0066 181A     	 sub r0,r3,r0
 5372              	.LVL841:
 5373 0068 043E     	 sub r6,r6,#4
 5374 006a E1E7     	 b .L397
 5375              	.LVL842:
 5376              	.L409:
1645://MAC/Home/Downloads/getstarted-optiga-trust-m/optiga-trust-m-1/externals/mbedtls/library/bignum.c ****         y = b - y;
 5377              	 .loc 1 1645 0
 5378 006c 2B68     	 ldr r3,[r5]
 5379 006e 002B     	 cmp r3,#0
 5380 0070 02DA     	 bge .L399
 5381 0072 0028     	 cmp r0,#0
 5382 0074 00D0     	 beq .L399
1646://MAC/Home/Downloads/getstarted-optiga-trust-m/optiga-trust-m-1/externals/mbedtls/library/bignum.c **** 
 5383              	 .loc 1 1646 0
 5384 0076 201A     	 sub r0,r4,r0
 5385              	.LVL843:
 5386              	.L399:
1648://MAC/Home/Downloads/getstarted-optiga-trust-m/optiga-trust-m-1/externals/mbedtls/library/bignum.c **** 
 5387              	 .loc 1 1648 0
 5388 0078 039B     	 ldr r3,[sp,#12]
 5389 007a 1860     	 str r0,[r3]
 5390              	.LVL844:
 5391              	.L406:
 5392 007c 0020     	 mov r0,#0
 5393 007e 03E0     	 b .L394
 5394              	.LVL845:
 5395              	.L400:
 5396              	.LBE128:
 5397              	.LBE127:
1605://MAC/Home/Downloads/getstarted-optiga-trust-m/optiga-trust-m-1/externals/mbedtls/library/bignum.c **** 
 5398              	 .loc 1 1605 0
 5399 0080 0C20     	 mov r0,#12
 5400              	.LVL846:
 5401 0082 00E0     	 b .L407
 5402              	.LVL847:
 5403              	.L401:
1608://MAC/Home/Downloads/getstarted-optiga-trust-m/optiga-trust-m-1/externals/mbedtls/library/bignum.c **** 
 5404              	 .loc 1 1608 0
 5405 0084 0A20     	 mov r0,#10
 5406              	.LVL848:
 5407              	.L407:
 5408 0086 4042     	 neg r0,r0
 5409              	.LVL849:
 5410              	.L394:
1651://MAC/Home/Downloads/getstarted-optiga-trust-m/optiga-trust-m-1/externals/mbedtls/library/bignum.c **** 
 5411              	 .loc 1 1651 0
 5412 0088 05B0     	 add sp,sp,#20
 5413              	 
 5414 008a F0BD     	 pop {r4,r5,r6,r7,pc}
 5415              	.L411:
 5416              	 .align 2
 5417              	.L410:
 5418 008c FFFFFF3F 	 .word 1073741823
 5419              	 .cfi_endproc
 5420              	.LFE41:
 5422              	 .section .text.mpi_write_hlp,"ax",%progbits
 5423              	 .align 1
 5424              	 .code 16
 5425              	 .thumb_func
 5427              	mpi_write_hlp:
 5428              	.LFB18:
 533://MAC/Home/Downloads/getstarted-optiga-trust-m/optiga-trust-m-1/externals/mbedtls/library/bignum.c ****     int ret;
 5429              	 .loc 1 533 0
 5430              	 .cfi_startproc
 5431              	.LVL850:
 537://MAC/Home/Downloads/getstarted-optiga-trust-m/optiga-trust-m-1/externals/mbedtls/library/bignum.c ****         return( MBEDTLS_ERR_MPI_BAD_INPUT_DATA );
 5432              	 .loc 1 537 0
 5433 0000 8B1E     	 sub r3,r1,#2
 533://MAC/Home/Downloads/getstarted-optiga-trust-m/optiga-trust-m-1/externals/mbedtls/library/bignum.c ****     int ret;
 5434              	 .loc 1 533 0
 5435 0002 73B5     	 push {r0,r1,r4,r5,r6,lr}
 5436              	.LCFI45:
 5437              	 .cfi_def_cfa_offset 24
 5438              	 .cfi_offset 0,-24
 5439              	 .cfi_offset 1,-20
 5440              	 .cfi_offset 4,-16
 5441              	 .cfi_offset 5,-12
 5442              	 .cfi_offset 6,-8
 5443              	 .cfi_offset 14,-4
 537://MAC/Home/Downloads/getstarted-optiga-trust-m/optiga-trust-m-1/externals/mbedtls/library/bignum.c ****         return( MBEDTLS_ERR_MPI_BAD_INPUT_DATA );
 5444              	 .loc 1 537 0
 5445 0004 0E2B     	 cmp r3,#14
 5446 0006 2BD8     	 bhi .L418
 5447 0008 0E1C     	 mov r6,r1
 5448 000a 041C     	 mov r4,r0
 5449 000c 151C     	 mov r5,r2
 540://MAC/Home/Downloads/getstarted-optiga-trust-m/optiga-trust-m-1/externals/mbedtls/library/bignum.c ****     MBEDTLS_MPI_CHK( mbedtls_mpi_div_int( X, NULL, X, radix ) );
 5450              	 .loc 1 540 0
 5451 000e 211C     	 mov r1,r4
 5452              	.LVL851:
 5453 0010 01A8     	 add r0,sp,#4
 5454              	.LVL852:
 5455 0012 321C     	 mov r2,r6
 5456              	.LVL853:
 5457 0014 FFF7FEFF 	 bl mbedtls_mpi_mod_int
 5458              	.LVL854:
 5459 0018 011E     	 sub r1,r0,#0
 5460              	.LVL855:
 5461 001a 23D1     	 bne .L413
 541://MAC/Home/Downloads/getstarted-optiga-trust-m/optiga-trust-m-1/externals/mbedtls/library/bignum.c **** 
 5462              	 .loc 1 541 0
 5463 001c 201C     	 mov r0,r4
 5464              	.LVL856:
 5465 001e 221C     	 mov r2,r4
 5466 0020 331C     	 mov r3,r6
 5467 0022 FFF7FEFF 	 bl mbedtls_mpi_div_int
 5468              	.LVL857:
 5469 0026 011E     	 sub r1,r0,#0
 5470              	.LVL858:
 5471 0028 1CD1     	 bne .L413
 543://MAC/Home/Downloads/getstarted-optiga-trust-m/optiga-trust-m-1/externals/mbedtls/library/bignum.c ****         MBEDTLS_MPI_CHK( mpi_write_hlp( X, radix, p ) );
 5472              	 .loc 1 543 0
 5473 002a 201C     	 mov r0,r4
 5474              	.LVL859:
 5475 002c FFF7FEFF 	 bl mbedtls_mpi_cmp_int
 5476              	.LVL860:
 5477 0030 0028     	 cmp r0,#0
 5478 0032 07D1     	 bne .L414
 5479              	.L417:
 5480              	.LVL861:
 546://MAC/Home/Downloads/getstarted-optiga-trust-m/optiga-trust-m-1/externals/mbedtls/library/bignum.c ****         *(*p)++ = (char)( r + 0x30 );
 5481              	 .loc 1 546 0
 5482 0034 019B     	 ldr r3,[sp,#4]
 5483 0036 2A68     	 ldr r2,[r5]
 5484 0038 092B     	 cmp r3,#9
 5485 003a 0BD8     	 bhi .L424
 547://MAC/Home/Downloads/getstarted-optiga-trust-m/optiga-trust-m-1/externals/mbedtls/library/bignum.c ****     else
 5486              	 .loc 1 547 0
 5487 003c 511C     	 add r1,r2,#1
 5488 003e 2960     	 str r1,[r5]
 5489 0040 3033     	 add r3,r3,#48
 5490 0042 0AE0     	 b .L423
 5491              	.LVL862:
 5492              	.L414:
 544://MAC/Home/Downloads/getstarted-optiga-trust-m/optiga-trust-m-1/externals/mbedtls/library/bignum.c **** 
 5493              	 .loc 1 544 0
 5494 0044 311C     	 mov r1,r6
 5495 0046 201C     	 mov r0,r4
 5496 0048 2A1C     	 mov r2,r5
 5497 004a FFF7D9FF 	 bl mpi_write_hlp
 5498              	.LVL863:
 5499 004e 011E     	 sub r1,r0,#0
 5500              	.LVL864:
 5501 0050 08D1     	 bne .L413
 5502 0052 EFE7     	 b .L417
 5503              	.LVL865:
 5504              	.L424:
 549://MAC/Home/Downloads/getstarted-optiga-trust-m/optiga-trust-m-1/externals/mbedtls/library/bignum.c **** 
 5505              	 .loc 1 549 0
 5506 0054 511C     	 add r1,r2,#1
 5507 0056 2960     	 str r1,[r5]
 5508 0058 3733     	 add r3,r3,#55
 5509              	.L423:
 5510 005a 1370     	 strb r3,[r2]
 5511 005c 0021     	 mov r1,#0
 5512 005e 01E0     	 b .L413
 5513              	.LVL866:
 5514              	.L418:
 538://MAC/Home/Downloads/getstarted-optiga-trust-m/optiga-trust-m-1/externals/mbedtls/library/bignum.c **** 
 5515              	 .loc 1 538 0
 5516 0060 0421     	 mov r1,#4
 5517              	.LVL867:
 5518 0062 4942     	 neg r1,r1
 5519              	.LVL868:
 5520              	.L413:
 554://MAC/Home/Downloads/getstarted-optiga-trust-m/optiga-trust-m-1/externals/mbedtls/library/bignum.c **** 
 5521              	 .loc 1 554 0
 5522 0064 081C     	 mov r0,r1
 5523              	 
 5524 0066 76BD     	 pop {r1,r2,r4,r5,r6,pc}
 5525              	 .cfi_endproc
 5526              	.LFE18:
 5528              	 .section .text.mbedtls_mpi_write_string,"ax",%progbits
 5529              	 .align 1
 5530              	 .global mbedtls_mpi_write_string
 5531              	 .code 16
 5532              	 .thumb_func
 5534              	mbedtls_mpi_write_string:
 5535              	.LFB19:
 561://MAC/Home/Downloads/getstarted-optiga-trust-m/optiga-trust-m-1/externals/mbedtls/library/bignum.c ****     int ret = 0;
 5536              	 .loc 1 561 0
 5537              	 .cfi_startproc
 5538              	.LVL869:
 5539 0000 F0B5     	 push {r4,r5,r6,r7,lr}
 5540              	.LCFI46:
 5541              	 .cfi_def_cfa_offset 20
 5542              	 .cfi_offset 4,-20
 5543              	 .cfi_offset 5,-16
 5544              	 .cfi_offset 6,-12
 5545              	 .cfi_offset 7,-8
 5546              	 .cfi_offset 14,-4
 570://MAC/Home/Downloads/getstarted-optiga-trust-m/optiga-trust-m-1/externals/mbedtls/library/bignum.c ****         return( MBEDTLS_ERR_MPI_BAD_INPUT_DATA );
 5547              	 .loc 1 570 0
 5548 0002 8C1E     	 sub r4,r1,#2
 561://MAC/Home/Downloads/getstarted-optiga-trust-m/optiga-trust-m-1/externals/mbedtls/library/bignum.c ****     int ret = 0;
 5549              	 .loc 1 561 0
 5550 0004 87B0     	 sub sp,sp,#28
 5551              	.LCFI47:
 5552              	 .cfi_def_cfa_offset 48
 570://MAC/Home/Downloads/getstarted-optiga-trust-m/optiga-trust-m-1/externals/mbedtls/library/bignum.c ****         return( MBEDTLS_ERR_MPI_BAD_INPUT_DATA );
 5553              	 .loc 1 570 0
 5554 0006 0E2C     	 cmp r4,#14
 5555 0008 77D8     	 bhi .L438
 5556 000a 0C1C     	 mov r4,r1
 5557 000c 1F1C     	 mov r7,r3
 5558 000e 161C     	 mov r6,r2
 5559 0010 051C     	 mov r5,r0
 573://MAC/Home/Downloads/getstarted-optiga-trust-m/optiga-trust-m-1/externals/mbedtls/library/bignum.c ****     if( radix >=  4 ) n >>= 1;
 5560              	 .loc 1 573 0
 5561 0012 FFF7FEFF 	 bl mbedtls_mpi_bitlen
 5562              	.LVL870:
 574://MAC/Home/Downloads/getstarted-optiga-trust-m/optiga-trust-m-1/externals/mbedtls/library/bignum.c ****     if( radix >= 16 ) n >>= 1;
 5563              	 .loc 1 574 0
 5564 0016 032C     	 cmp r4,#3
 5565 0018 03DD     	 ble .L427
 574://MAC/Home/Downloads/getstarted-optiga-trust-m/optiga-trust-m-1/externals/mbedtls/library/bignum.c ****     if( radix >= 16 ) n >>= 1;
 5566              	 .loc 1 574 0 is_stmt 0 discriminator 1
 5567 001a 4008     	 lsr r0,r0,#1
 5568              	.LVL871:
 575://MAC/Home/Downloads/getstarted-optiga-trust-m/optiga-trust-m-1/externals/mbedtls/library/bignum.c ****     /*
 5569              	 .loc 1 575 0 is_stmt 1 discriminator 1
 5570 001c 102C     	 cmp r4,#16
 5571 001e 00D1     	 bne .L427
 5572 0020 4008     	 lsr r0,r0,#1
 5573              	.LVL872:
 5574              	.L427:
 581://MAC/Home/Downloads/getstarted-optiga-trust-m/optiga-trust-m-1/externals/mbedtls/library/bignum.c **** 
 5575              	 .loc 1 581 0
 5576 0022 0122     	 mov r2,#1
 5577 0024 431C     	 add r3,r0,#1
 5578 0026 1340     	 and r3,r2
 5579 0028 0330     	 add r0,r0,#3
 5580              	.LVL873:
 5581 002a C018     	 add r0,r0,r3
 5582              	.LVL874:
 583://MAC/Home/Downloads/getstarted-optiga-trust-m/optiga-trust-m-1/externals/mbedtls/library/bignum.c ****     {
 5583              	 .loc 1 583 0
 5584 002c 8742     	 cmp r7,r0
 5585 002e 03D2     	 bcs .L428
 585://MAC/Home/Downloads/getstarted-optiga-trust-m/optiga-trust-m-1/externals/mbedtls/library/bignum.c ****         return( MBEDTLS_ERR_MPI_BUFFER_TOO_SMALL );
 5586              	 .loc 1 585 0
 5587 0030 0C9B     	 ldr r3,[sp,#48]
 5588 0032 1860     	 str r0,[r3]
 586://MAC/Home/Downloads/getstarted-optiga-trust-m/optiga-trust-m-1/externals/mbedtls/library/bignum.c ****     }
 5589              	 .loc 1 586 0
 5590 0034 0820     	 mov r0,#8
 5591              	.LVL875:
 5592 0036 61E0     	 b .L443
 5593              	.LVL876:
 5594              	.L428:
 5595              	.LBB129:
 5596              	.LBB130:
  94://MAC/Home/Downloads/getstarted-optiga-trust-m/optiga-trust-m-1/externals/mbedtls/library/bignum.c ****     X->p = NULL;
 5597              	 .loc 1 94 0
 5598 0038 0023     	 mov r3,#0
 5599 003a 0493     	 str r3,[sp,#16]
  95://MAC/Home/Downloads/getstarted-optiga-trust-m/optiga-trust-m-1/externals/mbedtls/library/bignum.c **** }
 5600              	 .loc 1 95 0
 5601 003c 0593     	 str r3,[sp,#20]
 5602              	.LBE130:
 5603              	.LBE129:
 592://MAC/Home/Downloads/getstarted-optiga-trust-m/optiga-trust-m-1/externals/mbedtls/library/bignum.c ****         *p++ = '-';
 5604              	 .loc 1 592 0
 5605 003e 2B68     	 ldr r3,[r5]
 589://MAC/Home/Downloads/getstarted-optiga-trust-m/optiga-trust-m-1/externals/mbedtls/library/bignum.c ****     mbedtls_mpi_init( &T );
 5606              	 .loc 1 589 0
 5607 0040 0296     	 str r6,[sp,#8]
 5608              	.LVL877:
 5609              	.LBB132:
 5610              	.LBB131:
  93://MAC/Home/Downloads/getstarted-optiga-trust-m/optiga-trust-m-1/externals/mbedtls/library/bignum.c ****     X->n = 0;
 5611              	 .loc 1 93 0
 5612 0042 0392     	 str r2,[sp,#12]
 5613              	.LBE131:
 5614              	.LBE132:
 592://MAC/Home/Downloads/getstarted-optiga-trust-m/optiga-trust-m-1/externals/mbedtls/library/bignum.c ****         *p++ = '-';
 5615              	 .loc 1 592 0
 5616 0044 0133     	 add r3,r3,#1
 5617 0046 03D1     	 bne .L429
 593://MAC/Home/Downloads/getstarted-optiga-trust-m/optiga-trust-m-1/externals/mbedtls/library/bignum.c **** 
 5618              	 .loc 1 593 0
 5619 0048 731C     	 add r3,r6,#1
 5620 004a 0293     	 str r3,[sp,#8]
 5621 004c 2D23     	 mov r3,#45
 5622 004e 3370     	 strb r3,[r6]
 5623              	.L429:
 595://MAC/Home/Downloads/getstarted-optiga-trust-m/optiga-trust-m-1/externals/mbedtls/library/bignum.c ****     {
 5624              	 .loc 1 595 0
 5625 0050 102C     	 cmp r4,#16
 5626 0052 32D1     	 bne .L430
 5627 0054 2B4B     	 ldr r3,.L444
 5628              	.LBB133:
 600://MAC/Home/Downloads/getstarted-optiga-trust-m/optiga-trust-m-1/externals/mbedtls/library/bignum.c ****         {
 5629              	 .loc 1 600 0
 5630 0056 6A68     	 ldr r2,[r5,#4]
 5631              	.LVL878:
 5632 0058 D118     	 add r1,r2,r3
 5633 005a 8B00     	 lsl r3,r1,#2
 5634 005c 0193     	 str r3,[sp,#4]
 5635 005e 0023     	 mov r3,#0
 5636 0060 9C46     	 mov ip,r3
 5637              	.LVL879:
 5638              	.L431:
 600://MAC/Home/Downloads/getstarted-optiga-trust-m/optiga-trust-m-1/externals/mbedtls/library/bignum.c ****         {
 5639              	 .loc 1 600 0 is_stmt 0 discriminator 1
 5640 0062 002A     	 cmp r2,#0
 5641 0064 3BD0     	 beq .L437
 5642 0066 0423     	 mov r3,#4
 5643              	.L434:
 5644              	.LVL880:
 604://MAC/Home/Downloads/getstarted-optiga-trust-m/optiga-trust-m-1/externals/mbedtls/library/bignum.c **** 
 5645              	 .loc 1 604 0 is_stmt 1
 5646 0068 AC68     	 ldr r4,[r5,#8]
 5647 006a 0199     	 ldr r1,[sp,#4]
 5648 006c 5F1E     	 sub r7,r3,#1
 5649 006e 6458     	 ldr r4,[r4,r1]
 5650 0070 F800     	 lsl r0,r7,#3
 5651 0072 C440     	 lsr r4,r4,r0
 5652 0074 201C     	 mov r0,r4
 5653 0076 E4B2     	 uxtb r4,r4
 5654              	.LVL881:
 606://MAC/Home/Downloads/getstarted-optiga-trust-m/optiga-trust-m-1/externals/mbedtls/library/bignum.c ****                     continue;
 5655              	 .loc 1 606 0
 5656 0078 002C     	 cmp r4,#0
 5657 007a 05D1     	 bne .L432
 606://MAC/Home/Downloads/getstarted-optiga-trust-m/optiga-trust-m-1/externals/mbedtls/library/bignum.c ****                     continue;
 5658              	 .loc 1 606 0 is_stmt 0 discriminator 1
 5659 007c 6146     	 mov r1,ip
 5660 007e 0029     	 cmp r1,#0
 5661 0080 02D1     	 bne .L432
 5662 0082 9B18     	 add r3,r3,r2
 5663              	.LVL882:
 606://MAC/Home/Downloads/getstarted-optiga-trust-m/optiga-trust-m-1/externals/mbedtls/library/bignum.c ****                     continue;
 5664              	 .loc 1 606 0 discriminator 2
 5665 0084 022B     	 cmp r3,#2
 5666 0086 11D1     	 bne .L433
 5667              	.L432:
 609://MAC/Home/Downloads/getstarted-optiga-trust-m/optiga-trust-m-1/externals/mbedtls/library/bignum.c ****                 *(p++) = "0123456789ABCDEF" [c % 16];
 5668              	 .loc 1 609 0 is_stmt 1
 5669 0088 029B     	 ldr r3,[sp,#8]
 5670 008a 2411     	 asr r4,r4,#4
 5671              	.LVL883:
 5672 008c 9C46     	 mov ip,r3
 5673              	.LVL884:
 5674 008e 6146     	 mov r1,ip
 5675 0090 0133     	 add r3,r3,#1
 5676 0092 0293     	 str r3,[sp,#8]
 5677 0094 1C4B     	 ldr r3,.L444+4
 5678 0096 1C5D     	 ldrb r4,[r3,r4]
 5679 0098 0C70     	 strb r4,[r1]
 610://MAC/Home/Downloads/getstarted-optiga-trust-m/optiga-trust-m-1/externals/mbedtls/library/bignum.c ****                 k = 1;
 5680              	 .loc 1 610 0
 5681 009a 0299     	 ldr r1,[sp,#8]
 5682 009c 4C1C     	 add r4,r1,#1
 5683 009e 0294     	 str r4,[sp,#8]
 5684 00a0 0F24     	 mov r4,#15
 5685 00a2 2040     	 and r0,r4
 5686              	.LVL885:
 5687 00a4 1B5C     	 ldrb r3,[r3,r0]
 5688 00a6 0B70     	 strb r3,[r1]
 5689              	.LVL886:
 611://MAC/Home/Downloads/getstarted-optiga-trust-m/optiga-trust-m-1/externals/mbedtls/library/bignum.c ****             }
 5690              	 .loc 1 611 0
 5691 00a8 0123     	 mov r3,#1
 5692 00aa 9C46     	 mov ip,r3
 5693              	.LVL887:
 5694              	.L433:
 5695 00ac 3B1E     	 sub r3,r7,#0
 602://MAC/Home/Downloads/getstarted-optiga-trust-m/optiga-trust-m-1/externals/mbedtls/library/bignum.c ****             {
 5696              	 .loc 1 602 0 discriminator 1
 5697 00ae DBD1     	 bne .L434
 5698              	.LVL888:
 5699 00b0 019B     	 ldr r3,[sp,#4]
 5700              	.LVL889:
 600://MAC/Home/Downloads/getstarted-optiga-trust-m/optiga-trust-m-1/externals/mbedtls/library/bignum.c ****         {
 5701              	 .loc 1 600 0 discriminator 2
 5702 00b2 013A     	 sub r2,r2,#1
 5703              	.LVL890:
 5704 00b4 043B     	 sub r3,r3,#4
 5705 00b6 0193     	 str r3,[sp,#4]
 5706 00b8 D3E7     	 b .L431
 5707              	.LVL891:
 5708              	.L430:
 5709              	.LBE133:
 617://MAC/Home/Downloads/getstarted-optiga-trust-m/optiga-trust-m-1/externals/mbedtls/library/bignum.c **** 
 5710              	 .loc 1 617 0
 5711 00ba 291C     	 mov r1,r5
 5712 00bc 03A8     	 add r0,sp,#12
 5713              	.LVL892:
 5714 00be FFF7FEFF 	 bl mbedtls_mpi_copy
 5715              	.LVL893:
 5716 00c2 051E     	 sub r5,r0,#0
 5717              	.LVL894:
 5718 00c4 14D1     	 bne .L435
 619://MAC/Home/Downloads/getstarted-optiga-trust-m/optiga-trust-m-1/externals/mbedtls/library/bignum.c ****             T.s = 1;
 5719              	 .loc 1 619 0
 5720 00c6 039B     	 ldr r3,[sp,#12]
 5721 00c8 0133     	 add r3,r3,#1
 5722 00ca 01D1     	 bne .L436
 620://MAC/Home/Downloads/getstarted-optiga-trust-m/optiga-trust-m-1/externals/mbedtls/library/bignum.c **** 
 5723              	 .loc 1 620 0
 5724 00cc 0123     	 mov r3,#1
 5725 00ce 0393     	 str r3,[sp,#12]
 5726              	.L436:
 622://MAC/Home/Downloads/getstarted-optiga-trust-m/optiga-trust-m-1/externals/mbedtls/library/bignum.c ****     }
 5727              	 .loc 1 622 0
 5728 00d0 03A8     	 add r0,sp,#12
 5729              	.LVL895:
 5730 00d2 211C     	 mov r1,r4
 5731 00d4 02AA     	 add r2,sp,#8
 5732 00d6 FFF7FEFF 	 bl mpi_write_hlp
 5733              	.LVL896:
 5734 00da 051E     	 sub r5,r0,#0
 5735              	.LVL897:
 5736 00dc 08D1     	 bne .L435
 5737              	.LVL898:
 5738              	.L437:
 625://MAC/Home/Downloads/getstarted-optiga-trust-m/optiga-trust-m-1/externals/mbedtls/library/bignum.c ****     *olen = p - buf;
 5739              	 .loc 1 625 0
 5740 00de 0025     	 mov r5,#0
 5741 00e0 029B     	 ldr r3,[sp,#8]
 5742 00e2 5A1C     	 add r2,r3,#1
 5743 00e4 0292     	 str r2,[sp,#8]
 5744 00e6 1D70     	 strb r5,[r3]
 626://MAC/Home/Downloads/getstarted-optiga-trust-m/optiga-trust-m-1/externals/mbedtls/library/bignum.c **** 
 5745              	 .loc 1 626 0
 5746 00e8 029B     	 ldr r3,[sp,#8]
 5747 00ea 9E1B     	 sub r6,r3,r6
 5748              	.LVL899:
 5749 00ec 0C9B     	 ldr r3,[sp,#48]
 5750 00ee 1E60     	 str r6,[r3]
 5751              	.LVL900:
 5752              	.L435:
 630://MAC/Home/Downloads/getstarted-optiga-trust-m/optiga-trust-m-1/externals/mbedtls/library/bignum.c **** 
 5753              	 .loc 1 630 0
 5754 00f0 03A8     	 add r0,sp,#12
 5755              	.LVL901:
 5756 00f2 FFF7FEFF 	 bl mbedtls_mpi_free
 5757              	.LVL902:
 632://MAC/Home/Downloads/getstarted-optiga-trust-m/optiga-trust-m-1/externals/mbedtls/library/bignum.c **** }
 5758              	 .loc 1 632 0
 5759 00f6 281C     	 mov r0,r5
 5760 00f8 01E0     	 b .L426
 5761              	.LVL903:
 5762              	.L438:
 571://MAC/Home/Downloads/getstarted-optiga-trust-m/optiga-trust-m-1/externals/mbedtls/library/bignum.c **** 
 5763              	 .loc 1 571 0
 5764 00fa 0420     	 mov r0,#4
 5765              	.LVL904:
 5766              	.L443:
 5767 00fc 4042     	 neg r0,r0
 5768              	.LVL905:
 5769              	.L426:
 633://MAC/Home/Downloads/getstarted-optiga-trust-m/optiga-trust-m-1/externals/mbedtls/library/bignum.c **** 
 5770              	 .loc 1 633 0
 5771 00fe 07B0     	 add sp,sp,#28
 5772              	 
 5773 0100 F0BD     	 pop {r4,r5,r6,r7,pc}
 5774              	.L445:
 5775 0102 C046     	 .align 2
 5776              	.L444:
 5777 0104 FFFFFF3F 	 .word 1073741823
 5778 0108 00000000 	 .word .LC4
 5779              	 .cfi_endproc
 5780              	.LFE19:
 5782              	 .section .text.mbedtls_mpi_exp_mod,"ax",%progbits
 5783              	 .align 1
 5784              	 .global mbedtls_mpi_exp_mod
 5785              	 .code 16
 5786              	 .thumb_func
 5788              	mbedtls_mpi_exp_mod:
 5789              	.LFB45:
1712://MAC/Home/Downloads/getstarted-optiga-trust-m/optiga-trust-m-1/externals/mbedtls/library/bignum.c **** 
1713://MAC/Home/Downloads/getstarted-optiga-trust-m/optiga-trust-m-1/externals/mbedtls/library/bignum.c **** /*
1714://MAC/Home/Downloads/getstarted-optiga-trust-m/optiga-trust-m-1/externals/mbedtls/library/bignum.c ****  * Montgomery reduction: A = A * R^-1 mod N
1715://MAC/Home/Downloads/getstarted-optiga-trust-m/optiga-trust-m-1/externals/mbedtls/library/bignum.c ****  */
1716://MAC/Home/Downloads/getstarted-optiga-trust-m/optiga-trust-m-1/externals/mbedtls/library/bignum.c **** static int mpi_montred( mbedtls_mpi *A, const mbedtls_mpi *N,
1717://MAC/Home/Downloads/getstarted-optiga-trust-m/optiga-trust-m-1/externals/mbedtls/library/bignum.c ****                         mbedtls_mpi_uint mm, const mbedtls_mpi *T )
1718://MAC/Home/Downloads/getstarted-optiga-trust-m/optiga-trust-m-1/externals/mbedtls/library/bignum.c **** {
1719://MAC/Home/Downloads/getstarted-optiga-trust-m/optiga-trust-m-1/externals/mbedtls/library/bignum.c ****     mbedtls_mpi_uint z = 1;
1720://MAC/Home/Downloads/getstarted-optiga-trust-m/optiga-trust-m-1/externals/mbedtls/library/bignum.c ****     mbedtls_mpi U;
1721://MAC/Home/Downloads/getstarted-optiga-trust-m/optiga-trust-m-1/externals/mbedtls/library/bignum.c **** 
1722://MAC/Home/Downloads/getstarted-optiga-trust-m/optiga-trust-m-1/externals/mbedtls/library/bignum.c ****     U.n = U.s = (int) z;
1723://MAC/Home/Downloads/getstarted-optiga-trust-m/optiga-trust-m-1/externals/mbedtls/library/bignum.c ****     U.p = &z;
1724://MAC/Home/Downloads/getstarted-optiga-trust-m/optiga-trust-m-1/externals/mbedtls/library/bignum.c **** 
1725://MAC/Home/Downloads/getstarted-optiga-trust-m/optiga-trust-m-1/externals/mbedtls/library/bignum.c ****     return( mpi_montmul( A, &U, N, mm, T ) );
1726://MAC/Home/Downloads/getstarted-optiga-trust-m/optiga-trust-m-1/externals/mbedtls/library/bignum.c **** }
1727://MAC/Home/Downloads/getstarted-optiga-trust-m/optiga-trust-m-1/externals/mbedtls/library/bignum.c **** 
1728://MAC/Home/Downloads/getstarted-optiga-trust-m/optiga-trust-m-1/externals/mbedtls/library/bignum.c **** /*
1729://MAC/Home/Downloads/getstarted-optiga-trust-m/optiga-trust-m-1/externals/mbedtls/library/bignum.c ****  * Sliding-window exponentiation: X = A^E mod N  (HAC 14.85)
1730://MAC/Home/Downloads/getstarted-optiga-trust-m/optiga-trust-m-1/externals/mbedtls/library/bignum.c ****  */
1731://MAC/Home/Downloads/getstarted-optiga-trust-m/optiga-trust-m-1/externals/mbedtls/library/bignum.c **** int mbedtls_mpi_exp_mod( mbedtls_mpi *X, const mbedtls_mpi *A,
1732://MAC/Home/Downloads/getstarted-optiga-trust-m/optiga-trust-m-1/externals/mbedtls/library/bignum.c ****                          const mbedtls_mpi *E, const mbedtls_mpi *N,
1733://MAC/Home/Downloads/getstarted-optiga-trust-m/optiga-trust-m-1/externals/mbedtls/library/bignum.c ****                          mbedtls_mpi *_RR )
1734://MAC/Home/Downloads/getstarted-optiga-trust-m/optiga-trust-m-1/externals/mbedtls/library/bignum.c **** {
 5790              	 .loc 1 1734 0
 5791              	 .cfi_startproc
 5792              	.LVL906:
 5793 0000 F0B5     	 push {r4,r5,r6,r7,lr}
 5794              	.LCFI48:
 5795              	 .cfi_def_cfa_offset 20
 5796              	 .cfi_offset 4,-20
 5797              	 .cfi_offset 5,-16
 5798              	 .cfi_offset 6,-12
 5799              	 .cfi_offset 7,-8
 5800              	 .cfi_offset 14,-4
 5801 0002 BC4C     	 ldr r4,.L517
 5802 0004 0E1C     	 mov r6,r1
 5803 0006 A544     	 add sp,sp,r4
 5804              	.LCFI49:
 5805              	 .cfi_def_cfa_offset 1664
 5806              	 .loc 1 1734 0
 5807 0008 0390     	 str r0,[sp,#12]
1735://MAC/Home/Downloads/getstarted-optiga-trust-m/optiga-trust-m-1/externals/mbedtls/library/bignum.c ****     int ret;
1736://MAC/Home/Downloads/getstarted-optiga-trust-m/optiga-trust-m-1/externals/mbedtls/library/bignum.c ****     size_t wbits, wsize, one = 1;
1737://MAC/Home/Downloads/getstarted-optiga-trust-m/optiga-trust-m-1/externals/mbedtls/library/bignum.c ****     size_t i, j, nblimbs;
1738://MAC/Home/Downloads/getstarted-optiga-trust-m/optiga-trust-m-1/externals/mbedtls/library/bignum.c ****     size_t bufsize, nbits;
1739://MAC/Home/Downloads/getstarted-optiga-trust-m/optiga-trust-m-1/externals/mbedtls/library/bignum.c ****     mbedtls_mpi_uint ei, mm, state;
1740://MAC/Home/Downloads/getstarted-optiga-trust-m/optiga-trust-m-1/externals/mbedtls/library/bignum.c ****     mbedtls_mpi RR, T, W[ 2 << MBEDTLS_MPI_WINDOW_SIZE ], Apos;
1741://MAC/Home/Downloads/getstarted-optiga-trust-m/optiga-trust-m-1/externals/mbedtls/library/bignum.c ****     int neg;
1742://MAC/Home/Downloads/getstarted-optiga-trust-m/optiga-trust-m-1/externals/mbedtls/library/bignum.c **** 
1743://MAC/Home/Downloads/getstarted-optiga-trust-m/optiga-trust-m-1/externals/mbedtls/library/bignum.c ****     MPI_VALIDATE_RET( X != NULL );
1744://MAC/Home/Downloads/getstarted-optiga-trust-m/optiga-trust-m-1/externals/mbedtls/library/bignum.c ****     MPI_VALIDATE_RET( A != NULL );
1745://MAC/Home/Downloads/getstarted-optiga-trust-m/optiga-trust-m-1/externals/mbedtls/library/bignum.c ****     MPI_VALIDATE_RET( E != NULL );
1746://MAC/Home/Downloads/getstarted-optiga-trust-m/optiga-trust-m-1/externals/mbedtls/library/bignum.c ****     MPI_VALIDATE_RET( N != NULL );
1747://MAC/Home/Downloads/getstarted-optiga-trust-m/optiga-trust-m-1/externals/mbedtls/library/bignum.c **** 
1748://MAC/Home/Downloads/getstarted-optiga-trust-m/optiga-trust-m-1/externals/mbedtls/library/bignum.c ****     if( mbedtls_mpi_cmp_int( N, 0 ) <= 0 || ( N->p[0] & 1 ) == 0 )
 5808              	 .loc 1 1748 0
 5809 000a 0021     	 mov r1,#0
 5810              	.LVL907:
 5811 000c 181C     	 mov r0,r3
 5812              	.LVL908:
1734://MAC/Home/Downloads/getstarted-optiga-trust-m/optiga-trust-m-1/externals/mbedtls/library/bignum.c ****     int ret;
 5813              	 .loc 1 1734 0
 5814 000e 0792     	 str r2,[sp,#28]
 5815 0010 1F1C     	 mov r7,r3
 5816              	 .loc 1 1748 0
 5817 0012 FFF7FEFF 	 bl mbedtls_mpi_cmp_int
 5818              	.LVL909:
 5819 0016 0028     	 cmp r0,#0
 5820 0018 00DC     	 bgt .LCB6579
 5821 001a 0EE2     	 b .L479
 5822              	.LCB6579:
 5823              	 .loc 1 1748 0 is_stmt 0 discriminator 1
 5824 001c BB68     	 ldr r3,[r7,#8]
 5825 001e 1C68     	 ldr r4,[r3]
 5826 0020 E307     	 lsl r3,r4,#31
 5827 0022 00D4     	 bmi .LCB6585
 5828 0024 09E2     	 b .L479
 5829              	.LCB6585:
1749://MAC/Home/Downloads/getstarted-optiga-trust-m/optiga-trust-m-1/externals/mbedtls/library/bignum.c ****         return( MBEDTLS_ERR_MPI_BAD_INPUT_DATA );
1750://MAC/Home/Downloads/getstarted-optiga-trust-m/optiga-trust-m-1/externals/mbedtls/library/bignum.c **** 
1751://MAC/Home/Downloads/getstarted-optiga-trust-m/optiga-trust-m-1/externals/mbedtls/library/bignum.c ****     if( mbedtls_mpi_cmp_int( E, 0 ) < 0 )
 5830              	 .loc 1 1751 0 is_stmt 1
 5831 0026 0798     	 ldr r0,[sp,#28]
 5832 0028 0021     	 mov r1,#0
 5833 002a FFF7FEFF 	 bl mbedtls_mpi_cmp_int
 5834              	.LVL910:
 5835 002e 0028     	 cmp r0,#0
 5836 0030 00DA     	 bge .LCB6591
 5837 0032 02E2     	 b .L479
 5838              	.LCB6591:
 5839              	.LVL911:
 5840              	.LBB146:
 5841              	.LBB147:
1662://MAC/Home/Downloads/getstarted-optiga-trust-m/optiga-trust-m-1/externals/mbedtls/library/bignum.c **** 
 5842              	 .loc 1 1662 0
 5843 0034 0423     	 mov r3,#4
 5844 0036 0321     	 mov r1,#3
 5845 0038 A51C     	 add r5,r4,#2
 5846 003a 1D40     	 and r5,r3
 5847 003c 6D00     	 lsl r5,r5,#1
 5848 003e 2D19     	 add r5,r5,r4
 5849              	.LVL912:
 5850              	.L448:
1665://MAC/Home/Downloads/getstarted-optiga-trust-m/optiga-trust-m-1/externals/mbedtls/library/bignum.c **** 
 5851              	 .loc 1 1665 0
 5852 0040 221C     	 mov r2,r4
 5853 0042 0223     	 mov r3,#2
 5854 0044 6A43     	 mul r2,r5
 5855 0046 0139     	 sub r1,r1,#1
 5856 0048 9B1A     	 sub r3,r3,r2
 5857 004a 5D43     	 mul r5,r3
 5858              	.LVL913:
1664://MAC/Home/Downloads/getstarted-optiga-trust-m/optiga-trust-m-1/externals/mbedtls/library/bignum.c ****         x *= ( 2 - ( m0 * x ) );
 5859              	 .loc 1 1664 0
 5860 004c 0029     	 cmp r1,#0
 5861 004e F7D1     	 bne .L448
 5862              	.LVL914:
 5863              	.LBE147:
 5864              	.LBE146:
1752://MAC/Home/Downloads/getstarted-optiga-trust-m/optiga-trust-m-1/externals/mbedtls/library/bignum.c ****         return( MBEDTLS_ERR_MPI_BAD_INPUT_DATA );
1753://MAC/Home/Downloads/getstarted-optiga-trust-m/optiga-trust-m-1/externals/mbedtls/library/bignum.c **** 
1754://MAC/Home/Downloads/getstarted-optiga-trust-m/optiga-trust-m-1/externals/mbedtls/library/bignum.c ****     /*
1755://MAC/Home/Downloads/getstarted-optiga-trust-m/optiga-trust-m-1/externals/mbedtls/library/bignum.c ****      * Init temps and window size
1756://MAC/Home/Downloads/getstarted-optiga-trust-m/optiga-trust-m-1/externals/mbedtls/library/bignum.c ****      */
1757://MAC/Home/Downloads/getstarted-optiga-trust-m/optiga-trust-m-1/externals/mbedtls/library/bignum.c ****     mpi_montg_init( &mm, N );
1758://MAC/Home/Downloads/getstarted-optiga-trust-m/optiga-trust-m-1/externals/mbedtls/library/bignum.c ****     mbedtls_mpi_init( &RR ); mbedtls_mpi_init( &T );
1759://MAC/Home/Downloads/getstarted-optiga-trust-m/optiga-trust-m-1/externals/mbedtls/library/bignum.c ****     mbedtls_mpi_init( &Apos );
1760://MAC/Home/Downloads/getstarted-optiga-trust-m/optiga-trust-m-1/externals/mbedtls/library/bignum.c ****     memset( W, 0, sizeof( W ) );
 5865              	 .loc 1 1760 0
 5866 0050 C022     	 mov r2,#192
 5867              	.LBB149:
 5868              	.LBB150:
  93://MAC/Home/Downloads/getstarted-optiga-trust-m/optiga-trust-m-1/externals/mbedtls/library/bignum.c ****     X->n = 0;
 5869              	 .loc 1 93 0
 5870 0052 0124     	 mov r4,#1
 5871              	.LVL915:
 5872              	.LBE150:
 5873              	.LBE149:
 5874              	 .loc 1 1760 0
 5875 0054 D200     	 lsl r2,r2,#3
 5876 0056 1AA8     	 add r0,sp,#104
 5877              	.LBB153:
 5878              	.LBB151:
  94://MAC/Home/Downloads/getstarted-optiga-trust-m/optiga-trust-m-1/externals/mbedtls/library/bignum.c ****     X->p = NULL;
 5879              	 .loc 1 94 0
 5880 0058 0F91     	 str r1,[sp,#60]
  95://MAC/Home/Downloads/getstarted-optiga-trust-m/optiga-trust-m-1/externals/mbedtls/library/bignum.c **** }
 5881              	 .loc 1 95 0
 5882 005a 1091     	 str r1,[sp,#64]
 5883              	.LVL916:
 5884              	.LBE151:
 5885              	.LBE153:
 5886              	.LBB154:
 5887              	.LBB155:
  94://MAC/Home/Downloads/getstarted-optiga-trust-m/optiga-trust-m-1/externals/mbedtls/library/bignum.c ****     X->p = NULL;
 5888              	 .loc 1 94 0
 5889 005c 1291     	 str r1,[sp,#72]
  95://MAC/Home/Downloads/getstarted-optiga-trust-m/optiga-trust-m-1/externals/mbedtls/library/bignum.c **** }
 5890              	 .loc 1 95 0
 5891 005e 1391     	 str r1,[sp,#76]
 5892              	.LVL917:
 5893              	.LBE155:
 5894              	.LBE154:
 5895              	.LBB157:
 5896              	.LBB158:
  94://MAC/Home/Downloads/getstarted-optiga-trust-m/optiga-trust-m-1/externals/mbedtls/library/bignum.c ****     X->p = NULL;
 5897              	 .loc 1 94 0
 5898 0060 1591     	 str r1,[sp,#84]
  95://MAC/Home/Downloads/getstarted-optiga-trust-m/optiga-trust-m-1/externals/mbedtls/library/bignum.c **** }
 5899              	 .loc 1 95 0
 5900 0062 1691     	 str r1,[sp,#88]
 5901              	.LBE158:
 5902              	.LBE157:
 5903              	.LBB160:
 5904              	.LBB152:
  93://MAC/Home/Downloads/getstarted-optiga-trust-m/optiga-trust-m-1/externals/mbedtls/library/bignum.c ****     X->n = 0;
 5905              	 .loc 1 93 0
 5906 0064 0E94     	 str r4,[sp,#56]
 5907              	.LBE152:
 5908              	.LBE160:
 5909              	.LBB161:
 5910              	.LBB156:
 5911 0066 1194     	 str r4,[sp,#68]
 5912              	.LBE156:
 5913              	.LBE161:
 5914              	.LBB162:
 5915              	.LBB159:
 5916 0068 1494     	 str r4,[sp,#80]
 5917              	.LBE159:
 5918              	.LBE162:
 5919              	 .loc 1 1760 0
 5920 006a FFF7FEFF 	 bl memset
 5921              	.LVL918:
1761://MAC/Home/Downloads/getstarted-optiga-trust-m/optiga-trust-m-1/externals/mbedtls/library/bignum.c **** 
1762://MAC/Home/Downloads/getstarted-optiga-trust-m/optiga-trust-m-1/externals/mbedtls/library/bignum.c ****     i = mbedtls_mpi_bitlen( E );
 5922              	 .loc 1 1762 0
 5923 006e 0798     	 ldr r0,[sp,#28]
 5924 0070 FFF7FEFF 	 bl mbedtls_mpi_bitlen
 5925              	.LVL919:
1763://MAC/Home/Downloads/getstarted-optiga-trust-m/optiga-trust-m-1/externals/mbedtls/library/bignum.c **** 
1764://MAC/Home/Downloads/getstarted-optiga-trust-m/optiga-trust-m-1/externals/mbedtls/library/bignum.c ****     wsize = ( i > 671 ) ? 6 : ( i > 239 ) ? 5 :
 5926              	 .loc 1 1764 0
 5927 0074 0623     	 mov r3,#6
 5928 0076 0493     	 str r3,[sp,#16]
 5929 0078 9F4B     	 ldr r3,.L517+4
 5930 007a 9842     	 cmp r0,r3
 5931 007c 0CD8     	 bhi .L449
 5932              	 .loc 1 1764 0 is_stmt 0 discriminator 1
 5933 007e 0523     	 mov r3,#5
 5934 0080 0493     	 str r3,[sp,#16]
 5935 0082 EF28     	 cmp r0,#239
 5936 0084 08D8     	 bhi .L449
 5937              	 .loc 1 1764 0 discriminator 3
 5938 0086 013B     	 sub r3,r3,#1
 5939 0088 0493     	 str r3,[sp,#16]
 5940 008a 4F28     	 cmp r0,#79
 5941 008c 04D8     	 bhi .L449
 5942              	 .loc 1 1764 0 discriminator 5
 5943 008e 013B     	 sub r3,r3,#1
 5944 0090 0493     	 str r3,[sp,#16]
 5945 0092 1728     	 cmp r0,#23
 5946 0094 00D8     	 bhi .L449
 5947              	 .loc 1 1764 0
 5948 0096 0494     	 str r4,[sp,#16]
 5949              	.L449:
 5950              	.LVL920:
1765://MAC/Home/Downloads/getstarted-optiga-trust-m/optiga-trust-m-1/externals/mbedtls/library/bignum.c ****             ( i >  79 ) ? 4 : ( i >  23 ) ? 3 : 1;
1766://MAC/Home/Downloads/getstarted-optiga-trust-m/optiga-trust-m-1/externals/mbedtls/library/bignum.c **** 
1767://MAC/Home/Downloads/getstarted-optiga-trust-m/optiga-trust-m-1/externals/mbedtls/library/bignum.c ****     if( wsize > MBEDTLS_MPI_WINDOW_SIZE )
1768://MAC/Home/Downloads/getstarted-optiga-trust-m/optiga-trust-m-1/externals/mbedtls/library/bignum.c ****         wsize = MBEDTLS_MPI_WINDOW_SIZE;
1769://MAC/Home/Downloads/getstarted-optiga-trust-m/optiga-trust-m-1/externals/mbedtls/library/bignum.c **** 
1770://MAC/Home/Downloads/getstarted-optiga-trust-m/optiga-trust-m-1/externals/mbedtls/library/bignum.c ****     j = N->n + 1;
 5951              	 .loc 1 1770 0 is_stmt 1 discriminator 16
 5952 0098 7B68     	 ldr r3,[r7,#4]
1771://MAC/Home/Downloads/getstarted-optiga-trust-m/optiga-trust-m-1/externals/mbedtls/library/bignum.c ****     MBEDTLS_MPI_CHK( mbedtls_mpi_grow( X, j ) );
 5953              	 .loc 1 1771 0 discriminator 16
 5954 009a 0398     	 ldr r0,[sp,#12]
 5955              	.LVL921:
1770://MAC/Home/Downloads/getstarted-optiga-trust-m/optiga-trust-m-1/externals/mbedtls/library/bignum.c ****     MBEDTLS_MPI_CHK( mbedtls_mpi_grow( X, j ) );
 5956              	 .loc 1 1770 0 discriminator 16
 5957 009c 0133     	 add r3,r3,#1
 5958              	 .loc 1 1771 0 discriminator 16
 5959 009e 191C     	 mov r1,r3
1770://MAC/Home/Downloads/getstarted-optiga-trust-m/optiga-trust-m-1/externals/mbedtls/library/bignum.c ****     MBEDTLS_MPI_CHK( mbedtls_mpi_grow( X, j ) );
 5960              	 .loc 1 1770 0 discriminator 16
 5961 00a0 0593     	 str r3,[sp,#20]
 5962              	.LVL922:
 5963              	 .loc 1 1771 0 discriminator 16
 5964 00a2 FFF7FEFF 	 bl mbedtls_mpi_grow
 5965              	.LVL923:
 5966 00a6 041E     	 sub r4,r0,#0
 5967              	.LVL924:
 5968 00a8 00D0     	 beq .LCB6714
 5969 00aa 97E1     	 b .L450
 5970              	.LCB6714:
1772://MAC/Home/Downloads/getstarted-optiga-trust-m/optiga-trust-m-1/externals/mbedtls/library/bignum.c ****     MBEDTLS_MPI_CHK( mbedtls_mpi_grow( &W[1],  j ) );
 5971              	 .loc 1 1772 0
 5972 00ac 1DA8     	 add r0,sp,#116
 5973              	.LVL925:
 5974 00ae 0599     	 ldr r1,[sp,#20]
 5975 00b0 FFF7FEFF 	 bl mbedtls_mpi_grow
 5976              	.LVL926:
 5977 00b4 041E     	 sub r4,r0,#0
 5978              	.LVL927:
 5979 00b6 00D0     	 beq .LCB6724
 5980 00b8 90E1     	 b .L450
 5981              	.LCB6724:
1773://MAC/Home/Downloads/getstarted-optiga-trust-m/optiga-trust-m-1/externals/mbedtls/library/bignum.c ****     MBEDTLS_MPI_CHK( mbedtls_mpi_grow( &T, j * 2 ) );
 5982              	 .loc 1 1773 0
 5983 00ba 059B     	 ldr r3,[sp,#20]
 5984 00bc 11A8     	 add r0,sp,#68
 5985              	.LVL928:
 5986 00be 5900     	 lsl r1,r3,#1
 5987 00c0 FFF7FEFF 	 bl mbedtls_mpi_grow
 5988              	.LVL929:
 5989 00c4 041E     	 sub r4,r0,#0
 5990              	.LVL930:
 5991 00c6 00D0     	 beq .LCB6737
 5992 00c8 88E1     	 b .L450
 5993              	.LCB6737:
1774://MAC/Home/Downloads/getstarted-optiga-trust-m/optiga-trust-m-1/externals/mbedtls/library/bignum.c **** 
1775://MAC/Home/Downloads/getstarted-optiga-trust-m/optiga-trust-m-1/externals/mbedtls/library/bignum.c ****     /*
1776://MAC/Home/Downloads/getstarted-optiga-trust-m/optiga-trust-m-1/externals/mbedtls/library/bignum.c ****      * Compensate for negative A (and correct at the end)
1777://MAC/Home/Downloads/getstarted-optiga-trust-m/optiga-trust-m-1/externals/mbedtls/library/bignum.c ****      */
1778://MAC/Home/Downloads/getstarted-optiga-trust-m/optiga-trust-m-1/externals/mbedtls/library/bignum.c ****     neg = ( A->s == -1 );
 5994              	 .loc 1 1778 0
 5995 00ca 3368     	 ldr r3,[r6]
 5996 00cc 0133     	 add r3,r3,#1
 5997 00ce 5942     	 neg r1,r3
 5998 00d0 5941     	 adc r1,r1,r3
 5999 00d2 CBB2     	 uxtb r3,r1
 6000 00d4 0A93     	 str r3,[sp,#40]
 6001              	.LVL931:
1779://MAC/Home/Downloads/getstarted-optiga-trust-m/optiga-trust-m-1/externals/mbedtls/library/bignum.c ****     if( neg )
 6002              	 .loc 1 1779 0
 6003 00d6 002B     	 cmp r3,#0
 6004 00d8 09D0     	 beq .L451
1780://MAC/Home/Downloads/getstarted-optiga-trust-m/optiga-trust-m-1/externals/mbedtls/library/bignum.c ****     {
1781://MAC/Home/Downloads/getstarted-optiga-trust-m/optiga-trust-m-1/externals/mbedtls/library/bignum.c ****         MBEDTLS_MPI_CHK( mbedtls_mpi_copy( &Apos, A ) );
 6005              	 .loc 1 1781 0
 6006 00da 14A8     	 add r0,sp,#80
 6007              	.LVL932:
 6008 00dc 311C     	 mov r1,r6
 6009 00de FFF7FEFF 	 bl mbedtls_mpi_copy
 6010              	.LVL933:
 6011 00e2 041E     	 sub r4,r0,#0
 6012              	.LVL934:
 6013 00e4 00D0     	 beq .LCB6759
 6014 00e6 79E1     	 b .L450
 6015              	.LCB6759:
1782://MAC/Home/Downloads/getstarted-optiga-trust-m/optiga-trust-m-1/externals/mbedtls/library/bignum.c ****         Apos.s = 1;
 6016              	 .loc 1 1782 0
 6017 00e8 0123     	 mov r3,#1
1783://MAC/Home/Downloads/getstarted-optiga-trust-m/optiga-trust-m-1/externals/mbedtls/library/bignum.c ****         A = &Apos;
 6018              	 .loc 1 1783 0
 6019 00ea 14AE     	 add r6,sp,#80
 6020              	.LVL935:
1782://MAC/Home/Downloads/getstarted-optiga-trust-m/optiga-trust-m-1/externals/mbedtls/library/bignum.c ****         Apos.s = 1;
 6021              	 .loc 1 1782 0
 6022 00ec 1493     	 str r3,[sp,#80]
 6023              	.LVL936:
 6024              	.L451:
1784://MAC/Home/Downloads/getstarted-optiga-trust-m/optiga-trust-m-1/externals/mbedtls/library/bignum.c ****     }
1785://MAC/Home/Downloads/getstarted-optiga-trust-m/optiga-trust-m-1/externals/mbedtls/library/bignum.c **** 
1786://MAC/Home/Downloads/getstarted-optiga-trust-m/optiga-trust-m-1/externals/mbedtls/library/bignum.c ****     /*
1787://MAC/Home/Downloads/getstarted-optiga-trust-m/optiga-trust-m-1/externals/mbedtls/library/bignum.c ****      * If 1st call, pre-compute R^2 mod N
1788://MAC/Home/Downloads/getstarted-optiga-trust-m/optiga-trust-m-1/externals/mbedtls/library/bignum.c ****      */
1789://MAC/Home/Downloads/getstarted-optiga-trust-m/optiga-trust-m-1/externals/mbedtls/library/bignum.c ****     if( _RR == NULL || _RR->p == NULL )
 6025              	 .loc 1 1789 0
 6026 00ee CB23     	 mov r3,#203
 6027 00f0 0AAA     	 add r2,sp,#40
 6028              	.LVL937:
 6029 00f2 DB00     	 lsl r3,r3,#3
 6030 00f4 9B18     	 add r3,r3,r2
 6031 00f6 1B68     	 ldr r3,[r3]
1790://MAC/Home/Downloads/getstarted-optiga-trust-m/optiga-trust-m-1/externals/mbedtls/library/bignum.c ****     {
1791://MAC/Home/Downloads/getstarted-optiga-trust-m/optiga-trust-m-1/externals/mbedtls/library/bignum.c ****         MBEDTLS_MPI_CHK( mbedtls_mpi_lset( &RR, 1 ) );
 6032              	 .loc 1 1791 0
 6033 00f8 0EA8     	 add r0,sp,#56
 6034              	.LVL938:
1789://MAC/Home/Downloads/getstarted-optiga-trust-m/optiga-trust-m-1/externals/mbedtls/library/bignum.c ****     {
 6035              	 .loc 1 1789 0
 6036 00fa 002B     	 cmp r3,#0
 6037 00fc 07D0     	 beq .L452
1789://MAC/Home/Downloads/getstarted-optiga-trust-m/optiga-trust-m-1/externals/mbedtls/library/bignum.c ****     {
 6038              	 .loc 1 1789 0 is_stmt 0 discriminator 1
 6039 00fe CB23     	 mov r3,#203
 6040 0100 DB00     	 lsl r3,r3,#3
 6041 0102 9B18     	 add r3,r3,r2
 6042 0104 1B68     	 ldr r3,[r3]
 6043 0106 9B68     	 ldr r3,[r3,#8]
 6044 0108 0593     	 str r3,[sp,#20]
 6045              	.LVL939:
 6046 010a 002B     	 cmp r3,#0
 6047 010c 22D1     	 bne .L453
 6048              	.L452:
 6049              	 .loc 1 1791 0 is_stmt 1
 6050 010e 0121     	 mov r1,#1
 6051 0110 FFF7FEFF 	 bl mbedtls_mpi_lset
 6052              	.LVL940:
 6053 0114 041E     	 sub r4,r0,#0
 6054              	.LVL941:
 6055 0116 00D0     	 beq .LCB6804
 6056 0118 60E1     	 b .L450
 6057              	.LCB6804:
1792://MAC/Home/Downloads/getstarted-optiga-trust-m/optiga-trust-m-1/externals/mbedtls/library/bignum.c ****         MBEDTLS_MPI_CHK( mbedtls_mpi_shift_l( &RR, N->n * 2 * biL ) );
 6058              	 .loc 1 1792 0
 6059 011a 7B68     	 ldr r3,[r7,#4]
 6060 011c 0EA8     	 add r0,sp,#56
 6061              	.LVL942:
 6062 011e 9901     	 lsl r1,r3,#6
 6063 0120 FFF7FEFF 	 bl mbedtls_mpi_shift_l
 6064              	.LVL943:
 6065 0124 041E     	 sub r4,r0,#0
 6066              	.LVL944:
 6067 0126 00D0     	 beq .LCB6818
 6068 0128 58E1     	 b .L450
 6069              	.LCB6818:
1793://MAC/Home/Downloads/getstarted-optiga-trust-m/optiga-trust-m-1/externals/mbedtls/library/bignum.c ****         MBEDTLS_MPI_CHK( mbedtls_mpi_mod_mpi( &RR, &RR, N ) );
 6070              	 .loc 1 1793 0
 6071 012a 0EA8     	 add r0,sp,#56
 6072              	.LVL945:
 6073 012c 011C     	 mov r1,r0
 6074 012e 3A1C     	 mov r2,r7
 6075 0130 FFF7FEFF 	 bl mbedtls_mpi_mod_mpi
 6076              	.LVL946:
 6077 0134 041E     	 sub r4,r0,#0
 6078              	.LVL947:
 6079 0136 00D0     	 beq .LCB6831
 6080 0138 50E1     	 b .L450
 6081              	.LCB6831:
1794://MAC/Home/Downloads/getstarted-optiga-trust-m/optiga-trust-m-1/externals/mbedtls/library/bignum.c **** 
1795://MAC/Home/Downloads/getstarted-optiga-trust-m/optiga-trust-m-1/externals/mbedtls/library/bignum.c ****         if( _RR != NULL )
 6082              	 .loc 1 1795 0
 6083 013a CB23     	 mov r3,#203
 6084 013c 0AAA     	 add r2,sp,#40
 6085              	.LVL948:
 6086 013e DB00     	 lsl r3,r3,#3
 6087 0140 9B18     	 add r3,r3,r2
 6088 0142 1B68     	 ldr r3,[r3]
 6089 0144 002B     	 cmp r3,#0
 6090 0146 0DD0     	 beq .L454
1796://MAC/Home/Downloads/getstarted-optiga-trust-m/optiga-trust-m-1/externals/mbedtls/library/bignum.c ****             memcpy( _RR, &RR, sizeof( mbedtls_mpi ) );
 6091              	 .loc 1 1796 0
 6092 0148 CB23     	 mov r3,#203
 6093 014a DB00     	 lsl r3,r3,#3
 6094 014c 9B18     	 add r3,r3,r2
 6095 014e 1868     	 ldr r0,[r3]
 6096              	.LVL949:
 6097 0150 0EA9     	 add r1,sp,#56
 6098              	.LVL950:
 6099 0152 04E0     	 b .L509
 6100              	.LVL951:
 6101              	.L453:
1797://MAC/Home/Downloads/getstarted-optiga-trust-m/optiga-trust-m-1/externals/mbedtls/library/bignum.c ****     }
1798://MAC/Home/Downloads/getstarted-optiga-trust-m/optiga-trust-m-1/externals/mbedtls/library/bignum.c ****     else
1799://MAC/Home/Downloads/getstarted-optiga-trust-m/optiga-trust-m-1/externals/mbedtls/library/bignum.c ****         memcpy( &RR, _RR, sizeof( mbedtls_mpi ) );
 6102              	 .loc 1 1799 0
 6103 0154 CB23     	 mov r3,#203
 6104 0156 0AAA     	 add r2,sp,#40
 6105 0158 DB00     	 lsl r3,r3,#3
 6106 015a 9B18     	 add r3,r3,r2
 6107 015c 1968     	 ldr r1,[r3]
 6108              	.LVL952:
 6109              	.L509:
 6110 015e 0C22     	 mov r2,#12
 6111              	.LVL953:
 6112 0160 FFF7FEFF 	 bl memcpy
 6113              	.LVL954:
 6114              	.L454:
1800://MAC/Home/Downloads/getstarted-optiga-trust-m/optiga-trust-m-1/externals/mbedtls/library/bignum.c **** 
1801://MAC/Home/Downloads/getstarted-optiga-trust-m/optiga-trust-m-1/externals/mbedtls/library/bignum.c ****     /*
1802://MAC/Home/Downloads/getstarted-optiga-trust-m/optiga-trust-m-1/externals/mbedtls/library/bignum.c ****      * W[1] = A * R^2 * R^-1 mod N = A * R mod N
1803://MAC/Home/Downloads/getstarted-optiga-trust-m/optiga-trust-m-1/externals/mbedtls/library/bignum.c ****      */
1804://MAC/Home/Downloads/getstarted-optiga-trust-m/optiga-trust-m-1/externals/mbedtls/library/bignum.c ****     if( mbedtls_mpi_cmp_mpi( A, N ) >= 0 )
 6115              	 .loc 1 1804 0
 6116 0164 301C     	 mov r0,r6
 6117 0166 391C     	 mov r1,r7
 6118 0168 FFF7FEFF 	 bl mbedtls_mpi_cmp_mpi
 6119              	.LVL955:
 6120 016c 0028     	 cmp r0,#0
 6121 016e 15DB     	 blt .L455
1805://MAC/Home/Downloads/getstarted-optiga-trust-m/optiga-trust-m-1/externals/mbedtls/library/bignum.c ****         MBEDTLS_MPI_CHK( mbedtls_mpi_mod_mpi( &W[1], A, N ) );
 6122              	 .loc 1 1805 0
 6123 0170 1DA8     	 add r0,sp,#116
 6124 0172 311C     	 mov r1,r6
 6125 0174 3A1C     	 mov r2,r7
 6126 0176 FFF7FEFF 	 bl mbedtls_mpi_mod_mpi
 6127              	.LVL956:
 6128              	.L511:
 6129 017a 041E     	 sub r4,r0,#0
 6130              	.LVL957:
 6131 017c 00D0     	 beq .LCB6890
 6132 017e 2DE1     	 b .L450
 6133              	.LCB6890:
 6134              	.LBB163:
 6135              	.LBB148:
1667://MAC/Home/Downloads/getstarted-optiga-trust-m/optiga-trust-m-1/externals/mbedtls/library/bignum.c **** }
 6136              	 .loc 1 1667 0
 6137 0180 6B42     	 neg r3,r5
 6138 0182 0593     	 str r3,[sp,#20]
 6139              	.LBE148:
 6140              	.LBE163:
1806://MAC/Home/Downloads/getstarted-optiga-trust-m/optiga-trust-m-1/externals/mbedtls/library/bignum.c ****     else
1807://MAC/Home/Downloads/getstarted-optiga-trust-m/optiga-trust-m-1/externals/mbedtls/library/bignum.c ****         MBEDTLS_MPI_CHK( mbedtls_mpi_copy( &W[1], A ) );
1808://MAC/Home/Downloads/getstarted-optiga-trust-m/optiga-trust-m-1/externals/mbedtls/library/bignum.c **** 
1809://MAC/Home/Downloads/getstarted-optiga-trust-m/optiga-trust-m-1/externals/mbedtls/library/bignum.c ****     MBEDTLS_MPI_CHK( mpi_montmul( &W[1], &RR, N, mm, &T ) );
 6141              	 .loc 1 1809 0
 6142 0184 11AB     	 add r3,sp,#68
 6143              	.LVL958:
 6144 0186 0093     	 str r3,[sp]
 6145 0188 1DA8     	 add r0,sp,#116
 6146              	.LVL959:
 6147 018a 0EA9     	 add r1,sp,#56
 6148              	.LVL960:
 6149 018c 3A1C     	 mov r2,r7
 6150 018e 059B     	 ldr r3,[sp,#20]
 6151              	.LVL961:
 6152 0190 FFF7FEFF 	 bl mpi_montmul
 6153              	.LVL962:
 6154 0194 041E     	 sub r4,r0,#0
 6155              	.LVL963:
 6156 0196 00D0     	 beq .LCB6918
 6157 0198 20E1     	 b .L450
 6158              	.LCB6918:
 6159 019a 04E0     	 b .L512
 6160              	.LVL964:
 6161              	.L455:
1807://MAC/Home/Downloads/getstarted-optiga-trust-m/optiga-trust-m-1/externals/mbedtls/library/bignum.c **** 
 6162              	 .loc 1 1807 0
 6163 019c 1DA8     	 add r0,sp,#116
 6164 019e 311C     	 mov r1,r6
 6165 01a0 FFF7FEFF 	 bl mbedtls_mpi_copy
 6166              	.LVL965:
 6167 01a4 E9E7     	 b .L511
 6168              	.LVL966:
 6169              	.L512:
1810://MAC/Home/Downloads/getstarted-optiga-trust-m/optiga-trust-m-1/externals/mbedtls/library/bignum.c **** 
1811://MAC/Home/Downloads/getstarted-optiga-trust-m/optiga-trust-m-1/externals/mbedtls/library/bignum.c ****     /*
1812://MAC/Home/Downloads/getstarted-optiga-trust-m/optiga-trust-m-1/externals/mbedtls/library/bignum.c ****      * X = R^2 * R^-1 mod N = R mod N
1813://MAC/Home/Downloads/getstarted-optiga-trust-m/optiga-trust-m-1/externals/mbedtls/library/bignum.c ****      */
1814://MAC/Home/Downloads/getstarted-optiga-trust-m/optiga-trust-m-1/externals/mbedtls/library/bignum.c ****     MBEDTLS_MPI_CHK( mbedtls_mpi_copy( X, &RR ) );
 6170              	 .loc 1 1814 0
 6171 01a6 0398     	 ldr r0,[sp,#12]
 6172              	.LVL967:
 6173 01a8 0EA9     	 add r1,sp,#56
 6174              	.LVL968:
 6175 01aa FFF7FEFF 	 bl mbedtls_mpi_copy
 6176              	.LVL969:
 6177 01ae 041E     	 sub r4,r0,#0
 6178              	.LVL970:
 6179 01b0 00D0     	 beq .LCB6953
 6180 01b2 13E1     	 b .L450
 6181              	.LCB6953:
 6182              	.LVL971:
 6183              	.LBB164:
 6184              	.LBB165:
1719://MAC/Home/Downloads/getstarted-optiga-trust-m/optiga-trust-m-1/externals/mbedtls/library/bignum.c ****     mbedtls_mpi U;
 6185              	 .loc 1 1719 0
 6186 01b4 0125     	 mov r5,#1
 6187              	.LVL972:
1723://MAC/Home/Downloads/getstarted-optiga-trust-m/optiga-trust-m-1/externals/mbedtls/library/bignum.c **** 
 6188              	 .loc 1 1723 0
 6189 01b6 0DAB     	 add r3,sp,#52
 6190 01b8 1993     	 str r3,[sp,#100]
1725://MAC/Home/Downloads/getstarted-optiga-trust-m/optiga-trust-m-1/externals/mbedtls/library/bignum.c **** }
 6191              	 .loc 1 1725 0
 6192 01ba 11AB     	 add r3,sp,#68
 6193              	.LVL973:
 6194 01bc 0093     	 str r3,[sp]
 6195 01be 0398     	 ldr r0,[sp,#12]
 6196              	.LVL974:
 6197 01c0 17A9     	 add r1,sp,#92
 6198 01c2 3A1C     	 mov r2,r7
 6199 01c4 059B     	 ldr r3,[sp,#20]
 6200              	.LVL975:
1719://MAC/Home/Downloads/getstarted-optiga-trust-m/optiga-trust-m-1/externals/mbedtls/library/bignum.c ****     mbedtls_mpi U;
 6201              	 .loc 1 1719 0
 6202 01c6 0D95     	 str r5,[sp,#52]
1722://MAC/Home/Downloads/getstarted-optiga-trust-m/optiga-trust-m-1/externals/mbedtls/library/bignum.c ****     U.p = &z;
 6203              	 .loc 1 1722 0
 6204 01c8 1795     	 str r5,[sp,#92]
 6205 01ca 1895     	 str r5,[sp,#96]
1725://MAC/Home/Downloads/getstarted-optiga-trust-m/optiga-trust-m-1/externals/mbedtls/library/bignum.c **** }
 6206              	 .loc 1 1725 0
 6207 01cc FFF7FEFF 	 bl mpi_montmul
 6208              	.LVL976:
 6209 01d0 041E     	 sub r4,r0,#0
 6210              	.LVL977:
 6211              	.LBE165:
 6212              	.LBE164:
1815://MAC/Home/Downloads/getstarted-optiga-trust-m/optiga-trust-m-1/externals/mbedtls/library/bignum.c ****     MBEDTLS_MPI_CHK( mpi_montred( X, N, mm, &T ) );
 6213              	 .loc 1 1815 0
 6214 01d2 00D0     	 beq .LCB6991
 6215 01d4 02E1     	 b .L450
 6216              	.LCB6991:
1816://MAC/Home/Downloads/getstarted-optiga-trust-m/optiga-trust-m-1/externals/mbedtls/library/bignum.c **** 
1817://MAC/Home/Downloads/getstarted-optiga-trust-m/optiga-trust-m-1/externals/mbedtls/library/bignum.c ****     if( wsize > 1 )
 6217              	 .loc 1 1817 0
 6218 01d6 049B     	 ldr r3,[sp,#16]
 6219 01d8 AB42     	 cmp r3,r5
 6220 01da 07D1     	 bne .L458
 6221              	.LVL978:
 6222              	.L463:
1818://MAC/Home/Downloads/getstarted-optiga-trust-m/optiga-trust-m-1/externals/mbedtls/library/bignum.c ****     {
1819://MAC/Home/Downloads/getstarted-optiga-trust-m/optiga-trust-m-1/externals/mbedtls/library/bignum.c ****         /*
1820://MAC/Home/Downloads/getstarted-optiga-trust-m/optiga-trust-m-1/externals/mbedtls/library/bignum.c ****          * W[1 << (wsize - 1)] = W[1] ^ (wsize - 1)
1821://MAC/Home/Downloads/getstarted-optiga-trust-m/optiga-trust-m-1/externals/mbedtls/library/bignum.c ****          */
1822://MAC/Home/Downloads/getstarted-optiga-trust-m/optiga-trust-m-1/externals/mbedtls/library/bignum.c ****         j =  one << ( wsize - 1 );
1823://MAC/Home/Downloads/getstarted-optiga-trust-m/optiga-trust-m-1/externals/mbedtls/library/bignum.c **** 
1824://MAC/Home/Downloads/getstarted-optiga-trust-m/optiga-trust-m-1/externals/mbedtls/library/bignum.c ****         MBEDTLS_MPI_CHK( mbedtls_mpi_grow( &W[j], N->n + 1 ) );
1825://MAC/Home/Downloads/getstarted-optiga-trust-m/optiga-trust-m-1/externals/mbedtls/library/bignum.c ****         MBEDTLS_MPI_CHK( mbedtls_mpi_copy( &W[j], &W[1]    ) );
1826://MAC/Home/Downloads/getstarted-optiga-trust-m/optiga-trust-m-1/externals/mbedtls/library/bignum.c **** 
1827://MAC/Home/Downloads/getstarted-optiga-trust-m/optiga-trust-m-1/externals/mbedtls/library/bignum.c ****         for( i = 0; i < wsize - 1; i++ )
1828://MAC/Home/Downloads/getstarted-optiga-trust-m/optiga-trust-m-1/externals/mbedtls/library/bignum.c ****             MBEDTLS_MPI_CHK( mpi_montmul( &W[j], &W[j], N, mm, &T ) );
1829://MAC/Home/Downloads/getstarted-optiga-trust-m/optiga-trust-m-1/externals/mbedtls/library/bignum.c **** 
1830://MAC/Home/Downloads/getstarted-optiga-trust-m/optiga-trust-m-1/externals/mbedtls/library/bignum.c ****         /*
1831://MAC/Home/Downloads/getstarted-optiga-trust-m/optiga-trust-m-1/externals/mbedtls/library/bignum.c ****          * W[i] = W[i - 1] * W[1]
1832://MAC/Home/Downloads/getstarted-optiga-trust-m/optiga-trust-m-1/externals/mbedtls/library/bignum.c ****          */
1833://MAC/Home/Downloads/getstarted-optiga-trust-m/optiga-trust-m-1/externals/mbedtls/library/bignum.c ****         for( i = j + 1; i < ( one << wsize ); i++ )
1834://MAC/Home/Downloads/getstarted-optiga-trust-m/optiga-trust-m-1/externals/mbedtls/library/bignum.c ****         {
1835://MAC/Home/Downloads/getstarted-optiga-trust-m/optiga-trust-m-1/externals/mbedtls/library/bignum.c ****             MBEDTLS_MPI_CHK( mbedtls_mpi_grow( &W[i], N->n + 1 ) );
1836://MAC/Home/Downloads/getstarted-optiga-trust-m/optiga-trust-m-1/externals/mbedtls/library/bignum.c ****             MBEDTLS_MPI_CHK( mbedtls_mpi_copy( &W[i], &W[i - 1] ) );
1837://MAC/Home/Downloads/getstarted-optiga-trust-m/optiga-trust-m-1/externals/mbedtls/library/bignum.c **** 
1838://MAC/Home/Downloads/getstarted-optiga-trust-m/optiga-trust-m-1/externals/mbedtls/library/bignum.c ****             MBEDTLS_MPI_CHK( mpi_montmul( &W[i], &W[1], N, mm, &T ) );
1839://MAC/Home/Downloads/getstarted-optiga-trust-m/optiga-trust-m-1/externals/mbedtls/library/bignum.c ****         }
1840://MAC/Home/Downloads/getstarted-optiga-trust-m/optiga-trust-m-1/externals/mbedtls/library/bignum.c ****     }
1841://MAC/Home/Downloads/getstarted-optiga-trust-m/optiga-trust-m-1/externals/mbedtls/library/bignum.c **** 
1842://MAC/Home/Downloads/getstarted-optiga-trust-m/optiga-trust-m-1/externals/mbedtls/library/bignum.c ****     nblimbs = E->n;
1843://MAC/Home/Downloads/getstarted-optiga-trust-m/optiga-trust-m-1/externals/mbedtls/library/bignum.c ****     bufsize = 0;
1844://MAC/Home/Downloads/getstarted-optiga-trust-m/optiga-trust-m-1/externals/mbedtls/library/bignum.c ****     nbits   = 0;
1845://MAC/Home/Downloads/getstarted-optiga-trust-m/optiga-trust-m-1/externals/mbedtls/library/bignum.c ****     wbits   = 0;
1846://MAC/Home/Downloads/getstarted-optiga-trust-m/optiga-trust-m-1/externals/mbedtls/library/bignum.c ****     state   = 0;
 6223              	 .loc 1 1846 0
 6224 01dc 0025     	 mov r5,#0
1842://MAC/Home/Downloads/getstarted-optiga-trust-m/optiga-trust-m-1/externals/mbedtls/library/bignum.c ****     bufsize = 0;
 6225              	 .loc 1 1842 0
 6226 01de 079B     	 ldr r3,[sp,#28]
1844://MAC/Home/Downloads/getstarted-optiga-trust-m/optiga-trust-m-1/externals/mbedtls/library/bignum.c ****     wbits   = 0;
 6227              	 .loc 1 1844 0
 6228 01e0 0695     	 str r5,[sp,#24]
1842://MAC/Home/Downloads/getstarted-optiga-trust-m/optiga-trust-m-1/externals/mbedtls/library/bignum.c ****     bufsize = 0;
 6229              	 .loc 1 1842 0
 6230 01e2 5B68     	 ldr r3,[r3,#4]
1843://MAC/Home/Downloads/getstarted-optiga-trust-m/optiga-trust-m-1/externals/mbedtls/library/bignum.c ****     nbits   = 0;
 6231              	 .loc 1 1843 0
 6232 01e4 0995     	 str r5,[sp,#36]
1842://MAC/Home/Downloads/getstarted-optiga-trust-m/optiga-trust-m-1/externals/mbedtls/library/bignum.c ****     bufsize = 0;
 6233              	 .loc 1 1842 0
 6234 01e6 0893     	 str r3,[sp,#32]
 6235              	.LVL979:
1845://MAC/Home/Downloads/getstarted-optiga-trust-m/optiga-trust-m-1/externals/mbedtls/library/bignum.c ****     state   = 0;
 6236              	 .loc 1 1845 0
 6237 01e8 2E1C     	 mov r6,r5
 6238 01ea 68E0     	 b .L459
 6239              	.LVL980:
 6240              	.L458:
1822://MAC/Home/Downloads/getstarted-optiga-trust-m/optiga-trust-m-1/externals/mbedtls/library/bignum.c **** 
 6241              	 .loc 1 1822 0
 6242 01ec 049B     	 ldr r3,[sp,#16]
 6243 01ee 5E1E     	 sub r6,r3,#1
 6244              	.LVL981:
 6245 01f0 2B1C     	 mov r3,r5
 6246 01f2 B340     	 lsl r3,r3,r6
1824://MAC/Home/Downloads/getstarted-optiga-trust-m/optiga-trust-m-1/externals/mbedtls/library/bignum.c ****         MBEDTLS_MPI_CHK( mbedtls_mpi_copy( &W[j], &W[1]    ) );
 6247              	 .loc 1 1824 0
 6248 01f4 0C26     	 mov r6,#12
 6249 01f6 5E43     	 mul r6,r3
1822://MAC/Home/Downloads/getstarted-optiga-trust-m/optiga-trust-m-1/externals/mbedtls/library/bignum.c **** 
 6250              	 .loc 1 1822 0
 6251 01f8 0693     	 str r3,[sp,#24]
 6252              	.LVL982:
1824://MAC/Home/Downloads/getstarted-optiga-trust-m/optiga-trust-m-1/externals/mbedtls/library/bignum.c ****         MBEDTLS_MPI_CHK( mbedtls_mpi_copy( &W[j], &W[1]    ) );
 6253              	 .loc 1 1824 0
 6254 01fa 1AAB     	 add r3,sp,#104
 6255              	.LVL983:
 6256 01fc 9E19     	 add r6,r3,r6
 6257 01fe 7B68     	 ldr r3,[r7,#4]
 6258 0200 301C     	 mov r0,r6
 6259 0202 591C     	 add r1,r3,#1
 6260 0204 FFF7FEFF 	 bl mbedtls_mpi_grow
 6261              	.LVL984:
 6262 0208 041E     	 sub r4,r0,#0
 6263              	.LVL985:
 6264 020a 00D0     	 beq .LCB7047
 6265 020c E6E0     	 b .L450
 6266              	.LCB7047:
1825://MAC/Home/Downloads/getstarted-optiga-trust-m/optiga-trust-m-1/externals/mbedtls/library/bignum.c **** 
 6267              	 .loc 1 1825 0
 6268 020e 301C     	 mov r0,r6
 6269              	.LVL986:
 6270 0210 1DA9     	 add r1,sp,#116
 6271 0212 FFF7FEFF 	 bl mbedtls_mpi_copy
 6272              	.LVL987:
 6273 0216 041E     	 sub r4,r0,#0
 6274              	.LVL988:
 6275 0218 00D0     	 beq .LCB7057
 6276 021a DFE0     	 b .L450
 6277              	.LCB7057:
 6278              	.L460:
 6279              	.LVL989:
1828://MAC/Home/Downloads/getstarted-optiga-trust-m/optiga-trust-m-1/externals/mbedtls/library/bignum.c **** 
 6280              	 .loc 1 1828 0
 6281 021c 11AB     	 add r3,sp,#68
 6282              	.LVL990:
 6283 021e 0093     	 str r3,[sp]
 6284 0220 301C     	 mov r0,r6
 6285              	.LVL991:
 6286 0222 311C     	 mov r1,r6
 6287 0224 3A1C     	 mov r2,r7
 6288 0226 059B     	 ldr r3,[sp,#20]
 6289              	.LVL992:
 6290 0228 FFF7FEFF 	 bl mpi_montmul
 6291              	.LVL993:
 6292 022c 041E     	 sub r4,r0,#0
 6293              	.LVL994:
 6294 022e 00D0     	 beq .LCB7082
 6295 0230 D4E0     	 b .L450
 6296              	.LCB7082:
 6297              	.LVL995:
1827://MAC/Home/Downloads/getstarted-optiga-trust-m/optiga-trust-m-1/externals/mbedtls/library/bignum.c ****             MBEDTLS_MPI_CHK( mpi_montmul( &W[j], &W[j], N, mm, &T ) );
 6298              	 .loc 1 1827 0 discriminator 2
 6299 0232 049B     	 ldr r3,[sp,#16]
 6300 0234 0135     	 add r5,r5,#1
 6301              	.LVL996:
 6302 0236 9D42     	 cmp r5,r3
 6303 0238 F0D1     	 bne .L460
1833://MAC/Home/Downloads/getstarted-optiga-trust-m/optiga-trust-m-1/externals/mbedtls/library/bignum.c ****         {
 6304              	 .loc 1 1833 0
 6305 023a 0123     	 mov r3,#1
 6306 023c 0C25     	 mov r5,#12
 6307              	.LVL997:
 6308 023e 049A     	 ldr r2,[sp,#16]
 6309 0240 069E     	 ldr r6,[sp,#24]
 6310 0242 9340     	 lsl r3,r3,r2
 6311 0244 0136     	 add r6,r6,#1
 6312              	.LVL998:
 6313 0246 7543     	 mul r5,r6
 6314 0248 0693     	 str r3,[sp,#24]
 6315              	.LVL999:
 6316 024a 1AAB     	 add r3,sp,#104
 6317 024c 5D19     	 add r5,r3,r5
 6318              	.L461:
1833://MAC/Home/Downloads/getstarted-optiga-trust-m/optiga-trust-m-1/externals/mbedtls/library/bignum.c ****         {
 6319              	 .loc 1 1833 0 is_stmt 0 discriminator 1
 6320 024e 069B     	 ldr r3,[sp,#24]
 6321 0250 9E42     	 cmp r6,r3
 6322 0252 C3D2     	 bcs .L463
1835://MAC/Home/Downloads/getstarted-optiga-trust-m/optiga-trust-m-1/externals/mbedtls/library/bignum.c ****             MBEDTLS_MPI_CHK( mbedtls_mpi_copy( &W[i], &W[i - 1] ) );
 6323              	 .loc 1 1835 0 is_stmt 1
 6324 0254 7B68     	 ldr r3,[r7,#4]
 6325 0256 281C     	 mov r0,r5
 6326              	.LVL1000:
 6327 0258 591C     	 add r1,r3,#1
 6328 025a FFF7FEFF 	 bl mbedtls_mpi_grow
 6329              	.LVL1001:
 6330 025e 041E     	 sub r4,r0,#0
 6331              	.LVL1002:
 6332 0260 00D0     	 beq .LCB7123
 6333 0262 BBE0     	 b .L450
 6334              	.LCB7123:
1836://MAC/Home/Downloads/getstarted-optiga-trust-m/optiga-trust-m-1/externals/mbedtls/library/bignum.c **** 
 6335              	 .loc 1 1836 0
 6336 0264 291C     	 mov r1,r5
 6337 0266 281C     	 mov r0,r5
 6338              	.LVL1003:
 6339 0268 0C39     	 sub r1,r1,#12
 6340 026a FFF7FEFF 	 bl mbedtls_mpi_copy
 6341              	.LVL1004:
 6342 026e 041E     	 sub r4,r0,#0
 6343              	.LVL1005:
 6344 0270 00D0     	 beq .LCB7134
 6345 0272 B3E0     	 b .L450
 6346              	.LCB7134:
1838://MAC/Home/Downloads/getstarted-optiga-trust-m/optiga-trust-m-1/externals/mbedtls/library/bignum.c ****         }
 6347              	 .loc 1 1838 0
 6348 0274 11AB     	 add r3,sp,#68
 6349              	.LVL1006:
 6350 0276 0093     	 str r3,[sp]
 6351 0278 281C     	 mov r0,r5
 6352              	.LVL1007:
 6353 027a 1DA9     	 add r1,sp,#116
 6354 027c 3A1C     	 mov r2,r7
 6355 027e 059B     	 ldr r3,[sp,#20]
 6356              	.LVL1008:
 6357 0280 FFF7FEFF 	 bl mpi_montmul
 6358              	.LVL1009:
 6359 0284 0C35     	 add r5,r5,#12
 6360 0286 041E     	 sub r4,r0,#0
 6361              	.LVL1010:
 6362 0288 00D0     	 beq .LCB7155
 6363 028a A7E0     	 b .L450
 6364              	.LCB7155:
1833://MAC/Home/Downloads/getstarted-optiga-trust-m/optiga-trust-m-1/externals/mbedtls/library/bignum.c ****         {
 6365              	 .loc 1 1833 0 discriminator 2
 6366 028c 0136     	 add r6,r6,#1
 6367              	.LVL1011:
 6368 028e DEE7     	 b .L461
 6369              	.LVL1012:
 6370              	.L465:
1847://MAC/Home/Downloads/getstarted-optiga-trust-m/optiga-trust-m-1/externals/mbedtls/library/bignum.c **** 
1848://MAC/Home/Downloads/getstarted-optiga-trust-m/optiga-trust-m-1/externals/mbedtls/library/bignum.c ****     while( 1 )
1849://MAC/Home/Downloads/getstarted-optiga-trust-m/optiga-trust-m-1/externals/mbedtls/library/bignum.c ****     {
1850://MAC/Home/Downloads/getstarted-optiga-trust-m/optiga-trust-m-1/externals/mbedtls/library/bignum.c ****         if( bufsize == 0 )
1851://MAC/Home/Downloads/getstarted-optiga-trust-m/optiga-trust-m-1/externals/mbedtls/library/bignum.c ****         {
1852://MAC/Home/Downloads/getstarted-optiga-trust-m/optiga-trust-m-1/externals/mbedtls/library/bignum.c ****             if( nblimbs == 0 )
1853://MAC/Home/Downloads/getstarted-optiga-trust-m/optiga-trust-m-1/externals/mbedtls/library/bignum.c ****                 break;
1854://MAC/Home/Downloads/getstarted-optiga-trust-m/optiga-trust-m-1/externals/mbedtls/library/bignum.c **** 
1855://MAC/Home/Downloads/getstarted-optiga-trust-m/optiga-trust-m-1/externals/mbedtls/library/bignum.c ****             nblimbs--;
 6371              	 .loc 1 1855 0
 6372 0290 089B     	 ldr r3,[sp,#32]
 6373              	.LVL1013:
 6374 0292 013B     	 sub r3,r3,#1
 6375 0294 0893     	 str r3,[sp,#32]
 6376              	.LVL1014:
1856://MAC/Home/Downloads/getstarted-optiga-trust-m/optiga-trust-m-1/externals/mbedtls/library/bignum.c **** 
1857://MAC/Home/Downloads/getstarted-optiga-trust-m/optiga-trust-m-1/externals/mbedtls/library/bignum.c ****             bufsize = sizeof( mbedtls_mpi_uint ) << 3;
 6377              	 .loc 1 1857 0
 6378 0296 2023     	 mov r3,#32
 6379              	.LVL1015:
 6380 0298 0993     	 str r3,[sp,#36]
 6381              	.LVL1016:
 6382              	.L464:
1858://MAC/Home/Downloads/getstarted-optiga-trust-m/optiga-trust-m-1/externals/mbedtls/library/bignum.c ****         }
1859://MAC/Home/Downloads/getstarted-optiga-trust-m/optiga-trust-m-1/externals/mbedtls/library/bignum.c **** 
1860://MAC/Home/Downloads/getstarted-optiga-trust-m/optiga-trust-m-1/externals/mbedtls/library/bignum.c ****         bufsize--;
 6383              	 .loc 1 1860 0
 6384 029a 099B     	 ldr r3,[sp,#36]
 6385 029c 013B     	 sub r3,r3,#1
 6386 029e 0993     	 str r3,[sp,#36]
 6387              	.LVL1017:
1861://MAC/Home/Downloads/getstarted-optiga-trust-m/optiga-trust-m-1/externals/mbedtls/library/bignum.c **** 
1862://MAC/Home/Downloads/getstarted-optiga-trust-m/optiga-trust-m-1/externals/mbedtls/library/bignum.c ****         ei = (E->p[nblimbs] >> bufsize) & 1;
 6388              	 .loc 1 1862 0
 6389 02a0 079B     	 ldr r3,[sp,#28]
 6390              	.LVL1018:
 6391 02a2 9B68     	 ldr r3,[r3,#8]
 6392 02a4 0B93     	 str r3,[sp,#44]
 6393 02a6 089B     	 ldr r3,[sp,#32]
 6394 02a8 0B9A     	 ldr r2,[sp,#44]
 6395 02aa 9B00     	 lsl r3,r3,#2
 6396 02ac 9B58     	 ldr r3,[r3,r2]
 6397 02ae 099A     	 ldr r2,[sp,#36]
 6398 02b0 D340     	 lsr r3,r3,r2
 6399 02b2 0122     	 mov r2,#1
 6400 02b4 1340     	 and r3,r2
 6401              	.LVL1019:
1863://MAC/Home/Downloads/getstarted-optiga-trust-m/optiga-trust-m-1/externals/mbedtls/library/bignum.c **** 
1864://MAC/Home/Downloads/getstarted-optiga-trust-m/optiga-trust-m-1/externals/mbedtls/library/bignum.c ****         /*
1865://MAC/Home/Downloads/getstarted-optiga-trust-m/optiga-trust-m-1/externals/mbedtls/library/bignum.c ****          * skip leading 0s
1866://MAC/Home/Downloads/getstarted-optiga-trust-m/optiga-trust-m-1/externals/mbedtls/library/bignum.c ****          */
1867://MAC/Home/Downloads/getstarted-optiga-trust-m/optiga-trust-m-1/externals/mbedtls/library/bignum.c ****         if( ei == 0 && state == 0 )
 6402              	 .loc 1 1867 0
 6403 02b6 1A1C     	 mov r2,r3
 6404 02b8 2A43     	 orr r2,r5
 6405 02ba 0CD1     	 bne .L513
 6406 02bc 151C     	 mov r5,r2
 6407              	.LVL1020:
 6408              	.L459:
1850://MAC/Home/Downloads/getstarted-optiga-trust-m/optiga-trust-m-1/externals/mbedtls/library/bignum.c ****         {
 6409              	 .loc 1 1850 0
 6410 02be 099B     	 ldr r3,[sp,#36]
 6411 02c0 002B     	 cmp r3,#0
 6412 02c2 EAD1     	 bne .L464
 6413              	.LVL1021:
1852://MAC/Home/Downloads/getstarted-optiga-trust-m/optiga-trust-m-1/externals/mbedtls/library/bignum.c ****                 break;
 6414              	 .loc 1 1852 0
 6415 02c4 089B     	 ldr r3,[sp,#32]
 6416 02c6 002B     	 cmp r3,#0
 6417 02c8 E2D1     	 bne .L465
1868://MAC/Home/Downloads/getstarted-optiga-trust-m/optiga-trust-m-1/externals/mbedtls/library/bignum.c ****             continue;
1869://MAC/Home/Downloads/getstarted-optiga-trust-m/optiga-trust-m-1/externals/mbedtls/library/bignum.c **** 
1870://MAC/Home/Downloads/getstarted-optiga-trust-m/optiga-trust-m-1/externals/mbedtls/library/bignum.c ****         if( ei == 0 && state == 1 )
1871://MAC/Home/Downloads/getstarted-optiga-trust-m/optiga-trust-m-1/externals/mbedtls/library/bignum.c ****         {
1872://MAC/Home/Downloads/getstarted-optiga-trust-m/optiga-trust-m-1/externals/mbedtls/library/bignum.c ****             /*
1873://MAC/Home/Downloads/getstarted-optiga-trust-m/optiga-trust-m-1/externals/mbedtls/library/bignum.c ****              * out of window, square X
1874://MAC/Home/Downloads/getstarted-optiga-trust-m/optiga-trust-m-1/externals/mbedtls/library/bignum.c ****              */
1875://MAC/Home/Downloads/getstarted-optiga-trust-m/optiga-trust-m-1/externals/mbedtls/library/bignum.c ****             MBEDTLS_MPI_CHK( mpi_montmul( X, X, N, mm, &T ) );
1876://MAC/Home/Downloads/getstarted-optiga-trust-m/optiga-trust-m-1/externals/mbedtls/library/bignum.c ****             continue;
1877://MAC/Home/Downloads/getstarted-optiga-trust-m/optiga-trust-m-1/externals/mbedtls/library/bignum.c ****         }
1878://MAC/Home/Downloads/getstarted-optiga-trust-m/optiga-trust-m-1/externals/mbedtls/library/bignum.c **** 
1879://MAC/Home/Downloads/getstarted-optiga-trust-m/optiga-trust-m-1/externals/mbedtls/library/bignum.c ****         /*
1880://MAC/Home/Downloads/getstarted-optiga-trust-m/optiga-trust-m-1/externals/mbedtls/library/bignum.c ****          * add ei to current window
1881://MAC/Home/Downloads/getstarted-optiga-trust-m/optiga-trust-m-1/externals/mbedtls/library/bignum.c ****          */
1882://MAC/Home/Downloads/getstarted-optiga-trust-m/optiga-trust-m-1/externals/mbedtls/library/bignum.c ****         state = 2;
1883://MAC/Home/Downloads/getstarted-optiga-trust-m/optiga-trust-m-1/externals/mbedtls/library/bignum.c **** 
1884://MAC/Home/Downloads/getstarted-optiga-trust-m/optiga-trust-m-1/externals/mbedtls/library/bignum.c ****         nbits++;
1885://MAC/Home/Downloads/getstarted-optiga-trust-m/optiga-trust-m-1/externals/mbedtls/library/bignum.c ****         wbits |= ( ei << ( wsize - nbits ) );
1886://MAC/Home/Downloads/getstarted-optiga-trust-m/optiga-trust-m-1/externals/mbedtls/library/bignum.c **** 
1887://MAC/Home/Downloads/getstarted-optiga-trust-m/optiga-trust-m-1/externals/mbedtls/library/bignum.c ****         if( nbits == wsize )
1888://MAC/Home/Downloads/getstarted-optiga-trust-m/optiga-trust-m-1/externals/mbedtls/library/bignum.c ****         {
1889://MAC/Home/Downloads/getstarted-optiga-trust-m/optiga-trust-m-1/externals/mbedtls/library/bignum.c ****             /*
1890://MAC/Home/Downloads/getstarted-optiga-trust-m/optiga-trust-m-1/externals/mbedtls/library/bignum.c ****              * X = X^wsize R^-1 mod N
1891://MAC/Home/Downloads/getstarted-optiga-trust-m/optiga-trust-m-1/externals/mbedtls/library/bignum.c ****              */
1892://MAC/Home/Downloads/getstarted-optiga-trust-m/optiga-trust-m-1/externals/mbedtls/library/bignum.c ****             for( i = 0; i < wsize; i++ )
1893://MAC/Home/Downloads/getstarted-optiga-trust-m/optiga-trust-m-1/externals/mbedtls/library/bignum.c ****                 MBEDTLS_MPI_CHK( mpi_montmul( X, X, N, mm, &T ) );
1894://MAC/Home/Downloads/getstarted-optiga-trust-m/optiga-trust-m-1/externals/mbedtls/library/bignum.c **** 
1895://MAC/Home/Downloads/getstarted-optiga-trust-m/optiga-trust-m-1/externals/mbedtls/library/bignum.c ****             /*
1896://MAC/Home/Downloads/getstarted-optiga-trust-m/optiga-trust-m-1/externals/mbedtls/library/bignum.c ****              * X = X * W[wbits] R^-1 mod N
1897://MAC/Home/Downloads/getstarted-optiga-trust-m/optiga-trust-m-1/externals/mbedtls/library/bignum.c ****              */
1898://MAC/Home/Downloads/getstarted-optiga-trust-m/optiga-trust-m-1/externals/mbedtls/library/bignum.c ****             MBEDTLS_MPI_CHK( mpi_montmul( X, &W[wbits], N, mm, &T ) );
1899://MAC/Home/Downloads/getstarted-optiga-trust-m/optiga-trust-m-1/externals/mbedtls/library/bignum.c **** 
1900://MAC/Home/Downloads/getstarted-optiga-trust-m/optiga-trust-m-1/externals/mbedtls/library/bignum.c ****             state--;
1901://MAC/Home/Downloads/getstarted-optiga-trust-m/optiga-trust-m-1/externals/mbedtls/library/bignum.c ****             nbits = 0;
1902://MAC/Home/Downloads/getstarted-optiga-trust-m/optiga-trust-m-1/externals/mbedtls/library/bignum.c ****             wbits = 0;
1903://MAC/Home/Downloads/getstarted-optiga-trust-m/optiga-trust-m-1/externals/mbedtls/library/bignum.c ****         }
1904://MAC/Home/Downloads/getstarted-optiga-trust-m/optiga-trust-m-1/externals/mbedtls/library/bignum.c ****     }
1905://MAC/Home/Downloads/getstarted-optiga-trust-m/optiga-trust-m-1/externals/mbedtls/library/bignum.c **** 
1906://MAC/Home/Downloads/getstarted-optiga-trust-m/optiga-trust-m-1/externals/mbedtls/library/bignum.c ****     /*
1907://MAC/Home/Downloads/getstarted-optiga-trust-m/optiga-trust-m-1/externals/mbedtls/library/bignum.c ****      * process the remaining bits
1908://MAC/Home/Downloads/getstarted-optiga-trust-m/optiga-trust-m-1/externals/mbedtls/library/bignum.c ****      */
1909://MAC/Home/Downloads/getstarted-optiga-trust-m/optiga-trust-m-1/externals/mbedtls/library/bignum.c ****     for( i = 0; i < nbits; i++ )
1910://MAC/Home/Downloads/getstarted-optiga-trust-m/optiga-trust-m-1/externals/mbedtls/library/bignum.c ****     {
1911://MAC/Home/Downloads/getstarted-optiga-trust-m/optiga-trust-m-1/externals/mbedtls/library/bignum.c ****         MBEDTLS_MPI_CHK( mpi_montmul( X, X, N, mm, &T ) );
1912://MAC/Home/Downloads/getstarted-optiga-trust-m/optiga-trust-m-1/externals/mbedtls/library/bignum.c **** 
1913://MAC/Home/Downloads/getstarted-optiga-trust-m/optiga-trust-m-1/externals/mbedtls/library/bignum.c ****         wbits <<= 1;
1914://MAC/Home/Downloads/getstarted-optiga-trust-m/optiga-trust-m-1/externals/mbedtls/library/bignum.c **** 
1915://MAC/Home/Downloads/getstarted-optiga-trust-m/optiga-trust-m-1/externals/mbedtls/library/bignum.c ****         if( ( wbits & ( one << wsize ) ) != 0 )
 6418              	 .loc 1 1915 0
 6419 02ca 049A     	 ldr r2,[sp,#16]
 6420 02cc 0133     	 add r3,r3,#1
 6421 02ce 9340     	 lsl r3,r3,r2
 6422 02d0 089D     	 ldr r5,[sp,#32]
 6423              	.LVL1022:
 6424 02d2 0993     	 str r3,[sp,#36]
 6425 02d4 4DE0     	 b .L466
 6426              	.LVL1023:
 6427              	.L513:
1870://MAC/Home/Downloads/getstarted-optiga-trust-m/optiga-trust-m-1/externals/mbedtls/library/bignum.c ****         {
 6428              	 .loc 1 1870 0
 6429 02d6 002B     	 cmp r3,#0
 6430 02d8 10D1     	 bne .L468
1870://MAC/Home/Downloads/getstarted-optiga-trust-m/optiga-trust-m-1/externals/mbedtls/library/bignum.c ****         {
 6431              	 .loc 1 1870 0 is_stmt 0 discriminator 1
 6432 02da 012D     	 cmp r5,#1
 6433 02dc 0ED1     	 bne .L468
1875://MAC/Home/Downloads/getstarted-optiga-trust-m/optiga-trust-m-1/externals/mbedtls/library/bignum.c ****             continue;
 6434              	 .loc 1 1875 0 is_stmt 1
 6435 02de 0398     	 ldr r0,[sp,#12]
 6436 02e0 11AB     	 add r3,sp,#68
 6437              	.LVL1024:
 6438 02e2 0093     	 str r3,[sp]
 6439              	.LVL1025:
 6440 02e4 011C     	 mov r1,r0
 6441 02e6 3A1C     	 mov r2,r7
 6442 02e8 059B     	 ldr r3,[sp,#20]
 6443              	.LVL1026:
 6444 02ea FFF7FEFF 	 bl mpi_montmul
 6445              	.LVL1027:
 6446 02ee 041E     	 sub r4,r0,#0
 6447              	.LVL1028:
 6448 02f0 74D1     	 bne .L450
 6449 02f2 E4E7     	 b .L459
 6450              	.L518:
 6451              	 .align 2
 6452              	.L517:
 6453 02f4 94F9FFFF 	 .word -1644
 6454 02f8 9F020000 	 .word 671
 6455              	.LVL1029:
 6456              	.L468:
1884://MAC/Home/Downloads/getstarted-optiga-trust-m/optiga-trust-m-1/externals/mbedtls/library/bignum.c ****         wbits |= ( ei << ( wsize - nbits ) );
 6457              	 .loc 1 1884 0
 6458 02fc 069A     	 ldr r2,[sp,#24]
1882://MAC/Home/Downloads/getstarted-optiga-trust-m/optiga-trust-m-1/externals/mbedtls/library/bignum.c **** 
 6459              	 .loc 1 1882 0
 6460 02fe 0225     	 mov r5,#2
1884://MAC/Home/Downloads/getstarted-optiga-trust-m/optiga-trust-m-1/externals/mbedtls/library/bignum.c ****         wbits |= ( ei << ( wsize - nbits ) );
 6461              	 .loc 1 1884 0
 6462 0300 0132     	 add r2,r2,#1
 6463 0302 0692     	 str r2,[sp,#24]
 6464              	.LVL1030:
1885://MAC/Home/Downloads/getstarted-optiga-trust-m/optiga-trust-m-1/externals/mbedtls/library/bignum.c **** 
 6465              	 .loc 1 1885 0
 6466 0304 0699     	 ldr r1,[sp,#24]
 6467 0306 049A     	 ldr r2,[sp,#16]
 6468              	.LVL1031:
 6469 0308 521A     	 sub r2,r2,r1
 6470 030a 9340     	 lsl r3,r3,r2
 6471              	.LVL1032:
1887://MAC/Home/Downloads/getstarted-optiga-trust-m/optiga-trust-m-1/externals/mbedtls/library/bignum.c ****         {
 6472              	 .loc 1 1887 0
 6473 030c 049A     	 ldr r2,[sp,#16]
1885://MAC/Home/Downloads/getstarted-optiga-trust-m/optiga-trust-m-1/externals/mbedtls/library/bignum.c **** 
 6474              	 .loc 1 1885 0
 6475 030e 1E43     	 orr r6,r3
 6476              	.LVL1033:
1887://MAC/Home/Downloads/getstarted-optiga-trust-m/optiga-trust-m-1/externals/mbedtls/library/bignum.c ****         {
 6477              	 .loc 1 1887 0
 6478 0310 9142     	 cmp r1,r2
 6479 0312 D4D1     	 bne .L459
 6480 0314 0025     	 mov r5,#0
 6481              	.LVL1034:
 6482              	.L469:
1893://MAC/Home/Downloads/getstarted-optiga-trust-m/optiga-trust-m-1/externals/mbedtls/library/bignum.c **** 
 6483              	 .loc 1 1893 0
 6484 0316 0398     	 ldr r0,[sp,#12]
 6485 0318 11AB     	 add r3,sp,#68
 6486              	.LVL1035:
 6487 031a 0093     	 str r3,[sp]
 6488 031c 011C     	 mov r1,r0
 6489 031e 3A1C     	 mov r2,r7
 6490 0320 059B     	 ldr r3,[sp,#20]
 6491              	.LVL1036:
 6492 0322 FFF7FEFF 	 bl mpi_montmul
 6493              	.LVL1037:
 6494 0326 041E     	 sub r4,r0,#0
 6495              	.LVL1038:
 6496 0328 58D1     	 bne .L450
1892://MAC/Home/Downloads/getstarted-optiga-trust-m/optiga-trust-m-1/externals/mbedtls/library/bignum.c ****                 MBEDTLS_MPI_CHK( mpi_montmul( X, X, N, mm, &T ) );
 6497              	 .loc 1 1892 0 discriminator 2
 6498 032a 049B     	 ldr r3,[sp,#16]
 6499 032c 0135     	 add r5,r5,#1
 6500              	.LVL1039:
 6501 032e 9D42     	 cmp r5,r3
 6502 0330 F1D1     	 bne .L469
1898://MAC/Home/Downloads/getstarted-optiga-trust-m/optiga-trust-m-1/externals/mbedtls/library/bignum.c **** 
 6503              	 .loc 1 1898 0
 6504 0332 0C21     	 mov r1,#12
 6505 0334 4E43     	 mul r6,r1
 6506              	.LVL1040:
 6507 0336 1AAB     	 add r3,sp,#104
 6508 0338 9919     	 add r1,r3,r6
 6509 033a 11AB     	 add r3,sp,#68
 6510              	.LVL1041:
 6511 033c 0093     	 str r3,[sp]
 6512 033e 0398     	 ldr r0,[sp,#12]
 6513              	.LVL1042:
 6514 0340 3A1C     	 mov r2,r7
 6515 0342 059B     	 ldr r3,[sp,#20]
 6516              	.LVL1043:
 6517 0344 FFF7FEFF 	 bl mpi_montmul
 6518              	.LVL1044:
 6519 0348 041E     	 sub r4,r0,#0
 6520              	.LVL1045:
 6521 034a 47D1     	 bne .L450
1900://MAC/Home/Downloads/getstarted-optiga-trust-m/optiga-trust-m-1/externals/mbedtls/library/bignum.c ****             nbits = 0;
 6522              	 .loc 1 1900 0
 6523 034c 0125     	 mov r5,#1
 6524              	.LVL1046:
1901://MAC/Home/Downloads/getstarted-optiga-trust-m/optiga-trust-m-1/externals/mbedtls/library/bignum.c ****             wbits = 0;
 6525              	 .loc 1 1901 0
 6526 034e 061C     	 mov r6,r0
1902://MAC/Home/Downloads/getstarted-optiga-trust-m/optiga-trust-m-1/externals/mbedtls/library/bignum.c ****         }
 6527              	 .loc 1 1902 0
 6528 0350 0690     	 str r0,[sp,#24]
 6529              	.LVL1047:
 6530 0352 B4E7     	 b .L459
 6531              	.LVL1048:
 6532              	.L473:
1911://MAC/Home/Downloads/getstarted-optiga-trust-m/optiga-trust-m-1/externals/mbedtls/library/bignum.c **** 
 6533              	 .loc 1 1911 0
 6534 0354 0398     	 ldr r0,[sp,#12]
 6535 0356 11AB     	 add r3,sp,#68
 6536              	.LVL1049:
 6537 0358 0093     	 str r3,[sp]
 6538 035a 011C     	 mov r1,r0
 6539 035c 3A1C     	 mov r2,r7
 6540 035e 059B     	 ldr r3,[sp,#20]
 6541              	.LVL1050:
 6542 0360 FFF7FEFF 	 bl mpi_montmul
 6543              	.LVL1051:
 6544 0364 041E     	 sub r4,r0,#0
 6545              	.LVL1052:
 6546 0366 39D1     	 bne .L450
 6547              	 .loc 1 1915 0
 6548 0368 099B     	 ldr r3,[sp,#36]
1913://MAC/Home/Downloads/getstarted-optiga-trust-m/optiga-trust-m-1/externals/mbedtls/library/bignum.c **** 
 6549              	 .loc 1 1913 0
 6550 036a 7600     	 lsl r6,r6,#1
 6551              	.LVL1053:
 6552              	 .loc 1 1915 0
 6553 036c 1E42     	 tst r6,r3
 6554 036e 04D1     	 bne .L514
 6555              	.L471:
1909://MAC/Home/Downloads/getstarted-optiga-trust-m/optiga-trust-m-1/externals/mbedtls/library/bignum.c ****     {
 6556              	 .loc 1 1909 0 discriminator 2
 6557 0370 0135     	 add r5,r5,#1
 6558              	.LVL1054:
 6559              	.L466:
1909://MAC/Home/Downloads/getstarted-optiga-trust-m/optiga-trust-m-1/externals/mbedtls/library/bignum.c ****     {
 6560              	 .loc 1 1909 0 is_stmt 0 discriminator 1
 6561 0372 069B     	 ldr r3,[sp,#24]
 6562 0374 9D42     	 cmp r5,r3
 6563 0376 EDD1     	 bne .L473
 6564 0378 0AE0     	 b .L515
 6565              	.LVL1055:
 6566              	.L514:
1916://MAC/Home/Downloads/getstarted-optiga-trust-m/optiga-trust-m-1/externals/mbedtls/library/bignum.c ****             MBEDTLS_MPI_CHK( mpi_montmul( X, &W[1], N, mm, &T ) );
 6567              	 .loc 1 1916 0 is_stmt 1
 6568 037a 11AB     	 add r3,sp,#68
 6569              	.LVL1056:
 6570 037c 0093     	 str r3,[sp]
 6571 037e 0398     	 ldr r0,[sp,#12]
 6572              	.LVL1057:
 6573 0380 1DA9     	 add r1,sp,#116
 6574 0382 3A1C     	 mov r2,r7
 6575 0384 059B     	 ldr r3,[sp,#20]
 6576              	.LVL1058:
 6577 0386 FFF7FEFF 	 bl mpi_montmul
 6578              	.LVL1059:
 6579 038a 041E     	 sub r4,r0,#0
 6580              	.LVL1060:
 6581 038c F0D0     	 beq .L471
 6582 038e 25E0     	 b .L450
 6583              	.LVL1061:
 6584              	.L515:
 6585              	.LBB166:
 6586              	.LBB167:
1719://MAC/Home/Downloads/getstarted-optiga-trust-m/optiga-trust-m-1/externals/mbedtls/library/bignum.c ****     mbedtls_mpi U;
 6587              	 .loc 1 1719 0
 6588 0390 0125     	 mov r5,#1
 6589              	.LVL1062:
1723://MAC/Home/Downloads/getstarted-optiga-trust-m/optiga-trust-m-1/externals/mbedtls/library/bignum.c **** 
 6590              	 .loc 1 1723 0
 6591 0392 0DAB     	 add r3,sp,#52
 6592 0394 1993     	 str r3,[sp,#100]
1725://MAC/Home/Downloads/getstarted-optiga-trust-m/optiga-trust-m-1/externals/mbedtls/library/bignum.c **** }
 6593              	 .loc 1 1725 0
 6594 0396 11AB     	 add r3,sp,#68
 6595              	.LVL1063:
 6596 0398 0093     	 str r3,[sp]
 6597 039a 0398     	 ldr r0,[sp,#12]
 6598 039c 17A9     	 add r1,sp,#92
 6599 039e 3A1C     	 mov r2,r7
 6600 03a0 059B     	 ldr r3,[sp,#20]
 6601              	.LVL1064:
1719://MAC/Home/Downloads/getstarted-optiga-trust-m/optiga-trust-m-1/externals/mbedtls/library/bignum.c ****     mbedtls_mpi U;
 6602              	 .loc 1 1719 0
 6603 03a2 0D95     	 str r5,[sp,#52]
1722://MAC/Home/Downloads/getstarted-optiga-trust-m/optiga-trust-m-1/externals/mbedtls/library/bignum.c ****     U.p = &z;
 6604              	 .loc 1 1722 0
 6605 03a4 1795     	 str r5,[sp,#92]
 6606 03a6 1895     	 str r5,[sp,#96]
1725://MAC/Home/Downloads/getstarted-optiga-trust-m/optiga-trust-m-1/externals/mbedtls/library/bignum.c **** }
 6607              	 .loc 1 1725 0
 6608 03a8 FFF7FEFF 	 bl mpi_montmul
 6609              	.LVL1065:
 6610 03ac 041E     	 sub r4,r0,#0
 6611              	.LBE167:
 6612              	.LBE166:
1917://MAC/Home/Downloads/getstarted-optiga-trust-m/optiga-trust-m-1/externals/mbedtls/library/bignum.c ****     }
1918://MAC/Home/Downloads/getstarted-optiga-trust-m/optiga-trust-m-1/externals/mbedtls/library/bignum.c **** 
1919://MAC/Home/Downloads/getstarted-optiga-trust-m/optiga-trust-m-1/externals/mbedtls/library/bignum.c ****     /*
1920://MAC/Home/Downloads/getstarted-optiga-trust-m/optiga-trust-m-1/externals/mbedtls/library/bignum.c ****      * X = A^E * R * R^-1 mod N = A^E mod N
1921://MAC/Home/Downloads/getstarted-optiga-trust-m/optiga-trust-m-1/externals/mbedtls/library/bignum.c ****      */
1922://MAC/Home/Downloads/getstarted-optiga-trust-m/optiga-trust-m-1/externals/mbedtls/library/bignum.c ****     MBEDTLS_MPI_CHK( mpi_montred( X, N, mm, &T ) );
 6613              	 .loc 1 1922 0
 6614 03ae 15D1     	 bne .L450
1923://MAC/Home/Downloads/getstarted-optiga-trust-m/optiga-trust-m-1/externals/mbedtls/library/bignum.c **** 
1924://MAC/Home/Downloads/getstarted-optiga-trust-m/optiga-trust-m-1/externals/mbedtls/library/bignum.c ****     if( neg && E->n != 0 && ( E->p[0] & 1 ) != 0 )
 6615              	 .loc 1 1924 0
 6616 03b0 0A9B     	 ldr r3,[sp,#40]
 6617 03b2 002B     	 cmp r3,#0
 6618 03b4 12D0     	 beq .L450
 6619              	 .loc 1 1924 0 is_stmt 0 discriminator 1
 6620 03b6 079B     	 ldr r3,[sp,#28]
 6621 03b8 5B68     	 ldr r3,[r3,#4]
 6622 03ba 0593     	 str r3,[sp,#20]
 6623              	.LVL1066:
 6624 03bc 002B     	 cmp r3,#0
 6625 03be 0DD0     	 beq .L450
 6626              	 .loc 1 1924 0 discriminator 2
 6627 03c0 079B     	 ldr r3,[sp,#28]
 6628 03c2 9B68     	 ldr r3,[r3,#8]
 6629 03c4 1B68     	 ldr r3,[r3]
 6630 03c6 2B42     	 tst r3,r5
 6631 03c8 08D0     	 beq .L450
1925://MAC/Home/Downloads/getstarted-optiga-trust-m/optiga-trust-m-1/externals/mbedtls/library/bignum.c ****     {
1926://MAC/Home/Downloads/getstarted-optiga-trust-m/optiga-trust-m-1/externals/mbedtls/library/bignum.c ****         X->s = -1;
 6632              	 .loc 1 1926 0 is_stmt 1
 6633 03ca 0123     	 mov r3,#1
 6634 03cc 039A     	 ldr r2,[sp,#12]
 6635 03ce 5B42     	 neg r3,r3
 6636 03d0 1360     	 str r3,[r2]
1927://MAC/Home/Downloads/getstarted-optiga-trust-m/optiga-trust-m-1/externals/mbedtls/library/bignum.c ****         MBEDTLS_MPI_CHK( mbedtls_mpi_add_mpi( X, N, X ) );
 6637              	 .loc 1 1927 0
 6638 03d2 101C     	 mov r0,r2
 6639 03d4 391C     	 mov r1,r7
 6640 03d6 FFF7FEFF 	 bl mbedtls_mpi_add_mpi
 6641              	.LVL1067:
 6642 03da 041C     	 mov r4,r0
 6643              	.LVL1068:
 6644              	.L450:
1928://MAC/Home/Downloads/getstarted-optiga-trust-m/optiga-trust-m-1/externals/mbedtls/library/bignum.c ****     }
1929://MAC/Home/Downloads/getstarted-optiga-trust-m/optiga-trust-m-1/externals/mbedtls/library/bignum.c **** 
1930://MAC/Home/Downloads/getstarted-optiga-trust-m/optiga-trust-m-1/externals/mbedtls/library/bignum.c **** cleanup:
1931://MAC/Home/Downloads/getstarted-optiga-trust-m/optiga-trust-m-1/externals/mbedtls/library/bignum.c **** 
1932://MAC/Home/Downloads/getstarted-optiga-trust-m/optiga-trust-m-1/externals/mbedtls/library/bignum.c ****     for( i = ( one << ( wsize - 1 ) ); i < ( one << wsize ); i++ )
 6645              	 .loc 1 1932 0
 6646 03dc 0126     	 mov r6,#1
 6647 03de 049B     	 ldr r3,[sp,#16]
 6648 03e0 5D1E     	 sub r5,r3,#1
 6649 03e2 331C     	 mov r3,r6
 6650 03e4 AB40     	 lsl r3,r3,r5
 6651 03e6 1D1C     	 mov r5,r3
 6652              	.LVL1069:
 6653 03e8 049B     	 ldr r3,[sp,#16]
 6654              	.LVL1070:
 6655 03ea 9E40     	 lsl r6,r6,r3
 6656              	.L474:
 6657              	 .loc 1 1932 0 is_stmt 0 discriminator 1
 6658 03ec B542     	 cmp r5,r6
 6659 03ee 07D2     	 bcs .L516
 6660 03f0 0C20     	 mov r0,#12
 6661 03f2 6843     	 mul r0,r5
 6662 03f4 1AAB     	 add r3,sp,#104
 6663 03f6 1818     	 add r0,r3,r0
1933://MAC/Home/Downloads/getstarted-optiga-trust-m/optiga-trust-m-1/externals/mbedtls/library/bignum.c ****         mbedtls_mpi_free( &W[i] );
 6664              	 .loc 1 1933 0 is_stmt 1 discriminator 3
 6665 03f8 FFF7FEFF 	 bl mbedtls_mpi_free
 6666              	.LVL1071:
1932://MAC/Home/Downloads/getstarted-optiga-trust-m/optiga-trust-m-1/externals/mbedtls/library/bignum.c ****         mbedtls_mpi_free( &W[i] );
 6667              	 .loc 1 1932 0 discriminator 3
 6668 03fc 0135     	 add r5,r5,#1
 6669              	.LVL1072:
 6670 03fe F5E7     	 b .L474
 6671              	.L516:
1934://MAC/Home/Downloads/getstarted-optiga-trust-m/optiga-trust-m-1/externals/mbedtls/library/bignum.c **** 
1935://MAC/Home/Downloads/getstarted-optiga-trust-m/optiga-trust-m-1/externals/mbedtls/library/bignum.c ****     mbedtls_mpi_free( &W[1] ); mbedtls_mpi_free( &T ); mbedtls_mpi_free( &Apos );
 6672              	 .loc 1 1935 0
 6673 0400 1DA8     	 add r0,sp,#116
 6674 0402 FFF7FEFF 	 bl mbedtls_mpi_free
 6675              	.LVL1073:
 6676 0406 11A8     	 add r0,sp,#68
 6677              	.LVL1074:
 6678 0408 FFF7FEFF 	 bl mbedtls_mpi_free
 6679              	.LVL1075:
 6680 040c 14A8     	 add r0,sp,#80
 6681              	.LVL1076:
 6682 040e FFF7FEFF 	 bl mbedtls_mpi_free
 6683              	.LVL1077:
1936://MAC/Home/Downloads/getstarted-optiga-trust-m/optiga-trust-m-1/externals/mbedtls/library/bignum.c **** 
1937://MAC/Home/Downloads/getstarted-optiga-trust-m/optiga-trust-m-1/externals/mbedtls/library/bignum.c ****     if( _RR == NULL || _RR->p == NULL )
 6684              	 .loc 1 1937 0
 6685 0412 CB23     	 mov r3,#203
 6686 0414 0AAA     	 add r2,sp,#40
 6687 0416 DB00     	 lsl r3,r3,#3
 6688 0418 9B18     	 add r3,r3,r2
 6689 041a 1B68     	 ldr r3,[r3]
 6690 041c 002B     	 cmp r3,#0
 6691 041e 07D0     	 beq .L476
 6692              	 .loc 1 1937 0 is_stmt 0 discriminator 1
 6693 0420 CB23     	 mov r3,#203
 6694 0422 DB00     	 lsl r3,r3,#3
 6695 0424 9B18     	 add r3,r3,r2
 6696 0426 1B68     	 ldr r3,[r3]
1938://MAC/Home/Downloads/getstarted-optiga-trust-m/optiga-trust-m-1/externals/mbedtls/library/bignum.c ****         mbedtls_mpi_free( &RR );
1939://MAC/Home/Downloads/getstarted-optiga-trust-m/optiga-trust-m-1/externals/mbedtls/library/bignum.c **** 
1940://MAC/Home/Downloads/getstarted-optiga-trust-m/optiga-trust-m-1/externals/mbedtls/library/bignum.c ****     return( ret );
 6697              	 .loc 1 1940 0 is_stmt 1 discriminator 1
 6698 0428 201C     	 mov r0,r4
1937://MAC/Home/Downloads/getstarted-optiga-trust-m/optiga-trust-m-1/externals/mbedtls/library/bignum.c ****         mbedtls_mpi_free( &RR );
 6699              	 .loc 1 1937 0 discriminator 1
 6700 042a 9B68     	 ldr r3,[r3,#8]
 6701 042c 002B     	 cmp r3,#0
 6702 042e 06D1     	 bne .L447
 6703              	.L476:
1938://MAC/Home/Downloads/getstarted-optiga-trust-m/optiga-trust-m-1/externals/mbedtls/library/bignum.c ****         mbedtls_mpi_free( &RR );
 6704              	 .loc 1 1938 0
 6705 0430 0EA8     	 add r0,sp,#56
 6706              	.LVL1078:
 6707 0432 FFF7FEFF 	 bl mbedtls_mpi_free
 6708              	.LVL1079:
 6709              	 .loc 1 1940 0
 6710 0436 201C     	 mov r0,r4
 6711 0438 01E0     	 b .L447
 6712              	.LVL1080:
 6713              	.L479:
1749://MAC/Home/Downloads/getstarted-optiga-trust-m/optiga-trust-m-1/externals/mbedtls/library/bignum.c **** 
 6714              	 .loc 1 1749 0
 6715 043a 0420     	 mov r0,#4
 6716 043c 4042     	 neg r0,r0
 6717              	.LVL1081:
 6718              	.L447:
1941://MAC/Home/Downloads/getstarted-optiga-trust-m/optiga-trust-m-1/externals/mbedtls/library/bignum.c **** }
 6719              	 .loc 1 1941 0
 6720 043e 014B     	 ldr r3,.L519
 6721 0440 9D44     	 add sp,sp,r3
 6722              	 
 6723              	.LVL1082:
 6724 0442 F0BD     	 pop {r4,r5,r6,r7,pc}
 6725              	.L520:
 6726              	 .align 2
 6727              	.L519:
 6728 0444 6C060000 	 .word 1644
 6729              	 .cfi_endproc
 6730              	.LFE45:
 6732              	 .section .text.mbedtls_mpi_gcd,"ax",%progbits
 6733              	 .align 1
 6734              	 .global mbedtls_mpi_gcd
 6735              	 .code 16
 6736              	 .thumb_func
 6738              	mbedtls_mpi_gcd:
 6739              	.LFB46:
1942://MAC/Home/Downloads/getstarted-optiga-trust-m/optiga-trust-m-1/externals/mbedtls/library/bignum.c **** 
1943://MAC/Home/Downloads/getstarted-optiga-trust-m/optiga-trust-m-1/externals/mbedtls/library/bignum.c **** /*
1944://MAC/Home/Downloads/getstarted-optiga-trust-m/optiga-trust-m-1/externals/mbedtls/library/bignum.c ****  * Greatest common divisor: G = gcd(A, B)  (HAC 14.54)
1945://MAC/Home/Downloads/getstarted-optiga-trust-m/optiga-trust-m-1/externals/mbedtls/library/bignum.c ****  */
1946://MAC/Home/Downloads/getstarted-optiga-trust-m/optiga-trust-m-1/externals/mbedtls/library/bignum.c **** int mbedtls_mpi_gcd( mbedtls_mpi *G, const mbedtls_mpi *A, const mbedtls_mpi *B )
1947://MAC/Home/Downloads/getstarted-optiga-trust-m/optiga-trust-m-1/externals/mbedtls/library/bignum.c **** {
 6740              	 .loc 1 1947 0
 6741              	 .cfi_startproc
 6742              	.LVL1083:
 6743 0000 70B5     	 push {r4,r5,r6,lr}
 6744              	.LCFI50:
 6745              	 .cfi_def_cfa_offset 16
 6746              	 .cfi_offset 4,-16
 6747              	 .cfi_offset 5,-12
 6748              	 .cfi_offset 6,-8
 6749              	 .cfi_offset 14,-4
 6750              	.LBB168:
 6751              	.LBB169:
  94://MAC/Home/Downloads/getstarted-optiga-trust-m/optiga-trust-m-1/externals/mbedtls/library/bignum.c ****     X->p = NULL;
 6752              	 .loc 1 94 0
 6753 0002 0023     	 mov r3,#0
 6754              	.LBE169:
 6755              	.LBE168:
 6756              	 .loc 1 1947 0
 6757 0004 151C     	 mov r5,r2
 6758              	.LBB172:
 6759              	.LBB170:
  93://MAC/Home/Downloads/getstarted-optiga-trust-m/optiga-trust-m-1/externals/mbedtls/library/bignum.c ****     X->n = 0;
 6760              	 .loc 1 93 0
 6761 0006 0122     	 mov r2,#1
 6762              	.LVL1084:
 6763              	.LBE170:
 6764              	.LBE172:
 6765              	 .loc 1 1947 0
 6766 0008 8AB0     	 sub sp,sp,#40
 6767              	.LCFI51:
 6768              	 .cfi_def_cfa_offset 56
 6769              	.LVL1085:
 6770              	 .loc 1 1947 0
 6771 000a 061C     	 mov r6,r0
1948://MAC/Home/Downloads/getstarted-optiga-trust-m/optiga-trust-m-1/externals/mbedtls/library/bignum.c ****     int ret;
1949://MAC/Home/Downloads/getstarted-optiga-trust-m/optiga-trust-m-1/externals/mbedtls/library/bignum.c ****     size_t lz, lzt;
1950://MAC/Home/Downloads/getstarted-optiga-trust-m/optiga-trust-m-1/externals/mbedtls/library/bignum.c ****     mbedtls_mpi TG, TA, TB;
1951://MAC/Home/Downloads/getstarted-optiga-trust-m/optiga-trust-m-1/externals/mbedtls/library/bignum.c **** 
1952://MAC/Home/Downloads/getstarted-optiga-trust-m/optiga-trust-m-1/externals/mbedtls/library/bignum.c ****     MPI_VALIDATE_RET( G != NULL );
1953://MAC/Home/Downloads/getstarted-optiga-trust-m/optiga-trust-m-1/externals/mbedtls/library/bignum.c ****     MPI_VALIDATE_RET( A != NULL );
1954://MAC/Home/Downloads/getstarted-optiga-trust-m/optiga-trust-m-1/externals/mbedtls/library/bignum.c ****     MPI_VALIDATE_RET( B != NULL );
1955://MAC/Home/Downloads/getstarted-optiga-trust-m/optiga-trust-m-1/externals/mbedtls/library/bignum.c **** 
1956://MAC/Home/Downloads/getstarted-optiga-trust-m/optiga-trust-m-1/externals/mbedtls/library/bignum.c ****     mbedtls_mpi_init( &TG ); mbedtls_mpi_init( &TA ); mbedtls_mpi_init( &TB );
1957://MAC/Home/Downloads/getstarted-optiga-trust-m/optiga-trust-m-1/externals/mbedtls/library/bignum.c **** 
1958://MAC/Home/Downloads/getstarted-optiga-trust-m/optiga-trust-m-1/externals/mbedtls/library/bignum.c ****     MBEDTLS_MPI_CHK( mbedtls_mpi_copy( &TA, A ) );
 6772              	 .loc 1 1958 0
 6773 000c 04A8     	 add r0,sp,#16
 6774              	.LVL1086:
 6775              	.LBB173:
 6776              	.LBB171:
  93://MAC/Home/Downloads/getstarted-optiga-trust-m/optiga-trust-m-1/externals/mbedtls/library/bignum.c ****     X->n = 0;
 6777              	 .loc 1 93 0
 6778 000e 0192     	 str r2,[sp,#4]
  94://MAC/Home/Downloads/getstarted-optiga-trust-m/optiga-trust-m-1/externals/mbedtls/library/bignum.c ****     X->p = NULL;
 6779              	 .loc 1 94 0
 6780 0010 0293     	 str r3,[sp,#8]
  95://MAC/Home/Downloads/getstarted-optiga-trust-m/optiga-trust-m-1/externals/mbedtls/library/bignum.c **** }
 6781              	 .loc 1 95 0
 6782 0012 0393     	 str r3,[sp,#12]
 6783              	.LVL1087:
 6784              	.LBE171:
 6785              	.LBE173:
 6786              	.LBB174:
 6787              	.LBB175:
  93://MAC/Home/Downloads/getstarted-optiga-trust-m/optiga-trust-m-1/externals/mbedtls/library/bignum.c ****     X->n = 0;
 6788              	 .loc 1 93 0
 6789 0014 0492     	 str r2,[sp,#16]
  94://MAC/Home/Downloads/getstarted-optiga-trust-m/optiga-trust-m-1/externals/mbedtls/library/bignum.c ****     X->p = NULL;
 6790              	 .loc 1 94 0
 6791 0016 0593     	 str r3,[sp,#20]
  95://MAC/Home/Downloads/getstarted-optiga-trust-m/optiga-trust-m-1/externals/mbedtls/library/bignum.c **** }
 6792              	 .loc 1 95 0
 6793 0018 0693     	 str r3,[sp,#24]
 6794              	.LVL1088:
 6795              	.LBE175:
 6796              	.LBE174:
 6797              	.LBB176:
 6798              	.LBB177:
  93://MAC/Home/Downloads/getstarted-optiga-trust-m/optiga-trust-m-1/externals/mbedtls/library/bignum.c ****     X->n = 0;
 6799              	 .loc 1 93 0
 6800 001a 0792     	 str r2,[sp,#28]
  94://MAC/Home/Downloads/getstarted-optiga-trust-m/optiga-trust-m-1/externals/mbedtls/library/bignum.c ****     X->p = NULL;
 6801              	 .loc 1 94 0
 6802 001c 0893     	 str r3,[sp,#32]
  95://MAC/Home/Downloads/getstarted-optiga-trust-m/optiga-trust-m-1/externals/mbedtls/library/bignum.c **** }
 6803              	 .loc 1 95 0
 6804 001e 0993     	 str r3,[sp,#36]
 6805              	.LBE177:
 6806              	.LBE176:
 6807              	 .loc 1 1958 0
 6808 0020 FFF7FEFF 	 bl mbedtls_mpi_copy
 6809              	.LVL1089:
 6810 0024 041E     	 sub r4,r0,#0
 6811              	.LVL1090:
 6812 0026 5FD1     	 bne .L522
1959://MAC/Home/Downloads/getstarted-optiga-trust-m/optiga-trust-m-1/externals/mbedtls/library/bignum.c ****     MBEDTLS_MPI_CHK( mbedtls_mpi_copy( &TB, B ) );
 6813              	 .loc 1 1959 0
 6814 0028 07A8     	 add r0,sp,#28
 6815              	.LVL1091:
 6816 002a 291C     	 mov r1,r5
 6817 002c FFF7FEFF 	 bl mbedtls_mpi_copy
 6818              	.LVL1092:
 6819 0030 041E     	 sub r4,r0,#0
 6820              	.LVL1093:
 6821 0032 59D1     	 bne .L522
1960://MAC/Home/Downloads/getstarted-optiga-trust-m/optiga-trust-m-1/externals/mbedtls/library/bignum.c **** 
1961://MAC/Home/Downloads/getstarted-optiga-trust-m/optiga-trust-m-1/externals/mbedtls/library/bignum.c ****     lz = mbedtls_mpi_lsb( &TA );
 6822              	 .loc 1 1961 0
 6823 0034 04A8     	 add r0,sp,#16
 6824              	.LVL1094:
 6825 0036 FFF7FEFF 	 bl mbedtls_mpi_lsb
 6826              	.LVL1095:
 6827 003a 041C     	 mov r4,r0
 6828              	.LVL1096:
1962://MAC/Home/Downloads/getstarted-optiga-trust-m/optiga-trust-m-1/externals/mbedtls/library/bignum.c ****     lzt = mbedtls_mpi_lsb( &TB );
 6829              	 .loc 1 1962 0
 6830 003c 07A8     	 add r0,sp,#28
 6831              	.LVL1097:
 6832 003e FFF7FEFF 	 bl mbedtls_mpi_lsb
 6833              	.LVL1098:
 6834 0042 051E     	 sub r5,r0,#0
 6835              	.LVL1099:
 6836 0044 A542     	 cmp r5,r4
 6837 0046 00D9     	 bls .L523
 6838 0048 251C     	 mov r5,r4
 6839              	.L523:
 6840              	.LVL1100:
1963://MAC/Home/Downloads/getstarted-optiga-trust-m/optiga-trust-m-1/externals/mbedtls/library/bignum.c **** 
1964://MAC/Home/Downloads/getstarted-optiga-trust-m/optiga-trust-m-1/externals/mbedtls/library/bignum.c ****     if( lzt < lz )
1965://MAC/Home/Downloads/getstarted-optiga-trust-m/optiga-trust-m-1/externals/mbedtls/library/bignum.c ****         lz = lzt;
1966://MAC/Home/Downloads/getstarted-optiga-trust-m/optiga-trust-m-1/externals/mbedtls/library/bignum.c **** 
1967://MAC/Home/Downloads/getstarted-optiga-trust-m/optiga-trust-m-1/externals/mbedtls/library/bignum.c ****     MBEDTLS_MPI_CHK( mbedtls_mpi_shift_r( &TA, lz ) );
 6841              	 .loc 1 1967 0
 6842 004a 04A8     	 add r0,sp,#16
 6843              	.LVL1101:
 6844 004c 291C     	 mov r1,r5
 6845 004e FFF7FEFF 	 bl mbedtls_mpi_shift_r
 6846              	.LVL1102:
 6847 0052 041E     	 sub r4,r0,#0
 6848              	.LVL1103:
 6849 0054 48D1     	 bne .L522
1968://MAC/Home/Downloads/getstarted-optiga-trust-m/optiga-trust-m-1/externals/mbedtls/library/bignum.c ****     MBEDTLS_MPI_CHK( mbedtls_mpi_shift_r( &TB, lz ) );
 6850              	 .loc 1 1968 0
 6851 0056 07A8     	 add r0,sp,#28
 6852              	.LVL1104:
 6853 0058 291C     	 mov r1,r5
 6854 005a FFF7FEFF 	 bl mbedtls_mpi_shift_r
 6855              	.LVL1105:
 6856 005e 041E     	 sub r4,r0,#0
 6857              	.LVL1106:
 6858 0060 42D1     	 bne .L522
1969://MAC/Home/Downloads/getstarted-optiga-trust-m/optiga-trust-m-1/externals/mbedtls/library/bignum.c **** 
1970://MAC/Home/Downloads/getstarted-optiga-trust-m/optiga-trust-m-1/externals/mbedtls/library/bignum.c ****     TA.s = TB.s = 1;
 6859              	 .loc 1 1970 0
 6860 0062 0123     	 mov r3,#1
 6861 0064 0793     	 str r3,[sp,#28]
 6862 0066 0493     	 str r3,[sp,#16]
 6863              	.L524:
1971://MAC/Home/Downloads/getstarted-optiga-trust-m/optiga-trust-m-1/externals/mbedtls/library/bignum.c **** 
1972://MAC/Home/Downloads/getstarted-optiga-trust-m/optiga-trust-m-1/externals/mbedtls/library/bignum.c ****     while( mbedtls_mpi_cmp_int( &TA, 0 ) != 0 )
 6864              	 .loc 1 1972 0
 6865 0068 04A8     	 add r0,sp,#16
 6866              	.LVL1107:
 6867 006a 0021     	 mov r1,#0
 6868 006c FFF7FEFF 	 bl mbedtls_mpi_cmp_int
 6869              	.LVL1108:
 6870 0070 0028     	 cmp r0,#0
 6871 0072 2ED0     	 beq .L529
1973://MAC/Home/Downloads/getstarted-optiga-trust-m/optiga-trust-m-1/externals/mbedtls/library/bignum.c ****     {
1974://MAC/Home/Downloads/getstarted-optiga-trust-m/optiga-trust-m-1/externals/mbedtls/library/bignum.c ****         MBEDTLS_MPI_CHK( mbedtls_mpi_shift_r( &TA, mbedtls_mpi_lsb( &TA ) ) );
 6872              	 .loc 1 1974 0
 6873 0074 04A8     	 add r0,sp,#16
 6874              	.LVL1109:
 6875 0076 FFF7FEFF 	 bl mbedtls_mpi_lsb
 6876              	.LVL1110:
 6877 007a 011C     	 mov r1,r0
 6878 007c 04A8     	 add r0,sp,#16
 6879              	.LVL1111:
 6880 007e FFF7FEFF 	 bl mbedtls_mpi_shift_r
 6881              	.LVL1112:
 6882 0082 041E     	 sub r4,r0,#0
 6883              	.LVL1113:
 6884 0084 30D1     	 bne .L522
1975://MAC/Home/Downloads/getstarted-optiga-trust-m/optiga-trust-m-1/externals/mbedtls/library/bignum.c ****         MBEDTLS_MPI_CHK( mbedtls_mpi_shift_r( &TB, mbedtls_mpi_lsb( &TB ) ) );
 6885              	 .loc 1 1975 0
 6886 0086 07A8     	 add r0,sp,#28
 6887              	.LVL1114:
 6888 0088 FFF7FEFF 	 bl mbedtls_mpi_lsb
 6889              	.LVL1115:
 6890 008c 011C     	 mov r1,r0
 6891 008e 07A8     	 add r0,sp,#28
 6892              	.LVL1116:
 6893 0090 FFF7FEFF 	 bl mbedtls_mpi_shift_r
 6894              	.LVL1117:
 6895 0094 041E     	 sub r4,r0,#0
 6896              	.LVL1118:
 6897 0096 27D1     	 bne .L522
1976://MAC/Home/Downloads/getstarted-optiga-trust-m/optiga-trust-m-1/externals/mbedtls/library/bignum.c **** 
1977://MAC/Home/Downloads/getstarted-optiga-trust-m/optiga-trust-m-1/externals/mbedtls/library/bignum.c ****         if( mbedtls_mpi_cmp_mpi( &TA, &TB ) >= 0 )
 6898              	 .loc 1 1977 0
 6899 0098 04A8     	 add r0,sp,#16
 6900              	.LVL1119:
 6901 009a 07A9     	 add r1,sp,#28
 6902              	.LVL1120:
 6903 009c FFF7FEFF 	 bl mbedtls_mpi_cmp_mpi
 6904              	.LVL1121:
 6905 00a0 0028     	 cmp r0,#0
 6906 00a2 08DB     	 blt .L525
1978://MAC/Home/Downloads/getstarted-optiga-trust-m/optiga-trust-m-1/externals/mbedtls/library/bignum.c ****         {
1979://MAC/Home/Downloads/getstarted-optiga-trust-m/optiga-trust-m-1/externals/mbedtls/library/bignum.c ****             MBEDTLS_MPI_CHK( mbedtls_mpi_sub_abs( &TA, &TA, &TB ) );
 6907              	 .loc 1 1979 0
 6908 00a4 04A8     	 add r0,sp,#16
 6909              	.LVL1122:
 6910 00a6 011C     	 mov r1,r0
 6911 00a8 07AA     	 add r2,sp,#28
 6912              	.LVL1123:
 6913 00aa FFF7FEFF 	 bl mbedtls_mpi_sub_abs
 6914              	.LVL1124:
 6915 00ae 041E     	 sub r4,r0,#0
 6916              	.LVL1125:
 6917 00b0 1AD1     	 bne .L522
1980://MAC/Home/Downloads/getstarted-optiga-trust-m/optiga-trust-m-1/externals/mbedtls/library/bignum.c ****             MBEDTLS_MPI_CHK( mbedtls_mpi_shift_r( &TA, 1 ) );
 6918              	 .loc 1 1980 0
 6919 00b2 04A8     	 add r0,sp,#16
 6920              	.LVL1126:
 6921 00b4 07E0     	 b .L528
 6922              	.LVL1127:
 6923              	.L525:
1981://MAC/Home/Downloads/getstarted-optiga-trust-m/optiga-trust-m-1/externals/mbedtls/library/bignum.c ****         }
1982://MAC/Home/Downloads/getstarted-optiga-trust-m/optiga-trust-m-1/externals/mbedtls/library/bignum.c ****         else
1983://MAC/Home/Downloads/getstarted-optiga-trust-m/optiga-trust-m-1/externals/mbedtls/library/bignum.c ****         {
1984://MAC/Home/Downloads/getstarted-optiga-trust-m/optiga-trust-m-1/externals/mbedtls/library/bignum.c ****             MBEDTLS_MPI_CHK( mbedtls_mpi_sub_abs( &TB, &TB, &TA ) );
 6924              	 .loc 1 1984 0
 6925 00b6 07A8     	 add r0,sp,#28
 6926              	.LVL1128:
 6927 00b8 011C     	 mov r1,r0
 6928 00ba 04AA     	 add r2,sp,#16
 6929              	.LVL1129:
 6930 00bc FFF7FEFF 	 bl mbedtls_mpi_sub_abs
 6931              	.LVL1130:
 6932 00c0 041E     	 sub r4,r0,#0
 6933              	.LVL1131:
 6934 00c2 11D1     	 bne .L522
1985://MAC/Home/Downloads/getstarted-optiga-trust-m/optiga-trust-m-1/externals/mbedtls/library/bignum.c ****             MBEDTLS_MPI_CHK( mbedtls_mpi_shift_r( &TB, 1 ) );
 6935              	 .loc 1 1985 0
 6936 00c4 07A8     	 add r0,sp,#28
 6937              	.LVL1132:
 6938              	.L528:
 6939 00c6 0121     	 mov r1,#1
 6940 00c8 FFF7FEFF 	 bl mbedtls_mpi_shift_r
 6941              	.LVL1133:
 6942 00cc 041E     	 sub r4,r0,#0
 6943              	.LVL1134:
 6944 00ce CBD0     	 beq .L524
 6945 00d0 0AE0     	 b .L522
 6946              	.LVL1135:
 6947              	.L529:
1986://MAC/Home/Downloads/getstarted-optiga-trust-m/optiga-trust-m-1/externals/mbedtls/library/bignum.c ****         }
1987://MAC/Home/Downloads/getstarted-optiga-trust-m/optiga-trust-m-1/externals/mbedtls/library/bignum.c ****     }
1988://MAC/Home/Downloads/getstarted-optiga-trust-m/optiga-trust-m-1/externals/mbedtls/library/bignum.c **** 
1989://MAC/Home/Downloads/getstarted-optiga-trust-m/optiga-trust-m-1/externals/mbedtls/library/bignum.c ****     MBEDTLS_MPI_CHK( mbedtls_mpi_shift_l( &TB, lz ) );
 6948              	 .loc 1 1989 0
 6949 00d2 07A8     	 add r0,sp,#28
 6950              	.LVL1136:
 6951 00d4 291C     	 mov r1,r5
 6952 00d6 FFF7FEFF 	 bl mbedtls_mpi_shift_l
 6953              	.LVL1137:
 6954 00da 041E     	 sub r4,r0,#0
 6955              	.LVL1138:
 6956 00dc 04D1     	 bne .L522
1990://MAC/Home/Downloads/getstarted-optiga-trust-m/optiga-trust-m-1/externals/mbedtls/library/bignum.c ****     MBEDTLS_MPI_CHK( mbedtls_mpi_copy( G, &TB ) );
 6957              	 .loc 1 1990 0
 6958 00de 301C     	 mov r0,r6
 6959              	.LVL1139:
 6960 00e0 07A9     	 add r1,sp,#28
 6961              	.LVL1140:
 6962 00e2 FFF7FEFF 	 bl mbedtls_mpi_copy
 6963              	.LVL1141:
 6964 00e6 041C     	 mov r4,r0
 6965              	.LVL1142:
 6966              	.L522:
1991://MAC/Home/Downloads/getstarted-optiga-trust-m/optiga-trust-m-1/externals/mbedtls/library/bignum.c **** 
1992://MAC/Home/Downloads/getstarted-optiga-trust-m/optiga-trust-m-1/externals/mbedtls/library/bignum.c **** cleanup:
1993://MAC/Home/Downloads/getstarted-optiga-trust-m/optiga-trust-m-1/externals/mbedtls/library/bignum.c **** 
1994://MAC/Home/Downloads/getstarted-optiga-trust-m/optiga-trust-m-1/externals/mbedtls/library/bignum.c ****     mbedtls_mpi_free( &TG ); mbedtls_mpi_free( &TA ); mbedtls_mpi_free( &TB );
 6967              	 .loc 1 1994 0
 6968 00e8 01A8     	 add r0,sp,#4
 6969              	.LVL1143:
 6970 00ea FFF7FEFF 	 bl mbedtls_mpi_free
 6971              	.LVL1144:
 6972 00ee 04A8     	 add r0,sp,#16
 6973              	.LVL1145:
 6974 00f0 FFF7FEFF 	 bl mbedtls_mpi_free
 6975              	.LVL1146:
 6976 00f4 07A8     	 add r0,sp,#28
 6977              	.LVL1147:
 6978 00f6 FFF7FEFF 	 bl mbedtls_mpi_free
 6979              	.LVL1148:
1995://MAC/Home/Downloads/getstarted-optiga-trust-m/optiga-trust-m-1/externals/mbedtls/library/bignum.c **** 
1996://MAC/Home/Downloads/getstarted-optiga-trust-m/optiga-trust-m-1/externals/mbedtls/library/bignum.c ****     return( ret );
1997://MAC/Home/Downloads/getstarted-optiga-trust-m/optiga-trust-m-1/externals/mbedtls/library/bignum.c **** }
 6980              	 .loc 1 1997 0
 6981 00fa 201C     	 mov r0,r4
 6982 00fc 0AB0     	 add sp,sp,#40
 6983              	 
 6984              	.LVL1149:
 6985              	.LVL1150:
 6986 00fe 70BD     	 pop {r4,r5,r6,pc}
 6987              	 .cfi_endproc
 6988              	.LFE46:
 6990              	 .section .text.mbedtls_mpi_fill_random,"ax",%progbits
 6991              	 .align 1
 6992              	 .global mbedtls_mpi_fill_random
 6993              	 .code 16
 6994              	 .thumb_func
 6996              	mbedtls_mpi_fill_random:
 6997              	.LFB47:
1998://MAC/Home/Downloads/getstarted-optiga-trust-m/optiga-trust-m-1/externals/mbedtls/library/bignum.c **** 
1999://MAC/Home/Downloads/getstarted-optiga-trust-m/optiga-trust-m-1/externals/mbedtls/library/bignum.c **** /*
2000://MAC/Home/Downloads/getstarted-optiga-trust-m/optiga-trust-m-1/externals/mbedtls/library/bignum.c ****  * Fill X with size bytes of random.
2001://MAC/Home/Downloads/getstarted-optiga-trust-m/optiga-trust-m-1/externals/mbedtls/library/bignum.c ****  *
2002://MAC/Home/Downloads/getstarted-optiga-trust-m/optiga-trust-m-1/externals/mbedtls/library/bignum.c ****  * Use a temporary bytes representation to make sure the result is the same
2003://MAC/Home/Downloads/getstarted-optiga-trust-m/optiga-trust-m-1/externals/mbedtls/library/bignum.c ****  * regardless of the platform endianness (useful when f_rng is actually
2004://MAC/Home/Downloads/getstarted-optiga-trust-m/optiga-trust-m-1/externals/mbedtls/library/bignum.c ****  * deterministic, eg for tests).
2005://MAC/Home/Downloads/getstarted-optiga-trust-m/optiga-trust-m-1/externals/mbedtls/library/bignum.c ****  */
2006://MAC/Home/Downloads/getstarted-optiga-trust-m/optiga-trust-m-1/externals/mbedtls/library/bignum.c **** int mbedtls_mpi_fill_random( mbedtls_mpi *X, size_t size,
2007://MAC/Home/Downloads/getstarted-optiga-trust-m/optiga-trust-m-1/externals/mbedtls/library/bignum.c ****                      int (*f_rng)(void *, unsigned char *, size_t),
2008://MAC/Home/Downloads/getstarted-optiga-trust-m/optiga-trust-m-1/externals/mbedtls/library/bignum.c ****                      void *p_rng )
2009://MAC/Home/Downloads/getstarted-optiga-trust-m/optiga-trust-m-1/externals/mbedtls/library/bignum.c **** {
 6998              	 .loc 1 2009 0
 6999              	 .cfi_startproc
 7000              	.LVL1151:
 7001 0000 70B5     	 push {r4,r5,r6,lr}
 7002              	.LCFI52:
 7003              	 .cfi_def_cfa_offset 16
 7004              	 .cfi_offset 4,-16
 7005              	 .cfi_offset 5,-12
 7006              	 .cfi_offset 6,-8
 7007              	 .cfi_offset 14,-4
 7008 0002 114C     	 ldr r4,.L534
 7009 0004 A544     	 add sp,sp,r4
 7010              	.LCFI53:
 7011              	 .cfi_def_cfa_offset 1040
2010://MAC/Home/Downloads/getstarted-optiga-trust-m/optiga-trust-m-1/externals/mbedtls/library/bignum.c ****     int ret;
2011://MAC/Home/Downloads/getstarted-optiga-trust-m/optiga-trust-m-1/externals/mbedtls/library/bignum.c ****     unsigned char buf[MBEDTLS_MPI_MAX_SIZE];
2012://MAC/Home/Downloads/getstarted-optiga-trust-m/optiga-trust-m-1/externals/mbedtls/library/bignum.c ****     MPI_VALIDATE_RET( X     != NULL );
2013://MAC/Home/Downloads/getstarted-optiga-trust-m/optiga-trust-m-1/externals/mbedtls/library/bignum.c ****     MPI_VALIDATE_RET( f_rng != NULL );
2014://MAC/Home/Downloads/getstarted-optiga-trust-m/optiga-trust-m-1/externals/mbedtls/library/bignum.c **** 
2015://MAC/Home/Downloads/getstarted-optiga-trust-m/optiga-trust-m-1/externals/mbedtls/library/bignum.c ****     if( size > MBEDTLS_MPI_MAX_SIZE )
 7012              	 .loc 1 2015 0
 7013 0006 8024     	 mov r4,#128
 7014 0008 E400     	 lsl r4,r4,#3
 7015 000a A142     	 cmp r1,r4
 7016 000c 15D8     	 bhi .L533
 7017 000e 0D1C     	 mov r5,r1
 7018 0010 141C     	 mov r4,r2
 7019 0012 061C     	 mov r6,r0
2016://MAC/Home/Downloads/getstarted-optiga-trust-m/optiga-trust-m-1/externals/mbedtls/library/bignum.c ****         return( MBEDTLS_ERR_MPI_BAD_INPUT_DATA );
2017://MAC/Home/Downloads/getstarted-optiga-trust-m/optiga-trust-m-1/externals/mbedtls/library/bignum.c **** 
2018://MAC/Home/Downloads/getstarted-optiga-trust-m/optiga-trust-m-1/externals/mbedtls/library/bignum.c ****     MBEDTLS_MPI_CHK( f_rng( p_rng, buf, size ) );
 7020              	 .loc 1 2018 0
 7021 0014 6946     	 mov r1,sp
 7022              	.LVL1152:
 7023 0016 181C     	 mov r0,r3
 7024              	.LVL1153:
 7025 0018 2A1C     	 mov r2,r5
 7026              	.LVL1154:
 7027 001a A047     	 blx r4
 7028              	.LVL1155:
 7029 001c 041E     	 sub r4,r0,#0
 7030              	.LVL1156:
 7031 001e 05D1     	 bne .L532
2019://MAC/Home/Downloads/getstarted-optiga-trust-m/optiga-trust-m-1/externals/mbedtls/library/bignum.c ****     MBEDTLS_MPI_CHK( mbedtls_mpi_read_binary( X, buf, size ) );
 7032              	 .loc 1 2019 0
 7033 0020 301C     	 mov r0,r6
 7034              	.LVL1157:
 7035 0022 6946     	 mov r1,sp
 7036 0024 2A1C     	 mov r2,r5
 7037 0026 FFF7FEFF 	 bl mbedtls_mpi_read_binary
 7038              	.LVL1158:
 7039 002a 041C     	 mov r4,r0
 7040              	.LVL1159:
 7041              	.L532:
2020://MAC/Home/Downloads/getstarted-optiga-trust-m/optiga-trust-m-1/externals/mbedtls/library/bignum.c **** 
2021://MAC/Home/Downloads/getstarted-optiga-trust-m/optiga-trust-m-1/externals/mbedtls/library/bignum.c **** cleanup:
2022://MAC/Home/Downloads/getstarted-optiga-trust-m/optiga-trust-m-1/externals/mbedtls/library/bignum.c ****     mbedtls_platform_zeroize( buf, sizeof( buf ) );
 7042              	 .loc 1 2022 0
 7043 002c 8021     	 mov r1,#128
 7044 002e 6846     	 mov r0,sp
 7045              	.LVL1160:
 7046 0030 C900     	 lsl r1,r1,#3
 7047 0032 FFF7FEFF 	 bl mbedtls_platform_zeroize
 7048              	.LVL1161:
2023://MAC/Home/Downloads/getstarted-optiga-trust-m/optiga-trust-m-1/externals/mbedtls/library/bignum.c ****     return( ret );
 7049              	 .loc 1 2023 0
 7050 0036 201C     	 mov r0,r4
 7051 0038 01E0     	 b .L531
 7052              	.LVL1162:
 7053              	.L533:
2016://MAC/Home/Downloads/getstarted-optiga-trust-m/optiga-trust-m-1/externals/mbedtls/library/bignum.c **** 
 7054              	 .loc 1 2016 0
 7055 003a 0420     	 mov r0,#4
 7056              	.LVL1163:
 7057 003c 4042     	 neg r0,r0
 7058              	.LVL1164:
 7059              	.L531:
2024://MAC/Home/Downloads/getstarted-optiga-trust-m/optiga-trust-m-1/externals/mbedtls/library/bignum.c **** }
 7060              	 .loc 1 2024 0
 7061 003e 8023     	 mov r3,#128
 7062 0040 DB00     	 lsl r3,r3,#3
 7063 0042 9D44     	 add sp,sp,r3
 7064              	 
 7065 0044 70BD     	 pop {r4,r5,r6,pc}
 7066              	.L535:
 7067 0046 C046     	 .align 2
 7068              	.L534:
 7069 0048 00FCFFFF 	 .word -1024
 7070              	 .cfi_endproc
 7071              	.LFE47:
 7073              	 .section .text.mbedtls_mpi_inv_mod,"ax",%progbits
 7074              	 .align 1
 7075              	 .global mbedtls_mpi_inv_mod
 7076              	 .code 16
 7077              	 .thumb_func
 7079              	mbedtls_mpi_inv_mod:
 7080              	.LFB48:
2025://MAC/Home/Downloads/getstarted-optiga-trust-m/optiga-trust-m-1/externals/mbedtls/library/bignum.c **** 
2026://MAC/Home/Downloads/getstarted-optiga-trust-m/optiga-trust-m-1/externals/mbedtls/library/bignum.c **** /*
2027://MAC/Home/Downloads/getstarted-optiga-trust-m/optiga-trust-m-1/externals/mbedtls/library/bignum.c ****  * Modular inverse: X = A^-1 mod N  (HAC 14.61 / 14.64)
2028://MAC/Home/Downloads/getstarted-optiga-trust-m/optiga-trust-m-1/externals/mbedtls/library/bignum.c ****  */
2029://MAC/Home/Downloads/getstarted-optiga-trust-m/optiga-trust-m-1/externals/mbedtls/library/bignum.c **** int mbedtls_mpi_inv_mod( mbedtls_mpi *X, const mbedtls_mpi *A, const mbedtls_mpi *N )
2030://MAC/Home/Downloads/getstarted-optiga-trust-m/optiga-trust-m-1/externals/mbedtls/library/bignum.c **** {
 7081              	 .loc 1 2030 0
 7082              	 .cfi_startproc
 7083              	.LVL1165:
 7084 0000 F0B5     	 push {r4,r5,r6,r7,lr}
 7085              	.LCFI54:
 7086              	 .cfi_def_cfa_offset 20
 7087              	 .cfi_offset 4,-20
 7088              	 .cfi_offset 5,-16
 7089              	 .cfi_offset 6,-12
 7090              	 .cfi_offset 7,-8
 7091              	 .cfi_offset 14,-4
 7092 0002 9FB0     	 sub sp,sp,#124
 7093              	.LCFI55:
 7094              	 .cfi_def_cfa_offset 144
 7095              	 .loc 1 2030 0
 7096 0004 0190     	 str r0,[sp,#4]
 7097 0006 0F1C     	 mov r7,r1
2031://MAC/Home/Downloads/getstarted-optiga-trust-m/optiga-trust-m-1/externals/mbedtls/library/bignum.c ****     int ret;
2032://MAC/Home/Downloads/getstarted-optiga-trust-m/optiga-trust-m-1/externals/mbedtls/library/bignum.c ****     mbedtls_mpi G, TA, TU, U1, U2, TB, TV, V1, V2;
2033://MAC/Home/Downloads/getstarted-optiga-trust-m/optiga-trust-m-1/externals/mbedtls/library/bignum.c ****     MPI_VALIDATE_RET( X != NULL );
2034://MAC/Home/Downloads/getstarted-optiga-trust-m/optiga-trust-m-1/externals/mbedtls/library/bignum.c ****     MPI_VALIDATE_RET( A != NULL );
2035://MAC/Home/Downloads/getstarted-optiga-trust-m/optiga-trust-m-1/externals/mbedtls/library/bignum.c ****     MPI_VALIDATE_RET( N != NULL );
2036://MAC/Home/Downloads/getstarted-optiga-trust-m/optiga-trust-m-1/externals/mbedtls/library/bignum.c **** 
2037://MAC/Home/Downloads/getstarted-optiga-trust-m/optiga-trust-m-1/externals/mbedtls/library/bignum.c ****     if( mbedtls_mpi_cmp_int( N, 1 ) <= 0 )
 7098              	 .loc 1 2037 0
 7099 0008 101C     	 mov r0,r2
 7100              	.LVL1166:
 7101 000a 0121     	 mov r1,#1
 7102              	.LVL1167:
2030://MAC/Home/Downloads/getstarted-optiga-trust-m/optiga-trust-m-1/externals/mbedtls/library/bignum.c ****     int ret;
 7103              	 .loc 1 2030 0
 7104 000c 161C     	 mov r6,r2
 7105              	 .loc 1 2037 0
 7106 000e FFF7FEFF 	 bl mbedtls_mpi_cmp_int
 7107              	.LVL1168:
 7108 0012 0028     	 cmp r0,#0
 7109 0014 00DC     	 bgt .LCB8095
 7110 0016 39E1     	 b .L556
 7111              	.LCB8095:
 7112              	.LVL1169:
 7113              	.LBB178:
 7114              	.LBB179:
  94://MAC/Home/Downloads/getstarted-optiga-trust-m/optiga-trust-m-1/externals/mbedtls/library/bignum.c ****     X->p = NULL;
 7115              	 .loc 1 94 0
 7116 0018 0023     	 mov r3,#0
  93://MAC/Home/Downloads/getstarted-optiga-trust-m/optiga-trust-m-1/externals/mbedtls/library/bignum.c ****     X->n = 0;
 7117              	 .loc 1 93 0
 7118 001a 0125     	 mov r5,#1
 7119              	.LBE179:
 7120              	.LBE178:
2038://MAC/Home/Downloads/getstarted-optiga-trust-m/optiga-trust-m-1/externals/mbedtls/library/bignum.c ****         return( MBEDTLS_ERR_MPI_BAD_INPUT_DATA );
2039://MAC/Home/Downloads/getstarted-optiga-trust-m/optiga-trust-m-1/externals/mbedtls/library/bignum.c **** 
2040://MAC/Home/Downloads/getstarted-optiga-trust-m/optiga-trust-m-1/externals/mbedtls/library/bignum.c ****     mbedtls_mpi_init( &TA ); mbedtls_mpi_init( &TU ); mbedtls_mpi_init( &U1 ); mbedtls_mpi_init( &U
2041://MAC/Home/Downloads/getstarted-optiga-trust-m/optiga-trust-m-1/externals/mbedtls/library/bignum.c ****     mbedtls_mpi_init( &G ); mbedtls_mpi_init( &TB ); mbedtls_mpi_init( &TV );
2042://MAC/Home/Downloads/getstarted-optiga-trust-m/optiga-trust-m-1/externals/mbedtls/library/bignum.c ****     mbedtls_mpi_init( &V1 ); mbedtls_mpi_init( &V2 );
2043://MAC/Home/Downloads/getstarted-optiga-trust-m/optiga-trust-m-1/externals/mbedtls/library/bignum.c **** 
2044://MAC/Home/Downloads/getstarted-optiga-trust-m/optiga-trust-m-1/externals/mbedtls/library/bignum.c ****     MBEDTLS_MPI_CHK( mbedtls_mpi_gcd( &G, A, N ) );
 7121              	 .loc 1 2044 0
 7122 001c 03A8     	 add r0,sp,#12
 7123 001e 391C     	 mov r1,r7
 7124 0020 321C     	 mov r2,r6
 7125              	.LBB181:
 7126              	.LBB180:
  93://MAC/Home/Downloads/getstarted-optiga-trust-m/optiga-trust-m-1/externals/mbedtls/library/bignum.c ****     X->n = 0;
 7127              	 .loc 1 93 0
 7128 0022 0695     	 str r5,[sp,#24]
  94://MAC/Home/Downloads/getstarted-optiga-trust-m/optiga-trust-m-1/externals/mbedtls/library/bignum.c ****     X->p = NULL;
 7129              	 .loc 1 94 0
 7130 0024 0793     	 str r3,[sp,#28]
  95://MAC/Home/Downloads/getstarted-optiga-trust-m/optiga-trust-m-1/externals/mbedtls/library/bignum.c **** }
 7131              	 .loc 1 95 0
 7132 0026 0893     	 str r3,[sp,#32]
 7133              	.LVL1170:
 7134              	.LBE180:
 7135              	.LBE181:
 7136              	.LBB182:
 7137              	.LBB183:
  93://MAC/Home/Downloads/getstarted-optiga-trust-m/optiga-trust-m-1/externals/mbedtls/library/bignum.c ****     X->n = 0;
 7138              	 .loc 1 93 0
 7139 0028 0995     	 str r5,[sp,#36]
  94://MAC/Home/Downloads/getstarted-optiga-trust-m/optiga-trust-m-1/externals/mbedtls/library/bignum.c ****     X->p = NULL;
 7140              	 .loc 1 94 0
 7141 002a 0A93     	 str r3,[sp,#40]
  95://MAC/Home/Downloads/getstarted-optiga-trust-m/optiga-trust-m-1/externals/mbedtls/library/bignum.c **** }
 7142              	 .loc 1 95 0
 7143 002c 0B93     	 str r3,[sp,#44]
 7144              	.LVL1171:
 7145              	.LBE183:
 7146              	.LBE182:
 7147              	.LBB184:
 7148              	.LBB185:
  93://MAC/Home/Downloads/getstarted-optiga-trust-m/optiga-trust-m-1/externals/mbedtls/library/bignum.c ****     X->n = 0;
 7149              	 .loc 1 93 0
 7150 002e 0C95     	 str r5,[sp,#48]
  94://MAC/Home/Downloads/getstarted-optiga-trust-m/optiga-trust-m-1/externals/mbedtls/library/bignum.c ****     X->p = NULL;
 7151              	 .loc 1 94 0
 7152 0030 0D93     	 str r3,[sp,#52]
  95://MAC/Home/Downloads/getstarted-optiga-trust-m/optiga-trust-m-1/externals/mbedtls/library/bignum.c **** }
 7153              	 .loc 1 95 0
 7154 0032 0E93     	 str r3,[sp,#56]
 7155              	.LVL1172:
 7156              	.LBE185:
 7157              	.LBE184:
 7158              	.LBB186:
 7159              	.LBB187:
  93://MAC/Home/Downloads/getstarted-optiga-trust-m/optiga-trust-m-1/externals/mbedtls/library/bignum.c ****     X->n = 0;
 7160              	 .loc 1 93 0
 7161 0034 0F95     	 str r5,[sp,#60]
  94://MAC/Home/Downloads/getstarted-optiga-trust-m/optiga-trust-m-1/externals/mbedtls/library/bignum.c ****     X->p = NULL;
 7162              	 .loc 1 94 0
 7163 0036 1093     	 str r3,[sp,#64]
  95://MAC/Home/Downloads/getstarted-optiga-trust-m/optiga-trust-m-1/externals/mbedtls/library/bignum.c **** }
 7164              	 .loc 1 95 0
 7165 0038 1193     	 str r3,[sp,#68]
 7166              	.LVL1173:
 7167              	.LBE187:
 7168              	.LBE186:
 7169              	.LBB188:
 7170              	.LBB189:
  93://MAC/Home/Downloads/getstarted-optiga-trust-m/optiga-trust-m-1/externals/mbedtls/library/bignum.c ****     X->n = 0;
 7171              	 .loc 1 93 0
 7172 003a 0395     	 str r5,[sp,#12]
  94://MAC/Home/Downloads/getstarted-optiga-trust-m/optiga-trust-m-1/externals/mbedtls/library/bignum.c ****     X->p = NULL;
 7173              	 .loc 1 94 0
 7174 003c 0493     	 str r3,[sp,#16]
  95://MAC/Home/Downloads/getstarted-optiga-trust-m/optiga-trust-m-1/externals/mbedtls/library/bignum.c **** }
 7175              	 .loc 1 95 0
 7176 003e 0593     	 str r3,[sp,#20]
 7177              	.LVL1174:
 7178              	.LBE189:
 7179              	.LBE188:
 7180              	.LBB190:
 7181              	.LBB191:
  93://MAC/Home/Downloads/getstarted-optiga-trust-m/optiga-trust-m-1/externals/mbedtls/library/bignum.c ****     X->n = 0;
 7182              	 .loc 1 93 0
 7183 0040 1295     	 str r5,[sp,#72]
  94://MAC/Home/Downloads/getstarted-optiga-trust-m/optiga-trust-m-1/externals/mbedtls/library/bignum.c ****     X->p = NULL;
 7184              	 .loc 1 94 0
 7185 0042 1393     	 str r3,[sp,#76]
  95://MAC/Home/Downloads/getstarted-optiga-trust-m/optiga-trust-m-1/externals/mbedtls/library/bignum.c **** }
 7186              	 .loc 1 95 0
 7187 0044 1493     	 str r3,[sp,#80]
 7188              	.LVL1175:
 7189              	.LBE191:
 7190              	.LBE190:
 7191              	.LBB192:
 7192              	.LBB193:
  93://MAC/Home/Downloads/getstarted-optiga-trust-m/optiga-trust-m-1/externals/mbedtls/library/bignum.c ****     X->n = 0;
 7193              	 .loc 1 93 0
 7194 0046 1595     	 str r5,[sp,#84]
  94://MAC/Home/Downloads/getstarted-optiga-trust-m/optiga-trust-m-1/externals/mbedtls/library/bignum.c ****     X->p = NULL;
 7195              	 .loc 1 94 0
 7196 0048 1693     	 str r3,[sp,#88]
  95://MAC/Home/Downloads/getstarted-optiga-trust-m/optiga-trust-m-1/externals/mbedtls/library/bignum.c **** }
 7197              	 .loc 1 95 0
 7198 004a 1793     	 str r3,[sp,#92]
 7199              	.LVL1176:
 7200              	.LBE193:
 7201              	.LBE192:
 7202              	.LBB194:
 7203              	.LBB195:
  93://MAC/Home/Downloads/getstarted-optiga-trust-m/optiga-trust-m-1/externals/mbedtls/library/bignum.c ****     X->n = 0;
 7204              	 .loc 1 93 0
 7205 004c 1895     	 str r5,[sp,#96]
  94://MAC/Home/Downloads/getstarted-optiga-trust-m/optiga-trust-m-1/externals/mbedtls/library/bignum.c ****     X->p = NULL;
 7206              	 .loc 1 94 0
 7207 004e 1993     	 str r3,[sp,#100]
  95://MAC/Home/Downloads/getstarted-optiga-trust-m/optiga-trust-m-1/externals/mbedtls/library/bignum.c **** }
 7208              	 .loc 1 95 0
 7209 0050 1A93     	 str r3,[sp,#104]
 7210              	.LVL1177:
 7211              	.LBE195:
 7212              	.LBE194:
 7213              	.LBB196:
 7214              	.LBB197:
  93://MAC/Home/Downloads/getstarted-optiga-trust-m/optiga-trust-m-1/externals/mbedtls/library/bignum.c ****     X->n = 0;
 7215              	 .loc 1 93 0
 7216 0052 1B95     	 str r5,[sp,#108]
  94://MAC/Home/Downloads/getstarted-optiga-trust-m/optiga-trust-m-1/externals/mbedtls/library/bignum.c ****     X->p = NULL;
 7217              	 .loc 1 94 0
 7218 0054 1C93     	 str r3,[sp,#112]
  95://MAC/Home/Downloads/getstarted-optiga-trust-m/optiga-trust-m-1/externals/mbedtls/library/bignum.c **** }
 7219              	 .loc 1 95 0
 7220 0056 1D93     	 str r3,[sp,#116]
 7221              	.LBE197:
 7222              	.LBE196:
 7223              	 .loc 1 2044 0
 7224 0058 FFF7FEFF 	 bl mbedtls_mpi_gcd
 7225              	.LVL1178:
 7226 005c 041E     	 sub r4,r0,#0
 7227              	.LVL1179:
 7228 005e 00D0     	 beq .LCB8192
 7229 0060 F7E0     	 b .L538
 7230              	.LCB8192:
2045://MAC/Home/Downloads/getstarted-optiga-trust-m/optiga-trust-m-1/externals/mbedtls/library/bignum.c **** 
2046://MAC/Home/Downloads/getstarted-optiga-trust-m/optiga-trust-m-1/externals/mbedtls/library/bignum.c ****     if( mbedtls_mpi_cmp_int( &G, 1 ) != 0 )
 7231              	 .loc 1 2046 0
 7232 0062 03A8     	 add r0,sp,#12
 7233              	.LVL1180:
 7234 0064 291C     	 mov r1,r5
 7235 0066 FFF7FEFF 	 bl mbedtls_mpi_cmp_int
 7236              	.LVL1181:
 7237 006a 0028     	 cmp r0,#0
 7238 006c 00D0     	 beq .LCB8201
 7239 006e EEE0     	 b .L557
 7240              	.LCB8201:
2047://MAC/Home/Downloads/getstarted-optiga-trust-m/optiga-trust-m-1/externals/mbedtls/library/bignum.c ****     {
2048://MAC/Home/Downloads/getstarted-optiga-trust-m/optiga-trust-m-1/externals/mbedtls/library/bignum.c ****         ret = MBEDTLS_ERR_MPI_NOT_ACCEPTABLE;
2049://MAC/Home/Downloads/getstarted-optiga-trust-m/optiga-trust-m-1/externals/mbedtls/library/bignum.c ****         goto cleanup;
2050://MAC/Home/Downloads/getstarted-optiga-trust-m/optiga-trust-m-1/externals/mbedtls/library/bignum.c ****     }
2051://MAC/Home/Downloads/getstarted-optiga-trust-m/optiga-trust-m-1/externals/mbedtls/library/bignum.c **** 
2052://MAC/Home/Downloads/getstarted-optiga-trust-m/optiga-trust-m-1/externals/mbedtls/library/bignum.c ****     MBEDTLS_MPI_CHK( mbedtls_mpi_mod_mpi( &TA, A, N ) );
 7241              	 .loc 1 2052 0
 7242 0070 06A8     	 add r0,sp,#24
 7243              	.LVL1182:
 7244 0072 391C     	 mov r1,r7
 7245 0074 321C     	 mov r2,r6
 7246 0076 FFF7FEFF 	 bl mbedtls_mpi_mod_mpi
 7247              	.LVL1183:
 7248 007a 041E     	 sub r4,r0,#0
 7249              	.LVL1184:
 7250 007c 00D0     	 beq .LCB8213
 7251 007e E8E0     	 b .L538
 7252              	.LCB8213:
2053://MAC/Home/Downloads/getstarted-optiga-trust-m/optiga-trust-m-1/externals/mbedtls/library/bignum.c ****     MBEDTLS_MPI_CHK( mbedtls_mpi_copy( &TU, &TA ) );
 7253              	 .loc 1 2053 0
 7254 0080 09A8     	 add r0,sp,#36
 7255              	.LVL1185:
 7256 0082 06A9     	 add r1,sp,#24
 7257              	.LVL1186:
 7258 0084 FFF7FEFF 	 bl mbedtls_mpi_copy
 7259              	.LVL1187:
 7260 0088 041E     	 sub r4,r0,#0
 7261              	.LVL1188:
 7262 008a 00D0     	 beq .LCB8227
 7263 008c E1E0     	 b .L538
 7264              	.LCB8227:
2054://MAC/Home/Downloads/getstarted-optiga-trust-m/optiga-trust-m-1/externals/mbedtls/library/bignum.c ****     MBEDTLS_MPI_CHK( mbedtls_mpi_copy( &TB, N ) );
 7265              	 .loc 1 2054 0
 7266 008e 12A8     	 add r0,sp,#72
 7267              	.LVL1189:
 7268 0090 311C     	 mov r1,r6
 7269 0092 FFF7FEFF 	 bl mbedtls_mpi_copy
 7270              	.LVL1190:
 7271 0096 041E     	 sub r4,r0,#0
 7272              	.LVL1191:
 7273 0098 00D0     	 beq .LCB8239
 7274 009a DAE0     	 b .L538
 7275              	.LCB8239:
2055://MAC/Home/Downloads/getstarted-optiga-trust-m/optiga-trust-m-1/externals/mbedtls/library/bignum.c ****     MBEDTLS_MPI_CHK( mbedtls_mpi_copy( &TV, N ) );
 7276              	 .loc 1 2055 0
 7277 009c 15A8     	 add r0,sp,#84
 7278              	.LVL1192:
 7279 009e 311C     	 mov r1,r6
 7280 00a0 FFF7FEFF 	 bl mbedtls_mpi_copy
 7281              	.LVL1193:
 7282 00a4 041E     	 sub r4,r0,#0
 7283              	.LVL1194:
 7284 00a6 00D0     	 beq .LCB8251
 7285 00a8 D3E0     	 b .L538
 7286              	.LCB8251:
2056://MAC/Home/Downloads/getstarted-optiga-trust-m/optiga-trust-m-1/externals/mbedtls/library/bignum.c **** 
2057://MAC/Home/Downloads/getstarted-optiga-trust-m/optiga-trust-m-1/externals/mbedtls/library/bignum.c ****     MBEDTLS_MPI_CHK( mbedtls_mpi_lset( &U1, 1 ) );
 7287              	 .loc 1 2057 0
 7288 00aa 0CA8     	 add r0,sp,#48
 7289              	.LVL1195:
 7290 00ac 291C     	 mov r1,r5
 7291 00ae FFF7FEFF 	 bl mbedtls_mpi_lset
 7292              	.LVL1196:
 7293 00b2 041E     	 sub r4,r0,#0
 7294              	.LVL1197:
 7295 00b4 00D0     	 beq .LCB8263
 7296 00b6 CCE0     	 b .L538
 7297              	.LCB8263:
2058://MAC/Home/Downloads/getstarted-optiga-trust-m/optiga-trust-m-1/externals/mbedtls/library/bignum.c ****     MBEDTLS_MPI_CHK( mbedtls_mpi_lset( &U2, 0 ) );
 7298              	 .loc 1 2058 0
 7299 00b8 211C     	 mov r1,r4
 7300 00ba 0FA8     	 add r0,sp,#60
 7301              	.LVL1198:
 7302 00bc FFF7FEFF 	 bl mbedtls_mpi_lset
 7303              	.LVL1199:
 7304 00c0 041E     	 sub r4,r0,#0
 7305              	.LVL1200:
 7306 00c2 00D0     	 beq .LCB8276
 7307 00c4 C5E0     	 b .L538
 7308              	.LCB8276:
2059://MAC/Home/Downloads/getstarted-optiga-trust-m/optiga-trust-m-1/externals/mbedtls/library/bignum.c ****     MBEDTLS_MPI_CHK( mbedtls_mpi_lset( &V1, 0 ) );
 7309              	 .loc 1 2059 0
 7310 00c6 211C     	 mov r1,r4
 7311 00c8 18A8     	 add r0,sp,#96
 7312              	.LVL1201:
 7313 00ca FFF7FEFF 	 bl mbedtls_mpi_lset
 7314              	.LVL1202:
 7315 00ce 041E     	 sub r4,r0,#0
 7316              	.LVL1203:
 7317 00d0 00D0     	 beq .LCB8289
 7318 00d2 BEE0     	 b .L538
 7319              	.LCB8289:
2060://MAC/Home/Downloads/getstarted-optiga-trust-m/optiga-trust-m-1/externals/mbedtls/library/bignum.c ****     MBEDTLS_MPI_CHK( mbedtls_mpi_lset( &V2, 1 ) );
 7320              	 .loc 1 2060 0
 7321 00d4 1BA8     	 add r0,sp,#108
 7322              	.LVL1204:
 7323 00d6 291C     	 mov r1,r5
 7324 00d8 FFF7FEFF 	 bl mbedtls_mpi_lset
 7325              	.LVL1205:
 7326              	.L561:
2061://MAC/Home/Downloads/getstarted-optiga-trust-m/optiga-trust-m-1/externals/mbedtls/library/bignum.c **** 
2062://MAC/Home/Downloads/getstarted-optiga-trust-m/optiga-trust-m-1/externals/mbedtls/library/bignum.c ****     do
2063://MAC/Home/Downloads/getstarted-optiga-trust-m/optiga-trust-m-1/externals/mbedtls/library/bignum.c ****     {
2064://MAC/Home/Downloads/getstarted-optiga-trust-m/optiga-trust-m-1/externals/mbedtls/library/bignum.c ****         while( ( TU.p[0] & 1 ) == 0 )
2065://MAC/Home/Downloads/getstarted-optiga-trust-m/optiga-trust-m-1/externals/mbedtls/library/bignum.c ****         {
2066://MAC/Home/Downloads/getstarted-optiga-trust-m/optiga-trust-m-1/externals/mbedtls/library/bignum.c ****             MBEDTLS_MPI_CHK( mbedtls_mpi_shift_r( &TU, 1 ) );
2067://MAC/Home/Downloads/getstarted-optiga-trust-m/optiga-trust-m-1/externals/mbedtls/library/bignum.c **** 
2068://MAC/Home/Downloads/getstarted-optiga-trust-m/optiga-trust-m-1/externals/mbedtls/library/bignum.c ****             if( ( U1.p[0] & 1 ) != 0 || ( U2.p[0] & 1 ) != 0 )
2069://MAC/Home/Downloads/getstarted-optiga-trust-m/optiga-trust-m-1/externals/mbedtls/library/bignum.c ****             {
2070://MAC/Home/Downloads/getstarted-optiga-trust-m/optiga-trust-m-1/externals/mbedtls/library/bignum.c ****                 MBEDTLS_MPI_CHK( mbedtls_mpi_add_mpi( &U1, &U1, &TB ) );
2071://MAC/Home/Downloads/getstarted-optiga-trust-m/optiga-trust-m-1/externals/mbedtls/library/bignum.c ****                 MBEDTLS_MPI_CHK( mbedtls_mpi_sub_mpi( &U2, &U2, &TA ) );
2072://MAC/Home/Downloads/getstarted-optiga-trust-m/optiga-trust-m-1/externals/mbedtls/library/bignum.c ****             }
2073://MAC/Home/Downloads/getstarted-optiga-trust-m/optiga-trust-m-1/externals/mbedtls/library/bignum.c **** 
2074://MAC/Home/Downloads/getstarted-optiga-trust-m/optiga-trust-m-1/externals/mbedtls/library/bignum.c ****             MBEDTLS_MPI_CHK( mbedtls_mpi_shift_r( &U1, 1 ) );
2075://MAC/Home/Downloads/getstarted-optiga-trust-m/optiga-trust-m-1/externals/mbedtls/library/bignum.c ****             MBEDTLS_MPI_CHK( mbedtls_mpi_shift_r( &U2, 1 ) );
 7327              	 .loc 1 2075 0
 7328 00dc 041E     	 sub r4,r0,#0
 7329              	.LVL1206:
 7330 00de 00D0     	 beq .LCB8304
 7331 00e0 B7E0     	 b .L538
 7332              	.LCB8304:
 7333              	.LVL1207:
 7334              	.L539:
2064://MAC/Home/Downloads/getstarted-optiga-trust-m/optiga-trust-m-1/externals/mbedtls/library/bignum.c ****         {
 7335              	 .loc 1 2064 0
 7336 00e2 0125     	 mov r5,#1
 7337 00e4 0B9B     	 ldr r3,[sp,#44]
 7338 00e6 1B68     	 ldr r3,[r3]
 7339 00e8 2B42     	 tst r3,r5
 7340 00ea 45D1     	 bne .L544
2066://MAC/Home/Downloads/getstarted-optiga-trust-m/optiga-trust-m-1/externals/mbedtls/library/bignum.c **** 
 7341              	 .loc 1 2066 0
 7342 00ec 09A8     	 add r0,sp,#36
 7343              	.LVL1208:
 7344 00ee 291C     	 mov r1,r5
 7345 00f0 FFF7FEFF 	 bl mbedtls_mpi_shift_r
 7346              	.LVL1209:
 7347 00f4 041E     	 sub r4,r0,#0
 7348              	.LVL1210:
 7349 00f6 00D0     	 beq .LCB8324
 7350 00f8 ABE0     	 b .L538
 7351              	.LCB8324:
2068://MAC/Home/Downloads/getstarted-optiga-trust-m/optiga-trust-m-1/externals/mbedtls/library/bignum.c ****             {
 7352              	 .loc 1 2068 0
 7353 00fa 0E9B     	 ldr r3,[sp,#56]
 7354 00fc 1B68     	 ldr r3,[r3]
 7355 00fe 2B42     	 tst r3,r5
 7356 0100 0FD1     	 bne .L540
2068://MAC/Home/Downloads/getstarted-optiga-trust-m/optiga-trust-m-1/externals/mbedtls/library/bignum.c ****             {
 7357              	 .loc 1 2068 0 is_stmt 0 discriminator 1
 7358 0102 119B     	 ldr r3,[sp,#68]
 7359 0104 1B68     	 ldr r3,[r3]
 7360 0106 2B42     	 tst r3,r5
 7361 0108 0BD1     	 bne .L540
 7362              	.L542:
2074://MAC/Home/Downloads/getstarted-optiga-trust-m/optiga-trust-m-1/externals/mbedtls/library/bignum.c ****             MBEDTLS_MPI_CHK( mbedtls_mpi_shift_r( &U2, 1 ) );
 7363              	 .loc 1 2074 0 is_stmt 1
 7364 010a 0CA8     	 add r0,sp,#48
 7365              	.LVL1211:
 7366 010c 0121     	 mov r1,#1
 7367 010e FFF7FEFF 	 bl mbedtls_mpi_shift_r
 7368              	.LVL1212:
 7369 0112 041E     	 sub r4,r0,#0
 7370              	.LVL1213:
 7371 0114 00D0     	 beq .LCB8350
 7372 0116 9CE0     	 b .L538
 7373              	.LCB8350:
 7374              	 .loc 1 2075 0
 7375 0118 0FA8     	 add r0,sp,#60
 7376              	.LVL1214:
 7377 011a 0121     	 mov r1,#1
 7378 011c FFF7FEFF 	 bl mbedtls_mpi_shift_r
 7379              	.LVL1215:
 7380 0120 DCE7     	 b .L561
 7381              	.LVL1216:
 7382              	.L540:
2070://MAC/Home/Downloads/getstarted-optiga-trust-m/optiga-trust-m-1/externals/mbedtls/library/bignum.c ****                 MBEDTLS_MPI_CHK( mbedtls_mpi_sub_mpi( &U2, &U2, &TA ) );
 7383              	 .loc 1 2070 0
 7384 0122 0CA8     	 add r0,sp,#48
 7385              	.LVL1217:
 7386 0124 011C     	 mov r1,r0
 7387 0126 12AA     	 add r2,sp,#72
 7388              	.LVL1218:
 7389 0128 FFF7FEFF 	 bl mbedtls_mpi_add_mpi
 7390              	.LVL1219:
 7391 012c 041E     	 sub r4,r0,#0
 7392              	.LVL1220:
 7393 012e 00D0     	 beq .LCB8377
 7394 0130 8FE0     	 b .L538
 7395              	.LCB8377:
2071://MAC/Home/Downloads/getstarted-optiga-trust-m/optiga-trust-m-1/externals/mbedtls/library/bignum.c ****             }
 7396              	 .loc 1 2071 0
 7397 0132 0FA8     	 add r0,sp,#60
 7398              	.LVL1221:
 7399 0134 011C     	 mov r1,r0
 7400 0136 06AA     	 add r2,sp,#24
 7401              	.LVL1222:
 7402 0138 FFF7FEFF 	 bl mbedtls_mpi_sub_mpi
 7403              	.LVL1223:
 7404 013c 041E     	 sub r4,r0,#0
 7405              	.LVL1224:
 7406 013e E4D0     	 beq .L542
 7407 0140 87E0     	 b .L538
 7408              	.LVL1225:
 7409              	.L548:
2076://MAC/Home/Downloads/getstarted-optiga-trust-m/optiga-trust-m-1/externals/mbedtls/library/bignum.c ****         }
2077://MAC/Home/Downloads/getstarted-optiga-trust-m/optiga-trust-m-1/externals/mbedtls/library/bignum.c **** 
2078://MAC/Home/Downloads/getstarted-optiga-trust-m/optiga-trust-m-1/externals/mbedtls/library/bignum.c ****         while( ( TV.p[0] & 1 ) == 0 )
2079://MAC/Home/Downloads/getstarted-optiga-trust-m/optiga-trust-m-1/externals/mbedtls/library/bignum.c ****         {
2080://MAC/Home/Downloads/getstarted-optiga-trust-m/optiga-trust-m-1/externals/mbedtls/library/bignum.c ****             MBEDTLS_MPI_CHK( mbedtls_mpi_shift_r( &TV, 1 ) );
 7410              	 .loc 1 2080 0
 7411 0142 15A8     	 add r0,sp,#84
 7412              	.LVL1226:
 7413 0144 291C     	 mov r1,r5
 7414 0146 FFF7FEFF 	 bl mbedtls_mpi_shift_r
 7415              	.LVL1227:
 7416 014a 041E     	 sub r4,r0,#0
 7417              	.LVL1228:
 7418 014c 00D0     	 beq .LCB8409
 7419 014e 80E0     	 b .L538
 7420              	.LCB8409:
2081://MAC/Home/Downloads/getstarted-optiga-trust-m/optiga-trust-m-1/externals/mbedtls/library/bignum.c **** 
2082://MAC/Home/Downloads/getstarted-optiga-trust-m/optiga-trust-m-1/externals/mbedtls/library/bignum.c ****             if( ( V1.p[0] & 1 ) != 0 || ( V2.p[0] & 1 ) != 0 )
 7421              	 .loc 1 2082 0
 7422 0150 1A9B     	 ldr r3,[sp,#104]
 7423 0152 1B68     	 ldr r3,[r3]
 7424 0154 2B42     	 tst r3,r5
 7425 0156 15D1     	 bne .L545
 7426              	 .loc 1 2082 0 is_stmt 0 discriminator 1
 7427 0158 1D9B     	 ldr r3,[sp,#116]
 7428 015a 1B68     	 ldr r3,[r3]
 7429 015c 2B42     	 tst r3,r5
 7430 015e 11D1     	 bne .L545
 7431              	.L547:
2083://MAC/Home/Downloads/getstarted-optiga-trust-m/optiga-trust-m-1/externals/mbedtls/library/bignum.c ****             {
2084://MAC/Home/Downloads/getstarted-optiga-trust-m/optiga-trust-m-1/externals/mbedtls/library/bignum.c ****                 MBEDTLS_MPI_CHK( mbedtls_mpi_add_mpi( &V1, &V1, &TB ) );
2085://MAC/Home/Downloads/getstarted-optiga-trust-m/optiga-trust-m-1/externals/mbedtls/library/bignum.c ****                 MBEDTLS_MPI_CHK( mbedtls_mpi_sub_mpi( &V2, &V2, &TA ) );
2086://MAC/Home/Downloads/getstarted-optiga-trust-m/optiga-trust-m-1/externals/mbedtls/library/bignum.c ****             }
2087://MAC/Home/Downloads/getstarted-optiga-trust-m/optiga-trust-m-1/externals/mbedtls/library/bignum.c **** 
2088://MAC/Home/Downloads/getstarted-optiga-trust-m/optiga-trust-m-1/externals/mbedtls/library/bignum.c ****             MBEDTLS_MPI_CHK( mbedtls_mpi_shift_r( &V1, 1 ) );
 7432              	 .loc 1 2088 0 is_stmt 1
 7433 0160 18A8     	 add r0,sp,#96
 7434              	.LVL1229:
 7435 0162 0121     	 mov r1,#1
 7436 0164 FFF7FEFF 	 bl mbedtls_mpi_shift_r
 7437              	.LVL1230:
 7438 0168 041E     	 sub r4,r0,#0
 7439              	.LVL1231:
 7440 016a 72D1     	 bne .L538
2089://MAC/Home/Downloads/getstarted-optiga-trust-m/optiga-trust-m-1/externals/mbedtls/library/bignum.c ****             MBEDTLS_MPI_CHK( mbedtls_mpi_shift_r( &V2, 1 ) );
 7441              	 .loc 1 2089 0
 7442 016c 1BA8     	 add r0,sp,#108
 7443              	.LVL1232:
 7444 016e 0121     	 mov r1,#1
 7445 0170 FFF7FEFF 	 bl mbedtls_mpi_shift_r
 7446              	.LVL1233:
 7447 0174 041E     	 sub r4,r0,#0
 7448              	.LVL1234:
 7449 0176 6CD1     	 bne .L538
 7450              	.LVL1235:
 7451              	.L544:
2078://MAC/Home/Downloads/getstarted-optiga-trust-m/optiga-trust-m-1/externals/mbedtls/library/bignum.c ****         {
 7452              	 .loc 1 2078 0
 7453 0178 0125     	 mov r5,#1
 7454 017a 179B     	 ldr r3,[sp,#92]
 7455 017c 1B68     	 ldr r3,[r3]
 7456 017e 2B42     	 tst r3,r5
 7457 0180 DFD0     	 beq .L548
 7458 0182 0EE0     	 b .L563
 7459              	.LVL1236:
 7460              	.L545:
2084://MAC/Home/Downloads/getstarted-optiga-trust-m/optiga-trust-m-1/externals/mbedtls/library/bignum.c ****                 MBEDTLS_MPI_CHK( mbedtls_mpi_sub_mpi( &V2, &V2, &TA ) );
 7461              	 .loc 1 2084 0
 7462 0184 18A8     	 add r0,sp,#96
 7463              	.LVL1237:
 7464 0186 011C     	 mov r1,r0
 7465 0188 12AA     	 add r2,sp,#72
 7466              	.LVL1238:
 7467 018a FFF7FEFF 	 bl mbedtls_mpi_add_mpi
 7468              	.LVL1239:
 7469 018e 041E     	 sub r4,r0,#0
 7470              	.LVL1240:
 7471 0190 5FD1     	 bne .L538
2085://MAC/Home/Downloads/getstarted-optiga-trust-m/optiga-trust-m-1/externals/mbedtls/library/bignum.c ****             }
 7472              	 .loc 1 2085 0
 7473 0192 1BA8     	 add r0,sp,#108
 7474              	.LVL1241:
 7475 0194 011C     	 mov r1,r0
 7476 0196 06AA     	 add r2,sp,#24
 7477              	.LVL1242:
 7478 0198 FFF7FEFF 	 bl mbedtls_mpi_sub_mpi
 7479              	.LVL1243:
 7480 019c 041E     	 sub r4,r0,#0
 7481              	.LVL1244:
 7482 019e DFD0     	 beq .L547
 7483 01a0 57E0     	 b .L538
 7484              	.LVL1245:
 7485              	.L563:
2090://MAC/Home/Downloads/getstarted-optiga-trust-m/optiga-trust-m-1/externals/mbedtls/library/bignum.c ****         }
2091://MAC/Home/Downloads/getstarted-optiga-trust-m/optiga-trust-m-1/externals/mbedtls/library/bignum.c **** 
2092://MAC/Home/Downloads/getstarted-optiga-trust-m/optiga-trust-m-1/externals/mbedtls/library/bignum.c ****         if( mbedtls_mpi_cmp_mpi( &TU, &TV ) >= 0 )
 7486              	 .loc 1 2092 0
 7487 01a2 09A8     	 add r0,sp,#36
 7488              	.LVL1246:
 7489 01a4 15A9     	 add r1,sp,#84
 7490              	.LVL1247:
 7491 01a6 FFF7FEFF 	 bl mbedtls_mpi_cmp_mpi
 7492              	.LVL1248:
 7493 01aa 0028     	 cmp r0,#0
 7494 01ac 1CDB     	 blt .L549
2093://MAC/Home/Downloads/getstarted-optiga-trust-m/optiga-trust-m-1/externals/mbedtls/library/bignum.c ****         {
2094://MAC/Home/Downloads/getstarted-optiga-trust-m/optiga-trust-m-1/externals/mbedtls/library/bignum.c ****             MBEDTLS_MPI_CHK( mbedtls_mpi_sub_mpi( &TU, &TU, &TV ) );
 7495              	 .loc 1 2094 0
 7496 01ae 09A8     	 add r0,sp,#36
 7497              	.LVL1249:
 7498 01b0 011C     	 mov r1,r0
 7499 01b2 15AA     	 add r2,sp,#84
 7500              	.LVL1250:
 7501 01b4 FFF7FEFF 	 bl mbedtls_mpi_sub_mpi
 7502              	.LVL1251:
 7503 01b8 041E     	 sub r4,r0,#0
 7504              	.LVL1252:
 7505 01ba 4AD1     	 bne .L538
2095://MAC/Home/Downloads/getstarted-optiga-trust-m/optiga-trust-m-1/externals/mbedtls/library/bignum.c ****             MBEDTLS_MPI_CHK( mbedtls_mpi_sub_mpi( &U1, &U1, &V1 ) );
 7506              	 .loc 1 2095 0
 7507 01bc 0CA8     	 add r0,sp,#48
 7508              	.LVL1253:
 7509 01be 011C     	 mov r1,r0
 7510 01c0 18AA     	 add r2,sp,#96
 7511              	.LVL1254:
 7512 01c2 FFF7FEFF 	 bl mbedtls_mpi_sub_mpi
 7513              	.LVL1255:
 7514 01c6 041E     	 sub r4,r0,#0
 7515              	.LVL1256:
 7516 01c8 43D1     	 bne .L538
2096://MAC/Home/Downloads/getstarted-optiga-trust-m/optiga-trust-m-1/externals/mbedtls/library/bignum.c ****             MBEDTLS_MPI_CHK( mbedtls_mpi_sub_mpi( &U2, &U2, &V2 ) );
 7517              	 .loc 1 2096 0
 7518 01ca 0FA8     	 add r0,sp,#60
 7519              	.LVL1257:
 7520 01cc 011C     	 mov r1,r0
 7521 01ce 1BAA     	 add r2,sp,#108
 7522              	.LVL1258:
 7523              	.L562:
 7524 01d0 FFF7FEFF 	 bl mbedtls_mpi_sub_mpi
 7525              	.LVL1259:
 7526 01d4 041E     	 sub r4,r0,#0
 7527              	.LVL1260:
 7528 01d6 3CD1     	 bne .L538
2097://MAC/Home/Downloads/getstarted-optiga-trust-m/optiga-trust-m-1/externals/mbedtls/library/bignum.c ****         }
2098://MAC/Home/Downloads/getstarted-optiga-trust-m/optiga-trust-m-1/externals/mbedtls/library/bignum.c ****         else
2099://MAC/Home/Downloads/getstarted-optiga-trust-m/optiga-trust-m-1/externals/mbedtls/library/bignum.c ****         {
2100://MAC/Home/Downloads/getstarted-optiga-trust-m/optiga-trust-m-1/externals/mbedtls/library/bignum.c ****             MBEDTLS_MPI_CHK( mbedtls_mpi_sub_mpi( &TV, &TV, &TU ) );
2101://MAC/Home/Downloads/getstarted-optiga-trust-m/optiga-trust-m-1/externals/mbedtls/library/bignum.c ****             MBEDTLS_MPI_CHK( mbedtls_mpi_sub_mpi( &V1, &V1, &U1 ) );
2102://MAC/Home/Downloads/getstarted-optiga-trust-m/optiga-trust-m-1/externals/mbedtls/library/bignum.c ****             MBEDTLS_MPI_CHK( mbedtls_mpi_sub_mpi( &V2, &V2, &U2 ) );
2103://MAC/Home/Downloads/getstarted-optiga-trust-m/optiga-trust-m-1/externals/mbedtls/library/bignum.c ****         }
2104://MAC/Home/Downloads/getstarted-optiga-trust-m/optiga-trust-m-1/externals/mbedtls/library/bignum.c ****     }
2105://MAC/Home/Downloads/getstarted-optiga-trust-m/optiga-trust-m-1/externals/mbedtls/library/bignum.c ****     while( mbedtls_mpi_cmp_int( &TU, 0 ) != 0 );
 7529              	 .loc 1 2105 0
 7530 01d8 09A8     	 add r0,sp,#36
 7531              	.LVL1261:
 7532 01da 0021     	 mov r1,#0
 7533 01dc FFF7FEFF 	 bl mbedtls_mpi_cmp_int
 7534              	.LVL1262:
 7535 01e0 0028     	 cmp r0,#0
 7536 01e2 00D0     	 beq .LCB8566
 7537 01e4 7DE7     	 b .L539
 7538              	.LCB8566:
 7539 01e6 18E0     	 b .L551
 7540              	.L549:
2100://MAC/Home/Downloads/getstarted-optiga-trust-m/optiga-trust-m-1/externals/mbedtls/library/bignum.c ****             MBEDTLS_MPI_CHK( mbedtls_mpi_sub_mpi( &V1, &V1, &U1 ) );
 7541              	 .loc 1 2100 0
 7542 01e8 15A8     	 add r0,sp,#84
 7543              	.LVL1263:
 7544 01ea 011C     	 mov r1,r0
 7545 01ec 09AA     	 add r2,sp,#36
 7546              	.LVL1264:
 7547 01ee FFF7FEFF 	 bl mbedtls_mpi_sub_mpi
 7548              	.LVL1265:
 7549 01f2 041E     	 sub r4,r0,#0
 7550              	.LVL1266:
 7551 01f4 2DD1     	 bne .L538
2101://MAC/Home/Downloads/getstarted-optiga-trust-m/optiga-trust-m-1/externals/mbedtls/library/bignum.c ****             MBEDTLS_MPI_CHK( mbedtls_mpi_sub_mpi( &V2, &V2, &U2 ) );
 7552              	 .loc 1 2101 0
 7553 01f6 18A8     	 add r0,sp,#96
 7554              	.LVL1267:
 7555 01f8 011C     	 mov r1,r0
 7556 01fa 0CAA     	 add r2,sp,#48
 7557              	.LVL1268:
 7558 01fc FFF7FEFF 	 bl mbedtls_mpi_sub_mpi
 7559              	.LVL1269:
 7560 0200 041E     	 sub r4,r0,#0
 7561              	.LVL1270:
 7562 0202 26D1     	 bne .L538
2102://MAC/Home/Downloads/getstarted-optiga-trust-m/optiga-trust-m-1/externals/mbedtls/library/bignum.c ****         }
 7563              	 .loc 1 2102 0
 7564 0204 1BA8     	 add r0,sp,#108
 7565              	.LVL1271:
 7566 0206 011C     	 mov r1,r0
 7567 0208 0FAA     	 add r2,sp,#60
 7568              	.LVL1272:
 7569 020a E1E7     	 b .L562
 7570              	.LVL1273:
 7571              	.L553:
2106://MAC/Home/Downloads/getstarted-optiga-trust-m/optiga-trust-m-1/externals/mbedtls/library/bignum.c **** 
2107://MAC/Home/Downloads/getstarted-optiga-trust-m/optiga-trust-m-1/externals/mbedtls/library/bignum.c ****     while( mbedtls_mpi_cmp_int( &V1, 0 ) < 0 )
2108://MAC/Home/Downloads/getstarted-optiga-trust-m/optiga-trust-m-1/externals/mbedtls/library/bignum.c ****         MBEDTLS_MPI_CHK( mbedtls_mpi_add_mpi( &V1, &V1, N ) );
 7572              	 .loc 1 2108 0
 7573 020c 18A8     	 add r0,sp,#96
 7574              	.LVL1274:
 7575 020e 011C     	 mov r1,r0
 7576 0210 321C     	 mov r2,r6
 7577 0212 FFF7FEFF 	 bl mbedtls_mpi_add_mpi
 7578              	.LVL1275:
 7579 0216 041E     	 sub r4,r0,#0
 7580              	.LVL1276:
 7581 0218 1BD1     	 bne .L538
 7582              	.LVL1277:
 7583              	.L551:
2107://MAC/Home/Downloads/getstarted-optiga-trust-m/optiga-trust-m-1/externals/mbedtls/library/bignum.c ****         MBEDTLS_MPI_CHK( mbedtls_mpi_add_mpi( &V1, &V1, N ) );
 7584              	 .loc 1 2107 0
 7585 021a 18A8     	 add r0,sp,#96
 7586              	.LVL1278:
 7587 021c 0021     	 mov r1,#0
 7588 021e FFF7FEFF 	 bl mbedtls_mpi_cmp_int
 7589              	.LVL1279:
 7590 0222 0028     	 cmp r0,#0
 7591 0224 F2DB     	 blt .L553
 7592 0226 06E0     	 b .L554
 7593              	.L555:
2109://MAC/Home/Downloads/getstarted-optiga-trust-m/optiga-trust-m-1/externals/mbedtls/library/bignum.c **** 
2110://MAC/Home/Downloads/getstarted-optiga-trust-m/optiga-trust-m-1/externals/mbedtls/library/bignum.c ****     while( mbedtls_mpi_cmp_mpi( &V1, N ) >= 0 )
2111://MAC/Home/Downloads/getstarted-optiga-trust-m/optiga-trust-m-1/externals/mbedtls/library/bignum.c ****         MBEDTLS_MPI_CHK( mbedtls_mpi_sub_mpi( &V1, &V1, N ) );
 7594              	 .loc 1 2111 0
 7595 0228 18A8     	 add r0,sp,#96
 7596              	.LVL1280:
 7597 022a 011C     	 mov r1,r0
 7598 022c 321C     	 mov r2,r6
 7599 022e FFF7FEFF 	 bl mbedtls_mpi_sub_mpi
 7600              	.LVL1281:
 7601 0232 041E     	 sub r4,r0,#0
 7602              	.LVL1282:
 7603 0234 0DD1     	 bne .L538
 7604              	.LVL1283:
 7605              	.L554:
2110://MAC/Home/Downloads/getstarted-optiga-trust-m/optiga-trust-m-1/externals/mbedtls/library/bignum.c ****         MBEDTLS_MPI_CHK( mbedtls_mpi_sub_mpi( &V1, &V1, N ) );
 7606              	 .loc 1 2110 0
 7607 0236 18A8     	 add r0,sp,#96
 7608              	.LVL1284:
 7609 0238 311C     	 mov r1,r6
 7610 023a FFF7FEFF 	 bl mbedtls_mpi_cmp_mpi
 7611              	.LVL1285:
 7612 023e 0028     	 cmp r0,#0
 7613 0240 F2DA     	 bge .L555
2112://MAC/Home/Downloads/getstarted-optiga-trust-m/optiga-trust-m-1/externals/mbedtls/library/bignum.c **** 
2113://MAC/Home/Downloads/getstarted-optiga-trust-m/optiga-trust-m-1/externals/mbedtls/library/bignum.c ****     MBEDTLS_MPI_CHK( mbedtls_mpi_copy( X, &V1 ) );
 7614              	 .loc 1 2113 0
 7615 0242 0198     	 ldr r0,[sp,#4]
 7616 0244 18A9     	 add r1,sp,#96
 7617              	.LVL1286:
 7618 0246 FFF7FEFF 	 bl mbedtls_mpi_copy
 7619              	.LVL1287:
 7620 024a 041C     	 mov r4,r0
 7621              	.LVL1288:
 7622 024c 01E0     	 b .L538
 7623              	.LVL1289:
 7624              	.L557:
2048://MAC/Home/Downloads/getstarted-optiga-trust-m/optiga-trust-m-1/externals/mbedtls/library/bignum.c ****         goto cleanup;
 7625              	 .loc 1 2048 0
 7626 024e 0E24     	 mov r4,#14
 7627              	.LVL1290:
 7628 0250 6442     	 neg r4,r4
 7629              	.L538:
 7630              	.LVL1291:
2114://MAC/Home/Downloads/getstarted-optiga-trust-m/optiga-trust-m-1/externals/mbedtls/library/bignum.c **** 
2115://MAC/Home/Downloads/getstarted-optiga-trust-m/optiga-trust-m-1/externals/mbedtls/library/bignum.c **** cleanup:
2116://MAC/Home/Downloads/getstarted-optiga-trust-m/optiga-trust-m-1/externals/mbedtls/library/bignum.c **** 
2117://MAC/Home/Downloads/getstarted-optiga-trust-m/optiga-trust-m-1/externals/mbedtls/library/bignum.c ****     mbedtls_mpi_free( &TA ); mbedtls_mpi_free( &TU ); mbedtls_mpi_free( &U1 ); mbedtls_mpi_free( &U
 7631              	 .loc 1 2117 0
 7632 0252 06A8     	 add r0,sp,#24
 7633              	.LVL1292:
 7634 0254 FFF7FEFF 	 bl mbedtls_mpi_free
 7635              	.LVL1293:
 7636 0258 09A8     	 add r0,sp,#36
 7637              	.LVL1294:
 7638 025a FFF7FEFF 	 bl mbedtls_mpi_free
 7639              	.LVL1295:
 7640 025e 0CA8     	 add r0,sp,#48
 7641              	.LVL1296:
 7642 0260 FFF7FEFF 	 bl mbedtls_mpi_free
 7643              	.LVL1297:
 7644 0264 0FA8     	 add r0,sp,#60
 7645              	.LVL1298:
 7646 0266 FFF7FEFF 	 bl mbedtls_mpi_free
 7647              	.LVL1299:
2118://MAC/Home/Downloads/getstarted-optiga-trust-m/optiga-trust-m-1/externals/mbedtls/library/bignum.c ****     mbedtls_mpi_free( &G ); mbedtls_mpi_free( &TB ); mbedtls_mpi_free( &TV );
 7648              	 .loc 1 2118 0
 7649 026a 03A8     	 add r0,sp,#12
 7650              	.LVL1300:
 7651 026c FFF7FEFF 	 bl mbedtls_mpi_free
 7652              	.LVL1301:
 7653 0270 12A8     	 add r0,sp,#72
 7654              	.LVL1302:
 7655 0272 FFF7FEFF 	 bl mbedtls_mpi_free
 7656              	.LVL1303:
 7657 0276 15A8     	 add r0,sp,#84
 7658              	.LVL1304:
 7659 0278 FFF7FEFF 	 bl mbedtls_mpi_free
 7660              	.LVL1305:
2119://MAC/Home/Downloads/getstarted-optiga-trust-m/optiga-trust-m-1/externals/mbedtls/library/bignum.c ****     mbedtls_mpi_free( &V1 ); mbedtls_mpi_free( &V2 );
 7661              	 .loc 1 2119 0
 7662 027c 18A8     	 add r0,sp,#96
 7663              	.LVL1306:
 7664 027e FFF7FEFF 	 bl mbedtls_mpi_free
 7665              	.LVL1307:
 7666 0282 1BA8     	 add r0,sp,#108
 7667              	.LVL1308:
 7668 0284 FFF7FEFF 	 bl mbedtls_mpi_free
 7669              	.LVL1309:
2120://MAC/Home/Downloads/getstarted-optiga-trust-m/optiga-trust-m-1/externals/mbedtls/library/bignum.c **** 
2121://MAC/Home/Downloads/getstarted-optiga-trust-m/optiga-trust-m-1/externals/mbedtls/library/bignum.c ****     return( ret );
 7670              	 .loc 1 2121 0
 7671 0288 201C     	 mov r0,r4
 7672 028a 01E0     	 b .L537
 7673              	.LVL1310:
 7674              	.L556:
2038://MAC/Home/Downloads/getstarted-optiga-trust-m/optiga-trust-m-1/externals/mbedtls/library/bignum.c **** 
 7675              	 .loc 1 2038 0
 7676 028c 0420     	 mov r0,#4
 7677 028e 4042     	 neg r0,r0
 7678              	.L537:
2122://MAC/Home/Downloads/getstarted-optiga-trust-m/optiga-trust-m-1/externals/mbedtls/library/bignum.c **** }
 7679              	 .loc 1 2122 0
 7680 0290 1FB0     	 add sp,sp,#124
 7681              	 
 7682              	.LVL1311:
 7683              	.LVL1312:
 7684 0292 F0BD     	 pop {r4,r5,r6,r7,pc}
 7685              	 .cfi_endproc
 7686              	.LFE48:
 7688              	 .section .rodata.str1.1,"aMS",%progbits,1
 7689              	.LC4:
 7690 0000 30313233 	 .ascii "0123456789ABCDEF\000"
 7690      34353637 
 7690      38394142 
 7690      43444546 
 7690      00
 7691              	 .text
 7692              	.Letext0:
 7693              	 .file 2 "c:\\dave_4-4-2_64bit\\dave-ide-4.4.2-64bit\\eclipse\\arm-gcc-49\\lib\\gcc\\arm-none-eabi\\4.9.3\\include\\stddef.h"
 7694              	 .file 3 "c:\\dave_4-4-2_64bit\\dave-ide-4.4.2-64bit\\eclipse\\arm-gcc-49\\arm-none-eabi\\include\\machine\\_default_types.h"
 7695              	 .file 4 "c:\\dave_4-4-2_64bit\\dave-ide-4.4.2-64bit\\eclipse\\arm-gcc-49\\arm-none-eabi\\include\\stdint.h"
 7696              	 .file 5 "//MAC/Home/Downloads/getstarted-optiga-trust-m/optiga-trust-m-1/externals/mbedtls/include/mbedtls/bignum.h"
 7697              	 .file 6 "//MAC/Home/Downloads/getstarted-optiga-trust-m/optiga-trust-m-1/externals/mbedtls/include/mbedtls/platform_util.h"
 7698              	 .file 7 "c:\\dave_4-4-2_64bit\\dave-ide-4.4.2-64bit\\eclipse\\arm-gcc-49\\arm-none-eabi\\include\\stdlib.h"
 7699              	 .file 8 "c:\\dave_4-4-2_64bit\\dave-ide-4.4.2-64bit\\eclipse\\arm-gcc-49\\arm-none-eabi\\include\\string.h"
DEFINED SYMBOLS
                            *ABS*:00000000 bignum.c
    {standard input}:18     .text.mpi_get_digit:00000000 $t
    {standard input}:22     .text.mpi_get_digit:00000000 mpi_get_digit
    {standard input}:83     .text.mpi_sub_hlp:00000000 $t
    {standard input}:87     .text.mpi_sub_hlp:00000000 mpi_sub_hlp
    {standard input}:175    .text.mpi_mul_hlp:00000000 $t
    {standard input}:179    .text.mpi_mul_hlp:00000000 mpi_mul_hlp
    {standard input}:987    .text.mbedtls_mpi_init:00000000 $t
    {standard input}:992    .text.mbedtls_mpi_init:00000000 mbedtls_mpi_init
    {standard input}:1014   .text.mbedtls_mpi_free:00000000 $t
    {standard input}:1019   .text.mbedtls_mpi_free:00000000 mbedtls_mpi_free
    {standard input}:1070   .text.mbedtls_mpi_grow:00000000 $t
    {standard input}:1075   .text.mbedtls_mpi_grow:00000000 mbedtls_mpi_grow
    {standard input}:1165   .text.mbedtls_mpi_grow:00000050 $d
    {standard input}:1170   .text.mbedtls_mpi_shrink:00000000 $t
    {standard input}:1175   .text.mbedtls_mpi_shrink:00000000 mbedtls_mpi_shrink
    {standard input}:1294   .text.mbedtls_mpi_shrink:00000074 $d
    {standard input}:1300   .text.mbedtls_mpi_copy:00000000 $t
    {standard input}:1305   .text.mbedtls_mpi_copy:00000000 mbedtls_mpi_copy
    {standard input}:1410   .text.mbedtls_mpi_swap:00000000 $t
    {standard input}:1415   .text.mbedtls_mpi_swap:00000000 mbedtls_mpi_swap
    {standard input}:1466   .text.mbedtls_mpi_safe_cond_assign:00000000 $t
    {standard input}:1471   .text.mbedtls_mpi_safe_cond_assign:00000000 mbedtls_mpi_safe_cond_assign
    {standard input}:1581   .text.mbedtls_mpi_safe_cond_swap:00000000 $t
    {standard input}:1586   .text.mbedtls_mpi_safe_cond_swap:00000000 mbedtls_mpi_safe_cond_swap
    {standard input}:1710   .text.mbedtls_mpi_lset:00000000 $t
    {standard input}:1715   .text.mbedtls_mpi_lset:00000000 mbedtls_mpi_lset
    {standard input}:1777   .text.mbedtls_mpi_get_bit:00000000 $t
    {standard input}:1782   .text.mbedtls_mpi_get_bit:00000000 mbedtls_mpi_get_bit
    {standard input}:1826   .text.mbedtls_mpi_set_bit:00000000 $t
    {standard input}:1831   .text.mbedtls_mpi_set_bit:00000000 mbedtls_mpi_set_bit
    {standard input}:1920   .text.mbedtls_mpi_lsb:00000000 $t
    {standard input}:1925   .text.mbedtls_mpi_lsb:00000000 mbedtls_mpi_lsb
    {standard input}:1999   .text.mbedtls_mpi_bitlen:00000000 $t
    {standard input}:2004   .text.mbedtls_mpi_bitlen:00000000 mbedtls_mpi_bitlen
    {standard input}:2085   .text.mbedtls_mpi_bitlen:00000044 $d
    {standard input}:2090   .text.mbedtls_mpi_size:00000000 $t
    {standard input}:2095   .text.mbedtls_mpi_size:00000000 mbedtls_mpi_size
    {standard input}:2117   .text.mbedtls_mpi_read_binary:00000000 $t
    {standard input}:2122   .text.mbedtls_mpi_read_binary:00000000 mbedtls_mpi_read_binary
    {standard input}:2246   .text.mbedtls_mpi_write_binary:00000000 $t
    {standard input}:2251   .text.mbedtls_mpi_write_binary:00000000 mbedtls_mpi_write_binary
    {standard input}:2359   .text.mbedtls_mpi_shift_l:00000000 $t
    {standard input}:2364   .text.mbedtls_mpi_shift_l:00000000 mbedtls_mpi_shift_l
    {standard input}:2535   .text.mbedtls_mpi_shift_l:000000ac $d
    {standard input}:2540   .text.mbedtls_mpi_shift_r:00000000 $t
    {standard input}:2545   .text.mbedtls_mpi_shift_r:00000000 mbedtls_mpi_shift_r
    {standard input}:2697   .text.mbedtls_mpi_shift_r:00000090 $d
    {standard input}:2702   .text.mbedtls_mpi_cmp_abs:00000000 $t
    {standard input}:2707   .text.mbedtls_mpi_cmp_abs:00000000 mbedtls_mpi_cmp_abs
    {standard input}:2821   .text.mbedtls_mpi_cmp_abs:0000007c $d
    {standard input}:2826   .text.mpi_montmul:00000000 $t
    {standard input}:2830   .text.mpi_montmul:00000000 mpi_montmul
    {standard input}:3009   .text.mbedtls_mpi_cmp_mpi:00000000 $t
    {standard input}:3014   .text.mbedtls_mpi_cmp_mpi:00000000 mbedtls_mpi_cmp_mpi
    {standard input}:3154   .text.mbedtls_mpi_cmp_mpi:00000094 $d
    {standard input}:3159   .text.mbedtls_mpi_cmp_int:00000000 $t
    {standard input}:3164   .text.mbedtls_mpi_cmp_int:00000000 mbedtls_mpi_cmp_int
    {standard input}:3209   .text.mbedtls_mpi_add_abs:00000000 $t
    {standard input}:3214   .text.mbedtls_mpi_add_abs:00000000 mbedtls_mpi_add_abs
    {standard input}:3387   .text.mbedtls_mpi_add_abs:000000b8 $d
    {standard input}:3392   .text.mbedtls_mpi_sub_abs:00000000 $t
    {standard input}:3397   .text.mbedtls_mpi_sub_abs:00000000 mbedtls_mpi_sub_abs
    {standard input}:3533   .text.mbedtls_mpi_sub_abs:00000080 $d
    {standard input}:3538   .text.mbedtls_mpi_add_mpi:00000000 $t
    {standard input}:3543   .text.mbedtls_mpi_add_mpi:00000000 mbedtls_mpi_add_mpi
    {standard input}:3626   .text.mbedtls_mpi_sub_mpi:00000000 $t
    {standard input}:3631   .text.mbedtls_mpi_sub_mpi:00000000 mbedtls_mpi_sub_mpi
    {standard input}:3714   .text.mbedtls_mpi_add_int:00000000 $t
    {standard input}:3719   .text.mbedtls_mpi_add_int:00000000 mbedtls_mpi_add_int
    {standard input}:3764   .text.mbedtls_mpi_sub_int:00000000 $t
    {standard input}:3769   .text.mbedtls_mpi_sub_int:00000000 mbedtls_mpi_sub_int
    {standard input}:3814   .text.mbedtls_mpi_mul_mpi:00000000 $t
    {standard input}:3819   .text.mbedtls_mpi_mul_mpi:00000000 mbedtls_mpi_mul_mpi
    {standard input}:4049   .text.mbedtls_mpi_mul_mpi:000000f0 $d
    {standard input}:4054   .text.mbedtls_mpi_mul_int:00000000 $t
    {standard input}:4059   .text.mbedtls_mpi_mul_int:00000000 mbedtls_mpi_mul_int
    {standard input}:4098   .text.mbedtls_mpi_read_string:00000000 $t
    {standard input}:4103   .text.mbedtls_mpi_read_string:00000000 mbedtls_mpi_read_string
    {standard input}:4364   .text.mbedtls_mpi_read_string:00000118 $d
    {standard input}:4370   .text.mbedtls_mpi_div_mpi:00000000 $t
    {standard input}:4375   .text.mbedtls_mpi_div_mpi:00000000 mbedtls_mpi_div_mpi
    {standard input}:5105   .text.mbedtls_mpi_div_mpi:0000035c $d
    {standard input}:5111   .text.mbedtls_mpi_div_int:00000000 $t
    {standard input}:5116   .text.mbedtls_mpi_div_int:00000000 mbedtls_mpi_div_int
    {standard input}:5161   .text.mbedtls_mpi_mod_mpi:00000000 $t
    {standard input}:5166   .text.mbedtls_mpi_mod_mpi:00000000 mbedtls_mpi_mod_mpi
    {standard input}:5256   .text.mbedtls_mpi_mod_int:00000000 $t
    {standard input}:5261   .text.mbedtls_mpi_mod_int:00000000 mbedtls_mpi_mod_int
    {standard input}:5418   .text.mbedtls_mpi_mod_int:0000008c $d
    {standard input}:5423   .text.mpi_write_hlp:00000000 $t
    {standard input}:5427   .text.mpi_write_hlp:00000000 mpi_write_hlp
    {standard input}:5529   .text.mbedtls_mpi_write_string:00000000 $t
    {standard input}:5534   .text.mbedtls_mpi_write_string:00000000 mbedtls_mpi_write_string
    {standard input}:5777   .text.mbedtls_mpi_write_string:00000104 $d
    {standard input}:5783   .text.mbedtls_mpi_exp_mod:00000000 $t
    {standard input}:5788   .text.mbedtls_mpi_exp_mod:00000000 mbedtls_mpi_exp_mod
    {standard input}:6453   .text.mbedtls_mpi_exp_mod:000002f4 $d
    {standard input}:6458   .text.mbedtls_mpi_exp_mod:000002fc $t
    {standard input}:6728   .text.mbedtls_mpi_exp_mod:00000444 $d
    {standard input}:6733   .text.mbedtls_mpi_gcd:00000000 $t
    {standard input}:6738   .text.mbedtls_mpi_gcd:00000000 mbedtls_mpi_gcd
    {standard input}:6991   .text.mbedtls_mpi_fill_random:00000000 $t
    {standard input}:6996   .text.mbedtls_mpi_fill_random:00000000 mbedtls_mpi_fill_random
    {standard input}:7069   .text.mbedtls_mpi_fill_random:00000048 $d
    {standard input}:7074   .text.mbedtls_mpi_inv_mod:00000000 $t
    {standard input}:7079   .text.mbedtls_mpi_inv_mod:00000000 mbedtls_mpi_inv_mod
                     .debug_frame:00000010 $d

UNDEFINED SYMBOLS
__aeabi_lmul
mbedtls_platform_zeroize
free
calloc
memcpy
memset
strlen
__aeabi_uldivmod
__aeabi_uidiv
