   1              	 .cpu cortex-m0
   2              	 .fpu softvfp
   3              	 .eabi_attribute 20,1
   4              	 .eabi_attribute 21,1
   5              	 .eabi_attribute 23,3
   6              	 .eabi_attribute 24,1
   7              	 .eabi_attribute 25,1
   8              	 .eabi_attribute 26,1
   9              	 .eabi_attribute 30,4
  10              	 .eabi_attribute 34,0
  11              	 .eabi_attribute 18,4
  12              	 .code 16
  13              	 .file "ccm.c"
  14              	 .text
  15              	.Ltext0:
  16              	 .cfi_sections .debug_frame
  17              	 .section .text.ccm_auth_crypt,"ax",%progbits
  18              	 .align 1
  19              	 .code 16
  20              	 .thumb_func
  22              	ccm_auth_crypt:
  23              	.LFB10:
  24              	 .file 1 "//MAC/Home/Downloads/getstarted-optiga-trust-m/optiga-trust-m-1/externals/mbedtls/library/ccm.c"
   1://MAC/Home/Downloads/getstarted-optiga-trust-m/optiga-trust-m-1/externals/mbedtls/library/ccm.c **** /*
   2://MAC/Home/Downloads/getstarted-optiga-trust-m/optiga-trust-m-1/externals/mbedtls/library/ccm.c ****  *  NIST SP800-38C compliant CCM implementation
   3://MAC/Home/Downloads/getstarted-optiga-trust-m/optiga-trust-m-1/externals/mbedtls/library/ccm.c ****  *
   4://MAC/Home/Downloads/getstarted-optiga-trust-m/optiga-trust-m-1/externals/mbedtls/library/ccm.c ****  *  Copyright (C) 2006-2015, ARM Limited, All Rights Reserved
   5://MAC/Home/Downloads/getstarted-optiga-trust-m/optiga-trust-m-1/externals/mbedtls/library/ccm.c ****  *  SPDX-License-Identifier: Apache-2.0
   6://MAC/Home/Downloads/getstarted-optiga-trust-m/optiga-trust-m-1/externals/mbedtls/library/ccm.c ****  *
   7://MAC/Home/Downloads/getstarted-optiga-trust-m/optiga-trust-m-1/externals/mbedtls/library/ccm.c ****  *  Licensed under the Apache License, Version 2.0 (the "License"); you may
   8://MAC/Home/Downloads/getstarted-optiga-trust-m/optiga-trust-m-1/externals/mbedtls/library/ccm.c ****  *  not use this file except in compliance with the License.
   9://MAC/Home/Downloads/getstarted-optiga-trust-m/optiga-trust-m-1/externals/mbedtls/library/ccm.c ****  *  You may obtain a copy of the License at
  10://MAC/Home/Downloads/getstarted-optiga-trust-m/optiga-trust-m-1/externals/mbedtls/library/ccm.c ****  *
  11://MAC/Home/Downloads/getstarted-optiga-trust-m/optiga-trust-m-1/externals/mbedtls/library/ccm.c ****  *  http://www.apache.org/licenses/LICENSE-2.0
  12://MAC/Home/Downloads/getstarted-optiga-trust-m/optiga-trust-m-1/externals/mbedtls/library/ccm.c ****  *
  13://MAC/Home/Downloads/getstarted-optiga-trust-m/optiga-trust-m-1/externals/mbedtls/library/ccm.c ****  *  Unless required by applicable law or agreed to in writing, software
  14://MAC/Home/Downloads/getstarted-optiga-trust-m/optiga-trust-m-1/externals/mbedtls/library/ccm.c ****  *  distributed under the License is distributed on an "AS IS" BASIS, WITHOUT
  15://MAC/Home/Downloads/getstarted-optiga-trust-m/optiga-trust-m-1/externals/mbedtls/library/ccm.c ****  *  WARRANTIES OR CONDITIONS OF ANY KIND, either express or implied.
  16://MAC/Home/Downloads/getstarted-optiga-trust-m/optiga-trust-m-1/externals/mbedtls/library/ccm.c ****  *  See the License for the specific language governing permissions and
  17://MAC/Home/Downloads/getstarted-optiga-trust-m/optiga-trust-m-1/externals/mbedtls/library/ccm.c ****  *  limitations under the License.
  18://MAC/Home/Downloads/getstarted-optiga-trust-m/optiga-trust-m-1/externals/mbedtls/library/ccm.c ****  *
  19://MAC/Home/Downloads/getstarted-optiga-trust-m/optiga-trust-m-1/externals/mbedtls/library/ccm.c ****  *  This file is part of mbed TLS (https://tls.mbed.org)
  20://MAC/Home/Downloads/getstarted-optiga-trust-m/optiga-trust-m-1/externals/mbedtls/library/ccm.c ****  */
  21://MAC/Home/Downloads/getstarted-optiga-trust-m/optiga-trust-m-1/externals/mbedtls/library/ccm.c **** 
  22://MAC/Home/Downloads/getstarted-optiga-trust-m/optiga-trust-m-1/externals/mbedtls/library/ccm.c **** /*
  23://MAC/Home/Downloads/getstarted-optiga-trust-m/optiga-trust-m-1/externals/mbedtls/library/ccm.c ****  * Definition of CCM:
  24://MAC/Home/Downloads/getstarted-optiga-trust-m/optiga-trust-m-1/externals/mbedtls/library/ccm.c ****  * http://csrc.nist.gov/publications/nistpubs/800-38C/SP800-38C_updated-July20_2007.pdf
  25://MAC/Home/Downloads/getstarted-optiga-trust-m/optiga-trust-m-1/externals/mbedtls/library/ccm.c ****  * RFC 3610 "Counter with CBC-MAC (CCM)"
  26://MAC/Home/Downloads/getstarted-optiga-trust-m/optiga-trust-m-1/externals/mbedtls/library/ccm.c ****  *
  27://MAC/Home/Downloads/getstarted-optiga-trust-m/optiga-trust-m-1/externals/mbedtls/library/ccm.c ****  * Related:
  28://MAC/Home/Downloads/getstarted-optiga-trust-m/optiga-trust-m-1/externals/mbedtls/library/ccm.c ****  * RFC 5116 "An Interface and Algorithms for Authenticated Encryption"
  29://MAC/Home/Downloads/getstarted-optiga-trust-m/optiga-trust-m-1/externals/mbedtls/library/ccm.c ****  */
  30://MAC/Home/Downloads/getstarted-optiga-trust-m/optiga-trust-m-1/externals/mbedtls/library/ccm.c **** 
  31://MAC/Home/Downloads/getstarted-optiga-trust-m/optiga-trust-m-1/externals/mbedtls/library/ccm.c **** #if !defined(MBEDTLS_CONFIG_FILE)
  32://MAC/Home/Downloads/getstarted-optiga-trust-m/optiga-trust-m-1/externals/mbedtls/library/ccm.c **** #include "mbedtls/config.h"
  33://MAC/Home/Downloads/getstarted-optiga-trust-m/optiga-trust-m-1/externals/mbedtls/library/ccm.c **** #else
  34://MAC/Home/Downloads/getstarted-optiga-trust-m/optiga-trust-m-1/externals/mbedtls/library/ccm.c **** #include MBEDTLS_CONFIG_FILE
  35://MAC/Home/Downloads/getstarted-optiga-trust-m/optiga-trust-m-1/externals/mbedtls/library/ccm.c **** #endif
  36://MAC/Home/Downloads/getstarted-optiga-trust-m/optiga-trust-m-1/externals/mbedtls/library/ccm.c **** 
  37://MAC/Home/Downloads/getstarted-optiga-trust-m/optiga-trust-m-1/externals/mbedtls/library/ccm.c **** #if defined(MBEDTLS_CCM_C)
  38://MAC/Home/Downloads/getstarted-optiga-trust-m/optiga-trust-m-1/externals/mbedtls/library/ccm.c **** 
  39://MAC/Home/Downloads/getstarted-optiga-trust-m/optiga-trust-m-1/externals/mbedtls/library/ccm.c **** #include "mbedtls/ccm.h"
  40://MAC/Home/Downloads/getstarted-optiga-trust-m/optiga-trust-m-1/externals/mbedtls/library/ccm.c **** #include "mbedtls/platform_util.h"
  41://MAC/Home/Downloads/getstarted-optiga-trust-m/optiga-trust-m-1/externals/mbedtls/library/ccm.c **** 
  42://MAC/Home/Downloads/getstarted-optiga-trust-m/optiga-trust-m-1/externals/mbedtls/library/ccm.c **** #include <string.h>
  43://MAC/Home/Downloads/getstarted-optiga-trust-m/optiga-trust-m-1/externals/mbedtls/library/ccm.c **** 
  44://MAC/Home/Downloads/getstarted-optiga-trust-m/optiga-trust-m-1/externals/mbedtls/library/ccm.c **** #if defined(MBEDTLS_SELF_TEST) && defined(MBEDTLS_AES_C)
  45://MAC/Home/Downloads/getstarted-optiga-trust-m/optiga-trust-m-1/externals/mbedtls/library/ccm.c **** #if defined(MBEDTLS_PLATFORM_C)
  46://MAC/Home/Downloads/getstarted-optiga-trust-m/optiga-trust-m-1/externals/mbedtls/library/ccm.c **** #include "mbedtls/platform.h"
  47://MAC/Home/Downloads/getstarted-optiga-trust-m/optiga-trust-m-1/externals/mbedtls/library/ccm.c **** #else
  48://MAC/Home/Downloads/getstarted-optiga-trust-m/optiga-trust-m-1/externals/mbedtls/library/ccm.c **** #include <stdio.h>
  49://MAC/Home/Downloads/getstarted-optiga-trust-m/optiga-trust-m-1/externals/mbedtls/library/ccm.c **** #define mbedtls_printf printf
  50://MAC/Home/Downloads/getstarted-optiga-trust-m/optiga-trust-m-1/externals/mbedtls/library/ccm.c **** #endif /* MBEDTLS_PLATFORM_C */
  51://MAC/Home/Downloads/getstarted-optiga-trust-m/optiga-trust-m-1/externals/mbedtls/library/ccm.c **** #endif /* MBEDTLS_SELF_TEST && MBEDTLS_AES_C */
  52://MAC/Home/Downloads/getstarted-optiga-trust-m/optiga-trust-m-1/externals/mbedtls/library/ccm.c **** 
  53://MAC/Home/Downloads/getstarted-optiga-trust-m/optiga-trust-m-1/externals/mbedtls/library/ccm.c **** #if !defined(MBEDTLS_CCM_ALT)
  54://MAC/Home/Downloads/getstarted-optiga-trust-m/optiga-trust-m-1/externals/mbedtls/library/ccm.c **** 
  55://MAC/Home/Downloads/getstarted-optiga-trust-m/optiga-trust-m-1/externals/mbedtls/library/ccm.c **** #define CCM_VALIDATE_RET( cond ) \
  56://MAC/Home/Downloads/getstarted-optiga-trust-m/optiga-trust-m-1/externals/mbedtls/library/ccm.c ****     MBEDTLS_INTERNAL_VALIDATE_RET( cond, MBEDTLS_ERR_CCM_BAD_INPUT )
  57://MAC/Home/Downloads/getstarted-optiga-trust-m/optiga-trust-m-1/externals/mbedtls/library/ccm.c **** #define CCM_VALIDATE( cond ) \
  58://MAC/Home/Downloads/getstarted-optiga-trust-m/optiga-trust-m-1/externals/mbedtls/library/ccm.c ****     MBEDTLS_INTERNAL_VALIDATE( cond )
  59://MAC/Home/Downloads/getstarted-optiga-trust-m/optiga-trust-m-1/externals/mbedtls/library/ccm.c **** 
  60://MAC/Home/Downloads/getstarted-optiga-trust-m/optiga-trust-m-1/externals/mbedtls/library/ccm.c **** #define CCM_ENCRYPT 0
  61://MAC/Home/Downloads/getstarted-optiga-trust-m/optiga-trust-m-1/externals/mbedtls/library/ccm.c **** #define CCM_DECRYPT 1
  62://MAC/Home/Downloads/getstarted-optiga-trust-m/optiga-trust-m-1/externals/mbedtls/library/ccm.c **** 
  63://MAC/Home/Downloads/getstarted-optiga-trust-m/optiga-trust-m-1/externals/mbedtls/library/ccm.c **** /*
  64://MAC/Home/Downloads/getstarted-optiga-trust-m/optiga-trust-m-1/externals/mbedtls/library/ccm.c ****  * Initialize context
  65://MAC/Home/Downloads/getstarted-optiga-trust-m/optiga-trust-m-1/externals/mbedtls/library/ccm.c ****  */
  66://MAC/Home/Downloads/getstarted-optiga-trust-m/optiga-trust-m-1/externals/mbedtls/library/ccm.c **** void mbedtls_ccm_init( mbedtls_ccm_context *ctx )
  67://MAC/Home/Downloads/getstarted-optiga-trust-m/optiga-trust-m-1/externals/mbedtls/library/ccm.c **** {
  68://MAC/Home/Downloads/getstarted-optiga-trust-m/optiga-trust-m-1/externals/mbedtls/library/ccm.c ****     CCM_VALIDATE( ctx != NULL );
  69://MAC/Home/Downloads/getstarted-optiga-trust-m/optiga-trust-m-1/externals/mbedtls/library/ccm.c ****     memset( ctx, 0, sizeof( mbedtls_ccm_context ) );
  70://MAC/Home/Downloads/getstarted-optiga-trust-m/optiga-trust-m-1/externals/mbedtls/library/ccm.c **** }
  71://MAC/Home/Downloads/getstarted-optiga-trust-m/optiga-trust-m-1/externals/mbedtls/library/ccm.c **** 
  72://MAC/Home/Downloads/getstarted-optiga-trust-m/optiga-trust-m-1/externals/mbedtls/library/ccm.c **** int mbedtls_ccm_setkey( mbedtls_ccm_context *ctx,
  73://MAC/Home/Downloads/getstarted-optiga-trust-m/optiga-trust-m-1/externals/mbedtls/library/ccm.c ****                         mbedtls_cipher_id_t cipher,
  74://MAC/Home/Downloads/getstarted-optiga-trust-m/optiga-trust-m-1/externals/mbedtls/library/ccm.c ****                         const unsigned char *key,
  75://MAC/Home/Downloads/getstarted-optiga-trust-m/optiga-trust-m-1/externals/mbedtls/library/ccm.c ****                         unsigned int keybits )
  76://MAC/Home/Downloads/getstarted-optiga-trust-m/optiga-trust-m-1/externals/mbedtls/library/ccm.c **** {
  77://MAC/Home/Downloads/getstarted-optiga-trust-m/optiga-trust-m-1/externals/mbedtls/library/ccm.c ****     int ret;
  78://MAC/Home/Downloads/getstarted-optiga-trust-m/optiga-trust-m-1/externals/mbedtls/library/ccm.c ****     const mbedtls_cipher_info_t *cipher_info;
  79://MAC/Home/Downloads/getstarted-optiga-trust-m/optiga-trust-m-1/externals/mbedtls/library/ccm.c **** 
  80://MAC/Home/Downloads/getstarted-optiga-trust-m/optiga-trust-m-1/externals/mbedtls/library/ccm.c ****     CCM_VALIDATE_RET( ctx != NULL );
  81://MAC/Home/Downloads/getstarted-optiga-trust-m/optiga-trust-m-1/externals/mbedtls/library/ccm.c ****     CCM_VALIDATE_RET( key != NULL );
  82://MAC/Home/Downloads/getstarted-optiga-trust-m/optiga-trust-m-1/externals/mbedtls/library/ccm.c **** 
  83://MAC/Home/Downloads/getstarted-optiga-trust-m/optiga-trust-m-1/externals/mbedtls/library/ccm.c ****     cipher_info = mbedtls_cipher_info_from_values( cipher, keybits, MBEDTLS_MODE_ECB );
  84://MAC/Home/Downloads/getstarted-optiga-trust-m/optiga-trust-m-1/externals/mbedtls/library/ccm.c ****     if( cipher_info == NULL )
  85://MAC/Home/Downloads/getstarted-optiga-trust-m/optiga-trust-m-1/externals/mbedtls/library/ccm.c ****         return( MBEDTLS_ERR_CCM_BAD_INPUT );
  86://MAC/Home/Downloads/getstarted-optiga-trust-m/optiga-trust-m-1/externals/mbedtls/library/ccm.c **** 
  87://MAC/Home/Downloads/getstarted-optiga-trust-m/optiga-trust-m-1/externals/mbedtls/library/ccm.c ****     if( cipher_info->block_size != 16 )
  88://MAC/Home/Downloads/getstarted-optiga-trust-m/optiga-trust-m-1/externals/mbedtls/library/ccm.c ****         return( MBEDTLS_ERR_CCM_BAD_INPUT );
  89://MAC/Home/Downloads/getstarted-optiga-trust-m/optiga-trust-m-1/externals/mbedtls/library/ccm.c **** 
  90://MAC/Home/Downloads/getstarted-optiga-trust-m/optiga-trust-m-1/externals/mbedtls/library/ccm.c ****     mbedtls_cipher_free( &ctx->cipher_ctx );
  91://MAC/Home/Downloads/getstarted-optiga-trust-m/optiga-trust-m-1/externals/mbedtls/library/ccm.c **** 
  92://MAC/Home/Downloads/getstarted-optiga-trust-m/optiga-trust-m-1/externals/mbedtls/library/ccm.c ****     if( ( ret = mbedtls_cipher_setup( &ctx->cipher_ctx, cipher_info ) ) != 0 )
  93://MAC/Home/Downloads/getstarted-optiga-trust-m/optiga-trust-m-1/externals/mbedtls/library/ccm.c ****         return( ret );
  94://MAC/Home/Downloads/getstarted-optiga-trust-m/optiga-trust-m-1/externals/mbedtls/library/ccm.c **** 
  95://MAC/Home/Downloads/getstarted-optiga-trust-m/optiga-trust-m-1/externals/mbedtls/library/ccm.c ****     if( ( ret = mbedtls_cipher_setkey( &ctx->cipher_ctx, key, keybits,
  96://MAC/Home/Downloads/getstarted-optiga-trust-m/optiga-trust-m-1/externals/mbedtls/library/ccm.c ****                                MBEDTLS_ENCRYPT ) ) != 0 )
  97://MAC/Home/Downloads/getstarted-optiga-trust-m/optiga-trust-m-1/externals/mbedtls/library/ccm.c ****     {
  98://MAC/Home/Downloads/getstarted-optiga-trust-m/optiga-trust-m-1/externals/mbedtls/library/ccm.c ****         return( ret );
  99://MAC/Home/Downloads/getstarted-optiga-trust-m/optiga-trust-m-1/externals/mbedtls/library/ccm.c ****     }
 100://MAC/Home/Downloads/getstarted-optiga-trust-m/optiga-trust-m-1/externals/mbedtls/library/ccm.c **** 
 101://MAC/Home/Downloads/getstarted-optiga-trust-m/optiga-trust-m-1/externals/mbedtls/library/ccm.c ****     return( 0 );
 102://MAC/Home/Downloads/getstarted-optiga-trust-m/optiga-trust-m-1/externals/mbedtls/library/ccm.c **** }
 103://MAC/Home/Downloads/getstarted-optiga-trust-m/optiga-trust-m-1/externals/mbedtls/library/ccm.c **** 
 104://MAC/Home/Downloads/getstarted-optiga-trust-m/optiga-trust-m-1/externals/mbedtls/library/ccm.c **** /*
 105://MAC/Home/Downloads/getstarted-optiga-trust-m/optiga-trust-m-1/externals/mbedtls/library/ccm.c ****  * Free context
 106://MAC/Home/Downloads/getstarted-optiga-trust-m/optiga-trust-m-1/externals/mbedtls/library/ccm.c ****  */
 107://MAC/Home/Downloads/getstarted-optiga-trust-m/optiga-trust-m-1/externals/mbedtls/library/ccm.c **** void mbedtls_ccm_free( mbedtls_ccm_context *ctx )
 108://MAC/Home/Downloads/getstarted-optiga-trust-m/optiga-trust-m-1/externals/mbedtls/library/ccm.c **** {
 109://MAC/Home/Downloads/getstarted-optiga-trust-m/optiga-trust-m-1/externals/mbedtls/library/ccm.c ****     if( ctx == NULL )
 110://MAC/Home/Downloads/getstarted-optiga-trust-m/optiga-trust-m-1/externals/mbedtls/library/ccm.c ****         return;
 111://MAC/Home/Downloads/getstarted-optiga-trust-m/optiga-trust-m-1/externals/mbedtls/library/ccm.c ****     mbedtls_cipher_free( &ctx->cipher_ctx );
 112://MAC/Home/Downloads/getstarted-optiga-trust-m/optiga-trust-m-1/externals/mbedtls/library/ccm.c ****     mbedtls_platform_zeroize( ctx, sizeof( mbedtls_ccm_context ) );
 113://MAC/Home/Downloads/getstarted-optiga-trust-m/optiga-trust-m-1/externals/mbedtls/library/ccm.c **** }
 114://MAC/Home/Downloads/getstarted-optiga-trust-m/optiga-trust-m-1/externals/mbedtls/library/ccm.c **** 
 115://MAC/Home/Downloads/getstarted-optiga-trust-m/optiga-trust-m-1/externals/mbedtls/library/ccm.c **** /*
 116://MAC/Home/Downloads/getstarted-optiga-trust-m/optiga-trust-m-1/externals/mbedtls/library/ccm.c ****  * Macros for common operations.
 117://MAC/Home/Downloads/getstarted-optiga-trust-m/optiga-trust-m-1/externals/mbedtls/library/ccm.c ****  * Results in smaller compiled code than static inline functions.
 118://MAC/Home/Downloads/getstarted-optiga-trust-m/optiga-trust-m-1/externals/mbedtls/library/ccm.c ****  */
 119://MAC/Home/Downloads/getstarted-optiga-trust-m/optiga-trust-m-1/externals/mbedtls/library/ccm.c **** 
 120://MAC/Home/Downloads/getstarted-optiga-trust-m/optiga-trust-m-1/externals/mbedtls/library/ccm.c **** /*
 121://MAC/Home/Downloads/getstarted-optiga-trust-m/optiga-trust-m-1/externals/mbedtls/library/ccm.c ****  * Update the CBC-MAC state in y using a block in b
 122://MAC/Home/Downloads/getstarted-optiga-trust-m/optiga-trust-m-1/externals/mbedtls/library/ccm.c ****  * (Always using b as the source helps the compiler optimise a bit better.)
 123://MAC/Home/Downloads/getstarted-optiga-trust-m/optiga-trust-m-1/externals/mbedtls/library/ccm.c ****  */
 124://MAC/Home/Downloads/getstarted-optiga-trust-m/optiga-trust-m-1/externals/mbedtls/library/ccm.c **** #define UPDATE_CBC_MAC                                                      \
 125://MAC/Home/Downloads/getstarted-optiga-trust-m/optiga-trust-m-1/externals/mbedtls/library/ccm.c ****     for( i = 0; i < 16; i++ )                                               \
 126://MAC/Home/Downloads/getstarted-optiga-trust-m/optiga-trust-m-1/externals/mbedtls/library/ccm.c ****         y[i] ^= b[i];                                                       \
 127://MAC/Home/Downloads/getstarted-optiga-trust-m/optiga-trust-m-1/externals/mbedtls/library/ccm.c ****                                                                             \
 128://MAC/Home/Downloads/getstarted-optiga-trust-m/optiga-trust-m-1/externals/mbedtls/library/ccm.c ****     if( ( ret = mbedtls_cipher_update( &ctx->cipher_ctx, y, 16, y, &olen ) ) != 0 ) \
 129://MAC/Home/Downloads/getstarted-optiga-trust-m/optiga-trust-m-1/externals/mbedtls/library/ccm.c ****         return( ret );
 130://MAC/Home/Downloads/getstarted-optiga-trust-m/optiga-trust-m-1/externals/mbedtls/library/ccm.c **** 
 131://MAC/Home/Downloads/getstarted-optiga-trust-m/optiga-trust-m-1/externals/mbedtls/library/ccm.c **** /*
 132://MAC/Home/Downloads/getstarted-optiga-trust-m/optiga-trust-m-1/externals/mbedtls/library/ccm.c ****  * Encrypt or decrypt a partial block with CTR
 133://MAC/Home/Downloads/getstarted-optiga-trust-m/optiga-trust-m-1/externals/mbedtls/library/ccm.c ****  * Warning: using b for temporary storage! src and dst must not be b!
 134://MAC/Home/Downloads/getstarted-optiga-trust-m/optiga-trust-m-1/externals/mbedtls/library/ccm.c ****  * This avoids allocating one more 16 bytes buffer while allowing src == dst.
 135://MAC/Home/Downloads/getstarted-optiga-trust-m/optiga-trust-m-1/externals/mbedtls/library/ccm.c ****  */
 136://MAC/Home/Downloads/getstarted-optiga-trust-m/optiga-trust-m-1/externals/mbedtls/library/ccm.c **** #define CTR_CRYPT( dst, src, len  )                                            \
 137://MAC/Home/Downloads/getstarted-optiga-trust-m/optiga-trust-m-1/externals/mbedtls/library/ccm.c ****     if( ( ret = mbedtls_cipher_update( &ctx->cipher_ctx, ctr, 16, b, &olen ) ) != 0 )  \
 138://MAC/Home/Downloads/getstarted-optiga-trust-m/optiga-trust-m-1/externals/mbedtls/library/ccm.c ****         return( ret );                                                         \
 139://MAC/Home/Downloads/getstarted-optiga-trust-m/optiga-trust-m-1/externals/mbedtls/library/ccm.c ****                                                                                \
 140://MAC/Home/Downloads/getstarted-optiga-trust-m/optiga-trust-m-1/externals/mbedtls/library/ccm.c ****     for( i = 0; i < len; i++ )                                                 \
 141://MAC/Home/Downloads/getstarted-optiga-trust-m/optiga-trust-m-1/externals/mbedtls/library/ccm.c ****         dst[i] = src[i] ^ b[i];
 142://MAC/Home/Downloads/getstarted-optiga-trust-m/optiga-trust-m-1/externals/mbedtls/library/ccm.c **** 
 143://MAC/Home/Downloads/getstarted-optiga-trust-m/optiga-trust-m-1/externals/mbedtls/library/ccm.c **** /*
 144://MAC/Home/Downloads/getstarted-optiga-trust-m/optiga-trust-m-1/externals/mbedtls/library/ccm.c ****  * Authenticated encryption or decryption
 145://MAC/Home/Downloads/getstarted-optiga-trust-m/optiga-trust-m-1/externals/mbedtls/library/ccm.c ****  */
 146://MAC/Home/Downloads/getstarted-optiga-trust-m/optiga-trust-m-1/externals/mbedtls/library/ccm.c **** static int ccm_auth_crypt( mbedtls_ccm_context *ctx, int mode, size_t length,
 147://MAC/Home/Downloads/getstarted-optiga-trust-m/optiga-trust-m-1/externals/mbedtls/library/ccm.c ****                            const unsigned char *iv, size_t iv_len,
 148://MAC/Home/Downloads/getstarted-optiga-trust-m/optiga-trust-m-1/externals/mbedtls/library/ccm.c ****                            const unsigned char *add, size_t add_len,
 149://MAC/Home/Downloads/getstarted-optiga-trust-m/optiga-trust-m-1/externals/mbedtls/library/ccm.c ****                            const unsigned char *input, unsigned char *output,
 150://MAC/Home/Downloads/getstarted-optiga-trust-m/optiga-trust-m-1/externals/mbedtls/library/ccm.c ****                            unsigned char *tag, size_t tag_len )
 151://MAC/Home/Downloads/getstarted-optiga-trust-m/optiga-trust-m-1/externals/mbedtls/library/ccm.c **** {
  25              	 .loc 1 151 0
  26              	 .cfi_startproc
  27              	.LVL0:
  28 0000 F0B5     	 push {r4,r5,r6,r7,lr}
  29              	.LCFI0:
  30              	 .cfi_def_cfa_offset 20
  31              	 .cfi_offset 4,-20
  32              	 .cfi_offset 5,-16
  33              	 .cfi_offset 6,-12
  34              	 .cfi_offset 7,-8
  35              	 .cfi_offset 14,-4
  36 0002 97B0     	 sub sp,sp,#92
  37              	.LCFI1:
  38              	 .cfi_def_cfa_offset 112
  39              	 .loc 1 151 0
  40 0004 0693     	 str r3,[sp,#24]
 152://MAC/Home/Downloads/getstarted-optiga-trust-m/optiga-trust-m-1/externals/mbedtls/library/ccm.c ****     int ret;
 153://MAC/Home/Downloads/getstarted-optiga-trust-m/optiga-trust-m-1/externals/mbedtls/library/ccm.c ****     unsigned char i;
 154://MAC/Home/Downloads/getstarted-optiga-trust-m/optiga-trust-m-1/externals/mbedtls/library/ccm.c ****     unsigned char q;
 155://MAC/Home/Downloads/getstarted-optiga-trust-m/optiga-trust-m-1/externals/mbedtls/library/ccm.c ****     size_t len_left, olen;
 156://MAC/Home/Downloads/getstarted-optiga-trust-m/optiga-trust-m-1/externals/mbedtls/library/ccm.c ****     unsigned char b[16];
 157://MAC/Home/Downloads/getstarted-optiga-trust-m/optiga-trust-m-1/externals/mbedtls/library/ccm.c ****     unsigned char y[16];
 158://MAC/Home/Downloads/getstarted-optiga-trust-m/optiga-trust-m-1/externals/mbedtls/library/ccm.c ****     unsigned char ctr[16];
 159://MAC/Home/Downloads/getstarted-optiga-trust-m/optiga-trust-m-1/externals/mbedtls/library/ccm.c ****     const unsigned char *src;
 160://MAC/Home/Downloads/getstarted-optiga-trust-m/optiga-trust-m-1/externals/mbedtls/library/ccm.c ****     unsigned char *dst;
 161://MAC/Home/Downloads/getstarted-optiga-trust-m/optiga-trust-m-1/externals/mbedtls/library/ccm.c **** 
 162://MAC/Home/Downloads/getstarted-optiga-trust-m/optiga-trust-m-1/externals/mbedtls/library/ccm.c ****     /*
 163://MAC/Home/Downloads/getstarted-optiga-trust-m/optiga-trust-m-1/externals/mbedtls/library/ccm.c ****      * Check length requirements: SP800-38C A.1
 164://MAC/Home/Downloads/getstarted-optiga-trust-m/optiga-trust-m-1/externals/mbedtls/library/ccm.c ****      * Additional requirement: a < 2^16 - 2^8 to simplify the code.
 165://MAC/Home/Downloads/getstarted-optiga-trust-m/optiga-trust-m-1/externals/mbedtls/library/ccm.c ****      * 'length' checked later (when writing it to the first block)
 166://MAC/Home/Downloads/getstarted-optiga-trust-m/optiga-trust-m-1/externals/mbedtls/library/ccm.c ****      *
 167://MAC/Home/Downloads/getstarted-optiga-trust-m/optiga-trust-m-1/externals/mbedtls/library/ccm.c ****      * Also, loosen the requirements to enable support for CCM* (IEEE 802.15.4).
 168://MAC/Home/Downloads/getstarted-optiga-trust-m/optiga-trust-m-1/externals/mbedtls/library/ccm.c ****      */
 169://MAC/Home/Downloads/getstarted-optiga-trust-m/optiga-trust-m-1/externals/mbedtls/library/ccm.c ****     if( tag_len == 2 || tag_len > 16 || tag_len % 2 != 0 )
  41              	 .loc 1 169 0
  42 0006 229B     	 ldr r3,[sp,#136]
  43              	.LVL1:
 151://MAC/Home/Downloads/getstarted-optiga-trust-m/optiga-trust-m-1/externals/mbedtls/library/ccm.c ****     int ret;
  44              	 .loc 1 151 0
  45 0008 061C     	 mov r6,r0
  46 000a 0391     	 str r1,[sp,#12]
  47 000c 0292     	 str r2,[sp,#8]
  48 000e 1E9D     	 ldr r5,[sp,#120]
  49              	 .loc 1 169 0
  50 0010 022B     	 cmp r3,#2
  51 0012 02D1     	 bne .L2
  52              	.LVL2:
  53              	.L4:
 170://MAC/Home/Downloads/getstarted-optiga-trust-m/optiga-trust-m-1/externals/mbedtls/library/ccm.c ****         return( MBEDTLS_ERR_CCM_BAD_INPUT );
  54              	 .loc 1 170 0
  55 0014 0D20     	 mov r0,#13
  56 0016 4042     	 neg r0,r0
  57 0018 4FE1     	 b .L3
  58              	.LVL3:
  59              	.L2:
 169://MAC/Home/Downloads/getstarted-optiga-trust-m/optiga-trust-m-1/externals/mbedtls/library/ccm.c ****         return( MBEDTLS_ERR_CCM_BAD_INPUT );
  60              	 .loc 1 169 0 discriminator 1
  61 001a 229B     	 ldr r3,[sp,#136]
  62 001c 102B     	 cmp r3,#16
  63 001e F9D8     	 bhi .L4
 169://MAC/Home/Downloads/getstarted-optiga-trust-m/optiga-trust-m-1/externals/mbedtls/library/ccm.c ****         return( MBEDTLS_ERR_CCM_BAD_INPUT );
  64              	 .loc 1 169 0 is_stmt 0 discriminator 2
  65 0020 DB07     	 lsl r3,r3,#31
  66 0022 F7D4     	 bmi .L4
 171://MAC/Home/Downloads/getstarted-optiga-trust-m/optiga-trust-m-1/externals/mbedtls/library/ccm.c **** 
 172://MAC/Home/Downloads/getstarted-optiga-trust-m/optiga-trust-m-1/externals/mbedtls/library/ccm.c ****     /* Also implies q is within bounds */
 173://MAC/Home/Downloads/getstarted-optiga-trust-m/optiga-trust-m-1/externals/mbedtls/library/ccm.c ****     if( iv_len < 7 || iv_len > 13 )
  67              	 .loc 1 173 0 is_stmt 1
  68 0024 1C9B     	 ldr r3,[sp,#112]
  69 0026 073B     	 sub r3,r3,#7
  70 0028 062B     	 cmp r3,#6
  71 002a F3D8     	 bhi .L4
 174://MAC/Home/Downloads/getstarted-optiga-trust-m/optiga-trust-m-1/externals/mbedtls/library/ccm.c ****         return( MBEDTLS_ERR_CCM_BAD_INPUT );
 175://MAC/Home/Downloads/getstarted-optiga-trust-m/optiga-trust-m-1/externals/mbedtls/library/ccm.c **** 
 176://MAC/Home/Downloads/getstarted-optiga-trust-m/optiga-trust-m-1/externals/mbedtls/library/ccm.c ****     if( add_len > 0xFF00 )
  72              	 .loc 1 176 0
  73 002c FF23     	 mov r3,#255
  74 002e 1B02     	 lsl r3,r3,#8
  75 0030 9D42     	 cmp r5,r3
  76 0032 EFD8     	 bhi .L4
 177://MAC/Home/Downloads/getstarted-optiga-trust-m/optiga-trust-m-1/externals/mbedtls/library/ccm.c ****         return( MBEDTLS_ERR_CCM_BAD_INPUT );
 178://MAC/Home/Downloads/getstarted-optiga-trust-m/optiga-trust-m-1/externals/mbedtls/library/ccm.c **** 
 179://MAC/Home/Downloads/getstarted-optiga-trust-m/optiga-trust-m-1/externals/mbedtls/library/ccm.c ****     q = 16 - 1 - (unsigned char) iv_len;
  77              	 .loc 1 179 0
  78 0034 1C9B     	 ldr r3,[sp,#112]
 180://MAC/Home/Downloads/getstarted-optiga-trust-m/optiga-trust-m-1/externals/mbedtls/library/ccm.c **** 
 181://MAC/Home/Downloads/getstarted-optiga-trust-m/optiga-trust-m-1/externals/mbedtls/library/ccm.c ****     /*
 182://MAC/Home/Downloads/getstarted-optiga-trust-m/optiga-trust-m-1/externals/mbedtls/library/ccm.c ****      * First block B_0:
 183://MAC/Home/Downloads/getstarted-optiga-trust-m/optiga-trust-m-1/externals/mbedtls/library/ccm.c ****      * 0        .. 0        flags
 184://MAC/Home/Downloads/getstarted-optiga-trust-m/optiga-trust-m-1/externals/mbedtls/library/ccm.c ****      * 1        .. iv_len   nonce (aka iv)
 185://MAC/Home/Downloads/getstarted-optiga-trust-m/optiga-trust-m-1/externals/mbedtls/library/ccm.c ****      * iv_len+1 .. 15       length
 186://MAC/Home/Downloads/getstarted-optiga-trust-m/optiga-trust-m-1/externals/mbedtls/library/ccm.c ****      *
 187://MAC/Home/Downloads/getstarted-optiga-trust-m/optiga-trust-m-1/externals/mbedtls/library/ccm.c ****      * With flags as (bits):
 188://MAC/Home/Downloads/getstarted-optiga-trust-m/optiga-trust-m-1/externals/mbedtls/library/ccm.c ****      * 7        0
 189://MAC/Home/Downloads/getstarted-optiga-trust-m/optiga-trust-m-1/externals/mbedtls/library/ccm.c ****      * 6        add present?
 190://MAC/Home/Downloads/getstarted-optiga-trust-m/optiga-trust-m-1/externals/mbedtls/library/ccm.c ****      * 5 .. 3   (t - 2) / 2
 191://MAC/Home/Downloads/getstarted-optiga-trust-m/optiga-trust-m-1/externals/mbedtls/library/ccm.c ****      * 2 .. 0   q - 1
 192://MAC/Home/Downloads/getstarted-optiga-trust-m/optiga-trust-m-1/externals/mbedtls/library/ccm.c ****      */
 193://MAC/Home/Downloads/getstarted-optiga-trust-m/optiga-trust-m-1/externals/mbedtls/library/ccm.c ****     b[0] = 0;
 194://MAC/Home/Downloads/getstarted-optiga-trust-m/optiga-trust-m-1/externals/mbedtls/library/ccm.c ****     b[0] |= ( add_len > 0 ) << 6;
 195://MAC/Home/Downloads/getstarted-optiga-trust-m/optiga-trust-m-1/externals/mbedtls/library/ccm.c ****     b[0] |= ( ( tag_len - 2 ) / 2 ) << 3;
 196://MAC/Home/Downloads/getstarted-optiga-trust-m/optiga-trust-m-1/externals/mbedtls/library/ccm.c ****     b[0] |= q - 1;
  79              	 .loc 1 196 0
  80 0036 0E27     	 mov r7,#14
 179://MAC/Home/Downloads/getstarted-optiga-trust-m/optiga-trust-m-1/externals/mbedtls/library/ccm.c **** 
  81              	 .loc 1 179 0
  82 0038 DAB2     	 uxtb r2,r3
  83              	.LVL4:
  84 003a 0F23     	 mov r3,#15
  85 003c 9B1A     	 sub r3,r3,r2
  86 003e DBB2     	 uxtb r3,r3
  87 0040 0793     	 str r3,[sp,#28]
  88              	.LVL5:
 194://MAC/Home/Downloads/getstarted-optiga-trust-m/optiga-trust-m-1/externals/mbedtls/library/ccm.c ****     b[0] |= ( ( tag_len - 2 ) / 2 ) << 3;
  89              	 .loc 1 194 0
  90 0042 2B1C     	 mov r3,r5
  91 0044 591E     	 sub r1,r3,#1
  92 0046 8B41     	 sbc r3,r3,r1
  93              	.LVL6:
 197://MAC/Home/Downloads/getstarted-optiga-trust-m/optiga-trust-m-1/externals/mbedtls/library/ccm.c **** 
 198://MAC/Home/Downloads/getstarted-optiga-trust-m/optiga-trust-m-1/externals/mbedtls/library/ccm.c ****     memcpy( b + 1, iv, iv_len );
  94              	 .loc 1 198 0
  95 0048 1120     	 mov r0,#17
  96              	.LVL7:
 196://MAC/Home/Downloads/getstarted-optiga-trust-m/optiga-trust-m-1/externals/mbedtls/library/ccm.c **** 
  97              	 .loc 1 196 0
  98 004a BA1A     	 sub r2,r7,r2
 194://MAC/Home/Downloads/getstarted-optiga-trust-m/optiga-trust-m-1/externals/mbedtls/library/ccm.c ****     b[0] |= ( ( tag_len - 2 ) / 2 ) << 3;
  99              	 .loc 1 194 0
 100 004c 9901     	 lsl r1,r3,#6
 196://MAC/Home/Downloads/getstarted-optiga-trust-m/optiga-trust-m-1/externals/mbedtls/library/ccm.c **** 
 101              	 .loc 1 196 0
 102 004e D3B2     	 uxtb r3,r2
 103 0050 0493     	 str r3,[sp,#16]
 195://MAC/Home/Downloads/getstarted-optiga-trust-m/optiga-trust-m-1/externals/mbedtls/library/ccm.c ****     b[0] |= q - 1;
 104              	 .loc 1 195 0
 105 0052 229B     	 ldr r3,[sp,#136]
 196://MAC/Home/Downloads/getstarted-optiga-trust-m/optiga-trust-m-1/externals/mbedtls/library/ccm.c **** 
 106              	 .loc 1 196 0
 107 0054 049A     	 ldr r2,[sp,#16]
 195://MAC/Home/Downloads/getstarted-optiga-trust-m/optiga-trust-m-1/externals/mbedtls/library/ccm.c ****     b[0] |= q - 1;
 108              	 .loc 1 195 0
 109 0056 023B     	 sub r3,r3,#2
 110 0058 5B08     	 lsr r3,r3,#1
 111 005a DB00     	 lsl r3,r3,#3
 112 005c 0B43     	 orr r3,r1
 196://MAC/Home/Downloads/getstarted-optiga-trust-m/optiga-trust-m-1/externals/mbedtls/library/ccm.c **** 
 113              	 .loc 1 196 0
 114 005e 0AAC     	 add r4,sp,#40
 115 0060 1343     	 orr r3,r2
 116 0062 2370     	 strb r3,[r4]
 117              	 .loc 1 198 0
 118 0064 06AB     	 add r3,sp,#24
 119              	.LVL8:
 120 0066 C018     	 add r0,r0,r3
 121 0068 1C9A     	 ldr r2,[sp,#112]
 122 006a 0699     	 ldr r1,[sp,#24]
 123 006c FFF7FEFF 	 bl memcpy
 124              	.LVL9:
 125 0070 1F22     	 mov r2,#31
 126 0072 06AB     	 add r3,sp,#24
 127              	.LVL10:
 128 0074 D218     	 add r2,r2,r3
 129 0076 049B     	 ldr r3,[sp,#16]
 130              	.LVL11:
 131 0078 FB1A     	 sub r3,r7,r3
 132 007a 0593     	 str r3,[sp,#20]
 133 007c E318     	 add r3,r4,r3
 199://MAC/Home/Downloads/getstarted-optiga-trust-m/optiga-trust-m-1/externals/mbedtls/library/ccm.c **** 
 200://MAC/Home/Downloads/getstarted-optiga-trust-m/optiga-trust-m-1/externals/mbedtls/library/ccm.c ****     for( i = 0, len_left = length; i < q; i++, len_left >>= 8 )
 134              	 .loc 1 200 0
 135 007e 029C     	 ldr r4,[sp,#8]
 136              	.LVL12:
 137              	.L6:
 201://MAC/Home/Downloads/getstarted-optiga-trust-m/optiga-trust-m-1/externals/mbedtls/library/ccm.c ****         b[15-i] = (unsigned char)( len_left & 0xFF );
 138              	 .loc 1 201 0 discriminator 3
 139 0080 1470     	 strb r4,[r2]
 140              	.LVL13:
 141 0082 013A     	 sub r2,r2,#1
 142              	.LVL14:
 200://MAC/Home/Downloads/getstarted-optiga-trust-m/optiga-trust-m-1/externals/mbedtls/library/ccm.c ****         b[15-i] = (unsigned char)( len_left & 0xFF );
 143              	 .loc 1 200 0 discriminator 3
 144 0084 240A     	 lsr r4,r4,#8
 145              	.LVL15:
 146 0086 9A42     	 cmp r2,r3
 147 0088 FAD1     	 bne .L6
 202://MAC/Home/Downloads/getstarted-optiga-trust-m/optiga-trust-m-1/externals/mbedtls/library/ccm.c **** 
 203://MAC/Home/Downloads/getstarted-optiga-trust-m/optiga-trust-m-1/externals/mbedtls/library/ccm.c ****     if( len_left > 0 )
 148              	 .loc 1 203 0
 149 008a 002C     	 cmp r4,#0
 150 008c C2D1     	 bne .L4
 204://MAC/Home/Downloads/getstarted-optiga-trust-m/optiga-trust-m-1/externals/mbedtls/library/ccm.c ****         return( MBEDTLS_ERR_CCM_BAD_INPUT );
 205://MAC/Home/Downloads/getstarted-optiga-trust-m/optiga-trust-m-1/externals/mbedtls/library/ccm.c **** 
 206://MAC/Home/Downloads/getstarted-optiga-trust-m/optiga-trust-m-1/externals/mbedtls/library/ccm.c **** 
 207://MAC/Home/Downloads/getstarted-optiga-trust-m/optiga-trust-m-1/externals/mbedtls/library/ccm.c ****     /* Start CBC-MAC with first block */
 208://MAC/Home/Downloads/getstarted-optiga-trust-m/optiga-trust-m-1/externals/mbedtls/library/ccm.c ****     memset( y, 0, 16 );
 151              	 .loc 1 208 0
 152 008e 0EA8     	 add r0,sp,#56
 153 0090 211C     	 mov r1,r4
 154 0092 1022     	 mov r2,#16
 155 0094 FFF7FEFF 	 bl memset
 156              	.LVL16:
 157              	.L7:
 209://MAC/Home/Downloads/getstarted-optiga-trust-m/optiga-trust-m-1/externals/mbedtls/library/ccm.c ****     UPDATE_CBC_MAC;
 158              	 .loc 1 209 0 discriminator 3
 159 0098 0EAB     	 add r3,sp,#56
 160 009a 0AAF     	 add r7,sp,#40
 161 009c E25C     	 ldrb r2,[r4,r3]
 162 009e E15D     	 ldrb r1,[r4,r7]
 163 00a0 4A40     	 eor r2,r1
 164 00a2 E254     	 strb r2,[r4,r3]
 165              	.LVL17:
 166 00a4 0134     	 add r4,r4,#1
 167              	.LVL18:
 168 00a6 102C     	 cmp r4,#16
 169 00a8 F6D1     	 bne .L7
 170              	 .loc 1 209 0 is_stmt 0 discriminator 4
 171 00aa 09AA     	 add r2,sp,#36
 172 00ac 0092     	 str r2,[sp]
 173 00ae 191C     	 mov r1,r3
 174 00b0 301C     	 mov r0,r6
 175 00b2 221C     	 mov r2,r4
 176 00b4 FFF7FEFF 	 bl mbedtls_cipher_update
 177              	.LVL19:
 178 00b8 011E     	 sub r1,r0,#0
 179              	.LVL20:
 180 00ba 00D0     	 beq .LCB179
 181 00bc FDE0     	 b .L3
 182              	.LCB179:
 210://MAC/Home/Downloads/getstarted-optiga-trust-m/optiga-trust-m-1/externals/mbedtls/library/ccm.c **** 
 211://MAC/Home/Downloads/getstarted-optiga-trust-m/optiga-trust-m-1/externals/mbedtls/library/ccm.c ****     /*
 212://MAC/Home/Downloads/getstarted-optiga-trust-m/optiga-trust-m-1/externals/mbedtls/library/ccm.c ****      * If there is additional data, update CBC-MAC with
 213://MAC/Home/Downloads/getstarted-optiga-trust-m/optiga-trust-m-1/externals/mbedtls/library/ccm.c ****      * add_len, add, 0 (padding to a block boundary)
 214://MAC/Home/Downloads/getstarted-optiga-trust-m/optiga-trust-m-1/externals/mbedtls/library/ccm.c ****      */
 215://MAC/Home/Downloads/getstarted-optiga-trust-m/optiga-trust-m-1/externals/mbedtls/library/ccm.c ****     if( add_len > 0 )
 183              	 .loc 1 215 0 is_stmt 1
 184 00be 002D     	 cmp r5,#0
 185 00c0 14D1     	 bne .L8
 186              	.L16:
 216://MAC/Home/Downloads/getstarted-optiga-trust-m/optiga-trust-m-1/externals/mbedtls/library/ccm.c ****     {
 217://MAC/Home/Downloads/getstarted-optiga-trust-m/optiga-trust-m-1/externals/mbedtls/library/ccm.c ****         size_t use_len;
 218://MAC/Home/Downloads/getstarted-optiga-trust-m/optiga-trust-m-1/externals/mbedtls/library/ccm.c ****         len_left = add_len;
 219://MAC/Home/Downloads/getstarted-optiga-trust-m/optiga-trust-m-1/externals/mbedtls/library/ccm.c ****         src = add;
 220://MAC/Home/Downloads/getstarted-optiga-trust-m/optiga-trust-m-1/externals/mbedtls/library/ccm.c **** 
 221://MAC/Home/Downloads/getstarted-optiga-trust-m/optiga-trust-m-1/externals/mbedtls/library/ccm.c ****         memset( b, 0, 16 );
 222://MAC/Home/Downloads/getstarted-optiga-trust-m/optiga-trust-m-1/externals/mbedtls/library/ccm.c ****         b[0] = (unsigned char)( ( add_len >> 8 ) & 0xFF );
 223://MAC/Home/Downloads/getstarted-optiga-trust-m/optiga-trust-m-1/externals/mbedtls/library/ccm.c ****         b[1] = (unsigned char)( ( add_len      ) & 0xFF );
 224://MAC/Home/Downloads/getstarted-optiga-trust-m/optiga-trust-m-1/externals/mbedtls/library/ccm.c **** 
 225://MAC/Home/Downloads/getstarted-optiga-trust-m/optiga-trust-m-1/externals/mbedtls/library/ccm.c ****         use_len = len_left < 16 - 2 ? len_left : 16 - 2;
 226://MAC/Home/Downloads/getstarted-optiga-trust-m/optiga-trust-m-1/externals/mbedtls/library/ccm.c ****         memcpy( b + 2, src, use_len );
 227://MAC/Home/Downloads/getstarted-optiga-trust-m/optiga-trust-m-1/externals/mbedtls/library/ccm.c ****         len_left -= use_len;
 228://MAC/Home/Downloads/getstarted-optiga-trust-m/optiga-trust-m-1/externals/mbedtls/library/ccm.c ****         src += use_len;
 229://MAC/Home/Downloads/getstarted-optiga-trust-m/optiga-trust-m-1/externals/mbedtls/library/ccm.c **** 
 230://MAC/Home/Downloads/getstarted-optiga-trust-m/optiga-trust-m-1/externals/mbedtls/library/ccm.c ****         UPDATE_CBC_MAC;
 231://MAC/Home/Downloads/getstarted-optiga-trust-m/optiga-trust-m-1/externals/mbedtls/library/ccm.c **** 
 232://MAC/Home/Downloads/getstarted-optiga-trust-m/optiga-trust-m-1/externals/mbedtls/library/ccm.c ****         while( len_left > 0 )
 233://MAC/Home/Downloads/getstarted-optiga-trust-m/optiga-trust-m-1/externals/mbedtls/library/ccm.c ****         {
 234://MAC/Home/Downloads/getstarted-optiga-trust-m/optiga-trust-m-1/externals/mbedtls/library/ccm.c ****             use_len = len_left > 16 ? 16 : len_left;
 235://MAC/Home/Downloads/getstarted-optiga-trust-m/optiga-trust-m-1/externals/mbedtls/library/ccm.c **** 
 236://MAC/Home/Downloads/getstarted-optiga-trust-m/optiga-trust-m-1/externals/mbedtls/library/ccm.c ****             memset( b, 0, 16 );
 237://MAC/Home/Downloads/getstarted-optiga-trust-m/optiga-trust-m-1/externals/mbedtls/library/ccm.c ****             memcpy( b, src, use_len );
 238://MAC/Home/Downloads/getstarted-optiga-trust-m/optiga-trust-m-1/externals/mbedtls/library/ccm.c ****             UPDATE_CBC_MAC;
 239://MAC/Home/Downloads/getstarted-optiga-trust-m/optiga-trust-m-1/externals/mbedtls/library/ccm.c **** 
 240://MAC/Home/Downloads/getstarted-optiga-trust-m/optiga-trust-m-1/externals/mbedtls/library/ccm.c ****             len_left -= use_len;
 241://MAC/Home/Downloads/getstarted-optiga-trust-m/optiga-trust-m-1/externals/mbedtls/library/ccm.c ****             src += use_len;
 242://MAC/Home/Downloads/getstarted-optiga-trust-m/optiga-trust-m-1/externals/mbedtls/library/ccm.c ****         }
 243://MAC/Home/Downloads/getstarted-optiga-trust-m/optiga-trust-m-1/externals/mbedtls/library/ccm.c ****     }
 244://MAC/Home/Downloads/getstarted-optiga-trust-m/optiga-trust-m-1/externals/mbedtls/library/ccm.c **** 
 245://MAC/Home/Downloads/getstarted-optiga-trust-m/optiga-trust-m-1/externals/mbedtls/library/ccm.c ****     /*
 246://MAC/Home/Downloads/getstarted-optiga-trust-m/optiga-trust-m-1/externals/mbedtls/library/ccm.c ****      * Prepare counter block for encryption:
 247://MAC/Home/Downloads/getstarted-optiga-trust-m/optiga-trust-m-1/externals/mbedtls/library/ccm.c ****      * 0        .. 0        flags
 248://MAC/Home/Downloads/getstarted-optiga-trust-m/optiga-trust-m-1/externals/mbedtls/library/ccm.c ****      * 1        .. iv_len   nonce (aka iv)
 249://MAC/Home/Downloads/getstarted-optiga-trust-m/optiga-trust-m-1/externals/mbedtls/library/ccm.c ****      * iv_len+1 .. 15       counter (initially 1)
 250://MAC/Home/Downloads/getstarted-optiga-trust-m/optiga-trust-m-1/externals/mbedtls/library/ccm.c ****      *
 251://MAC/Home/Downloads/getstarted-optiga-trust-m/optiga-trust-m-1/externals/mbedtls/library/ccm.c ****      * With flags as (bits):
 252://MAC/Home/Downloads/getstarted-optiga-trust-m/optiga-trust-m-1/externals/mbedtls/library/ccm.c ****      * 7 .. 3   0
 253://MAC/Home/Downloads/getstarted-optiga-trust-m/optiga-trust-m-1/externals/mbedtls/library/ccm.c ****      * 2 .. 0   q - 1
 254://MAC/Home/Downloads/getstarted-optiga-trust-m/optiga-trust-m-1/externals/mbedtls/library/ccm.c ****      */
 255://MAC/Home/Downloads/getstarted-optiga-trust-m/optiga-trust-m-1/externals/mbedtls/library/ccm.c ****     ctr[0] = q - 1;
 187              	 .loc 1 255 0
 188 00c2 6B46     	 mov r3,sp
 256://MAC/Home/Downloads/getstarted-optiga-trust-m/optiga-trust-m-1/externals/mbedtls/library/ccm.c ****     memcpy( ctr + 1, iv, iv_len );
 189              	 .loc 1 256 0
 190 00c4 3120     	 mov r0,#49
 191              	.LVL21:
 255://MAC/Home/Downloads/getstarted-optiga-trust-m/optiga-trust-m-1/externals/mbedtls/library/ccm.c ****     memcpy( ctr + 1, iv, iv_len );
 192              	 .loc 1 255 0
 193 00c6 1B7C     	 ldrb r3,[r3,#16]
 194 00c8 12AC     	 add r4,sp,#72
 195 00ca 2370     	 strb r3,[r4]
 196              	 .loc 1 256 0
 197 00cc 06AB     	 add r3,sp,#24
 198              	.LVL22:
 199 00ce C018     	 add r0,r0,r3
 200 00d0 0699     	 ldr r1,[sp,#24]
 201 00d2 1C9A     	 ldr r2,[sp,#112]
 202 00d4 FFF7FEFF 	 bl memcpy
 203              	.LVL23:
 257://MAC/Home/Downloads/getstarted-optiga-trust-m/optiga-trust-m-1/externals/mbedtls/library/ccm.c ****     memset( ctr + 1 + iv_len, 0, q );
 204              	 .loc 1 257 0
 205 00d8 1C9B     	 ldr r3,[sp,#112]
 206 00da 0021     	 mov r1,#0
 207 00dc 581C     	 add r0,r3,#1
 208 00de 2018     	 add r0,r4,r0
 209 00e0 079A     	 ldr r2,[sp,#28]
 210 00e2 FFF7FEFF 	 bl memset
 211              	.LVL24:
 258://MAC/Home/Downloads/getstarted-optiga-trust-m/optiga-trust-m-1/externals/mbedtls/library/ccm.c ****     ctr[15] = 1;
 212              	 .loc 1 258 0
 213 00e6 0123     	 mov r3,#1
 214 00e8 E373     	 strb r3,[r4,#15]
 215              	.LVL25:
 259://MAC/Home/Downloads/getstarted-optiga-trust-m/optiga-trust-m-1/externals/mbedtls/library/ccm.c **** 
 260://MAC/Home/Downloads/getstarted-optiga-trust-m/optiga-trust-m-1/externals/mbedtls/library/ccm.c ****     /*
 261://MAC/Home/Downloads/getstarted-optiga-trust-m/optiga-trust-m-1/externals/mbedtls/library/ccm.c ****      * Authenticate and {en,de}crypt the message.
 262://MAC/Home/Downloads/getstarted-optiga-trust-m/optiga-trust-m-1/externals/mbedtls/library/ccm.c ****      *
 263://MAC/Home/Downloads/getstarted-optiga-trust-m/optiga-trust-m-1/externals/mbedtls/library/ccm.c ****      * The only difference between encryption and decryption is
 264://MAC/Home/Downloads/getstarted-optiga-trust-m/optiga-trust-m-1/externals/mbedtls/library/ccm.c ****      * the respective order of authentication and {en,de}cryption.
 265://MAC/Home/Downloads/getstarted-optiga-trust-m/optiga-trust-m-1/externals/mbedtls/library/ccm.c ****      */
 266://MAC/Home/Downloads/getstarted-optiga-trust-m/optiga-trust-m-1/externals/mbedtls/library/ccm.c ****     len_left = length;
 267://MAC/Home/Downloads/getstarted-optiga-trust-m/optiga-trust-m-1/externals/mbedtls/library/ccm.c ****     src = input;
 268://MAC/Home/Downloads/getstarted-optiga-trust-m/optiga-trust-m-1/externals/mbedtls/library/ccm.c ****     dst = output;
 269://MAC/Home/Downloads/getstarted-optiga-trust-m/optiga-trust-m-1/externals/mbedtls/library/ccm.c **** 
 270://MAC/Home/Downloads/getstarted-optiga-trust-m/optiga-trust-m-1/externals/mbedtls/library/ccm.c ****     while( len_left > 0 )
 216              	 .loc 1 270 0
 217 00ea 81E0     	 b .L9
 218              	.LVL26:
 219              	.L8:
 220              	.LBB2:
 221://MAC/Home/Downloads/getstarted-optiga-trust-m/optiga-trust-m-1/externals/mbedtls/library/ccm.c ****         b[0] = (unsigned char)( ( add_len >> 8 ) & 0xFF );
 221              	 .loc 1 221 0
 222 00ec 221C     	 mov r2,r4
 223 00ee 381C     	 mov r0,r7
 224              	.LVL27:
 225 00f0 FFF7FEFF 	 bl memset
 226              	.LVL28:
 222://MAC/Home/Downloads/getstarted-optiga-trust-m/optiga-trust-m-1/externals/mbedtls/library/ccm.c ****         b[1] = (unsigned char)( ( add_len      ) & 0xFF );
 227              	 .loc 1 222 0
 228 00f4 2B0A     	 lsr r3,r5,#8
 229 00f6 3B70     	 strb r3,[r7]
 223://MAC/Home/Downloads/getstarted-optiga-trust-m/optiga-trust-m-1/externals/mbedtls/library/ccm.c **** 
 230              	 .loc 1 223 0
 231 00f8 7D70     	 strb r5,[r7,#1]
 225://MAC/Home/Downloads/getstarted-optiga-trust-m/optiga-trust-m-1/externals/mbedtls/library/ccm.c ****         memcpy( b + 2, src, use_len );
 232              	 .loc 1 225 0
 233 00fa 2C1E     	 sub r4,r5,#0
 234 00fc 0E2C     	 cmp r4,#14
 235 00fe 00D9     	 bls .L10
 236              	.LVL29:
 237 0100 0E24     	 mov r4,#14
 238              	.LVL30:
 239              	.L10:
 226://MAC/Home/Downloads/getstarted-optiga-trust-m/optiga-trust-m-1/externals/mbedtls/library/ccm.c ****         len_left -= use_len;
 240              	 .loc 1 226 0
 241 0102 1220     	 mov r0,#18
 242 0104 06AB     	 add r3,sp,#24
 243              	.LVL31:
 244 0106 221C     	 mov r2,r4
 245 0108 C018     	 add r0,r0,r3
 246 010a 1D99     	 ldr r1,[sp,#116]
 247 010c FFF7FEFF 	 bl memcpy
 248              	.LVL32:
 249 0110 0022     	 mov r2,#0
 250              	.LVL33:
 251              	.L11:
 230://MAC/Home/Downloads/getstarted-optiga-trust-m/optiga-trust-m-1/externals/mbedtls/library/ccm.c **** 
 252              	 .loc 1 230 0 discriminator 3
 253 0112 0EAB     	 add r3,sp,#56
 254 0114 0AA9     	 add r1,sp,#40
 255 0116 505C     	 ldrb r0,[r2,r1]
 256 0118 D15C     	 ldrb r1,[r2,r3]
 257 011a 4140     	 eor r1,r0
 258 011c D154     	 strb r1,[r2,r3]
 259              	.LVL34:
 260 011e 0132     	 add r2,r2,#1
 261              	.LVL35:
 262 0120 102A     	 cmp r2,#16
 263 0122 F6D1     	 bne .L11
 230://MAC/Home/Downloads/getstarted-optiga-trust-m/optiga-trust-m-1/externals/mbedtls/library/ccm.c **** 
 264              	 .loc 1 230 0 is_stmt 0 discriminator 4
 265 0124 09A9     	 add r1,sp,#36
 266 0126 0091     	 str r1,[sp]
 267 0128 301C     	 mov r0,r6
 268 012a 191C     	 mov r1,r3
 269 012c FFF7FEFF 	 bl mbedtls_cipher_update
 270              	.LVL36:
 271 0130 0028     	 cmp r0,#0
 272 0132 00D0     	 beq .LCB279
 273 0134 C1E0     	 b .L3
 274              	.LCB279:
 228://MAC/Home/Downloads/getstarted-optiga-trust-m/optiga-trust-m-1/externals/mbedtls/library/ccm.c **** 
 275              	 .loc 1 228 0 is_stmt 1
 276 0136 1D9B     	 ldr r3,[sp,#116]
 227://MAC/Home/Downloads/getstarted-optiga-trust-m/optiga-trust-m-1/externals/mbedtls/library/ccm.c ****         src += use_len;
 277              	 .loc 1 227 0
 278 0138 2D1B     	 sub r5,r5,r4
 279              	.LVL37:
 228://MAC/Home/Downloads/getstarted-optiga-trust-m/optiga-trust-m-1/externals/mbedtls/library/ccm.c **** 
 280              	 .loc 1 228 0
 281 013a 1C19     	 add r4,r3,r4
 282              	.LVL38:
 283              	.L12:
 232://MAC/Home/Downloads/getstarted-optiga-trust-m/optiga-trust-m-1/externals/mbedtls/library/ccm.c ****         {
 284              	 .loc 1 232 0
 285 013c 002D     	 cmp r5,#0
 286 013e C0D0     	 beq .L16
 234://MAC/Home/Downloads/getstarted-optiga-trust-m/optiga-trust-m-1/externals/mbedtls/library/ccm.c **** 
 287              	 .loc 1 234 0
 288 0140 2F1E     	 sub r7,r5,#0
 289 0142 102F     	 cmp r7,#16
 290 0144 00D9     	 bls .L13
 291 0146 1027     	 mov r7,#16
 292              	.L13:
 293              	.LVL39:
 236://MAC/Home/Downloads/getstarted-optiga-trust-m/optiga-trust-m-1/externals/mbedtls/library/ccm.c ****             memcpy( b, src, use_len );
 294              	 .loc 1 236 0
 295 0148 0021     	 mov r1,#0
 296 014a 1022     	 mov r2,#16
 297 014c 0AA8     	 add r0,sp,#40
 298              	.LVL40:
 299 014e FFF7FEFF 	 bl memset
 300              	.LVL41:
 237://MAC/Home/Downloads/getstarted-optiga-trust-m/optiga-trust-m-1/externals/mbedtls/library/ccm.c ****             UPDATE_CBC_MAC;
 301              	 .loc 1 237 0
 302 0152 3A1C     	 mov r2,r7
 303 0154 0AA8     	 add r0,sp,#40
 304 0156 211C     	 mov r1,r4
 305 0158 FFF7FEFF 	 bl memcpy
 306              	.LVL42:
 307 015c 0022     	 mov r2,#0
 308              	.LVL43:
 309              	.L14:
 238://MAC/Home/Downloads/getstarted-optiga-trust-m/optiga-trust-m-1/externals/mbedtls/library/ccm.c **** 
 310              	 .loc 1 238 0 discriminator 3
 311 015e 0EAB     	 add r3,sp,#56
 312 0160 0AA9     	 add r1,sp,#40
 313 0162 505C     	 ldrb r0,[r2,r1]
 314 0164 D15C     	 ldrb r1,[r2,r3]
 315 0166 4140     	 eor r1,r0
 316 0168 D154     	 strb r1,[r2,r3]
 317              	.LVL44:
 318 016a 0132     	 add r2,r2,#1
 319              	.LVL45:
 320 016c 102A     	 cmp r2,#16
 321 016e F6D1     	 bne .L14
 238://MAC/Home/Downloads/getstarted-optiga-trust-m/optiga-trust-m-1/externals/mbedtls/library/ccm.c **** 
 322              	 .loc 1 238 0 is_stmt 0 discriminator 4
 323 0170 09A9     	 add r1,sp,#36
 324 0172 0091     	 str r1,[sp]
 325 0174 301C     	 mov r0,r6
 326 0176 191C     	 mov r1,r3
 327 0178 FFF7FEFF 	 bl mbedtls_cipher_update
 328              	.LVL46:
 329 017c 0028     	 cmp r0,#0
 330 017e 00D0     	 beq .LCB343
 331 0180 9BE0     	 b .L3
 332              	.LCB343:
 240://MAC/Home/Downloads/getstarted-optiga-trust-m/optiga-trust-m-1/externals/mbedtls/library/ccm.c ****             src += use_len;
 333              	 .loc 1 240 0 is_stmt 1
 334 0182 ED1B     	 sub r5,r5,r7
 335              	.LVL47:
 241://MAC/Home/Downloads/getstarted-optiga-trust-m/optiga-trust-m-1/externals/mbedtls/library/ccm.c ****         }
 336              	 .loc 1 241 0
 337 0184 E419     	 add r4,r4,r7
 338              	.LVL48:
 339 0186 D9E7     	 b .L12
 340              	.LVL49:
 341              	.L40:
 342              	.LBE2:
 343              	.LBB3:
 271://MAC/Home/Downloads/getstarted-optiga-trust-m/optiga-trust-m-1/externals/mbedtls/library/ccm.c ****     {
 272://MAC/Home/Downloads/getstarted-optiga-trust-m/optiga-trust-m-1/externals/mbedtls/library/ccm.c ****         size_t use_len = len_left > 16 ? 16 : len_left;
 273://MAC/Home/Downloads/getstarted-optiga-trust-m/optiga-trust-m-1/externals/mbedtls/library/ccm.c **** 
 274://MAC/Home/Downloads/getstarted-optiga-trust-m/optiga-trust-m-1/externals/mbedtls/library/ccm.c ****         if( mode == CCM_ENCRYPT )
 275://MAC/Home/Downloads/getstarted-optiga-trust-m/optiga-trust-m-1/externals/mbedtls/library/ccm.c ****         {
 276://MAC/Home/Downloads/getstarted-optiga-trust-m/optiga-trust-m-1/externals/mbedtls/library/ccm.c ****             memset( b, 0, 16 );
 277://MAC/Home/Downloads/getstarted-optiga-trust-m/optiga-trust-m-1/externals/mbedtls/library/ccm.c ****             memcpy( b, src, use_len );
 278://MAC/Home/Downloads/getstarted-optiga-trust-m/optiga-trust-m-1/externals/mbedtls/library/ccm.c ****             UPDATE_CBC_MAC;
 279://MAC/Home/Downloads/getstarted-optiga-trust-m/optiga-trust-m-1/externals/mbedtls/library/ccm.c ****         }
 280://MAC/Home/Downloads/getstarted-optiga-trust-m/optiga-trust-m-1/externals/mbedtls/library/ccm.c **** 
 281://MAC/Home/Downloads/getstarted-optiga-trust-m/optiga-trust-m-1/externals/mbedtls/library/ccm.c ****         CTR_CRYPT( dst, src, use_len );
 282://MAC/Home/Downloads/getstarted-optiga-trust-m/optiga-trust-m-1/externals/mbedtls/library/ccm.c **** 
 283://MAC/Home/Downloads/getstarted-optiga-trust-m/optiga-trust-m-1/externals/mbedtls/library/ccm.c ****         if( mode == CCM_DECRYPT )
 344              	 .loc 1 283 0
 345 0188 039B     	 ldr r3,[sp,#12]
 346 018a 012B     	 cmp r3,#1
 347 018c 1BD1     	 bne .L22
 284://MAC/Home/Downloads/getstarted-optiga-trust-m/optiga-trust-m-1/externals/mbedtls/library/ccm.c ****         {
 285://MAC/Home/Downloads/getstarted-optiga-trust-m/optiga-trust-m-1/externals/mbedtls/library/ccm.c ****             memset( b, 0, 16 );
 348              	 .loc 1 285 0
 349 018e 0021     	 mov r1,#0
 350 0190 1022     	 mov r2,#16
 351 0192 0AA8     	 add r0,sp,#40
 352              	.LVL50:
 353 0194 FFF7FEFF 	 bl memset
 354              	.LVL51:
 286://MAC/Home/Downloads/getstarted-optiga-trust-m/optiga-trust-m-1/externals/mbedtls/library/ccm.c ****             memcpy( b, dst, use_len );
 355              	 .loc 1 286 0
 356 0198 221C     	 mov r2,r4
 357 019a 0AA8     	 add r0,sp,#40
 358 019c 2099     	 ldr r1,[sp,#128]
 359 019e FFF7FEFF 	 bl memcpy
 360              	.LVL52:
 361 01a2 0022     	 mov r2,#0
 362              	.LVL53:
 363              	.L23:
 287://MAC/Home/Downloads/getstarted-optiga-trust-m/optiga-trust-m-1/externals/mbedtls/library/ccm.c ****             UPDATE_CBC_MAC;
 364              	 .loc 1 287 0 discriminator 3
 365 01a4 0EAB     	 add r3,sp,#56
 366 01a6 0AA9     	 add r1,sp,#40
 367 01a8 505C     	 ldrb r0,[r2,r1]
 368 01aa D15C     	 ldrb r1,[r2,r3]
 369 01ac 4140     	 eor r1,r0
 370 01ae D154     	 strb r1,[r2,r3]
 371              	.LVL54:
 372 01b0 0132     	 add r2,r2,#1
 373              	.LVL55:
 374 01b2 102A     	 cmp r2,#16
 375 01b4 F6D1     	 bne .L23
 376              	 .loc 1 287 0 is_stmt 0 discriminator 4
 377 01b6 09A9     	 add r1,sp,#36
 378 01b8 0091     	 str r1,[sp]
 379 01ba 301C     	 mov r0,r6
 380 01bc 191C     	 mov r1,r3
 381 01be FFF7FEFF 	 bl mbedtls_cipher_update
 382              	.LVL56:
 383 01c2 0028     	 cmp r0,#0
 384 01c4 79D1     	 bne .L3
 385              	.LVL57:
 386              	.L22:
 387 01c6 3F22     	 mov r2,#63
 288://MAC/Home/Downloads/getstarted-optiga-trust-m/optiga-trust-m-1/externals/mbedtls/library/ccm.c ****         }
 289://MAC/Home/Downloads/getstarted-optiga-trust-m/optiga-trust-m-1/externals/mbedtls/library/ccm.c **** 
 290://MAC/Home/Downloads/getstarted-optiga-trust-m/optiga-trust-m-1/externals/mbedtls/library/ccm.c ****         dst += use_len;
 388              	 .loc 1 290 0 is_stmt 1
 389 01c8 209B     	 ldr r3,[sp,#128]
 390 01ca 0599     	 ldr r1,[sp,#20]
 391 01cc 1B19     	 add r3,r3,r4
 392 01ce 2093     	 str r3,[sp,#128]
 393              	.LVL58:
 291://MAC/Home/Downloads/getstarted-optiga-trust-m/optiga-trust-m-1/externals/mbedtls/library/ccm.c ****         src += use_len;
 394              	 .loc 1 291 0
 395 01d0 1F9B     	 ldr r3,[sp,#124]
 396              	.LVL59:
 397 01d2 1B19     	 add r3,r3,r4
 398 01d4 1F93     	 str r3,[sp,#124]
 399              	.LVL60:
 292://MAC/Home/Downloads/getstarted-optiga-trust-m/optiga-trust-m-1/externals/mbedtls/library/ccm.c ****         len_left -= use_len;
 400              	 .loc 1 292 0
 401 01d6 029B     	 ldr r3,[sp,#8]
 402              	.LVL61:
 403 01d8 1B1B     	 sub r3,r3,r4
 404 01da 0293     	 str r3,[sp,#8]
 405              	.LVL62:
 406 01dc 06AB     	 add r3,sp,#24
 407              	.LVL63:
 408 01de D218     	 add r2,r2,r3
 409 01e0 12AB     	 add r3,sp,#72
 410              	.LVL64:
 411 01e2 5918     	 add r1,r3,r1
 412              	.LVL65:
 413              	.L25:
 293://MAC/Home/Downloads/getstarted-optiga-trust-m/optiga-trust-m-1/externals/mbedtls/library/ccm.c **** 
 294://MAC/Home/Downloads/getstarted-optiga-trust-m/optiga-trust-m-1/externals/mbedtls/library/ccm.c ****         /*
 295://MAC/Home/Downloads/getstarted-optiga-trust-m/optiga-trust-m-1/externals/mbedtls/library/ccm.c ****          * Increment counter.
 296://MAC/Home/Downloads/getstarted-optiga-trust-m/optiga-trust-m-1/externals/mbedtls/library/ccm.c ****          * No need to check for overflow thanks to the length check above.
 297://MAC/Home/Downloads/getstarted-optiga-trust-m/optiga-trust-m-1/externals/mbedtls/library/ccm.c ****          */
 298://MAC/Home/Downloads/getstarted-optiga-trust-m/optiga-trust-m-1/externals/mbedtls/library/ccm.c ****         for( i = 0; i < q; i++ )
 299://MAC/Home/Downloads/getstarted-optiga-trust-m/optiga-trust-m-1/externals/mbedtls/library/ccm.c ****             if( ++ctr[15-i] != 0 )
 414              	 .loc 1 299 0
 415 01e4 1378     	 ldrb r3,[r2]
 416 01e6 0133     	 add r3,r3,#1
 417 01e8 DBB2     	 uxtb r3,r3
 418 01ea 1370     	 strb r3,[r2]
 419 01ec 002B     	 cmp r3,#0
 420 01ee 3BD0     	 beq .L38
 421              	.LVL66:
 422              	.L9:
 423              	.LBE3:
 270://MAC/Home/Downloads/getstarted-optiga-trust-m/optiga-trust-m-1/externals/mbedtls/library/ccm.c ****     {
 424              	 .loc 1 270 0
 425 01f0 029B     	 ldr r3,[sp,#8]
 426 01f2 002B     	 cmp r3,#0
 427 01f4 3CD0     	 beq .L39
 428              	.LBB4:
 272://MAC/Home/Downloads/getstarted-optiga-trust-m/optiga-trust-m-1/externals/mbedtls/library/ccm.c **** 
 429              	 .loc 1 272 0
 430 01f6 029C     	 ldr r4,[sp,#8]
 431 01f8 102C     	 cmp r4,#16
 432 01fa 00D9     	 bls .L17
 433 01fc 1024     	 mov r4,#16
 434              	.L17:
 435              	.LVL67:
 274://MAC/Home/Downloads/getstarted-optiga-trust-m/optiga-trust-m-1/externals/mbedtls/library/ccm.c ****         {
 436              	 .loc 1 274 0
 437 01fe 039B     	 ldr r3,[sp,#12]
 438 0200 002B     	 cmp r3,#0
 439 0202 1BD1     	 bne .L18
 276://MAC/Home/Downloads/getstarted-optiga-trust-m/optiga-trust-m-1/externals/mbedtls/library/ccm.c ****             memcpy( b, src, use_len );
 440              	 .loc 1 276 0
 441 0204 191C     	 mov r1,r3
 442 0206 1022     	 mov r2,#16
 443 0208 0AA8     	 add r0,sp,#40
 444 020a FFF7FEFF 	 bl memset
 445              	.LVL68:
 277://MAC/Home/Downloads/getstarted-optiga-trust-m/optiga-trust-m-1/externals/mbedtls/library/ccm.c ****             UPDATE_CBC_MAC;
 446              	 .loc 1 277 0
 447 020e 221C     	 mov r2,r4
 448 0210 0AA8     	 add r0,sp,#40
 449 0212 1F99     	 ldr r1,[sp,#124]
 450 0214 FFF7FEFF 	 bl memcpy
 451              	.LVL69:
 452 0218 039A     	 ldr r2,[sp,#12]
 453              	.LVL70:
 454              	.L19:
 278://MAC/Home/Downloads/getstarted-optiga-trust-m/optiga-trust-m-1/externals/mbedtls/library/ccm.c ****         }
 455              	 .loc 1 278 0 discriminator 3
 456 021a 0EAB     	 add r3,sp,#56
 457 021c 0AA9     	 add r1,sp,#40
 458 021e 505C     	 ldrb r0,[r2,r1]
 459 0220 D15C     	 ldrb r1,[r2,r3]
 460 0222 4140     	 eor r1,r0
 461 0224 D154     	 strb r1,[r2,r3]
 462              	.LVL71:
 463 0226 0132     	 add r2,r2,#1
 464              	.LVL72:
 465 0228 102A     	 cmp r2,#16
 466 022a F6D1     	 bne .L19
 278://MAC/Home/Downloads/getstarted-optiga-trust-m/optiga-trust-m-1/externals/mbedtls/library/ccm.c ****         }
 467              	 .loc 1 278 0 is_stmt 0 discriminator 4
 468 022c 09A9     	 add r1,sp,#36
 469 022e 0091     	 str r1,[sp]
 470 0230 301C     	 mov r0,r6
 471 0232 191C     	 mov r1,r3
 472 0234 FFF7FEFF 	 bl mbedtls_cipher_update
 473              	.LVL73:
 474 0238 0028     	 cmp r0,#0
 475 023a 3ED1     	 bne .L3
 476              	.LVL74:
 477              	.L18:
 281://MAC/Home/Downloads/getstarted-optiga-trust-m/optiga-trust-m-1/externals/mbedtls/library/ccm.c **** 
 478              	 .loc 1 281 0 is_stmt 1
 479 023c 09AB     	 add r3,sp,#36
 480 023e 0093     	 str r3,[sp]
 481 0240 301C     	 mov r0,r6
 482 0242 12A9     	 add r1,sp,#72
 483 0244 1022     	 mov r2,#16
 484 0246 0AAB     	 add r3,sp,#40
 485 0248 FFF7FEFF 	 bl mbedtls_cipher_update
 486              	.LVL75:
 487 024c 0028     	 cmp r0,#0
 488 024e 34D1     	 bne .L3
 489              	.LVL76:
 490              	.L20:
 281://MAC/Home/Downloads/getstarted-optiga-trust-m/optiga-trust-m-1/externals/mbedtls/library/ccm.c **** 
 491              	 .loc 1 281 0 is_stmt 0 discriminator 3
 492 0250 A042     	 cmp r0,r4
 493 0252 99D2     	 bcs .L40
 281://MAC/Home/Downloads/getstarted-optiga-trust-m/optiga-trust-m-1/externals/mbedtls/library/ccm.c **** 
 494              	 .loc 1 281 0 discriminator 5
 495 0254 1F9B     	 ldr r3,[sp,#124]
 496 0256 1A5C     	 ldrb r2,[r3,r0]
 497 0258 0AAB     	 add r3,sp,#40
 498 025a 1B5C     	 ldrb r3,[r3,r0]
 499 025c 5340     	 eor r3,r2
 500 025e 209A     	 ldr r2,[sp,#128]
 501 0260 1354     	 strb r3,[r2,r0]
 502 0262 0130     	 add r0,r0,#1
 503              	.LVL77:
 504 0264 C0B2     	 uxtb r0,r0
 505              	.LVL78:
 506 0266 F3E7     	 b .L20
 507              	.LVL79:
 508              	.L38:
 509 0268 013A     	 sub r2,r2,#1
 510              	.LVL80:
 298://MAC/Home/Downloads/getstarted-optiga-trust-m/optiga-trust-m-1/externals/mbedtls/library/ccm.c ****             if( ++ctr[15-i] != 0 )
 511              	 .loc 1 298 0 is_stmt 1 discriminator 2
 512 026a 8A42     	 cmp r2,r1
 513 026c BAD1     	 bne .L25
 514 026e BFE7     	 b .L9
 515              	.LVL81:
 516              	.L39:
 517 0270 12A9     	 add r1,sp,#72
 518 0272 8C46     	 mov ip,r1
 519 0274 06AA     	 add r2,sp,#24
 520              	.LVL82:
 521 0276 3F33     	 add r3,r3,#63
 522              	.LVL83:
 523 0278 9B18     	 add r3,r3,r2
 524 027a 059A     	 ldr r2,[sp,#20]
 525              	.LVL84:
 526 027c 6244     	 add r2,r2,ip
 527 027e 171C     	 mov r7,r2
 528              	.L27:
 529              	.LVL85:
 530              	.LBE4:
 300://MAC/Home/Downloads/getstarted-optiga-trust-m/optiga-trust-m-1/externals/mbedtls/library/ccm.c ****                 break;
 301://MAC/Home/Downloads/getstarted-optiga-trust-m/optiga-trust-m-1/externals/mbedtls/library/ccm.c ****     }
 302://MAC/Home/Downloads/getstarted-optiga-trust-m/optiga-trust-m-1/externals/mbedtls/library/ccm.c **** 
 303://MAC/Home/Downloads/getstarted-optiga-trust-m/optiga-trust-m-1/externals/mbedtls/library/ccm.c ****     /*
 304://MAC/Home/Downloads/getstarted-optiga-trust-m/optiga-trust-m-1/externals/mbedtls/library/ccm.c ****      * Authentication: reset counter and crypt/mask internal tag
 305://MAC/Home/Downloads/getstarted-optiga-trust-m/optiga-trust-m-1/externals/mbedtls/library/ccm.c ****      */
 306://MAC/Home/Downloads/getstarted-optiga-trust-m/optiga-trust-m-1/externals/mbedtls/library/ccm.c ****     for( i = 0; i < q; i++ )
 307://MAC/Home/Downloads/getstarted-optiga-trust-m/optiga-trust-m-1/externals/mbedtls/library/ccm.c ****         ctr[15-i] = 0;
 531              	 .loc 1 307 0 discriminator 3
 532 0280 0022     	 mov r2,#0
 533 0282 013B     	 sub r3,r3,#1
 534              	.LVL86:
 535 0284 5A70     	 strb r2,[r3,#1]
 306://MAC/Home/Downloads/getstarted-optiga-trust-m/optiga-trust-m-1/externals/mbedtls/library/ccm.c ****         ctr[15-i] = 0;
 536              	 .loc 1 306 0 discriminator 3
 537 0286 BB42     	 cmp r3,r7
 538 0288 FAD1     	 bne .L27
 308://MAC/Home/Downloads/getstarted-optiga-trust-m/optiga-trust-m-1/externals/mbedtls/library/ccm.c **** 
 309://MAC/Home/Downloads/getstarted-optiga-trust-m/optiga-trust-m-1/externals/mbedtls/library/ccm.c ****     CTR_CRYPT( y, y, 16 );
 539              	 .loc 1 309 0
 540 028a 09AB     	 add r3,sp,#36
 541 028c 0AAC     	 add r4,sp,#40
 542 028e 0093     	 str r3,[sp]
 543 0290 301C     	 mov r0,r6
 544 0292 231C     	 mov r3,r4
 545 0294 12A9     	 add r1,sp,#72
 546 0296 1032     	 add r2,r2,#16
 547 0298 FFF7FEFF 	 bl mbedtls_cipher_update
 548              	.LVL87:
 549 029c 031E     	 sub r3,r0,#0
 550              	.LVL88:
 551 029e 0CD1     	 bne .L3
 552              	.LVL89:
 553              	.L28:
 554              	 .loc 1 309 0 is_stmt 0 discriminator 5
 555 02a0 0EA9     	 add r1,sp,#56
 556 02a2 435C     	 ldrb r3,[r0,r1]
 557 02a4 225C     	 ldrb r2,[r4,r0]
 558 02a6 5340     	 eor r3,r2
 559 02a8 4354     	 strb r3,[r0,r1]
 560              	.LVL90:
 561 02aa 0130     	 add r0,r0,#1
 562              	.LVL91:
 563 02ac 1028     	 cmp r0,#16
 564 02ae F7D1     	 bne .L28
 310://MAC/Home/Downloads/getstarted-optiga-trust-m/optiga-trust-m-1/externals/mbedtls/library/ccm.c ****     memcpy( tag, y, tag_len );
 565              	 .loc 1 310 0 is_stmt 1
 566 02b0 2198     	 ldr r0,[sp,#132]
 567 02b2 229A     	 ldr r2,[sp,#136]
 568 02b4 FFF7FEFF 	 bl memcpy
 569              	.LVL92:
 311://MAC/Home/Downloads/getstarted-optiga-trust-m/optiga-trust-m-1/externals/mbedtls/library/ccm.c **** 
 312://MAC/Home/Downloads/getstarted-optiga-trust-m/optiga-trust-m-1/externals/mbedtls/library/ccm.c ****     return( 0 );
 570              	 .loc 1 312 0
 571 02b8 0020     	 mov r0,#0
 572              	.LVL93:
 573              	.L3:
 313://MAC/Home/Downloads/getstarted-optiga-trust-m/optiga-trust-m-1/externals/mbedtls/library/ccm.c **** }
 574              	 .loc 1 313 0
 575 02ba 17B0     	 add sp,sp,#92
 576              	 
 577              	.LVL94:
 578 02bc F0BD     	 pop {r4,r5,r6,r7,pc}
 579              	 .cfi_endproc
 580              	.LFE10:
 582              	 .section .text.mbedtls_ccm_init,"ax",%progbits
 583              	 .align 1
 584              	 .global mbedtls_ccm_init
 585              	 .code 16
 586              	 .thumb_func
 588              	mbedtls_ccm_init:
 589              	.LFB7:
  67://MAC/Home/Downloads/getstarted-optiga-trust-m/optiga-trust-m-1/externals/mbedtls/library/ccm.c ****     CCM_VALIDATE( ctx != NULL );
 590              	 .loc 1 67 0
 591              	 .cfi_startproc
 592              	.LVL95:
 593 0000 08B5     	 push {r3,lr}
 594              	.LCFI2:
 595              	 .cfi_def_cfa_offset 8
 596              	 .cfi_offset 3,-8
 597              	 .cfi_offset 14,-4
  69://MAC/Home/Downloads/getstarted-optiga-trust-m/optiga-trust-m-1/externals/mbedtls/library/ccm.c **** }
 598              	 .loc 1 69 0
 599 0002 0021     	 mov r1,#0
 600 0004 3822     	 mov r2,#56
 601 0006 FFF7FEFF 	 bl memset
 602              	.LVL96:
  70://MAC/Home/Downloads/getstarted-optiga-trust-m/optiga-trust-m-1/externals/mbedtls/library/ccm.c **** 
 603              	 .loc 1 70 0
 604              	 
 605 000a 08BD     	 pop {r3,pc}
 606              	 .cfi_endproc
 607              	.LFE7:
 609              	 .section .text.mbedtls_ccm_setkey,"ax",%progbits
 610              	 .align 1
 611              	 .global mbedtls_ccm_setkey
 612              	 .code 16
 613              	 .thumb_func
 615              	mbedtls_ccm_setkey:
 616              	.LFB8:
  76://MAC/Home/Downloads/getstarted-optiga-trust-m/optiga-trust-m-1/externals/mbedtls/library/ccm.c ****     int ret;
 617              	 .loc 1 76 0
 618              	 .cfi_startproc
 619              	.LVL97:
 620 0000 F8B5     	 push {r3,r4,r5,r6,r7,lr}
 621              	.LCFI3:
 622              	 .cfi_def_cfa_offset 24
 623              	 .cfi_offset 3,-24
 624              	 .cfi_offset 4,-20
 625              	 .cfi_offset 5,-16
 626              	 .cfi_offset 6,-12
 627              	 .cfi_offset 7,-8
 628              	 .cfi_offset 14,-4
  76://MAC/Home/Downloads/getstarted-optiga-trust-m/optiga-trust-m-1/externals/mbedtls/library/ccm.c ****     int ret;
 629              	 .loc 1 76 0
 630 0002 041C     	 mov r4,r0
 631 0004 161C     	 mov r6,r2
  83://MAC/Home/Downloads/getstarted-optiga-trust-m/optiga-trust-m-1/externals/mbedtls/library/ccm.c ****     if( cipher_info == NULL )
 632              	 .loc 1 83 0
 633 0006 081C     	 mov r0,r1
 634              	.LVL98:
 635 0008 0122     	 mov r2,#1
 636              	.LVL99:
 637 000a 191C     	 mov r1,r3
 638              	.LVL100:
  76://MAC/Home/Downloads/getstarted-optiga-trust-m/optiga-trust-m-1/externals/mbedtls/library/ccm.c ****     int ret;
 639              	 .loc 1 76 0
 640 000c 1D1C     	 mov r5,r3
  83://MAC/Home/Downloads/getstarted-optiga-trust-m/optiga-trust-m-1/externals/mbedtls/library/ccm.c ****     if( cipher_info == NULL )
 641              	 .loc 1 83 0
 642 000e FFF7FEFF 	 bl mbedtls_cipher_info_from_values
 643              	.LVL101:
 644 0012 071E     	 sub r7,r0,#0
 645              	.LVL102:
  84://MAC/Home/Downloads/getstarted-optiga-trust-m/optiga-trust-m-1/externals/mbedtls/library/ccm.c ****         return( MBEDTLS_ERR_CCM_BAD_INPUT );
 646              	 .loc 1 84 0
 647 0014 12D0     	 beq .L45
  87://MAC/Home/Downloads/getstarted-optiga-trust-m/optiga-trust-m-1/externals/mbedtls/library/ccm.c ****         return( MBEDTLS_ERR_CCM_BAD_INPUT );
 648              	 .loc 1 87 0
 649 0016 4369     	 ldr r3,[r0,#20]
 650 0018 102B     	 cmp r3,#16
 651 001a 0FD1     	 bne .L45
  90://MAC/Home/Downloads/getstarted-optiga-trust-m/optiga-trust-m-1/externals/mbedtls/library/ccm.c **** 
 652              	 .loc 1 90 0
 653 001c 201C     	 mov r0,r4
 654              	.LVL103:
 655 001e FFF7FEFF 	 bl mbedtls_cipher_free
 656              	.LVL104:
  92://MAC/Home/Downloads/getstarted-optiga-trust-m/optiga-trust-m-1/externals/mbedtls/library/ccm.c ****         return( ret );
 657              	 .loc 1 92 0
 658 0022 201C     	 mov r0,r4
 659 0024 391C     	 mov r1,r7
 660 0026 FFF7FEFF 	 bl mbedtls_cipher_setup
 661              	.LVL105:
 662 002a 0028     	 cmp r0,#0
 663 002c 08D1     	 bne .L43
  95://MAC/Home/Downloads/getstarted-optiga-trust-m/optiga-trust-m-1/externals/mbedtls/library/ccm.c ****                                MBEDTLS_ENCRYPT ) ) != 0 )
 664              	 .loc 1 95 0
 665 002e 201C     	 mov r0,r4
 666              	.LVL106:
 667 0030 311C     	 mov r1,r6
 668 0032 2A1C     	 mov r2,r5
 669 0034 0123     	 mov r3,#1
 670 0036 FFF7FEFF 	 bl mbedtls_cipher_setkey
 671              	.LVL107:
 672 003a 01E0     	 b .L43
 673              	.LVL108:
 674              	.L45:
  85://MAC/Home/Downloads/getstarted-optiga-trust-m/optiga-trust-m-1/externals/mbedtls/library/ccm.c **** 
 675              	 .loc 1 85 0
 676 003c 0D20     	 mov r0,#13
 677              	.LVL109:
 678 003e 4042     	 neg r0,r0
 679              	.L43:
 102://MAC/Home/Downloads/getstarted-optiga-trust-m/optiga-trust-m-1/externals/mbedtls/library/ccm.c **** 
 680              	 .loc 1 102 0
 681              	 
 682              	.LVL110:
 683              	.LVL111:
 684              	.LVL112:
 685              	.LVL113:
 686 0040 F8BD     	 pop {r3,r4,r5,r6,r7,pc}
 687              	 .cfi_endproc
 688              	.LFE8:
 690              	 .section .text.mbedtls_ccm_free,"ax",%progbits
 691              	 .align 1
 692              	 .global mbedtls_ccm_free
 693              	 .code 16
 694              	 .thumb_func
 696              	mbedtls_ccm_free:
 697              	.LFB9:
 108://MAC/Home/Downloads/getstarted-optiga-trust-m/optiga-trust-m-1/externals/mbedtls/library/ccm.c ****     if( ctx == NULL )
 698              	 .loc 1 108 0
 699              	 .cfi_startproc
 700              	.LVL114:
 701 0000 10B5     	 push {r4,lr}
 702              	.LCFI4:
 703              	 .cfi_def_cfa_offset 8
 704              	 .cfi_offset 4,-8
 705              	 .cfi_offset 14,-4
 109://MAC/Home/Downloads/getstarted-optiga-trust-m/optiga-trust-m-1/externals/mbedtls/library/ccm.c ****         return;
 706              	 .loc 1 109 0
 707 0002 0028     	 cmp r0,#0
 708 0004 06D0     	 beq .L47
 709 0006 041C     	 mov r4,r0
 111://MAC/Home/Downloads/getstarted-optiga-trust-m/optiga-trust-m-1/externals/mbedtls/library/ccm.c ****     mbedtls_platform_zeroize( ctx, sizeof( mbedtls_ccm_context ) );
 710              	 .loc 1 111 0
 711 0008 FFF7FEFF 	 bl mbedtls_cipher_free
 712              	.LVL115:
 112://MAC/Home/Downloads/getstarted-optiga-trust-m/optiga-trust-m-1/externals/mbedtls/library/ccm.c **** }
 713              	 .loc 1 112 0
 714 000c 201C     	 mov r0,r4
 715 000e 3821     	 mov r1,#56
 716 0010 FFF7FEFF 	 bl mbedtls_platform_zeroize
 717              	.LVL116:
 718              	.L47:
 113://MAC/Home/Downloads/getstarted-optiga-trust-m/optiga-trust-m-1/externals/mbedtls/library/ccm.c **** 
 719              	 .loc 1 113 0
 720              	 
 721 0014 10BD     	 pop {r4,pc}
 722              	 .cfi_endproc
 723              	.LFE9:
 725              	 .section .text.mbedtls_ccm_star_encrypt_and_tag,"ax",%progbits
 726              	 .align 1
 727              	 .global mbedtls_ccm_star_encrypt_and_tag
 728              	 .code 16
 729              	 .thumb_func
 731              	mbedtls_ccm_star_encrypt_and_tag:
 732              	.LFB11:
 314://MAC/Home/Downloads/getstarted-optiga-trust-m/optiga-trust-m-1/externals/mbedtls/library/ccm.c **** 
 315://MAC/Home/Downloads/getstarted-optiga-trust-m/optiga-trust-m-1/externals/mbedtls/library/ccm.c **** /*
 316://MAC/Home/Downloads/getstarted-optiga-trust-m/optiga-trust-m-1/externals/mbedtls/library/ccm.c ****  * Authenticated encryption
 317://MAC/Home/Downloads/getstarted-optiga-trust-m/optiga-trust-m-1/externals/mbedtls/library/ccm.c ****  */
 318://MAC/Home/Downloads/getstarted-optiga-trust-m/optiga-trust-m-1/externals/mbedtls/library/ccm.c **** int mbedtls_ccm_star_encrypt_and_tag( mbedtls_ccm_context *ctx, size_t length,
 319://MAC/Home/Downloads/getstarted-optiga-trust-m/optiga-trust-m-1/externals/mbedtls/library/ccm.c ****                          const unsigned char *iv, size_t iv_len,
 320://MAC/Home/Downloads/getstarted-optiga-trust-m/optiga-trust-m-1/externals/mbedtls/library/ccm.c ****                          const unsigned char *add, size_t add_len,
 321://MAC/Home/Downloads/getstarted-optiga-trust-m/optiga-trust-m-1/externals/mbedtls/library/ccm.c ****                          const unsigned char *input, unsigned char *output,
 322://MAC/Home/Downloads/getstarted-optiga-trust-m/optiga-trust-m-1/externals/mbedtls/library/ccm.c ****                          unsigned char *tag, size_t tag_len )
 323://MAC/Home/Downloads/getstarted-optiga-trust-m/optiga-trust-m-1/externals/mbedtls/library/ccm.c **** {
 733              	 .loc 1 323 0
 734              	 .cfi_startproc
 735              	.LVL117:
 736 0000 30B5     	 push {r4,r5,lr}
 737              	.LCFI5:
 738              	 .cfi_def_cfa_offset 12
 739              	 .cfi_offset 4,-12
 740              	 .cfi_offset 5,-8
 741              	 .cfi_offset 14,-4
 742 0002 0D1C     	 mov r5,r1
 743 0004 141C     	 mov r4,r2
 744 0006 89B0     	 sub sp,sp,#36
 745              	.LCFI6:
 746              	 .cfi_def_cfa_offset 48
 324://MAC/Home/Downloads/getstarted-optiga-trust-m/optiga-trust-m-1/externals/mbedtls/library/ccm.c ****     CCM_VALIDATE_RET( ctx != NULL );
 325://MAC/Home/Downloads/getstarted-optiga-trust-m/optiga-trust-m-1/externals/mbedtls/library/ccm.c ****     CCM_VALIDATE_RET( iv != NULL );
 326://MAC/Home/Downloads/getstarted-optiga-trust-m/optiga-trust-m-1/externals/mbedtls/library/ccm.c ****     CCM_VALIDATE_RET( add_len == 0 || add != NULL );
 327://MAC/Home/Downloads/getstarted-optiga-trust-m/optiga-trust-m-1/externals/mbedtls/library/ccm.c ****     CCM_VALIDATE_RET( length == 0 || input != NULL );
 328://MAC/Home/Downloads/getstarted-optiga-trust-m/optiga-trust-m-1/externals/mbedtls/library/ccm.c ****     CCM_VALIDATE_RET( length == 0 || output != NULL );
 329://MAC/Home/Downloads/getstarted-optiga-trust-m/optiga-trust-m-1/externals/mbedtls/library/ccm.c ****     CCM_VALIDATE_RET( tag_len == 0 || tag != NULL );
 330://MAC/Home/Downloads/getstarted-optiga-trust-m/optiga-trust-m-1/externals/mbedtls/library/ccm.c ****     return( ccm_auth_crypt( ctx, CCM_ENCRYPT, length, iv, iv_len,
 747              	 .loc 1 330 0
 748 0008 0093     	 str r3,[sp]
 749 000a 0C9B     	 ldr r3,[sp,#48]
 750              	.LVL118:
 751 000c 0021     	 mov r1,#0
 752              	.LVL119:
 753 000e 0193     	 str r3,[sp,#4]
 754 0010 0D9B     	 ldr r3,[sp,#52]
 755 0012 2A1C     	 mov r2,r5
 756              	.LVL120:
 757 0014 0293     	 str r3,[sp,#8]
 758 0016 0E9B     	 ldr r3,[sp,#56]
 759 0018 0393     	 str r3,[sp,#12]
 760 001a 0F9B     	 ldr r3,[sp,#60]
 761 001c 0493     	 str r3,[sp,#16]
 762 001e 109B     	 ldr r3,[sp,#64]
 763 0020 0593     	 str r3,[sp,#20]
 764 0022 119B     	 ldr r3,[sp,#68]
 765 0024 0693     	 str r3,[sp,#24]
 766 0026 231C     	 mov r3,r4
 767 0028 FFF7FEFF 	 bl ccm_auth_crypt
 768              	.LVL121:
 331://MAC/Home/Downloads/getstarted-optiga-trust-m/optiga-trust-m-1/externals/mbedtls/library/ccm.c ****                             add, add_len, input, output, tag, tag_len ) );
 332://MAC/Home/Downloads/getstarted-optiga-trust-m/optiga-trust-m-1/externals/mbedtls/library/ccm.c **** }
 769              	 .loc 1 332 0
 770 002c 09B0     	 add sp,sp,#36
 771              	 
 772              	.LVL122:
 773              	.LVL123:
 774 002e 30BD     	 pop {r4,r5,pc}
 775              	 .cfi_endproc
 776              	.LFE11:
 778              	 .section .text.mbedtls_ccm_encrypt_and_tag,"ax",%progbits
 779              	 .align 1
 780              	 .global mbedtls_ccm_encrypt_and_tag
 781              	 .code 16
 782              	 .thumb_func
 784              	mbedtls_ccm_encrypt_and_tag:
 785              	.LFB12:
 333://MAC/Home/Downloads/getstarted-optiga-trust-m/optiga-trust-m-1/externals/mbedtls/library/ccm.c **** 
 334://MAC/Home/Downloads/getstarted-optiga-trust-m/optiga-trust-m-1/externals/mbedtls/library/ccm.c **** int mbedtls_ccm_encrypt_and_tag( mbedtls_ccm_context *ctx, size_t length,
 335://MAC/Home/Downloads/getstarted-optiga-trust-m/optiga-trust-m-1/externals/mbedtls/library/ccm.c ****                          const unsigned char *iv, size_t iv_len,
 336://MAC/Home/Downloads/getstarted-optiga-trust-m/optiga-trust-m-1/externals/mbedtls/library/ccm.c ****                          const unsigned char *add, size_t add_len,
 337://MAC/Home/Downloads/getstarted-optiga-trust-m/optiga-trust-m-1/externals/mbedtls/library/ccm.c ****                          const unsigned char *input, unsigned char *output,
 338://MAC/Home/Downloads/getstarted-optiga-trust-m/optiga-trust-m-1/externals/mbedtls/library/ccm.c ****                          unsigned char *tag, size_t tag_len )
 339://MAC/Home/Downloads/getstarted-optiga-trust-m/optiga-trust-m-1/externals/mbedtls/library/ccm.c **** {
 786              	 .loc 1 339 0
 787              	 .cfi_startproc
 788              	.LVL124:
 789 0000 30B5     	 push {r4,r5,lr}
 790              	.LCFI7:
 791              	 .cfi_def_cfa_offset 12
 792              	 .cfi_offset 4,-12
 793              	 .cfi_offset 5,-8
 794              	 .cfi_offset 14,-4
 795 0002 87B0     	 sub sp,sp,#28
 796              	.LCFI8:
 797              	 .cfi_def_cfa_offset 40
 798              	 .loc 1 339 0
 799 0004 0F9C     	 ldr r4,[sp,#60]
 340://MAC/Home/Downloads/getstarted-optiga-trust-m/optiga-trust-m-1/externals/mbedtls/library/ccm.c ****     CCM_VALIDATE_RET( ctx != NULL );
 341://MAC/Home/Downloads/getstarted-optiga-trust-m/optiga-trust-m-1/externals/mbedtls/library/ccm.c ****     CCM_VALIDATE_RET( iv != NULL );
 342://MAC/Home/Downloads/getstarted-optiga-trust-m/optiga-trust-m-1/externals/mbedtls/library/ccm.c ****     CCM_VALIDATE_RET( add_len == 0 || add != NULL );
 343://MAC/Home/Downloads/getstarted-optiga-trust-m/optiga-trust-m-1/externals/mbedtls/library/ccm.c ****     CCM_VALIDATE_RET( length == 0 || input != NULL );
 344://MAC/Home/Downloads/getstarted-optiga-trust-m/optiga-trust-m-1/externals/mbedtls/library/ccm.c ****     CCM_VALIDATE_RET( length == 0 || output != NULL );
 345://MAC/Home/Downloads/getstarted-optiga-trust-m/optiga-trust-m-1/externals/mbedtls/library/ccm.c ****     CCM_VALIDATE_RET( tag_len == 0 || tag != NULL );
 346://MAC/Home/Downloads/getstarted-optiga-trust-m/optiga-trust-m-1/externals/mbedtls/library/ccm.c ****     if( tag_len == 0 )
 800              	 .loc 1 346 0
 801 0006 002C     	 cmp r4,#0
 802 0008 0DD0     	 beq .L55
 347://MAC/Home/Downloads/getstarted-optiga-trust-m/optiga-trust-m-1/externals/mbedtls/library/ccm.c ****         return( MBEDTLS_ERR_CCM_BAD_INPUT );
 348://MAC/Home/Downloads/getstarted-optiga-trust-m/optiga-trust-m-1/externals/mbedtls/library/ccm.c **** 
 349://MAC/Home/Downloads/getstarted-optiga-trust-m/optiga-trust-m-1/externals/mbedtls/library/ccm.c ****     return( mbedtls_ccm_star_encrypt_and_tag( ctx, length, iv, iv_len, add,
 803              	 .loc 1 349 0
 804 000a 0A9D     	 ldr r5,[sp,#40]
 805 000c 0594     	 str r4,[sp,#20]
 806 000e 0095     	 str r5,[sp]
 807 0010 0B9D     	 ldr r5,[sp,#44]
 808 0012 0195     	 str r5,[sp,#4]
 809 0014 0C9D     	 ldr r5,[sp,#48]
 810 0016 0295     	 str r5,[sp,#8]
 811 0018 0D9D     	 ldr r5,[sp,#52]
 812 001a 0395     	 str r5,[sp,#12]
 813 001c 0E9D     	 ldr r5,[sp,#56]
 814 001e 0495     	 str r5,[sp,#16]
 815 0020 FFF7FEFF 	 bl mbedtls_ccm_star_encrypt_and_tag
 816              	.LVL125:
 817 0024 01E0     	 b .L54
 818              	.LVL126:
 819              	.L55:
 347://MAC/Home/Downloads/getstarted-optiga-trust-m/optiga-trust-m-1/externals/mbedtls/library/ccm.c ****         return( MBEDTLS_ERR_CCM_BAD_INPUT );
 820              	 .loc 1 347 0
 821 0026 0D20     	 mov r0,#13
 822              	.LVL127:
 823 0028 4042     	 neg r0,r0
 824              	.LVL128:
 825              	.L54:
 350://MAC/Home/Downloads/getstarted-optiga-trust-m/optiga-trust-m-1/externals/mbedtls/library/ccm.c ****                 add_len, input, output, tag, tag_len ) );
 351://MAC/Home/Downloads/getstarted-optiga-trust-m/optiga-trust-m-1/externals/mbedtls/library/ccm.c **** }
 826              	 .loc 1 351 0
 827 002a 07B0     	 add sp,sp,#28
 828              	 
 829 002c 30BD     	 pop {r4,r5,pc}
 830              	 .cfi_endproc
 831              	.LFE12:
 833              	 .section .text.mbedtls_ccm_star_auth_decrypt,"ax",%progbits
 834              	 .align 1
 835              	 .global mbedtls_ccm_star_auth_decrypt
 836              	 .code 16
 837              	 .thumb_func
 839              	mbedtls_ccm_star_auth_decrypt:
 840              	.LFB13:
 352://MAC/Home/Downloads/getstarted-optiga-trust-m/optiga-trust-m-1/externals/mbedtls/library/ccm.c **** 
 353://MAC/Home/Downloads/getstarted-optiga-trust-m/optiga-trust-m-1/externals/mbedtls/library/ccm.c **** /*
 354://MAC/Home/Downloads/getstarted-optiga-trust-m/optiga-trust-m-1/externals/mbedtls/library/ccm.c ****  * Authenticated decryption
 355://MAC/Home/Downloads/getstarted-optiga-trust-m/optiga-trust-m-1/externals/mbedtls/library/ccm.c ****  */
 356://MAC/Home/Downloads/getstarted-optiga-trust-m/optiga-trust-m-1/externals/mbedtls/library/ccm.c **** int mbedtls_ccm_star_auth_decrypt( mbedtls_ccm_context *ctx, size_t length,
 357://MAC/Home/Downloads/getstarted-optiga-trust-m/optiga-trust-m-1/externals/mbedtls/library/ccm.c ****                       const unsigned char *iv, size_t iv_len,
 358://MAC/Home/Downloads/getstarted-optiga-trust-m/optiga-trust-m-1/externals/mbedtls/library/ccm.c ****                       const unsigned char *add, size_t add_len,
 359://MAC/Home/Downloads/getstarted-optiga-trust-m/optiga-trust-m-1/externals/mbedtls/library/ccm.c ****                       const unsigned char *input, unsigned char *output,
 360://MAC/Home/Downloads/getstarted-optiga-trust-m/optiga-trust-m-1/externals/mbedtls/library/ccm.c ****                       const unsigned char *tag, size_t tag_len )
 361://MAC/Home/Downloads/getstarted-optiga-trust-m/optiga-trust-m-1/externals/mbedtls/library/ccm.c **** {
 841              	 .loc 1 361 0
 842              	 .cfi_startproc
 843              	.LVL129:
 844 0000 F0B5     	 push {r4,r5,r6,r7,lr}
 845              	.LCFI9:
 846              	 .cfi_def_cfa_offset 20
 847              	 .cfi_offset 4,-20
 848              	 .cfi_offset 5,-16
 849              	 .cfi_offset 6,-12
 850              	 .cfi_offset 7,-8
 851              	 .cfi_offset 14,-4
 852 0002 0C1C     	 mov r4,r1
 853 0004 171C     	 mov r7,r2
 854 0006 8DB0     	 sub sp,sp,#52
 855              	.LCFI10:
 856              	 .cfi_def_cfa_offset 72
 362://MAC/Home/Downloads/getstarted-optiga-trust-m/optiga-trust-m-1/externals/mbedtls/library/ccm.c ****     int ret;
 363://MAC/Home/Downloads/getstarted-optiga-trust-m/optiga-trust-m-1/externals/mbedtls/library/ccm.c ****     unsigned char check_tag[16];
 364://MAC/Home/Downloads/getstarted-optiga-trust-m/optiga-trust-m-1/externals/mbedtls/library/ccm.c ****     unsigned char i;
 365://MAC/Home/Downloads/getstarted-optiga-trust-m/optiga-trust-m-1/externals/mbedtls/library/ccm.c ****     int diff;
 366://MAC/Home/Downloads/getstarted-optiga-trust-m/optiga-trust-m-1/externals/mbedtls/library/ccm.c **** 
 367://MAC/Home/Downloads/getstarted-optiga-trust-m/optiga-trust-m-1/externals/mbedtls/library/ccm.c ****     CCM_VALIDATE_RET( ctx != NULL );
 368://MAC/Home/Downloads/getstarted-optiga-trust-m/optiga-trust-m-1/externals/mbedtls/library/ccm.c ****     CCM_VALIDATE_RET( iv != NULL );
 369://MAC/Home/Downloads/getstarted-optiga-trust-m/optiga-trust-m-1/externals/mbedtls/library/ccm.c ****     CCM_VALIDATE_RET( add_len == 0 || add != NULL );
 370://MAC/Home/Downloads/getstarted-optiga-trust-m/optiga-trust-m-1/externals/mbedtls/library/ccm.c ****     CCM_VALIDATE_RET( length == 0 || input != NULL );
 371://MAC/Home/Downloads/getstarted-optiga-trust-m/optiga-trust-m-1/externals/mbedtls/library/ccm.c ****     CCM_VALIDATE_RET( length == 0 || output != NULL );
 372://MAC/Home/Downloads/getstarted-optiga-trust-m/optiga-trust-m-1/externals/mbedtls/library/ccm.c ****     CCM_VALIDATE_RET( tag_len == 0 || tag != NULL );
 373://MAC/Home/Downloads/getstarted-optiga-trust-m/optiga-trust-m-1/externals/mbedtls/library/ccm.c **** 
 374://MAC/Home/Downloads/getstarted-optiga-trust-m/optiga-trust-m-1/externals/mbedtls/library/ccm.c ****     if( ( ret = ccm_auth_crypt( ctx, CCM_DECRYPT, length,
 857              	 .loc 1 374 0
 858 0008 0093     	 str r3,[sp]
 859 000a 129B     	 ldr r3,[sp,#72]
 860              	.LVL130:
 361://MAC/Home/Downloads/getstarted-optiga-trust-m/optiga-trust-m-1/externals/mbedtls/library/ccm.c ****     int ret;
 861              	 .loc 1 361 0
 862 000c 179D     	 ldr r5,[sp,#92]
 863              	 .loc 1 374 0
 864 000e 0193     	 str r3,[sp,#4]
 865 0010 139B     	 ldr r3,[sp,#76]
 866 0012 08AE     	 add r6,sp,#32
 867 0014 0293     	 str r3,[sp,#8]
 868 0016 149B     	 ldr r3,[sp,#80]
 869 0018 221C     	 mov r2,r4
 870              	.LVL131:
 871 001a 0393     	 str r3,[sp,#12]
 872 001c 159B     	 ldr r3,[sp,#84]
 873 001e 0596     	 str r6,[sp,#20]
 874 0020 0493     	 str r3,[sp,#16]
 875 0022 0695     	 str r5,[sp,#24]
 876 0024 3B1C     	 mov r3,r7
 877 0026 0121     	 mov r1,#1
 878              	.LVL132:
 879 0028 FFF7FEFF 	 bl ccm_auth_crypt
 880              	.LVL133:
 881 002c 021C     	 mov r2,r0
 882 002e 031E     	 sub r3,r0,#0
 883 0030 12D1     	 bne .L57
 884              	.LVL134:
 885              	.L58:
 375://MAC/Home/Downloads/getstarted-optiga-trust-m/optiga-trust-m-1/externals/mbedtls/library/ccm.c ****                                 iv, iv_len, add, add_len,
 376://MAC/Home/Downloads/getstarted-optiga-trust-m/optiga-trust-m-1/externals/mbedtls/library/ccm.c ****                                 input, output, check_tag, tag_len ) ) != 0 )
 377://MAC/Home/Downloads/getstarted-optiga-trust-m/optiga-trust-m-1/externals/mbedtls/library/ccm.c ****     {
 378://MAC/Home/Downloads/getstarted-optiga-trust-m/optiga-trust-m-1/externals/mbedtls/library/ccm.c ****         return( ret );
 379://MAC/Home/Downloads/getstarted-optiga-trust-m/optiga-trust-m-1/externals/mbedtls/library/ccm.c ****     }
 380://MAC/Home/Downloads/getstarted-optiga-trust-m/optiga-trust-m-1/externals/mbedtls/library/ccm.c **** 
 381://MAC/Home/Downloads/getstarted-optiga-trust-m/optiga-trust-m-1/externals/mbedtls/library/ccm.c ****     /* Check tag in "constant-time" */
 382://MAC/Home/Downloads/getstarted-optiga-trust-m/optiga-trust-m-1/externals/mbedtls/library/ccm.c ****     for( diff = 0, i = 0; i < tag_len; i++ )
 886              	 .loc 1 382 0 discriminator 1
 887 0032 AA42     	 cmp r2,r5
 888 0034 07D2     	 bcs .L63
 383://MAC/Home/Downloads/getstarted-optiga-trust-m/optiga-trust-m-1/externals/mbedtls/library/ccm.c ****         diff |= tag[i] ^ check_tag[i];
 889              	 .loc 1 383 0 discriminator 3
 890 0036 1699     	 ldr r1,[sp,#88]
 891 0038 885C     	 ldrb r0,[r1,r2]
 892 003a B15C     	 ldrb r1,[r6,r2]
 382://MAC/Home/Downloads/getstarted-optiga-trust-m/optiga-trust-m-1/externals/mbedtls/library/ccm.c ****         diff |= tag[i] ^ check_tag[i];
 893              	 .loc 1 382 0 discriminator 3
 894 003c 0132     	 add r2,r2,#1
 895              	.LVL135:
 896              	 .loc 1 383 0 discriminator 3
 897 003e 4140     	 eor r1,r0
 898 0040 0B43     	 orr r3,r1
 899              	.LVL136:
 382://MAC/Home/Downloads/getstarted-optiga-trust-m/optiga-trust-m-1/externals/mbedtls/library/ccm.c ****         diff |= tag[i] ^ check_tag[i];
 900              	 .loc 1 382 0 discriminator 3
 901 0042 D2B2     	 uxtb r2,r2
 902              	.LVL137:
 903 0044 F5E7     	 b .L58
 904              	.L63:
 384://MAC/Home/Downloads/getstarted-optiga-trust-m/optiga-trust-m-1/externals/mbedtls/library/ccm.c **** 
 385://MAC/Home/Downloads/getstarted-optiga-trust-m/optiga-trust-m-1/externals/mbedtls/library/ccm.c ****     if( diff != 0 )
 386://MAC/Home/Downloads/getstarted-optiga-trust-m/optiga-trust-m-1/externals/mbedtls/library/ccm.c ****     {
 387://MAC/Home/Downloads/getstarted-optiga-trust-m/optiga-trust-m-1/externals/mbedtls/library/ccm.c ****         mbedtls_platform_zeroize( output, length );
 388://MAC/Home/Downloads/getstarted-optiga-trust-m/optiga-trust-m-1/externals/mbedtls/library/ccm.c ****         return( MBEDTLS_ERR_CCM_AUTH_FAILED );
 389://MAC/Home/Downloads/getstarted-optiga-trust-m/optiga-trust-m-1/externals/mbedtls/library/ccm.c ****     }
 390://MAC/Home/Downloads/getstarted-optiga-trust-m/optiga-trust-m-1/externals/mbedtls/library/ccm.c **** 
 391://MAC/Home/Downloads/getstarted-optiga-trust-m/optiga-trust-m-1/externals/mbedtls/library/ccm.c ****     return( 0 );
 905              	 .loc 1 391 0
 906 0046 0022     	 mov r2,#0
 907              	.LVL138:
 385://MAC/Home/Downloads/getstarted-optiga-trust-m/optiga-trust-m-1/externals/mbedtls/library/ccm.c ****     {
 908              	 .loc 1 385 0
 909 0048 9342     	 cmp r3,r2
 910 004a 05D0     	 beq .L57
 387://MAC/Home/Downloads/getstarted-optiga-trust-m/optiga-trust-m-1/externals/mbedtls/library/ccm.c ****         return( MBEDTLS_ERR_CCM_AUTH_FAILED );
 911              	 .loc 1 387 0
 912 004c 1598     	 ldr r0,[sp,#84]
 913 004e 211C     	 mov r1,r4
 914 0050 FFF7FEFF 	 bl mbedtls_platform_zeroize
 915              	.LVL139:
 388://MAC/Home/Downloads/getstarted-optiga-trust-m/optiga-trust-m-1/externals/mbedtls/library/ccm.c ****     }
 916              	 .loc 1 388 0
 917 0054 0F22     	 mov r2,#15
 918 0056 5242     	 neg r2,r2
 919              	.L57:
 392://MAC/Home/Downloads/getstarted-optiga-trust-m/optiga-trust-m-1/externals/mbedtls/library/ccm.c **** }
 920              	 .loc 1 392 0
 921 0058 101C     	 mov r0,r2
 922 005a 0DB0     	 add sp,sp,#52
 923              	 
 924              	.LVL140:
 925              	.LVL141:
 926 005c F0BD     	 pop {r4,r5,r6,r7,pc}
 927              	 .cfi_endproc
 928              	.LFE13:
 930              	 .section .text.mbedtls_ccm_auth_decrypt,"ax",%progbits
 931              	 .align 1
 932              	 .global mbedtls_ccm_auth_decrypt
 933              	 .code 16
 934              	 .thumb_func
 936              	mbedtls_ccm_auth_decrypt:
 937              	.LFB14:
 393://MAC/Home/Downloads/getstarted-optiga-trust-m/optiga-trust-m-1/externals/mbedtls/library/ccm.c **** 
 394://MAC/Home/Downloads/getstarted-optiga-trust-m/optiga-trust-m-1/externals/mbedtls/library/ccm.c **** int mbedtls_ccm_auth_decrypt( mbedtls_ccm_context *ctx, size_t length,
 395://MAC/Home/Downloads/getstarted-optiga-trust-m/optiga-trust-m-1/externals/mbedtls/library/ccm.c ****                       const unsigned char *iv, size_t iv_len,
 396://MAC/Home/Downloads/getstarted-optiga-trust-m/optiga-trust-m-1/externals/mbedtls/library/ccm.c ****                       const unsigned char *add, size_t add_len,
 397://MAC/Home/Downloads/getstarted-optiga-trust-m/optiga-trust-m-1/externals/mbedtls/library/ccm.c ****                       const unsigned char *input, unsigned char *output,
 398://MAC/Home/Downloads/getstarted-optiga-trust-m/optiga-trust-m-1/externals/mbedtls/library/ccm.c ****                       const unsigned char *tag, size_t tag_len )
 399://MAC/Home/Downloads/getstarted-optiga-trust-m/optiga-trust-m-1/externals/mbedtls/library/ccm.c **** {
 938              	 .loc 1 399 0
 939              	 .cfi_startproc
 940              	.LVL142:
 941 0000 30B5     	 push {r4,r5,lr}
 942              	.LCFI11:
 943              	 .cfi_def_cfa_offset 12
 944              	 .cfi_offset 4,-12
 945              	 .cfi_offset 5,-8
 946              	 .cfi_offset 14,-4
 947 0002 87B0     	 sub sp,sp,#28
 948              	.LCFI12:
 949              	 .cfi_def_cfa_offset 40
 950              	 .loc 1 399 0
 951 0004 0F9C     	 ldr r4,[sp,#60]
 400://MAC/Home/Downloads/getstarted-optiga-trust-m/optiga-trust-m-1/externals/mbedtls/library/ccm.c ****     CCM_VALIDATE_RET( ctx != NULL );
 401://MAC/Home/Downloads/getstarted-optiga-trust-m/optiga-trust-m-1/externals/mbedtls/library/ccm.c ****     CCM_VALIDATE_RET( iv != NULL );
 402://MAC/Home/Downloads/getstarted-optiga-trust-m/optiga-trust-m-1/externals/mbedtls/library/ccm.c ****     CCM_VALIDATE_RET( add_len == 0 || add != NULL );
 403://MAC/Home/Downloads/getstarted-optiga-trust-m/optiga-trust-m-1/externals/mbedtls/library/ccm.c ****     CCM_VALIDATE_RET( length == 0 || input != NULL );
 404://MAC/Home/Downloads/getstarted-optiga-trust-m/optiga-trust-m-1/externals/mbedtls/library/ccm.c ****     CCM_VALIDATE_RET( length == 0 || output != NULL );
 405://MAC/Home/Downloads/getstarted-optiga-trust-m/optiga-trust-m-1/externals/mbedtls/library/ccm.c ****     CCM_VALIDATE_RET( tag_len == 0 || tag != NULL );
 406://MAC/Home/Downloads/getstarted-optiga-trust-m/optiga-trust-m-1/externals/mbedtls/library/ccm.c **** 
 407://MAC/Home/Downloads/getstarted-optiga-trust-m/optiga-trust-m-1/externals/mbedtls/library/ccm.c ****     if( tag_len == 0 )
 952              	 .loc 1 407 0
 953 0006 002C     	 cmp r4,#0
 954 0008 0DD0     	 beq .L66
 408://MAC/Home/Downloads/getstarted-optiga-trust-m/optiga-trust-m-1/externals/mbedtls/library/ccm.c ****         return( MBEDTLS_ERR_CCM_BAD_INPUT );
 409://MAC/Home/Downloads/getstarted-optiga-trust-m/optiga-trust-m-1/externals/mbedtls/library/ccm.c **** 
 410://MAC/Home/Downloads/getstarted-optiga-trust-m/optiga-trust-m-1/externals/mbedtls/library/ccm.c ****     return( mbedtls_ccm_star_auth_decrypt( ctx, length, iv, iv_len, add,
 955              	 .loc 1 410 0
 956 000a 0A9D     	 ldr r5,[sp,#40]
 957 000c 0594     	 str r4,[sp,#20]
 958 000e 0095     	 str r5,[sp]
 959 0010 0B9D     	 ldr r5,[sp,#44]
 960 0012 0195     	 str r5,[sp,#4]
 961 0014 0C9D     	 ldr r5,[sp,#48]
 962 0016 0295     	 str r5,[sp,#8]
 963 0018 0D9D     	 ldr r5,[sp,#52]
 964 001a 0395     	 str r5,[sp,#12]
 965 001c 0E9D     	 ldr r5,[sp,#56]
 966 001e 0495     	 str r5,[sp,#16]
 967 0020 FFF7FEFF 	 bl mbedtls_ccm_star_auth_decrypt
 968              	.LVL143:
 969 0024 01E0     	 b .L65
 970              	.LVL144:
 971              	.L66:
 408://MAC/Home/Downloads/getstarted-optiga-trust-m/optiga-trust-m-1/externals/mbedtls/library/ccm.c ****         return( MBEDTLS_ERR_CCM_BAD_INPUT );
 972              	 .loc 1 408 0
 973 0026 0D20     	 mov r0,#13
 974              	.LVL145:
 975 0028 4042     	 neg r0,r0
 976              	.LVL146:
 977              	.L65:
 411://MAC/Home/Downloads/getstarted-optiga-trust-m/optiga-trust-m-1/externals/mbedtls/library/ccm.c ****                 add_len, input, output, tag, tag_len ) );
 412://MAC/Home/Downloads/getstarted-optiga-trust-m/optiga-trust-m-1/externals/mbedtls/library/ccm.c **** }
 978              	 .loc 1 412 0
 979 002a 07B0     	 add sp,sp,#28
 980              	 
 981 002c 30BD     	 pop {r4,r5,pc}
 982              	 .cfi_endproc
 983              	.LFE14:
 985              	 .text
 986              	.Letext0:
 987              	 .file 2 "c:\\dave_4-4-2_64bit\\dave-ide-4.4.2-64bit\\eclipse\\arm-gcc-49\\lib\\gcc\\arm-none-eabi\\4.9.3\\include\\stddef.h"
 988              	 .file 3 "//MAC/Home/Downloads/getstarted-optiga-trust-m/optiga-trust-m-1/externals/mbedtls/include/mbedtls/cipher.h"
 989              	 .file 4 "//MAC/Home/Downloads/getstarted-optiga-trust-m/optiga-trust-m-1/externals/mbedtls/include/mbedtls/ccm.h"
 990              	 .file 5 "//MAC/Home/Downloads/getstarted-optiga-trust-m/optiga-trust-m-1/externals/mbedtls/include/mbedtls/platform_util.h"