   1              	 .cpu cortex-m0
   2              	 .fpu softvfp
   3              	 .eabi_attribute 20,1
   4              	 .eabi_attribute 21,1
   5              	 .eabi_attribute 23,3
   6              	 .eabi_attribute 24,1
   7              	 .eabi_attribute 25,1
   8              	 .eabi_attribute 26,1
   9              	 .eabi_attribute 30,4
  10              	 .eabi_attribute 34,0
  11              	 .eabi_attribute 18,4
  12              	 .code 16
  13              	 .file "cipher.c"
  14              	 .text
  15              	.Ltext0:
  16              	 .cfi_sections .debug_frame
  17              	 .section .text.mbedtls_cipher_list,"ax",%progbits
  18              	 .align 1
  19              	 .global mbedtls_cipher_list
  20              	 .code 16
  21              	 .thumb_func
  23              	mbedtls_cipher_list:
  24              	.LFB7:
  25              	 .file 1 "//MAC/Home/Downloads/getstarted-optiga-trust-m/optiga-trust-m-1/externals/mbedtls/library/cipher.c"
   1://MAC/Home/Downloads/getstarted-optiga-trust-m/optiga-trust-m-1/externals/mbedtls/library/cipher.c **** /**
   2://MAC/Home/Downloads/getstarted-optiga-trust-m/optiga-trust-m-1/externals/mbedtls/library/cipher.c ****  * \file cipher.c
   3://MAC/Home/Downloads/getstarted-optiga-trust-m/optiga-trust-m-1/externals/mbedtls/library/cipher.c ****  *
   4://MAC/Home/Downloads/getstarted-optiga-trust-m/optiga-trust-m-1/externals/mbedtls/library/cipher.c ****  * \brief Generic cipher wrapper for mbed TLS
   5://MAC/Home/Downloads/getstarted-optiga-trust-m/optiga-trust-m-1/externals/mbedtls/library/cipher.c ****  *
   6://MAC/Home/Downloads/getstarted-optiga-trust-m/optiga-trust-m-1/externals/mbedtls/library/cipher.c ****  * \author Adriaan de Jong <dejong@fox-it.com>
   7://MAC/Home/Downloads/getstarted-optiga-trust-m/optiga-trust-m-1/externals/mbedtls/library/cipher.c ****  *
   8://MAC/Home/Downloads/getstarted-optiga-trust-m/optiga-trust-m-1/externals/mbedtls/library/cipher.c ****  *  Copyright (C) 2006-2015, ARM Limited, All Rights Reserved
   9://MAC/Home/Downloads/getstarted-optiga-trust-m/optiga-trust-m-1/externals/mbedtls/library/cipher.c ****  *  SPDX-License-Identifier: Apache-2.0
  10://MAC/Home/Downloads/getstarted-optiga-trust-m/optiga-trust-m-1/externals/mbedtls/library/cipher.c ****  *
  11://MAC/Home/Downloads/getstarted-optiga-trust-m/optiga-trust-m-1/externals/mbedtls/library/cipher.c ****  *  Licensed under the Apache License, Version 2.0 (the "License"); you may
  12://MAC/Home/Downloads/getstarted-optiga-trust-m/optiga-trust-m-1/externals/mbedtls/library/cipher.c ****  *  not use this file except in compliance with the License.
  13://MAC/Home/Downloads/getstarted-optiga-trust-m/optiga-trust-m-1/externals/mbedtls/library/cipher.c ****  *  You may obtain a copy of the License at
  14://MAC/Home/Downloads/getstarted-optiga-trust-m/optiga-trust-m-1/externals/mbedtls/library/cipher.c ****  *
  15://MAC/Home/Downloads/getstarted-optiga-trust-m/optiga-trust-m-1/externals/mbedtls/library/cipher.c ****  *  http://www.apache.org/licenses/LICENSE-2.0
  16://MAC/Home/Downloads/getstarted-optiga-trust-m/optiga-trust-m-1/externals/mbedtls/library/cipher.c ****  *
  17://MAC/Home/Downloads/getstarted-optiga-trust-m/optiga-trust-m-1/externals/mbedtls/library/cipher.c ****  *  Unless required by applicable law or agreed to in writing, software
  18://MAC/Home/Downloads/getstarted-optiga-trust-m/optiga-trust-m-1/externals/mbedtls/library/cipher.c ****  *  distributed under the License is distributed on an "AS IS" BASIS, WITHOUT
  19://MAC/Home/Downloads/getstarted-optiga-trust-m/optiga-trust-m-1/externals/mbedtls/library/cipher.c ****  *  WARRANTIES OR CONDITIONS OF ANY KIND, either express or implied.
  20://MAC/Home/Downloads/getstarted-optiga-trust-m/optiga-trust-m-1/externals/mbedtls/library/cipher.c ****  *  See the License for the specific language governing permissions and
  21://MAC/Home/Downloads/getstarted-optiga-trust-m/optiga-trust-m-1/externals/mbedtls/library/cipher.c ****  *  limitations under the License.
  22://MAC/Home/Downloads/getstarted-optiga-trust-m/optiga-trust-m-1/externals/mbedtls/library/cipher.c ****  *
  23://MAC/Home/Downloads/getstarted-optiga-trust-m/optiga-trust-m-1/externals/mbedtls/library/cipher.c ****  *  This file is part of mbed TLS (https://tls.mbed.org)
  24://MAC/Home/Downloads/getstarted-optiga-trust-m/optiga-trust-m-1/externals/mbedtls/library/cipher.c ****  */
  25://MAC/Home/Downloads/getstarted-optiga-trust-m/optiga-trust-m-1/externals/mbedtls/library/cipher.c **** 
  26://MAC/Home/Downloads/getstarted-optiga-trust-m/optiga-trust-m-1/externals/mbedtls/library/cipher.c **** #if !defined(MBEDTLS_CONFIG_FILE)
  27://MAC/Home/Downloads/getstarted-optiga-trust-m/optiga-trust-m-1/externals/mbedtls/library/cipher.c **** #include "mbedtls/config.h"
  28://MAC/Home/Downloads/getstarted-optiga-trust-m/optiga-trust-m-1/externals/mbedtls/library/cipher.c **** #else
  29://MAC/Home/Downloads/getstarted-optiga-trust-m/optiga-trust-m-1/externals/mbedtls/library/cipher.c **** #include MBEDTLS_CONFIG_FILE
  30://MAC/Home/Downloads/getstarted-optiga-trust-m/optiga-trust-m-1/externals/mbedtls/library/cipher.c **** #endif
  31://MAC/Home/Downloads/getstarted-optiga-trust-m/optiga-trust-m-1/externals/mbedtls/library/cipher.c **** 
  32://MAC/Home/Downloads/getstarted-optiga-trust-m/optiga-trust-m-1/externals/mbedtls/library/cipher.c **** #if defined(MBEDTLS_CIPHER_C)
  33://MAC/Home/Downloads/getstarted-optiga-trust-m/optiga-trust-m-1/externals/mbedtls/library/cipher.c **** 
  34://MAC/Home/Downloads/getstarted-optiga-trust-m/optiga-trust-m-1/externals/mbedtls/library/cipher.c **** #include "mbedtls/cipher.h"
  35://MAC/Home/Downloads/getstarted-optiga-trust-m/optiga-trust-m-1/externals/mbedtls/library/cipher.c **** #include "mbedtls/cipher_internal.h"
  36://MAC/Home/Downloads/getstarted-optiga-trust-m/optiga-trust-m-1/externals/mbedtls/library/cipher.c **** #include "mbedtls/platform_util.h"
  37://MAC/Home/Downloads/getstarted-optiga-trust-m/optiga-trust-m-1/externals/mbedtls/library/cipher.c **** 
  38://MAC/Home/Downloads/getstarted-optiga-trust-m/optiga-trust-m-1/externals/mbedtls/library/cipher.c **** #include <stdlib.h>
  39://MAC/Home/Downloads/getstarted-optiga-trust-m/optiga-trust-m-1/externals/mbedtls/library/cipher.c **** #include <string.h>
  40://MAC/Home/Downloads/getstarted-optiga-trust-m/optiga-trust-m-1/externals/mbedtls/library/cipher.c **** 
  41://MAC/Home/Downloads/getstarted-optiga-trust-m/optiga-trust-m-1/externals/mbedtls/library/cipher.c **** #if defined(MBEDTLS_CHACHAPOLY_C)
  42://MAC/Home/Downloads/getstarted-optiga-trust-m/optiga-trust-m-1/externals/mbedtls/library/cipher.c **** #include "mbedtls/chachapoly.h"
  43://MAC/Home/Downloads/getstarted-optiga-trust-m/optiga-trust-m-1/externals/mbedtls/library/cipher.c **** #endif
  44://MAC/Home/Downloads/getstarted-optiga-trust-m/optiga-trust-m-1/externals/mbedtls/library/cipher.c **** 
  45://MAC/Home/Downloads/getstarted-optiga-trust-m/optiga-trust-m-1/externals/mbedtls/library/cipher.c **** #if defined(MBEDTLS_GCM_C)
  46://MAC/Home/Downloads/getstarted-optiga-trust-m/optiga-trust-m-1/externals/mbedtls/library/cipher.c **** #include "mbedtls/gcm.h"
  47://MAC/Home/Downloads/getstarted-optiga-trust-m/optiga-trust-m-1/externals/mbedtls/library/cipher.c **** #endif
  48://MAC/Home/Downloads/getstarted-optiga-trust-m/optiga-trust-m-1/externals/mbedtls/library/cipher.c **** 
  49://MAC/Home/Downloads/getstarted-optiga-trust-m/optiga-trust-m-1/externals/mbedtls/library/cipher.c **** #if defined(MBEDTLS_CCM_C)
  50://MAC/Home/Downloads/getstarted-optiga-trust-m/optiga-trust-m-1/externals/mbedtls/library/cipher.c **** #include "mbedtls/ccm.h"
  51://MAC/Home/Downloads/getstarted-optiga-trust-m/optiga-trust-m-1/externals/mbedtls/library/cipher.c **** #endif
  52://MAC/Home/Downloads/getstarted-optiga-trust-m/optiga-trust-m-1/externals/mbedtls/library/cipher.c **** 
  53://MAC/Home/Downloads/getstarted-optiga-trust-m/optiga-trust-m-1/externals/mbedtls/library/cipher.c **** #if defined(MBEDTLS_CHACHA20_C)
  54://MAC/Home/Downloads/getstarted-optiga-trust-m/optiga-trust-m-1/externals/mbedtls/library/cipher.c **** #include "mbedtls/chacha20.h"
  55://MAC/Home/Downloads/getstarted-optiga-trust-m/optiga-trust-m-1/externals/mbedtls/library/cipher.c **** #endif
  56://MAC/Home/Downloads/getstarted-optiga-trust-m/optiga-trust-m-1/externals/mbedtls/library/cipher.c **** 
  57://MAC/Home/Downloads/getstarted-optiga-trust-m/optiga-trust-m-1/externals/mbedtls/library/cipher.c **** #if defined(MBEDTLS_CMAC_C)
  58://MAC/Home/Downloads/getstarted-optiga-trust-m/optiga-trust-m-1/externals/mbedtls/library/cipher.c **** #include "mbedtls/cmac.h"
  59://MAC/Home/Downloads/getstarted-optiga-trust-m/optiga-trust-m-1/externals/mbedtls/library/cipher.c **** #endif
  60://MAC/Home/Downloads/getstarted-optiga-trust-m/optiga-trust-m-1/externals/mbedtls/library/cipher.c **** 
  61://MAC/Home/Downloads/getstarted-optiga-trust-m/optiga-trust-m-1/externals/mbedtls/library/cipher.c **** #if defined(MBEDTLS_PLATFORM_C)
  62://MAC/Home/Downloads/getstarted-optiga-trust-m/optiga-trust-m-1/externals/mbedtls/library/cipher.c **** #include "mbedtls/platform.h"
  63://MAC/Home/Downloads/getstarted-optiga-trust-m/optiga-trust-m-1/externals/mbedtls/library/cipher.c **** #else
  64://MAC/Home/Downloads/getstarted-optiga-trust-m/optiga-trust-m-1/externals/mbedtls/library/cipher.c **** #define mbedtls_calloc calloc
  65://MAC/Home/Downloads/getstarted-optiga-trust-m/optiga-trust-m-1/externals/mbedtls/library/cipher.c **** #define mbedtls_free   free
  66://MAC/Home/Downloads/getstarted-optiga-trust-m/optiga-trust-m-1/externals/mbedtls/library/cipher.c **** #endif
  67://MAC/Home/Downloads/getstarted-optiga-trust-m/optiga-trust-m-1/externals/mbedtls/library/cipher.c **** 
  68://MAC/Home/Downloads/getstarted-optiga-trust-m/optiga-trust-m-1/externals/mbedtls/library/cipher.c **** #define CIPHER_VALIDATE_RET( cond )    \
  69://MAC/Home/Downloads/getstarted-optiga-trust-m/optiga-trust-m-1/externals/mbedtls/library/cipher.c ****     MBEDTLS_INTERNAL_VALIDATE_RET( cond, MBEDTLS_ERR_CIPHER_BAD_INPUT_DATA )
  70://MAC/Home/Downloads/getstarted-optiga-trust-m/optiga-trust-m-1/externals/mbedtls/library/cipher.c **** #define CIPHER_VALIDATE( cond )        \
  71://MAC/Home/Downloads/getstarted-optiga-trust-m/optiga-trust-m-1/externals/mbedtls/library/cipher.c ****     MBEDTLS_INTERNAL_VALIDATE( cond )
  72://MAC/Home/Downloads/getstarted-optiga-trust-m/optiga-trust-m-1/externals/mbedtls/library/cipher.c **** 
  73://MAC/Home/Downloads/getstarted-optiga-trust-m/optiga-trust-m-1/externals/mbedtls/library/cipher.c **** #if defined(MBEDTLS_GCM_C) || defined(MBEDTLS_CHACHAPOLY_C)
  74://MAC/Home/Downloads/getstarted-optiga-trust-m/optiga-trust-m-1/externals/mbedtls/library/cipher.c **** /* Compare the contents of two buffers in constant time.
  75://MAC/Home/Downloads/getstarted-optiga-trust-m/optiga-trust-m-1/externals/mbedtls/library/cipher.c ****  * Returns 0 if the contents are bitwise identical, otherwise returns
  76://MAC/Home/Downloads/getstarted-optiga-trust-m/optiga-trust-m-1/externals/mbedtls/library/cipher.c ****  * a non-zero value.
  77://MAC/Home/Downloads/getstarted-optiga-trust-m/optiga-trust-m-1/externals/mbedtls/library/cipher.c ****  * This is currently only used by GCM and ChaCha20+Poly1305.
  78://MAC/Home/Downloads/getstarted-optiga-trust-m/optiga-trust-m-1/externals/mbedtls/library/cipher.c ****  */
  79://MAC/Home/Downloads/getstarted-optiga-trust-m/optiga-trust-m-1/externals/mbedtls/library/cipher.c **** static int mbedtls_constant_time_memcmp( const void *v1, const void *v2, size_t len )
  80://MAC/Home/Downloads/getstarted-optiga-trust-m/optiga-trust-m-1/externals/mbedtls/library/cipher.c **** {
  81://MAC/Home/Downloads/getstarted-optiga-trust-m/optiga-trust-m-1/externals/mbedtls/library/cipher.c ****     const unsigned char *p1 = (const unsigned char*) v1;
  82://MAC/Home/Downloads/getstarted-optiga-trust-m/optiga-trust-m-1/externals/mbedtls/library/cipher.c ****     const unsigned char *p2 = (const unsigned char*) v2;
  83://MAC/Home/Downloads/getstarted-optiga-trust-m/optiga-trust-m-1/externals/mbedtls/library/cipher.c ****     size_t i;
  84://MAC/Home/Downloads/getstarted-optiga-trust-m/optiga-trust-m-1/externals/mbedtls/library/cipher.c ****     unsigned char diff;
  85://MAC/Home/Downloads/getstarted-optiga-trust-m/optiga-trust-m-1/externals/mbedtls/library/cipher.c **** 
  86://MAC/Home/Downloads/getstarted-optiga-trust-m/optiga-trust-m-1/externals/mbedtls/library/cipher.c ****     for( diff = 0, i = 0; i < len; i++ )
  87://MAC/Home/Downloads/getstarted-optiga-trust-m/optiga-trust-m-1/externals/mbedtls/library/cipher.c ****         diff |= p1[i] ^ p2[i];
  88://MAC/Home/Downloads/getstarted-optiga-trust-m/optiga-trust-m-1/externals/mbedtls/library/cipher.c **** 
  89://MAC/Home/Downloads/getstarted-optiga-trust-m/optiga-trust-m-1/externals/mbedtls/library/cipher.c ****     return( (int)diff );
  90://MAC/Home/Downloads/getstarted-optiga-trust-m/optiga-trust-m-1/externals/mbedtls/library/cipher.c **** }
  91://MAC/Home/Downloads/getstarted-optiga-trust-m/optiga-trust-m-1/externals/mbedtls/library/cipher.c **** #endif /* MBEDTLS_GCM_C || MBEDTLS_CHACHAPOLY_C */
  92://MAC/Home/Downloads/getstarted-optiga-trust-m/optiga-trust-m-1/externals/mbedtls/library/cipher.c **** 
  93://MAC/Home/Downloads/getstarted-optiga-trust-m/optiga-trust-m-1/externals/mbedtls/library/cipher.c **** static int supported_init = 0;
  94://MAC/Home/Downloads/getstarted-optiga-trust-m/optiga-trust-m-1/externals/mbedtls/library/cipher.c **** 
  95://MAC/Home/Downloads/getstarted-optiga-trust-m/optiga-trust-m-1/externals/mbedtls/library/cipher.c **** const int *mbedtls_cipher_list( void )
  96://MAC/Home/Downloads/getstarted-optiga-trust-m/optiga-trust-m-1/externals/mbedtls/library/cipher.c **** {
  26              	 .loc 1 96 0
  27              	 .cfi_startproc
  97://MAC/Home/Downloads/getstarted-optiga-trust-m/optiga-trust-m-1/externals/mbedtls/library/cipher.c ****     const mbedtls_cipher_definition_t *def;
  98://MAC/Home/Downloads/getstarted-optiga-trust-m/optiga-trust-m-1/externals/mbedtls/library/cipher.c ****     int *type;
  99://MAC/Home/Downloads/getstarted-optiga-trust-m/optiga-trust-m-1/externals/mbedtls/library/cipher.c **** 
 100://MAC/Home/Downloads/getstarted-optiga-trust-m/optiga-trust-m-1/externals/mbedtls/library/cipher.c ****     if( ! supported_init )
  28              	 .loc 1 100 0
  29 0000 0A4B     	 ldr r3,.L9
  96://MAC/Home/Downloads/getstarted-optiga-trust-m/optiga-trust-m-1/externals/mbedtls/library/cipher.c ****     const mbedtls_cipher_definition_t *def;
  30              	 .loc 1 96 0
  31 0002 30B5     	 push {r4,r5,lr}
  32              	.LCFI0:
  33              	 .cfi_def_cfa_offset 12
  34              	 .cfi_offset 4,-12
  35              	 .cfi_offset 5,-8
  36              	 .cfi_offset 14,-4
  37              	 .loc 1 100 0
  38 0004 1A68     	 ldr r2,[r3]
  39 0006 191C     	 mov r1,r3
  40 0008 0023     	 mov r3,#0
  41 000a 0948     	 ldr r0,.L9+4
  42 000c 9A42     	 cmp r2,r3
  43 000e 0BD1     	 bne .L3
  44              	.L2:
 101://MAC/Home/Downloads/getstarted-optiga-trust-m/optiga-trust-m-1/externals/mbedtls/library/cipher.c ****     {
 102://MAC/Home/Downloads/getstarted-optiga-trust-m/optiga-trust-m-1/externals/mbedtls/library/cipher.c ****         def = mbedtls_cipher_definitions;
 103://MAC/Home/Downloads/getstarted-optiga-trust-m/optiga-trust-m-1/externals/mbedtls/library/cipher.c ****         type = mbedtls_cipher_supported;
 104://MAC/Home/Downloads/getstarted-optiga-trust-m/optiga-trust-m-1/externals/mbedtls/library/cipher.c **** 
 105://MAC/Home/Downloads/getstarted-optiga-trust-m/optiga-trust-m-1/externals/mbedtls/library/cipher.c ****         while( def->type != 0 )
  45              	 .loc 1 105 0
  46 0010 084C     	 ldr r4,.L9+8
  47 0012 C218     	 add r2,r0,r3
  48              	.LVL0:
  49 0014 1D1D     	 add r5,r3,#4
  50 0016 5B00     	 lsl r3,r3,#1
  51              	.LVL1:
  52 0018 E35C     	 ldrb r3,[r4,r3]
 106://MAC/Home/Downloads/getstarted-optiga-trust-m/optiga-trust-m-1/externals/mbedtls/library/cipher.c ****             *type++ = (*def++).type;
  53              	 .loc 1 106 0
  54 001a 1360     	 str r3,[r2]
 105://MAC/Home/Downloads/getstarted-optiga-trust-m/optiga-trust-m-1/externals/mbedtls/library/cipher.c ****             *type++ = (*def++).type;
  55              	 .loc 1 105 0
  56 001c 002B     	 cmp r3,#0
  57 001e 01D0     	 beq .L8
  58              	.LVL2:
  59              	 .loc 1 106 0
  60 0020 2B1C     	 mov r3,r5
  61 0022 F5E7     	 b .L2
  62              	.LVL3:
  63              	.L8:
 107://MAC/Home/Downloads/getstarted-optiga-trust-m/optiga-trust-m-1/externals/mbedtls/library/cipher.c **** 
 108://MAC/Home/Downloads/getstarted-optiga-trust-m/optiga-trust-m-1/externals/mbedtls/library/cipher.c ****         *type = 0;
 109://MAC/Home/Downloads/getstarted-optiga-trust-m/optiga-trust-m-1/externals/mbedtls/library/cipher.c **** 
 110://MAC/Home/Downloads/getstarted-optiga-trust-m/optiga-trust-m-1/externals/mbedtls/library/cipher.c ****         supported_init = 1;
  64              	 .loc 1 110 0
  65 0024 0133     	 add r3,r3,#1
  66 0026 0B60     	 str r3,[r1]
  67              	.LVL4:
  68              	.L3:
 111://MAC/Home/Downloads/getstarted-optiga-trust-m/optiga-trust-m-1/externals/mbedtls/library/cipher.c ****     }
 112://MAC/Home/Downloads/getstarted-optiga-trust-m/optiga-trust-m-1/externals/mbedtls/library/cipher.c **** 
 113://MAC/Home/Downloads/getstarted-optiga-trust-m/optiga-trust-m-1/externals/mbedtls/library/cipher.c ****     return( mbedtls_cipher_supported );
 114://MAC/Home/Downloads/getstarted-optiga-trust-m/optiga-trust-m-1/externals/mbedtls/library/cipher.c **** }
  69              	 .loc 1 114 0
  70              	 
  71 0028 30BD     	 pop {r4,r5,pc}
  72              	.L10:
  73 002a C046     	 .align 2
  74              	.L9:
  75 002c 00000000 	 .word .LANCHOR0
  76 0030 00000000 	 .word mbedtls_cipher_supported
  77 0034 00000000 	 .word mbedtls_cipher_definitions
  78              	 .cfi_endproc
  79              	.LFE7:
  81              	 .section .text.mbedtls_cipher_info_from_type,"ax",%progbits
  82              	 .align 1
  83              	 .global mbedtls_cipher_info_from_type
  84              	 .code 16
  85              	 .thumb_func
  87              	mbedtls_cipher_info_from_type:
  88              	.LFB8:
 115://MAC/Home/Downloads/getstarted-optiga-trust-m/optiga-trust-m-1/externals/mbedtls/library/cipher.c **** 
 116://MAC/Home/Downloads/getstarted-optiga-trust-m/optiga-trust-m-1/externals/mbedtls/library/cipher.c **** const mbedtls_cipher_info_t *mbedtls_cipher_info_from_type( const mbedtls_cipher_type_t cipher_type
 117://MAC/Home/Downloads/getstarted-optiga-trust-m/optiga-trust-m-1/externals/mbedtls/library/cipher.c **** {
  89              	 .loc 1 117 0
  90              	 .cfi_startproc
  91              	.LVL5:
  92 0000 054B     	 ldr r3,.L15
  93              	.LVL6:
  94              	.L12:
 118://MAC/Home/Downloads/getstarted-optiga-trust-m/optiga-trust-m-1/externals/mbedtls/library/cipher.c ****     const mbedtls_cipher_definition_t *def;
 119://MAC/Home/Downloads/getstarted-optiga-trust-m/optiga-trust-m-1/externals/mbedtls/library/cipher.c **** 
 120://MAC/Home/Downloads/getstarted-optiga-trust-m/optiga-trust-m-1/externals/mbedtls/library/cipher.c ****     for( def = mbedtls_cipher_definitions; def->info != NULL; def++ )
  95              	 .loc 1 120 0 discriminator 1
  96 0002 1A68     	 ldr r2,[r3]
  97 0004 002A     	 cmp r2,#0
  98 0006 05D0     	 beq .L13
  99 0008 0833     	 add r3,r3,#8
 100              	.LVL7:
 101 000a 191C     	 mov r1,r3
 102 000c 0C39     	 sub r1,r1,#12
 121://MAC/Home/Downloads/getstarted-optiga-trust-m/optiga-trust-m-1/externals/mbedtls/library/cipher.c ****         if( def->type == cipher_type )
 103              	 .loc 1 121 0
 104 000e 0978     	 ldrb r1,[r1]
 105 0010 8142     	 cmp r1,r0
 106 0012 F6D1     	 bne .L12
 107              	.LVL8:
 108              	.L13:
 122://MAC/Home/Downloads/getstarted-optiga-trust-m/optiga-trust-m-1/externals/mbedtls/library/cipher.c ****             return( def->info );
 123://MAC/Home/Downloads/getstarted-optiga-trust-m/optiga-trust-m-1/externals/mbedtls/library/cipher.c **** 
 124://MAC/Home/Downloads/getstarted-optiga-trust-m/optiga-trust-m-1/externals/mbedtls/library/cipher.c ****     return( NULL );
 125://MAC/Home/Downloads/getstarted-optiga-trust-m/optiga-trust-m-1/externals/mbedtls/library/cipher.c **** }
 109              	 .loc 1 125 0
 110 0014 101C     	 mov r0,r2
 111              	.LVL9:
 112              	 
 113 0016 7047     	 bx lr
 114              	.L16:
 115              	 .align 2
 116              	.L15:
 117 0018 04000000 	 .word mbedtls_cipher_definitions+4
 118              	 .cfi_endproc
 119              	.LFE8:
 121              	 .section .text.mbedtls_cipher_info_from_string,"ax",%progbits
 122              	 .align 1
 123              	 .global mbedtls_cipher_info_from_string
 124              	 .code 16
 125              	 .thumb_func
 127              	mbedtls_cipher_info_from_string:
 128              	.LFB9:
 126://MAC/Home/Downloads/getstarted-optiga-trust-m/optiga-trust-m-1/externals/mbedtls/library/cipher.c **** 
 127://MAC/Home/Downloads/getstarted-optiga-trust-m/optiga-trust-m-1/externals/mbedtls/library/cipher.c **** const mbedtls_cipher_info_t *mbedtls_cipher_info_from_string( const char *cipher_name )
 128://MAC/Home/Downloads/getstarted-optiga-trust-m/optiga-trust-m-1/externals/mbedtls/library/cipher.c **** {
 129              	 .loc 1 128 0
 130              	 .cfi_startproc
 131              	.LVL10:
 132 0000 70B5     	 push {r4,r5,r6,lr}
 133              	.LCFI1:
 134              	 .cfi_def_cfa_offset 16
 135              	 .cfi_offset 4,-16
 136              	 .cfi_offset 5,-12
 137              	 .cfi_offset 6,-8
 138              	 .cfi_offset 14,-4
 129://MAC/Home/Downloads/getstarted-optiga-trust-m/optiga-trust-m-1/externals/mbedtls/library/cipher.c ****     const mbedtls_cipher_definition_t *def;
 130://MAC/Home/Downloads/getstarted-optiga-trust-m/optiga-trust-m-1/externals/mbedtls/library/cipher.c **** 
 131://MAC/Home/Downloads/getstarted-optiga-trust-m/optiga-trust-m-1/externals/mbedtls/library/cipher.c ****     if( NULL == cipher_name )
 132://MAC/Home/Downloads/getstarted-optiga-trust-m/optiga-trust-m-1/externals/mbedtls/library/cipher.c ****         return( NULL );
 139              	 .loc 1 132 0
 140 0002 051E     	 sub r5,r0,#0
 131://MAC/Home/Downloads/getstarted-optiga-trust-m/optiga-trust-m-1/externals/mbedtls/library/cipher.c ****         return( NULL );
 141              	 .loc 1 131 0
 142 0004 0BD0     	 beq .L18
 143 0006 041C     	 mov r4,r0
 144 0008 064E     	 ldr r6,.L25
 145              	.LVL11:
 146              	.L19:
 133://MAC/Home/Downloads/getstarted-optiga-trust-m/optiga-trust-m-1/externals/mbedtls/library/cipher.c **** 
 134://MAC/Home/Downloads/getstarted-optiga-trust-m/optiga-trust-m-1/externals/mbedtls/library/cipher.c ****     for( def = mbedtls_cipher_definitions; def->info != NULL; def++ )
 147              	 .loc 1 134 0 discriminator 1
 148 000a 3568     	 ldr r5,[r6]
 149 000c 002D     	 cmp r5,#0
 150 000e 06D0     	 beq .L18
 135://MAC/Home/Downloads/getstarted-optiga-trust-m/optiga-trust-m-1/externals/mbedtls/library/cipher.c ****         if( !  strcmp( def->info->name, cipher_name ) )
 151              	 .loc 1 135 0
 152 0010 A868     	 ldr r0,[r5,#8]
 153 0012 211C     	 mov r1,r4
 154 0014 FFF7FEFF 	 bl strcmp
 155              	.LVL12:
 156 0018 0836     	 add r6,r6,#8
 157              	.LVL13:
 158 001a 0028     	 cmp r0,#0
 159 001c F5D1     	 bne .L19
 160              	.LVL14:
 161              	.L18:
 136://MAC/Home/Downloads/getstarted-optiga-trust-m/optiga-trust-m-1/externals/mbedtls/library/cipher.c ****             return( def->info );
 137://MAC/Home/Downloads/getstarted-optiga-trust-m/optiga-trust-m-1/externals/mbedtls/library/cipher.c **** 
 138://MAC/Home/Downloads/getstarted-optiga-trust-m/optiga-trust-m-1/externals/mbedtls/library/cipher.c ****     return( NULL );
 139://MAC/Home/Downloads/getstarted-optiga-trust-m/optiga-trust-m-1/externals/mbedtls/library/cipher.c **** }
 162              	 .loc 1 139 0
 163 001e 281C     	 mov r0,r5
 164              	 
 165 0020 70BD     	 pop {r4,r5,r6,pc}
 166              	.L26:
 167 0022 C046     	 .align 2
 168              	.L25:
 169 0024 04000000 	 .word mbedtls_cipher_definitions+4
 170              	 .cfi_endproc
 171              	.LFE9:
 173              	 .section .text.mbedtls_cipher_info_from_values,"ax",%progbits
 174              	 .align 1
 175              	 .global mbedtls_cipher_info_from_values
 176              	 .code 16
 177              	 .thumb_func
 179              	mbedtls_cipher_info_from_values:
 180              	.LFB10:
 140://MAC/Home/Downloads/getstarted-optiga-trust-m/optiga-trust-m-1/externals/mbedtls/library/cipher.c **** 
 141://MAC/Home/Downloads/getstarted-optiga-trust-m/optiga-trust-m-1/externals/mbedtls/library/cipher.c **** const mbedtls_cipher_info_t *mbedtls_cipher_info_from_values( const mbedtls_cipher_id_t cipher_id,
 142://MAC/Home/Downloads/getstarted-optiga-trust-m/optiga-trust-m-1/externals/mbedtls/library/cipher.c ****                                               int key_bitlen,
 143://MAC/Home/Downloads/getstarted-optiga-trust-m/optiga-trust-m-1/externals/mbedtls/library/cipher.c ****                                               const mbedtls_cipher_mode_t mode )
 144://MAC/Home/Downloads/getstarted-optiga-trust-m/optiga-trust-m-1/externals/mbedtls/library/cipher.c **** {
 181              	 .loc 1 144 0
 182              	 .cfi_startproc
 183              	.LVL15:
 184 0000 30B5     	 push {r4,r5,lr}
 185              	.LCFI2:
 186              	 .cfi_def_cfa_offset 12
 187              	 .cfi_offset 4,-12
 188              	 .cfi_offset 5,-8
 189              	 .cfi_offset 14,-4
 190 0002 094C     	 ldr r4,.L32
 191              	.LVL16:
 192              	.L28:
 145://MAC/Home/Downloads/getstarted-optiga-trust-m/optiga-trust-m-1/externals/mbedtls/library/cipher.c ****     const mbedtls_cipher_definition_t *def;
 146://MAC/Home/Downloads/getstarted-optiga-trust-m/optiga-trust-m-1/externals/mbedtls/library/cipher.c **** 
 147://MAC/Home/Downloads/getstarted-optiga-trust-m/optiga-trust-m-1/externals/mbedtls/library/cipher.c ****     for( def = mbedtls_cipher_definitions; def->info != NULL; def++ )
 193              	 .loc 1 147 0 discriminator 1
 194 0004 2368     	 ldr r3,[r4]
 195 0006 002B     	 cmp r3,#0
 196 0008 0BD0     	 beq .L30
 148://MAC/Home/Downloads/getstarted-optiga-trust-m/optiga-trust-m-1/externals/mbedtls/library/cipher.c ****         if( def->info->base->cipher == cipher_id &&
 197              	 .loc 1 148 0
 198 000a 9D69     	 ldr r5,[r3,#24]
 199 000c 2D78     	 ldrb r5,[r5]
 200 000e 8542     	 cmp r5,r0
 201 0010 05D1     	 bne .L29
 202              	 .loc 1 148 0 is_stmt 0 discriminator 1
 203 0012 5D68     	 ldr r5,[r3,#4]
 204 0014 8D42     	 cmp r5,r1
 205 0016 02D1     	 bne .L29
 149://MAC/Home/Downloads/getstarted-optiga-trust-m/optiga-trust-m-1/externals/mbedtls/library/cipher.c ****             def->info->key_bitlen == (unsigned) key_bitlen &&
 206              	 .loc 1 149 0 is_stmt 1
 207 0018 5D78     	 ldrb r5,[r3,#1]
 208 001a 9542     	 cmp r5,r2
 209 001c 01D0     	 beq .L30
 210              	.L29:
 211              	.LVL17:
 212 001e 0834     	 add r4,r4,#8
 213              	.LVL18:
 214 0020 F0E7     	 b .L28
 215              	.L30:
 150://MAC/Home/Downloads/getstarted-optiga-trust-m/optiga-trust-m-1/externals/mbedtls/library/cipher.c ****             def->info->mode == mode )
 151://MAC/Home/Downloads/getstarted-optiga-trust-m/optiga-trust-m-1/externals/mbedtls/library/cipher.c ****             return( def->info );
 152://MAC/Home/Downloads/getstarted-optiga-trust-m/optiga-trust-m-1/externals/mbedtls/library/cipher.c **** 
 153://MAC/Home/Downloads/getstarted-optiga-trust-m/optiga-trust-m-1/externals/mbedtls/library/cipher.c ****     return( NULL );
 154://MAC/Home/Downloads/getstarted-optiga-trust-m/optiga-trust-m-1/externals/mbedtls/library/cipher.c **** }
 216              	 .loc 1 154 0
 217 0022 181C     	 mov r0,r3
 218              	.LVL19:
 219              	 
 220              	.LVL20:
 221 0024 30BD     	 pop {r4,r5,pc}
 222              	.L33:
 223 0026 C046     	 .align 2
 224              	.L32:
 225 0028 04000000 	 .word mbedtls_cipher_definitions+4
 226              	 .cfi_endproc
 227              	.LFE10:
 229              	 .section .text.mbedtls_cipher_init,"ax",%progbits
 230              	 .align 1
 231              	 .global mbedtls_cipher_init
 232              	 .code 16
 233              	 .thumb_func
 235              	mbedtls_cipher_init:
 236              	.LFB11:
 155://MAC/Home/Downloads/getstarted-optiga-trust-m/optiga-trust-m-1/externals/mbedtls/library/cipher.c **** 
 156://MAC/Home/Downloads/getstarted-optiga-trust-m/optiga-trust-m-1/externals/mbedtls/library/cipher.c **** void mbedtls_cipher_init( mbedtls_cipher_context_t *ctx )
 157://MAC/Home/Downloads/getstarted-optiga-trust-m/optiga-trust-m-1/externals/mbedtls/library/cipher.c **** {
 237              	 .loc 1 157 0
 238              	 .cfi_startproc
 239              	.LVL21:
 240 0000 08B5     	 push {r3,lr}
 241              	.LCFI3:
 242              	 .cfi_def_cfa_offset 8
 243              	 .cfi_offset 3,-8
 244              	 .cfi_offset 14,-4
 158://MAC/Home/Downloads/getstarted-optiga-trust-m/optiga-trust-m-1/externals/mbedtls/library/cipher.c ****     CIPHER_VALIDATE( ctx != NULL );
 159://MAC/Home/Downloads/getstarted-optiga-trust-m/optiga-trust-m-1/externals/mbedtls/library/cipher.c ****     memset( ctx, 0, sizeof( mbedtls_cipher_context_t ) );
 245              	 .loc 1 159 0
 246 0002 0021     	 mov r1,#0
 247 0004 3822     	 mov r2,#56
 248 0006 FFF7FEFF 	 bl memset
 249              	.LVL22:
 160://MAC/Home/Downloads/getstarted-optiga-trust-m/optiga-trust-m-1/externals/mbedtls/library/cipher.c **** }
 250              	 .loc 1 160 0
 251              	 
 252 000a 08BD     	 pop {r3,pc}
 253              	 .cfi_endproc
 254              	.LFE11:
 256              	 .section .text.mbedtls_cipher_free,"ax",%progbits
 257              	 .align 1
 258              	 .global mbedtls_cipher_free
 259              	 .code 16
 260              	 .thumb_func
 262              	mbedtls_cipher_free:
 263              	.LFB12:
 161://MAC/Home/Downloads/getstarted-optiga-trust-m/optiga-trust-m-1/externals/mbedtls/library/cipher.c **** 
 162://MAC/Home/Downloads/getstarted-optiga-trust-m/optiga-trust-m-1/externals/mbedtls/library/cipher.c **** void mbedtls_cipher_free( mbedtls_cipher_context_t *ctx )
 163://MAC/Home/Downloads/getstarted-optiga-trust-m/optiga-trust-m-1/externals/mbedtls/library/cipher.c **** {
 264              	 .loc 1 163 0
 265              	 .cfi_startproc
 266              	.LVL23:
 267 0000 10B5     	 push {r4,lr}
 268              	.LCFI4:
 269              	 .cfi_def_cfa_offset 8
 270              	 .cfi_offset 4,-8
 271              	 .cfi_offset 14,-4
 164://MAC/Home/Downloads/getstarted-optiga-trust-m/optiga-trust-m-1/externals/mbedtls/library/cipher.c ****     if( ctx == NULL )
 272              	 .loc 1 164 0
 273 0002 0028     	 cmp r0,#0
 274 0004 0BD0     	 beq .L35
 275 0006 041C     	 mov r4,r0
 165://MAC/Home/Downloads/getstarted-optiga-trust-m/optiga-trust-m-1/externals/mbedtls/library/cipher.c ****         return;
 166://MAC/Home/Downloads/getstarted-optiga-trust-m/optiga-trust-m-1/externals/mbedtls/library/cipher.c **** 
 167://MAC/Home/Downloads/getstarted-optiga-trust-m/optiga-trust-m-1/externals/mbedtls/library/cipher.c **** #if defined(MBEDTLS_CMAC_C)
 168://MAC/Home/Downloads/getstarted-optiga-trust-m/optiga-trust-m-1/externals/mbedtls/library/cipher.c ****     if( ctx->cmac_ctx )
 169://MAC/Home/Downloads/getstarted-optiga-trust-m/optiga-trust-m-1/externals/mbedtls/library/cipher.c ****     {
 170://MAC/Home/Downloads/getstarted-optiga-trust-m/optiga-trust-m-1/externals/mbedtls/library/cipher.c ****        mbedtls_platform_zeroize( ctx->cmac_ctx,
 171://MAC/Home/Downloads/getstarted-optiga-trust-m/optiga-trust-m-1/externals/mbedtls/library/cipher.c ****                                  sizeof( mbedtls_cmac_context_t ) );
 172://MAC/Home/Downloads/getstarted-optiga-trust-m/optiga-trust-m-1/externals/mbedtls/library/cipher.c ****        mbedtls_free( ctx->cmac_ctx );
 173://MAC/Home/Downloads/getstarted-optiga-trust-m/optiga-trust-m-1/externals/mbedtls/library/cipher.c ****     }
 174://MAC/Home/Downloads/getstarted-optiga-trust-m/optiga-trust-m-1/externals/mbedtls/library/cipher.c **** #endif
 175://MAC/Home/Downloads/getstarted-optiga-trust-m/optiga-trust-m-1/externals/mbedtls/library/cipher.c **** 
 176://MAC/Home/Downloads/getstarted-optiga-trust-m/optiga-trust-m-1/externals/mbedtls/library/cipher.c ****     if( ctx->cipher_ctx )
 276              	 .loc 1 176 0
 277 0008 406B     	 ldr r0,[r0,#52]
 278              	.LVL24:
 279 000a 0028     	 cmp r0,#0
 280 000c 03D0     	 beq .L37
 177://MAC/Home/Downloads/getstarted-optiga-trust-m/optiga-trust-m-1/externals/mbedtls/library/cipher.c ****         ctx->cipher_info->base->ctx_free_func( ctx->cipher_ctx );
 281              	 .loc 1 177 0
 282 000e 2368     	 ldr r3,[r4]
 283 0010 9B69     	 ldr r3,[r3,#24]
 284 0012 5B69     	 ldr r3,[r3,#20]
 285 0014 9847     	 blx r3
 286              	.LVL25:
 287              	.L37:
 178://MAC/Home/Downloads/getstarted-optiga-trust-m/optiga-trust-m-1/externals/mbedtls/library/cipher.c **** 
 179://MAC/Home/Downloads/getstarted-optiga-trust-m/optiga-trust-m-1/externals/mbedtls/library/cipher.c ****     mbedtls_platform_zeroize( ctx, sizeof(mbedtls_cipher_context_t) );
 288              	 .loc 1 179 0
 289 0016 201C     	 mov r0,r4
 290 0018 3821     	 mov r1,#56
 291 001a FFF7FEFF 	 bl mbedtls_platform_zeroize
 292              	.LVL26:
 293              	.L35:
 180://MAC/Home/Downloads/getstarted-optiga-trust-m/optiga-trust-m-1/externals/mbedtls/library/cipher.c **** }
 294              	 .loc 1 180 0
 295              	 
 296 001e 10BD     	 pop {r4,pc}
 297              	 .cfi_endproc
 298              	.LFE12:
 300              	 .section .text.mbedtls_cipher_setup,"ax",%progbits
 301              	 .align 1
 302              	 .global mbedtls_cipher_setup
 303              	 .code 16
 304              	 .thumb_func
 306              	mbedtls_cipher_setup:
 307              	.LFB13:
 181://MAC/Home/Downloads/getstarted-optiga-trust-m/optiga-trust-m-1/externals/mbedtls/library/cipher.c **** 
 182://MAC/Home/Downloads/getstarted-optiga-trust-m/optiga-trust-m-1/externals/mbedtls/library/cipher.c **** int mbedtls_cipher_setup( mbedtls_cipher_context_t *ctx, const mbedtls_cipher_info_t *cipher_info )
 183://MAC/Home/Downloads/getstarted-optiga-trust-m/optiga-trust-m-1/externals/mbedtls/library/cipher.c **** {
 308              	 .loc 1 183 0
 309              	 .cfi_startproc
 310              	.LVL27:
 311 0000 38B5     	 push {r3,r4,r5,lr}
 312              	.LCFI5:
 313              	 .cfi_def_cfa_offset 16
 314              	 .cfi_offset 3,-16
 315              	 .cfi_offset 4,-12
 316              	 .cfi_offset 5,-8
 317              	 .cfi_offset 14,-4
 184://MAC/Home/Downloads/getstarted-optiga-trust-m/optiga-trust-m-1/externals/mbedtls/library/cipher.c ****     CIPHER_VALIDATE_RET( ctx != NULL );
 185://MAC/Home/Downloads/getstarted-optiga-trust-m/optiga-trust-m-1/externals/mbedtls/library/cipher.c ****     if( cipher_info == NULL )
 318              	 .loc 1 185 0
 319 0002 0029     	 cmp r1,#0
 320 0004 0ED0     	 beq .L46
 321 0006 0D1C     	 mov r5,r1
 186://MAC/Home/Downloads/getstarted-optiga-trust-m/optiga-trust-m-1/externals/mbedtls/library/cipher.c ****         return( MBEDTLS_ERR_CIPHER_BAD_INPUT_DATA );
 187://MAC/Home/Downloads/getstarted-optiga-trust-m/optiga-trust-m-1/externals/mbedtls/library/cipher.c **** 
 188://MAC/Home/Downloads/getstarted-optiga-trust-m/optiga-trust-m-1/externals/mbedtls/library/cipher.c ****     memset( ctx, 0, sizeof( mbedtls_cipher_context_t ) );
 322              	 .loc 1 188 0
 323 0008 3822     	 mov r2,#56
 324 000a 0021     	 mov r1,#0
 325              	.LVL28:
 326 000c 041C     	 mov r4,r0
 327 000e FFF7FEFF 	 bl memset
 328              	.LVL29:
 189://MAC/Home/Downloads/getstarted-optiga-trust-m/optiga-trust-m-1/externals/mbedtls/library/cipher.c **** 
 190://MAC/Home/Downloads/getstarted-optiga-trust-m/optiga-trust-m-1/externals/mbedtls/library/cipher.c ****     if( NULL == ( ctx->cipher_ctx = cipher_info->base->ctx_alloc_func() ) )
 329              	 .loc 1 190 0
 330 0012 AB69     	 ldr r3,[r5,#24]
 331 0014 1B69     	 ldr r3,[r3,#16]
 332 0016 9847     	 blx r3
 333              	.LVL30:
 334 0018 6063     	 str r0,[r4,#52]
 335 001a 0028     	 cmp r0,#0
 336 001c 04D0     	 beq .L47
 191://MAC/Home/Downloads/getstarted-optiga-trust-m/optiga-trust-m-1/externals/mbedtls/library/cipher.c ****         return( MBEDTLS_ERR_CIPHER_ALLOC_FAILED );
 192://MAC/Home/Downloads/getstarted-optiga-trust-m/optiga-trust-m-1/externals/mbedtls/library/cipher.c **** 
 193://MAC/Home/Downloads/getstarted-optiga-trust-m/optiga-trust-m-1/externals/mbedtls/library/cipher.c ****     ctx->cipher_info = cipher_info;
 337              	 .loc 1 193 0
 338 001e 2560     	 str r5,[r4]
 194://MAC/Home/Downloads/getstarted-optiga-trust-m/optiga-trust-m-1/externals/mbedtls/library/cipher.c **** 
 195://MAC/Home/Downloads/getstarted-optiga-trust-m/optiga-trust-m-1/externals/mbedtls/library/cipher.c **** #if defined(MBEDTLS_CIPHER_MODE_WITH_PADDING)
 196://MAC/Home/Downloads/getstarted-optiga-trust-m/optiga-trust-m-1/externals/mbedtls/library/cipher.c ****     /*
 197://MAC/Home/Downloads/getstarted-optiga-trust-m/optiga-trust-m-1/externals/mbedtls/library/cipher.c ****      * Ignore possible errors caused by a cipher mode that doesn't use padding
 198://MAC/Home/Downloads/getstarted-optiga-trust-m/optiga-trust-m-1/externals/mbedtls/library/cipher.c ****      */
 199://MAC/Home/Downloads/getstarted-optiga-trust-m/optiga-trust-m-1/externals/mbedtls/library/cipher.c **** #if defined(MBEDTLS_CIPHER_PADDING_PKCS7)
 200://MAC/Home/Downloads/getstarted-optiga-trust-m/optiga-trust-m-1/externals/mbedtls/library/cipher.c ****     (void) mbedtls_cipher_set_padding_mode( ctx, MBEDTLS_PADDING_PKCS7 );
 201://MAC/Home/Downloads/getstarted-optiga-trust-m/optiga-trust-m-1/externals/mbedtls/library/cipher.c **** #else
 202://MAC/Home/Downloads/getstarted-optiga-trust-m/optiga-trust-m-1/externals/mbedtls/library/cipher.c ****     (void) mbedtls_cipher_set_padding_mode( ctx, MBEDTLS_PADDING_NONE );
 203://MAC/Home/Downloads/getstarted-optiga-trust-m/optiga-trust-m-1/externals/mbedtls/library/cipher.c **** #endif
 204://MAC/Home/Downloads/getstarted-optiga-trust-m/optiga-trust-m-1/externals/mbedtls/library/cipher.c **** #endif /* MBEDTLS_CIPHER_MODE_WITH_PADDING */
 205://MAC/Home/Downloads/getstarted-optiga-trust-m/optiga-trust-m-1/externals/mbedtls/library/cipher.c **** 
 206://MAC/Home/Downloads/getstarted-optiga-trust-m/optiga-trust-m-1/externals/mbedtls/library/cipher.c ****     return( 0 );
 339              	 .loc 1 206 0
 340 0020 0020     	 mov r0,#0
 341 0022 02E0     	 b .L45
 342              	.LVL31:
 343              	.L46:
 186://MAC/Home/Downloads/getstarted-optiga-trust-m/optiga-trust-m-1/externals/mbedtls/library/cipher.c **** 
 344              	 .loc 1 186 0
 345 0024 0148     	 ldr r0,.L48
 346              	.LVL32:
 347 0026 00E0     	 b .L45
 348              	.LVL33:
 349              	.L47:
 191://MAC/Home/Downloads/getstarted-optiga-trust-m/optiga-trust-m-1/externals/mbedtls/library/cipher.c ****         return( MBEDTLS_ERR_CIPHER_ALLOC_FAILED );
 350              	 .loc 1 191 0
 351 0028 0148     	 ldr r0,.L48+4
 352              	.LVL34:
 353              	.L45:
 207://MAC/Home/Downloads/getstarted-optiga-trust-m/optiga-trust-m-1/externals/mbedtls/library/cipher.c **** }
 354              	 .loc 1 207 0
 355              	 
 356 002a 38BD     	 pop {r3,r4,r5,pc}
 357              	.L49:
 358              	 .align 2
 359              	.L48:
 360 002c 009FFFFF 	 .word -24832
 361 0030 809EFFFF 	 .word -24960
 362              	 .cfi_endproc
 363              	.LFE13:
 365              	 .section .text.mbedtls_cipher_setkey,"ax",%progbits
 366              	 .align 1
 367              	 .global mbedtls_cipher_setkey
 368              	 .code 16
 369              	 .thumb_func
 371              	mbedtls_cipher_setkey:
 372              	.LFB14:
 208://MAC/Home/Downloads/getstarted-optiga-trust-m/optiga-trust-m-1/externals/mbedtls/library/cipher.c **** 
 209://MAC/Home/Downloads/getstarted-optiga-trust-m/optiga-trust-m-1/externals/mbedtls/library/cipher.c **** int mbedtls_cipher_setkey( mbedtls_cipher_context_t *ctx,
 210://MAC/Home/Downloads/getstarted-optiga-trust-m/optiga-trust-m-1/externals/mbedtls/library/cipher.c ****                            const unsigned char *key,
 211://MAC/Home/Downloads/getstarted-optiga-trust-m/optiga-trust-m-1/externals/mbedtls/library/cipher.c ****                            int key_bitlen,
 212://MAC/Home/Downloads/getstarted-optiga-trust-m/optiga-trust-m-1/externals/mbedtls/library/cipher.c ****                            const mbedtls_operation_t operation )
 213://MAC/Home/Downloads/getstarted-optiga-trust-m/optiga-trust-m-1/externals/mbedtls/library/cipher.c **** {
 373              	 .loc 1 213 0
 374              	 .cfi_startproc
 375              	.LVL35:
 376 0000 38B5     	 push {r3,r4,r5,lr}
 377              	.LCFI6:
 378              	 .cfi_def_cfa_offset 16
 379              	 .cfi_offset 3,-16
 380              	 .cfi_offset 4,-12
 381              	 .cfi_offset 5,-8
 382              	 .cfi_offset 14,-4
 214://MAC/Home/Downloads/getstarted-optiga-trust-m/optiga-trust-m-1/externals/mbedtls/library/cipher.c ****     CIPHER_VALIDATE_RET( ctx != NULL );
 215://MAC/Home/Downloads/getstarted-optiga-trust-m/optiga-trust-m-1/externals/mbedtls/library/cipher.c ****     CIPHER_VALIDATE_RET( key != NULL );
 216://MAC/Home/Downloads/getstarted-optiga-trust-m/optiga-trust-m-1/externals/mbedtls/library/cipher.c ****     CIPHER_VALIDATE_RET( operation == MBEDTLS_ENCRYPT ||
 217://MAC/Home/Downloads/getstarted-optiga-trust-m/optiga-trust-m-1/externals/mbedtls/library/cipher.c ****                          operation == MBEDTLS_DECRYPT );
 218://MAC/Home/Downloads/getstarted-optiga-trust-m/optiga-trust-m-1/externals/mbedtls/library/cipher.c ****     if( ctx->cipher_info == NULL )
 383              	 .loc 1 218 0
 384 0002 0468     	 ldr r4,[r0]
 385 0004 002C     	 cmp r4,#0
 386 0006 01D1     	 bne .L51
 387              	.L54:
 219://MAC/Home/Downloads/getstarted-optiga-trust-m/optiga-trust-m-1/externals/mbedtls/library/cipher.c ****         return( MBEDTLS_ERR_CIPHER_BAD_INPUT_DATA );
 388              	 .loc 1 219 0
 389 0008 0C48     	 ldr r0,.L61
 390              	.LVL36:
 391 000a 16E0     	 b .L52
 392              	.LVL37:
 393              	.L51:
 220://MAC/Home/Downloads/getstarted-optiga-trust-m/optiga-trust-m-1/externals/mbedtls/library/cipher.c **** 
 221://MAC/Home/Downloads/getstarted-optiga-trust-m/optiga-trust-m-1/externals/mbedtls/library/cipher.c ****     if( ( ctx->cipher_info->flags & MBEDTLS_CIPHER_VARIABLE_KEY_LEN ) == 0 &&
 394              	 .loc 1 221 0
 395 000c 2569     	 ldr r5,[r4,#16]
 396 000e AD07     	 lsl r5,r5,#30
 397 0010 02D4     	 bmi .L53
 398              	 .loc 1 221 0 is_stmt 0 discriminator 1
 399 0012 6568     	 ldr r5,[r4,#4]
 400 0014 9542     	 cmp r5,r2
 401 0016 F7D1     	 bne .L54
 402              	.L53:
 222://MAC/Home/Downloads/getstarted-optiga-trust-m/optiga-trust-m-1/externals/mbedtls/library/cipher.c ****         (int) ctx->cipher_info->key_bitlen != key_bitlen )
 223://MAC/Home/Downloads/getstarted-optiga-trust-m/optiga-trust-m-1/externals/mbedtls/library/cipher.c ****     {
 224://MAC/Home/Downloads/getstarted-optiga-trust-m/optiga-trust-m-1/externals/mbedtls/library/cipher.c ****         return( MBEDTLS_ERR_CIPHER_BAD_INPUT_DATA );
 225://MAC/Home/Downloads/getstarted-optiga-trust-m/optiga-trust-m-1/externals/mbedtls/library/cipher.c ****     }
 226://MAC/Home/Downloads/getstarted-optiga-trust-m/optiga-trust-m-1/externals/mbedtls/library/cipher.c **** 
 227://MAC/Home/Downloads/getstarted-optiga-trust-m/optiga-trust-m-1/externals/mbedtls/library/cipher.c ****     ctx->key_bitlen = key_bitlen;
 403              	 .loc 1 227 0 is_stmt 1
 404 0018 4260     	 str r2,[r0,#4]
 228://MAC/Home/Downloads/getstarted-optiga-trust-m/optiga-trust-m-1/externals/mbedtls/library/cipher.c ****     ctx->operation = operation;
 405              	 .loc 1 228 0
 406 001a 0372     	 strb r3,[r0,#8]
 229://MAC/Home/Downloads/getstarted-optiga-trust-m/optiga-trust-m-1/externals/mbedtls/library/cipher.c **** 
 230://MAC/Home/Downloads/getstarted-optiga-trust-m/optiga-trust-m-1/externals/mbedtls/library/cipher.c ****     /*
 231://MAC/Home/Downloads/getstarted-optiga-trust-m/optiga-trust-m-1/externals/mbedtls/library/cipher.c ****      * For OFB, CFB and CTR mode always use the encryption key schedule
 232://MAC/Home/Downloads/getstarted-optiga-trust-m/optiga-trust-m-1/externals/mbedtls/library/cipher.c ****      */
 233://MAC/Home/Downloads/getstarted-optiga-trust-m/optiga-trust-m-1/externals/mbedtls/library/cipher.c ****     if( MBEDTLS_ENCRYPT == operation ||
 407              	 .loc 1 233 0
 408 001c 012B     	 cmp r3,#1
 409 001e 03D0     	 beq .L55
 410              	 .loc 1 233 0 is_stmt 0 discriminator 1
 411 0020 6578     	 ldrb r5,[r4,#1]
 412 0022 033D     	 sub r5,r5,#3
 413 0024 022D     	 cmp r5,#2
 414 0026 02D8     	 bhi .L56
 415              	.L55:
 234://MAC/Home/Downloads/getstarted-optiga-trust-m/optiga-trust-m-1/externals/mbedtls/library/cipher.c ****         MBEDTLS_MODE_CFB == ctx->cipher_info->mode ||
 235://MAC/Home/Downloads/getstarted-optiga-trust-m/optiga-trust-m-1/externals/mbedtls/library/cipher.c ****         MBEDTLS_MODE_OFB == ctx->cipher_info->mode ||
 236://MAC/Home/Downloads/getstarted-optiga-trust-m/optiga-trust-m-1/externals/mbedtls/library/cipher.c ****         MBEDTLS_MODE_CTR == ctx->cipher_info->mode )
 237://MAC/Home/Downloads/getstarted-optiga-trust-m/optiga-trust-m-1/externals/mbedtls/library/cipher.c ****     {
 238://MAC/Home/Downloads/getstarted-optiga-trust-m/optiga-trust-m-1/externals/mbedtls/library/cipher.c ****         return( ctx->cipher_info->base->setkey_enc_func( ctx->cipher_ctx, key,
 416              	 .loc 1 238 0 is_stmt 1
 417 0028 A369     	 ldr r3,[r4,#24]
 418              	.LVL38:
 419 002a 9B68     	 ldr r3,[r3,#8]
 420 002c 03E0     	 b .L60
 421              	.LVL39:
 422              	.L56:
 239://MAC/Home/Downloads/getstarted-optiga-trust-m/optiga-trust-m-1/externals/mbedtls/library/cipher.c ****                                                          ctx->key_bitlen ) );
 240://MAC/Home/Downloads/getstarted-optiga-trust-m/optiga-trust-m-1/externals/mbedtls/library/cipher.c ****     }
 241://MAC/Home/Downloads/getstarted-optiga-trust-m/optiga-trust-m-1/externals/mbedtls/library/cipher.c **** 
 242://MAC/Home/Downloads/getstarted-optiga-trust-m/optiga-trust-m-1/externals/mbedtls/library/cipher.c ****     if( MBEDTLS_DECRYPT == operation )
 423              	 .loc 1 242 0
 424 002e 002B     	 cmp r3,#0
 425 0030 EAD1     	 bne .L54
 243://MAC/Home/Downloads/getstarted-optiga-trust-m/optiga-trust-m-1/externals/mbedtls/library/cipher.c ****         return( ctx->cipher_info->base->setkey_dec_func( ctx->cipher_ctx, key,
 426              	 .loc 1 243 0
 427 0032 A369     	 ldr r3,[r4,#24]
 428              	.LVL40:
 429 0034 DB68     	 ldr r3,[r3,#12]
 430              	.L60:
 431 0036 406B     	 ldr r0,[r0,#52]
 432              	.LVL41:
 433 0038 9847     	 blx r3
 434              	.LVL42:
 435              	.L52:
 244://MAC/Home/Downloads/getstarted-optiga-trust-m/optiga-trust-m-1/externals/mbedtls/library/cipher.c ****                                                          ctx->key_bitlen ) );
 245://MAC/Home/Downloads/getstarted-optiga-trust-m/optiga-trust-m-1/externals/mbedtls/library/cipher.c **** 
 246://MAC/Home/Downloads/getstarted-optiga-trust-m/optiga-trust-m-1/externals/mbedtls/library/cipher.c ****     return( MBEDTLS_ERR_CIPHER_BAD_INPUT_DATA );
 247://MAC/Home/Downloads/getstarted-optiga-trust-m/optiga-trust-m-1/externals/mbedtls/library/cipher.c **** }
 436              	 .loc 1 247 0
 437              	 
 438 003a 38BD     	 pop {r3,r4,r5,pc}
 439              	.L62:
 440              	 .align 2
 441              	.L61:
 442 003c 009FFFFF 	 .word -24832
 443              	 .cfi_endproc
 444              	.LFE14:
 446              	 .section .text.mbedtls_cipher_set_iv,"ax",%progbits
 447              	 .align 1
 448              	 .global mbedtls_cipher_set_iv
 449              	 .code 16
 450              	 .thumb_func
 452              	mbedtls_cipher_set_iv:
 453              	.LFB15:
 248://MAC/Home/Downloads/getstarted-optiga-trust-m/optiga-trust-m-1/externals/mbedtls/library/cipher.c **** 
 249://MAC/Home/Downloads/getstarted-optiga-trust-m/optiga-trust-m-1/externals/mbedtls/library/cipher.c **** int mbedtls_cipher_set_iv( mbedtls_cipher_context_t *ctx,
 250://MAC/Home/Downloads/getstarted-optiga-trust-m/optiga-trust-m-1/externals/mbedtls/library/cipher.c ****                            const unsigned char *iv,
 251://MAC/Home/Downloads/getstarted-optiga-trust-m/optiga-trust-m-1/externals/mbedtls/library/cipher.c ****                            size_t iv_len )
 252://MAC/Home/Downloads/getstarted-optiga-trust-m/optiga-trust-m-1/externals/mbedtls/library/cipher.c **** {
 454              	 .loc 1 252 0
 455              	 .cfi_startproc
 456              	.LVL43:
 253://MAC/Home/Downloads/getstarted-optiga-trust-m/optiga-trust-m-1/externals/mbedtls/library/cipher.c ****     size_t actual_iv_size;
 254://MAC/Home/Downloads/getstarted-optiga-trust-m/optiga-trust-m-1/externals/mbedtls/library/cipher.c **** 
 255://MAC/Home/Downloads/getstarted-optiga-trust-m/optiga-trust-m-1/externals/mbedtls/library/cipher.c ****     CIPHER_VALIDATE_RET( ctx != NULL );
 256://MAC/Home/Downloads/getstarted-optiga-trust-m/optiga-trust-m-1/externals/mbedtls/library/cipher.c ****     CIPHER_VALIDATE_RET( iv_len == 0 || iv != NULL );
 257://MAC/Home/Downloads/getstarted-optiga-trust-m/optiga-trust-m-1/externals/mbedtls/library/cipher.c ****     if( ctx->cipher_info == NULL )
 457              	 .loc 1 257 0
 458 0000 0368     	 ldr r3,[r0]
 252://MAC/Home/Downloads/getstarted-optiga-trust-m/optiga-trust-m-1/externals/mbedtls/library/cipher.c ****     size_t actual_iv_size;
 459              	 .loc 1 252 0
 460 0002 70B5     	 push {r4,r5,r6,lr}
 461              	.LCFI7:
 462              	 .cfi_def_cfa_offset 16
 463              	 .cfi_offset 4,-16
 464              	 .cfi_offset 5,-12
 465              	 .cfi_offset 6,-8
 466              	 .cfi_offset 14,-4
 467              	 .loc 1 257 0
 468 0004 002B     	 cmp r3,#0
 469 0006 15D0     	 beq .L69
 258://MAC/Home/Downloads/getstarted-optiga-trust-m/optiga-trust-m-1/externals/mbedtls/library/cipher.c ****         return( MBEDTLS_ERR_CIPHER_BAD_INPUT_DATA );
 259://MAC/Home/Downloads/getstarted-optiga-trust-m/optiga-trust-m-1/externals/mbedtls/library/cipher.c **** 
 260://MAC/Home/Downloads/getstarted-optiga-trust-m/optiga-trust-m-1/externals/mbedtls/library/cipher.c ****     /* avoid buffer overflow in ctx->iv */
 261://MAC/Home/Downloads/getstarted-optiga-trust-m/optiga-trust-m-1/externals/mbedtls/library/cipher.c ****     if( iv_len > MBEDTLS_MAX_IV_LENGTH )
 470              	 .loc 1 261 0
 471 0008 102A     	 cmp r2,#16
 472 000a 11D8     	 bhi .L67
 262://MAC/Home/Downloads/getstarted-optiga-trust-m/optiga-trust-m-1/externals/mbedtls/library/cipher.c ****         return( MBEDTLS_ERR_CIPHER_FEATURE_UNAVAILABLE );
 263://MAC/Home/Downloads/getstarted-optiga-trust-m/optiga-trust-m-1/externals/mbedtls/library/cipher.c **** 
 264://MAC/Home/Downloads/getstarted-optiga-trust-m/optiga-trust-m-1/externals/mbedtls/library/cipher.c ****     if( ( ctx->cipher_info->flags & MBEDTLS_CIPHER_VARIABLE_IV_LEN ) != 0 )
 473              	 .loc 1 264 0
 474 000c 1C69     	 ldr r4,[r3,#16]
 475 000e E407     	 lsl r4,r4,#31
 476 0010 03D4     	 bmi .L68
 265://MAC/Home/Downloads/getstarted-optiga-trust-m/optiga-trust-m-1/externals/mbedtls/library/cipher.c ****         actual_iv_size = iv_len;
 266://MAC/Home/Downloads/getstarted-optiga-trust-m/optiga-trust-m-1/externals/mbedtls/library/cipher.c ****     else
 267://MAC/Home/Downloads/getstarted-optiga-trust-m/optiga-trust-m-1/externals/mbedtls/library/cipher.c ****     {
 268://MAC/Home/Downloads/getstarted-optiga-trust-m/optiga-trust-m-1/externals/mbedtls/library/cipher.c ****         actual_iv_size = ctx->cipher_info->iv_size;
 477              	 .loc 1 268 0
 478 0012 DD68     	 ldr r5,[r3,#12]
 479              	.LVL44:
 269://MAC/Home/Downloads/getstarted-optiga-trust-m/optiga-trust-m-1/externals/mbedtls/library/cipher.c **** 
 270://MAC/Home/Downloads/getstarted-optiga-trust-m/optiga-trust-m-1/externals/mbedtls/library/cipher.c ****         /* avoid reading past the end of input buffer */
 271://MAC/Home/Downloads/getstarted-optiga-trust-m/optiga-trust-m-1/externals/mbedtls/library/cipher.c ****         if( actual_iv_size > iv_len )
 480              	 .loc 1 271 0
 481 0014 9542     	 cmp r5,r2
 482 0016 01D9     	 bls .L65
 483 0018 0CE0     	 b .L69
 484              	.LVL45:
 485              	.L68:
 486 001a 151C     	 mov r5,r2
 487              	.L65:
 488              	.LVL46:
 272://MAC/Home/Downloads/getstarted-optiga-trust-m/optiga-trust-m-1/externals/mbedtls/library/cipher.c ****             return( MBEDTLS_ERR_CIPHER_BAD_INPUT_DATA );
 273://MAC/Home/Downloads/getstarted-optiga-trust-m/optiga-trust-m-1/externals/mbedtls/library/cipher.c ****     }
 274://MAC/Home/Downloads/getstarted-optiga-trust-m/optiga-trust-m-1/externals/mbedtls/library/cipher.c **** 
 275://MAC/Home/Downloads/getstarted-optiga-trust-m/optiga-trust-m-1/externals/mbedtls/library/cipher.c **** #if defined(MBEDTLS_CHACHA20_C)
 276://MAC/Home/Downloads/getstarted-optiga-trust-m/optiga-trust-m-1/externals/mbedtls/library/cipher.c ****     if ( ctx->cipher_info->type == MBEDTLS_CIPHER_CHACHA20 )
 277://MAC/Home/Downloads/getstarted-optiga-trust-m/optiga-trust-m-1/externals/mbedtls/library/cipher.c ****     {
 278://MAC/Home/Downloads/getstarted-optiga-trust-m/optiga-trust-m-1/externals/mbedtls/library/cipher.c ****         if ( 0 != mbedtls_chacha20_starts( (mbedtls_chacha20_context*)ctx->cipher_ctx,
 279://MAC/Home/Downloads/getstarted-optiga-trust-m/optiga-trust-m-1/externals/mbedtls/library/cipher.c ****                                            iv,
 280://MAC/Home/Downloads/getstarted-optiga-trust-m/optiga-trust-m-1/externals/mbedtls/library/cipher.c ****                                            0U ) ) /* Initial counter value */
 281://MAC/Home/Downloads/getstarted-optiga-trust-m/optiga-trust-m-1/externals/mbedtls/library/cipher.c ****         {
 282://MAC/Home/Downloads/getstarted-optiga-trust-m/optiga-trust-m-1/externals/mbedtls/library/cipher.c ****             return( MBEDTLS_ERR_CIPHER_BAD_INPUT_DATA );
 283://MAC/Home/Downloads/getstarted-optiga-trust-m/optiga-trust-m-1/externals/mbedtls/library/cipher.c ****         }
 284://MAC/Home/Downloads/getstarted-optiga-trust-m/optiga-trust-m-1/externals/mbedtls/library/cipher.c ****     }
 285://MAC/Home/Downloads/getstarted-optiga-trust-m/optiga-trust-m-1/externals/mbedtls/library/cipher.c **** #endif
 286://MAC/Home/Downloads/getstarted-optiga-trust-m/optiga-trust-m-1/externals/mbedtls/library/cipher.c **** 
 287://MAC/Home/Downloads/getstarted-optiga-trust-m/optiga-trust-m-1/externals/mbedtls/library/cipher.c ****     if ( actual_iv_size != 0 )
 288://MAC/Home/Downloads/getstarted-optiga-trust-m/optiga-trust-m-1/externals/mbedtls/library/cipher.c ****     {
 289://MAC/Home/Downloads/getstarted-optiga-trust-m/optiga-trust-m-1/externals/mbedtls/library/cipher.c ****         memcpy( ctx->iv, iv, actual_iv_size );
 290://MAC/Home/Downloads/getstarted-optiga-trust-m/optiga-trust-m-1/externals/mbedtls/library/cipher.c ****         ctx->iv_size = actual_iv_size;
 291://MAC/Home/Downloads/getstarted-optiga-trust-m/optiga-trust-m-1/externals/mbedtls/library/cipher.c ****     }
 292://MAC/Home/Downloads/getstarted-optiga-trust-m/optiga-trust-m-1/externals/mbedtls/library/cipher.c **** 
 293://MAC/Home/Downloads/getstarted-optiga-trust-m/optiga-trust-m-1/externals/mbedtls/library/cipher.c ****     return( 0 );
 489              	 .loc 1 293 0
 490 001c 0026     	 mov r6,#0
 287://MAC/Home/Downloads/getstarted-optiga-trust-m/optiga-trust-m-1/externals/mbedtls/library/cipher.c ****     {
 491              	 .loc 1 287 0
 492 001e B542     	 cmp r5,r6
 493 0020 09D0     	 beq .L64
 494 0022 041C     	 mov r4,r0
 289://MAC/Home/Downloads/getstarted-optiga-trust-m/optiga-trust-m-1/externals/mbedtls/library/cipher.c ****         ctx->iv_size = actual_iv_size;
 495              	 .loc 1 289 0
 496 0024 2A1C     	 mov r2,r5
 497              	.LVL47:
 498 0026 2030     	 add r0,r0,#32
 499              	.LVL48:
 500 0028 FFF7FEFF 	 bl memcpy
 501              	.LVL49:
 290://MAC/Home/Downloads/getstarted-optiga-trust-m/optiga-trust-m-1/externals/mbedtls/library/cipher.c ****     }
 502              	 .loc 1 290 0
 503 002c 2563     	 str r5,[r4,#48]
 504 002e 02E0     	 b .L64
 505              	.LVL50:
 506              	.L67:
 262://MAC/Home/Downloads/getstarted-optiga-trust-m/optiga-trust-m-1/externals/mbedtls/library/cipher.c **** 
 507              	 .loc 1 262 0
 508 0030 024E     	 ldr r6,.L72
 509 0032 00E0     	 b .L64
 510              	.L69:
 258://MAC/Home/Downloads/getstarted-optiga-trust-m/optiga-trust-m-1/externals/mbedtls/library/cipher.c **** 
 511              	 .loc 1 258 0
 512 0034 024E     	 ldr r6,.L72+4
 513              	.LVL51:
 514              	.L64:
 294://MAC/Home/Downloads/getstarted-optiga-trust-m/optiga-trust-m-1/externals/mbedtls/library/cipher.c **** }
 515              	 .loc 1 294 0
 516 0036 301C     	 mov r0,r6
 517              	 
 518 0038 70BD     	 pop {r4,r5,r6,pc}
 519              	.L73:
 520 003a C046     	 .align 2
 521              	.L72:
 522 003c 809FFFFF 	 .word -24704
 523 0040 009FFFFF 	 .word -24832
 524              	 .cfi_endproc
 525              	.LFE15:
 527              	 .section .text.mbedtls_cipher_reset,"ax",%progbits
 528              	 .align 1
 529              	 .global mbedtls_cipher_reset
 530              	 .code 16
 531              	 .thumb_func
 533              	mbedtls_cipher_reset:
 534              	.LFB16:
 295://MAC/Home/Downloads/getstarted-optiga-trust-m/optiga-trust-m-1/externals/mbedtls/library/cipher.c **** 
 296://MAC/Home/Downloads/getstarted-optiga-trust-m/optiga-trust-m-1/externals/mbedtls/library/cipher.c **** int mbedtls_cipher_reset( mbedtls_cipher_context_t *ctx )
 297://MAC/Home/Downloads/getstarted-optiga-trust-m/optiga-trust-m-1/externals/mbedtls/library/cipher.c **** {
 535              	 .loc 1 297 0
 536              	 .cfi_startproc
 537              	.LVL52:
 298://MAC/Home/Downloads/getstarted-optiga-trust-m/optiga-trust-m-1/externals/mbedtls/library/cipher.c ****     CIPHER_VALIDATE_RET( ctx != NULL );
 299://MAC/Home/Downloads/getstarted-optiga-trust-m/optiga-trust-m-1/externals/mbedtls/library/cipher.c ****     if( ctx->cipher_info == NULL )
 538              	 .loc 1 299 0
 539 0000 0368     	 ldr r3,[r0]
 540 0002 002B     	 cmp r3,#0
 541 0004 03D0     	 beq .L76
 300://MAC/Home/Downloads/getstarted-optiga-trust-m/optiga-trust-m-1/externals/mbedtls/library/cipher.c ****         return( MBEDTLS_ERR_CIPHER_BAD_INPUT_DATA );
 301://MAC/Home/Downloads/getstarted-optiga-trust-m/optiga-trust-m-1/externals/mbedtls/library/cipher.c **** 
 302://MAC/Home/Downloads/getstarted-optiga-trust-m/optiga-trust-m-1/externals/mbedtls/library/cipher.c ****     ctx->unprocessed_len = 0;
 542              	 .loc 1 302 0
 543 0006 0023     	 mov r3,#0
 544 0008 C361     	 str r3,[r0,#28]
 303://MAC/Home/Downloads/getstarted-optiga-trust-m/optiga-trust-m-1/externals/mbedtls/library/cipher.c **** 
 304://MAC/Home/Downloads/getstarted-optiga-trust-m/optiga-trust-m-1/externals/mbedtls/library/cipher.c ****     return( 0 );
 545              	 .loc 1 304 0
 546 000a 181C     	 mov r0,r3
 547              	.LVL53:
 548 000c 00E0     	 b .L75
 549              	.LVL54:
 550              	.L76:
 300://MAC/Home/Downloads/getstarted-optiga-trust-m/optiga-trust-m-1/externals/mbedtls/library/cipher.c ****         return( MBEDTLS_ERR_CIPHER_BAD_INPUT_DATA );
 551              	 .loc 1 300 0
 552 000e 0148     	 ldr r0,.L77
 553              	.LVL55:
 554              	.L75:
 305://MAC/Home/Downloads/getstarted-optiga-trust-m/optiga-trust-m-1/externals/mbedtls/library/cipher.c **** }
 555              	 .loc 1 305 0
 556              	 
 557 0010 7047     	 bx lr
 558              	.L78:
 559 0012 C046     	 .align 2
 560              	.L77:
 561 0014 009FFFFF 	 .word -24832
 562              	 .cfi_endproc
 563              	.LFE16:
 565              	 .global __aeabi_uidivmod
 566              	 .section .text.mbedtls_cipher_update,"ax",%progbits
 567              	 .align 1
 568              	 .global mbedtls_cipher_update
 569              	 .code 16
 570              	 .thumb_func
 572              	mbedtls_cipher_update:
 573              	.LFB17:
 306://MAC/Home/Downloads/getstarted-optiga-trust-m/optiga-trust-m-1/externals/mbedtls/library/cipher.c **** 
 307://MAC/Home/Downloads/getstarted-optiga-trust-m/optiga-trust-m-1/externals/mbedtls/library/cipher.c **** #if defined(MBEDTLS_GCM_C) || defined(MBEDTLS_CHACHAPOLY_C)
 308://MAC/Home/Downloads/getstarted-optiga-trust-m/optiga-trust-m-1/externals/mbedtls/library/cipher.c **** int mbedtls_cipher_update_ad( mbedtls_cipher_context_t *ctx,
 309://MAC/Home/Downloads/getstarted-optiga-trust-m/optiga-trust-m-1/externals/mbedtls/library/cipher.c ****                       const unsigned char *ad, size_t ad_len )
 310://MAC/Home/Downloads/getstarted-optiga-trust-m/optiga-trust-m-1/externals/mbedtls/library/cipher.c **** {
 311://MAC/Home/Downloads/getstarted-optiga-trust-m/optiga-trust-m-1/externals/mbedtls/library/cipher.c ****     CIPHER_VALIDATE_RET( ctx != NULL );
 312://MAC/Home/Downloads/getstarted-optiga-trust-m/optiga-trust-m-1/externals/mbedtls/library/cipher.c ****     CIPHER_VALIDATE_RET( ad_len == 0 || ad != NULL );
 313://MAC/Home/Downloads/getstarted-optiga-trust-m/optiga-trust-m-1/externals/mbedtls/library/cipher.c ****     if( ctx->cipher_info == NULL )
 314://MAC/Home/Downloads/getstarted-optiga-trust-m/optiga-trust-m-1/externals/mbedtls/library/cipher.c ****         return( MBEDTLS_ERR_CIPHER_BAD_INPUT_DATA );
 315://MAC/Home/Downloads/getstarted-optiga-trust-m/optiga-trust-m-1/externals/mbedtls/library/cipher.c **** 
 316://MAC/Home/Downloads/getstarted-optiga-trust-m/optiga-trust-m-1/externals/mbedtls/library/cipher.c **** #if defined(MBEDTLS_GCM_C)
 317://MAC/Home/Downloads/getstarted-optiga-trust-m/optiga-trust-m-1/externals/mbedtls/library/cipher.c ****     if( MBEDTLS_MODE_GCM == ctx->cipher_info->mode )
 318://MAC/Home/Downloads/getstarted-optiga-trust-m/optiga-trust-m-1/externals/mbedtls/library/cipher.c ****     {
 319://MAC/Home/Downloads/getstarted-optiga-trust-m/optiga-trust-m-1/externals/mbedtls/library/cipher.c ****         return( mbedtls_gcm_starts( (mbedtls_gcm_context *) ctx->cipher_ctx, ctx->operation,
 320://MAC/Home/Downloads/getstarted-optiga-trust-m/optiga-trust-m-1/externals/mbedtls/library/cipher.c ****                                     ctx->iv, ctx->iv_size, ad, ad_len ) );
 321://MAC/Home/Downloads/getstarted-optiga-trust-m/optiga-trust-m-1/externals/mbedtls/library/cipher.c ****     }
 322://MAC/Home/Downloads/getstarted-optiga-trust-m/optiga-trust-m-1/externals/mbedtls/library/cipher.c **** #endif
 323://MAC/Home/Downloads/getstarted-optiga-trust-m/optiga-trust-m-1/externals/mbedtls/library/cipher.c **** 
 324://MAC/Home/Downloads/getstarted-optiga-trust-m/optiga-trust-m-1/externals/mbedtls/library/cipher.c **** #if defined(MBEDTLS_CHACHAPOLY_C)
 325://MAC/Home/Downloads/getstarted-optiga-trust-m/optiga-trust-m-1/externals/mbedtls/library/cipher.c ****     if (MBEDTLS_CIPHER_CHACHA20_POLY1305 == ctx->cipher_info->type )
 326://MAC/Home/Downloads/getstarted-optiga-trust-m/optiga-trust-m-1/externals/mbedtls/library/cipher.c ****     {
 327://MAC/Home/Downloads/getstarted-optiga-trust-m/optiga-trust-m-1/externals/mbedtls/library/cipher.c ****         int result;
 328://MAC/Home/Downloads/getstarted-optiga-trust-m/optiga-trust-m-1/externals/mbedtls/library/cipher.c ****         mbedtls_chachapoly_mode_t mode;
 329://MAC/Home/Downloads/getstarted-optiga-trust-m/optiga-trust-m-1/externals/mbedtls/library/cipher.c **** 
 330://MAC/Home/Downloads/getstarted-optiga-trust-m/optiga-trust-m-1/externals/mbedtls/library/cipher.c ****         mode = ( ctx->operation == MBEDTLS_ENCRYPT )
 331://MAC/Home/Downloads/getstarted-optiga-trust-m/optiga-trust-m-1/externals/mbedtls/library/cipher.c ****                 ? MBEDTLS_CHACHAPOLY_ENCRYPT
 332://MAC/Home/Downloads/getstarted-optiga-trust-m/optiga-trust-m-1/externals/mbedtls/library/cipher.c ****                 : MBEDTLS_CHACHAPOLY_DECRYPT;
 333://MAC/Home/Downloads/getstarted-optiga-trust-m/optiga-trust-m-1/externals/mbedtls/library/cipher.c **** 
 334://MAC/Home/Downloads/getstarted-optiga-trust-m/optiga-trust-m-1/externals/mbedtls/library/cipher.c ****         result = mbedtls_chachapoly_starts( (mbedtls_chachapoly_context*) ctx->cipher_ctx,
 335://MAC/Home/Downloads/getstarted-optiga-trust-m/optiga-trust-m-1/externals/mbedtls/library/cipher.c ****                                                         ctx->iv,
 336://MAC/Home/Downloads/getstarted-optiga-trust-m/optiga-trust-m-1/externals/mbedtls/library/cipher.c ****                                                         mode );
 337://MAC/Home/Downloads/getstarted-optiga-trust-m/optiga-trust-m-1/externals/mbedtls/library/cipher.c ****         if ( result != 0 )
 338://MAC/Home/Downloads/getstarted-optiga-trust-m/optiga-trust-m-1/externals/mbedtls/library/cipher.c ****             return( result );
 339://MAC/Home/Downloads/getstarted-optiga-trust-m/optiga-trust-m-1/externals/mbedtls/library/cipher.c **** 
 340://MAC/Home/Downloads/getstarted-optiga-trust-m/optiga-trust-m-1/externals/mbedtls/library/cipher.c ****         return( mbedtls_chachapoly_update_aad( (mbedtls_chachapoly_context*) ctx->cipher_ctx,
 341://MAC/Home/Downloads/getstarted-optiga-trust-m/optiga-trust-m-1/externals/mbedtls/library/cipher.c ****                                                ad, ad_len ) );
 342://MAC/Home/Downloads/getstarted-optiga-trust-m/optiga-trust-m-1/externals/mbedtls/library/cipher.c ****     }
 343://MAC/Home/Downloads/getstarted-optiga-trust-m/optiga-trust-m-1/externals/mbedtls/library/cipher.c **** #endif
 344://MAC/Home/Downloads/getstarted-optiga-trust-m/optiga-trust-m-1/externals/mbedtls/library/cipher.c **** 
 345://MAC/Home/Downloads/getstarted-optiga-trust-m/optiga-trust-m-1/externals/mbedtls/library/cipher.c ****     return( 0 );
 346://MAC/Home/Downloads/getstarted-optiga-trust-m/optiga-trust-m-1/externals/mbedtls/library/cipher.c **** }
 347://MAC/Home/Downloads/getstarted-optiga-trust-m/optiga-trust-m-1/externals/mbedtls/library/cipher.c **** #endif /* MBEDTLS_GCM_C || MBEDTLS_CHACHAPOLY_C */
 348://MAC/Home/Downloads/getstarted-optiga-trust-m/optiga-trust-m-1/externals/mbedtls/library/cipher.c **** 
 349://MAC/Home/Downloads/getstarted-optiga-trust-m/optiga-trust-m-1/externals/mbedtls/library/cipher.c **** int mbedtls_cipher_update( mbedtls_cipher_context_t *ctx, const unsigned char *input,
 350://MAC/Home/Downloads/getstarted-optiga-trust-m/optiga-trust-m-1/externals/mbedtls/library/cipher.c ****                    size_t ilen, unsigned char *output, size_t *olen )
 351://MAC/Home/Downloads/getstarted-optiga-trust-m/optiga-trust-m-1/externals/mbedtls/library/cipher.c **** {
 574              	 .loc 1 351 0
 575              	 .cfi_startproc
 576              	.LVL56:
 577 0000 F8B5     	 push {r3,r4,r5,r6,r7,lr}
 578              	.LCFI8:
 579              	 .cfi_def_cfa_offset 24
 580              	 .cfi_offset 3,-24
 581              	 .cfi_offset 4,-20
 582              	 .cfi_offset 5,-16
 583              	 .cfi_offset 6,-12
 584              	 .cfi_offset 7,-8
 585              	 .cfi_offset 14,-4
 352://MAC/Home/Downloads/getstarted-optiga-trust-m/optiga-trust-m-1/externals/mbedtls/library/cipher.c ****     int ret;
 353://MAC/Home/Downloads/getstarted-optiga-trust-m/optiga-trust-m-1/externals/mbedtls/library/cipher.c ****     size_t block_size;
 354://MAC/Home/Downloads/getstarted-optiga-trust-m/optiga-trust-m-1/externals/mbedtls/library/cipher.c **** 
 355://MAC/Home/Downloads/getstarted-optiga-trust-m/optiga-trust-m-1/externals/mbedtls/library/cipher.c ****     CIPHER_VALIDATE_RET( ctx != NULL );
 356://MAC/Home/Downloads/getstarted-optiga-trust-m/optiga-trust-m-1/externals/mbedtls/library/cipher.c ****     CIPHER_VALIDATE_RET( ilen == 0 || input != NULL );
 357://MAC/Home/Downloads/getstarted-optiga-trust-m/optiga-trust-m-1/externals/mbedtls/library/cipher.c ****     CIPHER_VALIDATE_RET( output != NULL );
 358://MAC/Home/Downloads/getstarted-optiga-trust-m/optiga-trust-m-1/externals/mbedtls/library/cipher.c ****     CIPHER_VALIDATE_RET( olen != NULL );
 359://MAC/Home/Downloads/getstarted-optiga-trust-m/optiga-trust-m-1/externals/mbedtls/library/cipher.c ****     if( ctx->cipher_info == NULL )
 586              	 .loc 1 359 0
 587 0002 0668     	 ldr r6,[r0]
 351://MAC/Home/Downloads/getstarted-optiga-trust-m/optiga-trust-m-1/externals/mbedtls/library/cipher.c ****     int ret;
 588              	 .loc 1 351 0
 589 0004 069F     	 ldr r7,[sp,#24]
 590              	 .loc 1 359 0
 591 0006 002E     	 cmp r6,#0
 592 0008 01D1     	 bne .L80
 593              	.LVL57:
 594              	.L83:
 360://MAC/Home/Downloads/getstarted-optiga-trust-m/optiga-trust-m-1/externals/mbedtls/library/cipher.c ****         return( MBEDTLS_ERR_CIPHER_BAD_INPUT_DATA );
 595              	 .loc 1 360 0
 596 000a 1448     	 ldr r0,.L87
 597 000c 24E0     	 b .L81
 598              	.LVL58:
 599              	.L80:
 600 000e 151C     	 mov r5,r2
 601 0010 0A1C     	 mov r2,r1
 602              	.LVL59:
 361://MAC/Home/Downloads/getstarted-optiga-trust-m/optiga-trust-m-1/externals/mbedtls/library/cipher.c **** 
 362://MAC/Home/Downloads/getstarted-optiga-trust-m/optiga-trust-m-1/externals/mbedtls/library/cipher.c ****     *olen = 0;
 603              	 .loc 1 362 0
 604 0012 0021     	 mov r1,#0
 605              	.LVL60:
 606 0014 3960     	 str r1,[r7]
 607              	.LVL61:
 608 0016 041C     	 mov r4,r0
 363://MAC/Home/Downloads/getstarted-optiga-trust-m/optiga-trust-m-1/externals/mbedtls/library/cipher.c ****     block_size = mbedtls_cipher_get_block_size( ctx );
 364://MAC/Home/Downloads/getstarted-optiga-trust-m/optiga-trust-m-1/externals/mbedtls/library/cipher.c **** 
 365://MAC/Home/Downloads/getstarted-optiga-trust-m/optiga-trust-m-1/externals/mbedtls/library/cipher.c ****     if( ctx->cipher_info->mode == MBEDTLS_MODE_ECB )
 609              	 .loc 1 365 0
 610 0018 7078     	 ldrb r0,[r6,#1]
 611              	.LVL62:
 612              	.LBB6:
 613              	.LBB7:
 614              	 .file 2 "//MAC/Home/Downloads/getstarted-optiga-trust-m/optiga-trust-m-1/externals/mbedtls/include/mbedtls/cipher.h"
   1://MAC/Home/Downloads/getstarted-optiga-trust-m/optiga-trust-m-1/externals/mbedtls/include/mbedtls/cipher.h **** /**
   2://MAC/Home/Downloads/getstarted-optiga-trust-m/optiga-trust-m-1/externals/mbedtls/include/mbedtls/cipher.h ****  * \file cipher.h
   3://MAC/Home/Downloads/getstarted-optiga-trust-m/optiga-trust-m-1/externals/mbedtls/include/mbedtls/cipher.h ****  *
   4://MAC/Home/Downloads/getstarted-optiga-trust-m/optiga-trust-m-1/externals/mbedtls/include/mbedtls/cipher.h ****  * \brief This file contains an abstraction interface for use with the cipher
   5://MAC/Home/Downloads/getstarted-optiga-trust-m/optiga-trust-m-1/externals/mbedtls/include/mbedtls/cipher.h ****  * primitives provided by the library. It provides a common interface to all of
   6://MAC/Home/Downloads/getstarted-optiga-trust-m/optiga-trust-m-1/externals/mbedtls/include/mbedtls/cipher.h ****  * the available cipher operations.
   7://MAC/Home/Downloads/getstarted-optiga-trust-m/optiga-trust-m-1/externals/mbedtls/include/mbedtls/cipher.h ****  *
   8://MAC/Home/Downloads/getstarted-optiga-trust-m/optiga-trust-m-1/externals/mbedtls/include/mbedtls/cipher.h ****  * \author Adriaan de Jong <dejong@fox-it.com>
   9://MAC/Home/Downloads/getstarted-optiga-trust-m/optiga-trust-m-1/externals/mbedtls/include/mbedtls/cipher.h ****  */
  10://MAC/Home/Downloads/getstarted-optiga-trust-m/optiga-trust-m-1/externals/mbedtls/include/mbedtls/cipher.h **** /*
  11://MAC/Home/Downloads/getstarted-optiga-trust-m/optiga-trust-m-1/externals/mbedtls/include/mbedtls/cipher.h ****  *  Copyright (C) 2006-2018, Arm Limited (or its affiliates), All Rights Reserved
  12://MAC/Home/Downloads/getstarted-optiga-trust-m/optiga-trust-m-1/externals/mbedtls/include/mbedtls/cipher.h ****  *  SPDX-License-Identifier: Apache-2.0
  13://MAC/Home/Downloads/getstarted-optiga-trust-m/optiga-trust-m-1/externals/mbedtls/include/mbedtls/cipher.h ****  *
  14://MAC/Home/Downloads/getstarted-optiga-trust-m/optiga-trust-m-1/externals/mbedtls/include/mbedtls/cipher.h ****  *  Licensed under the Apache License, Version 2.0 (the "License"); you may
  15://MAC/Home/Downloads/getstarted-optiga-trust-m/optiga-trust-m-1/externals/mbedtls/include/mbedtls/cipher.h ****  *  not use this file except in compliance with the License.
  16://MAC/Home/Downloads/getstarted-optiga-trust-m/optiga-trust-m-1/externals/mbedtls/include/mbedtls/cipher.h ****  *  You may obtain a copy of the License at
  17://MAC/Home/Downloads/getstarted-optiga-trust-m/optiga-trust-m-1/externals/mbedtls/include/mbedtls/cipher.h ****  *
  18://MAC/Home/Downloads/getstarted-optiga-trust-m/optiga-trust-m-1/externals/mbedtls/include/mbedtls/cipher.h ****  *  http://www.apache.org/licenses/LICENSE-2.0
  19://MAC/Home/Downloads/getstarted-optiga-trust-m/optiga-trust-m-1/externals/mbedtls/include/mbedtls/cipher.h ****  *
  20://MAC/Home/Downloads/getstarted-optiga-trust-m/optiga-trust-m-1/externals/mbedtls/include/mbedtls/cipher.h ****  *  Unless required by applicable law or agreed to in writing, software
  21://MAC/Home/Downloads/getstarted-optiga-trust-m/optiga-trust-m-1/externals/mbedtls/include/mbedtls/cipher.h ****  *  distributed under the License is distributed on an "AS IS" BASIS, WITHOUT
  22://MAC/Home/Downloads/getstarted-optiga-trust-m/optiga-trust-m-1/externals/mbedtls/include/mbedtls/cipher.h ****  *  WARRANTIES OR CONDITIONS OF ANY KIND, either express or implied.
  23://MAC/Home/Downloads/getstarted-optiga-trust-m/optiga-trust-m-1/externals/mbedtls/include/mbedtls/cipher.h ****  *  See the License for the specific language governing permissions and
  24://MAC/Home/Downloads/getstarted-optiga-trust-m/optiga-trust-m-1/externals/mbedtls/include/mbedtls/cipher.h ****  *  limitations under the License.
  25://MAC/Home/Downloads/getstarted-optiga-trust-m/optiga-trust-m-1/externals/mbedtls/include/mbedtls/cipher.h ****  *
  26://MAC/Home/Downloads/getstarted-optiga-trust-m/optiga-trust-m-1/externals/mbedtls/include/mbedtls/cipher.h ****  *  This file is part of Mbed TLS (https://tls.mbed.org)
  27://MAC/Home/Downloads/getstarted-optiga-trust-m/optiga-trust-m-1/externals/mbedtls/include/mbedtls/cipher.h ****  */
  28://MAC/Home/Downloads/getstarted-optiga-trust-m/optiga-trust-m-1/externals/mbedtls/include/mbedtls/cipher.h **** 
  29://MAC/Home/Downloads/getstarted-optiga-trust-m/optiga-trust-m-1/externals/mbedtls/include/mbedtls/cipher.h **** #ifndef MBEDTLS_CIPHER_H
  30://MAC/Home/Downloads/getstarted-optiga-trust-m/optiga-trust-m-1/externals/mbedtls/include/mbedtls/cipher.h **** #define MBEDTLS_CIPHER_H
  31://MAC/Home/Downloads/getstarted-optiga-trust-m/optiga-trust-m-1/externals/mbedtls/include/mbedtls/cipher.h **** 
  32://MAC/Home/Downloads/getstarted-optiga-trust-m/optiga-trust-m-1/externals/mbedtls/include/mbedtls/cipher.h **** #if !defined(MBEDTLS_CONFIG_FILE)
  33://MAC/Home/Downloads/getstarted-optiga-trust-m/optiga-trust-m-1/externals/mbedtls/include/mbedtls/cipher.h **** #include "config.h"
  34://MAC/Home/Downloads/getstarted-optiga-trust-m/optiga-trust-m-1/externals/mbedtls/include/mbedtls/cipher.h **** #else
  35://MAC/Home/Downloads/getstarted-optiga-trust-m/optiga-trust-m-1/externals/mbedtls/include/mbedtls/cipher.h **** #include MBEDTLS_CONFIG_FILE
  36://MAC/Home/Downloads/getstarted-optiga-trust-m/optiga-trust-m-1/externals/mbedtls/include/mbedtls/cipher.h **** #endif
  37://MAC/Home/Downloads/getstarted-optiga-trust-m/optiga-trust-m-1/externals/mbedtls/include/mbedtls/cipher.h **** 
  38://MAC/Home/Downloads/getstarted-optiga-trust-m/optiga-trust-m-1/externals/mbedtls/include/mbedtls/cipher.h **** #include <stddef.h>
  39://MAC/Home/Downloads/getstarted-optiga-trust-m/optiga-trust-m-1/externals/mbedtls/include/mbedtls/cipher.h **** #include "mbedtls/platform_util.h"
  40://MAC/Home/Downloads/getstarted-optiga-trust-m/optiga-trust-m-1/externals/mbedtls/include/mbedtls/cipher.h **** 
  41://MAC/Home/Downloads/getstarted-optiga-trust-m/optiga-trust-m-1/externals/mbedtls/include/mbedtls/cipher.h **** #if defined(MBEDTLS_GCM_C) || defined(MBEDTLS_CCM_C) || defined(MBEDTLS_CHACHAPOLY_C)
  42://MAC/Home/Downloads/getstarted-optiga-trust-m/optiga-trust-m-1/externals/mbedtls/include/mbedtls/cipher.h **** #define MBEDTLS_CIPHER_MODE_AEAD
  43://MAC/Home/Downloads/getstarted-optiga-trust-m/optiga-trust-m-1/externals/mbedtls/include/mbedtls/cipher.h **** #endif
  44://MAC/Home/Downloads/getstarted-optiga-trust-m/optiga-trust-m-1/externals/mbedtls/include/mbedtls/cipher.h **** 
  45://MAC/Home/Downloads/getstarted-optiga-trust-m/optiga-trust-m-1/externals/mbedtls/include/mbedtls/cipher.h **** #if defined(MBEDTLS_CIPHER_MODE_CBC)
  46://MAC/Home/Downloads/getstarted-optiga-trust-m/optiga-trust-m-1/externals/mbedtls/include/mbedtls/cipher.h **** #define MBEDTLS_CIPHER_MODE_WITH_PADDING
  47://MAC/Home/Downloads/getstarted-optiga-trust-m/optiga-trust-m-1/externals/mbedtls/include/mbedtls/cipher.h **** #endif
  48://MAC/Home/Downloads/getstarted-optiga-trust-m/optiga-trust-m-1/externals/mbedtls/include/mbedtls/cipher.h **** 
  49://MAC/Home/Downloads/getstarted-optiga-trust-m/optiga-trust-m-1/externals/mbedtls/include/mbedtls/cipher.h **** #if defined(MBEDTLS_ARC4_C) || defined(MBEDTLS_CIPHER_NULL_CIPHER) || \
  50://MAC/Home/Downloads/getstarted-optiga-trust-m/optiga-trust-m-1/externals/mbedtls/include/mbedtls/cipher.h ****     defined(MBEDTLS_CHACHA20_C)
  51://MAC/Home/Downloads/getstarted-optiga-trust-m/optiga-trust-m-1/externals/mbedtls/include/mbedtls/cipher.h **** #define MBEDTLS_CIPHER_MODE_STREAM
  52://MAC/Home/Downloads/getstarted-optiga-trust-m/optiga-trust-m-1/externals/mbedtls/include/mbedtls/cipher.h **** #endif
  53://MAC/Home/Downloads/getstarted-optiga-trust-m/optiga-trust-m-1/externals/mbedtls/include/mbedtls/cipher.h **** 
  54://MAC/Home/Downloads/getstarted-optiga-trust-m/optiga-trust-m-1/externals/mbedtls/include/mbedtls/cipher.h **** #if ( defined(__ARMCC_VERSION) || defined(_MSC_VER) ) && \
  55://MAC/Home/Downloads/getstarted-optiga-trust-m/optiga-trust-m-1/externals/mbedtls/include/mbedtls/cipher.h ****     !defined(inline) && !defined(__cplusplus)
  56://MAC/Home/Downloads/getstarted-optiga-trust-m/optiga-trust-m-1/externals/mbedtls/include/mbedtls/cipher.h **** #define inline __inline
  57://MAC/Home/Downloads/getstarted-optiga-trust-m/optiga-trust-m-1/externals/mbedtls/include/mbedtls/cipher.h **** #endif
  58://MAC/Home/Downloads/getstarted-optiga-trust-m/optiga-trust-m-1/externals/mbedtls/include/mbedtls/cipher.h **** 
  59://MAC/Home/Downloads/getstarted-optiga-trust-m/optiga-trust-m-1/externals/mbedtls/include/mbedtls/cipher.h **** #define MBEDTLS_ERR_CIPHER_FEATURE_UNAVAILABLE  -0x6080  /**< The selected feature is not available
  60://MAC/Home/Downloads/getstarted-optiga-trust-m/optiga-trust-m-1/externals/mbedtls/include/mbedtls/cipher.h **** #define MBEDTLS_ERR_CIPHER_BAD_INPUT_DATA       -0x6100  /**< Bad input parameters. */
  61://MAC/Home/Downloads/getstarted-optiga-trust-m/optiga-trust-m-1/externals/mbedtls/include/mbedtls/cipher.h **** #define MBEDTLS_ERR_CIPHER_ALLOC_FAILED         -0x6180  /**< Failed to allocate memory. */
  62://MAC/Home/Downloads/getstarted-optiga-trust-m/optiga-trust-m-1/externals/mbedtls/include/mbedtls/cipher.h **** #define MBEDTLS_ERR_CIPHER_INVALID_PADDING      -0x6200  /**< Input data contains invalid padding a
  63://MAC/Home/Downloads/getstarted-optiga-trust-m/optiga-trust-m-1/externals/mbedtls/include/mbedtls/cipher.h **** #define MBEDTLS_ERR_CIPHER_FULL_BLOCK_EXPECTED  -0x6280  /**< Decryption of block requires a full b
  64://MAC/Home/Downloads/getstarted-optiga-trust-m/optiga-trust-m-1/externals/mbedtls/include/mbedtls/cipher.h **** #define MBEDTLS_ERR_CIPHER_AUTH_FAILED          -0x6300  /**< Authentication failed (for AEAD modes
  65://MAC/Home/Downloads/getstarted-optiga-trust-m/optiga-trust-m-1/externals/mbedtls/include/mbedtls/cipher.h **** #define MBEDTLS_ERR_CIPHER_INVALID_CONTEXT      -0x6380  /**< The context is invalid. For example, 
  66://MAC/Home/Downloads/getstarted-optiga-trust-m/optiga-trust-m-1/externals/mbedtls/include/mbedtls/cipher.h **** 
  67://MAC/Home/Downloads/getstarted-optiga-trust-m/optiga-trust-m-1/externals/mbedtls/include/mbedtls/cipher.h **** /* MBEDTLS_ERR_CIPHER_HW_ACCEL_FAILED is deprecated and should not be used. */
  68://MAC/Home/Downloads/getstarted-optiga-trust-m/optiga-trust-m-1/externals/mbedtls/include/mbedtls/cipher.h **** #define MBEDTLS_ERR_CIPHER_HW_ACCEL_FAILED      -0x6400  /**< Cipher hardware accelerator failed. *
  69://MAC/Home/Downloads/getstarted-optiga-trust-m/optiga-trust-m-1/externals/mbedtls/include/mbedtls/cipher.h **** 
  70://MAC/Home/Downloads/getstarted-optiga-trust-m/optiga-trust-m-1/externals/mbedtls/include/mbedtls/cipher.h **** #define MBEDTLS_CIPHER_VARIABLE_IV_LEN     0x01    /**< Cipher accepts IVs of variable length. */
  71://MAC/Home/Downloads/getstarted-optiga-trust-m/optiga-trust-m-1/externals/mbedtls/include/mbedtls/cipher.h **** #define MBEDTLS_CIPHER_VARIABLE_KEY_LEN    0x02    /**< Cipher accepts keys of variable length. */
  72://MAC/Home/Downloads/getstarted-optiga-trust-m/optiga-trust-m-1/externals/mbedtls/include/mbedtls/cipher.h **** 
  73://MAC/Home/Downloads/getstarted-optiga-trust-m/optiga-trust-m-1/externals/mbedtls/include/mbedtls/cipher.h **** #ifdef __cplusplus
  74://MAC/Home/Downloads/getstarted-optiga-trust-m/optiga-trust-m-1/externals/mbedtls/include/mbedtls/cipher.h **** extern "C" {
  75://MAC/Home/Downloads/getstarted-optiga-trust-m/optiga-trust-m-1/externals/mbedtls/include/mbedtls/cipher.h **** #endif
  76://MAC/Home/Downloads/getstarted-optiga-trust-m/optiga-trust-m-1/externals/mbedtls/include/mbedtls/cipher.h **** 
  77://MAC/Home/Downloads/getstarted-optiga-trust-m/optiga-trust-m-1/externals/mbedtls/include/mbedtls/cipher.h **** /**
  78://MAC/Home/Downloads/getstarted-optiga-trust-m/optiga-trust-m-1/externals/mbedtls/include/mbedtls/cipher.h ****  * \brief     Supported cipher types.
  79://MAC/Home/Downloads/getstarted-optiga-trust-m/optiga-trust-m-1/externals/mbedtls/include/mbedtls/cipher.h ****  *
  80://MAC/Home/Downloads/getstarted-optiga-trust-m/optiga-trust-m-1/externals/mbedtls/include/mbedtls/cipher.h ****  * \warning   RC4 and DES are considered weak ciphers and their use
  81://MAC/Home/Downloads/getstarted-optiga-trust-m/optiga-trust-m-1/externals/mbedtls/include/mbedtls/cipher.h ****  *            constitutes a security risk. Arm recommends considering stronger
  82://MAC/Home/Downloads/getstarted-optiga-trust-m/optiga-trust-m-1/externals/mbedtls/include/mbedtls/cipher.h ****  *            ciphers instead.
  83://MAC/Home/Downloads/getstarted-optiga-trust-m/optiga-trust-m-1/externals/mbedtls/include/mbedtls/cipher.h ****  */
  84://MAC/Home/Downloads/getstarted-optiga-trust-m/optiga-trust-m-1/externals/mbedtls/include/mbedtls/cipher.h **** typedef enum {
  85://MAC/Home/Downloads/getstarted-optiga-trust-m/optiga-trust-m-1/externals/mbedtls/include/mbedtls/cipher.h ****     MBEDTLS_CIPHER_ID_NONE = 0,  /**< Placeholder to mark the end of cipher ID lists. */
  86://MAC/Home/Downloads/getstarted-optiga-trust-m/optiga-trust-m-1/externals/mbedtls/include/mbedtls/cipher.h ****     MBEDTLS_CIPHER_ID_NULL,      /**< The identity cipher, treated as a stream cipher. */
  87://MAC/Home/Downloads/getstarted-optiga-trust-m/optiga-trust-m-1/externals/mbedtls/include/mbedtls/cipher.h ****     MBEDTLS_CIPHER_ID_AES,       /**< The AES cipher. */
  88://MAC/Home/Downloads/getstarted-optiga-trust-m/optiga-trust-m-1/externals/mbedtls/include/mbedtls/cipher.h ****     MBEDTLS_CIPHER_ID_DES,       /**< The DES cipher. */
  89://MAC/Home/Downloads/getstarted-optiga-trust-m/optiga-trust-m-1/externals/mbedtls/include/mbedtls/cipher.h ****     MBEDTLS_CIPHER_ID_3DES,      /**< The Triple DES cipher. */
  90://MAC/Home/Downloads/getstarted-optiga-trust-m/optiga-trust-m-1/externals/mbedtls/include/mbedtls/cipher.h ****     MBEDTLS_CIPHER_ID_CAMELLIA,  /**< The Camellia cipher. */
  91://MAC/Home/Downloads/getstarted-optiga-trust-m/optiga-trust-m-1/externals/mbedtls/include/mbedtls/cipher.h ****     MBEDTLS_CIPHER_ID_BLOWFISH,  /**< The Blowfish cipher. */
  92://MAC/Home/Downloads/getstarted-optiga-trust-m/optiga-trust-m-1/externals/mbedtls/include/mbedtls/cipher.h ****     MBEDTLS_CIPHER_ID_ARC4,      /**< The RC4 cipher. */
  93://MAC/Home/Downloads/getstarted-optiga-trust-m/optiga-trust-m-1/externals/mbedtls/include/mbedtls/cipher.h ****     MBEDTLS_CIPHER_ID_ARIA,      /**< The Aria cipher. */
  94://MAC/Home/Downloads/getstarted-optiga-trust-m/optiga-trust-m-1/externals/mbedtls/include/mbedtls/cipher.h ****     MBEDTLS_CIPHER_ID_CHACHA20,  /**< The ChaCha20 cipher. */
  95://MAC/Home/Downloads/getstarted-optiga-trust-m/optiga-trust-m-1/externals/mbedtls/include/mbedtls/cipher.h **** } mbedtls_cipher_id_t;
  96://MAC/Home/Downloads/getstarted-optiga-trust-m/optiga-trust-m-1/externals/mbedtls/include/mbedtls/cipher.h **** 
  97://MAC/Home/Downloads/getstarted-optiga-trust-m/optiga-trust-m-1/externals/mbedtls/include/mbedtls/cipher.h **** /**
  98://MAC/Home/Downloads/getstarted-optiga-trust-m/optiga-trust-m-1/externals/mbedtls/include/mbedtls/cipher.h ****  * \brief     Supported {cipher type, cipher mode} pairs.
  99://MAC/Home/Downloads/getstarted-optiga-trust-m/optiga-trust-m-1/externals/mbedtls/include/mbedtls/cipher.h ****  *
 100://MAC/Home/Downloads/getstarted-optiga-trust-m/optiga-trust-m-1/externals/mbedtls/include/mbedtls/cipher.h ****  * \warning   RC4 and DES are considered weak ciphers and their use
 101://MAC/Home/Downloads/getstarted-optiga-trust-m/optiga-trust-m-1/externals/mbedtls/include/mbedtls/cipher.h ****  *            constitutes a security risk. Arm recommends considering stronger
 102://MAC/Home/Downloads/getstarted-optiga-trust-m/optiga-trust-m-1/externals/mbedtls/include/mbedtls/cipher.h ****  *            ciphers instead.
 103://MAC/Home/Downloads/getstarted-optiga-trust-m/optiga-trust-m-1/externals/mbedtls/include/mbedtls/cipher.h ****  */
 104://MAC/Home/Downloads/getstarted-optiga-trust-m/optiga-trust-m-1/externals/mbedtls/include/mbedtls/cipher.h **** typedef enum {
 105://MAC/Home/Downloads/getstarted-optiga-trust-m/optiga-trust-m-1/externals/mbedtls/include/mbedtls/cipher.h ****     MBEDTLS_CIPHER_NONE = 0,             /**< Placeholder to mark the end of cipher-pair lists. */
 106://MAC/Home/Downloads/getstarted-optiga-trust-m/optiga-trust-m-1/externals/mbedtls/include/mbedtls/cipher.h ****     MBEDTLS_CIPHER_NULL,                 /**< The identity stream cipher. */
 107://MAC/Home/Downloads/getstarted-optiga-trust-m/optiga-trust-m-1/externals/mbedtls/include/mbedtls/cipher.h ****     MBEDTLS_CIPHER_AES_128_ECB,          /**< AES cipher with 128-bit ECB mode. */
 108://MAC/Home/Downloads/getstarted-optiga-trust-m/optiga-trust-m-1/externals/mbedtls/include/mbedtls/cipher.h ****     MBEDTLS_CIPHER_AES_192_ECB,          /**< AES cipher with 192-bit ECB mode. */
 109://MAC/Home/Downloads/getstarted-optiga-trust-m/optiga-trust-m-1/externals/mbedtls/include/mbedtls/cipher.h ****     MBEDTLS_CIPHER_AES_256_ECB,          /**< AES cipher with 256-bit ECB mode. */
 110://MAC/Home/Downloads/getstarted-optiga-trust-m/optiga-trust-m-1/externals/mbedtls/include/mbedtls/cipher.h ****     MBEDTLS_CIPHER_AES_128_CBC,          /**< AES cipher with 128-bit CBC mode. */
 111://MAC/Home/Downloads/getstarted-optiga-trust-m/optiga-trust-m-1/externals/mbedtls/include/mbedtls/cipher.h ****     MBEDTLS_CIPHER_AES_192_CBC,          /**< AES cipher with 192-bit CBC mode. */
 112://MAC/Home/Downloads/getstarted-optiga-trust-m/optiga-trust-m-1/externals/mbedtls/include/mbedtls/cipher.h ****     MBEDTLS_CIPHER_AES_256_CBC,          /**< AES cipher with 256-bit CBC mode. */
 113://MAC/Home/Downloads/getstarted-optiga-trust-m/optiga-trust-m-1/externals/mbedtls/include/mbedtls/cipher.h ****     MBEDTLS_CIPHER_AES_128_CFB128,       /**< AES cipher with 128-bit CFB128 mode. */
 114://MAC/Home/Downloads/getstarted-optiga-trust-m/optiga-trust-m-1/externals/mbedtls/include/mbedtls/cipher.h ****     MBEDTLS_CIPHER_AES_192_CFB128,       /**< AES cipher with 192-bit CFB128 mode. */
 115://MAC/Home/Downloads/getstarted-optiga-trust-m/optiga-trust-m-1/externals/mbedtls/include/mbedtls/cipher.h ****     MBEDTLS_CIPHER_AES_256_CFB128,       /**< AES cipher with 256-bit CFB128 mode. */
 116://MAC/Home/Downloads/getstarted-optiga-trust-m/optiga-trust-m-1/externals/mbedtls/include/mbedtls/cipher.h ****     MBEDTLS_CIPHER_AES_128_CTR,          /**< AES cipher with 128-bit CTR mode. */
 117://MAC/Home/Downloads/getstarted-optiga-trust-m/optiga-trust-m-1/externals/mbedtls/include/mbedtls/cipher.h ****     MBEDTLS_CIPHER_AES_192_CTR,          /**< AES cipher with 192-bit CTR mode. */
 118://MAC/Home/Downloads/getstarted-optiga-trust-m/optiga-trust-m-1/externals/mbedtls/include/mbedtls/cipher.h ****     MBEDTLS_CIPHER_AES_256_CTR,          /**< AES cipher with 256-bit CTR mode. */
 119://MAC/Home/Downloads/getstarted-optiga-trust-m/optiga-trust-m-1/externals/mbedtls/include/mbedtls/cipher.h ****     MBEDTLS_CIPHER_AES_128_GCM,          /**< AES cipher with 128-bit GCM mode. */
 120://MAC/Home/Downloads/getstarted-optiga-trust-m/optiga-trust-m-1/externals/mbedtls/include/mbedtls/cipher.h ****     MBEDTLS_CIPHER_AES_192_GCM,          /**< AES cipher with 192-bit GCM mode. */
 121://MAC/Home/Downloads/getstarted-optiga-trust-m/optiga-trust-m-1/externals/mbedtls/include/mbedtls/cipher.h ****     MBEDTLS_CIPHER_AES_256_GCM,          /**< AES cipher with 256-bit GCM mode. */
 122://MAC/Home/Downloads/getstarted-optiga-trust-m/optiga-trust-m-1/externals/mbedtls/include/mbedtls/cipher.h ****     MBEDTLS_CIPHER_CAMELLIA_128_ECB,     /**< Camellia cipher with 128-bit ECB mode. */
 123://MAC/Home/Downloads/getstarted-optiga-trust-m/optiga-trust-m-1/externals/mbedtls/include/mbedtls/cipher.h ****     MBEDTLS_CIPHER_CAMELLIA_192_ECB,     /**< Camellia cipher with 192-bit ECB mode. */
 124://MAC/Home/Downloads/getstarted-optiga-trust-m/optiga-trust-m-1/externals/mbedtls/include/mbedtls/cipher.h ****     MBEDTLS_CIPHER_CAMELLIA_256_ECB,     /**< Camellia cipher with 256-bit ECB mode. */
 125://MAC/Home/Downloads/getstarted-optiga-trust-m/optiga-trust-m-1/externals/mbedtls/include/mbedtls/cipher.h ****     MBEDTLS_CIPHER_CAMELLIA_128_CBC,     /**< Camellia cipher with 128-bit CBC mode. */
 126://MAC/Home/Downloads/getstarted-optiga-trust-m/optiga-trust-m-1/externals/mbedtls/include/mbedtls/cipher.h ****     MBEDTLS_CIPHER_CAMELLIA_192_CBC,     /**< Camellia cipher with 192-bit CBC mode. */
 127://MAC/Home/Downloads/getstarted-optiga-trust-m/optiga-trust-m-1/externals/mbedtls/include/mbedtls/cipher.h ****     MBEDTLS_CIPHER_CAMELLIA_256_CBC,     /**< Camellia cipher with 256-bit CBC mode. */
 128://MAC/Home/Downloads/getstarted-optiga-trust-m/optiga-trust-m-1/externals/mbedtls/include/mbedtls/cipher.h ****     MBEDTLS_CIPHER_CAMELLIA_128_CFB128,  /**< Camellia cipher with 128-bit CFB128 mode. */
 129://MAC/Home/Downloads/getstarted-optiga-trust-m/optiga-trust-m-1/externals/mbedtls/include/mbedtls/cipher.h ****     MBEDTLS_CIPHER_CAMELLIA_192_CFB128,  /**< Camellia cipher with 192-bit CFB128 mode. */
 130://MAC/Home/Downloads/getstarted-optiga-trust-m/optiga-trust-m-1/externals/mbedtls/include/mbedtls/cipher.h ****     MBEDTLS_CIPHER_CAMELLIA_256_CFB128,  /**< Camellia cipher with 256-bit CFB128 mode. */
 131://MAC/Home/Downloads/getstarted-optiga-trust-m/optiga-trust-m-1/externals/mbedtls/include/mbedtls/cipher.h ****     MBEDTLS_CIPHER_CAMELLIA_128_CTR,     /**< Camellia cipher with 128-bit CTR mode. */
 132://MAC/Home/Downloads/getstarted-optiga-trust-m/optiga-trust-m-1/externals/mbedtls/include/mbedtls/cipher.h ****     MBEDTLS_CIPHER_CAMELLIA_192_CTR,     /**< Camellia cipher with 192-bit CTR mode. */
 133://MAC/Home/Downloads/getstarted-optiga-trust-m/optiga-trust-m-1/externals/mbedtls/include/mbedtls/cipher.h ****     MBEDTLS_CIPHER_CAMELLIA_256_CTR,     /**< Camellia cipher with 256-bit CTR mode. */
 134://MAC/Home/Downloads/getstarted-optiga-trust-m/optiga-trust-m-1/externals/mbedtls/include/mbedtls/cipher.h ****     MBEDTLS_CIPHER_CAMELLIA_128_GCM,     /**< Camellia cipher with 128-bit GCM mode. */
 135://MAC/Home/Downloads/getstarted-optiga-trust-m/optiga-trust-m-1/externals/mbedtls/include/mbedtls/cipher.h ****     MBEDTLS_CIPHER_CAMELLIA_192_GCM,     /**< Camellia cipher with 192-bit GCM mode. */
 136://MAC/Home/Downloads/getstarted-optiga-trust-m/optiga-trust-m-1/externals/mbedtls/include/mbedtls/cipher.h ****     MBEDTLS_CIPHER_CAMELLIA_256_GCM,     /**< Camellia cipher with 256-bit GCM mode. */
 137://MAC/Home/Downloads/getstarted-optiga-trust-m/optiga-trust-m-1/externals/mbedtls/include/mbedtls/cipher.h ****     MBEDTLS_CIPHER_DES_ECB,              /**< DES cipher with ECB mode. */
 138://MAC/Home/Downloads/getstarted-optiga-trust-m/optiga-trust-m-1/externals/mbedtls/include/mbedtls/cipher.h ****     MBEDTLS_CIPHER_DES_CBC,              /**< DES cipher with CBC mode. */
 139://MAC/Home/Downloads/getstarted-optiga-trust-m/optiga-trust-m-1/externals/mbedtls/include/mbedtls/cipher.h ****     MBEDTLS_CIPHER_DES_EDE_ECB,          /**< DES cipher with EDE ECB mode. */
 140://MAC/Home/Downloads/getstarted-optiga-trust-m/optiga-trust-m-1/externals/mbedtls/include/mbedtls/cipher.h ****     MBEDTLS_CIPHER_DES_EDE_CBC,          /**< DES cipher with EDE CBC mode. */
 141://MAC/Home/Downloads/getstarted-optiga-trust-m/optiga-trust-m-1/externals/mbedtls/include/mbedtls/cipher.h ****     MBEDTLS_CIPHER_DES_EDE3_ECB,         /**< DES cipher with EDE3 ECB mode. */
 142://MAC/Home/Downloads/getstarted-optiga-trust-m/optiga-trust-m-1/externals/mbedtls/include/mbedtls/cipher.h ****     MBEDTLS_CIPHER_DES_EDE3_CBC,         /**< DES cipher with EDE3 CBC mode. */
 143://MAC/Home/Downloads/getstarted-optiga-trust-m/optiga-trust-m-1/externals/mbedtls/include/mbedtls/cipher.h ****     MBEDTLS_CIPHER_BLOWFISH_ECB,         /**< Blowfish cipher with ECB mode. */
 144://MAC/Home/Downloads/getstarted-optiga-trust-m/optiga-trust-m-1/externals/mbedtls/include/mbedtls/cipher.h ****     MBEDTLS_CIPHER_BLOWFISH_CBC,         /**< Blowfish cipher with CBC mode. */
 145://MAC/Home/Downloads/getstarted-optiga-trust-m/optiga-trust-m-1/externals/mbedtls/include/mbedtls/cipher.h ****     MBEDTLS_CIPHER_BLOWFISH_CFB64,       /**< Blowfish cipher with CFB64 mode. */
 146://MAC/Home/Downloads/getstarted-optiga-trust-m/optiga-trust-m-1/externals/mbedtls/include/mbedtls/cipher.h ****     MBEDTLS_CIPHER_BLOWFISH_CTR,         /**< Blowfish cipher with CTR mode. */
 147://MAC/Home/Downloads/getstarted-optiga-trust-m/optiga-trust-m-1/externals/mbedtls/include/mbedtls/cipher.h ****     MBEDTLS_CIPHER_ARC4_128,             /**< RC4 cipher with 128-bit mode. */
 148://MAC/Home/Downloads/getstarted-optiga-trust-m/optiga-trust-m-1/externals/mbedtls/include/mbedtls/cipher.h ****     MBEDTLS_CIPHER_AES_128_CCM,          /**< AES cipher with 128-bit CCM mode. */
 149://MAC/Home/Downloads/getstarted-optiga-trust-m/optiga-trust-m-1/externals/mbedtls/include/mbedtls/cipher.h ****     MBEDTLS_CIPHER_AES_192_CCM,          /**< AES cipher with 192-bit CCM mode. */
 150://MAC/Home/Downloads/getstarted-optiga-trust-m/optiga-trust-m-1/externals/mbedtls/include/mbedtls/cipher.h ****     MBEDTLS_CIPHER_AES_256_CCM,          /**< AES cipher with 256-bit CCM mode. */
 151://MAC/Home/Downloads/getstarted-optiga-trust-m/optiga-trust-m-1/externals/mbedtls/include/mbedtls/cipher.h ****     MBEDTLS_CIPHER_CAMELLIA_128_CCM,     /**< Camellia cipher with 128-bit CCM mode. */
 152://MAC/Home/Downloads/getstarted-optiga-trust-m/optiga-trust-m-1/externals/mbedtls/include/mbedtls/cipher.h ****     MBEDTLS_CIPHER_CAMELLIA_192_CCM,     /**< Camellia cipher with 192-bit CCM mode. */
 153://MAC/Home/Downloads/getstarted-optiga-trust-m/optiga-trust-m-1/externals/mbedtls/include/mbedtls/cipher.h ****     MBEDTLS_CIPHER_CAMELLIA_256_CCM,     /**< Camellia cipher with 256-bit CCM mode. */
 154://MAC/Home/Downloads/getstarted-optiga-trust-m/optiga-trust-m-1/externals/mbedtls/include/mbedtls/cipher.h ****     MBEDTLS_CIPHER_ARIA_128_ECB,         /**< Aria cipher with 128-bit key and ECB mode. */
 155://MAC/Home/Downloads/getstarted-optiga-trust-m/optiga-trust-m-1/externals/mbedtls/include/mbedtls/cipher.h ****     MBEDTLS_CIPHER_ARIA_192_ECB,         /**< Aria cipher with 192-bit key and ECB mode. */
 156://MAC/Home/Downloads/getstarted-optiga-trust-m/optiga-trust-m-1/externals/mbedtls/include/mbedtls/cipher.h ****     MBEDTLS_CIPHER_ARIA_256_ECB,         /**< Aria cipher with 256-bit key and ECB mode. */
 157://MAC/Home/Downloads/getstarted-optiga-trust-m/optiga-trust-m-1/externals/mbedtls/include/mbedtls/cipher.h ****     MBEDTLS_CIPHER_ARIA_128_CBC,         /**< Aria cipher with 128-bit key and CBC mode. */
 158://MAC/Home/Downloads/getstarted-optiga-trust-m/optiga-trust-m-1/externals/mbedtls/include/mbedtls/cipher.h ****     MBEDTLS_CIPHER_ARIA_192_CBC,         /**< Aria cipher with 192-bit key and CBC mode. */
 159://MAC/Home/Downloads/getstarted-optiga-trust-m/optiga-trust-m-1/externals/mbedtls/include/mbedtls/cipher.h ****     MBEDTLS_CIPHER_ARIA_256_CBC,         /**< Aria cipher with 256-bit key and CBC mode. */
 160://MAC/Home/Downloads/getstarted-optiga-trust-m/optiga-trust-m-1/externals/mbedtls/include/mbedtls/cipher.h ****     MBEDTLS_CIPHER_ARIA_128_CFB128,      /**< Aria cipher with 128-bit key and CFB-128 mode. */
 161://MAC/Home/Downloads/getstarted-optiga-trust-m/optiga-trust-m-1/externals/mbedtls/include/mbedtls/cipher.h ****     MBEDTLS_CIPHER_ARIA_192_CFB128,      /**< Aria cipher with 192-bit key and CFB-128 mode. */
 162://MAC/Home/Downloads/getstarted-optiga-trust-m/optiga-trust-m-1/externals/mbedtls/include/mbedtls/cipher.h ****     MBEDTLS_CIPHER_ARIA_256_CFB128,      /**< Aria cipher with 256-bit key and CFB-128 mode. */
 163://MAC/Home/Downloads/getstarted-optiga-trust-m/optiga-trust-m-1/externals/mbedtls/include/mbedtls/cipher.h ****     MBEDTLS_CIPHER_ARIA_128_CTR,         /**< Aria cipher with 128-bit key and CTR mode. */
 164://MAC/Home/Downloads/getstarted-optiga-trust-m/optiga-trust-m-1/externals/mbedtls/include/mbedtls/cipher.h ****     MBEDTLS_CIPHER_ARIA_192_CTR,         /**< Aria cipher with 192-bit key and CTR mode. */
 165://MAC/Home/Downloads/getstarted-optiga-trust-m/optiga-trust-m-1/externals/mbedtls/include/mbedtls/cipher.h ****     MBEDTLS_CIPHER_ARIA_256_CTR,         /**< Aria cipher with 256-bit key and CTR mode. */
 166://MAC/Home/Downloads/getstarted-optiga-trust-m/optiga-trust-m-1/externals/mbedtls/include/mbedtls/cipher.h ****     MBEDTLS_CIPHER_ARIA_128_GCM,         /**< Aria cipher with 128-bit key and GCM mode. */
 167://MAC/Home/Downloads/getstarted-optiga-trust-m/optiga-trust-m-1/externals/mbedtls/include/mbedtls/cipher.h ****     MBEDTLS_CIPHER_ARIA_192_GCM,         /**< Aria cipher with 192-bit key and GCM mode. */
 168://MAC/Home/Downloads/getstarted-optiga-trust-m/optiga-trust-m-1/externals/mbedtls/include/mbedtls/cipher.h ****     MBEDTLS_CIPHER_ARIA_256_GCM,         /**< Aria cipher with 256-bit key and GCM mode. */
 169://MAC/Home/Downloads/getstarted-optiga-trust-m/optiga-trust-m-1/externals/mbedtls/include/mbedtls/cipher.h ****     MBEDTLS_CIPHER_ARIA_128_CCM,         /**< Aria cipher with 128-bit key and CCM mode. */
 170://MAC/Home/Downloads/getstarted-optiga-trust-m/optiga-trust-m-1/externals/mbedtls/include/mbedtls/cipher.h ****     MBEDTLS_CIPHER_ARIA_192_CCM,         /**< Aria cipher with 192-bit key and CCM mode. */
 171://MAC/Home/Downloads/getstarted-optiga-trust-m/optiga-trust-m-1/externals/mbedtls/include/mbedtls/cipher.h ****     MBEDTLS_CIPHER_ARIA_256_CCM,         /**< Aria cipher with 256-bit key and CCM mode. */
 172://MAC/Home/Downloads/getstarted-optiga-trust-m/optiga-trust-m-1/externals/mbedtls/include/mbedtls/cipher.h ****     MBEDTLS_CIPHER_AES_128_OFB,          /**< AES 128-bit cipher in OFB mode. */
 173://MAC/Home/Downloads/getstarted-optiga-trust-m/optiga-trust-m-1/externals/mbedtls/include/mbedtls/cipher.h ****     MBEDTLS_CIPHER_AES_192_OFB,          /**< AES 192-bit cipher in OFB mode. */
 174://MAC/Home/Downloads/getstarted-optiga-trust-m/optiga-trust-m-1/externals/mbedtls/include/mbedtls/cipher.h ****     MBEDTLS_CIPHER_AES_256_OFB,          /**< AES 256-bit cipher in OFB mode. */
 175://MAC/Home/Downloads/getstarted-optiga-trust-m/optiga-trust-m-1/externals/mbedtls/include/mbedtls/cipher.h ****     MBEDTLS_CIPHER_AES_128_XTS,          /**< AES 128-bit cipher in XTS block mode. */
 176://MAC/Home/Downloads/getstarted-optiga-trust-m/optiga-trust-m-1/externals/mbedtls/include/mbedtls/cipher.h ****     MBEDTLS_CIPHER_AES_256_XTS,          /**< AES 256-bit cipher in XTS block mode. */
 177://MAC/Home/Downloads/getstarted-optiga-trust-m/optiga-trust-m-1/externals/mbedtls/include/mbedtls/cipher.h ****     MBEDTLS_CIPHER_CHACHA20,             /**< ChaCha20 stream cipher. */
 178://MAC/Home/Downloads/getstarted-optiga-trust-m/optiga-trust-m-1/externals/mbedtls/include/mbedtls/cipher.h ****     MBEDTLS_CIPHER_CHACHA20_POLY1305,    /**< ChaCha20-Poly1305 AEAD cipher. */
 179://MAC/Home/Downloads/getstarted-optiga-trust-m/optiga-trust-m-1/externals/mbedtls/include/mbedtls/cipher.h **** } mbedtls_cipher_type_t;
 180://MAC/Home/Downloads/getstarted-optiga-trust-m/optiga-trust-m-1/externals/mbedtls/include/mbedtls/cipher.h **** 
 181://MAC/Home/Downloads/getstarted-optiga-trust-m/optiga-trust-m-1/externals/mbedtls/include/mbedtls/cipher.h **** /** Supported cipher modes. */
 182://MAC/Home/Downloads/getstarted-optiga-trust-m/optiga-trust-m-1/externals/mbedtls/include/mbedtls/cipher.h **** typedef enum {
 183://MAC/Home/Downloads/getstarted-optiga-trust-m/optiga-trust-m-1/externals/mbedtls/include/mbedtls/cipher.h ****     MBEDTLS_MODE_NONE = 0,               /**< None. */
 184://MAC/Home/Downloads/getstarted-optiga-trust-m/optiga-trust-m-1/externals/mbedtls/include/mbedtls/cipher.h ****     MBEDTLS_MODE_ECB,                    /**< The ECB cipher mode. */
 185://MAC/Home/Downloads/getstarted-optiga-trust-m/optiga-trust-m-1/externals/mbedtls/include/mbedtls/cipher.h ****     MBEDTLS_MODE_CBC,                    /**< The CBC cipher mode. */
 186://MAC/Home/Downloads/getstarted-optiga-trust-m/optiga-trust-m-1/externals/mbedtls/include/mbedtls/cipher.h ****     MBEDTLS_MODE_CFB,                    /**< The CFB cipher mode. */
 187://MAC/Home/Downloads/getstarted-optiga-trust-m/optiga-trust-m-1/externals/mbedtls/include/mbedtls/cipher.h ****     MBEDTLS_MODE_OFB,                    /**< The OFB cipher mode. */
 188://MAC/Home/Downloads/getstarted-optiga-trust-m/optiga-trust-m-1/externals/mbedtls/include/mbedtls/cipher.h ****     MBEDTLS_MODE_CTR,                    /**< The CTR cipher mode. */
 189://MAC/Home/Downloads/getstarted-optiga-trust-m/optiga-trust-m-1/externals/mbedtls/include/mbedtls/cipher.h ****     MBEDTLS_MODE_GCM,                    /**< The GCM cipher mode. */
 190://MAC/Home/Downloads/getstarted-optiga-trust-m/optiga-trust-m-1/externals/mbedtls/include/mbedtls/cipher.h ****     MBEDTLS_MODE_STREAM,                 /**< The stream cipher mode. */
 191://MAC/Home/Downloads/getstarted-optiga-trust-m/optiga-trust-m-1/externals/mbedtls/include/mbedtls/cipher.h ****     MBEDTLS_MODE_CCM,                    /**< The CCM cipher mode. */
 192://MAC/Home/Downloads/getstarted-optiga-trust-m/optiga-trust-m-1/externals/mbedtls/include/mbedtls/cipher.h ****     MBEDTLS_MODE_XTS,                    /**< The XTS cipher mode. */
 193://MAC/Home/Downloads/getstarted-optiga-trust-m/optiga-trust-m-1/externals/mbedtls/include/mbedtls/cipher.h ****     MBEDTLS_MODE_CHACHAPOLY,             /**< The ChaCha-Poly cipher mode. */
 194://MAC/Home/Downloads/getstarted-optiga-trust-m/optiga-trust-m-1/externals/mbedtls/include/mbedtls/cipher.h **** } mbedtls_cipher_mode_t;
 195://MAC/Home/Downloads/getstarted-optiga-trust-m/optiga-trust-m-1/externals/mbedtls/include/mbedtls/cipher.h **** 
 196://MAC/Home/Downloads/getstarted-optiga-trust-m/optiga-trust-m-1/externals/mbedtls/include/mbedtls/cipher.h **** /** Supported cipher padding types. */
 197://MAC/Home/Downloads/getstarted-optiga-trust-m/optiga-trust-m-1/externals/mbedtls/include/mbedtls/cipher.h **** typedef enum {
 198://MAC/Home/Downloads/getstarted-optiga-trust-m/optiga-trust-m-1/externals/mbedtls/include/mbedtls/cipher.h ****     MBEDTLS_PADDING_PKCS7 = 0,     /**< PKCS7 padding (default).        */
 199://MAC/Home/Downloads/getstarted-optiga-trust-m/optiga-trust-m-1/externals/mbedtls/include/mbedtls/cipher.h ****     MBEDTLS_PADDING_ONE_AND_ZEROS, /**< ISO/IEC 7816-4 padding.         */
 200://MAC/Home/Downloads/getstarted-optiga-trust-m/optiga-trust-m-1/externals/mbedtls/include/mbedtls/cipher.h ****     MBEDTLS_PADDING_ZEROS_AND_LEN, /**< ANSI X.923 padding.             */
 201://MAC/Home/Downloads/getstarted-optiga-trust-m/optiga-trust-m-1/externals/mbedtls/include/mbedtls/cipher.h ****     MBEDTLS_PADDING_ZEROS,         /**< Zero padding (not reversible). */
 202://MAC/Home/Downloads/getstarted-optiga-trust-m/optiga-trust-m-1/externals/mbedtls/include/mbedtls/cipher.h ****     MBEDTLS_PADDING_NONE,          /**< Never pad (full blocks only).   */
 203://MAC/Home/Downloads/getstarted-optiga-trust-m/optiga-trust-m-1/externals/mbedtls/include/mbedtls/cipher.h **** } mbedtls_cipher_padding_t;
 204://MAC/Home/Downloads/getstarted-optiga-trust-m/optiga-trust-m-1/externals/mbedtls/include/mbedtls/cipher.h **** 
 205://MAC/Home/Downloads/getstarted-optiga-trust-m/optiga-trust-m-1/externals/mbedtls/include/mbedtls/cipher.h **** /** Type of operation. */
 206://MAC/Home/Downloads/getstarted-optiga-trust-m/optiga-trust-m-1/externals/mbedtls/include/mbedtls/cipher.h **** typedef enum {
 207://MAC/Home/Downloads/getstarted-optiga-trust-m/optiga-trust-m-1/externals/mbedtls/include/mbedtls/cipher.h ****     MBEDTLS_OPERATION_NONE = -1,
 208://MAC/Home/Downloads/getstarted-optiga-trust-m/optiga-trust-m-1/externals/mbedtls/include/mbedtls/cipher.h ****     MBEDTLS_DECRYPT = 0,
 209://MAC/Home/Downloads/getstarted-optiga-trust-m/optiga-trust-m-1/externals/mbedtls/include/mbedtls/cipher.h ****     MBEDTLS_ENCRYPT,
 210://MAC/Home/Downloads/getstarted-optiga-trust-m/optiga-trust-m-1/externals/mbedtls/include/mbedtls/cipher.h **** } mbedtls_operation_t;
 211://MAC/Home/Downloads/getstarted-optiga-trust-m/optiga-trust-m-1/externals/mbedtls/include/mbedtls/cipher.h **** 
 212://MAC/Home/Downloads/getstarted-optiga-trust-m/optiga-trust-m-1/externals/mbedtls/include/mbedtls/cipher.h **** enum {
 213://MAC/Home/Downloads/getstarted-optiga-trust-m/optiga-trust-m-1/externals/mbedtls/include/mbedtls/cipher.h ****     /** Undefined key length. */
 214://MAC/Home/Downloads/getstarted-optiga-trust-m/optiga-trust-m-1/externals/mbedtls/include/mbedtls/cipher.h ****     MBEDTLS_KEY_LENGTH_NONE = 0,
 215://MAC/Home/Downloads/getstarted-optiga-trust-m/optiga-trust-m-1/externals/mbedtls/include/mbedtls/cipher.h ****     /** Key length, in bits (including parity), for DES keys. */
 216://MAC/Home/Downloads/getstarted-optiga-trust-m/optiga-trust-m-1/externals/mbedtls/include/mbedtls/cipher.h ****     MBEDTLS_KEY_LENGTH_DES  = 64,
 217://MAC/Home/Downloads/getstarted-optiga-trust-m/optiga-trust-m-1/externals/mbedtls/include/mbedtls/cipher.h ****     /** Key length in bits, including parity, for DES in two-key EDE. */
 218://MAC/Home/Downloads/getstarted-optiga-trust-m/optiga-trust-m-1/externals/mbedtls/include/mbedtls/cipher.h ****     MBEDTLS_KEY_LENGTH_DES_EDE = 128,
 219://MAC/Home/Downloads/getstarted-optiga-trust-m/optiga-trust-m-1/externals/mbedtls/include/mbedtls/cipher.h ****     /** Key length in bits, including parity, for DES in three-key EDE. */
 220://MAC/Home/Downloads/getstarted-optiga-trust-m/optiga-trust-m-1/externals/mbedtls/include/mbedtls/cipher.h ****     MBEDTLS_KEY_LENGTH_DES_EDE3 = 192,
 221://MAC/Home/Downloads/getstarted-optiga-trust-m/optiga-trust-m-1/externals/mbedtls/include/mbedtls/cipher.h **** };
 222://MAC/Home/Downloads/getstarted-optiga-trust-m/optiga-trust-m-1/externals/mbedtls/include/mbedtls/cipher.h **** 
 223://MAC/Home/Downloads/getstarted-optiga-trust-m/optiga-trust-m-1/externals/mbedtls/include/mbedtls/cipher.h **** /** Maximum length of any IV, in Bytes. */
 224://MAC/Home/Downloads/getstarted-optiga-trust-m/optiga-trust-m-1/externals/mbedtls/include/mbedtls/cipher.h **** #define MBEDTLS_MAX_IV_LENGTH      16
 225://MAC/Home/Downloads/getstarted-optiga-trust-m/optiga-trust-m-1/externals/mbedtls/include/mbedtls/cipher.h **** /** Maximum block size of any cipher, in Bytes. */
 226://MAC/Home/Downloads/getstarted-optiga-trust-m/optiga-trust-m-1/externals/mbedtls/include/mbedtls/cipher.h **** #define MBEDTLS_MAX_BLOCK_LENGTH   16
 227://MAC/Home/Downloads/getstarted-optiga-trust-m/optiga-trust-m-1/externals/mbedtls/include/mbedtls/cipher.h **** 
 228://MAC/Home/Downloads/getstarted-optiga-trust-m/optiga-trust-m-1/externals/mbedtls/include/mbedtls/cipher.h **** /**
 229://MAC/Home/Downloads/getstarted-optiga-trust-m/optiga-trust-m-1/externals/mbedtls/include/mbedtls/cipher.h ****  * Base cipher information (opaque struct).
 230://MAC/Home/Downloads/getstarted-optiga-trust-m/optiga-trust-m-1/externals/mbedtls/include/mbedtls/cipher.h ****  */
 231://MAC/Home/Downloads/getstarted-optiga-trust-m/optiga-trust-m-1/externals/mbedtls/include/mbedtls/cipher.h **** typedef struct mbedtls_cipher_base_t mbedtls_cipher_base_t;
 232://MAC/Home/Downloads/getstarted-optiga-trust-m/optiga-trust-m-1/externals/mbedtls/include/mbedtls/cipher.h **** 
 233://MAC/Home/Downloads/getstarted-optiga-trust-m/optiga-trust-m-1/externals/mbedtls/include/mbedtls/cipher.h **** /**
 234://MAC/Home/Downloads/getstarted-optiga-trust-m/optiga-trust-m-1/externals/mbedtls/include/mbedtls/cipher.h ****  * CMAC context (opaque struct).
 235://MAC/Home/Downloads/getstarted-optiga-trust-m/optiga-trust-m-1/externals/mbedtls/include/mbedtls/cipher.h ****  */
 236://MAC/Home/Downloads/getstarted-optiga-trust-m/optiga-trust-m-1/externals/mbedtls/include/mbedtls/cipher.h **** typedef struct mbedtls_cmac_context_t mbedtls_cmac_context_t;
 237://MAC/Home/Downloads/getstarted-optiga-trust-m/optiga-trust-m-1/externals/mbedtls/include/mbedtls/cipher.h **** 
 238://MAC/Home/Downloads/getstarted-optiga-trust-m/optiga-trust-m-1/externals/mbedtls/include/mbedtls/cipher.h **** /**
 239://MAC/Home/Downloads/getstarted-optiga-trust-m/optiga-trust-m-1/externals/mbedtls/include/mbedtls/cipher.h ****  * Cipher information. Allows calling cipher functions
 240://MAC/Home/Downloads/getstarted-optiga-trust-m/optiga-trust-m-1/externals/mbedtls/include/mbedtls/cipher.h ****  * in a generic way.
 241://MAC/Home/Downloads/getstarted-optiga-trust-m/optiga-trust-m-1/externals/mbedtls/include/mbedtls/cipher.h ****  */
 242://MAC/Home/Downloads/getstarted-optiga-trust-m/optiga-trust-m-1/externals/mbedtls/include/mbedtls/cipher.h **** typedef struct mbedtls_cipher_info_t
 243://MAC/Home/Downloads/getstarted-optiga-trust-m/optiga-trust-m-1/externals/mbedtls/include/mbedtls/cipher.h **** {
 244://MAC/Home/Downloads/getstarted-optiga-trust-m/optiga-trust-m-1/externals/mbedtls/include/mbedtls/cipher.h ****     /** Full cipher identifier. For example,
 245://MAC/Home/Downloads/getstarted-optiga-trust-m/optiga-trust-m-1/externals/mbedtls/include/mbedtls/cipher.h ****      * MBEDTLS_CIPHER_AES_256_CBC.
 246://MAC/Home/Downloads/getstarted-optiga-trust-m/optiga-trust-m-1/externals/mbedtls/include/mbedtls/cipher.h ****      */
 247://MAC/Home/Downloads/getstarted-optiga-trust-m/optiga-trust-m-1/externals/mbedtls/include/mbedtls/cipher.h ****     mbedtls_cipher_type_t type;
 248://MAC/Home/Downloads/getstarted-optiga-trust-m/optiga-trust-m-1/externals/mbedtls/include/mbedtls/cipher.h **** 
 249://MAC/Home/Downloads/getstarted-optiga-trust-m/optiga-trust-m-1/externals/mbedtls/include/mbedtls/cipher.h ****     /** The cipher mode. For example, MBEDTLS_MODE_CBC. */
 250://MAC/Home/Downloads/getstarted-optiga-trust-m/optiga-trust-m-1/externals/mbedtls/include/mbedtls/cipher.h ****     mbedtls_cipher_mode_t mode;
 251://MAC/Home/Downloads/getstarted-optiga-trust-m/optiga-trust-m-1/externals/mbedtls/include/mbedtls/cipher.h **** 
 252://MAC/Home/Downloads/getstarted-optiga-trust-m/optiga-trust-m-1/externals/mbedtls/include/mbedtls/cipher.h ****     /** The cipher key length, in bits. This is the
 253://MAC/Home/Downloads/getstarted-optiga-trust-m/optiga-trust-m-1/externals/mbedtls/include/mbedtls/cipher.h ****      * default length for variable sized ciphers.
 254://MAC/Home/Downloads/getstarted-optiga-trust-m/optiga-trust-m-1/externals/mbedtls/include/mbedtls/cipher.h ****      * Includes parity bits for ciphers like DES.
 255://MAC/Home/Downloads/getstarted-optiga-trust-m/optiga-trust-m-1/externals/mbedtls/include/mbedtls/cipher.h ****      */
 256://MAC/Home/Downloads/getstarted-optiga-trust-m/optiga-trust-m-1/externals/mbedtls/include/mbedtls/cipher.h ****     unsigned int key_bitlen;
 257://MAC/Home/Downloads/getstarted-optiga-trust-m/optiga-trust-m-1/externals/mbedtls/include/mbedtls/cipher.h **** 
 258://MAC/Home/Downloads/getstarted-optiga-trust-m/optiga-trust-m-1/externals/mbedtls/include/mbedtls/cipher.h ****     /** Name of the cipher. */
 259://MAC/Home/Downloads/getstarted-optiga-trust-m/optiga-trust-m-1/externals/mbedtls/include/mbedtls/cipher.h ****     const char * name;
 260://MAC/Home/Downloads/getstarted-optiga-trust-m/optiga-trust-m-1/externals/mbedtls/include/mbedtls/cipher.h **** 
 261://MAC/Home/Downloads/getstarted-optiga-trust-m/optiga-trust-m-1/externals/mbedtls/include/mbedtls/cipher.h ****     /** IV or nonce size, in Bytes.
 262://MAC/Home/Downloads/getstarted-optiga-trust-m/optiga-trust-m-1/externals/mbedtls/include/mbedtls/cipher.h ****      * For ciphers that accept variable IV sizes,
 263://MAC/Home/Downloads/getstarted-optiga-trust-m/optiga-trust-m-1/externals/mbedtls/include/mbedtls/cipher.h ****      * this is the recommended size.
 264://MAC/Home/Downloads/getstarted-optiga-trust-m/optiga-trust-m-1/externals/mbedtls/include/mbedtls/cipher.h ****      */
 265://MAC/Home/Downloads/getstarted-optiga-trust-m/optiga-trust-m-1/externals/mbedtls/include/mbedtls/cipher.h ****     unsigned int iv_size;
 266://MAC/Home/Downloads/getstarted-optiga-trust-m/optiga-trust-m-1/externals/mbedtls/include/mbedtls/cipher.h **** 
 267://MAC/Home/Downloads/getstarted-optiga-trust-m/optiga-trust-m-1/externals/mbedtls/include/mbedtls/cipher.h ****     /** Bitflag comprised of MBEDTLS_CIPHER_VARIABLE_IV_LEN and
 268://MAC/Home/Downloads/getstarted-optiga-trust-m/optiga-trust-m-1/externals/mbedtls/include/mbedtls/cipher.h ****      *  MBEDTLS_CIPHER_VARIABLE_KEY_LEN indicating whether the
 269://MAC/Home/Downloads/getstarted-optiga-trust-m/optiga-trust-m-1/externals/mbedtls/include/mbedtls/cipher.h ****      *  cipher supports variable IV or variable key sizes, respectively.
 270://MAC/Home/Downloads/getstarted-optiga-trust-m/optiga-trust-m-1/externals/mbedtls/include/mbedtls/cipher.h ****      */
 271://MAC/Home/Downloads/getstarted-optiga-trust-m/optiga-trust-m-1/externals/mbedtls/include/mbedtls/cipher.h ****     int flags;
 272://MAC/Home/Downloads/getstarted-optiga-trust-m/optiga-trust-m-1/externals/mbedtls/include/mbedtls/cipher.h **** 
 273://MAC/Home/Downloads/getstarted-optiga-trust-m/optiga-trust-m-1/externals/mbedtls/include/mbedtls/cipher.h ****     /** The block size, in Bytes. */
 274://MAC/Home/Downloads/getstarted-optiga-trust-m/optiga-trust-m-1/externals/mbedtls/include/mbedtls/cipher.h ****     unsigned int block_size;
 275://MAC/Home/Downloads/getstarted-optiga-trust-m/optiga-trust-m-1/externals/mbedtls/include/mbedtls/cipher.h **** 
 276://MAC/Home/Downloads/getstarted-optiga-trust-m/optiga-trust-m-1/externals/mbedtls/include/mbedtls/cipher.h ****     /** Struct for base cipher information and functions. */
 277://MAC/Home/Downloads/getstarted-optiga-trust-m/optiga-trust-m-1/externals/mbedtls/include/mbedtls/cipher.h ****     const mbedtls_cipher_base_t *base;
 278://MAC/Home/Downloads/getstarted-optiga-trust-m/optiga-trust-m-1/externals/mbedtls/include/mbedtls/cipher.h **** 
 279://MAC/Home/Downloads/getstarted-optiga-trust-m/optiga-trust-m-1/externals/mbedtls/include/mbedtls/cipher.h **** } mbedtls_cipher_info_t;
 280://MAC/Home/Downloads/getstarted-optiga-trust-m/optiga-trust-m-1/externals/mbedtls/include/mbedtls/cipher.h **** 
 281://MAC/Home/Downloads/getstarted-optiga-trust-m/optiga-trust-m-1/externals/mbedtls/include/mbedtls/cipher.h **** /**
 282://MAC/Home/Downloads/getstarted-optiga-trust-m/optiga-trust-m-1/externals/mbedtls/include/mbedtls/cipher.h ****  * Generic cipher context.
 283://MAC/Home/Downloads/getstarted-optiga-trust-m/optiga-trust-m-1/externals/mbedtls/include/mbedtls/cipher.h ****  */
 284://MAC/Home/Downloads/getstarted-optiga-trust-m/optiga-trust-m-1/externals/mbedtls/include/mbedtls/cipher.h **** typedef struct mbedtls_cipher_context_t
 285://MAC/Home/Downloads/getstarted-optiga-trust-m/optiga-trust-m-1/externals/mbedtls/include/mbedtls/cipher.h **** {
 286://MAC/Home/Downloads/getstarted-optiga-trust-m/optiga-trust-m-1/externals/mbedtls/include/mbedtls/cipher.h ****     /** Information about the associated cipher. */
 287://MAC/Home/Downloads/getstarted-optiga-trust-m/optiga-trust-m-1/externals/mbedtls/include/mbedtls/cipher.h ****     const mbedtls_cipher_info_t *cipher_info;
 288://MAC/Home/Downloads/getstarted-optiga-trust-m/optiga-trust-m-1/externals/mbedtls/include/mbedtls/cipher.h **** 
 289://MAC/Home/Downloads/getstarted-optiga-trust-m/optiga-trust-m-1/externals/mbedtls/include/mbedtls/cipher.h ****     /** Key length to use. */
 290://MAC/Home/Downloads/getstarted-optiga-trust-m/optiga-trust-m-1/externals/mbedtls/include/mbedtls/cipher.h ****     int key_bitlen;
 291://MAC/Home/Downloads/getstarted-optiga-trust-m/optiga-trust-m-1/externals/mbedtls/include/mbedtls/cipher.h **** 
 292://MAC/Home/Downloads/getstarted-optiga-trust-m/optiga-trust-m-1/externals/mbedtls/include/mbedtls/cipher.h ****     /** Operation that the key of the context has been
 293://MAC/Home/Downloads/getstarted-optiga-trust-m/optiga-trust-m-1/externals/mbedtls/include/mbedtls/cipher.h ****      * initialized for.
 294://MAC/Home/Downloads/getstarted-optiga-trust-m/optiga-trust-m-1/externals/mbedtls/include/mbedtls/cipher.h ****      */
 295://MAC/Home/Downloads/getstarted-optiga-trust-m/optiga-trust-m-1/externals/mbedtls/include/mbedtls/cipher.h ****     mbedtls_operation_t operation;
 296://MAC/Home/Downloads/getstarted-optiga-trust-m/optiga-trust-m-1/externals/mbedtls/include/mbedtls/cipher.h **** 
 297://MAC/Home/Downloads/getstarted-optiga-trust-m/optiga-trust-m-1/externals/mbedtls/include/mbedtls/cipher.h **** #if defined(MBEDTLS_CIPHER_MODE_WITH_PADDING)
 298://MAC/Home/Downloads/getstarted-optiga-trust-m/optiga-trust-m-1/externals/mbedtls/include/mbedtls/cipher.h ****     /** Padding functions to use, if relevant for
 299://MAC/Home/Downloads/getstarted-optiga-trust-m/optiga-trust-m-1/externals/mbedtls/include/mbedtls/cipher.h ****      * the specific cipher mode.
 300://MAC/Home/Downloads/getstarted-optiga-trust-m/optiga-trust-m-1/externals/mbedtls/include/mbedtls/cipher.h ****      */
 301://MAC/Home/Downloads/getstarted-optiga-trust-m/optiga-trust-m-1/externals/mbedtls/include/mbedtls/cipher.h ****     void (*add_padding)( unsigned char *output, size_t olen, size_t data_len );
 302://MAC/Home/Downloads/getstarted-optiga-trust-m/optiga-trust-m-1/externals/mbedtls/include/mbedtls/cipher.h ****     int (*get_padding)( unsigned char *input, size_t ilen, size_t *data_len );
 303://MAC/Home/Downloads/getstarted-optiga-trust-m/optiga-trust-m-1/externals/mbedtls/include/mbedtls/cipher.h **** #endif
 304://MAC/Home/Downloads/getstarted-optiga-trust-m/optiga-trust-m-1/externals/mbedtls/include/mbedtls/cipher.h **** 
 305://MAC/Home/Downloads/getstarted-optiga-trust-m/optiga-trust-m-1/externals/mbedtls/include/mbedtls/cipher.h ****     /** Buffer for input that has not been processed yet. */
 306://MAC/Home/Downloads/getstarted-optiga-trust-m/optiga-trust-m-1/externals/mbedtls/include/mbedtls/cipher.h ****     unsigned char unprocessed_data[MBEDTLS_MAX_BLOCK_LENGTH];
 307://MAC/Home/Downloads/getstarted-optiga-trust-m/optiga-trust-m-1/externals/mbedtls/include/mbedtls/cipher.h **** 
 308://MAC/Home/Downloads/getstarted-optiga-trust-m/optiga-trust-m-1/externals/mbedtls/include/mbedtls/cipher.h ****     /** Number of Bytes that have not been processed yet. */
 309://MAC/Home/Downloads/getstarted-optiga-trust-m/optiga-trust-m-1/externals/mbedtls/include/mbedtls/cipher.h ****     size_t unprocessed_len;
 310://MAC/Home/Downloads/getstarted-optiga-trust-m/optiga-trust-m-1/externals/mbedtls/include/mbedtls/cipher.h **** 
 311://MAC/Home/Downloads/getstarted-optiga-trust-m/optiga-trust-m-1/externals/mbedtls/include/mbedtls/cipher.h ****     /** Current IV or NONCE_COUNTER for CTR-mode, data unit (or sector) number
 312://MAC/Home/Downloads/getstarted-optiga-trust-m/optiga-trust-m-1/externals/mbedtls/include/mbedtls/cipher.h ****      * for XTS-mode. */
 313://MAC/Home/Downloads/getstarted-optiga-trust-m/optiga-trust-m-1/externals/mbedtls/include/mbedtls/cipher.h ****     unsigned char iv[MBEDTLS_MAX_IV_LENGTH];
 314://MAC/Home/Downloads/getstarted-optiga-trust-m/optiga-trust-m-1/externals/mbedtls/include/mbedtls/cipher.h **** 
 315://MAC/Home/Downloads/getstarted-optiga-trust-m/optiga-trust-m-1/externals/mbedtls/include/mbedtls/cipher.h ****     /** IV size in Bytes, for ciphers with variable-length IVs. */
 316://MAC/Home/Downloads/getstarted-optiga-trust-m/optiga-trust-m-1/externals/mbedtls/include/mbedtls/cipher.h ****     size_t iv_size;
 317://MAC/Home/Downloads/getstarted-optiga-trust-m/optiga-trust-m-1/externals/mbedtls/include/mbedtls/cipher.h **** 
 318://MAC/Home/Downloads/getstarted-optiga-trust-m/optiga-trust-m-1/externals/mbedtls/include/mbedtls/cipher.h ****     /** The cipher-specific context. */
 319://MAC/Home/Downloads/getstarted-optiga-trust-m/optiga-trust-m-1/externals/mbedtls/include/mbedtls/cipher.h ****     void *cipher_ctx;
 320://MAC/Home/Downloads/getstarted-optiga-trust-m/optiga-trust-m-1/externals/mbedtls/include/mbedtls/cipher.h **** 
 321://MAC/Home/Downloads/getstarted-optiga-trust-m/optiga-trust-m-1/externals/mbedtls/include/mbedtls/cipher.h **** #if defined(MBEDTLS_CMAC_C)
 322://MAC/Home/Downloads/getstarted-optiga-trust-m/optiga-trust-m-1/externals/mbedtls/include/mbedtls/cipher.h ****     /** CMAC-specific context. */
 323://MAC/Home/Downloads/getstarted-optiga-trust-m/optiga-trust-m-1/externals/mbedtls/include/mbedtls/cipher.h ****     mbedtls_cmac_context_t *cmac_ctx;
 324://MAC/Home/Downloads/getstarted-optiga-trust-m/optiga-trust-m-1/externals/mbedtls/include/mbedtls/cipher.h **** #endif
 325://MAC/Home/Downloads/getstarted-optiga-trust-m/optiga-trust-m-1/externals/mbedtls/include/mbedtls/cipher.h **** } mbedtls_cipher_context_t;
 326://MAC/Home/Downloads/getstarted-optiga-trust-m/optiga-trust-m-1/externals/mbedtls/include/mbedtls/cipher.h **** 
 327://MAC/Home/Downloads/getstarted-optiga-trust-m/optiga-trust-m-1/externals/mbedtls/include/mbedtls/cipher.h **** /**
 328://MAC/Home/Downloads/getstarted-optiga-trust-m/optiga-trust-m-1/externals/mbedtls/include/mbedtls/cipher.h ****  * \brief This function retrieves the list of ciphers supported by the generic
 329://MAC/Home/Downloads/getstarted-optiga-trust-m/optiga-trust-m-1/externals/mbedtls/include/mbedtls/cipher.h ****  * cipher module.
 330://MAC/Home/Downloads/getstarted-optiga-trust-m/optiga-trust-m-1/externals/mbedtls/include/mbedtls/cipher.h ****  *
 331://MAC/Home/Downloads/getstarted-optiga-trust-m/optiga-trust-m-1/externals/mbedtls/include/mbedtls/cipher.h ****  * \return      A statically-allocated array of ciphers. The last entry
 332://MAC/Home/Downloads/getstarted-optiga-trust-m/optiga-trust-m-1/externals/mbedtls/include/mbedtls/cipher.h ****  *              is zero.
 333://MAC/Home/Downloads/getstarted-optiga-trust-m/optiga-trust-m-1/externals/mbedtls/include/mbedtls/cipher.h ****  */
 334://MAC/Home/Downloads/getstarted-optiga-trust-m/optiga-trust-m-1/externals/mbedtls/include/mbedtls/cipher.h **** const int *mbedtls_cipher_list( void );
 335://MAC/Home/Downloads/getstarted-optiga-trust-m/optiga-trust-m-1/externals/mbedtls/include/mbedtls/cipher.h **** 
 336://MAC/Home/Downloads/getstarted-optiga-trust-m/optiga-trust-m-1/externals/mbedtls/include/mbedtls/cipher.h **** /**
 337://MAC/Home/Downloads/getstarted-optiga-trust-m/optiga-trust-m-1/externals/mbedtls/include/mbedtls/cipher.h ****  * \brief               This function retrieves the cipher-information
 338://MAC/Home/Downloads/getstarted-optiga-trust-m/optiga-trust-m-1/externals/mbedtls/include/mbedtls/cipher.h ****  *                      structure associated with the given cipher name.
 339://MAC/Home/Downloads/getstarted-optiga-trust-m/optiga-trust-m-1/externals/mbedtls/include/mbedtls/cipher.h ****  *
 340://MAC/Home/Downloads/getstarted-optiga-trust-m/optiga-trust-m-1/externals/mbedtls/include/mbedtls/cipher.h ****  * \param cipher_name   Name of the cipher to search for. This must not be
 341://MAC/Home/Downloads/getstarted-optiga-trust-m/optiga-trust-m-1/externals/mbedtls/include/mbedtls/cipher.h ****  *                      \c NULL.
 342://MAC/Home/Downloads/getstarted-optiga-trust-m/optiga-trust-m-1/externals/mbedtls/include/mbedtls/cipher.h ****  *
 343://MAC/Home/Downloads/getstarted-optiga-trust-m/optiga-trust-m-1/externals/mbedtls/include/mbedtls/cipher.h ****  * \return              The cipher information structure associated with the
 344://MAC/Home/Downloads/getstarted-optiga-trust-m/optiga-trust-m-1/externals/mbedtls/include/mbedtls/cipher.h ****  *                      given \p cipher_name.
 345://MAC/Home/Downloads/getstarted-optiga-trust-m/optiga-trust-m-1/externals/mbedtls/include/mbedtls/cipher.h ****  * \return              \c NULL if the associated cipher information is not found.
 346://MAC/Home/Downloads/getstarted-optiga-trust-m/optiga-trust-m-1/externals/mbedtls/include/mbedtls/cipher.h ****  */
 347://MAC/Home/Downloads/getstarted-optiga-trust-m/optiga-trust-m-1/externals/mbedtls/include/mbedtls/cipher.h **** const mbedtls_cipher_info_t *mbedtls_cipher_info_from_string( const char *cipher_name );
 348://MAC/Home/Downloads/getstarted-optiga-trust-m/optiga-trust-m-1/externals/mbedtls/include/mbedtls/cipher.h **** 
 349://MAC/Home/Downloads/getstarted-optiga-trust-m/optiga-trust-m-1/externals/mbedtls/include/mbedtls/cipher.h **** /**
 350://MAC/Home/Downloads/getstarted-optiga-trust-m/optiga-trust-m-1/externals/mbedtls/include/mbedtls/cipher.h ****  * \brief               This function retrieves the cipher-information
 351://MAC/Home/Downloads/getstarted-optiga-trust-m/optiga-trust-m-1/externals/mbedtls/include/mbedtls/cipher.h ****  *                      structure associated with the given cipher type.
 352://MAC/Home/Downloads/getstarted-optiga-trust-m/optiga-trust-m-1/externals/mbedtls/include/mbedtls/cipher.h ****  *
 353://MAC/Home/Downloads/getstarted-optiga-trust-m/optiga-trust-m-1/externals/mbedtls/include/mbedtls/cipher.h ****  * \param cipher_type   Type of the cipher to search for.
 354://MAC/Home/Downloads/getstarted-optiga-trust-m/optiga-trust-m-1/externals/mbedtls/include/mbedtls/cipher.h ****  *
 355://MAC/Home/Downloads/getstarted-optiga-trust-m/optiga-trust-m-1/externals/mbedtls/include/mbedtls/cipher.h ****  * \return              The cipher information structure associated with the
 356://MAC/Home/Downloads/getstarted-optiga-trust-m/optiga-trust-m-1/externals/mbedtls/include/mbedtls/cipher.h ****  *                      given \p cipher_type.
 357://MAC/Home/Downloads/getstarted-optiga-trust-m/optiga-trust-m-1/externals/mbedtls/include/mbedtls/cipher.h ****  * \return              \c NULL if the associated cipher information is not found.
 358://MAC/Home/Downloads/getstarted-optiga-trust-m/optiga-trust-m-1/externals/mbedtls/include/mbedtls/cipher.h ****  */
 359://MAC/Home/Downloads/getstarted-optiga-trust-m/optiga-trust-m-1/externals/mbedtls/include/mbedtls/cipher.h **** const mbedtls_cipher_info_t *mbedtls_cipher_info_from_type( const mbedtls_cipher_type_t cipher_type
 360://MAC/Home/Downloads/getstarted-optiga-trust-m/optiga-trust-m-1/externals/mbedtls/include/mbedtls/cipher.h **** 
 361://MAC/Home/Downloads/getstarted-optiga-trust-m/optiga-trust-m-1/externals/mbedtls/include/mbedtls/cipher.h **** /**
 362://MAC/Home/Downloads/getstarted-optiga-trust-m/optiga-trust-m-1/externals/mbedtls/include/mbedtls/cipher.h ****  * \brief               This function retrieves the cipher-information
 363://MAC/Home/Downloads/getstarted-optiga-trust-m/optiga-trust-m-1/externals/mbedtls/include/mbedtls/cipher.h ****  *                      structure associated with the given cipher ID,
 364://MAC/Home/Downloads/getstarted-optiga-trust-m/optiga-trust-m-1/externals/mbedtls/include/mbedtls/cipher.h ****  *                      key size and mode.
 365://MAC/Home/Downloads/getstarted-optiga-trust-m/optiga-trust-m-1/externals/mbedtls/include/mbedtls/cipher.h ****  *
 366://MAC/Home/Downloads/getstarted-optiga-trust-m/optiga-trust-m-1/externals/mbedtls/include/mbedtls/cipher.h ****  * \param cipher_id     The ID of the cipher to search for. For example,
 367://MAC/Home/Downloads/getstarted-optiga-trust-m/optiga-trust-m-1/externals/mbedtls/include/mbedtls/cipher.h ****  *                      #MBEDTLS_CIPHER_ID_AES.
 368://MAC/Home/Downloads/getstarted-optiga-trust-m/optiga-trust-m-1/externals/mbedtls/include/mbedtls/cipher.h ****  * \param key_bitlen    The length of the key in bits.
 369://MAC/Home/Downloads/getstarted-optiga-trust-m/optiga-trust-m-1/externals/mbedtls/include/mbedtls/cipher.h ****  * \param mode          The cipher mode. For example, #MBEDTLS_MODE_CBC.
 370://MAC/Home/Downloads/getstarted-optiga-trust-m/optiga-trust-m-1/externals/mbedtls/include/mbedtls/cipher.h ****  *
 371://MAC/Home/Downloads/getstarted-optiga-trust-m/optiga-trust-m-1/externals/mbedtls/include/mbedtls/cipher.h ****  * \return              The cipher information structure associated with the
 372://MAC/Home/Downloads/getstarted-optiga-trust-m/optiga-trust-m-1/externals/mbedtls/include/mbedtls/cipher.h ****  *                      given \p cipher_id.
 373://MAC/Home/Downloads/getstarted-optiga-trust-m/optiga-trust-m-1/externals/mbedtls/include/mbedtls/cipher.h ****  * \return              \c NULL if the associated cipher information is not found.
 374://MAC/Home/Downloads/getstarted-optiga-trust-m/optiga-trust-m-1/externals/mbedtls/include/mbedtls/cipher.h ****  */
 375://MAC/Home/Downloads/getstarted-optiga-trust-m/optiga-trust-m-1/externals/mbedtls/include/mbedtls/cipher.h **** const mbedtls_cipher_info_t *mbedtls_cipher_info_from_values( const mbedtls_cipher_id_t cipher_id,
 376://MAC/Home/Downloads/getstarted-optiga-trust-m/optiga-trust-m-1/externals/mbedtls/include/mbedtls/cipher.h ****                                               int key_bitlen,
 377://MAC/Home/Downloads/getstarted-optiga-trust-m/optiga-trust-m-1/externals/mbedtls/include/mbedtls/cipher.h ****                                               const mbedtls_cipher_mode_t mode );
 378://MAC/Home/Downloads/getstarted-optiga-trust-m/optiga-trust-m-1/externals/mbedtls/include/mbedtls/cipher.h **** 
 379://MAC/Home/Downloads/getstarted-optiga-trust-m/optiga-trust-m-1/externals/mbedtls/include/mbedtls/cipher.h **** /**
 380://MAC/Home/Downloads/getstarted-optiga-trust-m/optiga-trust-m-1/externals/mbedtls/include/mbedtls/cipher.h ****  * \brief               This function initializes a \p cipher_context as NONE.
 381://MAC/Home/Downloads/getstarted-optiga-trust-m/optiga-trust-m-1/externals/mbedtls/include/mbedtls/cipher.h ****  *
 382://MAC/Home/Downloads/getstarted-optiga-trust-m/optiga-trust-m-1/externals/mbedtls/include/mbedtls/cipher.h ****  * \param ctx           The context to be initialized. This must not be \c NULL.
 383://MAC/Home/Downloads/getstarted-optiga-trust-m/optiga-trust-m-1/externals/mbedtls/include/mbedtls/cipher.h ****  */
 384://MAC/Home/Downloads/getstarted-optiga-trust-m/optiga-trust-m-1/externals/mbedtls/include/mbedtls/cipher.h **** void mbedtls_cipher_init( mbedtls_cipher_context_t *ctx );
 385://MAC/Home/Downloads/getstarted-optiga-trust-m/optiga-trust-m-1/externals/mbedtls/include/mbedtls/cipher.h **** 
 386://MAC/Home/Downloads/getstarted-optiga-trust-m/optiga-trust-m-1/externals/mbedtls/include/mbedtls/cipher.h **** /**
 387://MAC/Home/Downloads/getstarted-optiga-trust-m/optiga-trust-m-1/externals/mbedtls/include/mbedtls/cipher.h ****  * \brief               This function frees and clears the cipher-specific
 388://MAC/Home/Downloads/getstarted-optiga-trust-m/optiga-trust-m-1/externals/mbedtls/include/mbedtls/cipher.h ****  *                      context of \p ctx. Freeing \p ctx itself remains the
 389://MAC/Home/Downloads/getstarted-optiga-trust-m/optiga-trust-m-1/externals/mbedtls/include/mbedtls/cipher.h ****  *                      responsibility of the caller.
 390://MAC/Home/Downloads/getstarted-optiga-trust-m/optiga-trust-m-1/externals/mbedtls/include/mbedtls/cipher.h ****  *
 391://MAC/Home/Downloads/getstarted-optiga-trust-m/optiga-trust-m-1/externals/mbedtls/include/mbedtls/cipher.h ****  * \param ctx           The context to be freed. If this is \c NULL, the
 392://MAC/Home/Downloads/getstarted-optiga-trust-m/optiga-trust-m-1/externals/mbedtls/include/mbedtls/cipher.h ****  *                      function has no effect, otherwise this must point to an
 393://MAC/Home/Downloads/getstarted-optiga-trust-m/optiga-trust-m-1/externals/mbedtls/include/mbedtls/cipher.h ****  *                      initialized context.
 394://MAC/Home/Downloads/getstarted-optiga-trust-m/optiga-trust-m-1/externals/mbedtls/include/mbedtls/cipher.h ****  */
 395://MAC/Home/Downloads/getstarted-optiga-trust-m/optiga-trust-m-1/externals/mbedtls/include/mbedtls/cipher.h **** void mbedtls_cipher_free( mbedtls_cipher_context_t *ctx );
 396://MAC/Home/Downloads/getstarted-optiga-trust-m/optiga-trust-m-1/externals/mbedtls/include/mbedtls/cipher.h **** 
 397://MAC/Home/Downloads/getstarted-optiga-trust-m/optiga-trust-m-1/externals/mbedtls/include/mbedtls/cipher.h **** 
 398://MAC/Home/Downloads/getstarted-optiga-trust-m/optiga-trust-m-1/externals/mbedtls/include/mbedtls/cipher.h **** /**
 399://MAC/Home/Downloads/getstarted-optiga-trust-m/optiga-trust-m-1/externals/mbedtls/include/mbedtls/cipher.h ****  * \brief               This function initializes and fills the cipher-context
 400://MAC/Home/Downloads/getstarted-optiga-trust-m/optiga-trust-m-1/externals/mbedtls/include/mbedtls/cipher.h ****  *                      structure with the appropriate values. It also clears
 401://MAC/Home/Downloads/getstarted-optiga-trust-m/optiga-trust-m-1/externals/mbedtls/include/mbedtls/cipher.h ****  *                      the structure.
 402://MAC/Home/Downloads/getstarted-optiga-trust-m/optiga-trust-m-1/externals/mbedtls/include/mbedtls/cipher.h ****  *
 403://MAC/Home/Downloads/getstarted-optiga-trust-m/optiga-trust-m-1/externals/mbedtls/include/mbedtls/cipher.h ****  * \param ctx           The context to initialize. This must be initialized.
 404://MAC/Home/Downloads/getstarted-optiga-trust-m/optiga-trust-m-1/externals/mbedtls/include/mbedtls/cipher.h ****  * \param cipher_info   The cipher to use.
 405://MAC/Home/Downloads/getstarted-optiga-trust-m/optiga-trust-m-1/externals/mbedtls/include/mbedtls/cipher.h ****  *
 406://MAC/Home/Downloads/getstarted-optiga-trust-m/optiga-trust-m-1/externals/mbedtls/include/mbedtls/cipher.h ****  * \return              \c 0 on success.
 407://MAC/Home/Downloads/getstarted-optiga-trust-m/optiga-trust-m-1/externals/mbedtls/include/mbedtls/cipher.h ****  * \return              #MBEDTLS_ERR_CIPHER_BAD_INPUT_DATA on
 408://MAC/Home/Downloads/getstarted-optiga-trust-m/optiga-trust-m-1/externals/mbedtls/include/mbedtls/cipher.h ****  *                      parameter-verification failure.
 409://MAC/Home/Downloads/getstarted-optiga-trust-m/optiga-trust-m-1/externals/mbedtls/include/mbedtls/cipher.h ****  * \return              #MBEDTLS_ERR_CIPHER_ALLOC_FAILED if allocation of the
 410://MAC/Home/Downloads/getstarted-optiga-trust-m/optiga-trust-m-1/externals/mbedtls/include/mbedtls/cipher.h ****  *                      cipher-specific context fails.
 411://MAC/Home/Downloads/getstarted-optiga-trust-m/optiga-trust-m-1/externals/mbedtls/include/mbedtls/cipher.h ****  *
 412://MAC/Home/Downloads/getstarted-optiga-trust-m/optiga-trust-m-1/externals/mbedtls/include/mbedtls/cipher.h ****  * \internal Currently, the function also clears the structure.
 413://MAC/Home/Downloads/getstarted-optiga-trust-m/optiga-trust-m-1/externals/mbedtls/include/mbedtls/cipher.h ****  * In future versions, the caller will be required to call
 414://MAC/Home/Downloads/getstarted-optiga-trust-m/optiga-trust-m-1/externals/mbedtls/include/mbedtls/cipher.h ****  * mbedtls_cipher_init() on the structure first.
 415://MAC/Home/Downloads/getstarted-optiga-trust-m/optiga-trust-m-1/externals/mbedtls/include/mbedtls/cipher.h ****  */
 416://MAC/Home/Downloads/getstarted-optiga-trust-m/optiga-trust-m-1/externals/mbedtls/include/mbedtls/cipher.h **** int mbedtls_cipher_setup( mbedtls_cipher_context_t *ctx,
 417://MAC/Home/Downloads/getstarted-optiga-trust-m/optiga-trust-m-1/externals/mbedtls/include/mbedtls/cipher.h ****                           const mbedtls_cipher_info_t *cipher_info );
 418://MAC/Home/Downloads/getstarted-optiga-trust-m/optiga-trust-m-1/externals/mbedtls/include/mbedtls/cipher.h **** 
 419://MAC/Home/Downloads/getstarted-optiga-trust-m/optiga-trust-m-1/externals/mbedtls/include/mbedtls/cipher.h **** /**
 420://MAC/Home/Downloads/getstarted-optiga-trust-m/optiga-trust-m-1/externals/mbedtls/include/mbedtls/cipher.h ****  * \brief        This function returns the block size of the given cipher.
 421://MAC/Home/Downloads/getstarted-optiga-trust-m/optiga-trust-m-1/externals/mbedtls/include/mbedtls/cipher.h ****  *
 422://MAC/Home/Downloads/getstarted-optiga-trust-m/optiga-trust-m-1/externals/mbedtls/include/mbedtls/cipher.h ****  * \param ctx    The context of the cipher. This must be initialized.
 423://MAC/Home/Downloads/getstarted-optiga-trust-m/optiga-trust-m-1/externals/mbedtls/include/mbedtls/cipher.h ****  *
 424://MAC/Home/Downloads/getstarted-optiga-trust-m/optiga-trust-m-1/externals/mbedtls/include/mbedtls/cipher.h ****  * \return       The block size of the underlying cipher.
 425://MAC/Home/Downloads/getstarted-optiga-trust-m/optiga-trust-m-1/externals/mbedtls/include/mbedtls/cipher.h ****  * \return       \c 0 if \p ctx has not been initialized.
 426://MAC/Home/Downloads/getstarted-optiga-trust-m/optiga-trust-m-1/externals/mbedtls/include/mbedtls/cipher.h ****  */
 427://MAC/Home/Downloads/getstarted-optiga-trust-m/optiga-trust-m-1/externals/mbedtls/include/mbedtls/cipher.h **** static inline unsigned int mbedtls_cipher_get_block_size(
 428://MAC/Home/Downloads/getstarted-optiga-trust-m/optiga-trust-m-1/externals/mbedtls/include/mbedtls/cipher.h ****     const mbedtls_cipher_context_t *ctx )
 429://MAC/Home/Downloads/getstarted-optiga-trust-m/optiga-trust-m-1/externals/mbedtls/include/mbedtls/cipher.h **** {
 430://MAC/Home/Downloads/getstarted-optiga-trust-m/optiga-trust-m-1/externals/mbedtls/include/mbedtls/cipher.h ****     MBEDTLS_INTERNAL_VALIDATE_RET( ctx != NULL, 0 );
 431://MAC/Home/Downloads/getstarted-optiga-trust-m/optiga-trust-m-1/externals/mbedtls/include/mbedtls/cipher.h ****     if( ctx->cipher_info == NULL )
 432://MAC/Home/Downloads/getstarted-optiga-trust-m/optiga-trust-m-1/externals/mbedtls/include/mbedtls/cipher.h ****         return 0;
 433://MAC/Home/Downloads/getstarted-optiga-trust-m/optiga-trust-m-1/externals/mbedtls/include/mbedtls/cipher.h **** 
 434://MAC/Home/Downloads/getstarted-optiga-trust-m/optiga-trust-m-1/externals/mbedtls/include/mbedtls/cipher.h ****     return ctx->cipher_info->block_size;
 615              	 .loc 2 434 0
 616 001a 7169     	 ldr r1,[r6,#20]
 617              	.LBE7:
 618              	.LBE6:
 619              	 .loc 1 365 0
 620 001c 0128     	 cmp r0,#1
 621 001e 09D1     	 bne .L82
 366://MAC/Home/Downloads/getstarted-optiga-trust-m/optiga-trust-m-1/externals/mbedtls/library/cipher.c ****     {
 367://MAC/Home/Downloads/getstarted-optiga-trust-m/optiga-trust-m-1/externals/mbedtls/library/cipher.c ****         if( ilen != block_size )
 622              	 .loc 1 367 0
 623 0020 8D42     	 cmp r5,r1
 624 0022 14D1     	 bne .L84
 368://MAC/Home/Downloads/getstarted-optiga-trust-m/optiga-trust-m-1/externals/mbedtls/library/cipher.c ****             return( MBEDTLS_ERR_CIPHER_FULL_BLOCK_EXPECTED );
 369://MAC/Home/Downloads/getstarted-optiga-trust-m/optiga-trust-m-1/externals/mbedtls/library/cipher.c **** 
 370://MAC/Home/Downloads/getstarted-optiga-trust-m/optiga-trust-m-1/externals/mbedtls/library/cipher.c ****         *olen = ilen;
 371://MAC/Home/Downloads/getstarted-optiga-trust-m/optiga-trust-m-1/externals/mbedtls/library/cipher.c **** 
 372://MAC/Home/Downloads/getstarted-optiga-trust-m/optiga-trust-m-1/externals/mbedtls/library/cipher.c ****         if( 0 != ( ret = ctx->cipher_info->base->ecb_func( ctx->cipher_ctx,
 625              	 .loc 1 372 0
 626 0024 0821     	 mov r1,#8
 627 0026 B069     	 ldr r0,[r6,#24]
 370://MAC/Home/Downloads/getstarted-optiga-trust-m/optiga-trust-m-1/externals/mbedtls/library/cipher.c **** 
 628              	 .loc 1 370 0
 629 0028 3D60     	 str r5,[r7]
 630              	 .loc 1 372 0
 631 002a 6156     	 ldrsb r1,[r4,r1]
 632 002c 4568     	 ldr r5,[r0,#4]
 633              	.LVL63:
 634 002e 606B     	 ldr r0,[r4,#52]
 635 0030 A847     	 blx r5
 636              	.LVL64:
 637 0032 11E0     	 b .L81
 638              	.LVL65:
 639              	.L82:
 373://MAC/Home/Downloads/getstarted-optiga-trust-m/optiga-trust-m-1/externals/mbedtls/library/cipher.c ****                     ctx->operation, input, output ) ) )
 374://MAC/Home/Downloads/getstarted-optiga-trust-m/optiga-trust-m-1/externals/mbedtls/library/cipher.c ****         {
 375://MAC/Home/Downloads/getstarted-optiga-trust-m/optiga-trust-m-1/externals/mbedtls/library/cipher.c ****             return( ret );
 376://MAC/Home/Downloads/getstarted-optiga-trust-m/optiga-trust-m-1/externals/mbedtls/library/cipher.c ****         }
 377://MAC/Home/Downloads/getstarted-optiga-trust-m/optiga-trust-m-1/externals/mbedtls/library/cipher.c **** 
 378://MAC/Home/Downloads/getstarted-optiga-trust-m/optiga-trust-m-1/externals/mbedtls/library/cipher.c ****         return( 0 );
 379://MAC/Home/Downloads/getstarted-optiga-trust-m/optiga-trust-m-1/externals/mbedtls/library/cipher.c ****     }
 380://MAC/Home/Downloads/getstarted-optiga-trust-m/optiga-trust-m-1/externals/mbedtls/library/cipher.c **** 
 381://MAC/Home/Downloads/getstarted-optiga-trust-m/optiga-trust-m-1/externals/mbedtls/library/cipher.c **** #if defined(MBEDTLS_GCM_C)
 382://MAC/Home/Downloads/getstarted-optiga-trust-m/optiga-trust-m-1/externals/mbedtls/library/cipher.c ****     if( ctx->cipher_info->mode == MBEDTLS_MODE_GCM )
 383://MAC/Home/Downloads/getstarted-optiga-trust-m/optiga-trust-m-1/externals/mbedtls/library/cipher.c ****     {
 384://MAC/Home/Downloads/getstarted-optiga-trust-m/optiga-trust-m-1/externals/mbedtls/library/cipher.c ****         *olen = ilen;
 385://MAC/Home/Downloads/getstarted-optiga-trust-m/optiga-trust-m-1/externals/mbedtls/library/cipher.c ****         return( mbedtls_gcm_update( (mbedtls_gcm_context *) ctx->cipher_ctx, ilen, input,
 386://MAC/Home/Downloads/getstarted-optiga-trust-m/optiga-trust-m-1/externals/mbedtls/library/cipher.c ****                                     output ) );
 387://MAC/Home/Downloads/getstarted-optiga-trust-m/optiga-trust-m-1/externals/mbedtls/library/cipher.c ****     }
 388://MAC/Home/Downloads/getstarted-optiga-trust-m/optiga-trust-m-1/externals/mbedtls/library/cipher.c **** #endif
 389://MAC/Home/Downloads/getstarted-optiga-trust-m/optiga-trust-m-1/externals/mbedtls/library/cipher.c **** 
 390://MAC/Home/Downloads/getstarted-optiga-trust-m/optiga-trust-m-1/externals/mbedtls/library/cipher.c **** #if defined(MBEDTLS_CHACHAPOLY_C)
 391://MAC/Home/Downloads/getstarted-optiga-trust-m/optiga-trust-m-1/externals/mbedtls/library/cipher.c ****     if ( ctx->cipher_info->type == MBEDTLS_CIPHER_CHACHA20_POLY1305 )
 392://MAC/Home/Downloads/getstarted-optiga-trust-m/optiga-trust-m-1/externals/mbedtls/library/cipher.c ****     {
 393://MAC/Home/Downloads/getstarted-optiga-trust-m/optiga-trust-m-1/externals/mbedtls/library/cipher.c ****         *olen = ilen;
 394://MAC/Home/Downloads/getstarted-optiga-trust-m/optiga-trust-m-1/externals/mbedtls/library/cipher.c ****         return( mbedtls_chachapoly_update( (mbedtls_chachapoly_context*) ctx->cipher_ctx,
 395://MAC/Home/Downloads/getstarted-optiga-trust-m/optiga-trust-m-1/externals/mbedtls/library/cipher.c ****                                            ilen, input, output ) );
 396://MAC/Home/Downloads/getstarted-optiga-trust-m/optiga-trust-m-1/externals/mbedtls/library/cipher.c ****     }
 397://MAC/Home/Downloads/getstarted-optiga-trust-m/optiga-trust-m-1/externals/mbedtls/library/cipher.c **** #endif
 398://MAC/Home/Downloads/getstarted-optiga-trust-m/optiga-trust-m-1/externals/mbedtls/library/cipher.c **** 
 399://MAC/Home/Downloads/getstarted-optiga-trust-m/optiga-trust-m-1/externals/mbedtls/library/cipher.c ****     if ( 0 == block_size )
 640              	 .loc 1 399 0
 641 0034 0029     	 cmp r1,#0
 642 0036 0CD0     	 beq .L85
 400://MAC/Home/Downloads/getstarted-optiga-trust-m/optiga-trust-m-1/externals/mbedtls/library/cipher.c ****     {
 401://MAC/Home/Downloads/getstarted-optiga-trust-m/optiga-trust-m-1/externals/mbedtls/library/cipher.c ****         return( MBEDTLS_ERR_CIPHER_INVALID_CONTEXT );
 402://MAC/Home/Downloads/getstarted-optiga-trust-m/optiga-trust-m-1/externals/mbedtls/library/cipher.c ****     }
 403://MAC/Home/Downloads/getstarted-optiga-trust-m/optiga-trust-m-1/externals/mbedtls/library/cipher.c **** 
 404://MAC/Home/Downloads/getstarted-optiga-trust-m/optiga-trust-m-1/externals/mbedtls/library/cipher.c ****     if( input == output &&
 643              	 .loc 1 404 0
 644 0038 9A42     	 cmp r2,r3
 645 003a 0CD1     	 bne .L86
 646              	 .loc 1 404 0 is_stmt 0 discriminator 1
 647 003c E369     	 ldr r3,[r4,#28]
 648              	.LVL66:
 649 003e 002B     	 cmp r3,#0
 650 0040 E3D1     	 bne .L83
 405://MAC/Home/Downloads/getstarted-optiga-trust-m/optiga-trust-m-1/externals/mbedtls/library/cipher.c ****        ( ctx->unprocessed_len != 0 || ilen % block_size ) )
 651              	 .loc 1 405 0 is_stmt 1
 652 0042 281C     	 mov r0,r5
 653 0044 FFF7FEFF 	 bl __aeabi_uidivmod
 654              	.LVL67:
 655 0048 0029     	 cmp r1,#0
 656 004a DED1     	 bne .L83
 657 004c 03E0     	 b .L86
 658              	.LVL68:
 659              	.L84:
 368://MAC/Home/Downloads/getstarted-optiga-trust-m/optiga-trust-m-1/externals/mbedtls/library/cipher.c **** 
 660              	 .loc 1 368 0
 661 004e 0448     	 ldr r0,.L87+4
 662 0050 02E0     	 b .L81
 663              	.L85:
 401://MAC/Home/Downloads/getstarted-optiga-trust-m/optiga-trust-m-1/externals/mbedtls/library/cipher.c ****     }
 664              	 .loc 1 401 0
 665 0052 0448     	 ldr r0,.L87+8
 666 0054 00E0     	 b .L81
 667              	.LVL69:
 668              	.L86:
 406://MAC/Home/Downloads/getstarted-optiga-trust-m/optiga-trust-m-1/externals/mbedtls/library/cipher.c ****     {
 407://MAC/Home/Downloads/getstarted-optiga-trust-m/optiga-trust-m-1/externals/mbedtls/library/cipher.c ****         return( MBEDTLS_ERR_CIPHER_BAD_INPUT_DATA );
 408://MAC/Home/Downloads/getstarted-optiga-trust-m/optiga-trust-m-1/externals/mbedtls/library/cipher.c ****     }
 409://MAC/Home/Downloads/getstarted-optiga-trust-m/optiga-trust-m-1/externals/mbedtls/library/cipher.c **** 
 410://MAC/Home/Downloads/getstarted-optiga-trust-m/optiga-trust-m-1/externals/mbedtls/library/cipher.c **** #if defined(MBEDTLS_CIPHER_MODE_CBC)
 411://MAC/Home/Downloads/getstarted-optiga-trust-m/optiga-trust-m-1/externals/mbedtls/library/cipher.c ****     if( ctx->cipher_info->mode == MBEDTLS_MODE_CBC )
 412://MAC/Home/Downloads/getstarted-optiga-trust-m/optiga-trust-m-1/externals/mbedtls/library/cipher.c ****     {
 413://MAC/Home/Downloads/getstarted-optiga-trust-m/optiga-trust-m-1/externals/mbedtls/library/cipher.c ****         size_t copy_len = 0;
 414://MAC/Home/Downloads/getstarted-optiga-trust-m/optiga-trust-m-1/externals/mbedtls/library/cipher.c **** 
 415://MAC/Home/Downloads/getstarted-optiga-trust-m/optiga-trust-m-1/externals/mbedtls/library/cipher.c ****         /*
 416://MAC/Home/Downloads/getstarted-optiga-trust-m/optiga-trust-m-1/externals/mbedtls/library/cipher.c ****          * If there is not enough data for a full block, cache it.
 417://MAC/Home/Downloads/getstarted-optiga-trust-m/optiga-trust-m-1/externals/mbedtls/library/cipher.c ****          */
 418://MAC/Home/Downloads/getstarted-optiga-trust-m/optiga-trust-m-1/externals/mbedtls/library/cipher.c ****         if( ( ctx->operation == MBEDTLS_DECRYPT && NULL != ctx->add_padding &&
 419://MAC/Home/Downloads/getstarted-optiga-trust-m/optiga-trust-m-1/externals/mbedtls/library/cipher.c ****                 ilen <= block_size - ctx->unprocessed_len ) ||
 420://MAC/Home/Downloads/getstarted-optiga-trust-m/optiga-trust-m-1/externals/mbedtls/library/cipher.c ****             ( ctx->operation == MBEDTLS_DECRYPT && NULL == ctx->add_padding &&
 421://MAC/Home/Downloads/getstarted-optiga-trust-m/optiga-trust-m-1/externals/mbedtls/library/cipher.c ****                 ilen < block_size - ctx->unprocessed_len ) ||
 422://MAC/Home/Downloads/getstarted-optiga-trust-m/optiga-trust-m-1/externals/mbedtls/library/cipher.c ****              ( ctx->operation == MBEDTLS_ENCRYPT &&
 423://MAC/Home/Downloads/getstarted-optiga-trust-m/optiga-trust-m-1/externals/mbedtls/library/cipher.c ****                 ilen < block_size - ctx->unprocessed_len ) )
 424://MAC/Home/Downloads/getstarted-optiga-trust-m/optiga-trust-m-1/externals/mbedtls/library/cipher.c ****         {
 425://MAC/Home/Downloads/getstarted-optiga-trust-m/optiga-trust-m-1/externals/mbedtls/library/cipher.c ****             memcpy( &( ctx->unprocessed_data[ctx->unprocessed_len] ), input,
 426://MAC/Home/Downloads/getstarted-optiga-trust-m/optiga-trust-m-1/externals/mbedtls/library/cipher.c ****                     ilen );
 427://MAC/Home/Downloads/getstarted-optiga-trust-m/optiga-trust-m-1/externals/mbedtls/library/cipher.c **** 
 428://MAC/Home/Downloads/getstarted-optiga-trust-m/optiga-trust-m-1/externals/mbedtls/library/cipher.c ****             ctx->unprocessed_len += ilen;
 429://MAC/Home/Downloads/getstarted-optiga-trust-m/optiga-trust-m-1/externals/mbedtls/library/cipher.c ****             return( 0 );
 430://MAC/Home/Downloads/getstarted-optiga-trust-m/optiga-trust-m-1/externals/mbedtls/library/cipher.c ****         }
 431://MAC/Home/Downloads/getstarted-optiga-trust-m/optiga-trust-m-1/externals/mbedtls/library/cipher.c **** 
 432://MAC/Home/Downloads/getstarted-optiga-trust-m/optiga-trust-m-1/externals/mbedtls/library/cipher.c ****         /*
 433://MAC/Home/Downloads/getstarted-optiga-trust-m/optiga-trust-m-1/externals/mbedtls/library/cipher.c ****          * Process cached data first
 434://MAC/Home/Downloads/getstarted-optiga-trust-m/optiga-trust-m-1/externals/mbedtls/library/cipher.c ****          */
 435://MAC/Home/Downloads/getstarted-optiga-trust-m/optiga-trust-m-1/externals/mbedtls/library/cipher.c ****         if( 0 != ctx->unprocessed_len )
 436://MAC/Home/Downloads/getstarted-optiga-trust-m/optiga-trust-m-1/externals/mbedtls/library/cipher.c ****         {
 437://MAC/Home/Downloads/getstarted-optiga-trust-m/optiga-trust-m-1/externals/mbedtls/library/cipher.c ****             copy_len = block_size - ctx->unprocessed_len;
 438://MAC/Home/Downloads/getstarted-optiga-trust-m/optiga-trust-m-1/externals/mbedtls/library/cipher.c **** 
 439://MAC/Home/Downloads/getstarted-optiga-trust-m/optiga-trust-m-1/externals/mbedtls/library/cipher.c ****             memcpy( &( ctx->unprocessed_data[ctx->unprocessed_len] ), input,
 440://MAC/Home/Downloads/getstarted-optiga-trust-m/optiga-trust-m-1/externals/mbedtls/library/cipher.c ****                     copy_len );
 441://MAC/Home/Downloads/getstarted-optiga-trust-m/optiga-trust-m-1/externals/mbedtls/library/cipher.c **** 
 442://MAC/Home/Downloads/getstarted-optiga-trust-m/optiga-trust-m-1/externals/mbedtls/library/cipher.c ****             if( 0 != ( ret = ctx->cipher_info->base->cbc_func( ctx->cipher_ctx,
 443://MAC/Home/Downloads/getstarted-optiga-trust-m/optiga-trust-m-1/externals/mbedtls/library/cipher.c ****                     ctx->operation, block_size, ctx->iv,
 444://MAC/Home/Downloads/getstarted-optiga-trust-m/optiga-trust-m-1/externals/mbedtls/library/cipher.c ****                     ctx->unprocessed_data, output ) ) )
 445://MAC/Home/Downloads/getstarted-optiga-trust-m/optiga-trust-m-1/externals/mbedtls/library/cipher.c ****             {
 446://MAC/Home/Downloads/getstarted-optiga-trust-m/optiga-trust-m-1/externals/mbedtls/library/cipher.c ****                 return( ret );
 447://MAC/Home/Downloads/getstarted-optiga-trust-m/optiga-trust-m-1/externals/mbedtls/library/cipher.c ****             }
 448://MAC/Home/Downloads/getstarted-optiga-trust-m/optiga-trust-m-1/externals/mbedtls/library/cipher.c **** 
 449://MAC/Home/Downloads/getstarted-optiga-trust-m/optiga-trust-m-1/externals/mbedtls/library/cipher.c ****             *olen += block_size;
 450://MAC/Home/Downloads/getstarted-optiga-trust-m/optiga-trust-m-1/externals/mbedtls/library/cipher.c ****             output += block_size;
 451://MAC/Home/Downloads/getstarted-optiga-trust-m/optiga-trust-m-1/externals/mbedtls/library/cipher.c ****             ctx->unprocessed_len = 0;
 452://MAC/Home/Downloads/getstarted-optiga-trust-m/optiga-trust-m-1/externals/mbedtls/library/cipher.c **** 
 453://MAC/Home/Downloads/getstarted-optiga-trust-m/optiga-trust-m-1/externals/mbedtls/library/cipher.c ****             input += copy_len;
 454://MAC/Home/Downloads/getstarted-optiga-trust-m/optiga-trust-m-1/externals/mbedtls/library/cipher.c ****             ilen -= copy_len;
 455://MAC/Home/Downloads/getstarted-optiga-trust-m/optiga-trust-m-1/externals/mbedtls/library/cipher.c ****         }
 456://MAC/Home/Downloads/getstarted-optiga-trust-m/optiga-trust-m-1/externals/mbedtls/library/cipher.c **** 
 457://MAC/Home/Downloads/getstarted-optiga-trust-m/optiga-trust-m-1/externals/mbedtls/library/cipher.c ****         /*
 458://MAC/Home/Downloads/getstarted-optiga-trust-m/optiga-trust-m-1/externals/mbedtls/library/cipher.c ****          * Cache final, incomplete block
 459://MAC/Home/Downloads/getstarted-optiga-trust-m/optiga-trust-m-1/externals/mbedtls/library/cipher.c ****          */
 460://MAC/Home/Downloads/getstarted-optiga-trust-m/optiga-trust-m-1/externals/mbedtls/library/cipher.c ****         if( 0 != ilen )
 461://MAC/Home/Downloads/getstarted-optiga-trust-m/optiga-trust-m-1/externals/mbedtls/library/cipher.c ****         {
 462://MAC/Home/Downloads/getstarted-optiga-trust-m/optiga-trust-m-1/externals/mbedtls/library/cipher.c ****             if( 0 == block_size )
 463://MAC/Home/Downloads/getstarted-optiga-trust-m/optiga-trust-m-1/externals/mbedtls/library/cipher.c ****             {
 464://MAC/Home/Downloads/getstarted-optiga-trust-m/optiga-trust-m-1/externals/mbedtls/library/cipher.c ****                 return( MBEDTLS_ERR_CIPHER_INVALID_CONTEXT );
 465://MAC/Home/Downloads/getstarted-optiga-trust-m/optiga-trust-m-1/externals/mbedtls/library/cipher.c ****             }
 466://MAC/Home/Downloads/getstarted-optiga-trust-m/optiga-trust-m-1/externals/mbedtls/library/cipher.c **** 
 467://MAC/Home/Downloads/getstarted-optiga-trust-m/optiga-trust-m-1/externals/mbedtls/library/cipher.c ****             /* Encryption: only cache partial blocks
 468://MAC/Home/Downloads/getstarted-optiga-trust-m/optiga-trust-m-1/externals/mbedtls/library/cipher.c ****              * Decryption w/ padding: always keep at least one whole block
 469://MAC/Home/Downloads/getstarted-optiga-trust-m/optiga-trust-m-1/externals/mbedtls/library/cipher.c ****              * Decryption w/o padding: only cache partial blocks
 470://MAC/Home/Downloads/getstarted-optiga-trust-m/optiga-trust-m-1/externals/mbedtls/library/cipher.c ****              */
 471://MAC/Home/Downloads/getstarted-optiga-trust-m/optiga-trust-m-1/externals/mbedtls/library/cipher.c ****             copy_len = ilen % block_size;
 472://MAC/Home/Downloads/getstarted-optiga-trust-m/optiga-trust-m-1/externals/mbedtls/library/cipher.c ****             if( copy_len == 0 &&
 473://MAC/Home/Downloads/getstarted-optiga-trust-m/optiga-trust-m-1/externals/mbedtls/library/cipher.c ****                 ctx->operation == MBEDTLS_DECRYPT &&
 474://MAC/Home/Downloads/getstarted-optiga-trust-m/optiga-trust-m-1/externals/mbedtls/library/cipher.c ****                 NULL != ctx->add_padding)
 475://MAC/Home/Downloads/getstarted-optiga-trust-m/optiga-trust-m-1/externals/mbedtls/library/cipher.c ****             {
 476://MAC/Home/Downloads/getstarted-optiga-trust-m/optiga-trust-m-1/externals/mbedtls/library/cipher.c ****                 copy_len = block_size;
 477://MAC/Home/Downloads/getstarted-optiga-trust-m/optiga-trust-m-1/externals/mbedtls/library/cipher.c ****             }
 478://MAC/Home/Downloads/getstarted-optiga-trust-m/optiga-trust-m-1/externals/mbedtls/library/cipher.c **** 
 479://MAC/Home/Downloads/getstarted-optiga-trust-m/optiga-trust-m-1/externals/mbedtls/library/cipher.c ****             memcpy( ctx->unprocessed_data, &( input[ilen - copy_len] ),
 480://MAC/Home/Downloads/getstarted-optiga-trust-m/optiga-trust-m-1/externals/mbedtls/library/cipher.c ****                     copy_len );
 481://MAC/Home/Downloads/getstarted-optiga-trust-m/optiga-trust-m-1/externals/mbedtls/library/cipher.c **** 
 482://MAC/Home/Downloads/getstarted-optiga-trust-m/optiga-trust-m-1/externals/mbedtls/library/cipher.c ****             ctx->unprocessed_len += copy_len;
 483://MAC/Home/Downloads/getstarted-optiga-trust-m/optiga-trust-m-1/externals/mbedtls/library/cipher.c ****             ilen -= copy_len;
 484://MAC/Home/Downloads/getstarted-optiga-trust-m/optiga-trust-m-1/externals/mbedtls/library/cipher.c ****         }
 485://MAC/Home/Downloads/getstarted-optiga-trust-m/optiga-trust-m-1/externals/mbedtls/library/cipher.c **** 
 486://MAC/Home/Downloads/getstarted-optiga-trust-m/optiga-trust-m-1/externals/mbedtls/library/cipher.c ****         /*
 487://MAC/Home/Downloads/getstarted-optiga-trust-m/optiga-trust-m-1/externals/mbedtls/library/cipher.c ****          * Process remaining full blocks
 488://MAC/Home/Downloads/getstarted-optiga-trust-m/optiga-trust-m-1/externals/mbedtls/library/cipher.c ****          */
 489://MAC/Home/Downloads/getstarted-optiga-trust-m/optiga-trust-m-1/externals/mbedtls/library/cipher.c ****         if( ilen )
 490://MAC/Home/Downloads/getstarted-optiga-trust-m/optiga-trust-m-1/externals/mbedtls/library/cipher.c ****         {
 491://MAC/Home/Downloads/getstarted-optiga-trust-m/optiga-trust-m-1/externals/mbedtls/library/cipher.c ****             if( 0 != ( ret = ctx->cipher_info->base->cbc_func( ctx->cipher_ctx,
 492://MAC/Home/Downloads/getstarted-optiga-trust-m/optiga-trust-m-1/externals/mbedtls/library/cipher.c ****                     ctx->operation, ilen, ctx->iv, input, output ) ) )
 493://MAC/Home/Downloads/getstarted-optiga-trust-m/optiga-trust-m-1/externals/mbedtls/library/cipher.c ****             {
 494://MAC/Home/Downloads/getstarted-optiga-trust-m/optiga-trust-m-1/externals/mbedtls/library/cipher.c ****                 return( ret );
 495://MAC/Home/Downloads/getstarted-optiga-trust-m/optiga-trust-m-1/externals/mbedtls/library/cipher.c ****             }
 496://MAC/Home/Downloads/getstarted-optiga-trust-m/optiga-trust-m-1/externals/mbedtls/library/cipher.c **** 
 497://MAC/Home/Downloads/getstarted-optiga-trust-m/optiga-trust-m-1/externals/mbedtls/library/cipher.c ****             *olen += ilen;
 498://MAC/Home/Downloads/getstarted-optiga-trust-m/optiga-trust-m-1/externals/mbedtls/library/cipher.c ****         }
 499://MAC/Home/Downloads/getstarted-optiga-trust-m/optiga-trust-m-1/externals/mbedtls/library/cipher.c **** 
 500://MAC/Home/Downloads/getstarted-optiga-trust-m/optiga-trust-m-1/externals/mbedtls/library/cipher.c ****         return( 0 );
 501://MAC/Home/Downloads/getstarted-optiga-trust-m/optiga-trust-m-1/externals/mbedtls/library/cipher.c ****     }
 502://MAC/Home/Downloads/getstarted-optiga-trust-m/optiga-trust-m-1/externals/mbedtls/library/cipher.c **** #endif /* MBEDTLS_CIPHER_MODE_CBC */
 503://MAC/Home/Downloads/getstarted-optiga-trust-m/optiga-trust-m-1/externals/mbedtls/library/cipher.c **** 
 504://MAC/Home/Downloads/getstarted-optiga-trust-m/optiga-trust-m-1/externals/mbedtls/library/cipher.c **** #if defined(MBEDTLS_CIPHER_MODE_CFB)
 505://MAC/Home/Downloads/getstarted-optiga-trust-m/optiga-trust-m-1/externals/mbedtls/library/cipher.c ****     if( ctx->cipher_info->mode == MBEDTLS_MODE_CFB )
 506://MAC/Home/Downloads/getstarted-optiga-trust-m/optiga-trust-m-1/externals/mbedtls/library/cipher.c ****     {
 507://MAC/Home/Downloads/getstarted-optiga-trust-m/optiga-trust-m-1/externals/mbedtls/library/cipher.c ****         if( 0 != ( ret = ctx->cipher_info->base->cfb_func( ctx->cipher_ctx,
 508://MAC/Home/Downloads/getstarted-optiga-trust-m/optiga-trust-m-1/externals/mbedtls/library/cipher.c ****                 ctx->operation, ilen, &ctx->unprocessed_len, ctx->iv,
 509://MAC/Home/Downloads/getstarted-optiga-trust-m/optiga-trust-m-1/externals/mbedtls/library/cipher.c ****                 input, output ) ) )
 510://MAC/Home/Downloads/getstarted-optiga-trust-m/optiga-trust-m-1/externals/mbedtls/library/cipher.c ****         {
 511://MAC/Home/Downloads/getstarted-optiga-trust-m/optiga-trust-m-1/externals/mbedtls/library/cipher.c ****             return( ret );
 512://MAC/Home/Downloads/getstarted-optiga-trust-m/optiga-trust-m-1/externals/mbedtls/library/cipher.c ****         }
 513://MAC/Home/Downloads/getstarted-optiga-trust-m/optiga-trust-m-1/externals/mbedtls/library/cipher.c **** 
 514://MAC/Home/Downloads/getstarted-optiga-trust-m/optiga-trust-m-1/externals/mbedtls/library/cipher.c ****         *olen = ilen;
 515://MAC/Home/Downloads/getstarted-optiga-trust-m/optiga-trust-m-1/externals/mbedtls/library/cipher.c **** 
 516://MAC/Home/Downloads/getstarted-optiga-trust-m/optiga-trust-m-1/externals/mbedtls/library/cipher.c ****         return( 0 );
 517://MAC/Home/Downloads/getstarted-optiga-trust-m/optiga-trust-m-1/externals/mbedtls/library/cipher.c ****     }
 518://MAC/Home/Downloads/getstarted-optiga-trust-m/optiga-trust-m-1/externals/mbedtls/library/cipher.c **** #endif /* MBEDTLS_CIPHER_MODE_CFB */
 519://MAC/Home/Downloads/getstarted-optiga-trust-m/optiga-trust-m-1/externals/mbedtls/library/cipher.c **** 
 520://MAC/Home/Downloads/getstarted-optiga-trust-m/optiga-trust-m-1/externals/mbedtls/library/cipher.c **** #if defined(MBEDTLS_CIPHER_MODE_OFB)
 521://MAC/Home/Downloads/getstarted-optiga-trust-m/optiga-trust-m-1/externals/mbedtls/library/cipher.c ****     if( ctx->cipher_info->mode == MBEDTLS_MODE_OFB )
 522://MAC/Home/Downloads/getstarted-optiga-trust-m/optiga-trust-m-1/externals/mbedtls/library/cipher.c ****     {
 523://MAC/Home/Downloads/getstarted-optiga-trust-m/optiga-trust-m-1/externals/mbedtls/library/cipher.c ****         if( 0 != ( ret = ctx->cipher_info->base->ofb_func( ctx->cipher_ctx,
 524://MAC/Home/Downloads/getstarted-optiga-trust-m/optiga-trust-m-1/externals/mbedtls/library/cipher.c ****                 ilen, &ctx->unprocessed_len, ctx->iv, input, output ) ) )
 525://MAC/Home/Downloads/getstarted-optiga-trust-m/optiga-trust-m-1/externals/mbedtls/library/cipher.c ****         {
 526://MAC/Home/Downloads/getstarted-optiga-trust-m/optiga-trust-m-1/externals/mbedtls/library/cipher.c ****             return( ret );
 527://MAC/Home/Downloads/getstarted-optiga-trust-m/optiga-trust-m-1/externals/mbedtls/library/cipher.c ****         }
 528://MAC/Home/Downloads/getstarted-optiga-trust-m/optiga-trust-m-1/externals/mbedtls/library/cipher.c **** 
 529://MAC/Home/Downloads/getstarted-optiga-trust-m/optiga-trust-m-1/externals/mbedtls/library/cipher.c ****         *olen = ilen;
 530://MAC/Home/Downloads/getstarted-optiga-trust-m/optiga-trust-m-1/externals/mbedtls/library/cipher.c **** 
 531://MAC/Home/Downloads/getstarted-optiga-trust-m/optiga-trust-m-1/externals/mbedtls/library/cipher.c ****         return( 0 );
 532://MAC/Home/Downloads/getstarted-optiga-trust-m/optiga-trust-m-1/externals/mbedtls/library/cipher.c ****     }
 533://MAC/Home/Downloads/getstarted-optiga-trust-m/optiga-trust-m-1/externals/mbedtls/library/cipher.c **** #endif /* MBEDTLS_CIPHER_MODE_OFB */
 534://MAC/Home/Downloads/getstarted-optiga-trust-m/optiga-trust-m-1/externals/mbedtls/library/cipher.c **** 
 535://MAC/Home/Downloads/getstarted-optiga-trust-m/optiga-trust-m-1/externals/mbedtls/library/cipher.c **** #if defined(MBEDTLS_CIPHER_MODE_CTR)
 536://MAC/Home/Downloads/getstarted-optiga-trust-m/optiga-trust-m-1/externals/mbedtls/library/cipher.c ****     if( ctx->cipher_info->mode == MBEDTLS_MODE_CTR )
 537://MAC/Home/Downloads/getstarted-optiga-trust-m/optiga-trust-m-1/externals/mbedtls/library/cipher.c ****     {
 538://MAC/Home/Downloads/getstarted-optiga-trust-m/optiga-trust-m-1/externals/mbedtls/library/cipher.c ****         if( 0 != ( ret = ctx->cipher_info->base->ctr_func( ctx->cipher_ctx,
 539://MAC/Home/Downloads/getstarted-optiga-trust-m/optiga-trust-m-1/externals/mbedtls/library/cipher.c ****                 ilen, &ctx->unprocessed_len, ctx->iv,
 540://MAC/Home/Downloads/getstarted-optiga-trust-m/optiga-trust-m-1/externals/mbedtls/library/cipher.c ****                 ctx->unprocessed_data, input, output ) ) )
 541://MAC/Home/Downloads/getstarted-optiga-trust-m/optiga-trust-m-1/externals/mbedtls/library/cipher.c ****         {
 542://MAC/Home/Downloads/getstarted-optiga-trust-m/optiga-trust-m-1/externals/mbedtls/library/cipher.c ****             return( ret );
 543://MAC/Home/Downloads/getstarted-optiga-trust-m/optiga-trust-m-1/externals/mbedtls/library/cipher.c ****         }
 544://MAC/Home/Downloads/getstarted-optiga-trust-m/optiga-trust-m-1/externals/mbedtls/library/cipher.c **** 
 545://MAC/Home/Downloads/getstarted-optiga-trust-m/optiga-trust-m-1/externals/mbedtls/library/cipher.c ****         *olen = ilen;
 546://MAC/Home/Downloads/getstarted-optiga-trust-m/optiga-trust-m-1/externals/mbedtls/library/cipher.c **** 
 547://MAC/Home/Downloads/getstarted-optiga-trust-m/optiga-trust-m-1/externals/mbedtls/library/cipher.c ****         return( 0 );
 548://MAC/Home/Downloads/getstarted-optiga-trust-m/optiga-trust-m-1/externals/mbedtls/library/cipher.c ****     }
 549://MAC/Home/Downloads/getstarted-optiga-trust-m/optiga-trust-m-1/externals/mbedtls/library/cipher.c **** #endif /* MBEDTLS_CIPHER_MODE_CTR */
 550://MAC/Home/Downloads/getstarted-optiga-trust-m/optiga-trust-m-1/externals/mbedtls/library/cipher.c **** 
 551://MAC/Home/Downloads/getstarted-optiga-trust-m/optiga-trust-m-1/externals/mbedtls/library/cipher.c **** #if defined(MBEDTLS_CIPHER_MODE_XTS)
 552://MAC/Home/Downloads/getstarted-optiga-trust-m/optiga-trust-m-1/externals/mbedtls/library/cipher.c ****     if( ctx->cipher_info->mode == MBEDTLS_MODE_XTS )
 553://MAC/Home/Downloads/getstarted-optiga-trust-m/optiga-trust-m-1/externals/mbedtls/library/cipher.c ****     {
 554://MAC/Home/Downloads/getstarted-optiga-trust-m/optiga-trust-m-1/externals/mbedtls/library/cipher.c ****         if( ctx->unprocessed_len > 0 ) {
 555://MAC/Home/Downloads/getstarted-optiga-trust-m/optiga-trust-m-1/externals/mbedtls/library/cipher.c ****             /* We can only process an entire data unit at a time. */
 556://MAC/Home/Downloads/getstarted-optiga-trust-m/optiga-trust-m-1/externals/mbedtls/library/cipher.c ****             return( MBEDTLS_ERR_CIPHER_FEATURE_UNAVAILABLE );
 557://MAC/Home/Downloads/getstarted-optiga-trust-m/optiga-trust-m-1/externals/mbedtls/library/cipher.c ****         }
 558://MAC/Home/Downloads/getstarted-optiga-trust-m/optiga-trust-m-1/externals/mbedtls/library/cipher.c **** 
 559://MAC/Home/Downloads/getstarted-optiga-trust-m/optiga-trust-m-1/externals/mbedtls/library/cipher.c ****         ret = ctx->cipher_info->base->xts_func( ctx->cipher_ctx,
 560://MAC/Home/Downloads/getstarted-optiga-trust-m/optiga-trust-m-1/externals/mbedtls/library/cipher.c ****                 ctx->operation, ilen, ctx->iv, input, output );
 561://MAC/Home/Downloads/getstarted-optiga-trust-m/optiga-trust-m-1/externals/mbedtls/library/cipher.c ****         if( ret != 0 )
 562://MAC/Home/Downloads/getstarted-optiga-trust-m/optiga-trust-m-1/externals/mbedtls/library/cipher.c ****         {
 563://MAC/Home/Downloads/getstarted-optiga-trust-m/optiga-trust-m-1/externals/mbedtls/library/cipher.c ****             return( ret );
 564://MAC/Home/Downloads/getstarted-optiga-trust-m/optiga-trust-m-1/externals/mbedtls/library/cipher.c ****         }
 565://MAC/Home/Downloads/getstarted-optiga-trust-m/optiga-trust-m-1/externals/mbedtls/library/cipher.c **** 
 566://MAC/Home/Downloads/getstarted-optiga-trust-m/optiga-trust-m-1/externals/mbedtls/library/cipher.c ****         *olen = ilen;
 567://MAC/Home/Downloads/getstarted-optiga-trust-m/optiga-trust-m-1/externals/mbedtls/library/cipher.c **** 
 568://MAC/Home/Downloads/getstarted-optiga-trust-m/optiga-trust-m-1/externals/mbedtls/library/cipher.c ****         return( 0 );
 569://MAC/Home/Downloads/getstarted-optiga-trust-m/optiga-trust-m-1/externals/mbedtls/library/cipher.c ****     }
 570://MAC/Home/Downloads/getstarted-optiga-trust-m/optiga-trust-m-1/externals/mbedtls/library/cipher.c **** #endif /* MBEDTLS_CIPHER_MODE_XTS */
 571://MAC/Home/Downloads/getstarted-optiga-trust-m/optiga-trust-m-1/externals/mbedtls/library/cipher.c **** 
 572://MAC/Home/Downloads/getstarted-optiga-trust-m/optiga-trust-m-1/externals/mbedtls/library/cipher.c **** #if defined(MBEDTLS_CIPHER_MODE_STREAM)
 573://MAC/Home/Downloads/getstarted-optiga-trust-m/optiga-trust-m-1/externals/mbedtls/library/cipher.c ****     if( ctx->cipher_info->mode == MBEDTLS_MODE_STREAM )
 574://MAC/Home/Downloads/getstarted-optiga-trust-m/optiga-trust-m-1/externals/mbedtls/library/cipher.c ****     {
 575://MAC/Home/Downloads/getstarted-optiga-trust-m/optiga-trust-m-1/externals/mbedtls/library/cipher.c ****         if( 0 != ( ret = ctx->cipher_info->base->stream_func( ctx->cipher_ctx,
 576://MAC/Home/Downloads/getstarted-optiga-trust-m/optiga-trust-m-1/externals/mbedtls/library/cipher.c ****                                                     ilen, input, output ) ) )
 577://MAC/Home/Downloads/getstarted-optiga-trust-m/optiga-trust-m-1/externals/mbedtls/library/cipher.c ****         {
 578://MAC/Home/Downloads/getstarted-optiga-trust-m/optiga-trust-m-1/externals/mbedtls/library/cipher.c ****             return( ret );
 579://MAC/Home/Downloads/getstarted-optiga-trust-m/optiga-trust-m-1/externals/mbedtls/library/cipher.c ****         }
 580://MAC/Home/Downloads/getstarted-optiga-trust-m/optiga-trust-m-1/externals/mbedtls/library/cipher.c **** 
 581://MAC/Home/Downloads/getstarted-optiga-trust-m/optiga-trust-m-1/externals/mbedtls/library/cipher.c ****         *olen = ilen;
 582://MAC/Home/Downloads/getstarted-optiga-trust-m/optiga-trust-m-1/externals/mbedtls/library/cipher.c **** 
 583://MAC/Home/Downloads/getstarted-optiga-trust-m/optiga-trust-m-1/externals/mbedtls/library/cipher.c ****         return( 0 );
 584://MAC/Home/Downloads/getstarted-optiga-trust-m/optiga-trust-m-1/externals/mbedtls/library/cipher.c ****     }
 585://MAC/Home/Downloads/getstarted-optiga-trust-m/optiga-trust-m-1/externals/mbedtls/library/cipher.c **** #endif /* MBEDTLS_CIPHER_MODE_STREAM */
 586://MAC/Home/Downloads/getstarted-optiga-trust-m/optiga-trust-m-1/externals/mbedtls/library/cipher.c **** 
 587://MAC/Home/Downloads/getstarted-optiga-trust-m/optiga-trust-m-1/externals/mbedtls/library/cipher.c ****     return( MBEDTLS_ERR_CIPHER_FEATURE_UNAVAILABLE );
 669              	 .loc 1 587 0
 670 0056 0448     	 ldr r0,.L87+12
 671              	.LVL70:
 672              	.L81:
 588://MAC/Home/Downloads/getstarted-optiga-trust-m/optiga-trust-m-1/externals/mbedtls/library/cipher.c **** }
 673              	 .loc 1 588 0
 674              	 
 675 0058 F8BD     	 pop {r3,r4,r5,r6,r7,pc}
 676              	.L88:
 677 005a C046     	 .align 2
 678              	.L87:
 679 005c 009FFFFF 	 .word -24832
 680 0060 809DFFFF 	 .word -25216
 681 0064 809CFFFF 	 .word -25472
 682 0068 809FFFFF 	 .word -24704
 683              	 .cfi_endproc
 684              	.LFE17:
 686              	 .section .text.mbedtls_cipher_finish,"ax",%progbits
 687              	 .align 1
 688              	 .global mbedtls_cipher_finish
 689              	 .code 16
 690              	 .thumb_func
 692              	mbedtls_cipher_finish:
 693              	.LFB18:
 589://MAC/Home/Downloads/getstarted-optiga-trust-m/optiga-trust-m-1/externals/mbedtls/library/cipher.c **** 
 590://MAC/Home/Downloads/getstarted-optiga-trust-m/optiga-trust-m-1/externals/mbedtls/library/cipher.c **** #if defined(MBEDTLS_CIPHER_MODE_WITH_PADDING)
 591://MAC/Home/Downloads/getstarted-optiga-trust-m/optiga-trust-m-1/externals/mbedtls/library/cipher.c **** #if defined(MBEDTLS_CIPHER_PADDING_PKCS7)
 592://MAC/Home/Downloads/getstarted-optiga-trust-m/optiga-trust-m-1/externals/mbedtls/library/cipher.c **** /*
 593://MAC/Home/Downloads/getstarted-optiga-trust-m/optiga-trust-m-1/externals/mbedtls/library/cipher.c ****  * PKCS7 (and PKCS5) padding: fill with ll bytes, with ll = padding_len
 594://MAC/Home/Downloads/getstarted-optiga-trust-m/optiga-trust-m-1/externals/mbedtls/library/cipher.c ****  */
 595://MAC/Home/Downloads/getstarted-optiga-trust-m/optiga-trust-m-1/externals/mbedtls/library/cipher.c **** static void add_pkcs_padding( unsigned char *output, size_t output_len,
 596://MAC/Home/Downloads/getstarted-optiga-trust-m/optiga-trust-m-1/externals/mbedtls/library/cipher.c ****         size_t data_len )
 597://MAC/Home/Downloads/getstarted-optiga-trust-m/optiga-trust-m-1/externals/mbedtls/library/cipher.c **** {
 598://MAC/Home/Downloads/getstarted-optiga-trust-m/optiga-trust-m-1/externals/mbedtls/library/cipher.c ****     size_t padding_len = output_len - data_len;
 599://MAC/Home/Downloads/getstarted-optiga-trust-m/optiga-trust-m-1/externals/mbedtls/library/cipher.c ****     unsigned char i;
 600://MAC/Home/Downloads/getstarted-optiga-trust-m/optiga-trust-m-1/externals/mbedtls/library/cipher.c **** 
 601://MAC/Home/Downloads/getstarted-optiga-trust-m/optiga-trust-m-1/externals/mbedtls/library/cipher.c ****     for( i = 0; i < padding_len; i++ )
 602://MAC/Home/Downloads/getstarted-optiga-trust-m/optiga-trust-m-1/externals/mbedtls/library/cipher.c ****         output[data_len + i] = (unsigned char) padding_len;
 603://MAC/Home/Downloads/getstarted-optiga-trust-m/optiga-trust-m-1/externals/mbedtls/library/cipher.c **** }
 604://MAC/Home/Downloads/getstarted-optiga-trust-m/optiga-trust-m-1/externals/mbedtls/library/cipher.c **** 
 605://MAC/Home/Downloads/getstarted-optiga-trust-m/optiga-trust-m-1/externals/mbedtls/library/cipher.c **** static int get_pkcs_padding( unsigned char *input, size_t input_len,
 606://MAC/Home/Downloads/getstarted-optiga-trust-m/optiga-trust-m-1/externals/mbedtls/library/cipher.c ****         size_t *data_len )
 607://MAC/Home/Downloads/getstarted-optiga-trust-m/optiga-trust-m-1/externals/mbedtls/library/cipher.c **** {
 608://MAC/Home/Downloads/getstarted-optiga-trust-m/optiga-trust-m-1/externals/mbedtls/library/cipher.c ****     size_t i, pad_idx;
 609://MAC/Home/Downloads/getstarted-optiga-trust-m/optiga-trust-m-1/externals/mbedtls/library/cipher.c ****     unsigned char padding_len, bad = 0;
 610://MAC/Home/Downloads/getstarted-optiga-trust-m/optiga-trust-m-1/externals/mbedtls/library/cipher.c **** 
 611://MAC/Home/Downloads/getstarted-optiga-trust-m/optiga-trust-m-1/externals/mbedtls/library/cipher.c ****     if( NULL == input || NULL == data_len )
 612://MAC/Home/Downloads/getstarted-optiga-trust-m/optiga-trust-m-1/externals/mbedtls/library/cipher.c ****         return( MBEDTLS_ERR_CIPHER_BAD_INPUT_DATA );
 613://MAC/Home/Downloads/getstarted-optiga-trust-m/optiga-trust-m-1/externals/mbedtls/library/cipher.c **** 
 614://MAC/Home/Downloads/getstarted-optiga-trust-m/optiga-trust-m-1/externals/mbedtls/library/cipher.c ****     padding_len = input[input_len - 1];
 615://MAC/Home/Downloads/getstarted-optiga-trust-m/optiga-trust-m-1/externals/mbedtls/library/cipher.c ****     *data_len = input_len - padding_len;
 616://MAC/Home/Downloads/getstarted-optiga-trust-m/optiga-trust-m-1/externals/mbedtls/library/cipher.c **** 
 617://MAC/Home/Downloads/getstarted-optiga-trust-m/optiga-trust-m-1/externals/mbedtls/library/cipher.c ****     /* Avoid logical || since it results in a branch */
 618://MAC/Home/Downloads/getstarted-optiga-trust-m/optiga-trust-m-1/externals/mbedtls/library/cipher.c ****     bad |= padding_len > input_len;
 619://MAC/Home/Downloads/getstarted-optiga-trust-m/optiga-trust-m-1/externals/mbedtls/library/cipher.c ****     bad |= padding_len == 0;
 620://MAC/Home/Downloads/getstarted-optiga-trust-m/optiga-trust-m-1/externals/mbedtls/library/cipher.c **** 
 621://MAC/Home/Downloads/getstarted-optiga-trust-m/optiga-trust-m-1/externals/mbedtls/library/cipher.c ****     /* The number of bytes checked must be independent of padding_len,
 622://MAC/Home/Downloads/getstarted-optiga-trust-m/optiga-trust-m-1/externals/mbedtls/library/cipher.c ****      * so pick input_len, which is usually 8 or 16 (one block) */
 623://MAC/Home/Downloads/getstarted-optiga-trust-m/optiga-trust-m-1/externals/mbedtls/library/cipher.c ****     pad_idx = input_len - padding_len;
 624://MAC/Home/Downloads/getstarted-optiga-trust-m/optiga-trust-m-1/externals/mbedtls/library/cipher.c ****     for( i = 0; i < input_len; i++ )
 625://MAC/Home/Downloads/getstarted-optiga-trust-m/optiga-trust-m-1/externals/mbedtls/library/cipher.c ****         bad |= ( input[i] ^ padding_len ) * ( i >= pad_idx );
 626://MAC/Home/Downloads/getstarted-optiga-trust-m/optiga-trust-m-1/externals/mbedtls/library/cipher.c **** 
 627://MAC/Home/Downloads/getstarted-optiga-trust-m/optiga-trust-m-1/externals/mbedtls/library/cipher.c ****     return( MBEDTLS_ERR_CIPHER_INVALID_PADDING * ( bad != 0 ) );
 628://MAC/Home/Downloads/getstarted-optiga-trust-m/optiga-trust-m-1/externals/mbedtls/library/cipher.c **** }
 629://MAC/Home/Downloads/getstarted-optiga-trust-m/optiga-trust-m-1/externals/mbedtls/library/cipher.c **** #endif /* MBEDTLS_CIPHER_PADDING_PKCS7 */
 630://MAC/Home/Downloads/getstarted-optiga-trust-m/optiga-trust-m-1/externals/mbedtls/library/cipher.c **** 
 631://MAC/Home/Downloads/getstarted-optiga-trust-m/optiga-trust-m-1/externals/mbedtls/library/cipher.c **** #if defined(MBEDTLS_CIPHER_PADDING_ONE_AND_ZEROS)
 632://MAC/Home/Downloads/getstarted-optiga-trust-m/optiga-trust-m-1/externals/mbedtls/library/cipher.c **** /*
 633://MAC/Home/Downloads/getstarted-optiga-trust-m/optiga-trust-m-1/externals/mbedtls/library/cipher.c ****  * One and zeros padding: fill with 80 00 ... 00
 634://MAC/Home/Downloads/getstarted-optiga-trust-m/optiga-trust-m-1/externals/mbedtls/library/cipher.c ****  */
 635://MAC/Home/Downloads/getstarted-optiga-trust-m/optiga-trust-m-1/externals/mbedtls/library/cipher.c **** static void add_one_and_zeros_padding( unsigned char *output,
 636://MAC/Home/Downloads/getstarted-optiga-trust-m/optiga-trust-m-1/externals/mbedtls/library/cipher.c ****                                        size_t output_len, size_t data_len )
 637://MAC/Home/Downloads/getstarted-optiga-trust-m/optiga-trust-m-1/externals/mbedtls/library/cipher.c **** {
 638://MAC/Home/Downloads/getstarted-optiga-trust-m/optiga-trust-m-1/externals/mbedtls/library/cipher.c ****     size_t padding_len = output_len - data_len;
 639://MAC/Home/Downloads/getstarted-optiga-trust-m/optiga-trust-m-1/externals/mbedtls/library/cipher.c ****     unsigned char i = 0;
 640://MAC/Home/Downloads/getstarted-optiga-trust-m/optiga-trust-m-1/externals/mbedtls/library/cipher.c **** 
 641://MAC/Home/Downloads/getstarted-optiga-trust-m/optiga-trust-m-1/externals/mbedtls/library/cipher.c ****     output[data_len] = 0x80;
 642://MAC/Home/Downloads/getstarted-optiga-trust-m/optiga-trust-m-1/externals/mbedtls/library/cipher.c ****     for( i = 1; i < padding_len; i++ )
 643://MAC/Home/Downloads/getstarted-optiga-trust-m/optiga-trust-m-1/externals/mbedtls/library/cipher.c ****         output[data_len + i] = 0x00;
 644://MAC/Home/Downloads/getstarted-optiga-trust-m/optiga-trust-m-1/externals/mbedtls/library/cipher.c **** }
 645://MAC/Home/Downloads/getstarted-optiga-trust-m/optiga-trust-m-1/externals/mbedtls/library/cipher.c **** 
 646://MAC/Home/Downloads/getstarted-optiga-trust-m/optiga-trust-m-1/externals/mbedtls/library/cipher.c **** static int get_one_and_zeros_padding( unsigned char *input, size_t input_len,
 647://MAC/Home/Downloads/getstarted-optiga-trust-m/optiga-trust-m-1/externals/mbedtls/library/cipher.c ****                                       size_t *data_len )
 648://MAC/Home/Downloads/getstarted-optiga-trust-m/optiga-trust-m-1/externals/mbedtls/library/cipher.c **** {
 649://MAC/Home/Downloads/getstarted-optiga-trust-m/optiga-trust-m-1/externals/mbedtls/library/cipher.c ****     size_t i;
 650://MAC/Home/Downloads/getstarted-optiga-trust-m/optiga-trust-m-1/externals/mbedtls/library/cipher.c ****     unsigned char done = 0, prev_done, bad;
 651://MAC/Home/Downloads/getstarted-optiga-trust-m/optiga-trust-m-1/externals/mbedtls/library/cipher.c **** 
 652://MAC/Home/Downloads/getstarted-optiga-trust-m/optiga-trust-m-1/externals/mbedtls/library/cipher.c ****     if( NULL == input || NULL == data_len )
 653://MAC/Home/Downloads/getstarted-optiga-trust-m/optiga-trust-m-1/externals/mbedtls/library/cipher.c ****         return( MBEDTLS_ERR_CIPHER_BAD_INPUT_DATA );
 654://MAC/Home/Downloads/getstarted-optiga-trust-m/optiga-trust-m-1/externals/mbedtls/library/cipher.c **** 
 655://MAC/Home/Downloads/getstarted-optiga-trust-m/optiga-trust-m-1/externals/mbedtls/library/cipher.c ****     bad = 0x80;
 656://MAC/Home/Downloads/getstarted-optiga-trust-m/optiga-trust-m-1/externals/mbedtls/library/cipher.c ****     *data_len = 0;
 657://MAC/Home/Downloads/getstarted-optiga-trust-m/optiga-trust-m-1/externals/mbedtls/library/cipher.c ****     for( i = input_len; i > 0; i-- )
 658://MAC/Home/Downloads/getstarted-optiga-trust-m/optiga-trust-m-1/externals/mbedtls/library/cipher.c ****     {
 659://MAC/Home/Downloads/getstarted-optiga-trust-m/optiga-trust-m-1/externals/mbedtls/library/cipher.c ****         prev_done = done;
 660://MAC/Home/Downloads/getstarted-optiga-trust-m/optiga-trust-m-1/externals/mbedtls/library/cipher.c ****         done |= ( input[i - 1] != 0 );
 661://MAC/Home/Downloads/getstarted-optiga-trust-m/optiga-trust-m-1/externals/mbedtls/library/cipher.c ****         *data_len |= ( i - 1 ) * ( done != prev_done );
 662://MAC/Home/Downloads/getstarted-optiga-trust-m/optiga-trust-m-1/externals/mbedtls/library/cipher.c ****         bad ^= input[i - 1] * ( done != prev_done );
 663://MAC/Home/Downloads/getstarted-optiga-trust-m/optiga-trust-m-1/externals/mbedtls/library/cipher.c ****     }
 664://MAC/Home/Downloads/getstarted-optiga-trust-m/optiga-trust-m-1/externals/mbedtls/library/cipher.c **** 
 665://MAC/Home/Downloads/getstarted-optiga-trust-m/optiga-trust-m-1/externals/mbedtls/library/cipher.c ****     return( MBEDTLS_ERR_CIPHER_INVALID_PADDING * ( bad != 0 ) );
 666://MAC/Home/Downloads/getstarted-optiga-trust-m/optiga-trust-m-1/externals/mbedtls/library/cipher.c **** 
 667://MAC/Home/Downloads/getstarted-optiga-trust-m/optiga-trust-m-1/externals/mbedtls/library/cipher.c **** }
 668://MAC/Home/Downloads/getstarted-optiga-trust-m/optiga-trust-m-1/externals/mbedtls/library/cipher.c **** #endif /* MBEDTLS_CIPHER_PADDING_ONE_AND_ZEROS */
 669://MAC/Home/Downloads/getstarted-optiga-trust-m/optiga-trust-m-1/externals/mbedtls/library/cipher.c **** 
 670://MAC/Home/Downloads/getstarted-optiga-trust-m/optiga-trust-m-1/externals/mbedtls/library/cipher.c **** #if defined(MBEDTLS_CIPHER_PADDING_ZEROS_AND_LEN)
 671://MAC/Home/Downloads/getstarted-optiga-trust-m/optiga-trust-m-1/externals/mbedtls/library/cipher.c **** /*
 672://MAC/Home/Downloads/getstarted-optiga-trust-m/optiga-trust-m-1/externals/mbedtls/library/cipher.c ****  * Zeros and len padding: fill with 00 ... 00 ll, where ll is padding length
 673://MAC/Home/Downloads/getstarted-optiga-trust-m/optiga-trust-m-1/externals/mbedtls/library/cipher.c ****  */
 674://MAC/Home/Downloads/getstarted-optiga-trust-m/optiga-trust-m-1/externals/mbedtls/library/cipher.c **** static void add_zeros_and_len_padding( unsigned char *output,
 675://MAC/Home/Downloads/getstarted-optiga-trust-m/optiga-trust-m-1/externals/mbedtls/library/cipher.c ****                                        size_t output_len, size_t data_len )
 676://MAC/Home/Downloads/getstarted-optiga-trust-m/optiga-trust-m-1/externals/mbedtls/library/cipher.c **** {
 677://MAC/Home/Downloads/getstarted-optiga-trust-m/optiga-trust-m-1/externals/mbedtls/library/cipher.c ****     size_t padding_len = output_len - data_len;
 678://MAC/Home/Downloads/getstarted-optiga-trust-m/optiga-trust-m-1/externals/mbedtls/library/cipher.c ****     unsigned char i = 0;
 679://MAC/Home/Downloads/getstarted-optiga-trust-m/optiga-trust-m-1/externals/mbedtls/library/cipher.c **** 
 680://MAC/Home/Downloads/getstarted-optiga-trust-m/optiga-trust-m-1/externals/mbedtls/library/cipher.c ****     for( i = 1; i < padding_len; i++ )
 681://MAC/Home/Downloads/getstarted-optiga-trust-m/optiga-trust-m-1/externals/mbedtls/library/cipher.c ****         output[data_len + i - 1] = 0x00;
 682://MAC/Home/Downloads/getstarted-optiga-trust-m/optiga-trust-m-1/externals/mbedtls/library/cipher.c ****     output[output_len - 1] = (unsigned char) padding_len;
 683://MAC/Home/Downloads/getstarted-optiga-trust-m/optiga-trust-m-1/externals/mbedtls/library/cipher.c **** }
 684://MAC/Home/Downloads/getstarted-optiga-trust-m/optiga-trust-m-1/externals/mbedtls/library/cipher.c **** 
 685://MAC/Home/Downloads/getstarted-optiga-trust-m/optiga-trust-m-1/externals/mbedtls/library/cipher.c **** static int get_zeros_and_len_padding( unsigned char *input, size_t input_len,
 686://MAC/Home/Downloads/getstarted-optiga-trust-m/optiga-trust-m-1/externals/mbedtls/library/cipher.c ****                                       size_t *data_len )
 687://MAC/Home/Downloads/getstarted-optiga-trust-m/optiga-trust-m-1/externals/mbedtls/library/cipher.c **** {
 688://MAC/Home/Downloads/getstarted-optiga-trust-m/optiga-trust-m-1/externals/mbedtls/library/cipher.c ****     size_t i, pad_idx;
 689://MAC/Home/Downloads/getstarted-optiga-trust-m/optiga-trust-m-1/externals/mbedtls/library/cipher.c ****     unsigned char padding_len, bad = 0;
 690://MAC/Home/Downloads/getstarted-optiga-trust-m/optiga-trust-m-1/externals/mbedtls/library/cipher.c **** 
 691://MAC/Home/Downloads/getstarted-optiga-trust-m/optiga-trust-m-1/externals/mbedtls/library/cipher.c ****     if( NULL == input || NULL == data_len )
 692://MAC/Home/Downloads/getstarted-optiga-trust-m/optiga-trust-m-1/externals/mbedtls/library/cipher.c ****         return( MBEDTLS_ERR_CIPHER_BAD_INPUT_DATA );
 693://MAC/Home/Downloads/getstarted-optiga-trust-m/optiga-trust-m-1/externals/mbedtls/library/cipher.c **** 
 694://MAC/Home/Downloads/getstarted-optiga-trust-m/optiga-trust-m-1/externals/mbedtls/library/cipher.c ****     padding_len = input[input_len - 1];
 695://MAC/Home/Downloads/getstarted-optiga-trust-m/optiga-trust-m-1/externals/mbedtls/library/cipher.c ****     *data_len = input_len - padding_len;
 696://MAC/Home/Downloads/getstarted-optiga-trust-m/optiga-trust-m-1/externals/mbedtls/library/cipher.c **** 
 697://MAC/Home/Downloads/getstarted-optiga-trust-m/optiga-trust-m-1/externals/mbedtls/library/cipher.c ****     /* Avoid logical || since it results in a branch */
 698://MAC/Home/Downloads/getstarted-optiga-trust-m/optiga-trust-m-1/externals/mbedtls/library/cipher.c ****     bad |= padding_len > input_len;
 699://MAC/Home/Downloads/getstarted-optiga-trust-m/optiga-trust-m-1/externals/mbedtls/library/cipher.c ****     bad |= padding_len == 0;
 700://MAC/Home/Downloads/getstarted-optiga-trust-m/optiga-trust-m-1/externals/mbedtls/library/cipher.c **** 
 701://MAC/Home/Downloads/getstarted-optiga-trust-m/optiga-trust-m-1/externals/mbedtls/library/cipher.c ****     /* The number of bytes checked must be independent of padding_len */
 702://MAC/Home/Downloads/getstarted-optiga-trust-m/optiga-trust-m-1/externals/mbedtls/library/cipher.c ****     pad_idx = input_len - padding_len;
 703://MAC/Home/Downloads/getstarted-optiga-trust-m/optiga-trust-m-1/externals/mbedtls/library/cipher.c ****     for( i = 0; i < input_len - 1; i++ )
 704://MAC/Home/Downloads/getstarted-optiga-trust-m/optiga-trust-m-1/externals/mbedtls/library/cipher.c ****         bad |= input[i] * ( i >= pad_idx );
 705://MAC/Home/Downloads/getstarted-optiga-trust-m/optiga-trust-m-1/externals/mbedtls/library/cipher.c **** 
 706://MAC/Home/Downloads/getstarted-optiga-trust-m/optiga-trust-m-1/externals/mbedtls/library/cipher.c ****     return( MBEDTLS_ERR_CIPHER_INVALID_PADDING * ( bad != 0 ) );
 707://MAC/Home/Downloads/getstarted-optiga-trust-m/optiga-trust-m-1/externals/mbedtls/library/cipher.c **** }
 708://MAC/Home/Downloads/getstarted-optiga-trust-m/optiga-trust-m-1/externals/mbedtls/library/cipher.c **** #endif /* MBEDTLS_CIPHER_PADDING_ZEROS_AND_LEN */
 709://MAC/Home/Downloads/getstarted-optiga-trust-m/optiga-trust-m-1/externals/mbedtls/library/cipher.c **** 
 710://MAC/Home/Downloads/getstarted-optiga-trust-m/optiga-trust-m-1/externals/mbedtls/library/cipher.c **** #if defined(MBEDTLS_CIPHER_PADDING_ZEROS)
 711://MAC/Home/Downloads/getstarted-optiga-trust-m/optiga-trust-m-1/externals/mbedtls/library/cipher.c **** /*
 712://MAC/Home/Downloads/getstarted-optiga-trust-m/optiga-trust-m-1/externals/mbedtls/library/cipher.c ****  * Zero padding: fill with 00 ... 00
 713://MAC/Home/Downloads/getstarted-optiga-trust-m/optiga-trust-m-1/externals/mbedtls/library/cipher.c ****  */
 714://MAC/Home/Downloads/getstarted-optiga-trust-m/optiga-trust-m-1/externals/mbedtls/library/cipher.c **** static void add_zeros_padding( unsigned char *output,
 715://MAC/Home/Downloads/getstarted-optiga-trust-m/optiga-trust-m-1/externals/mbedtls/library/cipher.c ****                                size_t output_len, size_t data_len )
 716://MAC/Home/Downloads/getstarted-optiga-trust-m/optiga-trust-m-1/externals/mbedtls/library/cipher.c **** {
 717://MAC/Home/Downloads/getstarted-optiga-trust-m/optiga-trust-m-1/externals/mbedtls/library/cipher.c ****     size_t i;
 718://MAC/Home/Downloads/getstarted-optiga-trust-m/optiga-trust-m-1/externals/mbedtls/library/cipher.c **** 
 719://MAC/Home/Downloads/getstarted-optiga-trust-m/optiga-trust-m-1/externals/mbedtls/library/cipher.c ****     for( i = data_len; i < output_len; i++ )
 720://MAC/Home/Downloads/getstarted-optiga-trust-m/optiga-trust-m-1/externals/mbedtls/library/cipher.c ****         output[i] = 0x00;
 721://MAC/Home/Downloads/getstarted-optiga-trust-m/optiga-trust-m-1/externals/mbedtls/library/cipher.c **** }
 722://MAC/Home/Downloads/getstarted-optiga-trust-m/optiga-trust-m-1/externals/mbedtls/library/cipher.c **** 
 723://MAC/Home/Downloads/getstarted-optiga-trust-m/optiga-trust-m-1/externals/mbedtls/library/cipher.c **** static int get_zeros_padding( unsigned char *input, size_t input_len,
 724://MAC/Home/Downloads/getstarted-optiga-trust-m/optiga-trust-m-1/externals/mbedtls/library/cipher.c ****                               size_t *data_len )
 725://MAC/Home/Downloads/getstarted-optiga-trust-m/optiga-trust-m-1/externals/mbedtls/library/cipher.c **** {
 726://MAC/Home/Downloads/getstarted-optiga-trust-m/optiga-trust-m-1/externals/mbedtls/library/cipher.c ****     size_t i;
 727://MAC/Home/Downloads/getstarted-optiga-trust-m/optiga-trust-m-1/externals/mbedtls/library/cipher.c ****     unsigned char done = 0, prev_done;
 728://MAC/Home/Downloads/getstarted-optiga-trust-m/optiga-trust-m-1/externals/mbedtls/library/cipher.c **** 
 729://MAC/Home/Downloads/getstarted-optiga-trust-m/optiga-trust-m-1/externals/mbedtls/library/cipher.c ****     if( NULL == input || NULL == data_len )
 730://MAC/Home/Downloads/getstarted-optiga-trust-m/optiga-trust-m-1/externals/mbedtls/library/cipher.c ****         return( MBEDTLS_ERR_CIPHER_BAD_INPUT_DATA );
 731://MAC/Home/Downloads/getstarted-optiga-trust-m/optiga-trust-m-1/externals/mbedtls/library/cipher.c **** 
 732://MAC/Home/Downloads/getstarted-optiga-trust-m/optiga-trust-m-1/externals/mbedtls/library/cipher.c ****     *data_len = 0;
 733://MAC/Home/Downloads/getstarted-optiga-trust-m/optiga-trust-m-1/externals/mbedtls/library/cipher.c ****     for( i = input_len; i > 0; i-- )
 734://MAC/Home/Downloads/getstarted-optiga-trust-m/optiga-trust-m-1/externals/mbedtls/library/cipher.c ****     {
 735://MAC/Home/Downloads/getstarted-optiga-trust-m/optiga-trust-m-1/externals/mbedtls/library/cipher.c ****         prev_done = done;
 736://MAC/Home/Downloads/getstarted-optiga-trust-m/optiga-trust-m-1/externals/mbedtls/library/cipher.c ****         done |= ( input[i-1] != 0 );
 737://MAC/Home/Downloads/getstarted-optiga-trust-m/optiga-trust-m-1/externals/mbedtls/library/cipher.c ****         *data_len |= i * ( done != prev_done );
 738://MAC/Home/Downloads/getstarted-optiga-trust-m/optiga-trust-m-1/externals/mbedtls/library/cipher.c ****     }
 739://MAC/Home/Downloads/getstarted-optiga-trust-m/optiga-trust-m-1/externals/mbedtls/library/cipher.c **** 
 740://MAC/Home/Downloads/getstarted-optiga-trust-m/optiga-trust-m-1/externals/mbedtls/library/cipher.c ****     return( 0 );
 741://MAC/Home/Downloads/getstarted-optiga-trust-m/optiga-trust-m-1/externals/mbedtls/library/cipher.c **** }
 742://MAC/Home/Downloads/getstarted-optiga-trust-m/optiga-trust-m-1/externals/mbedtls/library/cipher.c **** #endif /* MBEDTLS_CIPHER_PADDING_ZEROS */
 743://MAC/Home/Downloads/getstarted-optiga-trust-m/optiga-trust-m-1/externals/mbedtls/library/cipher.c **** 
 744://MAC/Home/Downloads/getstarted-optiga-trust-m/optiga-trust-m-1/externals/mbedtls/library/cipher.c **** /*
 745://MAC/Home/Downloads/getstarted-optiga-trust-m/optiga-trust-m-1/externals/mbedtls/library/cipher.c ****  * No padding: don't pad :)
 746://MAC/Home/Downloads/getstarted-optiga-trust-m/optiga-trust-m-1/externals/mbedtls/library/cipher.c ****  *
 747://MAC/Home/Downloads/getstarted-optiga-trust-m/optiga-trust-m-1/externals/mbedtls/library/cipher.c ****  * There is no add_padding function (check for NULL in mbedtls_cipher_finish)
 748://MAC/Home/Downloads/getstarted-optiga-trust-m/optiga-trust-m-1/externals/mbedtls/library/cipher.c ****  * but a trivial get_padding function
 749://MAC/Home/Downloads/getstarted-optiga-trust-m/optiga-trust-m-1/externals/mbedtls/library/cipher.c ****  */
 750://MAC/Home/Downloads/getstarted-optiga-trust-m/optiga-trust-m-1/externals/mbedtls/library/cipher.c **** static int get_no_padding( unsigned char *input, size_t input_len,
 751://MAC/Home/Downloads/getstarted-optiga-trust-m/optiga-trust-m-1/externals/mbedtls/library/cipher.c ****                               size_t *data_len )
 752://MAC/Home/Downloads/getstarted-optiga-trust-m/optiga-trust-m-1/externals/mbedtls/library/cipher.c **** {
 753://MAC/Home/Downloads/getstarted-optiga-trust-m/optiga-trust-m-1/externals/mbedtls/library/cipher.c ****     if( NULL == input || NULL == data_len )
 754://MAC/Home/Downloads/getstarted-optiga-trust-m/optiga-trust-m-1/externals/mbedtls/library/cipher.c ****         return( MBEDTLS_ERR_CIPHER_BAD_INPUT_DATA );
 755://MAC/Home/Downloads/getstarted-optiga-trust-m/optiga-trust-m-1/externals/mbedtls/library/cipher.c **** 
 756://MAC/Home/Downloads/getstarted-optiga-trust-m/optiga-trust-m-1/externals/mbedtls/library/cipher.c ****     *data_len = input_len;
 757://MAC/Home/Downloads/getstarted-optiga-trust-m/optiga-trust-m-1/externals/mbedtls/library/cipher.c **** 
 758://MAC/Home/Downloads/getstarted-optiga-trust-m/optiga-trust-m-1/externals/mbedtls/library/cipher.c ****     return( 0 );
 759://MAC/Home/Downloads/getstarted-optiga-trust-m/optiga-trust-m-1/externals/mbedtls/library/cipher.c **** }
 760://MAC/Home/Downloads/getstarted-optiga-trust-m/optiga-trust-m-1/externals/mbedtls/library/cipher.c **** #endif /* MBEDTLS_CIPHER_MODE_WITH_PADDING */
 761://MAC/Home/Downloads/getstarted-optiga-trust-m/optiga-trust-m-1/externals/mbedtls/library/cipher.c **** 
 762://MAC/Home/Downloads/getstarted-optiga-trust-m/optiga-trust-m-1/externals/mbedtls/library/cipher.c **** int mbedtls_cipher_finish( mbedtls_cipher_context_t *ctx,
 763://MAC/Home/Downloads/getstarted-optiga-trust-m/optiga-trust-m-1/externals/mbedtls/library/cipher.c ****                    unsigned char *output, size_t *olen )
 764://MAC/Home/Downloads/getstarted-optiga-trust-m/optiga-trust-m-1/externals/mbedtls/library/cipher.c **** {
 694              	 .loc 1 764 0
 695              	 .cfi_startproc
 696              	.LVL71:
 765://MAC/Home/Downloads/getstarted-optiga-trust-m/optiga-trust-m-1/externals/mbedtls/library/cipher.c ****     CIPHER_VALIDATE_RET( ctx != NULL );
 766://MAC/Home/Downloads/getstarted-optiga-trust-m/optiga-trust-m-1/externals/mbedtls/library/cipher.c ****     CIPHER_VALIDATE_RET( output != NULL );
 767://MAC/Home/Downloads/getstarted-optiga-trust-m/optiga-trust-m-1/externals/mbedtls/library/cipher.c ****     CIPHER_VALIDATE_RET( olen != NULL );
 768://MAC/Home/Downloads/getstarted-optiga-trust-m/optiga-trust-m-1/externals/mbedtls/library/cipher.c ****     if( ctx->cipher_info == NULL )
 697              	 .loc 1 768 0
 698 0000 0168     	 ldr r1,[r0]
 699              	.LVL72:
 764://MAC/Home/Downloads/getstarted-optiga-trust-m/optiga-trust-m-1/externals/mbedtls/library/cipher.c ****     CIPHER_VALIDATE_RET( ctx != NULL );
 700              	 .loc 1 764 0
 701 0002 30B5     	 push {r4,r5,lr}
 702              	.LCFI9:
 703              	 .cfi_def_cfa_offset 12
 704              	 .cfi_offset 4,-12
 705              	 .cfi_offset 5,-8
 706              	 .cfi_offset 14,-4
 764://MAC/Home/Downloads/getstarted-optiga-trust-m/optiga-trust-m-1/externals/mbedtls/library/cipher.c ****     CIPHER_VALIDATE_RET( ctx != NULL );
 707              	 .loc 1 764 0
 708 0004 041C     	 mov r4,r0
 709              	 .loc 1 768 0
 710 0006 0029     	 cmp r1,#0
 711 0008 13D0     	 beq .L91
 769://MAC/Home/Downloads/getstarted-optiga-trust-m/optiga-trust-m-1/externals/mbedtls/library/cipher.c ****         return( MBEDTLS_ERR_CIPHER_BAD_INPUT_DATA );
 770://MAC/Home/Downloads/getstarted-optiga-trust-m/optiga-trust-m-1/externals/mbedtls/library/cipher.c **** 
 771://MAC/Home/Downloads/getstarted-optiga-trust-m/optiga-trust-m-1/externals/mbedtls/library/cipher.c ****     *olen = 0;
 712              	 .loc 1 771 0
 713 000a 0023     	 mov r3,#0
 714 000c 1360     	 str r3,[r2]
 772://MAC/Home/Downloads/getstarted-optiga-trust-m/optiga-trust-m-1/externals/mbedtls/library/cipher.c **** 
 773://MAC/Home/Downloads/getstarted-optiga-trust-m/optiga-trust-m-1/externals/mbedtls/library/cipher.c ****     if( MBEDTLS_MODE_CFB == ctx->cipher_info->mode ||
 715              	 .loc 1 773 0
 716 000e 4A78     	 ldrb r2,[r1,#1]
 717              	.LVL73:
 774://MAC/Home/Downloads/getstarted-optiga-trust-m/optiga-trust-m-1/externals/mbedtls/library/cipher.c ****         MBEDTLS_MODE_OFB == ctx->cipher_info->mode ||
 775://MAC/Home/Downloads/getstarted-optiga-trust-m/optiga-trust-m-1/externals/mbedtls/library/cipher.c ****         MBEDTLS_MODE_CTR == ctx->cipher_info->mode ||
 776://MAC/Home/Downloads/getstarted-optiga-trust-m/optiga-trust-m-1/externals/mbedtls/library/cipher.c ****         MBEDTLS_MODE_GCM == ctx->cipher_info->mode ||
 777://MAC/Home/Downloads/getstarted-optiga-trust-m/optiga-trust-m-1/externals/mbedtls/library/cipher.c ****         MBEDTLS_MODE_XTS == ctx->cipher_info->mode ||
 778://MAC/Home/Downloads/getstarted-optiga-trust-m/optiga-trust-m-1/externals/mbedtls/library/cipher.c ****         MBEDTLS_MODE_STREAM == ctx->cipher_info->mode )
 779://MAC/Home/Downloads/getstarted-optiga-trust-m/optiga-trust-m-1/externals/mbedtls/library/cipher.c ****     {
 780://MAC/Home/Downloads/getstarted-optiga-trust-m/optiga-trust-m-1/externals/mbedtls/library/cipher.c ****         return( 0 );
 718              	 .loc 1 780 0
 719 0010 181C     	 mov r0,r3
 720              	.LVL74:
 773://MAC/Home/Downloads/getstarted-optiga-trust-m/optiga-trust-m-1/externals/mbedtls/library/cipher.c ****         MBEDTLS_MODE_OFB == ctx->cipher_info->mode ||
 721              	 .loc 1 773 0
 722 0012 D51E     	 sub r5,r2,#3
 723 0014 042D     	 cmp r5,#4
 724 0016 0FD9     	 bls .L90
 776://MAC/Home/Downloads/getstarted-optiga-trust-m/optiga-trust-m-1/externals/mbedtls/library/cipher.c ****         MBEDTLS_MODE_XTS == ctx->cipher_info->mode ||
 725              	 .loc 1 776 0
 726 0018 092A     	 cmp r2,#9
 727 001a 0DD0     	 beq .L90
 781://MAC/Home/Downloads/getstarted-optiga-trust-m/optiga-trust-m-1/externals/mbedtls/library/cipher.c ****     }
 782://MAC/Home/Downloads/getstarted-optiga-trust-m/optiga-trust-m-1/externals/mbedtls/library/cipher.c **** 
 783://MAC/Home/Downloads/getstarted-optiga-trust-m/optiga-trust-m-1/externals/mbedtls/library/cipher.c ****     if ( ( MBEDTLS_CIPHER_CHACHA20          == ctx->cipher_info->type ) ||
 728              	 .loc 1 783 0
 729 001c 0B78     	 ldrb r3,[r1]
 730 001e 483B     	 sub r3,r3,#72
 731 0020 012B     	 cmp r3,#1
 732 0022 09D9     	 bls .L90
 784://MAC/Home/Downloads/getstarted-optiga-trust-m/optiga-trust-m-1/externals/mbedtls/library/cipher.c ****          ( MBEDTLS_CIPHER_CHACHA20_POLY1305 == ctx->cipher_info->type ) )
 785://MAC/Home/Downloads/getstarted-optiga-trust-m/optiga-trust-m-1/externals/mbedtls/library/cipher.c ****     {
 786://MAC/Home/Downloads/getstarted-optiga-trust-m/optiga-trust-m-1/externals/mbedtls/library/cipher.c ****         return( 0 );
 787://MAC/Home/Downloads/getstarted-optiga-trust-m/optiga-trust-m-1/externals/mbedtls/library/cipher.c ****     }
 788://MAC/Home/Downloads/getstarted-optiga-trust-m/optiga-trust-m-1/externals/mbedtls/library/cipher.c **** 
 789://MAC/Home/Downloads/getstarted-optiga-trust-m/optiga-trust-m-1/externals/mbedtls/library/cipher.c ****     if( MBEDTLS_MODE_ECB == ctx->cipher_info->mode )
 733              	 .loc 1 789 0
 734 0024 012A     	 cmp r2,#1
 735 0026 06D1     	 bne .L95
 790://MAC/Home/Downloads/getstarted-optiga-trust-m/optiga-trust-m-1/externals/mbedtls/library/cipher.c ****     {
 791://MAC/Home/Downloads/getstarted-optiga-trust-m/optiga-trust-m-1/externals/mbedtls/library/cipher.c ****         if( ctx->unprocessed_len != 0 )
 736              	 .loc 1 791 0
 737 0028 E369     	 ldr r3,[r4,#28]
 738 002a 8342     	 cmp r3,r0
 739 002c 04D0     	 beq .L90
 792://MAC/Home/Downloads/getstarted-optiga-trust-m/optiga-trust-m-1/externals/mbedtls/library/cipher.c ****             return( MBEDTLS_ERR_CIPHER_FULL_BLOCK_EXPECTED );
 740              	 .loc 1 792 0
 741 002e 0348     	 ldr r0,.L97
 742 0030 02E0     	 b .L90
 743              	.LVL75:
 744              	.L91:
 769://MAC/Home/Downloads/getstarted-optiga-trust-m/optiga-trust-m-1/externals/mbedtls/library/cipher.c **** 
 745              	 .loc 1 769 0
 746 0032 0348     	 ldr r0,.L97+4
 747              	.LVL76:
 748 0034 00E0     	 b .L90
 749              	.LVL77:
 750              	.L95:
 793://MAC/Home/Downloads/getstarted-optiga-trust-m/optiga-trust-m-1/externals/mbedtls/library/cipher.c **** 
 794://MAC/Home/Downloads/getstarted-optiga-trust-m/optiga-trust-m-1/externals/mbedtls/library/cipher.c ****         return( 0 );
 795://MAC/Home/Downloads/getstarted-optiga-trust-m/optiga-trust-m-1/externals/mbedtls/library/cipher.c ****     }
 796://MAC/Home/Downloads/getstarted-optiga-trust-m/optiga-trust-m-1/externals/mbedtls/library/cipher.c **** 
 797://MAC/Home/Downloads/getstarted-optiga-trust-m/optiga-trust-m-1/externals/mbedtls/library/cipher.c **** #if defined(MBEDTLS_CIPHER_MODE_CBC)
 798://MAC/Home/Downloads/getstarted-optiga-trust-m/optiga-trust-m-1/externals/mbedtls/library/cipher.c ****     if( MBEDTLS_MODE_CBC == ctx->cipher_info->mode )
 799://MAC/Home/Downloads/getstarted-optiga-trust-m/optiga-trust-m-1/externals/mbedtls/library/cipher.c ****     {
 800://MAC/Home/Downloads/getstarted-optiga-trust-m/optiga-trust-m-1/externals/mbedtls/library/cipher.c ****         int ret = 0;
 801://MAC/Home/Downloads/getstarted-optiga-trust-m/optiga-trust-m-1/externals/mbedtls/library/cipher.c **** 
 802://MAC/Home/Downloads/getstarted-optiga-trust-m/optiga-trust-m-1/externals/mbedtls/library/cipher.c ****         if( MBEDTLS_ENCRYPT == ctx->operation )
 803://MAC/Home/Downloads/getstarted-optiga-trust-m/optiga-trust-m-1/externals/mbedtls/library/cipher.c ****         {
 804://MAC/Home/Downloads/getstarted-optiga-trust-m/optiga-trust-m-1/externals/mbedtls/library/cipher.c ****             /* check for 'no padding' mode */
 805://MAC/Home/Downloads/getstarted-optiga-trust-m/optiga-trust-m-1/externals/mbedtls/library/cipher.c ****             if( NULL == ctx->add_padding )
 806://MAC/Home/Downloads/getstarted-optiga-trust-m/optiga-trust-m-1/externals/mbedtls/library/cipher.c ****             {
 807://MAC/Home/Downloads/getstarted-optiga-trust-m/optiga-trust-m-1/externals/mbedtls/library/cipher.c ****                 if( 0 != ctx->unprocessed_len )
 808://MAC/Home/Downloads/getstarted-optiga-trust-m/optiga-trust-m-1/externals/mbedtls/library/cipher.c ****                     return( MBEDTLS_ERR_CIPHER_FULL_BLOCK_EXPECTED );
 809://MAC/Home/Downloads/getstarted-optiga-trust-m/optiga-trust-m-1/externals/mbedtls/library/cipher.c **** 
 810://MAC/Home/Downloads/getstarted-optiga-trust-m/optiga-trust-m-1/externals/mbedtls/library/cipher.c ****                 return( 0 );
 811://MAC/Home/Downloads/getstarted-optiga-trust-m/optiga-trust-m-1/externals/mbedtls/library/cipher.c ****             }
 812://MAC/Home/Downloads/getstarted-optiga-trust-m/optiga-trust-m-1/externals/mbedtls/library/cipher.c **** 
 813://MAC/Home/Downloads/getstarted-optiga-trust-m/optiga-trust-m-1/externals/mbedtls/library/cipher.c ****             ctx->add_padding( ctx->unprocessed_data, mbedtls_cipher_get_iv_size( ctx ),
 814://MAC/Home/Downloads/getstarted-optiga-trust-m/optiga-trust-m-1/externals/mbedtls/library/cipher.c ****                     ctx->unprocessed_len );
 815://MAC/Home/Downloads/getstarted-optiga-trust-m/optiga-trust-m-1/externals/mbedtls/library/cipher.c ****         }
 816://MAC/Home/Downloads/getstarted-optiga-trust-m/optiga-trust-m-1/externals/mbedtls/library/cipher.c ****         else if( mbedtls_cipher_get_block_size( ctx ) != ctx->unprocessed_len )
 817://MAC/Home/Downloads/getstarted-optiga-trust-m/optiga-trust-m-1/externals/mbedtls/library/cipher.c ****         {
 818://MAC/Home/Downloads/getstarted-optiga-trust-m/optiga-trust-m-1/externals/mbedtls/library/cipher.c ****             /*
 819://MAC/Home/Downloads/getstarted-optiga-trust-m/optiga-trust-m-1/externals/mbedtls/library/cipher.c ****              * For decrypt operations, expect a full block,
 820://MAC/Home/Downloads/getstarted-optiga-trust-m/optiga-trust-m-1/externals/mbedtls/library/cipher.c ****              * or an empty block if no padding
 821://MAC/Home/Downloads/getstarted-optiga-trust-m/optiga-trust-m-1/externals/mbedtls/library/cipher.c ****              */
 822://MAC/Home/Downloads/getstarted-optiga-trust-m/optiga-trust-m-1/externals/mbedtls/library/cipher.c ****             if( NULL == ctx->add_padding && 0 == ctx->unprocessed_len )
 823://MAC/Home/Downloads/getstarted-optiga-trust-m/optiga-trust-m-1/externals/mbedtls/library/cipher.c ****                 return( 0 );
 824://MAC/Home/Downloads/getstarted-optiga-trust-m/optiga-trust-m-1/externals/mbedtls/library/cipher.c **** 
 825://MAC/Home/Downloads/getstarted-optiga-trust-m/optiga-trust-m-1/externals/mbedtls/library/cipher.c ****             return( MBEDTLS_ERR_CIPHER_FULL_BLOCK_EXPECTED );
 826://MAC/Home/Downloads/getstarted-optiga-trust-m/optiga-trust-m-1/externals/mbedtls/library/cipher.c ****         }
 827://MAC/Home/Downloads/getstarted-optiga-trust-m/optiga-trust-m-1/externals/mbedtls/library/cipher.c **** 
 828://MAC/Home/Downloads/getstarted-optiga-trust-m/optiga-trust-m-1/externals/mbedtls/library/cipher.c ****         /* cipher block */
 829://MAC/Home/Downloads/getstarted-optiga-trust-m/optiga-trust-m-1/externals/mbedtls/library/cipher.c ****         if( 0 != ( ret = ctx->cipher_info->base->cbc_func( ctx->cipher_ctx,
 830://MAC/Home/Downloads/getstarted-optiga-trust-m/optiga-trust-m-1/externals/mbedtls/library/cipher.c ****                 ctx->operation, mbedtls_cipher_get_block_size( ctx ), ctx->iv,
 831://MAC/Home/Downloads/getstarted-optiga-trust-m/optiga-trust-m-1/externals/mbedtls/library/cipher.c ****                 ctx->unprocessed_data, output ) ) )
 832://MAC/Home/Downloads/getstarted-optiga-trust-m/optiga-trust-m-1/externals/mbedtls/library/cipher.c ****         {
 833://MAC/Home/Downloads/getstarted-optiga-trust-m/optiga-trust-m-1/externals/mbedtls/library/cipher.c ****             return( ret );
 834://MAC/Home/Downloads/getstarted-optiga-trust-m/optiga-trust-m-1/externals/mbedtls/library/cipher.c ****         }
 835://MAC/Home/Downloads/getstarted-optiga-trust-m/optiga-trust-m-1/externals/mbedtls/library/cipher.c **** 
 836://MAC/Home/Downloads/getstarted-optiga-trust-m/optiga-trust-m-1/externals/mbedtls/library/cipher.c ****         /* Set output size for decryption */
 837://MAC/Home/Downloads/getstarted-optiga-trust-m/optiga-trust-m-1/externals/mbedtls/library/cipher.c ****         if( MBEDTLS_DECRYPT == ctx->operation )
 838://MAC/Home/Downloads/getstarted-optiga-trust-m/optiga-trust-m-1/externals/mbedtls/library/cipher.c ****             return( ctx->get_padding( output, mbedtls_cipher_get_block_size( ctx ),
 839://MAC/Home/Downloads/getstarted-optiga-trust-m/optiga-trust-m-1/externals/mbedtls/library/cipher.c ****                                       olen ) );
 840://MAC/Home/Downloads/getstarted-optiga-trust-m/optiga-trust-m-1/externals/mbedtls/library/cipher.c **** 
 841://MAC/Home/Downloads/getstarted-optiga-trust-m/optiga-trust-m-1/externals/mbedtls/library/cipher.c ****         /* Set output size for encryption */
 842://MAC/Home/Downloads/getstarted-optiga-trust-m/optiga-trust-m-1/externals/mbedtls/library/cipher.c ****         *olen = mbedtls_cipher_get_block_size( ctx );
 843://MAC/Home/Downloads/getstarted-optiga-trust-m/optiga-trust-m-1/externals/mbedtls/library/cipher.c ****         return( 0 );
 844://MAC/Home/Downloads/getstarted-optiga-trust-m/optiga-trust-m-1/externals/mbedtls/library/cipher.c ****     }
 845://MAC/Home/Downloads/getstarted-optiga-trust-m/optiga-trust-m-1/externals/mbedtls/library/cipher.c **** #else
 846://MAC/Home/Downloads/getstarted-optiga-trust-m/optiga-trust-m-1/externals/mbedtls/library/cipher.c ****     ((void) output);
 847://MAC/Home/Downloads/getstarted-optiga-trust-m/optiga-trust-m-1/externals/mbedtls/library/cipher.c **** #endif /* MBEDTLS_CIPHER_MODE_CBC */
 848://MAC/Home/Downloads/getstarted-optiga-trust-m/optiga-trust-m-1/externals/mbedtls/library/cipher.c **** 
 849://MAC/Home/Downloads/getstarted-optiga-trust-m/optiga-trust-m-1/externals/mbedtls/library/cipher.c ****     return( MBEDTLS_ERR_CIPHER_FEATURE_UNAVAILABLE );
 751              	 .loc 1 849 0
 752 0036 0348     	 ldr r0,.L97+8
 753              	.L90:
 850://MAC/Home/Downloads/getstarted-optiga-trust-m/optiga-trust-m-1/externals/mbedtls/library/cipher.c **** }
 754              	 .loc 1 850 0
 755              	 
 756              	.LVL78:
 757 0038 30BD     	 pop {r4,r5,pc}
 758              	.L98:
 759 003a C046     	 .align 2
 760              	.L97:
 761 003c 809DFFFF 	 .word -25216
 762 0040 009FFFFF 	 .word -24832
 763 0044 809FFFFF 	 .word -24704
 764              	 .cfi_endproc
 765              	.LFE18:
 767              	 .section .text.mbedtls_cipher_crypt,"ax",%progbits
 768              	 .align 1
 769              	 .global mbedtls_cipher_crypt
 770              	 .code 16
 771              	 .thumb_func
 773              	mbedtls_cipher_crypt:
 774              	.LFB19:
 851://MAC/Home/Downloads/getstarted-optiga-trust-m/optiga-trust-m-1/externals/mbedtls/library/cipher.c **** 
 852://MAC/Home/Downloads/getstarted-optiga-trust-m/optiga-trust-m-1/externals/mbedtls/library/cipher.c **** #if defined(MBEDTLS_CIPHER_MODE_WITH_PADDING)
 853://MAC/Home/Downloads/getstarted-optiga-trust-m/optiga-trust-m-1/externals/mbedtls/library/cipher.c **** int mbedtls_cipher_set_padding_mode( mbedtls_cipher_context_t *ctx,
 854://MAC/Home/Downloads/getstarted-optiga-trust-m/optiga-trust-m-1/externals/mbedtls/library/cipher.c ****                                      mbedtls_cipher_padding_t mode )
 855://MAC/Home/Downloads/getstarted-optiga-trust-m/optiga-trust-m-1/externals/mbedtls/library/cipher.c **** {
 856://MAC/Home/Downloads/getstarted-optiga-trust-m/optiga-trust-m-1/externals/mbedtls/library/cipher.c ****     CIPHER_VALIDATE_RET( ctx != NULL );
 857://MAC/Home/Downloads/getstarted-optiga-trust-m/optiga-trust-m-1/externals/mbedtls/library/cipher.c **** 
 858://MAC/Home/Downloads/getstarted-optiga-trust-m/optiga-trust-m-1/externals/mbedtls/library/cipher.c ****     if( NULL == ctx->cipher_info || MBEDTLS_MODE_CBC != ctx->cipher_info->mode )
 859://MAC/Home/Downloads/getstarted-optiga-trust-m/optiga-trust-m-1/externals/mbedtls/library/cipher.c ****     {
 860://MAC/Home/Downloads/getstarted-optiga-trust-m/optiga-trust-m-1/externals/mbedtls/library/cipher.c ****         return( MBEDTLS_ERR_CIPHER_BAD_INPUT_DATA );
 861://MAC/Home/Downloads/getstarted-optiga-trust-m/optiga-trust-m-1/externals/mbedtls/library/cipher.c ****     }
 862://MAC/Home/Downloads/getstarted-optiga-trust-m/optiga-trust-m-1/externals/mbedtls/library/cipher.c **** 
 863://MAC/Home/Downloads/getstarted-optiga-trust-m/optiga-trust-m-1/externals/mbedtls/library/cipher.c ****     switch( mode )
 864://MAC/Home/Downloads/getstarted-optiga-trust-m/optiga-trust-m-1/externals/mbedtls/library/cipher.c ****     {
 865://MAC/Home/Downloads/getstarted-optiga-trust-m/optiga-trust-m-1/externals/mbedtls/library/cipher.c **** #if defined(MBEDTLS_CIPHER_PADDING_PKCS7)
 866://MAC/Home/Downloads/getstarted-optiga-trust-m/optiga-trust-m-1/externals/mbedtls/library/cipher.c ****     case MBEDTLS_PADDING_PKCS7:
 867://MAC/Home/Downloads/getstarted-optiga-trust-m/optiga-trust-m-1/externals/mbedtls/library/cipher.c ****         ctx->add_padding = add_pkcs_padding;
 868://MAC/Home/Downloads/getstarted-optiga-trust-m/optiga-trust-m-1/externals/mbedtls/library/cipher.c ****         ctx->get_padding = get_pkcs_padding;
 869://MAC/Home/Downloads/getstarted-optiga-trust-m/optiga-trust-m-1/externals/mbedtls/library/cipher.c ****         break;
 870://MAC/Home/Downloads/getstarted-optiga-trust-m/optiga-trust-m-1/externals/mbedtls/library/cipher.c **** #endif
 871://MAC/Home/Downloads/getstarted-optiga-trust-m/optiga-trust-m-1/externals/mbedtls/library/cipher.c **** #if defined(MBEDTLS_CIPHER_PADDING_ONE_AND_ZEROS)
 872://MAC/Home/Downloads/getstarted-optiga-trust-m/optiga-trust-m-1/externals/mbedtls/library/cipher.c ****     case MBEDTLS_PADDING_ONE_AND_ZEROS:
 873://MAC/Home/Downloads/getstarted-optiga-trust-m/optiga-trust-m-1/externals/mbedtls/library/cipher.c ****         ctx->add_padding = add_one_and_zeros_padding;
 874://MAC/Home/Downloads/getstarted-optiga-trust-m/optiga-trust-m-1/externals/mbedtls/library/cipher.c ****         ctx->get_padding = get_one_and_zeros_padding;
 875://MAC/Home/Downloads/getstarted-optiga-trust-m/optiga-trust-m-1/externals/mbedtls/library/cipher.c ****         break;
 876://MAC/Home/Downloads/getstarted-optiga-trust-m/optiga-trust-m-1/externals/mbedtls/library/cipher.c **** #endif
 877://MAC/Home/Downloads/getstarted-optiga-trust-m/optiga-trust-m-1/externals/mbedtls/library/cipher.c **** #if defined(MBEDTLS_CIPHER_PADDING_ZEROS_AND_LEN)
 878://MAC/Home/Downloads/getstarted-optiga-trust-m/optiga-trust-m-1/externals/mbedtls/library/cipher.c ****     case MBEDTLS_PADDING_ZEROS_AND_LEN:
 879://MAC/Home/Downloads/getstarted-optiga-trust-m/optiga-trust-m-1/externals/mbedtls/library/cipher.c ****         ctx->add_padding = add_zeros_and_len_padding;
 880://MAC/Home/Downloads/getstarted-optiga-trust-m/optiga-trust-m-1/externals/mbedtls/library/cipher.c ****         ctx->get_padding = get_zeros_and_len_padding;
 881://MAC/Home/Downloads/getstarted-optiga-trust-m/optiga-trust-m-1/externals/mbedtls/library/cipher.c ****         break;
 882://MAC/Home/Downloads/getstarted-optiga-trust-m/optiga-trust-m-1/externals/mbedtls/library/cipher.c **** #endif
 883://MAC/Home/Downloads/getstarted-optiga-trust-m/optiga-trust-m-1/externals/mbedtls/library/cipher.c **** #if defined(MBEDTLS_CIPHER_PADDING_ZEROS)
 884://MAC/Home/Downloads/getstarted-optiga-trust-m/optiga-trust-m-1/externals/mbedtls/library/cipher.c ****     case MBEDTLS_PADDING_ZEROS:
 885://MAC/Home/Downloads/getstarted-optiga-trust-m/optiga-trust-m-1/externals/mbedtls/library/cipher.c ****         ctx->add_padding = add_zeros_padding;
 886://MAC/Home/Downloads/getstarted-optiga-trust-m/optiga-trust-m-1/externals/mbedtls/library/cipher.c ****         ctx->get_padding = get_zeros_padding;
 887://MAC/Home/Downloads/getstarted-optiga-trust-m/optiga-trust-m-1/externals/mbedtls/library/cipher.c ****         break;
 888://MAC/Home/Downloads/getstarted-optiga-trust-m/optiga-trust-m-1/externals/mbedtls/library/cipher.c **** #endif
 889://MAC/Home/Downloads/getstarted-optiga-trust-m/optiga-trust-m-1/externals/mbedtls/library/cipher.c ****     case MBEDTLS_PADDING_NONE:
 890://MAC/Home/Downloads/getstarted-optiga-trust-m/optiga-trust-m-1/externals/mbedtls/library/cipher.c ****         ctx->add_padding = NULL;
 891://MAC/Home/Downloads/getstarted-optiga-trust-m/optiga-trust-m-1/externals/mbedtls/library/cipher.c ****         ctx->get_padding = get_no_padding;
 892://MAC/Home/Downloads/getstarted-optiga-trust-m/optiga-trust-m-1/externals/mbedtls/library/cipher.c ****         break;
 893://MAC/Home/Downloads/getstarted-optiga-trust-m/optiga-trust-m-1/externals/mbedtls/library/cipher.c **** 
 894://MAC/Home/Downloads/getstarted-optiga-trust-m/optiga-trust-m-1/externals/mbedtls/library/cipher.c ****     default:
 895://MAC/Home/Downloads/getstarted-optiga-trust-m/optiga-trust-m-1/externals/mbedtls/library/cipher.c ****         return( MBEDTLS_ERR_CIPHER_FEATURE_UNAVAILABLE );
 896://MAC/Home/Downloads/getstarted-optiga-trust-m/optiga-trust-m-1/externals/mbedtls/library/cipher.c ****     }
 897://MAC/Home/Downloads/getstarted-optiga-trust-m/optiga-trust-m-1/externals/mbedtls/library/cipher.c **** 
 898://MAC/Home/Downloads/getstarted-optiga-trust-m/optiga-trust-m-1/externals/mbedtls/library/cipher.c ****     return( 0 );
 899://MAC/Home/Downloads/getstarted-optiga-trust-m/optiga-trust-m-1/externals/mbedtls/library/cipher.c **** }
 900://MAC/Home/Downloads/getstarted-optiga-trust-m/optiga-trust-m-1/externals/mbedtls/library/cipher.c **** #endif /* MBEDTLS_CIPHER_MODE_WITH_PADDING */
 901://MAC/Home/Downloads/getstarted-optiga-trust-m/optiga-trust-m-1/externals/mbedtls/library/cipher.c **** 
 902://MAC/Home/Downloads/getstarted-optiga-trust-m/optiga-trust-m-1/externals/mbedtls/library/cipher.c **** #if defined(MBEDTLS_GCM_C) || defined(MBEDTLS_CHACHAPOLY_C)
 903://MAC/Home/Downloads/getstarted-optiga-trust-m/optiga-trust-m-1/externals/mbedtls/library/cipher.c **** int mbedtls_cipher_write_tag( mbedtls_cipher_context_t *ctx,
 904://MAC/Home/Downloads/getstarted-optiga-trust-m/optiga-trust-m-1/externals/mbedtls/library/cipher.c ****                       unsigned char *tag, size_t tag_len )
 905://MAC/Home/Downloads/getstarted-optiga-trust-m/optiga-trust-m-1/externals/mbedtls/library/cipher.c **** {
 906://MAC/Home/Downloads/getstarted-optiga-trust-m/optiga-trust-m-1/externals/mbedtls/library/cipher.c ****     CIPHER_VALIDATE_RET( ctx != NULL );
 907://MAC/Home/Downloads/getstarted-optiga-trust-m/optiga-trust-m-1/externals/mbedtls/library/cipher.c ****     CIPHER_VALIDATE_RET( tag_len == 0 || tag != NULL );
 908://MAC/Home/Downloads/getstarted-optiga-trust-m/optiga-trust-m-1/externals/mbedtls/library/cipher.c ****     if( ctx->cipher_info == NULL )
 909://MAC/Home/Downloads/getstarted-optiga-trust-m/optiga-trust-m-1/externals/mbedtls/library/cipher.c ****         return( MBEDTLS_ERR_CIPHER_BAD_INPUT_DATA );
 910://MAC/Home/Downloads/getstarted-optiga-trust-m/optiga-trust-m-1/externals/mbedtls/library/cipher.c **** 
 911://MAC/Home/Downloads/getstarted-optiga-trust-m/optiga-trust-m-1/externals/mbedtls/library/cipher.c ****     if( MBEDTLS_ENCRYPT != ctx->operation )
 912://MAC/Home/Downloads/getstarted-optiga-trust-m/optiga-trust-m-1/externals/mbedtls/library/cipher.c ****         return( MBEDTLS_ERR_CIPHER_BAD_INPUT_DATA );
 913://MAC/Home/Downloads/getstarted-optiga-trust-m/optiga-trust-m-1/externals/mbedtls/library/cipher.c **** 
 914://MAC/Home/Downloads/getstarted-optiga-trust-m/optiga-trust-m-1/externals/mbedtls/library/cipher.c **** #if defined(MBEDTLS_GCM_C)
 915://MAC/Home/Downloads/getstarted-optiga-trust-m/optiga-trust-m-1/externals/mbedtls/library/cipher.c ****     if( MBEDTLS_MODE_GCM == ctx->cipher_info->mode )
 916://MAC/Home/Downloads/getstarted-optiga-trust-m/optiga-trust-m-1/externals/mbedtls/library/cipher.c ****         return( mbedtls_gcm_finish( (mbedtls_gcm_context *) ctx->cipher_ctx,
 917://MAC/Home/Downloads/getstarted-optiga-trust-m/optiga-trust-m-1/externals/mbedtls/library/cipher.c ****                                     tag, tag_len ) );
 918://MAC/Home/Downloads/getstarted-optiga-trust-m/optiga-trust-m-1/externals/mbedtls/library/cipher.c **** #endif
 919://MAC/Home/Downloads/getstarted-optiga-trust-m/optiga-trust-m-1/externals/mbedtls/library/cipher.c **** 
 920://MAC/Home/Downloads/getstarted-optiga-trust-m/optiga-trust-m-1/externals/mbedtls/library/cipher.c **** #if defined(MBEDTLS_CHACHAPOLY_C)
 921://MAC/Home/Downloads/getstarted-optiga-trust-m/optiga-trust-m-1/externals/mbedtls/library/cipher.c ****     if ( MBEDTLS_CIPHER_CHACHA20_POLY1305 == ctx->cipher_info->type )
 922://MAC/Home/Downloads/getstarted-optiga-trust-m/optiga-trust-m-1/externals/mbedtls/library/cipher.c ****     {
 923://MAC/Home/Downloads/getstarted-optiga-trust-m/optiga-trust-m-1/externals/mbedtls/library/cipher.c ****         /* Don't allow truncated MAC for Poly1305 */
 924://MAC/Home/Downloads/getstarted-optiga-trust-m/optiga-trust-m-1/externals/mbedtls/library/cipher.c ****         if ( tag_len != 16U )
 925://MAC/Home/Downloads/getstarted-optiga-trust-m/optiga-trust-m-1/externals/mbedtls/library/cipher.c ****             return( MBEDTLS_ERR_CIPHER_BAD_INPUT_DATA );
 926://MAC/Home/Downloads/getstarted-optiga-trust-m/optiga-trust-m-1/externals/mbedtls/library/cipher.c **** 
 927://MAC/Home/Downloads/getstarted-optiga-trust-m/optiga-trust-m-1/externals/mbedtls/library/cipher.c ****         return( mbedtls_chachapoly_finish( (mbedtls_chachapoly_context*) ctx->cipher_ctx,
 928://MAC/Home/Downloads/getstarted-optiga-trust-m/optiga-trust-m-1/externals/mbedtls/library/cipher.c ****                                            tag ) );
 929://MAC/Home/Downloads/getstarted-optiga-trust-m/optiga-trust-m-1/externals/mbedtls/library/cipher.c ****     }
 930://MAC/Home/Downloads/getstarted-optiga-trust-m/optiga-trust-m-1/externals/mbedtls/library/cipher.c **** #endif
 931://MAC/Home/Downloads/getstarted-optiga-trust-m/optiga-trust-m-1/externals/mbedtls/library/cipher.c **** 
 932://MAC/Home/Downloads/getstarted-optiga-trust-m/optiga-trust-m-1/externals/mbedtls/library/cipher.c ****     return( 0 );
 933://MAC/Home/Downloads/getstarted-optiga-trust-m/optiga-trust-m-1/externals/mbedtls/library/cipher.c **** }
 934://MAC/Home/Downloads/getstarted-optiga-trust-m/optiga-trust-m-1/externals/mbedtls/library/cipher.c **** 
 935://MAC/Home/Downloads/getstarted-optiga-trust-m/optiga-trust-m-1/externals/mbedtls/library/cipher.c **** int mbedtls_cipher_check_tag( mbedtls_cipher_context_t *ctx,
 936://MAC/Home/Downloads/getstarted-optiga-trust-m/optiga-trust-m-1/externals/mbedtls/library/cipher.c ****                       const unsigned char *tag, size_t tag_len )
 937://MAC/Home/Downloads/getstarted-optiga-trust-m/optiga-trust-m-1/externals/mbedtls/library/cipher.c **** {
 938://MAC/Home/Downloads/getstarted-optiga-trust-m/optiga-trust-m-1/externals/mbedtls/library/cipher.c ****     unsigned char check_tag[16];
 939://MAC/Home/Downloads/getstarted-optiga-trust-m/optiga-trust-m-1/externals/mbedtls/library/cipher.c ****     int ret;
 940://MAC/Home/Downloads/getstarted-optiga-trust-m/optiga-trust-m-1/externals/mbedtls/library/cipher.c **** 
 941://MAC/Home/Downloads/getstarted-optiga-trust-m/optiga-trust-m-1/externals/mbedtls/library/cipher.c ****     CIPHER_VALIDATE_RET( ctx != NULL );
 942://MAC/Home/Downloads/getstarted-optiga-trust-m/optiga-trust-m-1/externals/mbedtls/library/cipher.c ****     CIPHER_VALIDATE_RET( tag_len == 0 || tag != NULL );
 943://MAC/Home/Downloads/getstarted-optiga-trust-m/optiga-trust-m-1/externals/mbedtls/library/cipher.c ****     if( ctx->cipher_info == NULL )
 944://MAC/Home/Downloads/getstarted-optiga-trust-m/optiga-trust-m-1/externals/mbedtls/library/cipher.c ****         return( MBEDTLS_ERR_CIPHER_BAD_INPUT_DATA );
 945://MAC/Home/Downloads/getstarted-optiga-trust-m/optiga-trust-m-1/externals/mbedtls/library/cipher.c **** 
 946://MAC/Home/Downloads/getstarted-optiga-trust-m/optiga-trust-m-1/externals/mbedtls/library/cipher.c ****     if( MBEDTLS_DECRYPT != ctx->operation )
 947://MAC/Home/Downloads/getstarted-optiga-trust-m/optiga-trust-m-1/externals/mbedtls/library/cipher.c ****     {
 948://MAC/Home/Downloads/getstarted-optiga-trust-m/optiga-trust-m-1/externals/mbedtls/library/cipher.c ****         return( MBEDTLS_ERR_CIPHER_BAD_INPUT_DATA );
 949://MAC/Home/Downloads/getstarted-optiga-trust-m/optiga-trust-m-1/externals/mbedtls/library/cipher.c ****     }
 950://MAC/Home/Downloads/getstarted-optiga-trust-m/optiga-trust-m-1/externals/mbedtls/library/cipher.c **** 
 951://MAC/Home/Downloads/getstarted-optiga-trust-m/optiga-trust-m-1/externals/mbedtls/library/cipher.c **** #if defined(MBEDTLS_GCM_C)
 952://MAC/Home/Downloads/getstarted-optiga-trust-m/optiga-trust-m-1/externals/mbedtls/library/cipher.c ****     if( MBEDTLS_MODE_GCM == ctx->cipher_info->mode )
 953://MAC/Home/Downloads/getstarted-optiga-trust-m/optiga-trust-m-1/externals/mbedtls/library/cipher.c ****     {
 954://MAC/Home/Downloads/getstarted-optiga-trust-m/optiga-trust-m-1/externals/mbedtls/library/cipher.c ****         if( tag_len > sizeof( check_tag ) )
 955://MAC/Home/Downloads/getstarted-optiga-trust-m/optiga-trust-m-1/externals/mbedtls/library/cipher.c ****             return( MBEDTLS_ERR_CIPHER_BAD_INPUT_DATA );
 956://MAC/Home/Downloads/getstarted-optiga-trust-m/optiga-trust-m-1/externals/mbedtls/library/cipher.c **** 
 957://MAC/Home/Downloads/getstarted-optiga-trust-m/optiga-trust-m-1/externals/mbedtls/library/cipher.c ****         if( 0 != ( ret = mbedtls_gcm_finish( (mbedtls_gcm_context *) ctx->cipher_ctx,
 958://MAC/Home/Downloads/getstarted-optiga-trust-m/optiga-trust-m-1/externals/mbedtls/library/cipher.c ****                                      check_tag, tag_len ) ) )
 959://MAC/Home/Downloads/getstarted-optiga-trust-m/optiga-trust-m-1/externals/mbedtls/library/cipher.c ****         {
 960://MAC/Home/Downloads/getstarted-optiga-trust-m/optiga-trust-m-1/externals/mbedtls/library/cipher.c ****             return( ret );
 961://MAC/Home/Downloads/getstarted-optiga-trust-m/optiga-trust-m-1/externals/mbedtls/library/cipher.c ****         }
 962://MAC/Home/Downloads/getstarted-optiga-trust-m/optiga-trust-m-1/externals/mbedtls/library/cipher.c **** 
 963://MAC/Home/Downloads/getstarted-optiga-trust-m/optiga-trust-m-1/externals/mbedtls/library/cipher.c ****         /* Check the tag in "constant-time" */
 964://MAC/Home/Downloads/getstarted-optiga-trust-m/optiga-trust-m-1/externals/mbedtls/library/cipher.c ****         if( mbedtls_constant_time_memcmp( tag, check_tag, tag_len ) != 0 )
 965://MAC/Home/Downloads/getstarted-optiga-trust-m/optiga-trust-m-1/externals/mbedtls/library/cipher.c ****             return( MBEDTLS_ERR_CIPHER_AUTH_FAILED );
 966://MAC/Home/Downloads/getstarted-optiga-trust-m/optiga-trust-m-1/externals/mbedtls/library/cipher.c **** 
 967://MAC/Home/Downloads/getstarted-optiga-trust-m/optiga-trust-m-1/externals/mbedtls/library/cipher.c ****         return( 0 );
 968://MAC/Home/Downloads/getstarted-optiga-trust-m/optiga-trust-m-1/externals/mbedtls/library/cipher.c ****     }
 969://MAC/Home/Downloads/getstarted-optiga-trust-m/optiga-trust-m-1/externals/mbedtls/library/cipher.c **** #endif /* MBEDTLS_GCM_C */
 970://MAC/Home/Downloads/getstarted-optiga-trust-m/optiga-trust-m-1/externals/mbedtls/library/cipher.c **** 
 971://MAC/Home/Downloads/getstarted-optiga-trust-m/optiga-trust-m-1/externals/mbedtls/library/cipher.c **** #if defined(MBEDTLS_CHACHAPOLY_C)
 972://MAC/Home/Downloads/getstarted-optiga-trust-m/optiga-trust-m-1/externals/mbedtls/library/cipher.c ****     if ( MBEDTLS_CIPHER_CHACHA20_POLY1305 == ctx->cipher_info->type )
 973://MAC/Home/Downloads/getstarted-optiga-trust-m/optiga-trust-m-1/externals/mbedtls/library/cipher.c ****     {
 974://MAC/Home/Downloads/getstarted-optiga-trust-m/optiga-trust-m-1/externals/mbedtls/library/cipher.c ****         /* Don't allow truncated MAC for Poly1305 */
 975://MAC/Home/Downloads/getstarted-optiga-trust-m/optiga-trust-m-1/externals/mbedtls/library/cipher.c ****         if ( tag_len != sizeof( check_tag ) )
 976://MAC/Home/Downloads/getstarted-optiga-trust-m/optiga-trust-m-1/externals/mbedtls/library/cipher.c ****             return( MBEDTLS_ERR_CIPHER_BAD_INPUT_DATA );
 977://MAC/Home/Downloads/getstarted-optiga-trust-m/optiga-trust-m-1/externals/mbedtls/library/cipher.c **** 
 978://MAC/Home/Downloads/getstarted-optiga-trust-m/optiga-trust-m-1/externals/mbedtls/library/cipher.c ****         ret = mbedtls_chachapoly_finish( (mbedtls_chachapoly_context*) ctx->cipher_ctx,
 979://MAC/Home/Downloads/getstarted-optiga-trust-m/optiga-trust-m-1/externals/mbedtls/library/cipher.c ****                                                      check_tag );
 980://MAC/Home/Downloads/getstarted-optiga-trust-m/optiga-trust-m-1/externals/mbedtls/library/cipher.c ****         if ( ret != 0 )
 981://MAC/Home/Downloads/getstarted-optiga-trust-m/optiga-trust-m-1/externals/mbedtls/library/cipher.c ****         {
 982://MAC/Home/Downloads/getstarted-optiga-trust-m/optiga-trust-m-1/externals/mbedtls/library/cipher.c ****             return( ret );
 983://MAC/Home/Downloads/getstarted-optiga-trust-m/optiga-trust-m-1/externals/mbedtls/library/cipher.c ****         }
 984://MAC/Home/Downloads/getstarted-optiga-trust-m/optiga-trust-m-1/externals/mbedtls/library/cipher.c **** 
 985://MAC/Home/Downloads/getstarted-optiga-trust-m/optiga-trust-m-1/externals/mbedtls/library/cipher.c ****         /* Check the tag in "constant-time" */
 986://MAC/Home/Downloads/getstarted-optiga-trust-m/optiga-trust-m-1/externals/mbedtls/library/cipher.c ****         if( mbedtls_constant_time_memcmp( tag, check_tag, tag_len ) != 0 )
 987://MAC/Home/Downloads/getstarted-optiga-trust-m/optiga-trust-m-1/externals/mbedtls/library/cipher.c ****             return( MBEDTLS_ERR_CIPHER_AUTH_FAILED );
 988://MAC/Home/Downloads/getstarted-optiga-trust-m/optiga-trust-m-1/externals/mbedtls/library/cipher.c **** 
 989://MAC/Home/Downloads/getstarted-optiga-trust-m/optiga-trust-m-1/externals/mbedtls/library/cipher.c ****         return( 0 );
 990://MAC/Home/Downloads/getstarted-optiga-trust-m/optiga-trust-m-1/externals/mbedtls/library/cipher.c ****     }
 991://MAC/Home/Downloads/getstarted-optiga-trust-m/optiga-trust-m-1/externals/mbedtls/library/cipher.c **** #endif /* MBEDTLS_CHACHAPOLY_C */
 992://MAC/Home/Downloads/getstarted-optiga-trust-m/optiga-trust-m-1/externals/mbedtls/library/cipher.c **** 
 993://MAC/Home/Downloads/getstarted-optiga-trust-m/optiga-trust-m-1/externals/mbedtls/library/cipher.c ****     return( 0 );
 994://MAC/Home/Downloads/getstarted-optiga-trust-m/optiga-trust-m-1/externals/mbedtls/library/cipher.c **** }
 995://MAC/Home/Downloads/getstarted-optiga-trust-m/optiga-trust-m-1/externals/mbedtls/library/cipher.c **** #endif /* MBEDTLS_GCM_C || MBEDTLS_CHACHAPOLY_C */
 996://MAC/Home/Downloads/getstarted-optiga-trust-m/optiga-trust-m-1/externals/mbedtls/library/cipher.c **** 
 997://MAC/Home/Downloads/getstarted-optiga-trust-m/optiga-trust-m-1/externals/mbedtls/library/cipher.c **** /*
 998://MAC/Home/Downloads/getstarted-optiga-trust-m/optiga-trust-m-1/externals/mbedtls/library/cipher.c ****  * Packet-oriented wrapper for non-AEAD modes
 999://MAC/Home/Downloads/getstarted-optiga-trust-m/optiga-trust-m-1/externals/mbedtls/library/cipher.c ****  */
1000://MAC/Home/Downloads/getstarted-optiga-trust-m/optiga-trust-m-1/externals/mbedtls/library/cipher.c **** int mbedtls_cipher_crypt( mbedtls_cipher_context_t *ctx,
1001://MAC/Home/Downloads/getstarted-optiga-trust-m/optiga-trust-m-1/externals/mbedtls/library/cipher.c ****                   const unsigned char *iv, size_t iv_len,
1002://MAC/Home/Downloads/getstarted-optiga-trust-m/optiga-trust-m-1/externals/mbedtls/library/cipher.c ****                   const unsigned char *input, size_t ilen,
1003://MAC/Home/Downloads/getstarted-optiga-trust-m/optiga-trust-m-1/externals/mbedtls/library/cipher.c ****                   unsigned char *output, size_t *olen )
1004://MAC/Home/Downloads/getstarted-optiga-trust-m/optiga-trust-m-1/externals/mbedtls/library/cipher.c **** {
 775              	 .loc 1 1004 0
 776              	 .cfi_startproc
 777              	.LVL79:
 778 0000 7FB5     	 push {r0,r1,r2,r3,r4,r5,r6,lr}
 779              	.LCFI10:
 780              	 .cfi_def_cfa_offset 32
 781              	 .cfi_offset 0,-32
 782              	 .cfi_offset 1,-28
 783              	 .cfi_offset 2,-24
 784              	 .cfi_offset 3,-20
 785              	 .cfi_offset 4,-16
 786              	 .cfi_offset 5,-12
 787              	 .cfi_offset 6,-8
 788              	 .cfi_offset 14,-4
 789              	 .loc 1 1004 0
 790 0002 0A9D     	 ldr r5,[sp,#40]
 791 0004 041C     	 mov r4,r0
 792 0006 1E1C     	 mov r6,r3
1005://MAC/Home/Downloads/getstarted-optiga-trust-m/optiga-trust-m-1/externals/mbedtls/library/cipher.c ****     int ret;
1006://MAC/Home/Downloads/getstarted-optiga-trust-m/optiga-trust-m-1/externals/mbedtls/library/cipher.c ****     size_t finish_olen;
1007://MAC/Home/Downloads/getstarted-optiga-trust-m/optiga-trust-m-1/externals/mbedtls/library/cipher.c **** 
1008://MAC/Home/Downloads/getstarted-optiga-trust-m/optiga-trust-m-1/externals/mbedtls/library/cipher.c ****     CIPHER_VALIDATE_RET( ctx != NULL );
1009://MAC/Home/Downloads/getstarted-optiga-trust-m/optiga-trust-m-1/externals/mbedtls/library/cipher.c ****     CIPHER_VALIDATE_RET( iv_len == 0 || iv != NULL );
1010://MAC/Home/Downloads/getstarted-optiga-trust-m/optiga-trust-m-1/externals/mbedtls/library/cipher.c ****     CIPHER_VALIDATE_RET( ilen == 0 || input != NULL );
1011://MAC/Home/Downloads/getstarted-optiga-trust-m/optiga-trust-m-1/externals/mbedtls/library/cipher.c ****     CIPHER_VALIDATE_RET( output != NULL );
1012://MAC/Home/Downloads/getstarted-optiga-trust-m/optiga-trust-m-1/externals/mbedtls/library/cipher.c ****     CIPHER_VALIDATE_RET( olen != NULL );
1013://MAC/Home/Downloads/getstarted-optiga-trust-m/optiga-trust-m-1/externals/mbedtls/library/cipher.c **** 
1014://MAC/Home/Downloads/getstarted-optiga-trust-m/optiga-trust-m-1/externals/mbedtls/library/cipher.c ****     if( ( ret = mbedtls_cipher_set_iv( ctx, iv, iv_len ) ) != 0 )
 793              	 .loc 1 1014 0
 794 0008 FFF7FEFF 	 bl mbedtls_cipher_set_iv
 795              	.LVL80:
 796 000c 0028     	 cmp r0,#0
 797 000e 1BD1     	 bne .L100
 798              	.LVL81:
 799              	.LBB8:
 800              	.LBB9:
 299://MAC/Home/Downloads/getstarted-optiga-trust-m/optiga-trust-m-1/externals/mbedtls/library/cipher.c ****         return( MBEDTLS_ERR_CIPHER_BAD_INPUT_DATA );
 801              	 .loc 1 299 0
 802 0010 2368     	 ldr r3,[r4]
 803 0012 002B     	 cmp r3,#0
 804 0014 17D0     	 beq .L102
 302://MAC/Home/Downloads/getstarted-optiga-trust-m/optiga-trust-m-1/externals/mbedtls/library/cipher.c **** 
 805              	 .loc 1 302 0
 806 0016 E061     	 str r0,[r4,#28]
 807              	.LVL82:
 808              	.LBE9:
 809              	.LBE8:
1015://MAC/Home/Downloads/getstarted-optiga-trust-m/optiga-trust-m-1/externals/mbedtls/library/cipher.c ****         return( ret );
1016://MAC/Home/Downloads/getstarted-optiga-trust-m/optiga-trust-m-1/externals/mbedtls/library/cipher.c **** 
1017://MAC/Home/Downloads/getstarted-optiga-trust-m/optiga-trust-m-1/externals/mbedtls/library/cipher.c ****     if( ( ret = mbedtls_cipher_reset( ctx ) ) != 0 )
1018://MAC/Home/Downloads/getstarted-optiga-trust-m/optiga-trust-m-1/externals/mbedtls/library/cipher.c ****         return( ret );
1019://MAC/Home/Downloads/getstarted-optiga-trust-m/optiga-trust-m-1/externals/mbedtls/library/cipher.c **** 
1020://MAC/Home/Downloads/getstarted-optiga-trust-m/optiga-trust-m-1/externals/mbedtls/library/cipher.c ****     if( ( ret = mbedtls_cipher_update( ctx, input, ilen, output, olen ) ) != 0 )
 810              	 .loc 1 1020 0
 811 0018 0095     	 str r5,[sp]
 812 001a 201C     	 mov r0,r4
 813 001c 311C     	 mov r1,r6
 814 001e 089A     	 ldr r2,[sp,#32]
 815 0020 099B     	 ldr r3,[sp,#36]
 816 0022 FFF7FEFF 	 bl mbedtls_cipher_update
 817              	.LVL83:
 818 0026 0028     	 cmp r0,#0
 819 0028 0ED1     	 bne .L100
1021://MAC/Home/Downloads/getstarted-optiga-trust-m/optiga-trust-m-1/externals/mbedtls/library/cipher.c ****         return( ret );
1022://MAC/Home/Downloads/getstarted-optiga-trust-m/optiga-trust-m-1/externals/mbedtls/library/cipher.c **** 
1023://MAC/Home/Downloads/getstarted-optiga-trust-m/optiga-trust-m-1/externals/mbedtls/library/cipher.c ****     if( ( ret = mbedtls_cipher_finish( ctx, output + *olen, &finish_olen ) ) != 0 )
 820              	 .loc 1 1023 0
 821 002a 2A68     	 ldr r2,[r5]
 822 002c 099B     	 ldr r3,[sp,#36]
 823 002e 201C     	 mov r0,r4
 824              	.LVL84:
 825 0030 9918     	 add r1,r3,r2
 826 0032 03AA     	 add r2,sp,#12
 827 0034 FFF7FEFF 	 bl mbedtls_cipher_finish
 828              	.LVL85:
 829 0038 0028     	 cmp r0,#0
 830 003a 05D1     	 bne .L100
1024://MAC/Home/Downloads/getstarted-optiga-trust-m/optiga-trust-m-1/externals/mbedtls/library/cipher.c ****         return( ret );
1025://MAC/Home/Downloads/getstarted-optiga-trust-m/optiga-trust-m-1/externals/mbedtls/library/cipher.c **** 
1026://MAC/Home/Downloads/getstarted-optiga-trust-m/optiga-trust-m-1/externals/mbedtls/library/cipher.c ****     *olen += finish_olen;
 831              	 .loc 1 1026 0
 832 003c 2B68     	 ldr r3,[r5]
 833 003e 039A     	 ldr r2,[sp,#12]
 834 0040 9B18     	 add r3,r3,r2
 835 0042 2B60     	 str r3,[r5]
1027://MAC/Home/Downloads/getstarted-optiga-trust-m/optiga-trust-m-1/externals/mbedtls/library/cipher.c **** 
1028://MAC/Home/Downloads/getstarted-optiga-trust-m/optiga-trust-m-1/externals/mbedtls/library/cipher.c ****     return( 0 );
 836              	 .loc 1 1028 0
 837 0044 00E0     	 b .L100
 838              	.L102:
 839              	.LBB11:
 840              	.LBB10:
 300://MAC/Home/Downloads/getstarted-optiga-trust-m/optiga-trust-m-1/externals/mbedtls/library/cipher.c **** 
 841              	 .loc 1 300 0
 842 0046 0148     	 ldr r0,.L105
 843              	.LVL86:
 844              	.L100:
 845              	.LBE10:
 846              	.LBE11:
1029://MAC/Home/Downloads/getstarted-optiga-trust-m/optiga-trust-m-1/externals/mbedtls/library/cipher.c **** }
 847              	 .loc 1 1029 0
 848 0048 04B0     	 add sp,sp,#16
 849              	 
 850              	.LVL87:
 851              	.LVL88:
 852 004a 70BD     	 pop {r4,r5,r6,pc}
 853              	.L106:
 854              	 .align 2
 855              	.L105:
 856 004c 009FFFFF 	 .word -24832
 857              	 .cfi_endproc
 858              	.LFE19:
 860              	 .section .text.mbedtls_cipher_auth_encrypt,"ax",%progbits
 861              	 .align 1
 862              	 .global mbedtls_cipher_auth_encrypt
 863              	 .code 16
 864              	 .thumb_func
 866              	mbedtls_cipher_auth_encrypt:
 867              	.LFB20:
1030://MAC/Home/Downloads/getstarted-optiga-trust-m/optiga-trust-m-1/externals/mbedtls/library/cipher.c **** 
1031://MAC/Home/Downloads/getstarted-optiga-trust-m/optiga-trust-m-1/externals/mbedtls/library/cipher.c **** #if defined(MBEDTLS_CIPHER_MODE_AEAD)
1032://MAC/Home/Downloads/getstarted-optiga-trust-m/optiga-trust-m-1/externals/mbedtls/library/cipher.c **** /*
1033://MAC/Home/Downloads/getstarted-optiga-trust-m/optiga-trust-m-1/externals/mbedtls/library/cipher.c ****  * Packet-oriented encryption for AEAD modes
1034://MAC/Home/Downloads/getstarted-optiga-trust-m/optiga-trust-m-1/externals/mbedtls/library/cipher.c ****  */
1035://MAC/Home/Downloads/getstarted-optiga-trust-m/optiga-trust-m-1/externals/mbedtls/library/cipher.c **** int mbedtls_cipher_auth_encrypt( mbedtls_cipher_context_t *ctx,
1036://MAC/Home/Downloads/getstarted-optiga-trust-m/optiga-trust-m-1/externals/mbedtls/library/cipher.c ****                          const unsigned char *iv, size_t iv_len,
1037://MAC/Home/Downloads/getstarted-optiga-trust-m/optiga-trust-m-1/externals/mbedtls/library/cipher.c ****                          const unsigned char *ad, size_t ad_len,
1038://MAC/Home/Downloads/getstarted-optiga-trust-m/optiga-trust-m-1/externals/mbedtls/library/cipher.c ****                          const unsigned char *input, size_t ilen,
1039://MAC/Home/Downloads/getstarted-optiga-trust-m/optiga-trust-m-1/externals/mbedtls/library/cipher.c ****                          unsigned char *output, size_t *olen,
1040://MAC/Home/Downloads/getstarted-optiga-trust-m/optiga-trust-m-1/externals/mbedtls/library/cipher.c ****                          unsigned char *tag, size_t tag_len )
1041://MAC/Home/Downloads/getstarted-optiga-trust-m/optiga-trust-m-1/externals/mbedtls/library/cipher.c **** {
 868              	 .loc 1 1041 0
 869              	 .cfi_startproc
 870              	.LVL89:
 871 0000 30B5     	 push {r4,r5,lr}
 872              	.LCFI11:
 873              	 .cfi_def_cfa_offset 12
 874              	 .cfi_offset 4,-12
 875              	 .cfi_offset 5,-8
 876              	 .cfi_offset 14,-4
1042://MAC/Home/Downloads/getstarted-optiga-trust-m/optiga-trust-m-1/externals/mbedtls/library/cipher.c ****     CIPHER_VALIDATE_RET( ctx != NULL );
1043://MAC/Home/Downloads/getstarted-optiga-trust-m/optiga-trust-m-1/externals/mbedtls/library/cipher.c ****     CIPHER_VALIDATE_RET( iv != NULL );
1044://MAC/Home/Downloads/getstarted-optiga-trust-m/optiga-trust-m-1/externals/mbedtls/library/cipher.c ****     CIPHER_VALIDATE_RET( ad_len == 0 || ad != NULL );
1045://MAC/Home/Downloads/getstarted-optiga-trust-m/optiga-trust-m-1/externals/mbedtls/library/cipher.c ****     CIPHER_VALIDATE_RET( ilen == 0 || input != NULL );
1046://MAC/Home/Downloads/getstarted-optiga-trust-m/optiga-trust-m-1/externals/mbedtls/library/cipher.c ****     CIPHER_VALIDATE_RET( output != NULL );
1047://MAC/Home/Downloads/getstarted-optiga-trust-m/optiga-trust-m-1/externals/mbedtls/library/cipher.c ****     CIPHER_VALIDATE_RET( olen != NULL );
1048://MAC/Home/Downloads/getstarted-optiga-trust-m/optiga-trust-m-1/externals/mbedtls/library/cipher.c ****     CIPHER_VALIDATE_RET( tag_len == 0 || tag != NULL );
1049://MAC/Home/Downloads/getstarted-optiga-trust-m/optiga-trust-m-1/externals/mbedtls/library/cipher.c **** 
1050://MAC/Home/Downloads/getstarted-optiga-trust-m/optiga-trust-m-1/externals/mbedtls/library/cipher.c **** #if defined(MBEDTLS_GCM_C)
1051://MAC/Home/Downloads/getstarted-optiga-trust-m/optiga-trust-m-1/externals/mbedtls/library/cipher.c ****     if( MBEDTLS_MODE_GCM == ctx->cipher_info->mode )
1052://MAC/Home/Downloads/getstarted-optiga-trust-m/optiga-trust-m-1/externals/mbedtls/library/cipher.c ****     {
1053://MAC/Home/Downloads/getstarted-optiga-trust-m/optiga-trust-m-1/externals/mbedtls/library/cipher.c ****         *olen = ilen;
