   1              	 .cpu cortex-m0
   2              	 .fpu softvfp
   3              	 .eabi_attribute 20,1
   4              	 .eabi_attribute 21,1
   5              	 .eabi_attribute 23,3
   6              	 .eabi_attribute 24,1
   7              	 .eabi_attribute 25,1
   8              	 .eabi_attribute 26,1
   9              	 .eabi_attribute 30,4
  10              	 .eabi_attribute 34,0
  11              	 .eabi_attribute 18,4
  12              	 .code 16
  13              	 .file "ecp.c"
  14              	 .text
  15              	.Ltext0:
  16              	 .cfi_sections .debug_frame
  17              	 .section .text.ecp_get_type,"ax",%progbits
  18              	 .align 1
  19              	 .code 16
  20              	 .thumb_func
  22              	ecp_get_type:
  23              	.LFB5:
  24              	 .file 1 "C:/Workspace/DAVE-4.4.2-64Bit/optiga-trust-m/externals/mbedtls/library/ecp.c"
   1:C:/Workspace/DAVE-4.4.2-64Bit/optiga-trust-m/externals/mbedtls/library\ecp.c **** /*
   2:C:/Workspace/DAVE-4.4.2-64Bit/optiga-trust-m/externals/mbedtls/library\ecp.c ****  *  Elliptic curves over GF(p): generic functions
   3:C:/Workspace/DAVE-4.4.2-64Bit/optiga-trust-m/externals/mbedtls/library\ecp.c ****  *
   4:C:/Workspace/DAVE-4.4.2-64Bit/optiga-trust-m/externals/mbedtls/library\ecp.c ****  *  Copyright (C) 2006-2015, ARM Limited, All Rights Reserved
   5:C:/Workspace/DAVE-4.4.2-64Bit/optiga-trust-m/externals/mbedtls/library\ecp.c ****  *  SPDX-License-Identifier: Apache-2.0
   6:C:/Workspace/DAVE-4.4.2-64Bit/optiga-trust-m/externals/mbedtls/library\ecp.c ****  *
   7:C:/Workspace/DAVE-4.4.2-64Bit/optiga-trust-m/externals/mbedtls/library\ecp.c ****  *  Licensed under the Apache License, Version 2.0 (the "License"); you may
   8:C:/Workspace/DAVE-4.4.2-64Bit/optiga-trust-m/externals/mbedtls/library\ecp.c ****  *  not use this file except in compliance with the License.
   9:C:/Workspace/DAVE-4.4.2-64Bit/optiga-trust-m/externals/mbedtls/library\ecp.c ****  *  You may obtain a copy of the License at
  10:C:/Workspace/DAVE-4.4.2-64Bit/optiga-trust-m/externals/mbedtls/library\ecp.c ****  *
  11:C:/Workspace/DAVE-4.4.2-64Bit/optiga-trust-m/externals/mbedtls/library\ecp.c ****  *  http://www.apache.org/licenses/LICENSE-2.0
  12:C:/Workspace/DAVE-4.4.2-64Bit/optiga-trust-m/externals/mbedtls/library\ecp.c ****  *
  13:C:/Workspace/DAVE-4.4.2-64Bit/optiga-trust-m/externals/mbedtls/library\ecp.c ****  *  Unless required by applicable law or agreed to in writing, software
  14:C:/Workspace/DAVE-4.4.2-64Bit/optiga-trust-m/externals/mbedtls/library\ecp.c ****  *  distributed under the License is distributed on an "AS IS" BASIS, WITHOUT
  15:C:/Workspace/DAVE-4.4.2-64Bit/optiga-trust-m/externals/mbedtls/library\ecp.c ****  *  WARRANTIES OR CONDITIONS OF ANY KIND, either express or implied.
  16:C:/Workspace/DAVE-4.4.2-64Bit/optiga-trust-m/externals/mbedtls/library\ecp.c ****  *  See the License for the specific language governing permissions and
  17:C:/Workspace/DAVE-4.4.2-64Bit/optiga-trust-m/externals/mbedtls/library\ecp.c ****  *  limitations under the License.
  18:C:/Workspace/DAVE-4.4.2-64Bit/optiga-trust-m/externals/mbedtls/library\ecp.c ****  *
  19:C:/Workspace/DAVE-4.4.2-64Bit/optiga-trust-m/externals/mbedtls/library\ecp.c ****  *  This file is part of mbed TLS (https://tls.mbed.org)
  20:C:/Workspace/DAVE-4.4.2-64Bit/optiga-trust-m/externals/mbedtls/library\ecp.c ****  */
  21:C:/Workspace/DAVE-4.4.2-64Bit/optiga-trust-m/externals/mbedtls/library\ecp.c **** 
  22:C:/Workspace/DAVE-4.4.2-64Bit/optiga-trust-m/externals/mbedtls/library\ecp.c **** /*
  23:C:/Workspace/DAVE-4.4.2-64Bit/optiga-trust-m/externals/mbedtls/library\ecp.c ****  * References:
  24:C:/Workspace/DAVE-4.4.2-64Bit/optiga-trust-m/externals/mbedtls/library\ecp.c ****  *
  25:C:/Workspace/DAVE-4.4.2-64Bit/optiga-trust-m/externals/mbedtls/library\ecp.c ****  * SEC1 http://www.secg.org/index.php?action=secg,docs_secg
  26:C:/Workspace/DAVE-4.4.2-64Bit/optiga-trust-m/externals/mbedtls/library\ecp.c ****  * GECC = Guide to Elliptic Curve Cryptography - Hankerson, Menezes, Vanstone
  27:C:/Workspace/DAVE-4.4.2-64Bit/optiga-trust-m/externals/mbedtls/library\ecp.c ****  * FIPS 186-3 http://csrc.nist.gov/publications/fips/fips186-3/fips_186-3.pdf
  28:C:/Workspace/DAVE-4.4.2-64Bit/optiga-trust-m/externals/mbedtls/library\ecp.c ****  * RFC 4492 for the related TLS structures and constants
  29:C:/Workspace/DAVE-4.4.2-64Bit/optiga-trust-m/externals/mbedtls/library\ecp.c ****  * RFC 7748 for the Curve448 and Curve25519 curve definitions
  30:C:/Workspace/DAVE-4.4.2-64Bit/optiga-trust-m/externals/mbedtls/library\ecp.c ****  *
  31:C:/Workspace/DAVE-4.4.2-64Bit/optiga-trust-m/externals/mbedtls/library\ecp.c ****  * [Curve25519] http://cr.yp.to/ecdh/curve25519-20060209.pdf
  32:C:/Workspace/DAVE-4.4.2-64Bit/optiga-trust-m/externals/mbedtls/library\ecp.c ****  *
  33:C:/Workspace/DAVE-4.4.2-64Bit/optiga-trust-m/externals/mbedtls/library\ecp.c ****  * [2] CORON, Jean-S'ebastien. Resistance against differential power analysis
  34:C:/Workspace/DAVE-4.4.2-64Bit/optiga-trust-m/externals/mbedtls/library\ecp.c ****  *     for elliptic curve cryptosystems. In : Cryptographic Hardware and
  35:C:/Workspace/DAVE-4.4.2-64Bit/optiga-trust-m/externals/mbedtls/library\ecp.c ****  *     Embedded Systems. Springer Berlin Heidelberg, 1999. p. 292-302.
  36:C:/Workspace/DAVE-4.4.2-64Bit/optiga-trust-m/externals/mbedtls/library\ecp.c ****  *     <http://link.springer.com/chapter/10.1007/3-540-48059-5_25>
  37:C:/Workspace/DAVE-4.4.2-64Bit/optiga-trust-m/externals/mbedtls/library\ecp.c ****  *
  38:C:/Workspace/DAVE-4.4.2-64Bit/optiga-trust-m/externals/mbedtls/library\ecp.c ****  * [3] HEDABOU, Mustapha, PINEL, Pierre, et B'EN'ETEAU, Lucien. A comb method to
  39:C:/Workspace/DAVE-4.4.2-64Bit/optiga-trust-m/externals/mbedtls/library\ecp.c ****  *     render ECC resistant against Side Channel Attacks. IACR Cryptology
  40:C:/Workspace/DAVE-4.4.2-64Bit/optiga-trust-m/externals/mbedtls/library\ecp.c ****  *     ePrint Archive, 2004, vol. 2004, p. 342.
  41:C:/Workspace/DAVE-4.4.2-64Bit/optiga-trust-m/externals/mbedtls/library\ecp.c ****  *     <http://eprint.iacr.org/2004/342.pdf>
  42:C:/Workspace/DAVE-4.4.2-64Bit/optiga-trust-m/externals/mbedtls/library\ecp.c ****  */
  43:C:/Workspace/DAVE-4.4.2-64Bit/optiga-trust-m/externals/mbedtls/library\ecp.c **** 
  44:C:/Workspace/DAVE-4.4.2-64Bit/optiga-trust-m/externals/mbedtls/library\ecp.c **** #if !defined(MBEDTLS_CONFIG_FILE)
  45:C:/Workspace/DAVE-4.4.2-64Bit/optiga-trust-m/externals/mbedtls/library\ecp.c **** #include "mbedtls/config.h"
  46:C:/Workspace/DAVE-4.4.2-64Bit/optiga-trust-m/externals/mbedtls/library\ecp.c **** #else
  47:C:/Workspace/DAVE-4.4.2-64Bit/optiga-trust-m/externals/mbedtls/library\ecp.c **** #include MBEDTLS_CONFIG_FILE
  48:C:/Workspace/DAVE-4.4.2-64Bit/optiga-trust-m/externals/mbedtls/library\ecp.c **** #endif
  49:C:/Workspace/DAVE-4.4.2-64Bit/optiga-trust-m/externals/mbedtls/library\ecp.c **** 
  50:C:/Workspace/DAVE-4.4.2-64Bit/optiga-trust-m/externals/mbedtls/library\ecp.c **** /**
  51:C:/Workspace/DAVE-4.4.2-64Bit/optiga-trust-m/externals/mbedtls/library\ecp.c ****  * \brief Function level alternative implementation.
  52:C:/Workspace/DAVE-4.4.2-64Bit/optiga-trust-m/externals/mbedtls/library\ecp.c ****  *
  53:C:/Workspace/DAVE-4.4.2-64Bit/optiga-trust-m/externals/mbedtls/library\ecp.c ****  * The MBEDTLS_ECP_INTERNAL_ALT macro enables alternative implementations to
  54:C:/Workspace/DAVE-4.4.2-64Bit/optiga-trust-m/externals/mbedtls/library\ecp.c ****  * replace certain functions in this module. The alternative implementations are
  55:C:/Workspace/DAVE-4.4.2-64Bit/optiga-trust-m/externals/mbedtls/library\ecp.c ****  * typically hardware accelerators and need to activate the hardware before the
  56:C:/Workspace/DAVE-4.4.2-64Bit/optiga-trust-m/externals/mbedtls/library\ecp.c ****  * computation starts and deactivate it after it finishes. The
  57:C:/Workspace/DAVE-4.4.2-64Bit/optiga-trust-m/externals/mbedtls/library\ecp.c ****  * mbedtls_internal_ecp_init() and mbedtls_internal_ecp_free() functions serve
  58:C:/Workspace/DAVE-4.4.2-64Bit/optiga-trust-m/externals/mbedtls/library\ecp.c ****  * this purpose.
  59:C:/Workspace/DAVE-4.4.2-64Bit/optiga-trust-m/externals/mbedtls/library\ecp.c ****  *
  60:C:/Workspace/DAVE-4.4.2-64Bit/optiga-trust-m/externals/mbedtls/library\ecp.c ****  * To preserve the correct functionality the following conditions must hold:
  61:C:/Workspace/DAVE-4.4.2-64Bit/optiga-trust-m/externals/mbedtls/library\ecp.c ****  *
  62:C:/Workspace/DAVE-4.4.2-64Bit/optiga-trust-m/externals/mbedtls/library\ecp.c ****  * - The alternative implementation must be activated by
  63:C:/Workspace/DAVE-4.4.2-64Bit/optiga-trust-m/externals/mbedtls/library\ecp.c ****  *   mbedtls_internal_ecp_init() before any of the replaceable functions is
  64:C:/Workspace/DAVE-4.4.2-64Bit/optiga-trust-m/externals/mbedtls/library\ecp.c ****  *   called.
  65:C:/Workspace/DAVE-4.4.2-64Bit/optiga-trust-m/externals/mbedtls/library\ecp.c ****  * - mbedtls_internal_ecp_free() must \b only be called when the alternative
  66:C:/Workspace/DAVE-4.4.2-64Bit/optiga-trust-m/externals/mbedtls/library\ecp.c ****  *   implementation is activated.
  67:C:/Workspace/DAVE-4.4.2-64Bit/optiga-trust-m/externals/mbedtls/library\ecp.c ****  * - mbedtls_internal_ecp_init() must \b not be called when the alternative
  68:C:/Workspace/DAVE-4.4.2-64Bit/optiga-trust-m/externals/mbedtls/library\ecp.c ****  *   implementation is activated.
  69:C:/Workspace/DAVE-4.4.2-64Bit/optiga-trust-m/externals/mbedtls/library\ecp.c ****  * - Public functions must not return while the alternative implementation is
  70:C:/Workspace/DAVE-4.4.2-64Bit/optiga-trust-m/externals/mbedtls/library\ecp.c ****  *   activated.
  71:C:/Workspace/DAVE-4.4.2-64Bit/optiga-trust-m/externals/mbedtls/library\ecp.c ****  * - Replaceable functions are guarded by \c MBEDTLS_ECP_XXX_ALT macros and
  72:C:/Workspace/DAVE-4.4.2-64Bit/optiga-trust-m/externals/mbedtls/library\ecp.c ****  *   before calling them an \code if( mbedtls_internal_ecp_grp_capable( grp ) )
  73:C:/Workspace/DAVE-4.4.2-64Bit/optiga-trust-m/externals/mbedtls/library\ecp.c ****  *   \endcode ensures that the alternative implementation supports the current
  74:C:/Workspace/DAVE-4.4.2-64Bit/optiga-trust-m/externals/mbedtls/library\ecp.c ****  *   group.
  75:C:/Workspace/DAVE-4.4.2-64Bit/optiga-trust-m/externals/mbedtls/library\ecp.c ****  */
  76:C:/Workspace/DAVE-4.4.2-64Bit/optiga-trust-m/externals/mbedtls/library\ecp.c **** #if defined(MBEDTLS_ECP_INTERNAL_ALT)
  77:C:/Workspace/DAVE-4.4.2-64Bit/optiga-trust-m/externals/mbedtls/library\ecp.c **** #endif
  78:C:/Workspace/DAVE-4.4.2-64Bit/optiga-trust-m/externals/mbedtls/library\ecp.c **** 
  79:C:/Workspace/DAVE-4.4.2-64Bit/optiga-trust-m/externals/mbedtls/library\ecp.c **** #if defined(MBEDTLS_ECP_C)
  80:C:/Workspace/DAVE-4.4.2-64Bit/optiga-trust-m/externals/mbedtls/library\ecp.c **** 
  81:C:/Workspace/DAVE-4.4.2-64Bit/optiga-trust-m/externals/mbedtls/library\ecp.c **** #include "mbedtls/ecp.h"
  82:C:/Workspace/DAVE-4.4.2-64Bit/optiga-trust-m/externals/mbedtls/library\ecp.c **** #include "mbedtls/threading.h"
  83:C:/Workspace/DAVE-4.4.2-64Bit/optiga-trust-m/externals/mbedtls/library\ecp.c **** #include "mbedtls/platform_util.h"
  84:C:/Workspace/DAVE-4.4.2-64Bit/optiga-trust-m/externals/mbedtls/library\ecp.c **** 
  85:C:/Workspace/DAVE-4.4.2-64Bit/optiga-trust-m/externals/mbedtls/library\ecp.c **** #include <string.h>
  86:C:/Workspace/DAVE-4.4.2-64Bit/optiga-trust-m/externals/mbedtls/library\ecp.c **** 
  87:C:/Workspace/DAVE-4.4.2-64Bit/optiga-trust-m/externals/mbedtls/library\ecp.c **** #if !defined(MBEDTLS_ECP_ALT)
  88:C:/Workspace/DAVE-4.4.2-64Bit/optiga-trust-m/externals/mbedtls/library\ecp.c **** 
  89:C:/Workspace/DAVE-4.4.2-64Bit/optiga-trust-m/externals/mbedtls/library\ecp.c **** /* Parameter validation macros based on platform_util.h */
  90:C:/Workspace/DAVE-4.4.2-64Bit/optiga-trust-m/externals/mbedtls/library\ecp.c **** #define ECP_VALIDATE_RET( cond )    \
  91:C:/Workspace/DAVE-4.4.2-64Bit/optiga-trust-m/externals/mbedtls/library\ecp.c ****     MBEDTLS_INTERNAL_VALIDATE_RET( cond, MBEDTLS_ERR_ECP_BAD_INPUT_DATA )
  92:C:/Workspace/DAVE-4.4.2-64Bit/optiga-trust-m/externals/mbedtls/library\ecp.c **** #define ECP_VALIDATE( cond )        \
  93:C:/Workspace/DAVE-4.4.2-64Bit/optiga-trust-m/externals/mbedtls/library\ecp.c ****     MBEDTLS_INTERNAL_VALIDATE( cond )
  94:C:/Workspace/DAVE-4.4.2-64Bit/optiga-trust-m/externals/mbedtls/library\ecp.c **** 
  95:C:/Workspace/DAVE-4.4.2-64Bit/optiga-trust-m/externals/mbedtls/library\ecp.c **** #if defined(MBEDTLS_PLATFORM_C)
  96:C:/Workspace/DAVE-4.4.2-64Bit/optiga-trust-m/externals/mbedtls/library\ecp.c **** #include "mbedtls/platform.h"
  97:C:/Workspace/DAVE-4.4.2-64Bit/optiga-trust-m/externals/mbedtls/library\ecp.c **** #else
  98:C:/Workspace/DAVE-4.4.2-64Bit/optiga-trust-m/externals/mbedtls/library\ecp.c **** #include <stdlib.h>
  99:C:/Workspace/DAVE-4.4.2-64Bit/optiga-trust-m/externals/mbedtls/library\ecp.c **** #include <stdio.h>
 100:C:/Workspace/DAVE-4.4.2-64Bit/optiga-trust-m/externals/mbedtls/library\ecp.c **** #define mbedtls_printf     printf
 101:C:/Workspace/DAVE-4.4.2-64Bit/optiga-trust-m/externals/mbedtls/library\ecp.c **** #define mbedtls_calloc    calloc
 102:C:/Workspace/DAVE-4.4.2-64Bit/optiga-trust-m/externals/mbedtls/library\ecp.c **** #define mbedtls_free       free
 103:C:/Workspace/DAVE-4.4.2-64Bit/optiga-trust-m/externals/mbedtls/library\ecp.c **** #endif
 104:C:/Workspace/DAVE-4.4.2-64Bit/optiga-trust-m/externals/mbedtls/library\ecp.c **** 
 105:C:/Workspace/DAVE-4.4.2-64Bit/optiga-trust-m/externals/mbedtls/library\ecp.c **** #include "mbedtls/ecp_internal.h"
 106:C:/Workspace/DAVE-4.4.2-64Bit/optiga-trust-m/externals/mbedtls/library\ecp.c **** 
 107:C:/Workspace/DAVE-4.4.2-64Bit/optiga-trust-m/externals/mbedtls/library\ecp.c **** #if ( defined(__ARMCC_VERSION) || defined(_MSC_VER) ) && \
 108:C:/Workspace/DAVE-4.4.2-64Bit/optiga-trust-m/externals/mbedtls/library\ecp.c ****     !defined(inline) && !defined(__cplusplus)
 109:C:/Workspace/DAVE-4.4.2-64Bit/optiga-trust-m/externals/mbedtls/library\ecp.c **** #define inline __inline
 110:C:/Workspace/DAVE-4.4.2-64Bit/optiga-trust-m/externals/mbedtls/library\ecp.c **** #endif
 111:C:/Workspace/DAVE-4.4.2-64Bit/optiga-trust-m/externals/mbedtls/library\ecp.c **** 
 112:C:/Workspace/DAVE-4.4.2-64Bit/optiga-trust-m/externals/mbedtls/library\ecp.c **** #if defined(MBEDTLS_SELF_TEST)
 113:C:/Workspace/DAVE-4.4.2-64Bit/optiga-trust-m/externals/mbedtls/library\ecp.c **** /*
 114:C:/Workspace/DAVE-4.4.2-64Bit/optiga-trust-m/externals/mbedtls/library\ecp.c ****  * Counts of point addition and doubling, and field multiplications.
 115:C:/Workspace/DAVE-4.4.2-64Bit/optiga-trust-m/externals/mbedtls/library\ecp.c ****  * Used to test resistance of point multiplication to simple timing attacks.
 116:C:/Workspace/DAVE-4.4.2-64Bit/optiga-trust-m/externals/mbedtls/library\ecp.c ****  */
 117:C:/Workspace/DAVE-4.4.2-64Bit/optiga-trust-m/externals/mbedtls/library\ecp.c **** static unsigned long add_count, dbl_count, mul_count;
 118:C:/Workspace/DAVE-4.4.2-64Bit/optiga-trust-m/externals/mbedtls/library\ecp.c **** #endif
 119:C:/Workspace/DAVE-4.4.2-64Bit/optiga-trust-m/externals/mbedtls/library\ecp.c **** 
 120:C:/Workspace/DAVE-4.4.2-64Bit/optiga-trust-m/externals/mbedtls/library\ecp.c **** #if defined(MBEDTLS_ECP_RESTARTABLE)
 121:C:/Workspace/DAVE-4.4.2-64Bit/optiga-trust-m/externals/mbedtls/library\ecp.c **** /*
 122:C:/Workspace/DAVE-4.4.2-64Bit/optiga-trust-m/externals/mbedtls/library\ecp.c ****  * Maximum number of "basic operations" to be done in a row.
 123:C:/Workspace/DAVE-4.4.2-64Bit/optiga-trust-m/externals/mbedtls/library\ecp.c ****  *
 124:C:/Workspace/DAVE-4.4.2-64Bit/optiga-trust-m/externals/mbedtls/library\ecp.c ****  * Default value 0 means that ECC operations will not yield.
 125:C:/Workspace/DAVE-4.4.2-64Bit/optiga-trust-m/externals/mbedtls/library\ecp.c ****  * Note that regardless of the value of ecp_max_ops, always at
 126:C:/Workspace/DAVE-4.4.2-64Bit/optiga-trust-m/externals/mbedtls/library\ecp.c ****  * least one step is performed before yielding.
 127:C:/Workspace/DAVE-4.4.2-64Bit/optiga-trust-m/externals/mbedtls/library\ecp.c ****  *
 128:C:/Workspace/DAVE-4.4.2-64Bit/optiga-trust-m/externals/mbedtls/library\ecp.c ****  * Setting ecp_max_ops=1 can be suitable for testing purposes
 129:C:/Workspace/DAVE-4.4.2-64Bit/optiga-trust-m/externals/mbedtls/library\ecp.c ****  * as it will interrupt computation at all possible points.
 130:C:/Workspace/DAVE-4.4.2-64Bit/optiga-trust-m/externals/mbedtls/library\ecp.c ****  */
 131:C:/Workspace/DAVE-4.4.2-64Bit/optiga-trust-m/externals/mbedtls/library\ecp.c **** static unsigned ecp_max_ops = 0;
 132:C:/Workspace/DAVE-4.4.2-64Bit/optiga-trust-m/externals/mbedtls/library\ecp.c **** 
 133:C:/Workspace/DAVE-4.4.2-64Bit/optiga-trust-m/externals/mbedtls/library\ecp.c **** /*
 134:C:/Workspace/DAVE-4.4.2-64Bit/optiga-trust-m/externals/mbedtls/library\ecp.c ****  * Set ecp_max_ops
 135:C:/Workspace/DAVE-4.4.2-64Bit/optiga-trust-m/externals/mbedtls/library\ecp.c ****  */
 136:C:/Workspace/DAVE-4.4.2-64Bit/optiga-trust-m/externals/mbedtls/library\ecp.c **** void mbedtls_ecp_set_max_ops( unsigned max_ops )
 137:C:/Workspace/DAVE-4.4.2-64Bit/optiga-trust-m/externals/mbedtls/library\ecp.c **** {
 138:C:/Workspace/DAVE-4.4.2-64Bit/optiga-trust-m/externals/mbedtls/library\ecp.c ****     ecp_max_ops = max_ops;
 139:C:/Workspace/DAVE-4.4.2-64Bit/optiga-trust-m/externals/mbedtls/library\ecp.c **** }
 140:C:/Workspace/DAVE-4.4.2-64Bit/optiga-trust-m/externals/mbedtls/library\ecp.c **** 
 141:C:/Workspace/DAVE-4.4.2-64Bit/optiga-trust-m/externals/mbedtls/library\ecp.c **** /*
 142:C:/Workspace/DAVE-4.4.2-64Bit/optiga-trust-m/externals/mbedtls/library\ecp.c ****  * Check if restart is enabled
 143:C:/Workspace/DAVE-4.4.2-64Bit/optiga-trust-m/externals/mbedtls/library\ecp.c ****  */
 144:C:/Workspace/DAVE-4.4.2-64Bit/optiga-trust-m/externals/mbedtls/library\ecp.c **** int mbedtls_ecp_restart_is_enabled( void )
 145:C:/Workspace/DAVE-4.4.2-64Bit/optiga-trust-m/externals/mbedtls/library\ecp.c **** {
 146:C:/Workspace/DAVE-4.4.2-64Bit/optiga-trust-m/externals/mbedtls/library\ecp.c ****     return( ecp_max_ops != 0 );
 147:C:/Workspace/DAVE-4.4.2-64Bit/optiga-trust-m/externals/mbedtls/library\ecp.c **** }
 148:C:/Workspace/DAVE-4.4.2-64Bit/optiga-trust-m/externals/mbedtls/library\ecp.c **** 
 149:C:/Workspace/DAVE-4.4.2-64Bit/optiga-trust-m/externals/mbedtls/library\ecp.c **** /*
 150:C:/Workspace/DAVE-4.4.2-64Bit/optiga-trust-m/externals/mbedtls/library\ecp.c ****  * Restart sub-context for ecp_mul_comb()
 151:C:/Workspace/DAVE-4.4.2-64Bit/optiga-trust-m/externals/mbedtls/library\ecp.c ****  */
 152:C:/Workspace/DAVE-4.4.2-64Bit/optiga-trust-m/externals/mbedtls/library\ecp.c **** struct mbedtls_ecp_restart_mul
 153:C:/Workspace/DAVE-4.4.2-64Bit/optiga-trust-m/externals/mbedtls/library\ecp.c **** {
 154:C:/Workspace/DAVE-4.4.2-64Bit/optiga-trust-m/externals/mbedtls/library\ecp.c ****     mbedtls_ecp_point R;    /* current intermediate result                  */
 155:C:/Workspace/DAVE-4.4.2-64Bit/optiga-trust-m/externals/mbedtls/library\ecp.c ****     size_t i;               /* current index in various loops, 0 outside    */
 156:C:/Workspace/DAVE-4.4.2-64Bit/optiga-trust-m/externals/mbedtls/library\ecp.c ****     mbedtls_ecp_point *T;   /* table for precomputed points                 */
 157:C:/Workspace/DAVE-4.4.2-64Bit/optiga-trust-m/externals/mbedtls/library\ecp.c ****     unsigned char T_size;   /* number of points in table T                  */
 158:C:/Workspace/DAVE-4.4.2-64Bit/optiga-trust-m/externals/mbedtls/library\ecp.c ****     enum {                  /* what were we doing last time we returned?    */
 159:C:/Workspace/DAVE-4.4.2-64Bit/optiga-trust-m/externals/mbedtls/library\ecp.c ****         ecp_rsm_init = 0,       /* nothing so far, dummy initial state      */
 160:C:/Workspace/DAVE-4.4.2-64Bit/optiga-trust-m/externals/mbedtls/library\ecp.c ****         ecp_rsm_pre_dbl,        /* precompute 2^n multiples                 */
 161:C:/Workspace/DAVE-4.4.2-64Bit/optiga-trust-m/externals/mbedtls/library\ecp.c ****         ecp_rsm_pre_norm_dbl,   /* normalize precomputed 2^n multiples      */
 162:C:/Workspace/DAVE-4.4.2-64Bit/optiga-trust-m/externals/mbedtls/library\ecp.c ****         ecp_rsm_pre_add,        /* precompute remaining points by adding    */
 163:C:/Workspace/DAVE-4.4.2-64Bit/optiga-trust-m/externals/mbedtls/library\ecp.c ****         ecp_rsm_pre_norm_add,   /* normalize all precomputed points         */
 164:C:/Workspace/DAVE-4.4.2-64Bit/optiga-trust-m/externals/mbedtls/library\ecp.c ****         ecp_rsm_comb_core,      /* ecp_mul_comb_core()                      */
 165:C:/Workspace/DAVE-4.4.2-64Bit/optiga-trust-m/externals/mbedtls/library\ecp.c ****         ecp_rsm_final_norm,     /* do the final normalization               */
 166:C:/Workspace/DAVE-4.4.2-64Bit/optiga-trust-m/externals/mbedtls/library\ecp.c ****     } state;
 167:C:/Workspace/DAVE-4.4.2-64Bit/optiga-trust-m/externals/mbedtls/library\ecp.c **** };
 168:C:/Workspace/DAVE-4.4.2-64Bit/optiga-trust-m/externals/mbedtls/library\ecp.c **** 
 169:C:/Workspace/DAVE-4.4.2-64Bit/optiga-trust-m/externals/mbedtls/library\ecp.c **** /*
 170:C:/Workspace/DAVE-4.4.2-64Bit/optiga-trust-m/externals/mbedtls/library\ecp.c ****  * Init restart_mul sub-context
 171:C:/Workspace/DAVE-4.4.2-64Bit/optiga-trust-m/externals/mbedtls/library\ecp.c ****  */
 172:C:/Workspace/DAVE-4.4.2-64Bit/optiga-trust-m/externals/mbedtls/library\ecp.c **** static void ecp_restart_rsm_init( mbedtls_ecp_restart_mul_ctx *ctx )
 173:C:/Workspace/DAVE-4.4.2-64Bit/optiga-trust-m/externals/mbedtls/library\ecp.c **** {
 174:C:/Workspace/DAVE-4.4.2-64Bit/optiga-trust-m/externals/mbedtls/library\ecp.c ****     mbedtls_ecp_point_init( &ctx->R );
 175:C:/Workspace/DAVE-4.4.2-64Bit/optiga-trust-m/externals/mbedtls/library\ecp.c ****     ctx->i = 0;
 176:C:/Workspace/DAVE-4.4.2-64Bit/optiga-trust-m/externals/mbedtls/library\ecp.c ****     ctx->T = NULL;
 177:C:/Workspace/DAVE-4.4.2-64Bit/optiga-trust-m/externals/mbedtls/library\ecp.c ****     ctx->T_size = 0;
 178:C:/Workspace/DAVE-4.4.2-64Bit/optiga-trust-m/externals/mbedtls/library\ecp.c ****     ctx->state = ecp_rsm_init;
 179:C:/Workspace/DAVE-4.4.2-64Bit/optiga-trust-m/externals/mbedtls/library\ecp.c **** }
 180:C:/Workspace/DAVE-4.4.2-64Bit/optiga-trust-m/externals/mbedtls/library\ecp.c **** 
 181:C:/Workspace/DAVE-4.4.2-64Bit/optiga-trust-m/externals/mbedtls/library\ecp.c **** /*
 182:C:/Workspace/DAVE-4.4.2-64Bit/optiga-trust-m/externals/mbedtls/library\ecp.c ****  * Free the components of a restart_mul sub-context
 183:C:/Workspace/DAVE-4.4.2-64Bit/optiga-trust-m/externals/mbedtls/library\ecp.c ****  */
 184:C:/Workspace/DAVE-4.4.2-64Bit/optiga-trust-m/externals/mbedtls/library\ecp.c **** static void ecp_restart_rsm_free( mbedtls_ecp_restart_mul_ctx *ctx )
 185:C:/Workspace/DAVE-4.4.2-64Bit/optiga-trust-m/externals/mbedtls/library\ecp.c **** {
 186:C:/Workspace/DAVE-4.4.2-64Bit/optiga-trust-m/externals/mbedtls/library\ecp.c ****     unsigned char i;
 187:C:/Workspace/DAVE-4.4.2-64Bit/optiga-trust-m/externals/mbedtls/library\ecp.c **** 
 188:C:/Workspace/DAVE-4.4.2-64Bit/optiga-trust-m/externals/mbedtls/library\ecp.c ****     if( ctx == NULL )
 189:C:/Workspace/DAVE-4.4.2-64Bit/optiga-trust-m/externals/mbedtls/library\ecp.c ****         return;
 190:C:/Workspace/DAVE-4.4.2-64Bit/optiga-trust-m/externals/mbedtls/library\ecp.c **** 
 191:C:/Workspace/DAVE-4.4.2-64Bit/optiga-trust-m/externals/mbedtls/library\ecp.c ****     mbedtls_ecp_point_free( &ctx->R );
 192:C:/Workspace/DAVE-4.4.2-64Bit/optiga-trust-m/externals/mbedtls/library\ecp.c **** 
 193:C:/Workspace/DAVE-4.4.2-64Bit/optiga-trust-m/externals/mbedtls/library\ecp.c ****     if( ctx->T != NULL )
 194:C:/Workspace/DAVE-4.4.2-64Bit/optiga-trust-m/externals/mbedtls/library\ecp.c ****     {
 195:C:/Workspace/DAVE-4.4.2-64Bit/optiga-trust-m/externals/mbedtls/library\ecp.c ****         for( i = 0; i < ctx->T_size; i++ )
 196:C:/Workspace/DAVE-4.4.2-64Bit/optiga-trust-m/externals/mbedtls/library\ecp.c ****             mbedtls_ecp_point_free( ctx->T + i );
 197:C:/Workspace/DAVE-4.4.2-64Bit/optiga-trust-m/externals/mbedtls/library\ecp.c ****         mbedtls_free( ctx->T );
 198:C:/Workspace/DAVE-4.4.2-64Bit/optiga-trust-m/externals/mbedtls/library\ecp.c ****     }
 199:C:/Workspace/DAVE-4.4.2-64Bit/optiga-trust-m/externals/mbedtls/library\ecp.c **** 
 200:C:/Workspace/DAVE-4.4.2-64Bit/optiga-trust-m/externals/mbedtls/library\ecp.c ****     ecp_restart_rsm_init( ctx );
 201:C:/Workspace/DAVE-4.4.2-64Bit/optiga-trust-m/externals/mbedtls/library\ecp.c **** }
 202:C:/Workspace/DAVE-4.4.2-64Bit/optiga-trust-m/externals/mbedtls/library\ecp.c **** 
 203:C:/Workspace/DAVE-4.4.2-64Bit/optiga-trust-m/externals/mbedtls/library\ecp.c **** /*
 204:C:/Workspace/DAVE-4.4.2-64Bit/optiga-trust-m/externals/mbedtls/library\ecp.c ****  * Restart context for ecp_muladd()
 205:C:/Workspace/DAVE-4.4.2-64Bit/optiga-trust-m/externals/mbedtls/library\ecp.c ****  */
 206:C:/Workspace/DAVE-4.4.2-64Bit/optiga-trust-m/externals/mbedtls/library\ecp.c **** struct mbedtls_ecp_restart_muladd
 207:C:/Workspace/DAVE-4.4.2-64Bit/optiga-trust-m/externals/mbedtls/library\ecp.c **** {
 208:C:/Workspace/DAVE-4.4.2-64Bit/optiga-trust-m/externals/mbedtls/library\ecp.c ****     mbedtls_ecp_point mP;       /* mP value                             */
 209:C:/Workspace/DAVE-4.4.2-64Bit/optiga-trust-m/externals/mbedtls/library\ecp.c ****     mbedtls_ecp_point R;        /* R intermediate result                */
 210:C:/Workspace/DAVE-4.4.2-64Bit/optiga-trust-m/externals/mbedtls/library\ecp.c ****     enum {                      /* what should we do next?              */
 211:C:/Workspace/DAVE-4.4.2-64Bit/optiga-trust-m/externals/mbedtls/library\ecp.c ****         ecp_rsma_mul1 = 0,      /* first multiplication                 */
 212:C:/Workspace/DAVE-4.4.2-64Bit/optiga-trust-m/externals/mbedtls/library\ecp.c ****         ecp_rsma_mul2,          /* second multiplication                */
 213:C:/Workspace/DAVE-4.4.2-64Bit/optiga-trust-m/externals/mbedtls/library\ecp.c ****         ecp_rsma_add,           /* addition                             */
 214:C:/Workspace/DAVE-4.4.2-64Bit/optiga-trust-m/externals/mbedtls/library\ecp.c ****         ecp_rsma_norm,          /* normalization                        */
 215:C:/Workspace/DAVE-4.4.2-64Bit/optiga-trust-m/externals/mbedtls/library\ecp.c ****     } state;
 216:C:/Workspace/DAVE-4.4.2-64Bit/optiga-trust-m/externals/mbedtls/library\ecp.c **** };
 217:C:/Workspace/DAVE-4.4.2-64Bit/optiga-trust-m/externals/mbedtls/library\ecp.c **** 
 218:C:/Workspace/DAVE-4.4.2-64Bit/optiga-trust-m/externals/mbedtls/library\ecp.c **** /*
 219:C:/Workspace/DAVE-4.4.2-64Bit/optiga-trust-m/externals/mbedtls/library\ecp.c ****  * Init restart_muladd sub-context
 220:C:/Workspace/DAVE-4.4.2-64Bit/optiga-trust-m/externals/mbedtls/library\ecp.c ****  */
 221:C:/Workspace/DAVE-4.4.2-64Bit/optiga-trust-m/externals/mbedtls/library\ecp.c **** static void ecp_restart_ma_init( mbedtls_ecp_restart_muladd_ctx *ctx )
 222:C:/Workspace/DAVE-4.4.2-64Bit/optiga-trust-m/externals/mbedtls/library\ecp.c **** {
 223:C:/Workspace/DAVE-4.4.2-64Bit/optiga-trust-m/externals/mbedtls/library\ecp.c ****     mbedtls_ecp_point_init( &ctx->mP );
 224:C:/Workspace/DAVE-4.4.2-64Bit/optiga-trust-m/externals/mbedtls/library\ecp.c ****     mbedtls_ecp_point_init( &ctx->R );
 225:C:/Workspace/DAVE-4.4.2-64Bit/optiga-trust-m/externals/mbedtls/library\ecp.c ****     ctx->state = ecp_rsma_mul1;
 226:C:/Workspace/DAVE-4.4.2-64Bit/optiga-trust-m/externals/mbedtls/library\ecp.c **** }
 227:C:/Workspace/DAVE-4.4.2-64Bit/optiga-trust-m/externals/mbedtls/library\ecp.c **** 
 228:C:/Workspace/DAVE-4.4.2-64Bit/optiga-trust-m/externals/mbedtls/library\ecp.c **** /*
 229:C:/Workspace/DAVE-4.4.2-64Bit/optiga-trust-m/externals/mbedtls/library\ecp.c ****  * Free the components of a restart_muladd sub-context
 230:C:/Workspace/DAVE-4.4.2-64Bit/optiga-trust-m/externals/mbedtls/library\ecp.c ****  */
 231:C:/Workspace/DAVE-4.4.2-64Bit/optiga-trust-m/externals/mbedtls/library\ecp.c **** static void ecp_restart_ma_free( mbedtls_ecp_restart_muladd_ctx *ctx )
 232:C:/Workspace/DAVE-4.4.2-64Bit/optiga-trust-m/externals/mbedtls/library\ecp.c **** {
 233:C:/Workspace/DAVE-4.4.2-64Bit/optiga-trust-m/externals/mbedtls/library\ecp.c ****     if( ctx == NULL )
 234:C:/Workspace/DAVE-4.4.2-64Bit/optiga-trust-m/externals/mbedtls/library\ecp.c ****         return;
 235:C:/Workspace/DAVE-4.4.2-64Bit/optiga-trust-m/externals/mbedtls/library\ecp.c **** 
 236:C:/Workspace/DAVE-4.4.2-64Bit/optiga-trust-m/externals/mbedtls/library\ecp.c ****     mbedtls_ecp_point_free( &ctx->mP );
 237:C:/Workspace/DAVE-4.4.2-64Bit/optiga-trust-m/externals/mbedtls/library\ecp.c ****     mbedtls_ecp_point_free( &ctx->R );
 238:C:/Workspace/DAVE-4.4.2-64Bit/optiga-trust-m/externals/mbedtls/library\ecp.c **** 
 239:C:/Workspace/DAVE-4.4.2-64Bit/optiga-trust-m/externals/mbedtls/library\ecp.c ****     ecp_restart_ma_init( ctx );
 240:C:/Workspace/DAVE-4.4.2-64Bit/optiga-trust-m/externals/mbedtls/library\ecp.c **** }
 241:C:/Workspace/DAVE-4.4.2-64Bit/optiga-trust-m/externals/mbedtls/library\ecp.c **** 
 242:C:/Workspace/DAVE-4.4.2-64Bit/optiga-trust-m/externals/mbedtls/library\ecp.c **** /*
 243:C:/Workspace/DAVE-4.4.2-64Bit/optiga-trust-m/externals/mbedtls/library\ecp.c ****  * Initialize a restart context
 244:C:/Workspace/DAVE-4.4.2-64Bit/optiga-trust-m/externals/mbedtls/library\ecp.c ****  */
 245:C:/Workspace/DAVE-4.4.2-64Bit/optiga-trust-m/externals/mbedtls/library\ecp.c **** void mbedtls_ecp_restart_init( mbedtls_ecp_restart_ctx *ctx )
 246:C:/Workspace/DAVE-4.4.2-64Bit/optiga-trust-m/externals/mbedtls/library\ecp.c **** {
 247:C:/Workspace/DAVE-4.4.2-64Bit/optiga-trust-m/externals/mbedtls/library\ecp.c ****     ECP_VALIDATE( ctx != NULL );
 248:C:/Workspace/DAVE-4.4.2-64Bit/optiga-trust-m/externals/mbedtls/library\ecp.c ****     ctx->ops_done = 0;
 249:C:/Workspace/DAVE-4.4.2-64Bit/optiga-trust-m/externals/mbedtls/library\ecp.c ****     ctx->depth = 0;
 250:C:/Workspace/DAVE-4.4.2-64Bit/optiga-trust-m/externals/mbedtls/library\ecp.c ****     ctx->rsm = NULL;
 251:C:/Workspace/DAVE-4.4.2-64Bit/optiga-trust-m/externals/mbedtls/library\ecp.c ****     ctx->ma = NULL;
 252:C:/Workspace/DAVE-4.4.2-64Bit/optiga-trust-m/externals/mbedtls/library\ecp.c **** }
 253:C:/Workspace/DAVE-4.4.2-64Bit/optiga-trust-m/externals/mbedtls/library\ecp.c **** 
 254:C:/Workspace/DAVE-4.4.2-64Bit/optiga-trust-m/externals/mbedtls/library\ecp.c **** /*
 255:C:/Workspace/DAVE-4.4.2-64Bit/optiga-trust-m/externals/mbedtls/library\ecp.c ****  * Free the components of a restart context
 256:C:/Workspace/DAVE-4.4.2-64Bit/optiga-trust-m/externals/mbedtls/library\ecp.c ****  */
 257:C:/Workspace/DAVE-4.4.2-64Bit/optiga-trust-m/externals/mbedtls/library\ecp.c **** void mbedtls_ecp_restart_free( mbedtls_ecp_restart_ctx *ctx )
 258:C:/Workspace/DAVE-4.4.2-64Bit/optiga-trust-m/externals/mbedtls/library\ecp.c **** {
 259:C:/Workspace/DAVE-4.4.2-64Bit/optiga-trust-m/externals/mbedtls/library\ecp.c ****     if( ctx == NULL )
 260:C:/Workspace/DAVE-4.4.2-64Bit/optiga-trust-m/externals/mbedtls/library\ecp.c ****         return;
 261:C:/Workspace/DAVE-4.4.2-64Bit/optiga-trust-m/externals/mbedtls/library\ecp.c **** 
 262:C:/Workspace/DAVE-4.4.2-64Bit/optiga-trust-m/externals/mbedtls/library\ecp.c ****     ecp_restart_rsm_free( ctx->rsm );
 263:C:/Workspace/DAVE-4.4.2-64Bit/optiga-trust-m/externals/mbedtls/library\ecp.c ****     mbedtls_free( ctx->rsm );
 264:C:/Workspace/DAVE-4.4.2-64Bit/optiga-trust-m/externals/mbedtls/library\ecp.c **** 
 265:C:/Workspace/DAVE-4.4.2-64Bit/optiga-trust-m/externals/mbedtls/library\ecp.c ****     ecp_restart_ma_free( ctx->ma );
 266:C:/Workspace/DAVE-4.4.2-64Bit/optiga-trust-m/externals/mbedtls/library\ecp.c ****     mbedtls_free( ctx->ma );
 267:C:/Workspace/DAVE-4.4.2-64Bit/optiga-trust-m/externals/mbedtls/library\ecp.c **** 
 268:C:/Workspace/DAVE-4.4.2-64Bit/optiga-trust-m/externals/mbedtls/library\ecp.c ****     mbedtls_ecp_restart_init( ctx );
 269:C:/Workspace/DAVE-4.4.2-64Bit/optiga-trust-m/externals/mbedtls/library\ecp.c **** }
 270:C:/Workspace/DAVE-4.4.2-64Bit/optiga-trust-m/externals/mbedtls/library\ecp.c **** 
 271:C:/Workspace/DAVE-4.4.2-64Bit/optiga-trust-m/externals/mbedtls/library\ecp.c **** /*
 272:C:/Workspace/DAVE-4.4.2-64Bit/optiga-trust-m/externals/mbedtls/library\ecp.c ****  * Check if we can do the next step
 273:C:/Workspace/DAVE-4.4.2-64Bit/optiga-trust-m/externals/mbedtls/library\ecp.c ****  */
 274:C:/Workspace/DAVE-4.4.2-64Bit/optiga-trust-m/externals/mbedtls/library\ecp.c **** int mbedtls_ecp_check_budget( const mbedtls_ecp_group *grp,
 275:C:/Workspace/DAVE-4.4.2-64Bit/optiga-trust-m/externals/mbedtls/library\ecp.c ****                               mbedtls_ecp_restart_ctx *rs_ctx,
 276:C:/Workspace/DAVE-4.4.2-64Bit/optiga-trust-m/externals/mbedtls/library\ecp.c ****                               unsigned ops )
 277:C:/Workspace/DAVE-4.4.2-64Bit/optiga-trust-m/externals/mbedtls/library\ecp.c **** {
 278:C:/Workspace/DAVE-4.4.2-64Bit/optiga-trust-m/externals/mbedtls/library\ecp.c ****     ECP_VALIDATE_RET( grp != NULL );
 279:C:/Workspace/DAVE-4.4.2-64Bit/optiga-trust-m/externals/mbedtls/library\ecp.c **** 
 280:C:/Workspace/DAVE-4.4.2-64Bit/optiga-trust-m/externals/mbedtls/library\ecp.c ****     if( rs_ctx != NULL && ecp_max_ops != 0 )
 281:C:/Workspace/DAVE-4.4.2-64Bit/optiga-trust-m/externals/mbedtls/library\ecp.c ****     {
 282:C:/Workspace/DAVE-4.4.2-64Bit/optiga-trust-m/externals/mbedtls/library\ecp.c ****         /* scale depending on curve size: the chosen reference is 256-bit,
 283:C:/Workspace/DAVE-4.4.2-64Bit/optiga-trust-m/externals/mbedtls/library\ecp.c ****          * and multiplication is quadratic. Round to the closest integer. */
 284:C:/Workspace/DAVE-4.4.2-64Bit/optiga-trust-m/externals/mbedtls/library\ecp.c ****         if( grp->pbits >= 512 )
 285:C:/Workspace/DAVE-4.4.2-64Bit/optiga-trust-m/externals/mbedtls/library\ecp.c ****             ops *= 4;
 286:C:/Workspace/DAVE-4.4.2-64Bit/optiga-trust-m/externals/mbedtls/library\ecp.c ****         else if( grp->pbits >= 384 )
 287:C:/Workspace/DAVE-4.4.2-64Bit/optiga-trust-m/externals/mbedtls/library\ecp.c ****             ops *= 2;
 288:C:/Workspace/DAVE-4.4.2-64Bit/optiga-trust-m/externals/mbedtls/library\ecp.c **** 
 289:C:/Workspace/DAVE-4.4.2-64Bit/optiga-trust-m/externals/mbedtls/library\ecp.c ****         /* Avoid infinite loops: always allow first step.
 290:C:/Workspace/DAVE-4.4.2-64Bit/optiga-trust-m/externals/mbedtls/library\ecp.c ****          * Because of that, however, it's not generally true
 291:C:/Workspace/DAVE-4.4.2-64Bit/optiga-trust-m/externals/mbedtls/library\ecp.c ****          * that ops_done <= ecp_max_ops, so the check
 292:C:/Workspace/DAVE-4.4.2-64Bit/optiga-trust-m/externals/mbedtls/library\ecp.c ****          * ops_done > ecp_max_ops below is mandatory. */
 293:C:/Workspace/DAVE-4.4.2-64Bit/optiga-trust-m/externals/mbedtls/library\ecp.c ****         if( ( rs_ctx->ops_done != 0 ) &&
 294:C:/Workspace/DAVE-4.4.2-64Bit/optiga-trust-m/externals/mbedtls/library\ecp.c ****             ( rs_ctx->ops_done > ecp_max_ops ||
 295:C:/Workspace/DAVE-4.4.2-64Bit/optiga-trust-m/externals/mbedtls/library\ecp.c ****               ops > ecp_max_ops - rs_ctx->ops_done ) )
 296:C:/Workspace/DAVE-4.4.2-64Bit/optiga-trust-m/externals/mbedtls/library\ecp.c ****         {
 297:C:/Workspace/DAVE-4.4.2-64Bit/optiga-trust-m/externals/mbedtls/library\ecp.c ****             return( MBEDTLS_ERR_ECP_IN_PROGRESS );
 298:C:/Workspace/DAVE-4.4.2-64Bit/optiga-trust-m/externals/mbedtls/library\ecp.c ****         }
 299:C:/Workspace/DAVE-4.4.2-64Bit/optiga-trust-m/externals/mbedtls/library\ecp.c **** 
 300:C:/Workspace/DAVE-4.4.2-64Bit/optiga-trust-m/externals/mbedtls/library\ecp.c ****         /* update running count */
 301:C:/Workspace/DAVE-4.4.2-64Bit/optiga-trust-m/externals/mbedtls/library\ecp.c ****         rs_ctx->ops_done += ops;
 302:C:/Workspace/DAVE-4.4.2-64Bit/optiga-trust-m/externals/mbedtls/library\ecp.c ****     }
 303:C:/Workspace/DAVE-4.4.2-64Bit/optiga-trust-m/externals/mbedtls/library\ecp.c **** 
 304:C:/Workspace/DAVE-4.4.2-64Bit/optiga-trust-m/externals/mbedtls/library\ecp.c ****     return( 0 );
 305:C:/Workspace/DAVE-4.4.2-64Bit/optiga-trust-m/externals/mbedtls/library\ecp.c **** }
 306:C:/Workspace/DAVE-4.4.2-64Bit/optiga-trust-m/externals/mbedtls/library\ecp.c **** 
 307:C:/Workspace/DAVE-4.4.2-64Bit/optiga-trust-m/externals/mbedtls/library\ecp.c **** /* Call this when entering a function that needs its own sub-context */
 308:C:/Workspace/DAVE-4.4.2-64Bit/optiga-trust-m/externals/mbedtls/library\ecp.c **** #define ECP_RS_ENTER( SUB )   do {                                      \
 309:C:/Workspace/DAVE-4.4.2-64Bit/optiga-trust-m/externals/mbedtls/library\ecp.c ****     /* reset ops count for this call if top-level */                    \
 310:C:/Workspace/DAVE-4.4.2-64Bit/optiga-trust-m/externals/mbedtls/library\ecp.c ****     if( rs_ctx != NULL && rs_ctx->depth++ == 0 )                        \
 311:C:/Workspace/DAVE-4.4.2-64Bit/optiga-trust-m/externals/mbedtls/library\ecp.c ****         rs_ctx->ops_done = 0;                                           \
 312:C:/Workspace/DAVE-4.4.2-64Bit/optiga-trust-m/externals/mbedtls/library\ecp.c ****                                                                         \
 313:C:/Workspace/DAVE-4.4.2-64Bit/optiga-trust-m/externals/mbedtls/library\ecp.c ****     /* set up our own sub-context if needed */                          \
 314:C:/Workspace/DAVE-4.4.2-64Bit/optiga-trust-m/externals/mbedtls/library\ecp.c ****     if( mbedtls_ecp_restart_is_enabled() &&                             \
 315:C:/Workspace/DAVE-4.4.2-64Bit/optiga-trust-m/externals/mbedtls/library\ecp.c ****         rs_ctx != NULL && rs_ctx->SUB == NULL )                         \
 316:C:/Workspace/DAVE-4.4.2-64Bit/optiga-trust-m/externals/mbedtls/library\ecp.c ****     {                                                                   \
 317:C:/Workspace/DAVE-4.4.2-64Bit/optiga-trust-m/externals/mbedtls/library\ecp.c ****         rs_ctx->SUB = mbedtls_calloc( 1, sizeof( *rs_ctx->SUB ) );      \
 318:C:/Workspace/DAVE-4.4.2-64Bit/optiga-trust-m/externals/mbedtls/library\ecp.c ****         if( rs_ctx->SUB == NULL )                                       \
 319:C:/Workspace/DAVE-4.4.2-64Bit/optiga-trust-m/externals/mbedtls/library\ecp.c ****             return( MBEDTLS_ERR_ECP_ALLOC_FAILED );                     \
 320:C:/Workspace/DAVE-4.4.2-64Bit/optiga-trust-m/externals/mbedtls/library\ecp.c ****                                                                         \
 321:C:/Workspace/DAVE-4.4.2-64Bit/optiga-trust-m/externals/mbedtls/library\ecp.c ****         ecp_restart_## SUB ##_init( rs_ctx->SUB );                      \
 322:C:/Workspace/DAVE-4.4.2-64Bit/optiga-trust-m/externals/mbedtls/library\ecp.c ****     }                                                                   \
 323:C:/Workspace/DAVE-4.4.2-64Bit/optiga-trust-m/externals/mbedtls/library\ecp.c **** } while( 0 )
 324:C:/Workspace/DAVE-4.4.2-64Bit/optiga-trust-m/externals/mbedtls/library\ecp.c **** 
 325:C:/Workspace/DAVE-4.4.2-64Bit/optiga-trust-m/externals/mbedtls/library\ecp.c **** /* Call this when leaving a function that needs its own sub-context */
 326:C:/Workspace/DAVE-4.4.2-64Bit/optiga-trust-m/externals/mbedtls/library\ecp.c **** #define ECP_RS_LEAVE( SUB )   do {                                      \
 327:C:/Workspace/DAVE-4.4.2-64Bit/optiga-trust-m/externals/mbedtls/library\ecp.c ****     /* clear our sub-context when not in progress (done or error) */    \
 328:C:/Workspace/DAVE-4.4.2-64Bit/optiga-trust-m/externals/mbedtls/library\ecp.c ****     if( rs_ctx != NULL && rs_ctx->SUB != NULL &&                        \
 329:C:/Workspace/DAVE-4.4.2-64Bit/optiga-trust-m/externals/mbedtls/library\ecp.c ****         ret != MBEDTLS_ERR_ECP_IN_PROGRESS )                            \
 330:C:/Workspace/DAVE-4.4.2-64Bit/optiga-trust-m/externals/mbedtls/library\ecp.c ****     {                                                                   \
 331:C:/Workspace/DAVE-4.4.2-64Bit/optiga-trust-m/externals/mbedtls/library\ecp.c ****         ecp_restart_## SUB ##_free( rs_ctx->SUB );                      \
 332:C:/Workspace/DAVE-4.4.2-64Bit/optiga-trust-m/externals/mbedtls/library\ecp.c ****         mbedtls_free( rs_ctx->SUB );                                    \
 333:C:/Workspace/DAVE-4.4.2-64Bit/optiga-trust-m/externals/mbedtls/library\ecp.c ****         rs_ctx->SUB = NULL;                                             \
 334:C:/Workspace/DAVE-4.4.2-64Bit/optiga-trust-m/externals/mbedtls/library\ecp.c ****     }                                                                   \
 335:C:/Workspace/DAVE-4.4.2-64Bit/optiga-trust-m/externals/mbedtls/library\ecp.c ****                                                                         \
 336:C:/Workspace/DAVE-4.4.2-64Bit/optiga-trust-m/externals/mbedtls/library\ecp.c ****     if( rs_ctx != NULL )                                                \
 337:C:/Workspace/DAVE-4.4.2-64Bit/optiga-trust-m/externals/mbedtls/library\ecp.c ****         rs_ctx->depth--;                                                \
 338:C:/Workspace/DAVE-4.4.2-64Bit/optiga-trust-m/externals/mbedtls/library\ecp.c **** } while( 0 )
 339:C:/Workspace/DAVE-4.4.2-64Bit/optiga-trust-m/externals/mbedtls/library\ecp.c **** 
 340:C:/Workspace/DAVE-4.4.2-64Bit/optiga-trust-m/externals/mbedtls/library\ecp.c **** #else /* MBEDTLS_ECP_RESTARTABLE */
 341:C:/Workspace/DAVE-4.4.2-64Bit/optiga-trust-m/externals/mbedtls/library\ecp.c **** 
 342:C:/Workspace/DAVE-4.4.2-64Bit/optiga-trust-m/externals/mbedtls/library\ecp.c **** #define ECP_RS_ENTER( sub )     (void) rs_ctx;
 343:C:/Workspace/DAVE-4.4.2-64Bit/optiga-trust-m/externals/mbedtls/library\ecp.c **** #define ECP_RS_LEAVE( sub )     (void) rs_ctx;
 344:C:/Workspace/DAVE-4.4.2-64Bit/optiga-trust-m/externals/mbedtls/library\ecp.c **** 
 345:C:/Workspace/DAVE-4.4.2-64Bit/optiga-trust-m/externals/mbedtls/library\ecp.c **** #endif /* MBEDTLS_ECP_RESTARTABLE */
 346:C:/Workspace/DAVE-4.4.2-64Bit/optiga-trust-m/externals/mbedtls/library\ecp.c **** 
 347:C:/Workspace/DAVE-4.4.2-64Bit/optiga-trust-m/externals/mbedtls/library\ecp.c **** #if defined(MBEDTLS_ECP_DP_SECP192R1_ENABLED) ||   \
 348:C:/Workspace/DAVE-4.4.2-64Bit/optiga-trust-m/externals/mbedtls/library\ecp.c ****     defined(MBEDTLS_ECP_DP_SECP224R1_ENABLED) ||   \
 349:C:/Workspace/DAVE-4.4.2-64Bit/optiga-trust-m/externals/mbedtls/library\ecp.c ****     defined(MBEDTLS_ECP_DP_SECP256R1_ENABLED) ||   \
 350:C:/Workspace/DAVE-4.4.2-64Bit/optiga-trust-m/externals/mbedtls/library\ecp.c ****     defined(MBEDTLS_ECP_DP_SECP384R1_ENABLED) ||   \
 351:C:/Workspace/DAVE-4.4.2-64Bit/optiga-trust-m/externals/mbedtls/library\ecp.c ****     defined(MBEDTLS_ECP_DP_SECP521R1_ENABLED) ||   \
 352:C:/Workspace/DAVE-4.4.2-64Bit/optiga-trust-m/externals/mbedtls/library\ecp.c ****     defined(MBEDTLS_ECP_DP_BP256R1_ENABLED)   ||   \
 353:C:/Workspace/DAVE-4.4.2-64Bit/optiga-trust-m/externals/mbedtls/library\ecp.c ****     defined(MBEDTLS_ECP_DP_BP384R1_ENABLED)   ||   \
 354:C:/Workspace/DAVE-4.4.2-64Bit/optiga-trust-m/externals/mbedtls/library\ecp.c ****     defined(MBEDTLS_ECP_DP_BP512R1_ENABLED)   ||   \
 355:C:/Workspace/DAVE-4.4.2-64Bit/optiga-trust-m/externals/mbedtls/library\ecp.c ****     defined(MBEDTLS_ECP_DP_SECP192K1_ENABLED) ||   \
 356:C:/Workspace/DAVE-4.4.2-64Bit/optiga-trust-m/externals/mbedtls/library\ecp.c ****     defined(MBEDTLS_ECP_DP_SECP224K1_ENABLED) ||   \
 357:C:/Workspace/DAVE-4.4.2-64Bit/optiga-trust-m/externals/mbedtls/library\ecp.c ****     defined(MBEDTLS_ECP_DP_SECP256K1_ENABLED)
 358:C:/Workspace/DAVE-4.4.2-64Bit/optiga-trust-m/externals/mbedtls/library\ecp.c **** #define ECP_SHORTWEIERSTRASS
 359:C:/Workspace/DAVE-4.4.2-64Bit/optiga-trust-m/externals/mbedtls/library\ecp.c **** #endif
 360:C:/Workspace/DAVE-4.4.2-64Bit/optiga-trust-m/externals/mbedtls/library\ecp.c **** 
 361:C:/Workspace/DAVE-4.4.2-64Bit/optiga-trust-m/externals/mbedtls/library\ecp.c **** #if defined(MBEDTLS_ECP_DP_CURVE25519_ENABLED) || \
 362:C:/Workspace/DAVE-4.4.2-64Bit/optiga-trust-m/externals/mbedtls/library\ecp.c ****     defined(MBEDTLS_ECP_DP_CURVE448_ENABLED)
 363:C:/Workspace/DAVE-4.4.2-64Bit/optiga-trust-m/externals/mbedtls/library\ecp.c **** #define ECP_MONTGOMERY
 364:C:/Workspace/DAVE-4.4.2-64Bit/optiga-trust-m/externals/mbedtls/library\ecp.c **** #endif
 365:C:/Workspace/DAVE-4.4.2-64Bit/optiga-trust-m/externals/mbedtls/library\ecp.c **** 
 366:C:/Workspace/DAVE-4.4.2-64Bit/optiga-trust-m/externals/mbedtls/library\ecp.c **** /*
 367:C:/Workspace/DAVE-4.4.2-64Bit/optiga-trust-m/externals/mbedtls/library\ecp.c ****  * Curve types: internal for now, might be exposed later
 368:C:/Workspace/DAVE-4.4.2-64Bit/optiga-trust-m/externals/mbedtls/library\ecp.c ****  */
 369:C:/Workspace/DAVE-4.4.2-64Bit/optiga-trust-m/externals/mbedtls/library\ecp.c **** typedef enum
 370:C:/Workspace/DAVE-4.4.2-64Bit/optiga-trust-m/externals/mbedtls/library\ecp.c **** {
 371:C:/Workspace/DAVE-4.4.2-64Bit/optiga-trust-m/externals/mbedtls/library\ecp.c ****     ECP_TYPE_NONE = 0,
 372:C:/Workspace/DAVE-4.4.2-64Bit/optiga-trust-m/externals/mbedtls/library\ecp.c ****     ECP_TYPE_SHORT_WEIERSTRASS,    /* y^2 = x^3 + a x + b      */
 373:C:/Workspace/DAVE-4.4.2-64Bit/optiga-trust-m/externals/mbedtls/library\ecp.c ****     ECP_TYPE_MONTGOMERY,           /* y^2 = x^3 + a x^2 + x    */
 374:C:/Workspace/DAVE-4.4.2-64Bit/optiga-trust-m/externals/mbedtls/library\ecp.c **** } ecp_curve_type;
 375:C:/Workspace/DAVE-4.4.2-64Bit/optiga-trust-m/externals/mbedtls/library\ecp.c **** 
 376:C:/Workspace/DAVE-4.4.2-64Bit/optiga-trust-m/externals/mbedtls/library\ecp.c **** /*
 377:C:/Workspace/DAVE-4.4.2-64Bit/optiga-trust-m/externals/mbedtls/library\ecp.c ****  * List of supported curves:
 378:C:/Workspace/DAVE-4.4.2-64Bit/optiga-trust-m/externals/mbedtls/library\ecp.c ****  *  - internal ID
 379:C:/Workspace/DAVE-4.4.2-64Bit/optiga-trust-m/externals/mbedtls/library\ecp.c ****  *  - TLS NamedCurve ID (RFC 4492 sec. 5.1.1, RFC 7071 sec. 2)
 380:C:/Workspace/DAVE-4.4.2-64Bit/optiga-trust-m/externals/mbedtls/library\ecp.c ****  *  - size in bits
 381:C:/Workspace/DAVE-4.4.2-64Bit/optiga-trust-m/externals/mbedtls/library\ecp.c ****  *  - readable name
 382:C:/Workspace/DAVE-4.4.2-64Bit/optiga-trust-m/externals/mbedtls/library\ecp.c ****  *
 383:C:/Workspace/DAVE-4.4.2-64Bit/optiga-trust-m/externals/mbedtls/library\ecp.c ****  * Curves are listed in order: largest curves first, and for a given size,
 384:C:/Workspace/DAVE-4.4.2-64Bit/optiga-trust-m/externals/mbedtls/library\ecp.c ****  * fastest curves first. This provides the default order for the SSL module.
 385:C:/Workspace/DAVE-4.4.2-64Bit/optiga-trust-m/externals/mbedtls/library\ecp.c ****  *
 386:C:/Workspace/DAVE-4.4.2-64Bit/optiga-trust-m/externals/mbedtls/library\ecp.c ****  * Reminder: update profiles in x509_crt.c when adding a new curves!
 387:C:/Workspace/DAVE-4.4.2-64Bit/optiga-trust-m/externals/mbedtls/library\ecp.c ****  */
 388:C:/Workspace/DAVE-4.4.2-64Bit/optiga-trust-m/externals/mbedtls/library\ecp.c **** static const mbedtls_ecp_curve_info ecp_supported_curves[] =
 389:C:/Workspace/DAVE-4.4.2-64Bit/optiga-trust-m/externals/mbedtls/library\ecp.c **** {
 390:C:/Workspace/DAVE-4.4.2-64Bit/optiga-trust-m/externals/mbedtls/library\ecp.c **** #if defined(MBEDTLS_ECP_DP_SECP521R1_ENABLED)
 391:C:/Workspace/DAVE-4.4.2-64Bit/optiga-trust-m/externals/mbedtls/library\ecp.c ****     { MBEDTLS_ECP_DP_SECP521R1,    25,     521,    "secp521r1"         },
 392:C:/Workspace/DAVE-4.4.2-64Bit/optiga-trust-m/externals/mbedtls/library\ecp.c **** #endif
 393:C:/Workspace/DAVE-4.4.2-64Bit/optiga-trust-m/externals/mbedtls/library\ecp.c **** #if defined(MBEDTLS_ECP_DP_BP512R1_ENABLED)
 394:C:/Workspace/DAVE-4.4.2-64Bit/optiga-trust-m/externals/mbedtls/library\ecp.c ****     { MBEDTLS_ECP_DP_BP512R1,      28,     512,    "brainpoolP512r1"   },
 395:C:/Workspace/DAVE-4.4.2-64Bit/optiga-trust-m/externals/mbedtls/library\ecp.c **** #endif
 396:C:/Workspace/DAVE-4.4.2-64Bit/optiga-trust-m/externals/mbedtls/library\ecp.c **** #if defined(MBEDTLS_ECP_DP_SECP384R1_ENABLED)
 397:C:/Workspace/DAVE-4.4.2-64Bit/optiga-trust-m/externals/mbedtls/library\ecp.c ****     { MBEDTLS_ECP_DP_SECP384R1,    24,     384,    "secp384r1"         },
 398:C:/Workspace/DAVE-4.4.2-64Bit/optiga-trust-m/externals/mbedtls/library\ecp.c **** #endif
 399:C:/Workspace/DAVE-4.4.2-64Bit/optiga-trust-m/externals/mbedtls/library\ecp.c **** #if defined(MBEDTLS_ECP_DP_BP384R1_ENABLED)
 400:C:/Workspace/DAVE-4.4.2-64Bit/optiga-trust-m/externals/mbedtls/library\ecp.c ****     { MBEDTLS_ECP_DP_BP384R1,      27,     384,    "brainpoolP384r1"   },
 401:C:/Workspace/DAVE-4.4.2-64Bit/optiga-trust-m/externals/mbedtls/library\ecp.c **** #endif
 402:C:/Workspace/DAVE-4.4.2-64Bit/optiga-trust-m/externals/mbedtls/library\ecp.c **** #if defined(MBEDTLS_ECP_DP_SECP256R1_ENABLED)
 403:C:/Workspace/DAVE-4.4.2-64Bit/optiga-trust-m/externals/mbedtls/library\ecp.c ****     { MBEDTLS_ECP_DP_SECP256R1,    23,     256,    "secp256r1"         },
 404:C:/Workspace/DAVE-4.4.2-64Bit/optiga-trust-m/externals/mbedtls/library\ecp.c **** #endif
 405:C:/Workspace/DAVE-4.4.2-64Bit/optiga-trust-m/externals/mbedtls/library\ecp.c **** #if defined(MBEDTLS_ECP_DP_SECP256K1_ENABLED)
 406:C:/Workspace/DAVE-4.4.2-64Bit/optiga-trust-m/externals/mbedtls/library\ecp.c ****     { MBEDTLS_ECP_DP_SECP256K1,    22,     256,    "secp256k1"         },
 407:C:/Workspace/DAVE-4.4.2-64Bit/optiga-trust-m/externals/mbedtls/library\ecp.c **** #endif
 408:C:/Workspace/DAVE-4.4.2-64Bit/optiga-trust-m/externals/mbedtls/library\ecp.c **** #if defined(MBEDTLS_ECP_DP_BP256R1_ENABLED)
 409:C:/Workspace/DAVE-4.4.2-64Bit/optiga-trust-m/externals/mbedtls/library\ecp.c ****     { MBEDTLS_ECP_DP_BP256R1,      26,     256,    "brainpoolP256r1"   },
 410:C:/Workspace/DAVE-4.4.2-64Bit/optiga-trust-m/externals/mbedtls/library\ecp.c **** #endif
 411:C:/Workspace/DAVE-4.4.2-64Bit/optiga-trust-m/externals/mbedtls/library\ecp.c **** #if defined(MBEDTLS_ECP_DP_SECP224R1_ENABLED)
 412:C:/Workspace/DAVE-4.4.2-64Bit/optiga-trust-m/externals/mbedtls/library\ecp.c ****     { MBEDTLS_ECP_DP_SECP224R1,    21,     224,    "secp224r1"         },
 413:C:/Workspace/DAVE-4.4.2-64Bit/optiga-trust-m/externals/mbedtls/library\ecp.c **** #endif
 414:C:/Workspace/DAVE-4.4.2-64Bit/optiga-trust-m/externals/mbedtls/library\ecp.c **** #if defined(MBEDTLS_ECP_DP_SECP224K1_ENABLED)
 415:C:/Workspace/DAVE-4.4.2-64Bit/optiga-trust-m/externals/mbedtls/library\ecp.c ****     { MBEDTLS_ECP_DP_SECP224K1,    20,     224,    "secp224k1"         },
 416:C:/Workspace/DAVE-4.4.2-64Bit/optiga-trust-m/externals/mbedtls/library\ecp.c **** #endif
 417:C:/Workspace/DAVE-4.4.2-64Bit/optiga-trust-m/externals/mbedtls/library\ecp.c **** #if defined(MBEDTLS_ECP_DP_SECP192R1_ENABLED)
 418:C:/Workspace/DAVE-4.4.2-64Bit/optiga-trust-m/externals/mbedtls/library\ecp.c ****     { MBEDTLS_ECP_DP_SECP192R1,    19,     192,    "secp192r1"         },
 419:C:/Workspace/DAVE-4.4.2-64Bit/optiga-trust-m/externals/mbedtls/library\ecp.c **** #endif
 420:C:/Workspace/DAVE-4.4.2-64Bit/optiga-trust-m/externals/mbedtls/library\ecp.c **** #if defined(MBEDTLS_ECP_DP_SECP192K1_ENABLED)
 421:C:/Workspace/DAVE-4.4.2-64Bit/optiga-trust-m/externals/mbedtls/library\ecp.c ****     { MBEDTLS_ECP_DP_SECP192K1,    18,     192,    "secp192k1"         },
 422:C:/Workspace/DAVE-4.4.2-64Bit/optiga-trust-m/externals/mbedtls/library\ecp.c **** #endif
 423:C:/Workspace/DAVE-4.4.2-64Bit/optiga-trust-m/externals/mbedtls/library\ecp.c ****     { MBEDTLS_ECP_DP_NONE,          0,     0,      NULL                },
 424:C:/Workspace/DAVE-4.4.2-64Bit/optiga-trust-m/externals/mbedtls/library\ecp.c **** };
 425:C:/Workspace/DAVE-4.4.2-64Bit/optiga-trust-m/externals/mbedtls/library\ecp.c **** 
 426:C:/Workspace/DAVE-4.4.2-64Bit/optiga-trust-m/externals/mbedtls/library\ecp.c **** #define ECP_NB_CURVES   sizeof( ecp_supported_curves ) /    \
 427:C:/Workspace/DAVE-4.4.2-64Bit/optiga-trust-m/externals/mbedtls/library\ecp.c ****                         sizeof( ecp_supported_curves[0] )
 428:C:/Workspace/DAVE-4.4.2-64Bit/optiga-trust-m/externals/mbedtls/library\ecp.c **** 
 429:C:/Workspace/DAVE-4.4.2-64Bit/optiga-trust-m/externals/mbedtls/library\ecp.c **** static mbedtls_ecp_group_id ecp_supported_grp_id[ECP_NB_CURVES];
 430:C:/Workspace/DAVE-4.4.2-64Bit/optiga-trust-m/externals/mbedtls/library\ecp.c **** 
 431:C:/Workspace/DAVE-4.4.2-64Bit/optiga-trust-m/externals/mbedtls/library\ecp.c **** /*
 432:C:/Workspace/DAVE-4.4.2-64Bit/optiga-trust-m/externals/mbedtls/library\ecp.c ****  * List of supported curves and associated info
 433:C:/Workspace/DAVE-4.4.2-64Bit/optiga-trust-m/externals/mbedtls/library\ecp.c ****  */
 434:C:/Workspace/DAVE-4.4.2-64Bit/optiga-trust-m/externals/mbedtls/library\ecp.c **** const mbedtls_ecp_curve_info *mbedtls_ecp_curve_list( void )
 435:C:/Workspace/DAVE-4.4.2-64Bit/optiga-trust-m/externals/mbedtls/library\ecp.c **** {
 436:C:/Workspace/DAVE-4.4.2-64Bit/optiga-trust-m/externals/mbedtls/library\ecp.c ****     return( ecp_supported_curves );
 437:C:/Workspace/DAVE-4.4.2-64Bit/optiga-trust-m/externals/mbedtls/library\ecp.c **** }
 438:C:/Workspace/DAVE-4.4.2-64Bit/optiga-trust-m/externals/mbedtls/library\ecp.c **** 
 439:C:/Workspace/DAVE-4.4.2-64Bit/optiga-trust-m/externals/mbedtls/library\ecp.c **** /*
 440:C:/Workspace/DAVE-4.4.2-64Bit/optiga-trust-m/externals/mbedtls/library\ecp.c ****  * List of supported curves, group ID only
 441:C:/Workspace/DAVE-4.4.2-64Bit/optiga-trust-m/externals/mbedtls/library\ecp.c ****  */
 442:C:/Workspace/DAVE-4.4.2-64Bit/optiga-trust-m/externals/mbedtls/library\ecp.c **** const mbedtls_ecp_group_id *mbedtls_ecp_grp_id_list( void )
 443:C:/Workspace/DAVE-4.4.2-64Bit/optiga-trust-m/externals/mbedtls/library\ecp.c **** {
 444:C:/Workspace/DAVE-4.4.2-64Bit/optiga-trust-m/externals/mbedtls/library\ecp.c ****     static int init_done = 0;
 445:C:/Workspace/DAVE-4.4.2-64Bit/optiga-trust-m/externals/mbedtls/library\ecp.c **** 
 446:C:/Workspace/DAVE-4.4.2-64Bit/optiga-trust-m/externals/mbedtls/library\ecp.c ****     if( ! init_done )
 447:C:/Workspace/DAVE-4.4.2-64Bit/optiga-trust-m/externals/mbedtls/library\ecp.c ****     {
 448:C:/Workspace/DAVE-4.4.2-64Bit/optiga-trust-m/externals/mbedtls/library\ecp.c ****         size_t i = 0;
 449:C:/Workspace/DAVE-4.4.2-64Bit/optiga-trust-m/externals/mbedtls/library\ecp.c ****         const mbedtls_ecp_curve_info *curve_info;
 450:C:/Workspace/DAVE-4.4.2-64Bit/optiga-trust-m/externals/mbedtls/library\ecp.c **** 
 451:C:/Workspace/DAVE-4.4.2-64Bit/optiga-trust-m/externals/mbedtls/library\ecp.c ****         for( curve_info = mbedtls_ecp_curve_list();
 452:C:/Workspace/DAVE-4.4.2-64Bit/optiga-trust-m/externals/mbedtls/library\ecp.c ****              curve_info->grp_id != MBEDTLS_ECP_DP_NONE;
 453:C:/Workspace/DAVE-4.4.2-64Bit/optiga-trust-m/externals/mbedtls/library\ecp.c ****              curve_info++ )
 454:C:/Workspace/DAVE-4.4.2-64Bit/optiga-trust-m/externals/mbedtls/library\ecp.c ****         {
 455:C:/Workspace/DAVE-4.4.2-64Bit/optiga-trust-m/externals/mbedtls/library\ecp.c ****             ecp_supported_grp_id[i++] = curve_info->grp_id;
 456:C:/Workspace/DAVE-4.4.2-64Bit/optiga-trust-m/externals/mbedtls/library\ecp.c ****         }
 457:C:/Workspace/DAVE-4.4.2-64Bit/optiga-trust-m/externals/mbedtls/library\ecp.c ****         ecp_supported_grp_id[i] = MBEDTLS_ECP_DP_NONE;
 458:C:/Workspace/DAVE-4.4.2-64Bit/optiga-trust-m/externals/mbedtls/library\ecp.c **** 
 459:C:/Workspace/DAVE-4.4.2-64Bit/optiga-trust-m/externals/mbedtls/library\ecp.c ****         init_done = 1;
 460:C:/Workspace/DAVE-4.4.2-64Bit/optiga-trust-m/externals/mbedtls/library\ecp.c ****     }
 461:C:/Workspace/DAVE-4.4.2-64Bit/optiga-trust-m/externals/mbedtls/library\ecp.c **** 
 462:C:/Workspace/DAVE-4.4.2-64Bit/optiga-trust-m/externals/mbedtls/library\ecp.c ****     return( ecp_supported_grp_id );
 463:C:/Workspace/DAVE-4.4.2-64Bit/optiga-trust-m/externals/mbedtls/library\ecp.c **** }
 464:C:/Workspace/DAVE-4.4.2-64Bit/optiga-trust-m/externals/mbedtls/library\ecp.c **** 
 465:C:/Workspace/DAVE-4.4.2-64Bit/optiga-trust-m/externals/mbedtls/library\ecp.c **** /*
 466:C:/Workspace/DAVE-4.4.2-64Bit/optiga-trust-m/externals/mbedtls/library\ecp.c ****  * Get the curve info for the internal identifier
 467:C:/Workspace/DAVE-4.4.2-64Bit/optiga-trust-m/externals/mbedtls/library\ecp.c ****  */
 468:C:/Workspace/DAVE-4.4.2-64Bit/optiga-trust-m/externals/mbedtls/library\ecp.c **** const mbedtls_ecp_curve_info *mbedtls_ecp_curve_info_from_grp_id( mbedtls_ecp_group_id grp_id )
 469:C:/Workspace/DAVE-4.4.2-64Bit/optiga-trust-m/externals/mbedtls/library\ecp.c **** {
 470:C:/Workspace/DAVE-4.4.2-64Bit/optiga-trust-m/externals/mbedtls/library\ecp.c ****     const mbedtls_ecp_curve_info *curve_info;
 471:C:/Workspace/DAVE-4.4.2-64Bit/optiga-trust-m/externals/mbedtls/library\ecp.c **** 
 472:C:/Workspace/DAVE-4.4.2-64Bit/optiga-trust-m/externals/mbedtls/library\ecp.c ****     for( curve_info = mbedtls_ecp_curve_list();
 473:C:/Workspace/DAVE-4.4.2-64Bit/optiga-trust-m/externals/mbedtls/library\ecp.c ****          curve_info->grp_id != MBEDTLS_ECP_DP_NONE;
 474:C:/Workspace/DAVE-4.4.2-64Bit/optiga-trust-m/externals/mbedtls/library\ecp.c ****          curve_info++ )
 475:C:/Workspace/DAVE-4.4.2-64Bit/optiga-trust-m/externals/mbedtls/library\ecp.c ****     {
 476:C:/Workspace/DAVE-4.4.2-64Bit/optiga-trust-m/externals/mbedtls/library\ecp.c ****         if( curve_info->grp_id == grp_id )
 477:C:/Workspace/DAVE-4.4.2-64Bit/optiga-trust-m/externals/mbedtls/library\ecp.c ****             return( curve_info );
 478:C:/Workspace/DAVE-4.4.2-64Bit/optiga-trust-m/externals/mbedtls/library\ecp.c ****     }
 479:C:/Workspace/DAVE-4.4.2-64Bit/optiga-trust-m/externals/mbedtls/library\ecp.c **** 
 480:C:/Workspace/DAVE-4.4.2-64Bit/optiga-trust-m/externals/mbedtls/library\ecp.c ****     return( NULL );
 481:C:/Workspace/DAVE-4.4.2-64Bit/optiga-trust-m/externals/mbedtls/library\ecp.c **** }
 482:C:/Workspace/DAVE-4.4.2-64Bit/optiga-trust-m/externals/mbedtls/library\ecp.c **** 
 483:C:/Workspace/DAVE-4.4.2-64Bit/optiga-trust-m/externals/mbedtls/library\ecp.c **** /*
 484:C:/Workspace/DAVE-4.4.2-64Bit/optiga-trust-m/externals/mbedtls/library\ecp.c ****  * Get the curve info from the TLS identifier
 485:C:/Workspace/DAVE-4.4.2-64Bit/optiga-trust-m/externals/mbedtls/library\ecp.c ****  */
 486:C:/Workspace/DAVE-4.4.2-64Bit/optiga-trust-m/externals/mbedtls/library\ecp.c **** const mbedtls_ecp_curve_info *mbedtls_ecp_curve_info_from_tls_id( uint16_t tls_id )
 487:C:/Workspace/DAVE-4.4.2-64Bit/optiga-trust-m/externals/mbedtls/library\ecp.c **** {
 488:C:/Workspace/DAVE-4.4.2-64Bit/optiga-trust-m/externals/mbedtls/library\ecp.c ****     const mbedtls_ecp_curve_info *curve_info;
 489:C:/Workspace/DAVE-4.4.2-64Bit/optiga-trust-m/externals/mbedtls/library\ecp.c **** 
 490:C:/Workspace/DAVE-4.4.2-64Bit/optiga-trust-m/externals/mbedtls/library\ecp.c ****     for( curve_info = mbedtls_ecp_curve_list();
 491:C:/Workspace/DAVE-4.4.2-64Bit/optiga-trust-m/externals/mbedtls/library\ecp.c ****          curve_info->grp_id != MBEDTLS_ECP_DP_NONE;
 492:C:/Workspace/DAVE-4.4.2-64Bit/optiga-trust-m/externals/mbedtls/library\ecp.c ****          curve_info++ )
 493:C:/Workspace/DAVE-4.4.2-64Bit/optiga-trust-m/externals/mbedtls/library\ecp.c ****     {
 494:C:/Workspace/DAVE-4.4.2-64Bit/optiga-trust-m/externals/mbedtls/library\ecp.c ****         if( curve_info->tls_id == tls_id )
 495:C:/Workspace/DAVE-4.4.2-64Bit/optiga-trust-m/externals/mbedtls/library\ecp.c ****             return( curve_info );
 496:C:/Workspace/DAVE-4.4.2-64Bit/optiga-trust-m/externals/mbedtls/library\ecp.c ****     }
 497:C:/Workspace/DAVE-4.4.2-64Bit/optiga-trust-m/externals/mbedtls/library\ecp.c **** 
 498:C:/Workspace/DAVE-4.4.2-64Bit/optiga-trust-m/externals/mbedtls/library\ecp.c ****     return( NULL );
 499:C:/Workspace/DAVE-4.4.2-64Bit/optiga-trust-m/externals/mbedtls/library\ecp.c **** }
 500:C:/Workspace/DAVE-4.4.2-64Bit/optiga-trust-m/externals/mbedtls/library\ecp.c **** 
 501:C:/Workspace/DAVE-4.4.2-64Bit/optiga-trust-m/externals/mbedtls/library\ecp.c **** /*
 502:C:/Workspace/DAVE-4.4.2-64Bit/optiga-trust-m/externals/mbedtls/library\ecp.c ****  * Get the curve info from the name
 503:C:/Workspace/DAVE-4.4.2-64Bit/optiga-trust-m/externals/mbedtls/library\ecp.c ****  */
 504:C:/Workspace/DAVE-4.4.2-64Bit/optiga-trust-m/externals/mbedtls/library\ecp.c **** const mbedtls_ecp_curve_info *mbedtls_ecp_curve_info_from_name( const char *name )
 505:C:/Workspace/DAVE-4.4.2-64Bit/optiga-trust-m/externals/mbedtls/library\ecp.c **** {
 506:C:/Workspace/DAVE-4.4.2-64Bit/optiga-trust-m/externals/mbedtls/library\ecp.c ****     const mbedtls_ecp_curve_info *curve_info;
 507:C:/Workspace/DAVE-4.4.2-64Bit/optiga-trust-m/externals/mbedtls/library\ecp.c **** 
 508:C:/Workspace/DAVE-4.4.2-64Bit/optiga-trust-m/externals/mbedtls/library\ecp.c ****     if( name == NULL )
 509:C:/Workspace/DAVE-4.4.2-64Bit/optiga-trust-m/externals/mbedtls/library\ecp.c ****         return( NULL );
 510:C:/Workspace/DAVE-4.4.2-64Bit/optiga-trust-m/externals/mbedtls/library\ecp.c **** 
 511:C:/Workspace/DAVE-4.4.2-64Bit/optiga-trust-m/externals/mbedtls/library\ecp.c ****     for( curve_info = mbedtls_ecp_curve_list();
 512:C:/Workspace/DAVE-4.4.2-64Bit/optiga-trust-m/externals/mbedtls/library\ecp.c ****          curve_info->grp_id != MBEDTLS_ECP_DP_NONE;
 513:C:/Workspace/DAVE-4.4.2-64Bit/optiga-trust-m/externals/mbedtls/library\ecp.c ****          curve_info++ )
 514:C:/Workspace/DAVE-4.4.2-64Bit/optiga-trust-m/externals/mbedtls/library\ecp.c ****     {
 515:C:/Workspace/DAVE-4.4.2-64Bit/optiga-trust-m/externals/mbedtls/library\ecp.c ****         if( strcmp( curve_info->name, name ) == 0 )
 516:C:/Workspace/DAVE-4.4.2-64Bit/optiga-trust-m/externals/mbedtls/library\ecp.c ****             return( curve_info );
 517:C:/Workspace/DAVE-4.4.2-64Bit/optiga-trust-m/externals/mbedtls/library\ecp.c ****     }
 518:C:/Workspace/DAVE-4.4.2-64Bit/optiga-trust-m/externals/mbedtls/library\ecp.c **** 
 519:C:/Workspace/DAVE-4.4.2-64Bit/optiga-trust-m/externals/mbedtls/library\ecp.c ****     return( NULL );
 520:C:/Workspace/DAVE-4.4.2-64Bit/optiga-trust-m/externals/mbedtls/library\ecp.c **** }
 521:C:/Workspace/DAVE-4.4.2-64Bit/optiga-trust-m/externals/mbedtls/library\ecp.c **** 
 522:C:/Workspace/DAVE-4.4.2-64Bit/optiga-trust-m/externals/mbedtls/library\ecp.c **** /*
 523:C:/Workspace/DAVE-4.4.2-64Bit/optiga-trust-m/externals/mbedtls/library\ecp.c ****  * Get the type of a curve
 524:C:/Workspace/DAVE-4.4.2-64Bit/optiga-trust-m/externals/mbedtls/library\ecp.c ****  */
 525:C:/Workspace/DAVE-4.4.2-64Bit/optiga-trust-m/externals/mbedtls/library\ecp.c **** static inline ecp_curve_type ecp_get_type( const mbedtls_ecp_group *grp )
 526:C:/Workspace/DAVE-4.4.2-64Bit/optiga-trust-m/externals/mbedtls/library\ecp.c **** {
  25              	 .loc 1 526 0
  26              	 .cfi_startproc
  27              	.LVL0:
  28              	 .loc 1 526 0
  29 0000 031C     	 mov r3,r0
 527:C:/Workspace/DAVE-4.4.2-64Bit/optiga-trust-m/externals/mbedtls/library\ecp.c ****     if( grp->G.X.p == NULL )
 528:C:/Workspace/DAVE-4.4.2-64Bit/optiga-trust-m/externals/mbedtls/library\ecp.c ****         return( ECP_TYPE_NONE );
  30              	 .loc 1 528 0
  31 0002 006B     	 ldr r0,[r0,#48]
  32              	.LVL1:
 527:C:/Workspace/DAVE-4.4.2-64Bit/optiga-trust-m/externals/mbedtls/library\ecp.c ****     if( grp->G.X.p == NULL )
  33              	 .loc 1 527 0
  34 0004 0028     	 cmp r0,#0
  35 0006 03D0     	 beq .L2
 529:C:/Workspace/DAVE-4.4.2-64Bit/optiga-trust-m/externals/mbedtls/library\ecp.c **** 
 530:C:/Workspace/DAVE-4.4.2-64Bit/optiga-trust-m/externals/mbedtls/library\ecp.c ****     if( grp->G.Y.p == NULL )
  36              	 .loc 1 530 0
  37 0008 DB6B     	 ldr r3,[r3,#60]
  38              	.LVL2:
 531:C:/Workspace/DAVE-4.4.2-64Bit/optiga-trust-m/externals/mbedtls/library\ecp.c ****         return( ECP_TYPE_MONTGOMERY );
 532:C:/Workspace/DAVE-4.4.2-64Bit/optiga-trust-m/externals/mbedtls/library\ecp.c ****     else
 533:C:/Workspace/DAVE-4.4.2-64Bit/optiga-trust-m/externals/mbedtls/library\ecp.c ****         return( ECP_TYPE_SHORT_WEIERSTRASS );
  39              	 .loc 1 533 0
  40 000a 5842     	 neg r0,r3
  41 000c 5841     	 adc r0,r0,r3
  42 000e 0130     	 add r0,r0,#1
  43              	.L2:
 534:C:/Workspace/DAVE-4.4.2-64Bit/optiga-trust-m/externals/mbedtls/library\ecp.c **** }
  44              	 .loc 1 534 0
  45              	 
  46 0010 7047     	 bx lr
  47              	 .cfi_endproc
  48              	.LFE5:
  50              	 .section .text.ecp_modp,"ax",%progbits
  51              	 .align 1
  52              	 .code 16
  53              	 .thumb_func
  55              	ecp_modp:
  56              	.LFB25:
 535:C:/Workspace/DAVE-4.4.2-64Bit/optiga-trust-m/externals/mbedtls/library\ecp.c **** 
 536:C:/Workspace/DAVE-4.4.2-64Bit/optiga-trust-m/externals/mbedtls/library\ecp.c **** /*
 537:C:/Workspace/DAVE-4.4.2-64Bit/optiga-trust-m/externals/mbedtls/library\ecp.c ****  * Initialize (the components of) a point
 538:C:/Workspace/DAVE-4.4.2-64Bit/optiga-trust-m/externals/mbedtls/library\ecp.c ****  */
 539:C:/Workspace/DAVE-4.4.2-64Bit/optiga-trust-m/externals/mbedtls/library\ecp.c **** void mbedtls_ecp_point_init( mbedtls_ecp_point *pt )
 540:C:/Workspace/DAVE-4.4.2-64Bit/optiga-trust-m/externals/mbedtls/library\ecp.c **** {
 541:C:/Workspace/DAVE-4.4.2-64Bit/optiga-trust-m/externals/mbedtls/library\ecp.c ****     ECP_VALIDATE( pt != NULL );
 542:C:/Workspace/DAVE-4.4.2-64Bit/optiga-trust-m/externals/mbedtls/library\ecp.c **** 
 543:C:/Workspace/DAVE-4.4.2-64Bit/optiga-trust-m/externals/mbedtls/library\ecp.c ****     mbedtls_mpi_init( &pt->X );
 544:C:/Workspace/DAVE-4.4.2-64Bit/optiga-trust-m/externals/mbedtls/library\ecp.c ****     mbedtls_mpi_init( &pt->Y );
 545:C:/Workspace/DAVE-4.4.2-64Bit/optiga-trust-m/externals/mbedtls/library\ecp.c ****     mbedtls_mpi_init( &pt->Z );
 546:C:/Workspace/DAVE-4.4.2-64Bit/optiga-trust-m/externals/mbedtls/library\ecp.c **** }
 547:C:/Workspace/DAVE-4.4.2-64Bit/optiga-trust-m/externals/mbedtls/library\ecp.c **** 
 548:C:/Workspace/DAVE-4.4.2-64Bit/optiga-trust-m/externals/mbedtls/library\ecp.c **** /*
 549:C:/Workspace/DAVE-4.4.2-64Bit/optiga-trust-m/externals/mbedtls/library\ecp.c ****  * Initialize (the components of) a group
 550:C:/Workspace/DAVE-4.4.2-64Bit/optiga-trust-m/externals/mbedtls/library\ecp.c ****  */
 551:C:/Workspace/DAVE-4.4.2-64Bit/optiga-trust-m/externals/mbedtls/library\ecp.c **** void mbedtls_ecp_group_init( mbedtls_ecp_group *grp )
 552:C:/Workspace/DAVE-4.4.2-64Bit/optiga-trust-m/externals/mbedtls/library\ecp.c **** {
 553:C:/Workspace/DAVE-4.4.2-64Bit/optiga-trust-m/externals/mbedtls/library\ecp.c ****     ECP_VALIDATE( grp != NULL );
 554:C:/Workspace/DAVE-4.4.2-64Bit/optiga-trust-m/externals/mbedtls/library\ecp.c **** 
 555:C:/Workspace/DAVE-4.4.2-64Bit/optiga-trust-m/externals/mbedtls/library\ecp.c ****     grp->id = MBEDTLS_ECP_DP_NONE;
 556:C:/Workspace/DAVE-4.4.2-64Bit/optiga-trust-m/externals/mbedtls/library\ecp.c ****     mbedtls_mpi_init( &grp->P );
 557:C:/Workspace/DAVE-4.4.2-64Bit/optiga-trust-m/externals/mbedtls/library\ecp.c ****     mbedtls_mpi_init( &grp->A );
 558:C:/Workspace/DAVE-4.4.2-64Bit/optiga-trust-m/externals/mbedtls/library\ecp.c ****     mbedtls_mpi_init( &grp->B );
 559:C:/Workspace/DAVE-4.4.2-64Bit/optiga-trust-m/externals/mbedtls/library\ecp.c ****     mbedtls_ecp_point_init( &grp->G );
 560:C:/Workspace/DAVE-4.4.2-64Bit/optiga-trust-m/externals/mbedtls/library\ecp.c ****     mbedtls_mpi_init( &grp->N );
 561:C:/Workspace/DAVE-4.4.2-64Bit/optiga-trust-m/externals/mbedtls/library\ecp.c ****     grp->pbits = 0;
 562:C:/Workspace/DAVE-4.4.2-64Bit/optiga-trust-m/externals/mbedtls/library\ecp.c ****     grp->nbits = 0;
 563:C:/Workspace/DAVE-4.4.2-64Bit/optiga-trust-m/externals/mbedtls/library\ecp.c ****     grp->h = 0;
 564:C:/Workspace/DAVE-4.4.2-64Bit/optiga-trust-m/externals/mbedtls/library\ecp.c ****     grp->modp = NULL;
 565:C:/Workspace/DAVE-4.4.2-64Bit/optiga-trust-m/externals/mbedtls/library\ecp.c ****     grp->t_pre = NULL;
 566:C:/Workspace/DAVE-4.4.2-64Bit/optiga-trust-m/externals/mbedtls/library\ecp.c ****     grp->t_post = NULL;
 567:C:/Workspace/DAVE-4.4.2-64Bit/optiga-trust-m/externals/mbedtls/library\ecp.c ****     grp->t_data = NULL;
 568:C:/Workspace/DAVE-4.4.2-64Bit/optiga-trust-m/externals/mbedtls/library\ecp.c ****     grp->T = NULL;
 569:C:/Workspace/DAVE-4.4.2-64Bit/optiga-trust-m/externals/mbedtls/library\ecp.c ****     grp->T_size = 0;
 570:C:/Workspace/DAVE-4.4.2-64Bit/optiga-trust-m/externals/mbedtls/library\ecp.c **** }
 571:C:/Workspace/DAVE-4.4.2-64Bit/optiga-trust-m/externals/mbedtls/library\ecp.c **** 
 572:C:/Workspace/DAVE-4.4.2-64Bit/optiga-trust-m/externals/mbedtls/library\ecp.c **** /*
 573:C:/Workspace/DAVE-4.4.2-64Bit/optiga-trust-m/externals/mbedtls/library\ecp.c ****  * Initialize (the components of) a key pair
 574:C:/Workspace/DAVE-4.4.2-64Bit/optiga-trust-m/externals/mbedtls/library\ecp.c ****  */
 575:C:/Workspace/DAVE-4.4.2-64Bit/optiga-trust-m/externals/mbedtls/library\ecp.c **** void mbedtls_ecp_keypair_init( mbedtls_ecp_keypair *key )
 576:C:/Workspace/DAVE-4.4.2-64Bit/optiga-trust-m/externals/mbedtls/library\ecp.c **** {
 577:C:/Workspace/DAVE-4.4.2-64Bit/optiga-trust-m/externals/mbedtls/library\ecp.c ****     ECP_VALIDATE( key != NULL );
 578:C:/Workspace/DAVE-4.4.2-64Bit/optiga-trust-m/externals/mbedtls/library\ecp.c **** 
 579:C:/Workspace/DAVE-4.4.2-64Bit/optiga-trust-m/externals/mbedtls/library\ecp.c ****     mbedtls_ecp_group_init( &key->grp );
 580:C:/Workspace/DAVE-4.4.2-64Bit/optiga-trust-m/externals/mbedtls/library\ecp.c ****     mbedtls_mpi_init( &key->d );
 581:C:/Workspace/DAVE-4.4.2-64Bit/optiga-trust-m/externals/mbedtls/library\ecp.c ****     mbedtls_ecp_point_init( &key->Q );
 582:C:/Workspace/DAVE-4.4.2-64Bit/optiga-trust-m/externals/mbedtls/library\ecp.c **** }
 583:C:/Workspace/DAVE-4.4.2-64Bit/optiga-trust-m/externals/mbedtls/library\ecp.c **** 
 584:C:/Workspace/DAVE-4.4.2-64Bit/optiga-trust-m/externals/mbedtls/library\ecp.c **** /*
 585:C:/Workspace/DAVE-4.4.2-64Bit/optiga-trust-m/externals/mbedtls/library\ecp.c ****  * Unallocate (the components of) a point
 586:C:/Workspace/DAVE-4.4.2-64Bit/optiga-trust-m/externals/mbedtls/library\ecp.c ****  */
 587:C:/Workspace/DAVE-4.4.2-64Bit/optiga-trust-m/externals/mbedtls/library\ecp.c **** void mbedtls_ecp_point_free( mbedtls_ecp_point *pt )
 588:C:/Workspace/DAVE-4.4.2-64Bit/optiga-trust-m/externals/mbedtls/library\ecp.c **** {
 589:C:/Workspace/DAVE-4.4.2-64Bit/optiga-trust-m/externals/mbedtls/library\ecp.c ****     if( pt == NULL )
 590:C:/Workspace/DAVE-4.4.2-64Bit/optiga-trust-m/externals/mbedtls/library\ecp.c ****         return;
 591:C:/Workspace/DAVE-4.4.2-64Bit/optiga-trust-m/externals/mbedtls/library\ecp.c **** 
 592:C:/Workspace/DAVE-4.4.2-64Bit/optiga-trust-m/externals/mbedtls/library\ecp.c ****     mbedtls_mpi_free( &( pt->X ) );
 593:C:/Workspace/DAVE-4.4.2-64Bit/optiga-trust-m/externals/mbedtls/library\ecp.c ****     mbedtls_mpi_free( &( pt->Y ) );
 594:C:/Workspace/DAVE-4.4.2-64Bit/optiga-trust-m/externals/mbedtls/library\ecp.c ****     mbedtls_mpi_free( &( pt->Z ) );
 595:C:/Workspace/DAVE-4.4.2-64Bit/optiga-trust-m/externals/mbedtls/library\ecp.c **** }
 596:C:/Workspace/DAVE-4.4.2-64Bit/optiga-trust-m/externals/mbedtls/library\ecp.c **** 
 597:C:/Workspace/DAVE-4.4.2-64Bit/optiga-trust-m/externals/mbedtls/library\ecp.c **** /*
 598:C:/Workspace/DAVE-4.4.2-64Bit/optiga-trust-m/externals/mbedtls/library\ecp.c ****  * Unallocate (the components of) a group
 599:C:/Workspace/DAVE-4.4.2-64Bit/optiga-trust-m/externals/mbedtls/library\ecp.c ****  */
 600:C:/Workspace/DAVE-4.4.2-64Bit/optiga-trust-m/externals/mbedtls/library\ecp.c **** void mbedtls_ecp_group_free( mbedtls_ecp_group *grp )
 601:C:/Workspace/DAVE-4.4.2-64Bit/optiga-trust-m/externals/mbedtls/library\ecp.c **** {
 602:C:/Workspace/DAVE-4.4.2-64Bit/optiga-trust-m/externals/mbedtls/library\ecp.c ****     size_t i;
 603:C:/Workspace/DAVE-4.4.2-64Bit/optiga-trust-m/externals/mbedtls/library\ecp.c **** 
 604:C:/Workspace/DAVE-4.4.2-64Bit/optiga-trust-m/externals/mbedtls/library\ecp.c ****     if( grp == NULL )
 605:C:/Workspace/DAVE-4.4.2-64Bit/optiga-trust-m/externals/mbedtls/library\ecp.c ****         return;
 606:C:/Workspace/DAVE-4.4.2-64Bit/optiga-trust-m/externals/mbedtls/library\ecp.c **** 
 607:C:/Workspace/DAVE-4.4.2-64Bit/optiga-trust-m/externals/mbedtls/library\ecp.c ****     if( grp->h != 1 )
 608:C:/Workspace/DAVE-4.4.2-64Bit/optiga-trust-m/externals/mbedtls/library\ecp.c ****     {
 609:C:/Workspace/DAVE-4.4.2-64Bit/optiga-trust-m/externals/mbedtls/library\ecp.c ****         mbedtls_mpi_free( &grp->P );
 610:C:/Workspace/DAVE-4.4.2-64Bit/optiga-trust-m/externals/mbedtls/library\ecp.c ****         mbedtls_mpi_free( &grp->A );
 611:C:/Workspace/DAVE-4.4.2-64Bit/optiga-trust-m/externals/mbedtls/library\ecp.c ****         mbedtls_mpi_free( &grp->B );
 612:C:/Workspace/DAVE-4.4.2-64Bit/optiga-trust-m/externals/mbedtls/library\ecp.c ****         mbedtls_ecp_point_free( &grp->G );
 613:C:/Workspace/DAVE-4.4.2-64Bit/optiga-trust-m/externals/mbedtls/library\ecp.c ****         mbedtls_mpi_free( &grp->N );
 614:C:/Workspace/DAVE-4.4.2-64Bit/optiga-trust-m/externals/mbedtls/library\ecp.c ****     }
 615:C:/Workspace/DAVE-4.4.2-64Bit/optiga-trust-m/externals/mbedtls/library\ecp.c **** 
 616:C:/Workspace/DAVE-4.4.2-64Bit/optiga-trust-m/externals/mbedtls/library\ecp.c ****     if( grp->T != NULL )
 617:C:/Workspace/DAVE-4.4.2-64Bit/optiga-trust-m/externals/mbedtls/library\ecp.c ****     {
 618:C:/Workspace/DAVE-4.4.2-64Bit/optiga-trust-m/externals/mbedtls/library\ecp.c ****         for( i = 0; i < grp->T_size; i++ )
 619:C:/Workspace/DAVE-4.4.2-64Bit/optiga-trust-m/externals/mbedtls/library\ecp.c ****             mbedtls_ecp_point_free( &grp->T[i] );
 620:C:/Workspace/DAVE-4.4.2-64Bit/optiga-trust-m/externals/mbedtls/library\ecp.c ****         mbedtls_free( grp->T );
 621:C:/Workspace/DAVE-4.4.2-64Bit/optiga-trust-m/externals/mbedtls/library\ecp.c ****     }
 622:C:/Workspace/DAVE-4.4.2-64Bit/optiga-trust-m/externals/mbedtls/library\ecp.c **** 
 623:C:/Workspace/DAVE-4.4.2-64Bit/optiga-trust-m/externals/mbedtls/library\ecp.c ****     mbedtls_platform_zeroize( grp, sizeof( mbedtls_ecp_group ) );
 624:C:/Workspace/DAVE-4.4.2-64Bit/optiga-trust-m/externals/mbedtls/library\ecp.c **** }
 625:C:/Workspace/DAVE-4.4.2-64Bit/optiga-trust-m/externals/mbedtls/library\ecp.c **** 
 626:C:/Workspace/DAVE-4.4.2-64Bit/optiga-trust-m/externals/mbedtls/library\ecp.c **** /*
 627:C:/Workspace/DAVE-4.4.2-64Bit/optiga-trust-m/externals/mbedtls/library\ecp.c ****  * Unallocate (the components of) a key pair
 628:C:/Workspace/DAVE-4.4.2-64Bit/optiga-trust-m/externals/mbedtls/library\ecp.c ****  */
 629:C:/Workspace/DAVE-4.4.2-64Bit/optiga-trust-m/externals/mbedtls/library\ecp.c **** void mbedtls_ecp_keypair_free( mbedtls_ecp_keypair *key )
 630:C:/Workspace/DAVE-4.4.2-64Bit/optiga-trust-m/externals/mbedtls/library\ecp.c **** {
 631:C:/Workspace/DAVE-4.4.2-64Bit/optiga-trust-m/externals/mbedtls/library\ecp.c ****     if( key == NULL )
 632:C:/Workspace/DAVE-4.4.2-64Bit/optiga-trust-m/externals/mbedtls/library\ecp.c ****         return;
 633:C:/Workspace/DAVE-4.4.2-64Bit/optiga-trust-m/externals/mbedtls/library\ecp.c **** 
 634:C:/Workspace/DAVE-4.4.2-64Bit/optiga-trust-m/externals/mbedtls/library\ecp.c ****     mbedtls_ecp_group_free( &key->grp );
 635:C:/Workspace/DAVE-4.4.2-64Bit/optiga-trust-m/externals/mbedtls/library\ecp.c ****     mbedtls_mpi_free( &key->d );
 636:C:/Workspace/DAVE-4.4.2-64Bit/optiga-trust-m/externals/mbedtls/library\ecp.c ****     mbedtls_ecp_point_free( &key->Q );
 637:C:/Workspace/DAVE-4.4.2-64Bit/optiga-trust-m/externals/mbedtls/library\ecp.c **** }
 638:C:/Workspace/DAVE-4.4.2-64Bit/optiga-trust-m/externals/mbedtls/library\ecp.c **** 
 639:C:/Workspace/DAVE-4.4.2-64Bit/optiga-trust-m/externals/mbedtls/library\ecp.c **** /*
 640:C:/Workspace/DAVE-4.4.2-64Bit/optiga-trust-m/externals/mbedtls/library\ecp.c ****  * Copy the contents of a point
 641:C:/Workspace/DAVE-4.4.2-64Bit/optiga-trust-m/externals/mbedtls/library\ecp.c ****  */
 642:C:/Workspace/DAVE-4.4.2-64Bit/optiga-trust-m/externals/mbedtls/library\ecp.c **** int mbedtls_ecp_copy( mbedtls_ecp_point *P, const mbedtls_ecp_point *Q )
 643:C:/Workspace/DAVE-4.4.2-64Bit/optiga-trust-m/externals/mbedtls/library\ecp.c **** {
 644:C:/Workspace/DAVE-4.4.2-64Bit/optiga-trust-m/externals/mbedtls/library\ecp.c ****     int ret;
 645:C:/Workspace/DAVE-4.4.2-64Bit/optiga-trust-m/externals/mbedtls/library\ecp.c ****     ECP_VALIDATE_RET( P != NULL );
 646:C:/Workspace/DAVE-4.4.2-64Bit/optiga-trust-m/externals/mbedtls/library\ecp.c ****     ECP_VALIDATE_RET( Q != NULL );
 647:C:/Workspace/DAVE-4.4.2-64Bit/optiga-trust-m/externals/mbedtls/library\ecp.c **** 
 648:C:/Workspace/DAVE-4.4.2-64Bit/optiga-trust-m/externals/mbedtls/library\ecp.c ****     MBEDTLS_MPI_CHK( mbedtls_mpi_copy( &P->X, &Q->X ) );
 649:C:/Workspace/DAVE-4.4.2-64Bit/optiga-trust-m/externals/mbedtls/library\ecp.c ****     MBEDTLS_MPI_CHK( mbedtls_mpi_copy( &P->Y, &Q->Y ) );
 650:C:/Workspace/DAVE-4.4.2-64Bit/optiga-trust-m/externals/mbedtls/library\ecp.c ****     MBEDTLS_MPI_CHK( mbedtls_mpi_copy( &P->Z, &Q->Z ) );
 651:C:/Workspace/DAVE-4.4.2-64Bit/optiga-trust-m/externals/mbedtls/library\ecp.c **** 
 652:C:/Workspace/DAVE-4.4.2-64Bit/optiga-trust-m/externals/mbedtls/library\ecp.c **** cleanup:
 653:C:/Workspace/DAVE-4.4.2-64Bit/optiga-trust-m/externals/mbedtls/library\ecp.c ****     return( ret );
 654:C:/Workspace/DAVE-4.4.2-64Bit/optiga-trust-m/externals/mbedtls/library\ecp.c **** }
 655:C:/Workspace/DAVE-4.4.2-64Bit/optiga-trust-m/externals/mbedtls/library\ecp.c **** 
 656:C:/Workspace/DAVE-4.4.2-64Bit/optiga-trust-m/externals/mbedtls/library\ecp.c **** /*
 657:C:/Workspace/DAVE-4.4.2-64Bit/optiga-trust-m/externals/mbedtls/library\ecp.c ****  * Copy the contents of a group object
 658:C:/Workspace/DAVE-4.4.2-64Bit/optiga-trust-m/externals/mbedtls/library\ecp.c ****  */
 659:C:/Workspace/DAVE-4.4.2-64Bit/optiga-trust-m/externals/mbedtls/library\ecp.c **** int mbedtls_ecp_group_copy( mbedtls_ecp_group *dst, const mbedtls_ecp_group *src )
 660:C:/Workspace/DAVE-4.4.2-64Bit/optiga-trust-m/externals/mbedtls/library\ecp.c **** {
 661:C:/Workspace/DAVE-4.4.2-64Bit/optiga-trust-m/externals/mbedtls/library\ecp.c ****     ECP_VALIDATE_RET( dst != NULL );
 662:C:/Workspace/DAVE-4.4.2-64Bit/optiga-trust-m/externals/mbedtls/library\ecp.c ****     ECP_VALIDATE_RET( src != NULL );
 663:C:/Workspace/DAVE-4.4.2-64Bit/optiga-trust-m/externals/mbedtls/library\ecp.c **** 
 664:C:/Workspace/DAVE-4.4.2-64Bit/optiga-trust-m/externals/mbedtls/library\ecp.c ****     return( mbedtls_ecp_group_load( dst, src->id ) );
 665:C:/Workspace/DAVE-4.4.2-64Bit/optiga-trust-m/externals/mbedtls/library\ecp.c **** }
 666:C:/Workspace/DAVE-4.4.2-64Bit/optiga-trust-m/externals/mbedtls/library\ecp.c **** 
 667:C:/Workspace/DAVE-4.4.2-64Bit/optiga-trust-m/externals/mbedtls/library\ecp.c **** /*
 668:C:/Workspace/DAVE-4.4.2-64Bit/optiga-trust-m/externals/mbedtls/library\ecp.c ****  * Set point to zero
 669:C:/Workspace/DAVE-4.4.2-64Bit/optiga-trust-m/externals/mbedtls/library\ecp.c ****  */
 670:C:/Workspace/DAVE-4.4.2-64Bit/optiga-trust-m/externals/mbedtls/library\ecp.c **** int mbedtls_ecp_set_zero( mbedtls_ecp_point *pt )
 671:C:/Workspace/DAVE-4.4.2-64Bit/optiga-trust-m/externals/mbedtls/library\ecp.c **** {
 672:C:/Workspace/DAVE-4.4.2-64Bit/optiga-trust-m/externals/mbedtls/library\ecp.c ****     int ret;
 673:C:/Workspace/DAVE-4.4.2-64Bit/optiga-trust-m/externals/mbedtls/library\ecp.c ****     ECP_VALIDATE_RET( pt != NULL );
 674:C:/Workspace/DAVE-4.4.2-64Bit/optiga-trust-m/externals/mbedtls/library\ecp.c **** 
 675:C:/Workspace/DAVE-4.4.2-64Bit/optiga-trust-m/externals/mbedtls/library\ecp.c ****     MBEDTLS_MPI_CHK( mbedtls_mpi_lset( &pt->X , 1 ) );
 676:C:/Workspace/DAVE-4.4.2-64Bit/optiga-trust-m/externals/mbedtls/library\ecp.c ****     MBEDTLS_MPI_CHK( mbedtls_mpi_lset( &pt->Y , 1 ) );
 677:C:/Workspace/DAVE-4.4.2-64Bit/optiga-trust-m/externals/mbedtls/library\ecp.c ****     MBEDTLS_MPI_CHK( mbedtls_mpi_lset( &pt->Z , 0 ) );
 678:C:/Workspace/DAVE-4.4.2-64Bit/optiga-trust-m/externals/mbedtls/library\ecp.c **** 
 679:C:/Workspace/DAVE-4.4.2-64Bit/optiga-trust-m/externals/mbedtls/library\ecp.c **** cleanup:
 680:C:/Workspace/DAVE-4.4.2-64Bit/optiga-trust-m/externals/mbedtls/library\ecp.c ****     return( ret );
 681:C:/Workspace/DAVE-4.4.2-64Bit/optiga-trust-m/externals/mbedtls/library\ecp.c **** }
 682:C:/Workspace/DAVE-4.4.2-64Bit/optiga-trust-m/externals/mbedtls/library\ecp.c **** 
 683:C:/Workspace/DAVE-4.4.2-64Bit/optiga-trust-m/externals/mbedtls/library\ecp.c **** /*
 684:C:/Workspace/DAVE-4.4.2-64Bit/optiga-trust-m/externals/mbedtls/library\ecp.c ****  * Tell if a point is zero
 685:C:/Workspace/DAVE-4.4.2-64Bit/optiga-trust-m/externals/mbedtls/library\ecp.c ****  */
 686:C:/Workspace/DAVE-4.4.2-64Bit/optiga-trust-m/externals/mbedtls/library\ecp.c **** int mbedtls_ecp_is_zero( mbedtls_ecp_point *pt )
 687:C:/Workspace/DAVE-4.4.2-64Bit/optiga-trust-m/externals/mbedtls/library\ecp.c **** {
 688:C:/Workspace/DAVE-4.4.2-64Bit/optiga-trust-m/externals/mbedtls/library\ecp.c ****     ECP_VALIDATE_RET( pt != NULL );
 689:C:/Workspace/DAVE-4.4.2-64Bit/optiga-trust-m/externals/mbedtls/library\ecp.c **** 
 690:C:/Workspace/DAVE-4.4.2-64Bit/optiga-trust-m/externals/mbedtls/library\ecp.c ****     return( mbedtls_mpi_cmp_int( &pt->Z, 0 ) == 0 );
 691:C:/Workspace/DAVE-4.4.2-64Bit/optiga-trust-m/externals/mbedtls/library\ecp.c **** }
 692:C:/Workspace/DAVE-4.4.2-64Bit/optiga-trust-m/externals/mbedtls/library\ecp.c **** 
 693:C:/Workspace/DAVE-4.4.2-64Bit/optiga-trust-m/externals/mbedtls/library\ecp.c **** /*
 694:C:/Workspace/DAVE-4.4.2-64Bit/optiga-trust-m/externals/mbedtls/library\ecp.c ****  * Compare two points lazily
 695:C:/Workspace/DAVE-4.4.2-64Bit/optiga-trust-m/externals/mbedtls/library\ecp.c ****  */
 696:C:/Workspace/DAVE-4.4.2-64Bit/optiga-trust-m/externals/mbedtls/library\ecp.c **** int mbedtls_ecp_point_cmp( const mbedtls_ecp_point *P,
 697:C:/Workspace/DAVE-4.4.2-64Bit/optiga-trust-m/externals/mbedtls/library\ecp.c ****                            const mbedtls_ecp_point *Q )
 698:C:/Workspace/DAVE-4.4.2-64Bit/optiga-trust-m/externals/mbedtls/library\ecp.c **** {
 699:C:/Workspace/DAVE-4.4.2-64Bit/optiga-trust-m/externals/mbedtls/library\ecp.c ****     ECP_VALIDATE_RET( P != NULL );
 700:C:/Workspace/DAVE-4.4.2-64Bit/optiga-trust-m/externals/mbedtls/library\ecp.c ****     ECP_VALIDATE_RET( Q != NULL );
 701:C:/Workspace/DAVE-4.4.2-64Bit/optiga-trust-m/externals/mbedtls/library\ecp.c **** 
 702:C:/Workspace/DAVE-4.4.2-64Bit/optiga-trust-m/externals/mbedtls/library\ecp.c ****     if( mbedtls_mpi_cmp_mpi( &P->X, &Q->X ) == 0 &&
 703:C:/Workspace/DAVE-4.4.2-64Bit/optiga-trust-m/externals/mbedtls/library\ecp.c ****         mbedtls_mpi_cmp_mpi( &P->Y, &Q->Y ) == 0 &&
 704:C:/Workspace/DAVE-4.4.2-64Bit/optiga-trust-m/externals/mbedtls/library\ecp.c ****         mbedtls_mpi_cmp_mpi( &P->Z, &Q->Z ) == 0 )
 705:C:/Workspace/DAVE-4.4.2-64Bit/optiga-trust-m/externals/mbedtls/library\ecp.c ****     {
 706:C:/Workspace/DAVE-4.4.2-64Bit/optiga-trust-m/externals/mbedtls/library\ecp.c ****         return( 0 );
 707:C:/Workspace/DAVE-4.4.2-64Bit/optiga-trust-m/externals/mbedtls/library\ecp.c ****     }
 708:C:/Workspace/DAVE-4.4.2-64Bit/optiga-trust-m/externals/mbedtls/library\ecp.c **** 
 709:C:/Workspace/DAVE-4.4.2-64Bit/optiga-trust-m/externals/mbedtls/library\ecp.c ****     return( MBEDTLS_ERR_ECP_BAD_INPUT_DATA );
 710:C:/Workspace/DAVE-4.4.2-64Bit/optiga-trust-m/externals/mbedtls/library\ecp.c **** }
 711:C:/Workspace/DAVE-4.4.2-64Bit/optiga-trust-m/externals/mbedtls/library\ecp.c **** 
 712:C:/Workspace/DAVE-4.4.2-64Bit/optiga-trust-m/externals/mbedtls/library\ecp.c **** /*
 713:C:/Workspace/DAVE-4.4.2-64Bit/optiga-trust-m/externals/mbedtls/library\ecp.c ****  * Import a non-zero point from ASCII strings
 714:C:/Workspace/DAVE-4.4.2-64Bit/optiga-trust-m/externals/mbedtls/library\ecp.c ****  */
 715:C:/Workspace/DAVE-4.4.2-64Bit/optiga-trust-m/externals/mbedtls/library\ecp.c **** int mbedtls_ecp_point_read_string( mbedtls_ecp_point *P, int radix,
 716:C:/Workspace/DAVE-4.4.2-64Bit/optiga-trust-m/externals/mbedtls/library\ecp.c ****                            const char *x, const char *y )
 717:C:/Workspace/DAVE-4.4.2-64Bit/optiga-trust-m/externals/mbedtls/library\ecp.c **** {
 718:C:/Workspace/DAVE-4.4.2-64Bit/optiga-trust-m/externals/mbedtls/library\ecp.c ****     int ret;
 719:C:/Workspace/DAVE-4.4.2-64Bit/optiga-trust-m/externals/mbedtls/library\ecp.c ****     ECP_VALIDATE_RET( P != NULL );
 720:C:/Workspace/DAVE-4.4.2-64Bit/optiga-trust-m/externals/mbedtls/library\ecp.c ****     ECP_VALIDATE_RET( x != NULL );
 721:C:/Workspace/DAVE-4.4.2-64Bit/optiga-trust-m/externals/mbedtls/library\ecp.c ****     ECP_VALIDATE_RET( y != NULL );
 722:C:/Workspace/DAVE-4.4.2-64Bit/optiga-trust-m/externals/mbedtls/library\ecp.c **** 
 723:C:/Workspace/DAVE-4.4.2-64Bit/optiga-trust-m/externals/mbedtls/library\ecp.c ****     MBEDTLS_MPI_CHK( mbedtls_mpi_read_string( &P->X, radix, x ) );
 724:C:/Workspace/DAVE-4.4.2-64Bit/optiga-trust-m/externals/mbedtls/library\ecp.c ****     MBEDTLS_MPI_CHK( mbedtls_mpi_read_string( &P->Y, radix, y ) );
 725:C:/Workspace/DAVE-4.4.2-64Bit/optiga-trust-m/externals/mbedtls/library\ecp.c ****     MBEDTLS_MPI_CHK( mbedtls_mpi_lset( &P->Z, 1 ) );
 726:C:/Workspace/DAVE-4.4.2-64Bit/optiga-trust-m/externals/mbedtls/library\ecp.c **** 
 727:C:/Workspace/DAVE-4.4.2-64Bit/optiga-trust-m/externals/mbedtls/library\ecp.c **** cleanup:
 728:C:/Workspace/DAVE-4.4.2-64Bit/optiga-trust-m/externals/mbedtls/library\ecp.c ****     return( ret );
 729:C:/Workspace/DAVE-4.4.2-64Bit/optiga-trust-m/externals/mbedtls/library\ecp.c **** }
 730:C:/Workspace/DAVE-4.4.2-64Bit/optiga-trust-m/externals/mbedtls/library\ecp.c **** 
 731:C:/Workspace/DAVE-4.4.2-64Bit/optiga-trust-m/externals/mbedtls/library\ecp.c **** /*
 732:C:/Workspace/DAVE-4.4.2-64Bit/optiga-trust-m/externals/mbedtls/library\ecp.c ****  * Export a point into unsigned binary data (SEC1 2.3.3)
 733:C:/Workspace/DAVE-4.4.2-64Bit/optiga-trust-m/externals/mbedtls/library\ecp.c ****  */
 734:C:/Workspace/DAVE-4.4.2-64Bit/optiga-trust-m/externals/mbedtls/library\ecp.c **** int mbedtls_ecp_point_write_binary( const mbedtls_ecp_group *grp,
 735:C:/Workspace/DAVE-4.4.2-64Bit/optiga-trust-m/externals/mbedtls/library\ecp.c ****                                     const mbedtls_ecp_point *P,
 736:C:/Workspace/DAVE-4.4.2-64Bit/optiga-trust-m/externals/mbedtls/library\ecp.c ****                                     int format, size_t *olen,
 737:C:/Workspace/DAVE-4.4.2-64Bit/optiga-trust-m/externals/mbedtls/library\ecp.c ****                                     unsigned char *buf, size_t buflen )
 738:C:/Workspace/DAVE-4.4.2-64Bit/optiga-trust-m/externals/mbedtls/library\ecp.c **** {
 739:C:/Workspace/DAVE-4.4.2-64Bit/optiga-trust-m/externals/mbedtls/library\ecp.c ****     int ret = 0;
 740:C:/Workspace/DAVE-4.4.2-64Bit/optiga-trust-m/externals/mbedtls/library\ecp.c ****     size_t plen;
 741:C:/Workspace/DAVE-4.4.2-64Bit/optiga-trust-m/externals/mbedtls/library\ecp.c ****     ECP_VALIDATE_RET( grp  != NULL );
 742:C:/Workspace/DAVE-4.4.2-64Bit/optiga-trust-m/externals/mbedtls/library\ecp.c ****     ECP_VALIDATE_RET( P    != NULL );
 743:C:/Workspace/DAVE-4.4.2-64Bit/optiga-trust-m/externals/mbedtls/library\ecp.c ****     ECP_VALIDATE_RET( olen != NULL );
 744:C:/Workspace/DAVE-4.4.2-64Bit/optiga-trust-m/externals/mbedtls/library\ecp.c ****     ECP_VALIDATE_RET( buf  != NULL );
 745:C:/Workspace/DAVE-4.4.2-64Bit/optiga-trust-m/externals/mbedtls/library\ecp.c ****     ECP_VALIDATE_RET( format == MBEDTLS_ECP_PF_UNCOMPRESSED ||
 746:C:/Workspace/DAVE-4.4.2-64Bit/optiga-trust-m/externals/mbedtls/library\ecp.c ****                       format == MBEDTLS_ECP_PF_COMPRESSED );
 747:C:/Workspace/DAVE-4.4.2-64Bit/optiga-trust-m/externals/mbedtls/library\ecp.c **** 
 748:C:/Workspace/DAVE-4.4.2-64Bit/optiga-trust-m/externals/mbedtls/library\ecp.c ****     /*
 749:C:/Workspace/DAVE-4.4.2-64Bit/optiga-trust-m/externals/mbedtls/library\ecp.c ****      * Common case: P == 0
 750:C:/Workspace/DAVE-4.4.2-64Bit/optiga-trust-m/externals/mbedtls/library\ecp.c ****      */
 751:C:/Workspace/DAVE-4.4.2-64Bit/optiga-trust-m/externals/mbedtls/library\ecp.c ****     if( mbedtls_mpi_cmp_int( &P->Z, 0 ) == 0 )
 752:C:/Workspace/DAVE-4.4.2-64Bit/optiga-trust-m/externals/mbedtls/library\ecp.c ****     {
 753:C:/Workspace/DAVE-4.4.2-64Bit/optiga-trust-m/externals/mbedtls/library\ecp.c ****         if( buflen < 1 )
 754:C:/Workspace/DAVE-4.4.2-64Bit/optiga-trust-m/externals/mbedtls/library\ecp.c ****             return( MBEDTLS_ERR_ECP_BUFFER_TOO_SMALL );
 755:C:/Workspace/DAVE-4.4.2-64Bit/optiga-trust-m/externals/mbedtls/library\ecp.c **** 
 756:C:/Workspace/DAVE-4.4.2-64Bit/optiga-trust-m/externals/mbedtls/library\ecp.c ****         buf[0] = 0x00;
 757:C:/Workspace/DAVE-4.4.2-64Bit/optiga-trust-m/externals/mbedtls/library\ecp.c ****         *olen = 1;
 758:C:/Workspace/DAVE-4.4.2-64Bit/optiga-trust-m/externals/mbedtls/library\ecp.c **** 
 759:C:/Workspace/DAVE-4.4.2-64Bit/optiga-trust-m/externals/mbedtls/library\ecp.c ****         return( 0 );
 760:C:/Workspace/DAVE-4.4.2-64Bit/optiga-trust-m/externals/mbedtls/library\ecp.c ****     }
 761:C:/Workspace/DAVE-4.4.2-64Bit/optiga-trust-m/externals/mbedtls/library\ecp.c **** 
 762:C:/Workspace/DAVE-4.4.2-64Bit/optiga-trust-m/externals/mbedtls/library\ecp.c ****     plen = mbedtls_mpi_size( &grp->P );
 763:C:/Workspace/DAVE-4.4.2-64Bit/optiga-trust-m/externals/mbedtls/library\ecp.c **** 
 764:C:/Workspace/DAVE-4.4.2-64Bit/optiga-trust-m/externals/mbedtls/library\ecp.c ****     if( format == MBEDTLS_ECP_PF_UNCOMPRESSED )
 765:C:/Workspace/DAVE-4.4.2-64Bit/optiga-trust-m/externals/mbedtls/library\ecp.c ****     {
 766:C:/Workspace/DAVE-4.4.2-64Bit/optiga-trust-m/externals/mbedtls/library\ecp.c ****         *olen = 2 * plen + 1;
 767:C:/Workspace/DAVE-4.4.2-64Bit/optiga-trust-m/externals/mbedtls/library\ecp.c **** 
 768:C:/Workspace/DAVE-4.4.2-64Bit/optiga-trust-m/externals/mbedtls/library\ecp.c ****         if( buflen < *olen )
 769:C:/Workspace/DAVE-4.4.2-64Bit/optiga-trust-m/externals/mbedtls/library\ecp.c ****             return( MBEDTLS_ERR_ECP_BUFFER_TOO_SMALL );
 770:C:/Workspace/DAVE-4.4.2-64Bit/optiga-trust-m/externals/mbedtls/library\ecp.c **** 
 771:C:/Workspace/DAVE-4.4.2-64Bit/optiga-trust-m/externals/mbedtls/library\ecp.c ****         buf[0] = 0x04;
 772:C:/Workspace/DAVE-4.4.2-64Bit/optiga-trust-m/externals/mbedtls/library\ecp.c ****         MBEDTLS_MPI_CHK( mbedtls_mpi_write_binary( &P->X, buf + 1, plen ) );
 773:C:/Workspace/DAVE-4.4.2-64Bit/optiga-trust-m/externals/mbedtls/library\ecp.c ****         MBEDTLS_MPI_CHK( mbedtls_mpi_write_binary( &P->Y, buf + 1 + plen, plen ) );
 774:C:/Workspace/DAVE-4.4.2-64Bit/optiga-trust-m/externals/mbedtls/library\ecp.c ****     }
 775:C:/Workspace/DAVE-4.4.2-64Bit/optiga-trust-m/externals/mbedtls/library\ecp.c ****     else if( format == MBEDTLS_ECP_PF_COMPRESSED )
 776:C:/Workspace/DAVE-4.4.2-64Bit/optiga-trust-m/externals/mbedtls/library\ecp.c ****     {
 777:C:/Workspace/DAVE-4.4.2-64Bit/optiga-trust-m/externals/mbedtls/library\ecp.c ****         *olen = plen + 1;
 778:C:/Workspace/DAVE-4.4.2-64Bit/optiga-trust-m/externals/mbedtls/library\ecp.c **** 
 779:C:/Workspace/DAVE-4.4.2-64Bit/optiga-trust-m/externals/mbedtls/library\ecp.c ****         if( buflen < *olen )
 780:C:/Workspace/DAVE-4.4.2-64Bit/optiga-trust-m/externals/mbedtls/library\ecp.c ****             return( MBEDTLS_ERR_ECP_BUFFER_TOO_SMALL );
 781:C:/Workspace/DAVE-4.4.2-64Bit/optiga-trust-m/externals/mbedtls/library\ecp.c **** 
 782:C:/Workspace/DAVE-4.4.2-64Bit/optiga-trust-m/externals/mbedtls/library\ecp.c ****         buf[0] = 0x02 + mbedtls_mpi_get_bit( &P->Y, 0 );
 783:C:/Workspace/DAVE-4.4.2-64Bit/optiga-trust-m/externals/mbedtls/library\ecp.c ****         MBEDTLS_MPI_CHK( mbedtls_mpi_write_binary( &P->X, buf + 1, plen ) );
 784:C:/Workspace/DAVE-4.4.2-64Bit/optiga-trust-m/externals/mbedtls/library\ecp.c ****     }
 785:C:/Workspace/DAVE-4.4.2-64Bit/optiga-trust-m/externals/mbedtls/library\ecp.c **** 
 786:C:/Workspace/DAVE-4.4.2-64Bit/optiga-trust-m/externals/mbedtls/library\ecp.c **** cleanup:
 787:C:/Workspace/DAVE-4.4.2-64Bit/optiga-trust-m/externals/mbedtls/library\ecp.c ****     return( ret );
 788:C:/Workspace/DAVE-4.4.2-64Bit/optiga-trust-m/externals/mbedtls/library\ecp.c **** }
 789:C:/Workspace/DAVE-4.4.2-64Bit/optiga-trust-m/externals/mbedtls/library\ecp.c **** 
 790:C:/Workspace/DAVE-4.4.2-64Bit/optiga-trust-m/externals/mbedtls/library\ecp.c **** /*
 791:C:/Workspace/DAVE-4.4.2-64Bit/optiga-trust-m/externals/mbedtls/library\ecp.c ****  * Import a point from unsigned binary data (SEC1 2.3.4)
 792:C:/Workspace/DAVE-4.4.2-64Bit/optiga-trust-m/externals/mbedtls/library\ecp.c ****  */
 793:C:/Workspace/DAVE-4.4.2-64Bit/optiga-trust-m/externals/mbedtls/library\ecp.c **** int mbedtls_ecp_point_read_binary( const mbedtls_ecp_group *grp,
 794:C:/Workspace/DAVE-4.4.2-64Bit/optiga-trust-m/externals/mbedtls/library\ecp.c ****                                    mbedtls_ecp_point *pt,
 795:C:/Workspace/DAVE-4.4.2-64Bit/optiga-trust-m/externals/mbedtls/library\ecp.c ****                                    const unsigned char *buf, size_t ilen )
 796:C:/Workspace/DAVE-4.4.2-64Bit/optiga-trust-m/externals/mbedtls/library\ecp.c **** {
 797:C:/Workspace/DAVE-4.4.2-64Bit/optiga-trust-m/externals/mbedtls/library\ecp.c ****     int ret;
 798:C:/Workspace/DAVE-4.4.2-64Bit/optiga-trust-m/externals/mbedtls/library\ecp.c ****     size_t plen;
 799:C:/Workspace/DAVE-4.4.2-64Bit/optiga-trust-m/externals/mbedtls/library\ecp.c ****     ECP_VALIDATE_RET( grp != NULL );
 800:C:/Workspace/DAVE-4.4.2-64Bit/optiga-trust-m/externals/mbedtls/library\ecp.c ****     ECP_VALIDATE_RET( pt  != NULL );
 801:C:/Workspace/DAVE-4.4.2-64Bit/optiga-trust-m/externals/mbedtls/library\ecp.c ****     ECP_VALIDATE_RET( buf != NULL );
 802:C:/Workspace/DAVE-4.4.2-64Bit/optiga-trust-m/externals/mbedtls/library\ecp.c **** 
 803:C:/Workspace/DAVE-4.4.2-64Bit/optiga-trust-m/externals/mbedtls/library\ecp.c ****     if( ilen < 1 )
 804:C:/Workspace/DAVE-4.4.2-64Bit/optiga-trust-m/externals/mbedtls/library\ecp.c ****         return( MBEDTLS_ERR_ECP_BAD_INPUT_DATA );
 805:C:/Workspace/DAVE-4.4.2-64Bit/optiga-trust-m/externals/mbedtls/library\ecp.c **** 
 806:C:/Workspace/DAVE-4.4.2-64Bit/optiga-trust-m/externals/mbedtls/library\ecp.c ****     if( buf[0] == 0x00 )
 807:C:/Workspace/DAVE-4.4.2-64Bit/optiga-trust-m/externals/mbedtls/library\ecp.c ****     {
 808:C:/Workspace/DAVE-4.4.2-64Bit/optiga-trust-m/externals/mbedtls/library\ecp.c ****         if( ilen == 1 )
 809:C:/Workspace/DAVE-4.4.2-64Bit/optiga-trust-m/externals/mbedtls/library\ecp.c ****             return( mbedtls_ecp_set_zero( pt ) );
 810:C:/Workspace/DAVE-4.4.2-64Bit/optiga-trust-m/externals/mbedtls/library\ecp.c ****         else
 811:C:/Workspace/DAVE-4.4.2-64Bit/optiga-trust-m/externals/mbedtls/library\ecp.c ****             return( MBEDTLS_ERR_ECP_BAD_INPUT_DATA );
 812:C:/Workspace/DAVE-4.4.2-64Bit/optiga-trust-m/externals/mbedtls/library\ecp.c ****     }
 813:C:/Workspace/DAVE-4.4.2-64Bit/optiga-trust-m/externals/mbedtls/library\ecp.c **** 
 814:C:/Workspace/DAVE-4.4.2-64Bit/optiga-trust-m/externals/mbedtls/library\ecp.c ****     plen = mbedtls_mpi_size( &grp->P );
 815:C:/Workspace/DAVE-4.4.2-64Bit/optiga-trust-m/externals/mbedtls/library\ecp.c **** 
 816:C:/Workspace/DAVE-4.4.2-64Bit/optiga-trust-m/externals/mbedtls/library\ecp.c ****     if( buf[0] != 0x04 )
 817:C:/Workspace/DAVE-4.4.2-64Bit/optiga-trust-m/externals/mbedtls/library\ecp.c ****         return( MBEDTLS_ERR_ECP_FEATURE_UNAVAILABLE );
 818:C:/Workspace/DAVE-4.4.2-64Bit/optiga-trust-m/externals/mbedtls/library\ecp.c **** 
 819:C:/Workspace/DAVE-4.4.2-64Bit/optiga-trust-m/externals/mbedtls/library\ecp.c ****     if( ilen != 2 * plen + 1 )
 820:C:/Workspace/DAVE-4.4.2-64Bit/optiga-trust-m/externals/mbedtls/library\ecp.c ****         return( MBEDTLS_ERR_ECP_BAD_INPUT_DATA );
 821:C:/Workspace/DAVE-4.4.2-64Bit/optiga-trust-m/externals/mbedtls/library\ecp.c **** 
 822:C:/Workspace/DAVE-4.4.2-64Bit/optiga-trust-m/externals/mbedtls/library\ecp.c ****     MBEDTLS_MPI_CHK( mbedtls_mpi_read_binary( &pt->X, buf + 1, plen ) );
 823:C:/Workspace/DAVE-4.4.2-64Bit/optiga-trust-m/externals/mbedtls/library\ecp.c ****     MBEDTLS_MPI_CHK( mbedtls_mpi_read_binary( &pt->Y, buf + 1 + plen, plen ) );
 824:C:/Workspace/DAVE-4.4.2-64Bit/optiga-trust-m/externals/mbedtls/library\ecp.c ****     MBEDTLS_MPI_CHK( mbedtls_mpi_lset( &pt->Z, 1 ) );
 825:C:/Workspace/DAVE-4.4.2-64Bit/optiga-trust-m/externals/mbedtls/library\ecp.c **** 
 826:C:/Workspace/DAVE-4.4.2-64Bit/optiga-trust-m/externals/mbedtls/library\ecp.c **** cleanup:
 827:C:/Workspace/DAVE-4.4.2-64Bit/optiga-trust-m/externals/mbedtls/library\ecp.c ****     return( ret );
 828:C:/Workspace/DAVE-4.4.2-64Bit/optiga-trust-m/externals/mbedtls/library\ecp.c **** }
 829:C:/Workspace/DAVE-4.4.2-64Bit/optiga-trust-m/externals/mbedtls/library\ecp.c **** 
 830:C:/Workspace/DAVE-4.4.2-64Bit/optiga-trust-m/externals/mbedtls/library\ecp.c **** /*
 831:C:/Workspace/DAVE-4.4.2-64Bit/optiga-trust-m/externals/mbedtls/library\ecp.c ****  * Import a point from a TLS ECPoint record (RFC 4492)
 832:C:/Workspace/DAVE-4.4.2-64Bit/optiga-trust-m/externals/mbedtls/library\ecp.c ****  *      struct {
 833:C:/Workspace/DAVE-4.4.2-64Bit/optiga-trust-m/externals/mbedtls/library\ecp.c ****  *          opaque point <1..2^8-1>;
 834:C:/Workspace/DAVE-4.4.2-64Bit/optiga-trust-m/externals/mbedtls/library\ecp.c ****  *      } ECPoint;
 835:C:/Workspace/DAVE-4.4.2-64Bit/optiga-trust-m/externals/mbedtls/library\ecp.c ****  */
 836:C:/Workspace/DAVE-4.4.2-64Bit/optiga-trust-m/externals/mbedtls/library\ecp.c **** int mbedtls_ecp_tls_read_point( const mbedtls_ecp_group *grp,
 837:C:/Workspace/DAVE-4.4.2-64Bit/optiga-trust-m/externals/mbedtls/library\ecp.c ****                                 mbedtls_ecp_point *pt,
 838:C:/Workspace/DAVE-4.4.2-64Bit/optiga-trust-m/externals/mbedtls/library\ecp.c ****                                 const unsigned char **buf, size_t buf_len )
 839:C:/Workspace/DAVE-4.4.2-64Bit/optiga-trust-m/externals/mbedtls/library\ecp.c **** {
 840:C:/Workspace/DAVE-4.4.2-64Bit/optiga-trust-m/externals/mbedtls/library\ecp.c ****     unsigned char data_len;
 841:C:/Workspace/DAVE-4.4.2-64Bit/optiga-trust-m/externals/mbedtls/library\ecp.c ****     const unsigned char *buf_start;
 842:C:/Workspace/DAVE-4.4.2-64Bit/optiga-trust-m/externals/mbedtls/library\ecp.c ****     ECP_VALIDATE_RET( grp != NULL );
 843:C:/Workspace/DAVE-4.4.2-64Bit/optiga-trust-m/externals/mbedtls/library\ecp.c ****     ECP_VALIDATE_RET( pt  != NULL );
 844:C:/Workspace/DAVE-4.4.2-64Bit/optiga-trust-m/externals/mbedtls/library\ecp.c ****     ECP_VALIDATE_RET( buf != NULL );
 845:C:/Workspace/DAVE-4.4.2-64Bit/optiga-trust-m/externals/mbedtls/library\ecp.c ****     ECP_VALIDATE_RET( *buf != NULL );
 846:C:/Workspace/DAVE-4.4.2-64Bit/optiga-trust-m/externals/mbedtls/library\ecp.c **** 
 847:C:/Workspace/DAVE-4.4.2-64Bit/optiga-trust-m/externals/mbedtls/library\ecp.c ****     /*
 848:C:/Workspace/DAVE-4.4.2-64Bit/optiga-trust-m/externals/mbedtls/library\ecp.c ****      * We must have at least two bytes (1 for length, at least one for data)
 849:C:/Workspace/DAVE-4.4.2-64Bit/optiga-trust-m/externals/mbedtls/library\ecp.c ****      */
 850:C:/Workspace/DAVE-4.4.2-64Bit/optiga-trust-m/externals/mbedtls/library\ecp.c ****     if( buf_len < 2 )
 851:C:/Workspace/DAVE-4.4.2-64Bit/optiga-trust-m/externals/mbedtls/library\ecp.c ****         return( MBEDTLS_ERR_ECP_BAD_INPUT_DATA );
 852:C:/Workspace/DAVE-4.4.2-64Bit/optiga-trust-m/externals/mbedtls/library\ecp.c **** 
 853:C:/Workspace/DAVE-4.4.2-64Bit/optiga-trust-m/externals/mbedtls/library\ecp.c ****     data_len = *(*buf)++;
 854:C:/Workspace/DAVE-4.4.2-64Bit/optiga-trust-m/externals/mbedtls/library\ecp.c ****     if( data_len < 1 || data_len > buf_len - 1 )
 855:C:/Workspace/DAVE-4.4.2-64Bit/optiga-trust-m/externals/mbedtls/library\ecp.c ****         return( MBEDTLS_ERR_ECP_BAD_INPUT_DATA );
 856:C:/Workspace/DAVE-4.4.2-64Bit/optiga-trust-m/externals/mbedtls/library\ecp.c **** 
 857:C:/Workspace/DAVE-4.4.2-64Bit/optiga-trust-m/externals/mbedtls/library\ecp.c ****     /*
 858:C:/Workspace/DAVE-4.4.2-64Bit/optiga-trust-m/externals/mbedtls/library\ecp.c ****      * Save buffer start for read_binary and update buf
 859:C:/Workspace/DAVE-4.4.2-64Bit/optiga-trust-m/externals/mbedtls/library\ecp.c ****      */
 860:C:/Workspace/DAVE-4.4.2-64Bit/optiga-trust-m/externals/mbedtls/library\ecp.c ****     buf_start = *buf;
 861:C:/Workspace/DAVE-4.4.2-64Bit/optiga-trust-m/externals/mbedtls/library\ecp.c ****     *buf += data_len;
 862:C:/Workspace/DAVE-4.4.2-64Bit/optiga-trust-m/externals/mbedtls/library\ecp.c **** 
 863:C:/Workspace/DAVE-4.4.2-64Bit/optiga-trust-m/externals/mbedtls/library\ecp.c ****     return( mbedtls_ecp_point_read_binary( grp, pt, buf_start, data_len ) );
 864:C:/Workspace/DAVE-4.4.2-64Bit/optiga-trust-m/externals/mbedtls/library\ecp.c **** }
 865:C:/Workspace/DAVE-4.4.2-64Bit/optiga-trust-m/externals/mbedtls/library\ecp.c **** 
 866:C:/Workspace/DAVE-4.4.2-64Bit/optiga-trust-m/externals/mbedtls/library\ecp.c **** /*
 867:C:/Workspace/DAVE-4.4.2-64Bit/optiga-trust-m/externals/mbedtls/library\ecp.c ****  * Export a point as a TLS ECPoint record (RFC 4492)
 868:C:/Workspace/DAVE-4.4.2-64Bit/optiga-trust-m/externals/mbedtls/library\ecp.c ****  *      struct {
 869:C:/Workspace/DAVE-4.4.2-64Bit/optiga-trust-m/externals/mbedtls/library\ecp.c ****  *          opaque point <1..2^8-1>;
 870:C:/Workspace/DAVE-4.4.2-64Bit/optiga-trust-m/externals/mbedtls/library\ecp.c ****  *      } ECPoint;
 871:C:/Workspace/DAVE-4.4.2-64Bit/optiga-trust-m/externals/mbedtls/library\ecp.c ****  */
 872:C:/Workspace/DAVE-4.4.2-64Bit/optiga-trust-m/externals/mbedtls/library\ecp.c **** int mbedtls_ecp_tls_write_point( const mbedtls_ecp_group *grp, const mbedtls_ecp_point *pt,
 873:C:/Workspace/DAVE-4.4.2-64Bit/optiga-trust-m/externals/mbedtls/library\ecp.c ****                          int format, size_t *olen,
 874:C:/Workspace/DAVE-4.4.2-64Bit/optiga-trust-m/externals/mbedtls/library\ecp.c ****                          unsigned char *buf, size_t blen )
 875:C:/Workspace/DAVE-4.4.2-64Bit/optiga-trust-m/externals/mbedtls/library\ecp.c **** {
 876:C:/Workspace/DAVE-4.4.2-64Bit/optiga-trust-m/externals/mbedtls/library\ecp.c ****     int ret;
 877:C:/Workspace/DAVE-4.4.2-64Bit/optiga-trust-m/externals/mbedtls/library\ecp.c ****     ECP_VALIDATE_RET( grp  != NULL );
 878:C:/Workspace/DAVE-4.4.2-64Bit/optiga-trust-m/externals/mbedtls/library\ecp.c ****     ECP_VALIDATE_RET( pt   != NULL );
 879:C:/Workspace/DAVE-4.4.2-64Bit/optiga-trust-m/externals/mbedtls/library\ecp.c ****     ECP_VALIDATE_RET( olen != NULL );
 880:C:/Workspace/DAVE-4.4.2-64Bit/optiga-trust-m/externals/mbedtls/library\ecp.c ****     ECP_VALIDATE_RET( buf  != NULL );
 881:C:/Workspace/DAVE-4.4.2-64Bit/optiga-trust-m/externals/mbedtls/library\ecp.c ****     ECP_VALIDATE_RET( format == MBEDTLS_ECP_PF_UNCOMPRESSED ||
 882:C:/Workspace/DAVE-4.4.2-64Bit/optiga-trust-m/externals/mbedtls/library\ecp.c ****                       format == MBEDTLS_ECP_PF_COMPRESSED );
 883:C:/Workspace/DAVE-4.4.2-64Bit/optiga-trust-m/externals/mbedtls/library\ecp.c **** 
 884:C:/Workspace/DAVE-4.4.2-64Bit/optiga-trust-m/externals/mbedtls/library\ecp.c ****     /*
 885:C:/Workspace/DAVE-4.4.2-64Bit/optiga-trust-m/externals/mbedtls/library\ecp.c ****      * buffer length must be at least one, for our length byte
 886:C:/Workspace/DAVE-4.4.2-64Bit/optiga-trust-m/externals/mbedtls/library\ecp.c ****      */
 887:C:/Workspace/DAVE-4.4.2-64Bit/optiga-trust-m/externals/mbedtls/library\ecp.c ****     if( blen < 1 )
 888:C:/Workspace/DAVE-4.4.2-64Bit/optiga-trust-m/externals/mbedtls/library\ecp.c ****         return( MBEDTLS_ERR_ECP_BAD_INPUT_DATA );
 889:C:/Workspace/DAVE-4.4.2-64Bit/optiga-trust-m/externals/mbedtls/library\ecp.c **** 
 890:C:/Workspace/DAVE-4.4.2-64Bit/optiga-trust-m/externals/mbedtls/library\ecp.c ****     if( ( ret = mbedtls_ecp_point_write_binary( grp, pt, format,
 891:C:/Workspace/DAVE-4.4.2-64Bit/optiga-trust-m/externals/mbedtls/library\ecp.c ****                     olen, buf + 1, blen - 1) ) != 0 )
 892:C:/Workspace/DAVE-4.4.2-64Bit/optiga-trust-m/externals/mbedtls/library\ecp.c ****         return( ret );
 893:C:/Workspace/DAVE-4.4.2-64Bit/optiga-trust-m/externals/mbedtls/library\ecp.c **** 
 894:C:/Workspace/DAVE-4.4.2-64Bit/optiga-trust-m/externals/mbedtls/library\ecp.c ****     /*
 895:C:/Workspace/DAVE-4.4.2-64Bit/optiga-trust-m/externals/mbedtls/library\ecp.c ****      * write length to the first byte and update total length
 896:C:/Workspace/DAVE-4.4.2-64Bit/optiga-trust-m/externals/mbedtls/library\ecp.c ****      */
 897:C:/Workspace/DAVE-4.4.2-64Bit/optiga-trust-m/externals/mbedtls/library\ecp.c ****     buf[0] = (unsigned char) *olen;
 898:C:/Workspace/DAVE-4.4.2-64Bit/optiga-trust-m/externals/mbedtls/library\ecp.c ****     ++*olen;
 899:C:/Workspace/DAVE-4.4.2-64Bit/optiga-trust-m/externals/mbedtls/library\ecp.c **** 
 900:C:/Workspace/DAVE-4.4.2-64Bit/optiga-trust-m/externals/mbedtls/library\ecp.c ****     return( 0 );
 901:C:/Workspace/DAVE-4.4.2-64Bit/optiga-trust-m/externals/mbedtls/library\ecp.c **** }
 902:C:/Workspace/DAVE-4.4.2-64Bit/optiga-trust-m/externals/mbedtls/library\ecp.c **** 
 903:C:/Workspace/DAVE-4.4.2-64Bit/optiga-trust-m/externals/mbedtls/library\ecp.c **** /*
 904:C:/Workspace/DAVE-4.4.2-64Bit/optiga-trust-m/externals/mbedtls/library\ecp.c ****  * Set a group from an ECParameters record (RFC 4492)
 905:C:/Workspace/DAVE-4.4.2-64Bit/optiga-trust-m/externals/mbedtls/library\ecp.c ****  */
 906:C:/Workspace/DAVE-4.4.2-64Bit/optiga-trust-m/externals/mbedtls/library\ecp.c **** int mbedtls_ecp_tls_read_group( mbedtls_ecp_group *grp,
 907:C:/Workspace/DAVE-4.4.2-64Bit/optiga-trust-m/externals/mbedtls/library\ecp.c ****                                 const unsigned char **buf, size_t len )
 908:C:/Workspace/DAVE-4.4.2-64Bit/optiga-trust-m/externals/mbedtls/library\ecp.c **** {
 909:C:/Workspace/DAVE-4.4.2-64Bit/optiga-trust-m/externals/mbedtls/library\ecp.c ****     int ret;
 910:C:/Workspace/DAVE-4.4.2-64Bit/optiga-trust-m/externals/mbedtls/library\ecp.c ****     mbedtls_ecp_group_id grp_id;
 911:C:/Workspace/DAVE-4.4.2-64Bit/optiga-trust-m/externals/mbedtls/library\ecp.c ****     ECP_VALIDATE_RET( grp  != NULL );
 912:C:/Workspace/DAVE-4.4.2-64Bit/optiga-trust-m/externals/mbedtls/library\ecp.c ****     ECP_VALIDATE_RET( buf  != NULL );
 913:C:/Workspace/DAVE-4.4.2-64Bit/optiga-trust-m/externals/mbedtls/library\ecp.c ****     ECP_VALIDATE_RET( *buf != NULL );
 914:C:/Workspace/DAVE-4.4.2-64Bit/optiga-trust-m/externals/mbedtls/library\ecp.c **** 
 915:C:/Workspace/DAVE-4.4.2-64Bit/optiga-trust-m/externals/mbedtls/library\ecp.c ****     if( ( ret = mbedtls_ecp_tls_read_group_id( &grp_id, buf, len ) ) != 0 )
 916:C:/Workspace/DAVE-4.4.2-64Bit/optiga-trust-m/externals/mbedtls/library\ecp.c ****         return( ret );
 917:C:/Workspace/DAVE-4.4.2-64Bit/optiga-trust-m/externals/mbedtls/library\ecp.c **** 
 918:C:/Workspace/DAVE-4.4.2-64Bit/optiga-trust-m/externals/mbedtls/library\ecp.c ****     return( mbedtls_ecp_group_load( grp, grp_id ) );
 919:C:/Workspace/DAVE-4.4.2-64Bit/optiga-trust-m/externals/mbedtls/library\ecp.c **** }
 920:C:/Workspace/DAVE-4.4.2-64Bit/optiga-trust-m/externals/mbedtls/library\ecp.c **** 
 921:C:/Workspace/DAVE-4.4.2-64Bit/optiga-trust-m/externals/mbedtls/library\ecp.c **** /*
 922:C:/Workspace/DAVE-4.4.2-64Bit/optiga-trust-m/externals/mbedtls/library\ecp.c ****  * Read a group id from an ECParameters record (RFC 4492) and convert it to
 923:C:/Workspace/DAVE-4.4.2-64Bit/optiga-trust-m/externals/mbedtls/library\ecp.c ****  * mbedtls_ecp_group_id.
 924:C:/Workspace/DAVE-4.4.2-64Bit/optiga-trust-m/externals/mbedtls/library\ecp.c ****  */
 925:C:/Workspace/DAVE-4.4.2-64Bit/optiga-trust-m/externals/mbedtls/library\ecp.c **** int mbedtls_ecp_tls_read_group_id( mbedtls_ecp_group_id *grp,
 926:C:/Workspace/DAVE-4.4.2-64Bit/optiga-trust-m/externals/mbedtls/library\ecp.c ****                                    const unsigned char **buf, size_t len )
 927:C:/Workspace/DAVE-4.4.2-64Bit/optiga-trust-m/externals/mbedtls/library\ecp.c **** {
 928:C:/Workspace/DAVE-4.4.2-64Bit/optiga-trust-m/externals/mbedtls/library\ecp.c ****     uint16_t tls_id;
 929:C:/Workspace/DAVE-4.4.2-64Bit/optiga-trust-m/externals/mbedtls/library\ecp.c ****     const mbedtls_ecp_curve_info *curve_info;
 930:C:/Workspace/DAVE-4.4.2-64Bit/optiga-trust-m/externals/mbedtls/library\ecp.c ****     ECP_VALIDATE_RET( grp  != NULL );
 931:C:/Workspace/DAVE-4.4.2-64Bit/optiga-trust-m/externals/mbedtls/library\ecp.c ****     ECP_VALIDATE_RET( buf  != NULL );
 932:C:/Workspace/DAVE-4.4.2-64Bit/optiga-trust-m/externals/mbedtls/library\ecp.c ****     ECP_VALIDATE_RET( *buf != NULL );
 933:C:/Workspace/DAVE-4.4.2-64Bit/optiga-trust-m/externals/mbedtls/library\ecp.c **** 
 934:C:/Workspace/DAVE-4.4.2-64Bit/optiga-trust-m/externals/mbedtls/library\ecp.c ****     /*
 935:C:/Workspace/DAVE-4.4.2-64Bit/optiga-trust-m/externals/mbedtls/library\ecp.c ****      * We expect at least three bytes (see below)
 936:C:/Workspace/DAVE-4.4.2-64Bit/optiga-trust-m/externals/mbedtls/library\ecp.c ****      */
 937:C:/Workspace/DAVE-4.4.2-64Bit/optiga-trust-m/externals/mbedtls/library\ecp.c ****     if( len < 3 )
 938:C:/Workspace/DAVE-4.4.2-64Bit/optiga-trust-m/externals/mbedtls/library\ecp.c ****         return( MBEDTLS_ERR_ECP_BAD_INPUT_DATA );
 939:C:/Workspace/DAVE-4.4.2-64Bit/optiga-trust-m/externals/mbedtls/library\ecp.c **** 
 940:C:/Workspace/DAVE-4.4.2-64Bit/optiga-trust-m/externals/mbedtls/library\ecp.c ****     /*
 941:C:/Workspace/DAVE-4.4.2-64Bit/optiga-trust-m/externals/mbedtls/library\ecp.c ****      * First byte is curve_type; only named_curve is handled
 942:C:/Workspace/DAVE-4.4.2-64Bit/optiga-trust-m/externals/mbedtls/library\ecp.c ****      */
 943:C:/Workspace/DAVE-4.4.2-64Bit/optiga-trust-m/externals/mbedtls/library\ecp.c ****     if( *(*buf)++ != MBEDTLS_ECP_TLS_NAMED_CURVE )
 944:C:/Workspace/DAVE-4.4.2-64Bit/optiga-trust-m/externals/mbedtls/library\ecp.c ****         return( MBEDTLS_ERR_ECP_BAD_INPUT_DATA );
 945:C:/Workspace/DAVE-4.4.2-64Bit/optiga-trust-m/externals/mbedtls/library\ecp.c **** 
 946:C:/Workspace/DAVE-4.4.2-64Bit/optiga-trust-m/externals/mbedtls/library\ecp.c ****     /*
 947:C:/Workspace/DAVE-4.4.2-64Bit/optiga-trust-m/externals/mbedtls/library\ecp.c ****      * Next two bytes are the namedcurve value
 948:C:/Workspace/DAVE-4.4.2-64Bit/optiga-trust-m/externals/mbedtls/library\ecp.c ****      */
 949:C:/Workspace/DAVE-4.4.2-64Bit/optiga-trust-m/externals/mbedtls/library\ecp.c ****     tls_id = *(*buf)++;
 950:C:/Workspace/DAVE-4.4.2-64Bit/optiga-trust-m/externals/mbedtls/library\ecp.c ****     tls_id <<= 8;
 951:C:/Workspace/DAVE-4.4.2-64Bit/optiga-trust-m/externals/mbedtls/library\ecp.c ****     tls_id |= *(*buf)++;
 952:C:/Workspace/DAVE-4.4.2-64Bit/optiga-trust-m/externals/mbedtls/library\ecp.c **** 
 953:C:/Workspace/DAVE-4.4.2-64Bit/optiga-trust-m/externals/mbedtls/library\ecp.c ****     if( ( curve_info = mbedtls_ecp_curve_info_from_tls_id( tls_id ) ) == NULL )
 954:C:/Workspace/DAVE-4.4.2-64Bit/optiga-trust-m/externals/mbedtls/library\ecp.c ****         return( MBEDTLS_ERR_ECP_FEATURE_UNAVAILABLE );
 955:C:/Workspace/DAVE-4.4.2-64Bit/optiga-trust-m/externals/mbedtls/library\ecp.c **** 
 956:C:/Workspace/DAVE-4.4.2-64Bit/optiga-trust-m/externals/mbedtls/library\ecp.c ****     *grp = curve_info->grp_id;
 957:C:/Workspace/DAVE-4.4.2-64Bit/optiga-trust-m/externals/mbedtls/library\ecp.c **** 
 958:C:/Workspace/DAVE-4.4.2-64Bit/optiga-trust-m/externals/mbedtls/library\ecp.c ****     return( 0 );
 959:C:/Workspace/DAVE-4.4.2-64Bit/optiga-trust-m/externals/mbedtls/library\ecp.c **** }
 960:C:/Workspace/DAVE-4.4.2-64Bit/optiga-trust-m/externals/mbedtls/library\ecp.c **** 
 961:C:/Workspace/DAVE-4.4.2-64Bit/optiga-trust-m/externals/mbedtls/library\ecp.c **** /*
 962:C:/Workspace/DAVE-4.4.2-64Bit/optiga-trust-m/externals/mbedtls/library\ecp.c ****  * Write the ECParameters record corresponding to a group (RFC 4492)
 963:C:/Workspace/DAVE-4.4.2-64Bit/optiga-trust-m/externals/mbedtls/library\ecp.c ****  */
 964:C:/Workspace/DAVE-4.4.2-64Bit/optiga-trust-m/externals/mbedtls/library\ecp.c **** int mbedtls_ecp_tls_write_group( const mbedtls_ecp_group *grp, size_t *olen,
 965:C:/Workspace/DAVE-4.4.2-64Bit/optiga-trust-m/externals/mbedtls/library\ecp.c ****                          unsigned char *buf, size_t blen )
 966:C:/Workspace/DAVE-4.4.2-64Bit/optiga-trust-m/externals/mbedtls/library\ecp.c **** {
 967:C:/Workspace/DAVE-4.4.2-64Bit/optiga-trust-m/externals/mbedtls/library\ecp.c ****     const mbedtls_ecp_curve_info *curve_info;
 968:C:/Workspace/DAVE-4.4.2-64Bit/optiga-trust-m/externals/mbedtls/library\ecp.c ****     ECP_VALIDATE_RET( grp  != NULL );
 969:C:/Workspace/DAVE-4.4.2-64Bit/optiga-trust-m/externals/mbedtls/library\ecp.c ****     ECP_VALIDATE_RET( buf  != NULL );
 970:C:/Workspace/DAVE-4.4.2-64Bit/optiga-trust-m/externals/mbedtls/library\ecp.c ****     ECP_VALIDATE_RET( olen != NULL );
 971:C:/Workspace/DAVE-4.4.2-64Bit/optiga-trust-m/externals/mbedtls/library\ecp.c **** 
 972:C:/Workspace/DAVE-4.4.2-64Bit/optiga-trust-m/externals/mbedtls/library\ecp.c ****     if( ( curve_info = mbedtls_ecp_curve_info_from_grp_id( grp->id ) ) == NULL )
 973:C:/Workspace/DAVE-4.4.2-64Bit/optiga-trust-m/externals/mbedtls/library\ecp.c ****         return( MBEDTLS_ERR_ECP_BAD_INPUT_DATA );
 974:C:/Workspace/DAVE-4.4.2-64Bit/optiga-trust-m/externals/mbedtls/library\ecp.c **** 
 975:C:/Workspace/DAVE-4.4.2-64Bit/optiga-trust-m/externals/mbedtls/library\ecp.c ****     /*
 976:C:/Workspace/DAVE-4.4.2-64Bit/optiga-trust-m/externals/mbedtls/library\ecp.c ****      * We are going to write 3 bytes (see below)
 977:C:/Workspace/DAVE-4.4.2-64Bit/optiga-trust-m/externals/mbedtls/library\ecp.c ****      */
 978:C:/Workspace/DAVE-4.4.2-64Bit/optiga-trust-m/externals/mbedtls/library\ecp.c ****     *olen = 3;
 979:C:/Workspace/DAVE-4.4.2-64Bit/optiga-trust-m/externals/mbedtls/library\ecp.c ****     if( blen < *olen )
 980:C:/Workspace/DAVE-4.4.2-64Bit/optiga-trust-m/externals/mbedtls/library\ecp.c ****         return( MBEDTLS_ERR_ECP_BUFFER_TOO_SMALL );
 981:C:/Workspace/DAVE-4.4.2-64Bit/optiga-trust-m/externals/mbedtls/library\ecp.c **** 
 982:C:/Workspace/DAVE-4.4.2-64Bit/optiga-trust-m/externals/mbedtls/library\ecp.c ****     /*
 983:C:/Workspace/DAVE-4.4.2-64Bit/optiga-trust-m/externals/mbedtls/library\ecp.c ****      * First byte is curve_type, always named_curve
 984:C:/Workspace/DAVE-4.4.2-64Bit/optiga-trust-m/externals/mbedtls/library\ecp.c ****      */
 985:C:/Workspace/DAVE-4.4.2-64Bit/optiga-trust-m/externals/mbedtls/library\ecp.c ****     *buf++ = MBEDTLS_ECP_TLS_NAMED_CURVE;
 986:C:/Workspace/DAVE-4.4.2-64Bit/optiga-trust-m/externals/mbedtls/library\ecp.c **** 
 987:C:/Workspace/DAVE-4.4.2-64Bit/optiga-trust-m/externals/mbedtls/library\ecp.c ****     /*
 988:C:/Workspace/DAVE-4.4.2-64Bit/optiga-trust-m/externals/mbedtls/library\ecp.c ****      * Next two bytes are the namedcurve value
 989:C:/Workspace/DAVE-4.4.2-64Bit/optiga-trust-m/externals/mbedtls/library\ecp.c ****      */
 990:C:/Workspace/DAVE-4.4.2-64Bit/optiga-trust-m/externals/mbedtls/library\ecp.c ****     buf[0] = curve_info->tls_id >> 8;
 991:C:/Workspace/DAVE-4.4.2-64Bit/optiga-trust-m/externals/mbedtls/library\ecp.c ****     buf[1] = curve_info->tls_id & 0xFF;
 992:C:/Workspace/DAVE-4.4.2-64Bit/optiga-trust-m/externals/mbedtls/library\ecp.c **** 
 993:C:/Workspace/DAVE-4.4.2-64Bit/optiga-trust-m/externals/mbedtls/library\ecp.c ****     return( 0 );
 994:C:/Workspace/DAVE-4.4.2-64Bit/optiga-trust-m/externals/mbedtls/library\ecp.c **** }
 995:C:/Workspace/DAVE-4.4.2-64Bit/optiga-trust-m/externals/mbedtls/library\ecp.c **** 
 996:C:/Workspace/DAVE-4.4.2-64Bit/optiga-trust-m/externals/mbedtls/library\ecp.c **** /*
 997:C:/Workspace/DAVE-4.4.2-64Bit/optiga-trust-m/externals/mbedtls/library\ecp.c ****  * Wrapper around fast quasi-modp functions, with fall-back to mbedtls_mpi_mod_mpi.
 998:C:/Workspace/DAVE-4.4.2-64Bit/optiga-trust-m/externals/mbedtls/library\ecp.c ****  * See the documentation of struct mbedtls_ecp_group.
 999:C:/Workspace/DAVE-4.4.2-64Bit/optiga-trust-m/externals/mbedtls/library\ecp.c ****  *
1000:C:/Workspace/DAVE-4.4.2-64Bit/optiga-trust-m/externals/mbedtls/library\ecp.c ****  * This function is in the critial loop for mbedtls_ecp_mul, so pay attention to perf.
1001:C:/Workspace/DAVE-4.4.2-64Bit/optiga-trust-m/externals/mbedtls/library\ecp.c ****  */
1002:C:/Workspace/DAVE-4.4.2-64Bit/optiga-trust-m/externals/mbedtls/library\ecp.c **** static int ecp_modp( mbedtls_mpi *N, const mbedtls_ecp_group *grp )
1003:C:/Workspace/DAVE-4.4.2-64Bit/optiga-trust-m/externals/mbedtls/library\ecp.c **** {
  57              	 .loc 1 1003 0
  58              	 .cfi_startproc
  59              	.LVL3:
1004:C:/Workspace/DAVE-4.4.2-64Bit/optiga-trust-m/externals/mbedtls/library\ecp.c ****     int ret;
1005:C:/Workspace/DAVE-4.4.2-64Bit/optiga-trust-m/externals/mbedtls/library\ecp.c **** 
1006:C:/Workspace/DAVE-4.4.2-64Bit/optiga-trust-m/externals/mbedtls/library\ecp.c ****     if( grp->modp == NULL )
  60              	 .loc 1 1006 0
  61 0000 4B6E     	 ldr r3,[r1,#100]
1003:C:/Workspace/DAVE-4.4.2-64Bit/optiga-trust-m/externals/mbedtls/library\ecp.c ****     int ret;
  62              	 .loc 1 1003 0
  63 0002 70B5     	 push {r4,r5,r6,lr}
  64              	.LCFI0:
  65              	 .cfi_def_cfa_offset 16
  66              	 .cfi_offset 4,-16
  67              	 .cfi_offset 5,-12
  68              	 .cfi_offset 6,-8
  69              	 .cfi_offset 14,-4
1003:C:/Workspace/DAVE-4.4.2-64Bit/optiga-trust-m/externals/mbedtls/library\ecp.c ****     int ret;
  70              	 .loc 1 1003 0
  71 0004 041C     	 mov r4,r0
  72 0006 0D1C     	 mov r5,r1
  73              	 .loc 1 1006 0
  74 0008 002B     	 cmp r3,#0
  75 000a 04D1     	 bne .L7
1007:C:/Workspace/DAVE-4.4.2-64Bit/optiga-trust-m/externals/mbedtls/library\ecp.c ****         return( mbedtls_mpi_mod_mpi( N, N, &grp->P ) );
  76              	 .loc 1 1007 0
  77 000c 0A1D     	 add r2,r1,#4
  78 000e 211C     	 mov r1,r4
  79              	.LVL4:
  80 0010 FFF7FEFF 	 bl mbedtls_mpi_mod_mpi
  81              	.LVL5:
  82 0014 34E0     	 b .L8
  83              	.LVL6:
  84              	.L7:
1008:C:/Workspace/DAVE-4.4.2-64Bit/optiga-trust-m/externals/mbedtls/library\ecp.c **** 
1009:C:/Workspace/DAVE-4.4.2-64Bit/optiga-trust-m/externals/mbedtls/library\ecp.c ****     /* N->s < 0 is a much faster test, which fails only if N is 0 */
1010:C:/Workspace/DAVE-4.4.2-64Bit/optiga-trust-m/externals/mbedtls/library\ecp.c ****     if( ( N->s < 0 && mbedtls_mpi_cmp_int( N, 0 ) != 0 ) ||
  85              	 .loc 1 1010 0
  86 0016 0368     	 ldr r3,[r0]
  87 0018 002B     	 cmp r3,#0
  88 001a 07DB     	 blt .L9
  89              	.LVL7:
  90              	.L12:
1011:C:/Workspace/DAVE-4.4.2-64Bit/optiga-trust-m/externals/mbedtls/library\ecp.c ****         mbedtls_mpi_bitlen( N ) > 2 * grp->pbits )
  91              	 .loc 1 1011 0
  92 001c 201C     	 mov r0,r4
  93 001e FFF7FEFF 	 bl mbedtls_mpi_bitlen
  94              	.LVL8:
  95 0022 AB6D     	 ldr r3,[r5,#88]
  96 0024 5B00     	 lsl r3,r3,#1
1010:C:/Workspace/DAVE-4.4.2-64Bit/optiga-trust-m/externals/mbedtls/library\ecp.c ****         mbedtls_mpi_bitlen( N ) > 2 * grp->pbits )
  97              	 .loc 1 1010 0
  98 0026 9842     	 cmp r0,r3
  99 0028 07D9     	 bls .L24
 100 002a 04E0     	 b .L10
 101              	.LVL9:
 102              	.L9:
1010:C:/Workspace/DAVE-4.4.2-64Bit/optiga-trust-m/externals/mbedtls/library\ecp.c ****         mbedtls_mpi_bitlen( N ) > 2 * grp->pbits )
 103              	 .loc 1 1010 0 is_stmt 0 discriminator 1
 104 002c 0021     	 mov r1,#0
 105              	.LVL10:
 106 002e FFF7FEFF 	 bl mbedtls_mpi_cmp_int
 107              	.LVL11:
 108 0032 0028     	 cmp r0,#0
 109 0034 F2D0     	 beq .L12
 110              	.L10:
1012:C:/Workspace/DAVE-4.4.2-64Bit/optiga-trust-m/externals/mbedtls/library\ecp.c ****     {
1013:C:/Workspace/DAVE-4.4.2-64Bit/optiga-trust-m/externals/mbedtls/library\ecp.c ****         return( MBEDTLS_ERR_ECP_BAD_INPUT_DATA );
 111              	 .loc 1 1013 0 is_stmt 1
 112 0036 1348     	 ldr r0,.L27
 113 0038 22E0     	 b .L8
 114              	.L24:
1014:C:/Workspace/DAVE-4.4.2-64Bit/optiga-trust-m/externals/mbedtls/library\ecp.c ****     }
1015:C:/Workspace/DAVE-4.4.2-64Bit/optiga-trust-m/externals/mbedtls/library\ecp.c **** 
1016:C:/Workspace/DAVE-4.4.2-64Bit/optiga-trust-m/externals/mbedtls/library\ecp.c ****     MBEDTLS_MPI_CHK( grp->modp( N ) );
 115              	 .loc 1 1016 0
 116 003a 201C     	 mov r0,r4
 117 003c 6B6E     	 ldr r3,[r5,#100]
 118 003e 9847     	 blx r3
 119              	.LVL12:
 120              	.L26:
1017:C:/Workspace/DAVE-4.4.2-64Bit/optiga-trust-m/externals/mbedtls/library\ecp.c **** 
1018:C:/Workspace/DAVE-4.4.2-64Bit/optiga-trust-m/externals/mbedtls/library\ecp.c ****     /* N->s < 0 is a much faster test, which fails only if N is 0 */
1019:C:/Workspace/DAVE-4.4.2-64Bit/optiga-trust-m/externals/mbedtls/library\ecp.c ****     while( N->s < 0 && mbedtls_mpi_cmp_int( N, 0 ) != 0 )
1020:C:/Workspace/DAVE-4.4.2-64Bit/optiga-trust-m/externals/mbedtls/library\ecp.c ****         MBEDTLS_MPI_CHK( mbedtls_mpi_add_mpi( N, N, &grp->P ) );
 121              	 .loc 1 1020 0
 122 0040 0028     	 cmp r0,#0
 123 0042 1DD1     	 bne .L8
 124              	.LVL13:
1019:C:/Workspace/DAVE-4.4.2-64Bit/optiga-trust-m/externals/mbedtls/library\ecp.c ****         MBEDTLS_MPI_CHK( mbedtls_mpi_add_mpi( N, N, &grp->P ) );
 125              	 .loc 1 1019 0
 126 0044 2368     	 ldr r3,[r4]
 127 0046 2E1D     	 add r6,r5,#4
 128 0048 002B     	 cmp r3,#0
 129 004a 12DA     	 bge .L16
1019:C:/Workspace/DAVE-4.4.2-64Bit/optiga-trust-m/externals/mbedtls/library\ecp.c ****         MBEDTLS_MPI_CHK( mbedtls_mpi_add_mpi( N, N, &grp->P ) );
 130              	 .loc 1 1019 0 is_stmt 0 discriminator 1
 131 004c 201C     	 mov r0,r4
 132 004e 0021     	 mov r1,#0
 133 0050 FFF7FEFF 	 bl mbedtls_mpi_cmp_int
 134              	.LVL14:
 135 0054 0028     	 cmp r0,#0
 136 0056 0CD0     	 beq .L16
 137              	 .loc 1 1020 0 is_stmt 1
 138 0058 201C     	 mov r0,r4
 139 005a 211C     	 mov r1,r4
 140 005c 321C     	 mov r2,r6
 141 005e FFF7FEFF 	 bl mbedtls_mpi_add_mpi
 142              	.LVL15:
 143 0062 EDE7     	 b .L26
 144              	.L17:
1021:C:/Workspace/DAVE-4.4.2-64Bit/optiga-trust-m/externals/mbedtls/library\ecp.c **** 
1022:C:/Workspace/DAVE-4.4.2-64Bit/optiga-trust-m/externals/mbedtls/library\ecp.c ****     while( mbedtls_mpi_cmp_mpi( N, &grp->P ) >= 0 )
1023:C:/Workspace/DAVE-4.4.2-64Bit/optiga-trust-m/externals/mbedtls/library\ecp.c ****         /* we known P, N and the result are positive */
1024:C:/Workspace/DAVE-4.4.2-64Bit/optiga-trust-m/externals/mbedtls/library\ecp.c ****         MBEDTLS_MPI_CHK( mbedtls_mpi_sub_abs( N, N, &grp->P ) );
 145              	 .loc 1 1024 0
 146 0064 201C     	 mov r0,r4
 147 0066 211C     	 mov r1,r4
 148 0068 321C     	 mov r2,r6
 149 006a FFF7FEFF 	 bl mbedtls_mpi_sub_abs
 150              	.LVL16:
 151 006e 0028     	 cmp r0,#0
 152 0070 06D1     	 bne .L8
 153              	.LVL17:
 154              	.L16:
1022:C:/Workspace/DAVE-4.4.2-64Bit/optiga-trust-m/externals/mbedtls/library\ecp.c ****         /* we known P, N and the result are positive */
 155              	 .loc 1 1022 0
 156 0072 201C     	 mov r0,r4
 157 0074 311C     	 mov r1,r6
 158 0076 FFF7FEFF 	 bl mbedtls_mpi_cmp_mpi
 159              	.LVL18:
 160 007a 0028     	 cmp r0,#0
 161 007c F2DA     	 bge .L17
 162 007e 0020     	 mov r0,#0
 163              	.LVL19:
 164              	.L8:
1025:C:/Workspace/DAVE-4.4.2-64Bit/optiga-trust-m/externals/mbedtls/library\ecp.c **** 
1026:C:/Workspace/DAVE-4.4.2-64Bit/optiga-trust-m/externals/mbedtls/library\ecp.c **** cleanup:
1027:C:/Workspace/DAVE-4.4.2-64Bit/optiga-trust-m/externals/mbedtls/library\ecp.c ****     return( ret );
1028:C:/Workspace/DAVE-4.4.2-64Bit/optiga-trust-m/externals/mbedtls/library\ecp.c **** }
 165              	 .loc 1 1028 0
 166              	 
 167              	.LVL20:
 168              	.LVL21:
 169 0080 70BD     	 pop {r4,r5,r6,pc}
 170              	.L28:
 171 0082 C046     	 .align 2
 172              	.L27:
 173 0084 80B0FFFF 	 .word -20352
 174              	 .cfi_endproc
 175              	.LFE25:
 177              	 .section .text.ecp_double_jac,"ax",%progbits
 178              	 .align 1
 179              	 .code 16
 180              	 .thumb_func
 182              	ecp_double_jac:
 183              	.LFB29:
1029:C:/Workspace/DAVE-4.4.2-64Bit/optiga-trust-m/externals/mbedtls/library\ecp.c **** 
1030:C:/Workspace/DAVE-4.4.2-64Bit/optiga-trust-m/externals/mbedtls/library\ecp.c **** /*
1031:C:/Workspace/DAVE-4.4.2-64Bit/optiga-trust-m/externals/mbedtls/library\ecp.c ****  * Fast mod-p functions expect their argument to be in the 0..p^2 range.
1032:C:/Workspace/DAVE-4.4.2-64Bit/optiga-trust-m/externals/mbedtls/library\ecp.c ****  *
1033:C:/Workspace/DAVE-4.4.2-64Bit/optiga-trust-m/externals/mbedtls/library\ecp.c ****  * In order to guarantee that, we need to ensure that operands of
1034:C:/Workspace/DAVE-4.4.2-64Bit/optiga-trust-m/externals/mbedtls/library\ecp.c ****  * mbedtls_mpi_mul_mpi are in the 0..p range. So, after each operation we will
1035:C:/Workspace/DAVE-4.4.2-64Bit/optiga-trust-m/externals/mbedtls/library\ecp.c ****  * bring the result back to this range.
1036:C:/Workspace/DAVE-4.4.2-64Bit/optiga-trust-m/externals/mbedtls/library\ecp.c ****  *
1037:C:/Workspace/DAVE-4.4.2-64Bit/optiga-trust-m/externals/mbedtls/library\ecp.c ****  * The following macros are shortcuts for doing that.
1038:C:/Workspace/DAVE-4.4.2-64Bit/optiga-trust-m/externals/mbedtls/library\ecp.c ****  */
1039:C:/Workspace/DAVE-4.4.2-64Bit/optiga-trust-m/externals/mbedtls/library\ecp.c **** 
1040:C:/Workspace/DAVE-4.4.2-64Bit/optiga-trust-m/externals/mbedtls/library\ecp.c **** /*
1041:C:/Workspace/DAVE-4.4.2-64Bit/optiga-trust-m/externals/mbedtls/library\ecp.c ****  * Reduce a mbedtls_mpi mod p in-place, general case, to use after mbedtls_mpi_mul_mpi
1042:C:/Workspace/DAVE-4.4.2-64Bit/optiga-trust-m/externals/mbedtls/library\ecp.c ****  */
1043:C:/Workspace/DAVE-4.4.2-64Bit/optiga-trust-m/externals/mbedtls/library\ecp.c **** #if defined(MBEDTLS_SELF_TEST)
1044:C:/Workspace/DAVE-4.4.2-64Bit/optiga-trust-m/externals/mbedtls/library\ecp.c **** #define INC_MUL_COUNT   mul_count++;
1045:C:/Workspace/DAVE-4.4.2-64Bit/optiga-trust-m/externals/mbedtls/library\ecp.c **** #else
1046:C:/Workspace/DAVE-4.4.2-64Bit/optiga-trust-m/externals/mbedtls/library\ecp.c **** #define INC_MUL_COUNT
1047:C:/Workspace/DAVE-4.4.2-64Bit/optiga-trust-m/externals/mbedtls/library\ecp.c **** #endif
1048:C:/Workspace/DAVE-4.4.2-64Bit/optiga-trust-m/externals/mbedtls/library\ecp.c **** 
1049:C:/Workspace/DAVE-4.4.2-64Bit/optiga-trust-m/externals/mbedtls/library\ecp.c **** #define MOD_MUL( N )    do { MBEDTLS_MPI_CHK( ecp_modp( &N, grp ) ); INC_MUL_COUNT } \
1050:C:/Workspace/DAVE-4.4.2-64Bit/optiga-trust-m/externals/mbedtls/library\ecp.c ****                         while( 0 )
1051:C:/Workspace/DAVE-4.4.2-64Bit/optiga-trust-m/externals/mbedtls/library\ecp.c **** 
1052:C:/Workspace/DAVE-4.4.2-64Bit/optiga-trust-m/externals/mbedtls/library\ecp.c **** /*
1053:C:/Workspace/DAVE-4.4.2-64Bit/optiga-trust-m/externals/mbedtls/library\ecp.c ****  * Reduce a mbedtls_mpi mod p in-place, to use after mbedtls_mpi_sub_mpi
1054:C:/Workspace/DAVE-4.4.2-64Bit/optiga-trust-m/externals/mbedtls/library\ecp.c ****  * N->s < 0 is a very fast test, which fails only if N is 0
1055:C:/Workspace/DAVE-4.4.2-64Bit/optiga-trust-m/externals/mbedtls/library\ecp.c ****  */
1056:C:/Workspace/DAVE-4.4.2-64Bit/optiga-trust-m/externals/mbedtls/library\ecp.c **** #define MOD_SUB( N )                                \
1057:C:/Workspace/DAVE-4.4.2-64Bit/optiga-trust-m/externals/mbedtls/library\ecp.c ****     while( N.s < 0 && mbedtls_mpi_cmp_int( &N, 0 ) != 0 )   \
1058:C:/Workspace/DAVE-4.4.2-64Bit/optiga-trust-m/externals/mbedtls/library\ecp.c ****         MBEDTLS_MPI_CHK( mbedtls_mpi_add_mpi( &N, &N, &grp->P ) )
1059:C:/Workspace/DAVE-4.4.2-64Bit/optiga-trust-m/externals/mbedtls/library\ecp.c **** 
1060:C:/Workspace/DAVE-4.4.2-64Bit/optiga-trust-m/externals/mbedtls/library\ecp.c **** /*
1061:C:/Workspace/DAVE-4.4.2-64Bit/optiga-trust-m/externals/mbedtls/library\ecp.c ****  * Reduce a mbedtls_mpi mod p in-place, to use after mbedtls_mpi_add_mpi and mbedtls_mpi_mul_int.
1062:C:/Workspace/DAVE-4.4.2-64Bit/optiga-trust-m/externals/mbedtls/library\ecp.c ****  * We known P, N and the result are positive, so sub_abs is correct, and
1063:C:/Workspace/DAVE-4.4.2-64Bit/optiga-trust-m/externals/mbedtls/library\ecp.c ****  * a bit faster.
1064:C:/Workspace/DAVE-4.4.2-64Bit/optiga-trust-m/externals/mbedtls/library\ecp.c ****  */
1065:C:/Workspace/DAVE-4.4.2-64Bit/optiga-trust-m/externals/mbedtls/library\ecp.c **** #define MOD_ADD( N )                                \
1066:C:/Workspace/DAVE-4.4.2-64Bit/optiga-trust-m/externals/mbedtls/library\ecp.c ****     while( mbedtls_mpi_cmp_mpi( &N, &grp->P ) >= 0 )        \
1067:C:/Workspace/DAVE-4.4.2-64Bit/optiga-trust-m/externals/mbedtls/library\ecp.c ****         MBEDTLS_MPI_CHK( mbedtls_mpi_sub_abs( &N, &N, &grp->P ) )
1068:C:/Workspace/DAVE-4.4.2-64Bit/optiga-trust-m/externals/mbedtls/library\ecp.c **** 
1069:C:/Workspace/DAVE-4.4.2-64Bit/optiga-trust-m/externals/mbedtls/library\ecp.c **** #if defined(ECP_SHORTWEIERSTRASS)
1070:C:/Workspace/DAVE-4.4.2-64Bit/optiga-trust-m/externals/mbedtls/library\ecp.c **** /*
1071:C:/Workspace/DAVE-4.4.2-64Bit/optiga-trust-m/externals/mbedtls/library\ecp.c ****  * For curves in short Weierstrass form, we do all the internal operations in
1072:C:/Workspace/DAVE-4.4.2-64Bit/optiga-trust-m/externals/mbedtls/library\ecp.c ****  * Jacobian coordinates.
1073:C:/Workspace/DAVE-4.4.2-64Bit/optiga-trust-m/externals/mbedtls/library\ecp.c ****  *
1074:C:/Workspace/DAVE-4.4.2-64Bit/optiga-trust-m/externals/mbedtls/library\ecp.c ****  * For multiplication, we'll use a comb method with coutermeasueres against
1075:C:/Workspace/DAVE-4.4.2-64Bit/optiga-trust-m/externals/mbedtls/library\ecp.c ****  * SPA, hence timing attacks.
1076:C:/Workspace/DAVE-4.4.2-64Bit/optiga-trust-m/externals/mbedtls/library\ecp.c ****  */
1077:C:/Workspace/DAVE-4.4.2-64Bit/optiga-trust-m/externals/mbedtls/library\ecp.c **** 
1078:C:/Workspace/DAVE-4.4.2-64Bit/optiga-trust-m/externals/mbedtls/library\ecp.c **** /*
1079:C:/Workspace/DAVE-4.4.2-64Bit/optiga-trust-m/externals/mbedtls/library\ecp.c ****  * Normalize jacobian coordinates so that Z == 0 || Z == 1  (GECC 3.2.1)
1080:C:/Workspace/DAVE-4.4.2-64Bit/optiga-trust-m/externals/mbedtls/library\ecp.c ****  * Cost: 1N := 1I + 3M + 1S
1081:C:/Workspace/DAVE-4.4.2-64Bit/optiga-trust-m/externals/mbedtls/library\ecp.c ****  */
1082:C:/Workspace/DAVE-4.4.2-64Bit/optiga-trust-m/externals/mbedtls/library\ecp.c **** static int ecp_normalize_jac( const mbedtls_ecp_group *grp, mbedtls_ecp_point *pt )
1083:C:/Workspace/DAVE-4.4.2-64Bit/optiga-trust-m/externals/mbedtls/library\ecp.c **** {
1084:C:/Workspace/DAVE-4.4.2-64Bit/optiga-trust-m/externals/mbedtls/library\ecp.c ****     int ret;
1085:C:/Workspace/DAVE-4.4.2-64Bit/optiga-trust-m/externals/mbedtls/library\ecp.c ****     mbedtls_mpi Zi, ZZi;
1086:C:/Workspace/DAVE-4.4.2-64Bit/optiga-trust-m/externals/mbedtls/library\ecp.c **** 
1087:C:/Workspace/DAVE-4.4.2-64Bit/optiga-trust-m/externals/mbedtls/library\ecp.c ****     if( mbedtls_mpi_cmp_int( &pt->Z, 0 ) == 0 )
1088:C:/Workspace/DAVE-4.4.2-64Bit/optiga-trust-m/externals/mbedtls/library\ecp.c ****         return( 0 );
1089:C:/Workspace/DAVE-4.4.2-64Bit/optiga-trust-m/externals/mbedtls/library\ecp.c **** 
1090:C:/Workspace/DAVE-4.4.2-64Bit/optiga-trust-m/externals/mbedtls/library\ecp.c **** #if defined(MBEDTLS_ECP_NORMALIZE_JAC_ALT)
1091:C:/Workspace/DAVE-4.4.2-64Bit/optiga-trust-m/externals/mbedtls/library\ecp.c ****     if( mbedtls_internal_ecp_grp_capable( grp ) )
1092:C:/Workspace/DAVE-4.4.2-64Bit/optiga-trust-m/externals/mbedtls/library\ecp.c ****         return( mbedtls_internal_ecp_normalize_jac( grp, pt ) );
1093:C:/Workspace/DAVE-4.4.2-64Bit/optiga-trust-m/externals/mbedtls/library\ecp.c **** #endif /* MBEDTLS_ECP_NORMALIZE_JAC_ALT */
1094:C:/Workspace/DAVE-4.4.2-64Bit/optiga-trust-m/externals/mbedtls/library\ecp.c **** 
1095:C:/Workspace/DAVE-4.4.2-64Bit/optiga-trust-m/externals/mbedtls/library\ecp.c ****     mbedtls_mpi_init( &Zi ); mbedtls_mpi_init( &ZZi );
1096:C:/Workspace/DAVE-4.4.2-64Bit/optiga-trust-m/externals/mbedtls/library\ecp.c **** 
1097:C:/Workspace/DAVE-4.4.2-64Bit/optiga-trust-m/externals/mbedtls/library\ecp.c ****     /*
1098:C:/Workspace/DAVE-4.4.2-64Bit/optiga-trust-m/externals/mbedtls/library\ecp.c ****      * X = X / Z^2  mod p
1099:C:/Workspace/DAVE-4.4.2-64Bit/optiga-trust-m/externals/mbedtls/library\ecp.c ****      */
1100:C:/Workspace/DAVE-4.4.2-64Bit/optiga-trust-m/externals/mbedtls/library\ecp.c ****     MBEDTLS_MPI_CHK( mbedtls_mpi_inv_mod( &Zi,      &pt->Z,     &grp->P ) );
1101:C:/Workspace/DAVE-4.4.2-64Bit/optiga-trust-m/externals/mbedtls/library\ecp.c ****     MBEDTLS_MPI_CHK( mbedtls_mpi_mul_mpi( &ZZi,     &Zi,        &Zi     ) ); MOD_MUL( ZZi );
1102:C:/Workspace/DAVE-4.4.2-64Bit/optiga-trust-m/externals/mbedtls/library\ecp.c ****     MBEDTLS_MPI_CHK( mbedtls_mpi_mul_mpi( &pt->X,   &pt->X,     &ZZi    ) ); MOD_MUL( pt->X );
1103:C:/Workspace/DAVE-4.4.2-64Bit/optiga-trust-m/externals/mbedtls/library\ecp.c **** 
1104:C:/Workspace/DAVE-4.4.2-64Bit/optiga-trust-m/externals/mbedtls/library\ecp.c ****     /*
1105:C:/Workspace/DAVE-4.4.2-64Bit/optiga-trust-m/externals/mbedtls/library\ecp.c ****      * Y = Y / Z^3  mod p
1106:C:/Workspace/DAVE-4.4.2-64Bit/optiga-trust-m/externals/mbedtls/library\ecp.c ****      */
1107:C:/Workspace/DAVE-4.4.2-64Bit/optiga-trust-m/externals/mbedtls/library\ecp.c ****     MBEDTLS_MPI_CHK( mbedtls_mpi_mul_mpi( &pt->Y,   &pt->Y,     &ZZi    ) ); MOD_MUL( pt->Y );
1108:C:/Workspace/DAVE-4.4.2-64Bit/optiga-trust-m/externals/mbedtls/library\ecp.c ****     MBEDTLS_MPI_CHK( mbedtls_mpi_mul_mpi( &pt->Y,   &pt->Y,     &Zi     ) ); MOD_MUL( pt->Y );
1109:C:/Workspace/DAVE-4.4.2-64Bit/optiga-trust-m/externals/mbedtls/library\ecp.c **** 
1110:C:/Workspace/DAVE-4.4.2-64Bit/optiga-trust-m/externals/mbedtls/library\ecp.c ****     /*
1111:C:/Workspace/DAVE-4.4.2-64Bit/optiga-trust-m/externals/mbedtls/library\ecp.c ****      * Z = 1
1112:C:/Workspace/DAVE-4.4.2-64Bit/optiga-trust-m/externals/mbedtls/library\ecp.c ****      */
1113:C:/Workspace/DAVE-4.4.2-64Bit/optiga-trust-m/externals/mbedtls/library\ecp.c ****     MBEDTLS_MPI_CHK( mbedtls_mpi_lset( &pt->Z, 1 ) );
1114:C:/Workspace/DAVE-4.4.2-64Bit/optiga-trust-m/externals/mbedtls/library\ecp.c **** 
1115:C:/Workspace/DAVE-4.4.2-64Bit/optiga-trust-m/externals/mbedtls/library\ecp.c **** cleanup:
1116:C:/Workspace/DAVE-4.4.2-64Bit/optiga-trust-m/externals/mbedtls/library\ecp.c **** 
1117:C:/Workspace/DAVE-4.4.2-64Bit/optiga-trust-m/externals/mbedtls/library\ecp.c ****     mbedtls_mpi_free( &Zi ); mbedtls_mpi_free( &ZZi );
1118:C:/Workspace/DAVE-4.4.2-64Bit/optiga-trust-m/externals/mbedtls/library\ecp.c **** 
1119:C:/Workspace/DAVE-4.4.2-64Bit/optiga-trust-m/externals/mbedtls/library\ecp.c ****     return( ret );
1120:C:/Workspace/DAVE-4.4.2-64Bit/optiga-trust-m/externals/mbedtls/library\ecp.c **** }
1121:C:/Workspace/DAVE-4.4.2-64Bit/optiga-trust-m/externals/mbedtls/library\ecp.c **** 
1122:C:/Workspace/DAVE-4.4.2-64Bit/optiga-trust-m/externals/mbedtls/library\ecp.c **** /*
1123:C:/Workspace/DAVE-4.4.2-64Bit/optiga-trust-m/externals/mbedtls/library\ecp.c ****  * Normalize jacobian coordinates of an array of (pointers to) points,
1124:C:/Workspace/DAVE-4.4.2-64Bit/optiga-trust-m/externals/mbedtls/library\ecp.c ****  * using Montgomery's trick to perform only one inversion mod P.
1125:C:/Workspace/DAVE-4.4.2-64Bit/optiga-trust-m/externals/mbedtls/library\ecp.c ****  * (See for example Cohen's "A Course in Computational Algebraic Number
1126:C:/Workspace/DAVE-4.4.2-64Bit/optiga-trust-m/externals/mbedtls/library\ecp.c ****  * Theory", Algorithm 10.3.4.)
1127:C:/Workspace/DAVE-4.4.2-64Bit/optiga-trust-m/externals/mbedtls/library\ecp.c ****  *
1128:C:/Workspace/DAVE-4.4.2-64Bit/optiga-trust-m/externals/mbedtls/library\ecp.c ****  * Warning: fails (returning an error) if one of the points is zero!
1129:C:/Workspace/DAVE-4.4.2-64Bit/optiga-trust-m/externals/mbedtls/library\ecp.c ****  * This should never happen, see choice of w in ecp_mul_comb().
1130:C:/Workspace/DAVE-4.4.2-64Bit/optiga-trust-m/externals/mbedtls/library\ecp.c ****  *
1131:C:/Workspace/DAVE-4.4.2-64Bit/optiga-trust-m/externals/mbedtls/library\ecp.c ****  * Cost: 1N(t) := 1I + (6t - 3)M + 1S
1132:C:/Workspace/DAVE-4.4.2-64Bit/optiga-trust-m/externals/mbedtls/library\ecp.c ****  */
1133:C:/Workspace/DAVE-4.4.2-64Bit/optiga-trust-m/externals/mbedtls/library\ecp.c **** static int ecp_normalize_jac_many( const mbedtls_ecp_group *grp,
1134:C:/Workspace/DAVE-4.4.2-64Bit/optiga-trust-m/externals/mbedtls/library\ecp.c ****                                    mbedtls_ecp_point *T[], size_t T_size )
1135:C:/Workspace/DAVE-4.4.2-64Bit/optiga-trust-m/externals/mbedtls/library\ecp.c **** {
1136:C:/Workspace/DAVE-4.4.2-64Bit/optiga-trust-m/externals/mbedtls/library\ecp.c ****     int ret;
1137:C:/Workspace/DAVE-4.4.2-64Bit/optiga-trust-m/externals/mbedtls/library\ecp.c ****     size_t i;
1138:C:/Workspace/DAVE-4.4.2-64Bit/optiga-trust-m/externals/mbedtls/library\ecp.c ****     mbedtls_mpi *c, u, Zi, ZZi;
1139:C:/Workspace/DAVE-4.4.2-64Bit/optiga-trust-m/externals/mbedtls/library\ecp.c **** 
1140:C:/Workspace/DAVE-4.4.2-64Bit/optiga-trust-m/externals/mbedtls/library\ecp.c ****     if( T_size < 2 )
1141:C:/Workspace/DAVE-4.4.2-64Bit/optiga-trust-m/externals/mbedtls/library\ecp.c ****         return( ecp_normalize_jac( grp, *T ) );
1142:C:/Workspace/DAVE-4.4.2-64Bit/optiga-trust-m/externals/mbedtls/library\ecp.c **** 
1143:C:/Workspace/DAVE-4.4.2-64Bit/optiga-trust-m/externals/mbedtls/library\ecp.c **** #if defined(MBEDTLS_ECP_NORMALIZE_JAC_MANY_ALT)
1144:C:/Workspace/DAVE-4.4.2-64Bit/optiga-trust-m/externals/mbedtls/library\ecp.c ****     if( mbedtls_internal_ecp_grp_capable( grp ) )
1145:C:/Workspace/DAVE-4.4.2-64Bit/optiga-trust-m/externals/mbedtls/library\ecp.c ****         return( mbedtls_internal_ecp_normalize_jac_many( grp, T, T_size ) );
1146:C:/Workspace/DAVE-4.4.2-64Bit/optiga-trust-m/externals/mbedtls/library\ecp.c **** #endif
1147:C:/Workspace/DAVE-4.4.2-64Bit/optiga-trust-m/externals/mbedtls/library\ecp.c **** 
1148:C:/Workspace/DAVE-4.4.2-64Bit/optiga-trust-m/externals/mbedtls/library\ecp.c ****     if( ( c = mbedtls_calloc( T_size, sizeof( mbedtls_mpi ) ) ) == NULL )
1149:C:/Workspace/DAVE-4.4.2-64Bit/optiga-trust-m/externals/mbedtls/library\ecp.c ****         return( MBEDTLS_ERR_ECP_ALLOC_FAILED );
1150:C:/Workspace/DAVE-4.4.2-64Bit/optiga-trust-m/externals/mbedtls/library\ecp.c **** 
1151:C:/Workspace/DAVE-4.4.2-64Bit/optiga-trust-m/externals/mbedtls/library\ecp.c ****     for( i = 0; i < T_size; i++ )
1152:C:/Workspace/DAVE-4.4.2-64Bit/optiga-trust-m/externals/mbedtls/library\ecp.c ****         mbedtls_mpi_init( &c[i] );
1153:C:/Workspace/DAVE-4.4.2-64Bit/optiga-trust-m/externals/mbedtls/library\ecp.c **** 
1154:C:/Workspace/DAVE-4.4.2-64Bit/optiga-trust-m/externals/mbedtls/library\ecp.c ****     mbedtls_mpi_init( &u ); mbedtls_mpi_init( &Zi ); mbedtls_mpi_init( &ZZi );
1155:C:/Workspace/DAVE-4.4.2-64Bit/optiga-trust-m/externals/mbedtls/library\ecp.c **** 
1156:C:/Workspace/DAVE-4.4.2-64Bit/optiga-trust-m/externals/mbedtls/library\ecp.c ****     /*
1157:C:/Workspace/DAVE-4.4.2-64Bit/optiga-trust-m/externals/mbedtls/library\ecp.c ****      * c[i] = Z_0 * ... * Z_i
1158:C:/Workspace/DAVE-4.4.2-64Bit/optiga-trust-m/externals/mbedtls/library\ecp.c ****      */
1159:C:/Workspace/DAVE-4.4.2-64Bit/optiga-trust-m/externals/mbedtls/library\ecp.c ****     MBEDTLS_MPI_CHK( mbedtls_mpi_copy( &c[0], &T[0]->Z ) );
1160:C:/Workspace/DAVE-4.4.2-64Bit/optiga-trust-m/externals/mbedtls/library\ecp.c ****     for( i = 1; i < T_size; i++ )
1161:C:/Workspace/DAVE-4.4.2-64Bit/optiga-trust-m/externals/mbedtls/library\ecp.c ****     {
1162:C:/Workspace/DAVE-4.4.2-64Bit/optiga-trust-m/externals/mbedtls/library\ecp.c ****         MBEDTLS_MPI_CHK( mbedtls_mpi_mul_mpi( &c[i], &c[i-1], &T[i]->Z ) );
1163:C:/Workspace/DAVE-4.4.2-64Bit/optiga-trust-m/externals/mbedtls/library\ecp.c ****         MOD_MUL( c[i] );
1164:C:/Workspace/DAVE-4.4.2-64Bit/optiga-trust-m/externals/mbedtls/library\ecp.c ****     }
1165:C:/Workspace/DAVE-4.4.2-64Bit/optiga-trust-m/externals/mbedtls/library\ecp.c **** 
1166:C:/Workspace/DAVE-4.4.2-64Bit/optiga-trust-m/externals/mbedtls/library\ecp.c ****     /*
1167:C:/Workspace/DAVE-4.4.2-64Bit/optiga-trust-m/externals/mbedtls/library\ecp.c ****      * u = 1 / (Z_0 * ... * Z_n) mod P
1168:C:/Workspace/DAVE-4.4.2-64Bit/optiga-trust-m/externals/mbedtls/library\ecp.c ****      */
1169:C:/Workspace/DAVE-4.4.2-64Bit/optiga-trust-m/externals/mbedtls/library\ecp.c ****     MBEDTLS_MPI_CHK( mbedtls_mpi_inv_mod( &u, &c[T_size-1], &grp->P ) );
1170:C:/Workspace/DAVE-4.4.2-64Bit/optiga-trust-m/externals/mbedtls/library\ecp.c **** 
1171:C:/Workspace/DAVE-4.4.2-64Bit/optiga-trust-m/externals/mbedtls/library\ecp.c ****     for( i = T_size - 1; ; i-- )
1172:C:/Workspace/DAVE-4.4.2-64Bit/optiga-trust-m/externals/mbedtls/library\ecp.c ****     {
1173:C:/Workspace/DAVE-4.4.2-64Bit/optiga-trust-m/externals/mbedtls/library\ecp.c ****         /*
1174:C:/Workspace/DAVE-4.4.2-64Bit/optiga-trust-m/externals/mbedtls/library\ecp.c ****          * Zi = 1 / Z_i mod p
1175:C:/Workspace/DAVE-4.4.2-64Bit/optiga-trust-m/externals/mbedtls/library\ecp.c ****          * u = 1 / (Z_0 * ... * Z_i) mod P
1176:C:/Workspace/DAVE-4.4.2-64Bit/optiga-trust-m/externals/mbedtls/library\ecp.c ****          */
1177:C:/Workspace/DAVE-4.4.2-64Bit/optiga-trust-m/externals/mbedtls/library\ecp.c ****         if( i == 0 ) {
1178:C:/Workspace/DAVE-4.4.2-64Bit/optiga-trust-m/externals/mbedtls/library\ecp.c ****             MBEDTLS_MPI_CHK( mbedtls_mpi_copy( &Zi, &u ) );
1179:C:/Workspace/DAVE-4.4.2-64Bit/optiga-trust-m/externals/mbedtls/library\ecp.c ****         }
1180:C:/Workspace/DAVE-4.4.2-64Bit/optiga-trust-m/externals/mbedtls/library\ecp.c ****         else
1181:C:/Workspace/DAVE-4.4.2-64Bit/optiga-trust-m/externals/mbedtls/library\ecp.c ****         {
1182:C:/Workspace/DAVE-4.4.2-64Bit/optiga-trust-m/externals/mbedtls/library\ecp.c ****             MBEDTLS_MPI_CHK( mbedtls_mpi_mul_mpi( &Zi, &u, &c[i-1]  ) ); MOD_MUL( Zi );
1183:C:/Workspace/DAVE-4.4.2-64Bit/optiga-trust-m/externals/mbedtls/library\ecp.c ****             MBEDTLS_MPI_CHK( mbedtls_mpi_mul_mpi( &u,  &u, &T[i]->Z ) ); MOD_MUL( u );
1184:C:/Workspace/DAVE-4.4.2-64Bit/optiga-trust-m/externals/mbedtls/library\ecp.c ****         }
1185:C:/Workspace/DAVE-4.4.2-64Bit/optiga-trust-m/externals/mbedtls/library\ecp.c **** 
1186:C:/Workspace/DAVE-4.4.2-64Bit/optiga-trust-m/externals/mbedtls/library\ecp.c ****         /*
1187:C:/Workspace/DAVE-4.4.2-64Bit/optiga-trust-m/externals/mbedtls/library\ecp.c ****          * proceed as in normalize()
1188:C:/Workspace/DAVE-4.4.2-64Bit/optiga-trust-m/externals/mbedtls/library\ecp.c ****          */
1189:C:/Workspace/DAVE-4.4.2-64Bit/optiga-trust-m/externals/mbedtls/library\ecp.c ****         MBEDTLS_MPI_CHK( mbedtls_mpi_mul_mpi( &ZZi,     &Zi,      &Zi  ) ); MOD_MUL( ZZi );
1190:C:/Workspace/DAVE-4.4.2-64Bit/optiga-trust-m/externals/mbedtls/library\ecp.c ****         MBEDTLS_MPI_CHK( mbedtls_mpi_mul_mpi( &T[i]->X, &T[i]->X, &ZZi ) ); MOD_MUL( T[i]->X );
1191:C:/Workspace/DAVE-4.4.2-64Bit/optiga-trust-m/externals/mbedtls/library\ecp.c ****         MBEDTLS_MPI_CHK( mbedtls_mpi_mul_mpi( &T[i]->Y, &T[i]->Y, &ZZi ) ); MOD_MUL( T[i]->Y );
1192:C:/Workspace/DAVE-4.4.2-64Bit/optiga-trust-m/externals/mbedtls/library\ecp.c ****         MBEDTLS_MPI_CHK( mbedtls_mpi_mul_mpi( &T[i]->Y, &T[i]->Y, &Zi  ) ); MOD_MUL( T[i]->Y );
1193:C:/Workspace/DAVE-4.4.2-64Bit/optiga-trust-m/externals/mbedtls/library\ecp.c **** 
1194:C:/Workspace/DAVE-4.4.2-64Bit/optiga-trust-m/externals/mbedtls/library\ecp.c ****         /*
1195:C:/Workspace/DAVE-4.4.2-64Bit/optiga-trust-m/externals/mbedtls/library\ecp.c ****          * Post-precessing: reclaim some memory by shrinking coordinates
1196:C:/Workspace/DAVE-4.4.2-64Bit/optiga-trust-m/externals/mbedtls/library\ecp.c ****          * - not storing Z (always 1)
1197:C:/Workspace/DAVE-4.4.2-64Bit/optiga-trust-m/externals/mbedtls/library\ecp.c ****          * - shrinking other coordinates, but still keeping the same number of
1198:C:/Workspace/DAVE-4.4.2-64Bit/optiga-trust-m/externals/mbedtls/library\ecp.c ****          *   limbs as P, as otherwise it will too likely be regrown too fast.
1199:C:/Workspace/DAVE-4.4.2-64Bit/optiga-trust-m/externals/mbedtls/library\ecp.c ****          */
1200:C:/Workspace/DAVE-4.4.2-64Bit/optiga-trust-m/externals/mbedtls/library\ecp.c ****         MBEDTLS_MPI_CHK( mbedtls_mpi_shrink( &T[i]->X, grp->P.n ) );
1201:C:/Workspace/DAVE-4.4.2-64Bit/optiga-trust-m/externals/mbedtls/library\ecp.c ****         MBEDTLS_MPI_CHK( mbedtls_mpi_shrink( &T[i]->Y, grp->P.n ) );
1202:C:/Workspace/DAVE-4.4.2-64Bit/optiga-trust-m/externals/mbedtls/library\ecp.c ****         mbedtls_mpi_free( &T[i]->Z );
1203:C:/Workspace/DAVE-4.4.2-64Bit/optiga-trust-m/externals/mbedtls/library\ecp.c **** 
1204:C:/Workspace/DAVE-4.4.2-64Bit/optiga-trust-m/externals/mbedtls/library\ecp.c ****         if( i == 0 )
1205:C:/Workspace/DAVE-4.4.2-64Bit/optiga-trust-m/externals/mbedtls/library\ecp.c ****             break;
1206:C:/Workspace/DAVE-4.4.2-64Bit/optiga-trust-m/externals/mbedtls/library\ecp.c ****     }
1207:C:/Workspace/DAVE-4.4.2-64Bit/optiga-trust-m/externals/mbedtls/library\ecp.c **** 
1208:C:/Workspace/DAVE-4.4.2-64Bit/optiga-trust-m/externals/mbedtls/library\ecp.c **** cleanup:
1209:C:/Workspace/DAVE-4.4.2-64Bit/optiga-trust-m/externals/mbedtls/library\ecp.c **** 
1210:C:/Workspace/DAVE-4.4.2-64Bit/optiga-trust-m/externals/mbedtls/library\ecp.c ****     mbedtls_mpi_free( &u ); mbedtls_mpi_free( &Zi ); mbedtls_mpi_free( &ZZi );
1211:C:/Workspace/DAVE-4.4.2-64Bit/optiga-trust-m/externals/mbedtls/library\ecp.c ****     for( i = 0; i < T_size; i++ )
1212:C:/Workspace/DAVE-4.4.2-64Bit/optiga-trust-m/externals/mbedtls/library\ecp.c ****         mbedtls_mpi_free( &c[i] );
1213:C:/Workspace/DAVE-4.4.2-64Bit/optiga-trust-m/externals/mbedtls/library\ecp.c ****     mbedtls_free( c );
1214:C:/Workspace/DAVE-4.4.2-64Bit/optiga-trust-m/externals/mbedtls/library\ecp.c **** 
1215:C:/Workspace/DAVE-4.4.2-64Bit/optiga-trust-m/externals/mbedtls/library\ecp.c ****     return( ret );
1216:C:/Workspace/DAVE-4.4.2-64Bit/optiga-trust-m/externals/mbedtls/library\ecp.c **** }
1217:C:/Workspace/DAVE-4.4.2-64Bit/optiga-trust-m/externals/mbedtls/library\ecp.c **** 
1218:C:/Workspace/DAVE-4.4.2-64Bit/optiga-trust-m/externals/mbedtls/library\ecp.c **** /*
1219:C:/Workspace/DAVE-4.4.2-64Bit/optiga-trust-m/externals/mbedtls/library\ecp.c ****  * Conditional point inversion: Q -> -Q = (Q.X, -Q.Y, Q.Z) without leak.
1220:C:/Workspace/DAVE-4.4.2-64Bit/optiga-trust-m/externals/mbedtls/library\ecp.c ****  * "inv" must be 0 (don't invert) or 1 (invert) or the result will be invalid
1221:C:/Workspace/DAVE-4.4.2-64Bit/optiga-trust-m/externals/mbedtls/library\ecp.c ****  */
1222:C:/Workspace/DAVE-4.4.2-64Bit/optiga-trust-m/externals/mbedtls/library\ecp.c **** static int ecp_safe_invert_jac( const mbedtls_ecp_group *grp,
1223:C:/Workspace/DAVE-4.4.2-64Bit/optiga-trust-m/externals/mbedtls/library\ecp.c ****                             mbedtls_ecp_point *Q,
1224:C:/Workspace/DAVE-4.4.2-64Bit/optiga-trust-m/externals/mbedtls/library\ecp.c ****                             unsigned char inv )
1225:C:/Workspace/DAVE-4.4.2-64Bit/optiga-trust-m/externals/mbedtls/library\ecp.c **** {
1226:C:/Workspace/DAVE-4.4.2-64Bit/optiga-trust-m/externals/mbedtls/library\ecp.c ****     int ret;
1227:C:/Workspace/DAVE-4.4.2-64Bit/optiga-trust-m/externals/mbedtls/library\ecp.c ****     unsigned char nonzero;
1228:C:/Workspace/DAVE-4.4.2-64Bit/optiga-trust-m/externals/mbedtls/library\ecp.c ****     mbedtls_mpi mQY;
1229:C:/Workspace/DAVE-4.4.2-64Bit/optiga-trust-m/externals/mbedtls/library\ecp.c **** 
1230:C:/Workspace/DAVE-4.4.2-64Bit/optiga-trust-m/externals/mbedtls/library\ecp.c ****     mbedtls_mpi_init( &mQY );
1231:C:/Workspace/DAVE-4.4.2-64Bit/optiga-trust-m/externals/mbedtls/library\ecp.c **** 
1232:C:/Workspace/DAVE-4.4.2-64Bit/optiga-trust-m/externals/mbedtls/library\ecp.c ****     /* Use the fact that -Q.Y mod P = P - Q.Y unless Q.Y == 0 */
1233:C:/Workspace/DAVE-4.4.2-64Bit/optiga-trust-m/externals/mbedtls/library\ecp.c ****     MBEDTLS_MPI_CHK( mbedtls_mpi_sub_mpi( &mQY, &grp->P, &Q->Y ) );
1234:C:/Workspace/DAVE-4.4.2-64Bit/optiga-trust-m/externals/mbedtls/library\ecp.c ****     nonzero = mbedtls_mpi_cmp_int( &Q->Y, 0 ) != 0;
1235:C:/Workspace/DAVE-4.4.2-64Bit/optiga-trust-m/externals/mbedtls/library\ecp.c ****     MBEDTLS_MPI_CHK( mbedtls_mpi_safe_cond_assign( &Q->Y, &mQY, inv & nonzero ) );
1236:C:/Workspace/DAVE-4.4.2-64Bit/optiga-trust-m/externals/mbedtls/library\ecp.c **** 
1237:C:/Workspace/DAVE-4.4.2-64Bit/optiga-trust-m/externals/mbedtls/library\ecp.c **** cleanup:
1238:C:/Workspace/DAVE-4.4.2-64Bit/optiga-trust-m/externals/mbedtls/library\ecp.c ****     mbedtls_mpi_free( &mQY );
1239:C:/Workspace/DAVE-4.4.2-64Bit/optiga-trust-m/externals/mbedtls/library\ecp.c **** 
1240:C:/Workspace/DAVE-4.4.2-64Bit/optiga-trust-m/externals/mbedtls/library\ecp.c ****     return( ret );
1241:C:/Workspace/DAVE-4.4.2-64Bit/optiga-trust-m/externals/mbedtls/library\ecp.c **** }
1242:C:/Workspace/DAVE-4.4.2-64Bit/optiga-trust-m/externals/mbedtls/library\ecp.c **** 
1243:C:/Workspace/DAVE-4.4.2-64Bit/optiga-trust-m/externals/mbedtls/library\ecp.c **** /*
1244:C:/Workspace/DAVE-4.4.2-64Bit/optiga-trust-m/externals/mbedtls/library\ecp.c ****  * Point doubling R = 2 P, Jacobian coordinates
1245:C:/Workspace/DAVE-4.4.2-64Bit/optiga-trust-m/externals/mbedtls/library\ecp.c ****  *
1246:C:/Workspace/DAVE-4.4.2-64Bit/optiga-trust-m/externals/mbedtls/library\ecp.c ****  * Based on http://www.hyperelliptic.org/EFD/g1p/auto-shortw-jacobian.html#doubling-dbl-1998-cmo-2 
1247:C:/Workspace/DAVE-4.4.2-64Bit/optiga-trust-m/externals/mbedtls/library\ecp.c ****  *
1248:C:/Workspace/DAVE-4.4.2-64Bit/optiga-trust-m/externals/mbedtls/library\ecp.c ****  * We follow the variable naming fairly closely. The formula variations that trade a MUL for a SQR
1249:C:/Workspace/DAVE-4.4.2-64Bit/optiga-trust-m/externals/mbedtls/library\ecp.c ****  * (plus a few ADDs) aren't useful as our bignum implementation doesn't distinguish squaring.
1250:C:/Workspace/DAVE-4.4.2-64Bit/optiga-trust-m/externals/mbedtls/library\ecp.c ****  *
1251:C:/Workspace/DAVE-4.4.2-64Bit/optiga-trust-m/externals/mbedtls/library\ecp.c ****  * Standard optimizations are applied when curve parameter A is one of { 0, -3 }.
1252:C:/Workspace/DAVE-4.4.2-64Bit/optiga-trust-m/externals/mbedtls/library\ecp.c ****  *
1253:C:/Workspace/DAVE-4.4.2-64Bit/optiga-trust-m/externals/mbedtls/library\ecp.c ****  * Cost: 1D := 3M + 4S          (A ==  0)
1254:C:/Workspace/DAVE-4.4.2-64Bit/optiga-trust-m/externals/mbedtls/library\ecp.c ****  *             4M + 4S          (A == -3)
1255:C:/Workspace/DAVE-4.4.2-64Bit/optiga-trust-m/externals/mbedtls/library\ecp.c ****  *             3M + 6S + 1a     otherwise
1256:C:/Workspace/DAVE-4.4.2-64Bit/optiga-trust-m/externals/mbedtls/library\ecp.c ****  */
1257:C:/Workspace/DAVE-4.4.2-64Bit/optiga-trust-m/externals/mbedtls/library\ecp.c **** static int ecp_double_jac( const mbedtls_ecp_group *grp, mbedtls_ecp_point *R,
1258:C:/Workspace/DAVE-4.4.2-64Bit/optiga-trust-m/externals/mbedtls/library\ecp.c ****                            const mbedtls_ecp_point *P )
1259:C:/Workspace/DAVE-4.4.2-64Bit/optiga-trust-m/externals/mbedtls/library\ecp.c **** {
 184              	 .loc 1 1259 0
 185              	 .cfi_startproc
 186              	.LVL22:
 187 0000 F0B5     	 push {r4,r5,r6,r7,lr}
 188              	.LCFI1:
 189              	 .cfi_def_cfa_offset 20
 190              	 .cfi_offset 4,-20
 191              	 .cfi_offset 5,-16
 192              	 .cfi_offset 6,-12
 193              	 .cfi_offset 7,-8
 194              	 .cfi_offset 14,-4
 195 0002 051C     	 mov r5,r0
 196 0004 8FB0     	 sub sp,sp,#60
 197              	.LCFI2:
 198              	 .cfi_def_cfa_offset 80
1260:C:/Workspace/DAVE-4.4.2-64Bit/optiga-trust-m/externals/mbedtls/library\ecp.c ****     int ret;
1261:C:/Workspace/DAVE-4.4.2-64Bit/optiga-trust-m/externals/mbedtls/library\ecp.c ****     mbedtls_mpi M, S, T, U;
1262:C:/Workspace/DAVE-4.4.2-64Bit/optiga-trust-m/externals/mbedtls/library\ecp.c **** 
1263:C:/Workspace/DAVE-4.4.2-64Bit/optiga-trust-m/externals/mbedtls/library\ecp.c **** #if defined(MBEDTLS_SELF_TEST)
1264:C:/Workspace/DAVE-4.4.2-64Bit/optiga-trust-m/externals/mbedtls/library\ecp.c ****     dbl_count++;
1265:C:/Workspace/DAVE-4.4.2-64Bit/optiga-trust-m/externals/mbedtls/library\ecp.c **** #endif
1266:C:/Workspace/DAVE-4.4.2-64Bit/optiga-trust-m/externals/mbedtls/library\ecp.c **** 
1267:C:/Workspace/DAVE-4.4.2-64Bit/optiga-trust-m/externals/mbedtls/library\ecp.c **** #if defined(MBEDTLS_ECP_DOUBLE_JAC_ALT)
1268:C:/Workspace/DAVE-4.4.2-64Bit/optiga-trust-m/externals/mbedtls/library\ecp.c ****     if( mbedtls_internal_ecp_grp_capable( grp ) )
1269:C:/Workspace/DAVE-4.4.2-64Bit/optiga-trust-m/externals/mbedtls/library\ecp.c ****         return( mbedtls_internal_ecp_double_jac( grp, R, P ) );
1270:C:/Workspace/DAVE-4.4.2-64Bit/optiga-trust-m/externals/mbedtls/library\ecp.c **** #endif /* MBEDTLS_ECP_DOUBLE_JAC_ALT */
1271:C:/Workspace/DAVE-4.4.2-64Bit/optiga-trust-m/externals/mbedtls/library\ecp.c **** 
1272:C:/Workspace/DAVE-4.4.2-64Bit/optiga-trust-m/externals/mbedtls/library\ecp.c ****     mbedtls_mpi_init( &M ); mbedtls_mpi_init( &S ); mbedtls_mpi_init( &T ); mbedtls_mpi_init( &U );
 199              	 .loc 1 1272 0
 200 0006 02A8     	 add r0,sp,#8
 201              	.LVL23:
1259:C:/Workspace/DAVE-4.4.2-64Bit/optiga-trust-m/externals/mbedtls/library\ecp.c ****     int ret;
 202              	 .loc 1 1259 0
 203 0008 0191     	 str r1,[sp,#4]
 204 000a 171C     	 mov r7,r2
 205              	 .loc 1 1272 0
 206 000c FFF7FEFF 	 bl mbedtls_mpi_init
 207              	.LVL24:
 208 0010 05A8     	 add r0,sp,#20
 209 0012 FFF7FEFF 	 bl mbedtls_mpi_init
 210              	.LVL25:
 211 0016 08A8     	 add r0,sp,#32
 212 0018 FFF7FEFF 	 bl mbedtls_mpi_init
 213              	.LVL26:
 214 001c 0BA8     	 add r0,sp,#44
 215 001e FFF7FEFF 	 bl mbedtls_mpi_init
 216              	.LVL27:
1273:C:/Workspace/DAVE-4.4.2-64Bit/optiga-trust-m/externals/mbedtls/library\ecp.c **** 
1274:C:/Workspace/DAVE-4.4.2-64Bit/optiga-trust-m/externals/mbedtls/library\ecp.c ****     /* Special case for A = -3 */
1275:C:/Workspace/DAVE-4.4.2-64Bit/optiga-trust-m/externals/mbedtls/library\ecp.c ****     if( grp->A.p == NULL )
 217              	 .loc 1 1275 0
 218 0022 AB69     	 ldr r3,[r5,#24]
1276:C:/Workspace/DAVE-4.4.2-64Bit/optiga-trust-m/externals/mbedtls/library\ecp.c ****     {
1277:C:/Workspace/DAVE-4.4.2-64Bit/optiga-trust-m/externals/mbedtls/library\ecp.c ****         /* M = 3(X + Z^2)(X - Z^2) */
1278:C:/Workspace/DAVE-4.4.2-64Bit/optiga-trust-m/externals/mbedtls/library\ecp.c ****         MBEDTLS_MPI_CHK( mbedtls_mpi_mul_mpi( &S,  &P->Z,  &P->Z   ) ); MOD_MUL( S );
 219              	 .loc 1 1278 0
 220 0024 05A8     	 add r0,sp,#20
1275:C:/Workspace/DAVE-4.4.2-64Bit/optiga-trust-m/externals/mbedtls/library\ecp.c ****     {
 221              	 .loc 1 1275 0
 222 0026 002B     	 cmp r3,#0
 223 0028 73D1     	 bne .L30
 224              	 .loc 1 1278 0
 225 002a 3A1C     	 mov r2,r7
 226 002c 1832     	 add r2,r2,#24
 227 002e 111C     	 mov r1,r2
 228 0030 FFF7FEFF 	 bl mbedtls_mpi_mul_mpi
 229              	.LVL28:
 230 0034 041E     	 sub r4,r0,#0
 231              	.LVL29:
 232 0036 00D0     	 beq .LCB219
 233 0038 DAE1     	 b .L31
 234              	.LCB219:
 235              	 .loc 1 1278 0 is_stmt 0 discriminator 1
 236 003a 05A8     	 add r0,sp,#20
 237              	.LVL30:
 238 003c 291C     	 mov r1,r5
 239 003e FFF7FEFF 	 bl ecp_modp
 240              	.LVL31:
 241 0042 041E     	 sub r4,r0,#0
 242              	.LVL32:
 243 0044 00D0     	 beq .LCB229
 244 0046 D3E1     	 b .L31
 245              	.LCB229:
1279:C:/Workspace/DAVE-4.4.2-64Bit/optiga-trust-m/externals/mbedtls/library\ecp.c ****         MBEDTLS_MPI_CHK( mbedtls_mpi_add_mpi( &T,  &P->X,  &S      ) ); MOD_ADD( T );
 246              	 .loc 1 1279 0 is_stmt 1
 247 0048 08A8     	 add r0,sp,#32
 248              	.LVL33:
 249 004a 391C     	 mov r1,r7
 250 004c 05AA     	 add r2,sp,#20
 251 004e FFF7FEFF 	 bl mbedtls_mpi_add_mpi
 252              	.LVL34:
 253              	.L80:
 254              	 .loc 1 1279 0 is_stmt 0 discriminator 2
 255 0052 041E     	 sub r4,r0,#0
 256              	.LVL35:
 257 0054 00D0     	 beq .LCB243
 258 0056 CBE1     	 b .L31
 259              	.LCB243:
 260              	 .loc 1 1279 0 discriminator 1
 261 0058 2E1D     	 add r6,r5,#4
 262 005a 08A8     	 add r0,sp,#32
 263              	.LVL36:
 264 005c 311C     	 mov r1,r6
 265 005e FFF7FEFF 	 bl mbedtls_mpi_cmp_mpi
 266              	.LVL37:
 267 0062 0028     	 cmp r0,#0
 268 0064 05DB     	 blt .L93
 269              	 .loc 1 1279 0 discriminator 2
 270 0066 08A8     	 add r0,sp,#32
 271 0068 011C     	 mov r1,r0
 272 006a 321C     	 mov r2,r6
 273 006c FFF7FEFF 	 bl mbedtls_mpi_sub_abs
 274              	.LVL38:
 275 0070 EFE7     	 b .L80
 276              	.L93:
1280:C:/Workspace/DAVE-4.4.2-64Bit/optiga-trust-m/externals/mbedtls/library\ecp.c ****         MBEDTLS_MPI_CHK( mbedtls_mpi_sub_mpi( &U,  &P->X,  &S      ) ); MOD_SUB( U );
 277              	 .loc 1 1280 0 is_stmt 1
 278 0072 0BA8     	 add r0,sp,#44
 279 0074 391C     	 mov r1,r7
 280 0076 05AA     	 add r2,sp,#20
 281 0078 FFF7FEFF 	 bl mbedtls_mpi_sub_mpi
 282              	.LVL39:
 283              	.L81:
 284              	 .loc 1 1280 0 is_stmt 0 discriminator 3
 285 007c 041E     	 sub r4,r0,#0
 286              	.LVL40:
 287 007e 00D0     	 beq .LCB274
 288 0080 B6E1     	 b .L31
 289              	.LCB274:
 290              	 .loc 1 1280 0 discriminator 1
 291 0082 0B9B     	 ldr r3,[sp,#44]
 292 0084 002B     	 cmp r3,#0
 293 0086 08DB     	 blt .L35
 294              	.LVL41:
 295              	.L38:
1281:C:/Workspace/DAVE-4.4.2-64Bit/optiga-trust-m/externals/mbedtls/library\ecp.c ****         MBEDTLS_MPI_CHK( mbedtls_mpi_mul_mpi( &S,  &T,     &U      ) ); MOD_MUL( S );
 296              	 .loc 1 1281 0 is_stmt 1
 297 0088 05A8     	 add r0,sp,#20
 298 008a 08A9     	 add r1,sp,#32
 299 008c 0BAA     	 add r2,sp,#44
 300 008e FFF7FEFF 	 bl mbedtls_mpi_mul_mpi
 301              	.LVL42:
 302 0092 041E     	 sub r4,r0,#0
 303              	.LVL43:
 304 0094 00D0     	 beq .LCB292
 305 0096 ABE1     	 b .L31
 306              	.LCB292:
 307 0098 0BE0     	 b .L94
 308              	.L35:
1280:C:/Workspace/DAVE-4.4.2-64Bit/optiga-trust-m/externals/mbedtls/library\ecp.c ****         MBEDTLS_MPI_CHK( mbedtls_mpi_sub_mpi( &U,  &P->X,  &S      ) ); MOD_SUB( U );
 309              	 .loc 1 1280 0 discriminator 2
 310 009a 0BA8     	 add r0,sp,#44
 311              	.LVL44:
 312 009c 0021     	 mov r1,#0
 313 009e FFF7FEFF 	 bl mbedtls_mpi_cmp_int
 314              	.LVL45:
 315 00a2 0028     	 cmp r0,#0
 316 00a4 F0D0     	 beq .L38
1280:C:/Workspace/DAVE-4.4.2-64Bit/optiga-trust-m/externals/mbedtls/library\ecp.c ****         MBEDTLS_MPI_CHK( mbedtls_mpi_sub_mpi( &U,  &P->X,  &S      ) ); MOD_SUB( U );
 317              	 .loc 1 1280 0 is_stmt 0 discriminator 3
 318 00a6 0BA8     	 add r0,sp,#44
 319 00a8 011C     	 mov r1,r0
 320 00aa 321C     	 mov r2,r6
 321 00ac FFF7FEFF 	 bl mbedtls_mpi_add_mpi
 322              	.LVL46:
 323 00b0 E4E7     	 b .L81
 324              	.LVL47:
 325              	.L94:
 326              	 .loc 1 1281 0 is_stmt 1 discriminator 1
 327 00b2 05A8     	 add r0,sp,#20
 328              	.LVL48:
 329 00b4 291C     	 mov r1,r5
 330 00b6 FFF7FEFF 	 bl ecp_modp
 331              	.LVL49:
 332 00ba 041E     	 sub r4,r0,#0
 333              	.LVL50:
 334 00bc 00D0     	 beq .LCB324
 335 00be 97E1     	 b .L31
 336              	.LCB324:
1282:C:/Workspace/DAVE-4.4.2-64Bit/optiga-trust-m/externals/mbedtls/library\ecp.c ****         MBEDTLS_MPI_CHK( mbedtls_mpi_mul_int( &M,  &S,     3       ) ); MOD_ADD( M );
 337              	 .loc 1 1282 0
 338 00c0 02A8     	 add r0,sp,#8
 339              	.LVL51:
 340 00c2 05A9     	 add r1,sp,#20
 341 00c4 0322     	 mov r2,#3
 342 00c6 FFF7FEFF 	 bl mbedtls_mpi_mul_int
 343              	.LVL52:
 344              	.L82:
 345              	 .loc 1 1282 0 is_stmt 0 discriminator 2
 346 00ca 041E     	 sub r4,r0,#0
 347              	.LVL53:
 348 00cc 00D0     	 beq .LCB338
 349 00ce 8FE1     	 b .L31
 350              	.LCB338:
 351              	 .loc 1 1282 0 discriminator 1
 352 00d0 02A8     	 add r0,sp,#8
 353              	.LVL54:
 354 00d2 311C     	 mov r1,r6
 355 00d4 FFF7FEFF 	 bl mbedtls_mpi_cmp_mpi
 356              	.LVL55:
 357 00d8 0028     	 cmp r0,#0
 358 00da 0EDB     	 blt .L44
 359              	 .loc 1 1282 0 discriminator 2
 360 00dc 02A8     	 add r0,sp,#8
 361 00de 011C     	 mov r1,r0
 362 00e0 321C     	 mov r2,r6
 363 00e2 FFF7FEFF 	 bl mbedtls_mpi_sub_abs
 364              	.LVL56:
 365 00e6 F0E7     	 b .L82
 366              	.L97:
1283:C:/Workspace/DAVE-4.4.2-64Bit/optiga-trust-m/externals/mbedtls/library\ecp.c ****     }
1284:C:/Workspace/DAVE-4.4.2-64Bit/optiga-trust-m/externals/mbedtls/library\ecp.c ****     else
1285:C:/Workspace/DAVE-4.4.2-64Bit/optiga-trust-m/externals/mbedtls/library\ecp.c ****     {
1286:C:/Workspace/DAVE-4.4.2-64Bit/optiga-trust-m/externals/mbedtls/library\ecp.c ****         /* M = 3.X^2 */
1287:C:/Workspace/DAVE-4.4.2-64Bit/optiga-trust-m/externals/mbedtls/library\ecp.c ****         MBEDTLS_MPI_CHK( mbedtls_mpi_mul_mpi( &S,  &P->X,  &P->X   ) ); MOD_MUL( S );
1288:C:/Workspace/DAVE-4.4.2-64Bit/optiga-trust-m/externals/mbedtls/library\ecp.c ****         MBEDTLS_MPI_CHK( mbedtls_mpi_mul_int( &M,  &S,     3       ) ); MOD_ADD( M );
1289:C:/Workspace/DAVE-4.4.2-64Bit/optiga-trust-m/externals/mbedtls/library\ecp.c **** 
1290:C:/Workspace/DAVE-4.4.2-64Bit/optiga-trust-m/externals/mbedtls/library\ecp.c ****         /* Optimize away for "koblitz" curves with A = 0 */
1291:C:/Workspace/DAVE-4.4.2-64Bit/optiga-trust-m/externals/mbedtls/library\ecp.c ****         if( mbedtls_mpi_cmp_int( &grp->A, 0 ) != 0 )
 367              	 .loc 1 1291 0 is_stmt 1
 368 00e8 2B1C     	 mov r3,r5
 369 00ea 1033     	 add r3,r3,#16
 370 00ec 181C     	 mov r0,r3
 371 00ee 0021     	 mov r1,#0
 372 00f0 0093     	 str r3,[sp]
 373 00f2 FFF7FEFF 	 bl mbedtls_mpi_cmp_int
 374              	.LVL57:
 375 00f6 0028     	 cmp r0,#0
 376 00f8 2ED1     	 bne .L95
 377              	.L44:
1292:C:/Workspace/DAVE-4.4.2-64Bit/optiga-trust-m/externals/mbedtls/library\ecp.c ****         {
1293:C:/Workspace/DAVE-4.4.2-64Bit/optiga-trust-m/externals/mbedtls/library\ecp.c ****             /* M += A.Z^4 */
1294:C:/Workspace/DAVE-4.4.2-64Bit/optiga-trust-m/externals/mbedtls/library\ecp.c ****             MBEDTLS_MPI_CHK( mbedtls_mpi_mul_mpi( &S,  &P->Z,  &P->Z   ) ); MOD_MUL( S );
1295:C:/Workspace/DAVE-4.4.2-64Bit/optiga-trust-m/externals/mbedtls/library\ecp.c ****             MBEDTLS_MPI_CHK( mbedtls_mpi_mul_mpi( &T,  &S,     &S      ) ); MOD_MUL( T );
1296:C:/Workspace/DAVE-4.4.2-64Bit/optiga-trust-m/externals/mbedtls/library\ecp.c ****             MBEDTLS_MPI_CHK( mbedtls_mpi_mul_mpi( &S,  &T,     &grp->A ) ); MOD_MUL( S );
1297:C:/Workspace/DAVE-4.4.2-64Bit/optiga-trust-m/externals/mbedtls/library\ecp.c ****             MBEDTLS_MPI_CHK( mbedtls_mpi_add_mpi( &M,  &M,     &S      ) ); MOD_ADD( M );
1298:C:/Workspace/DAVE-4.4.2-64Bit/optiga-trust-m/externals/mbedtls/library\ecp.c ****         }
1299:C:/Workspace/DAVE-4.4.2-64Bit/optiga-trust-m/externals/mbedtls/library\ecp.c ****     }
1300:C:/Workspace/DAVE-4.4.2-64Bit/optiga-trust-m/externals/mbedtls/library\ecp.c **** 
1301:C:/Workspace/DAVE-4.4.2-64Bit/optiga-trust-m/externals/mbedtls/library\ecp.c ****     /* S = 4.X.Y^2 */
1302:C:/Workspace/DAVE-4.4.2-64Bit/optiga-trust-m/externals/mbedtls/library\ecp.c ****     MBEDTLS_MPI_CHK( mbedtls_mpi_mul_mpi( &T,  &P->Y,  &P->Y   ) ); MOD_MUL( T );
 378              	 .loc 1 1302 0
 379 00fa 3B1C     	 mov r3,r7
 380 00fc 0C33     	 add r3,r3,#12
 381 00fe 08A8     	 add r0,sp,#32
 382 0100 191C     	 mov r1,r3
 383 0102 1A1C     	 mov r2,r3
 384 0104 0093     	 str r3,[sp]
 385 0106 FFF7FEFF 	 bl mbedtls_mpi_mul_mpi
 386              	.LVL58:
 387 010a 041E     	 sub r4,r0,#0
 388              	.LVL59:
 389 010c 00D0     	 beq .LCB384
 390 010e 6FE1     	 b .L31
 391              	.LCB384:
 392 0110 64E0     	 b .L96
 393              	.LVL60:
 394              	.L30:
1287:C:/Workspace/DAVE-4.4.2-64Bit/optiga-trust-m/externals/mbedtls/library\ecp.c ****         MBEDTLS_MPI_CHK( mbedtls_mpi_mul_int( &M,  &S,     3       ) ); MOD_ADD( M );
 395              	 .loc 1 1287 0
 396 0112 391C     	 mov r1,r7
 397 0114 3A1C     	 mov r2,r7
 398 0116 FFF7FEFF 	 bl mbedtls_mpi_mul_mpi
 399              	.LVL61:
 400 011a 041E     	 sub r4,r0,#0
 401              	.LVL62:
 402 011c 00D0     	 beq .LCB398
 403 011e 67E1     	 b .L31
 404              	.LCB398:
1287:C:/Workspace/DAVE-4.4.2-64Bit/optiga-trust-m/externals/mbedtls/library\ecp.c ****         MBEDTLS_MPI_CHK( mbedtls_mpi_mul_int( &M,  &S,     3       ) ); MOD_ADD( M );
 405              	 .loc 1 1287 0 is_stmt 0 discriminator 1
 406 0120 05A8     	 add r0,sp,#20
 407              	.LVL63:
 408 0122 291C     	 mov r1,r5
 409 0124 FFF7FEFF 	 bl ecp_modp
 410              	.LVL64:
 411 0128 041E     	 sub r4,r0,#0
 412              	.LVL65:
 413 012a 00D0     	 beq .LCB408
 414 012c 60E1     	 b .L31
 415              	.LCB408:
1288:C:/Workspace/DAVE-4.4.2-64Bit/optiga-trust-m/externals/mbedtls/library\ecp.c **** 
 416              	 .loc 1 1288 0 is_stmt 1
 417 012e 02A8     	 add r0,sp,#8
 418              	.LVL66:
 419 0130 05A9     	 add r1,sp,#20
 420 0132 0322     	 mov r2,#3
 421 0134 FFF7FEFF 	 bl mbedtls_mpi_mul_int
 422              	.LVL67:
 423              	.L83:
1288:C:/Workspace/DAVE-4.4.2-64Bit/optiga-trust-m/externals/mbedtls/library\ecp.c **** 
 424              	 .loc 1 1288 0 is_stmt 0 discriminator 2
 425 0138 041E     	 sub r4,r0,#0
 426              	.LVL68:
 427 013a 00D0     	 beq .LCB422
 428 013c 58E1     	 b .L31
 429              	.LCB422:
1288:C:/Workspace/DAVE-4.4.2-64Bit/optiga-trust-m/externals/mbedtls/library\ecp.c **** 
 430              	 .loc 1 1288 0 discriminator 1
 431 013e 2E1D     	 add r6,r5,#4
 432 0140 02A8     	 add r0,sp,#8
 433              	.LVL69:
 434 0142 311C     	 mov r1,r6
 435 0144 FFF7FEFF 	 bl mbedtls_mpi_cmp_mpi
 436              	.LVL70:
 437 0148 0028     	 cmp r0,#0
 438 014a CDDB     	 blt .L97
1288:C:/Workspace/DAVE-4.4.2-64Bit/optiga-trust-m/externals/mbedtls/library\ecp.c **** 
 439              	 .loc 1 1288 0 discriminator 2
 440 014c 02A8     	 add r0,sp,#8
 441 014e 011C     	 mov r1,r0
 442 0150 321C     	 mov r2,r6
 443 0152 FFF7FEFF 	 bl mbedtls_mpi_sub_abs
 444              	.LVL71:
 445 0156 EFE7     	 b .L83
 446              	.L95:
1294:C:/Workspace/DAVE-4.4.2-64Bit/optiga-trust-m/externals/mbedtls/library\ecp.c ****             MBEDTLS_MPI_CHK( mbedtls_mpi_mul_mpi( &T,  &S,     &S      ) ); MOD_MUL( T );
 447              	 .loc 1 1294 0 is_stmt 1
 448 0158 3A1C     	 mov r2,r7
 449 015a 1832     	 add r2,r2,#24
 450 015c 05A8     	 add r0,sp,#20
 451 015e 111C     	 mov r1,r2
 452 0160 FFF7FEFF 	 bl mbedtls_mpi_mul_mpi
 453              	.LVL72:
 454 0164 041E     	 sub r4,r0,#0
 455              	.LVL73:
 456 0166 00D0     	 beq .LCB452
 457 0168 42E1     	 b .L31
 458              	.LCB452:
1294:C:/Workspace/DAVE-4.4.2-64Bit/optiga-trust-m/externals/mbedtls/library\ecp.c ****             MBEDTLS_MPI_CHK( mbedtls_mpi_mul_mpi( &T,  &S,     &S      ) ); MOD_MUL( T );
 459              	 .loc 1 1294 0 is_stmt 0 discriminator 1
 460 016a 05A8     	 add r0,sp,#20
 461              	.LVL74:
 462 016c 291C     	 mov r1,r5
 463 016e FFF7FEFF 	 bl ecp_modp
 464              	.LVL75:
 465 0172 041E     	 sub r4,r0,#0
 466              	.LVL76:
 467 0174 00D0     	 beq .LCB462
 468 0176 3BE1     	 b .L31
 469              	.LCB462:
1295:C:/Workspace/DAVE-4.4.2-64Bit/optiga-trust-m/externals/mbedtls/library\ecp.c ****             MBEDTLS_MPI_CHK( mbedtls_mpi_mul_mpi( &S,  &T,     &grp->A ) ); MOD_MUL( S );
 470              	 .loc 1 1295 0 is_stmt 1
 471 0178 05A9     	 add r1,sp,#20
 472 017a 08A8     	 add r0,sp,#32
 473              	.LVL77:
 474 017c 0A1C     	 mov r2,r1
 475 017e FFF7FEFF 	 bl mbedtls_mpi_mul_mpi
 476              	.LVL78:
 477 0182 041E     	 sub r4,r0,#0
 478              	.LVL79:
 479 0184 00D0     	 beq .LCB474
 480 0186 33E1     	 b .L31
 481              	.LCB474:
1295:C:/Workspace/DAVE-4.4.2-64Bit/optiga-trust-m/externals/mbedtls/library\ecp.c ****             MBEDTLS_MPI_CHK( mbedtls_mpi_mul_mpi( &S,  &T,     &grp->A ) ); MOD_MUL( S );
 482              	 .loc 1 1295 0 is_stmt 0 discriminator 1
 483 0188 08A8     	 add r0,sp,#32
 484              	.LVL80:
 485 018a 291C     	 mov r1,r5
 486 018c FFF7FEFF 	 bl ecp_modp
 487              	.LVL81:
 488 0190 041E     	 sub r4,r0,#0
 489              	.LVL82:
 490 0192 00D0     	 beq .LCB484
 491 0194 2CE1     	 b .L31
 492              	.LCB484:
1296:C:/Workspace/DAVE-4.4.2-64Bit/optiga-trust-m/externals/mbedtls/library\ecp.c ****             MBEDTLS_MPI_CHK( mbedtls_mpi_add_mpi( &M,  &M,     &S      ) ); MOD_ADD( M );
 493              	 .loc 1 1296 0 is_stmt 1
 494 0196 05A8     	 add r0,sp,#20
 495              	.LVL83:
 496 0198 08A9     	 add r1,sp,#32
 497 019a 009A     	 ldr r2,[sp]
 498 019c FFF7FEFF 	 bl mbedtls_mpi_mul_mpi
 499              	.LVL84:
 500 01a0 041E     	 sub r4,r0,#0
 501              	.LVL85:
 502 01a2 00D0     	 beq .LCB495
 503 01a4 24E1     	 b .L31
 504              	.LCB495:
1296:C:/Workspace/DAVE-4.4.2-64Bit/optiga-trust-m/externals/mbedtls/library\ecp.c ****             MBEDTLS_MPI_CHK( mbedtls_mpi_add_mpi( &M,  &M,     &S      ) ); MOD_ADD( M );
 505              	 .loc 1 1296 0 is_stmt 0 discriminator 1
 506 01a6 05A8     	 add r0,sp,#20
 507              	.LVL86:
 508 01a8 291C     	 mov r1,r5
 509 01aa FFF7FEFF 	 bl ecp_modp
 510              	.LVL87:
 511 01ae 041E     	 sub r4,r0,#0
 512              	.LVL88:
 513 01b0 00D0     	 beq .LCB505
 514 01b2 1DE1     	 b .L31
 515              	.LCB505:
1297:C:/Workspace/DAVE-4.4.2-64Bit/optiga-trust-m/externals/mbedtls/library\ecp.c ****         }
 516              	 .loc 1 1297 0 is_stmt 1
 517 01b4 02A8     	 add r0,sp,#8
 518              	.LVL89:
 519 01b6 011C     	 mov r1,r0
 520 01b8 05AA     	 add r2,sp,#20
 521 01ba FFF7FEFF 	 bl mbedtls_mpi_add_mpi
 522              	.LVL90:
 523              	.L84:
1297:C:/Workspace/DAVE-4.4.2-64Bit/optiga-trust-m/externals/mbedtls/library\ecp.c ****         }
 524              	 .loc 1 1297 0 is_stmt 0 discriminator 2
 525 01be 041E     	 sub r4,r0,#0
 526              	.LVL91:
 527 01c0 00D0     	 beq .LCB519
 528 01c2 15E1     	 b .L31
 529              	.LCB519:
1297:C:/Workspace/DAVE-4.4.2-64Bit/optiga-trust-m/externals/mbedtls/library\ecp.c ****         }
 530              	 .loc 1 1297 0 discriminator 1
 531 01c4 02A8     	 add r0,sp,#8
 532              	.LVL92:
 533 01c6 311C     	 mov r1,r6
 534 01c8 FFF7FEFF 	 bl mbedtls_mpi_cmp_mpi
 535              	.LVL93:
 536 01cc 0028     	 cmp r0,#0
 537 01ce 94DB     	 blt .L44
1297:C:/Workspace/DAVE-4.4.2-64Bit/optiga-trust-m/externals/mbedtls/library\ecp.c ****         }
 538              	 .loc 1 1297 0 discriminator 2
 539 01d0 02A8     	 add r0,sp,#8
 540 01d2 011C     	 mov r1,r0
 541 01d4 321C     	 mov r2,r6
 542 01d6 FFF7FEFF 	 bl mbedtls_mpi_sub_abs
 543              	.LVL94:
 544 01da F0E7     	 b .L84
 545              	.LVL95:
 546              	.L96:
 547              	 .loc 1 1302 0 is_stmt 1 discriminator 1
 548 01dc 08A8     	 add r0,sp,#32
 549              	.LVL96:
 550 01de 291C     	 mov r1,r5
 551 01e0 FFF7FEFF 	 bl ecp_modp
 552              	.LVL97:
 553 01e4 041E     	 sub r4,r0,#0
 554              	.LVL98:
 555 01e6 00D0     	 beq .LCB549
 556 01e8 02E1     	 b .L31
 557              	.LCB549:
1303:C:/Workspace/DAVE-4.4.2-64Bit/optiga-trust-m/externals/mbedtls/library\ecp.c ****     MBEDTLS_MPI_CHK( mbedtls_mpi_shift_l( &T,  1               ) ); MOD_ADD( T );
 558              	 .loc 1 1303 0
 559 01ea 08A8     	 add r0,sp,#32
 560              	.LVL99:
 561 01ec 0121     	 mov r1,#1
 562 01ee FFF7FEFF 	 bl mbedtls_mpi_shift_l
 563              	.LVL100:
 564              	.L85:
 565              	 .loc 1 1303 0 is_stmt 0 discriminator 2
 566 01f2 041E     	 sub r4,r0,#0
 567              	.LVL101:
 568 01f4 00D0     	 beq .LCB562
 569 01f6 FBE0     	 b .L31
 570              	.LCB562:
 571              	 .loc 1 1303 0 discriminator 1
 572 01f8 2E1D     	 add r6,r5,#4
 573 01fa 08A8     	 add r0,sp,#32
 574              	.LVL102:
 575 01fc 311C     	 mov r1,r6
 576 01fe FFF7FEFF 	 bl mbedtls_mpi_cmp_mpi
 577              	.LVL103:
 578 0202 0028     	 cmp r0,#0
 579 0204 05DB     	 blt .L98
 580              	 .loc 1 1303 0 discriminator 2
 581 0206 08A8     	 add r0,sp,#32
 582 0208 011C     	 mov r1,r0
 583 020a 321C     	 mov r2,r6
 584 020c FFF7FEFF 	 bl mbedtls_mpi_sub_abs
 585              	.LVL104:
 586 0210 EFE7     	 b .L85
 587              	.L98:
1304:C:/Workspace/DAVE-4.4.2-64Bit/optiga-trust-m/externals/mbedtls/library\ecp.c ****     MBEDTLS_MPI_CHK( mbedtls_mpi_mul_mpi( &S,  &P->X,  &T      ) ); MOD_MUL( S );
 588              	 .loc 1 1304 0 is_stmt 1
 589 0212 05A8     	 add r0,sp,#20
 590 0214 391C     	 mov r1,r7
 591 0216 08AA     	 add r2,sp,#32
 592 0218 FFF7FEFF 	 bl mbedtls_mpi_mul_mpi
 593              	.LVL105:
 594 021c 041E     	 sub r4,r0,#0
 595              	.LVL106:
 596 021e 00D0     	 beq .LCB591
 597 0220 E6E0     	 b .L31
 598              	.LCB591:
 599              	 .loc 1 1304 0 is_stmt 0 discriminator 1
 600 0222 05A8     	 add r0,sp,#20
 601              	.LVL107:
 602 0224 291C     	 mov r1,r5
 603 0226 FFF7FEFF 	 bl ecp_modp
 604              	.LVL108:
 605 022a 041E     	 sub r4,r0,#0
 606              	.LVL109:
 607 022c 00D0     	 beq .LCB601
 608 022e DFE0     	 b .L31
 609              	.LCB601:
1305:C:/Workspace/DAVE-4.4.2-64Bit/optiga-trust-m/externals/mbedtls/library\ecp.c ****     MBEDTLS_MPI_CHK( mbedtls_mpi_shift_l( &S,  1               ) ); MOD_ADD( S );
 610              	 .loc 1 1305 0 is_stmt 1
 611 0230 05A8     	 add r0,sp,#20
 612              	.LVL110:
 613 0232 0121     	 mov r1,#1
 614 0234 FFF7FEFF 	 bl mbedtls_mpi_shift_l
 615              	.LVL111:
 616              	.L86:
 617              	 .loc 1 1305 0 is_stmt 0 discriminator 2
 618 0238 041E     	 sub r4,r0,#0
 619              	.LVL112:
 620 023a 00D0     	 beq .LCB614
 621 023c D8E0     	 b .L31
 622              	.LCB614:
 623              	 .loc 1 1305 0 discriminator 1
 624 023e 05A8     	 add r0,sp,#20
 625              	.LVL113:
 626 0240 311C     	 mov r1,r6
 627 0242 FFF7FEFF 	 bl mbedtls_mpi_cmp_mpi
 628              	.LVL114:
 629 0246 0028     	 cmp r0,#0
 630 0248 05DB     	 blt .L99
 631              	 .loc 1 1305 0 discriminator 2
 632 024a 05A8     	 add r0,sp,#20
 633 024c 011C     	 mov r1,r0
 634 024e 321C     	 mov r2,r6
 635 0250 FFF7FEFF 	 bl mbedtls_mpi_sub_abs
 636              	.LVL115:
 637 0254 F0E7     	 b .L86
 638              	.L99:
1306:C:/Workspace/DAVE-4.4.2-64Bit/optiga-trust-m/externals/mbedtls/library\ecp.c **** 
1307:C:/Workspace/DAVE-4.4.2-64Bit/optiga-trust-m/externals/mbedtls/library\ecp.c ****     /* U = 8.Y^4 */
1308:C:/Workspace/DAVE-4.4.2-64Bit/optiga-trust-m/externals/mbedtls/library\ecp.c ****     MBEDTLS_MPI_CHK( mbedtls_mpi_mul_mpi( &U,  &T,     &T      ) ); MOD_MUL( U );
 639              	 .loc 1 1308 0 is_stmt 1
 640 0256 08A9     	 add r1,sp,#32
 641 0258 0BA8     	 add r0,sp,#44
 642 025a 0A1C     	 mov r2,r1
 643 025c FFF7FEFF 	 bl mbedtls_mpi_mul_mpi
 644              	.LVL116:
 645 0260 041E     	 sub r4,r0,#0
 646              	.LVL117:
 647 0262 00D0     	 beq .LCB643
 648 0264 C4E0     	 b .L31
 649              	.LCB643:
 650              	 .loc 1 1308 0 is_stmt 0 discriminator 1
 651 0266 0BA8     	 add r0,sp,#44
 652              	.LVL118:
 653 0268 291C     	 mov r1,r5
 654 026a FFF7FEFF 	 bl ecp_modp
 655              	.LVL119:
 656 026e 041E     	 sub r4,r0,#0
 657              	.LVL120:
 658 0270 00D0     	 beq .LCB653
 659 0272 BDE0     	 b .L31
 660              	.LCB653:
1309:C:/Workspace/DAVE-4.4.2-64Bit/optiga-trust-m/externals/mbedtls/library\ecp.c ****     MBEDTLS_MPI_CHK( mbedtls_mpi_shift_l( &U,  1               ) ); MOD_ADD( U );
 661              	 .loc 1 1309 0 is_stmt 1
 662 0274 0BA8     	 add r0,sp,#44
 663              	.LVL121:
 664 0276 0121     	 mov r1,#1
 665 0278 FFF7FEFF 	 bl mbedtls_mpi_shift_l
 666              	.LVL122:
 667              	.L87:
 668              	 .loc 1 1309 0 is_stmt 0 discriminator 2
 669 027c 041E     	 sub r4,r0,#0
 670              	.LVL123:
 671 027e 00D0     	 beq .LCB666
 672 0280 B6E0     	 b .L31
 673              	.LCB666:
 674              	 .loc 1 1309 0 discriminator 1
 675 0282 0BA8     	 add r0,sp,#44
 676              	.LVL124:
 677 0284 311C     	 mov r1,r6
 678 0286 FFF7FEFF 	 bl mbedtls_mpi_cmp_mpi
 679              	.LVL125:
 680 028a 0028     	 cmp r0,#0
 681 028c 05DB     	 blt .L100
 682              	 .loc 1 1309 0 discriminator 2
 683 028e 0BA8     	 add r0,sp,#44
 684 0290 011C     	 mov r1,r0
 685 0292 321C     	 mov r2,r6
 686 0294 FFF7FEFF 	 bl mbedtls_mpi_sub_abs
 687              	.LVL126:
 688 0298 F0E7     	 b .L87
 689              	.L100:
1310:C:/Workspace/DAVE-4.4.2-64Bit/optiga-trust-m/externals/mbedtls/library\ecp.c **** 
1311:C:/Workspace/DAVE-4.4.2-64Bit/optiga-trust-m/externals/mbedtls/library\ecp.c ****     /* T = M^2 - 2.S */
1312:C:/Workspace/DAVE-4.4.2-64Bit/optiga-trust-m/externals/mbedtls/library\ecp.c ****     MBEDTLS_MPI_CHK( mbedtls_mpi_mul_mpi( &T,  &M,     &M      ) ); MOD_MUL( T );
 690              	 .loc 1 1312 0 is_stmt 1
 691 029a 02A9     	 add r1,sp,#8
 692 029c 08A8     	 add r0,sp,#32
 693 029e 0A1C     	 mov r2,r1
 694 02a0 FFF7FEFF 	 bl mbedtls_mpi_mul_mpi
 695              	.LVL127:
 696 02a4 041E     	 sub r4,r0,#0
 697              	.LVL128:
 698 02a6 00D0     	 beq .LCB695
 699 02a8 A2E0     	 b .L31
 700              	.LCB695:
 701              	 .loc 1 1312 0 is_stmt 0 discriminator 1
 702 02aa 08A8     	 add r0,sp,#32
 703              	.LVL129:
 704 02ac 291C     	 mov r1,r5
 705 02ae FFF7FEFF 	 bl ecp_modp
 706              	.LVL130:
 707 02b2 041E     	 sub r4,r0,#0
 708              	.LVL131:
 709 02b4 00D0     	 beq .LCB705
 710 02b6 9BE0     	 b .L31
 711              	.LCB705:
1313:C:/Workspace/DAVE-4.4.2-64Bit/optiga-trust-m/externals/mbedtls/library\ecp.c ****     MBEDTLS_MPI_CHK( mbedtls_mpi_sub_mpi( &T,  &T,     &S      ) ); MOD_SUB( T );
 712              	 .loc 1 1313 0 is_stmt 1
 713 02b8 08A8     	 add r0,sp,#32
 714              	.LVL132:
 715 02ba 011C     	 mov r1,r0
 716 02bc 05AA     	 add r2,sp,#20
 717 02be FFF7FEFF 	 bl mbedtls_mpi_sub_mpi
 718              	.LVL133:
 719              	.L88:
 720              	 .loc 1 1313 0 is_stmt 0 discriminator 3
 721 02c2 041E     	 sub r4,r0,#0
 722              	.LVL134:
 723 02c4 00D0     	 beq .LCB719
 724 02c6 93E0     	 b .L31
 725              	.LCB719:
 726              	 .loc 1 1313 0 discriminator 1
 727 02c8 089B     	 ldr r3,[sp,#32]
 728 02ca 002B     	 cmp r3,#0
 729 02cc 05DB     	 blt .L54
 730              	.LVL135:
 731              	.L57:
1314:C:/Workspace/DAVE-4.4.2-64Bit/optiga-trust-m/externals/mbedtls/library\ecp.c ****     MBEDTLS_MPI_CHK( mbedtls_mpi_sub_mpi( &T,  &T,     &S      ) ); MOD_SUB( T );
 732              	 .loc 1 1314 0 is_stmt 1
 733 02ce 08A8     	 add r0,sp,#32
 734 02d0 011C     	 mov r1,r0
 735 02d2 05AA     	 add r2,sp,#20
 736 02d4 FFF7FEFF 	 bl mbedtls_mpi_sub_mpi
 737              	.LVL136:
 738 02d8 19E0     	 b .L89
 739              	.LVL137:
 740              	.L54:
1313:C:/Workspace/DAVE-4.4.2-64Bit/optiga-trust-m/externals/mbedtls/library\ecp.c ****     MBEDTLS_MPI_CHK( mbedtls_mpi_sub_mpi( &T,  &T,     &S      ) ); MOD_SUB( T );
 741              	 .loc 1 1313 0 discriminator 2
 742 02da 08A8     	 add r0,sp,#32
 743              	.LVL138:
 744 02dc 0021     	 mov r1,#0
 745 02de FFF7FEFF 	 bl mbedtls_mpi_cmp_int
 746              	.LVL139:
 747 02e2 0028     	 cmp r0,#0
 748 02e4 F3D0     	 beq .L57
1313:C:/Workspace/DAVE-4.4.2-64Bit/optiga-trust-m/externals/mbedtls/library\ecp.c ****     MBEDTLS_MPI_CHK( mbedtls_mpi_sub_mpi( &T,  &T,     &S      ) ); MOD_SUB( T );
 749              	 .loc 1 1313 0 is_stmt 0 discriminator 3
 750 02e6 08A8     	 add r0,sp,#32
 751 02e8 011C     	 mov r1,r0
 752 02ea 321C     	 mov r2,r6
 753 02ec FFF7FEFF 	 bl mbedtls_mpi_add_mpi
 754              	.LVL140:
 755 02f0 E7E7     	 b .L88
 756              	.LVL141:
 757              	.L101:
 758              	 .loc 1 1314 0 is_stmt 1 discriminator 1
 759 02f2 089B     	 ldr r3,[sp,#32]
 760 02f4 002B     	 cmp r3,#0
 761 02f6 0DDA     	 bge .L61
 762              	 .loc 1 1314 0 is_stmt 0 discriminator 2
 763 02f8 08A8     	 add r0,sp,#32
 764              	.LVL142:
 765 02fa 0021     	 mov r1,#0
 766 02fc FFF7FEFF 	 bl mbedtls_mpi_cmp_int
 767              	.LVL143:
 768 0300 0028     	 cmp r0,#0
 769 0302 07D0     	 beq .L61
 770              	 .loc 1 1314 0 discriminator 3
 771 0304 08A8     	 add r0,sp,#32
 772 0306 011C     	 mov r1,r0
 773 0308 321C     	 mov r2,r6
 774 030a FFF7FEFF 	 bl mbedtls_mpi_add_mpi
 775              	.LVL144:
 776              	.L89:
 777 030e 041E     	 sub r4,r0,#0
 778              	.LVL145:
 779 0310 EFD0     	 beq .L101
 780 0312 6DE0     	 b .L31
 781              	.LVL146:
 782              	.L61:
1315:C:/Workspace/DAVE-4.4.2-64Bit/optiga-trust-m/externals/mbedtls/library\ecp.c **** 
1316:C:/Workspace/DAVE-4.4.2-64Bit/optiga-trust-m/externals/mbedtls/library\ecp.c ****     /* S = M(S - T) - U */
1317:C:/Workspace/DAVE-4.4.2-64Bit/optiga-trust-m/externals/mbedtls/library\ecp.c ****     MBEDTLS_MPI_CHK( mbedtls_mpi_sub_mpi( &S,  &S,     &T      ) ); MOD_SUB( S );
 783              	 .loc 1 1317 0 is_stmt 1
 784 0314 05A8     	 add r0,sp,#20
 785 0316 011C     	 mov r1,r0
 786 0318 08AA     	 add r2,sp,#32
 787 031a FFF7FEFF 	 bl mbedtls_mpi_sub_mpi
 788              	.LVL147:
 789 031e 0DE0     	 b .L90
 790              	.LVL148:
 791              	.L102:
 792              	 .loc 1 1317 0 is_stmt 0 discriminator 1
 793 0320 059B     	 ldr r3,[sp,#20]
 794 0322 002B     	 cmp r3,#0
 795 0324 0DDA     	 bge .L65
 796              	 .loc 1 1317 0 discriminator 2
 797 0326 05A8     	 add r0,sp,#20
 798              	.LVL149:
 799 0328 0021     	 mov r1,#0
 800 032a FFF7FEFF 	 bl mbedtls_mpi_cmp_int
 801              	.LVL150:
 802 032e 0028     	 cmp r0,#0
 803 0330 07D0     	 beq .L65
 804              	 .loc 1 1317 0 discriminator 3
 805 0332 05A8     	 add r0,sp,#20
 806 0334 011C     	 mov r1,r0
 807 0336 321C     	 mov r2,r6
 808 0338 FFF7FEFF 	 bl mbedtls_mpi_add_mpi
 809              	.LVL151:
 810              	.L90:
 811 033c 041E     	 sub r4,r0,#0
 812              	.LVL152:
 813 033e EFD0     	 beq .L102
 814 0340 56E0     	 b .L31
 815              	.LVL153:
 816              	.L65:
1318:C:/Workspace/DAVE-4.4.2-64Bit/optiga-trust-m/externals/mbedtls/library\ecp.c ****     MBEDTLS_MPI_CHK( mbedtls_mpi_mul_mpi( &S,  &S,     &M      ) ); MOD_MUL( S );
 817              	 .loc 1 1318 0 is_stmt 1
 818 0342 05A8     	 add r0,sp,#20
 819 0344 011C     	 mov r1,r0
 820 0346 02AA     	 add r2,sp,#8
 821 0348 FFF7FEFF 	 bl mbedtls_mpi_mul_mpi
 822              	.LVL154:
 823 034c 041E     	 sub r4,r0,#0
 824              	.LVL155:
 825 034e 4FD1     	 bne .L31
 826              	 .loc 1 1318 0 is_stmt 0 discriminator 1
 827 0350 05A8     	 add r0,sp,#20
 828              	.LVL156:
 829 0352 291C     	 mov r1,r5
 830 0354 FFF7FEFF 	 bl ecp_modp
 831              	.LVL157:
 832 0358 041E     	 sub r4,r0,#0
 833              	.LVL158:
 834 035a 49D1     	 bne .L31
1319:C:/Workspace/DAVE-4.4.2-64Bit/optiga-trust-m/externals/mbedtls/library\ecp.c ****     MBEDTLS_MPI_CHK( mbedtls_mpi_sub_mpi( &S,  &S,     &U      ) ); MOD_SUB( S );
 835              	 .loc 1 1319 0 is_stmt 1
 836 035c 05A8     	 add r0,sp,#20
 837              	.LVL159:
 838 035e 011C     	 mov r1,r0
 839 0360 0BAA     	 add r2,sp,#44
 840 0362 FFF7FEFF 	 bl mbedtls_mpi_sub_mpi
 841              	.LVL160:
 842              	.L91:
 843              	 .loc 1 1319 0 is_stmt 0 discriminator 3
 844 0366 041E     	 sub r4,r0,#0
 845              	.LVL161:
 846 0368 42D1     	 bne .L31
 847              	 .loc 1 1319 0 discriminator 1
 848 036a 059B     	 ldr r3,[sp,#20]
 849 036c 002B     	 cmp r3,#0
 850 036e 08DB     	 blt .L67
 851              	.LVL162:
 852              	.L70:
1320:C:/Workspace/DAVE-4.4.2-64Bit/optiga-trust-m/externals/mbedtls/library\ecp.c **** 
1321:C:/Workspace/DAVE-4.4.2-64Bit/optiga-trust-m/externals/mbedtls/library\ecp.c ****     /* U = 2.Y.Z */
1322:C:/Workspace/DAVE-4.4.2-64Bit/optiga-trust-m/externals/mbedtls/library\ecp.c ****     MBEDTLS_MPI_CHK( mbedtls_mpi_mul_mpi( &U,  &P->Y,  &P->Z   ) ); MOD_MUL( U );
 853              	 .loc 1 1322 0 is_stmt 1
 854 0370 3A1C     	 mov r2,r7
 855 0372 0BA8     	 add r0,sp,#44
 856 0374 1832     	 add r2,r2,#24
 857 0376 0099     	 ldr r1,[sp]
 858 0378 FFF7FEFF 	 bl mbedtls_mpi_mul_mpi
 859              	.LVL163:
 860 037c 041E     	 sub r4,r0,#0
 861              	.LVL164:
 862 037e 37D1     	 bne .L31
 863 0380 0BE0     	 b .L103
 864              	.L67:
1319:C:/Workspace/DAVE-4.4.2-64Bit/optiga-trust-m/externals/mbedtls/library\ecp.c ****     MBEDTLS_MPI_CHK( mbedtls_mpi_sub_mpi( &S,  &S,     &U      ) ); MOD_SUB( S );
 865              	 .loc 1 1319 0 discriminator 2
 866 0382 05A8     	 add r0,sp,#20
 867              	.LVL165:
 868 0384 0021     	 mov r1,#0
 869 0386 FFF7FEFF 	 bl mbedtls_mpi_cmp_int
 870              	.LVL166:
 871 038a 0028     	 cmp r0,#0
 872 038c F0D0     	 beq .L70
1319:C:/Workspace/DAVE-4.4.2-64Bit/optiga-trust-m/externals/mbedtls/library\ecp.c ****     MBEDTLS_MPI_CHK( mbedtls_mpi_sub_mpi( &S,  &S,     &U      ) ); MOD_SUB( S );
 873              	 .loc 1 1319 0 is_stmt 0 discriminator 3
 874 038e 05A8     	 add r0,sp,#20
 875 0390 011C     	 mov r1,r0
 876 0392 321C     	 mov r2,r6
 877 0394 FFF7FEFF 	 bl mbedtls_mpi_add_mpi
 878              	.LVL167:
 879 0398 E5E7     	 b .L91
 880              	.LVL168:
 881              	.L103:
 882              	 .loc 1 1322 0 is_stmt 1 discriminator 1
 883 039a 0BA8     	 add r0,sp,#44
 884              	.LVL169:
 885 039c 291C     	 mov r1,r5
 886 039e FFF7FEFF 	 bl ecp_modp
 887              	.LVL170:
 888 03a2 041E     	 sub r4,r0,#0
 889              	.LVL171:
 890 03a4 24D1     	 bne .L31
1323:C:/Workspace/DAVE-4.4.2-64Bit/optiga-trust-m/externals/mbedtls/library\ecp.c ****     MBEDTLS_MPI_CHK( mbedtls_mpi_shift_l( &U,  1               ) ); MOD_ADD( U );
 891              	 .loc 1 1323 0
 892 03a6 0BA8     	 add r0,sp,#44
 893              	.LVL172:
 894 03a8 0121     	 mov r1,#1
 895 03aa FFF7FEFF 	 bl mbedtls_mpi_shift_l
 896              	.LVL173:
 897              	.L92:
 898              	 .loc 1 1323 0 is_stmt 0 discriminator 2
 899 03ae 041E     	 sub r4,r0,#0
 900              	.LVL174:
 901 03b0 1ED1     	 bne .L31
 902              	 .loc 1 1323 0 discriminator 1
 903 03b2 0BA8     	 add r0,sp,#44
 904              	.LVL175:
 905 03b4 311C     	 mov r1,r6
 906 03b6 FFF7FEFF 	 bl mbedtls_mpi_cmp_mpi
 907              	.LVL176:
 908 03ba 0028     	 cmp r0,#0
 909 03bc 05DB     	 blt .L104
 910              	 .loc 1 1323 0 discriminator 2
 911 03be 0BA8     	 add r0,sp,#44
 912 03c0 011C     	 mov r1,r0
 913 03c2 321C     	 mov r2,r6
 914 03c4 FFF7FEFF 	 bl mbedtls_mpi_sub_abs
 915              	.LVL177:
 916 03c8 F1E7     	 b .L92
 917              	.L104:
1324:C:/Workspace/DAVE-4.4.2-64Bit/optiga-trust-m/externals/mbedtls/library\ecp.c **** 
1325:C:/Workspace/DAVE-4.4.2-64Bit/optiga-trust-m/externals/mbedtls/library\ecp.c ****     MBEDTLS_MPI_CHK( mbedtls_mpi_copy( &R->X, &T ) );
 918              	 .loc 1 1325 0 is_stmt 1
 919 03ca 0198     	 ldr r0,[sp,#4]
 920 03cc 08A9     	 add r1,sp,#32
 921 03ce FFF7FEFF 	 bl mbedtls_mpi_copy
 922              	.LVL178:
 923 03d2 041E     	 sub r4,r0,#0
 924              	.LVL179:
 925 03d4 0CD1     	 bne .L31
1326:C:/Workspace/DAVE-4.4.2-64Bit/optiga-trust-m/externals/mbedtls/library\ecp.c ****     MBEDTLS_MPI_CHK( mbedtls_mpi_copy( &R->Y, &S ) );
 926              	 .loc 1 1326 0
 927 03d6 0198     	 ldr r0,[sp,#4]
 928              	.LVL180:
 929 03d8 05A9     	 add r1,sp,#20
 930 03da 0C30     	 add r0,r0,#12
 931 03dc FFF7FEFF 	 bl mbedtls_mpi_copy
 932              	.LVL181:
 933 03e0 041E     	 sub r4,r0,#0
 934              	.LVL182:
 935 03e2 05D1     	 bne .L31
1327:C:/Workspace/DAVE-4.4.2-64Bit/optiga-trust-m/externals/mbedtls/library\ecp.c ****     MBEDTLS_MPI_CHK( mbedtls_mpi_copy( &R->Z, &U ) );
 936              	 .loc 1 1327 0
 937 03e4 0198     	 ldr r0,[sp,#4]
 938              	.LVL183:
 939 03e6 0BA9     	 add r1,sp,#44
 940 03e8 1830     	 add r0,r0,#24
 941 03ea FFF7FEFF 	 bl mbedtls_mpi_copy
 942              	.LVL184:
 943 03ee 041C     	 mov r4,r0
 944              	.LVL185:
 945              	.L31:
1328:C:/Workspace/DAVE-4.4.2-64Bit/optiga-trust-m/externals/mbedtls/library\ecp.c **** 
1329:C:/Workspace/DAVE-4.4.2-64Bit/optiga-trust-m/externals/mbedtls/library\ecp.c **** cleanup:
1330:C:/Workspace/DAVE-4.4.2-64Bit/optiga-trust-m/externals/mbedtls/library\ecp.c ****     mbedtls_mpi_free( &M ); mbedtls_mpi_free( &S ); mbedtls_mpi_free( &T ); mbedtls_mpi_free( &U );
 946              	 .loc 1 1330 0
 947 03f0 02A8     	 add r0,sp,#8
 948              	.LVL186:
 949 03f2 FFF7FEFF 	 bl mbedtls_mpi_free
 950              	.LVL187:
 951 03f6 05A8     	 add r0,sp,#20
 952 03f8 FFF7FEFF 	 bl mbedtls_mpi_free
 953              	.LVL188:
 954 03fc 08A8     	 add r0,sp,#32
 955 03fe FFF7FEFF 	 bl mbedtls_mpi_free
 956              	.LVL189:
 957 0402 0BA8     	 add r0,sp,#44
 958 0404 FFF7FEFF 	 bl mbedtls_mpi_free
 959              	.LVL190:
1331:C:/Workspace/DAVE-4.4.2-64Bit/optiga-trust-m/externals/mbedtls/library\ecp.c **** 
1332:C:/Workspace/DAVE-4.4.2-64Bit/optiga-trust-m/externals/mbedtls/library\ecp.c ****     return( ret );
1333:C:/Workspace/DAVE-4.4.2-64Bit/optiga-trust-m/externals/mbedtls/library\ecp.c **** }
 960              	 .loc 1 1333 0
 961 0408 201C     	 mov r0,r4
 962 040a 0FB0     	 add sp,sp,#60
 963              	 
 964              	.LVL191:
 965              	.LVL192:
 966              	.LVL193:
 967 040c F0BD     	 pop {r4,r5,r6,r7,pc}
 968              	 .cfi_endproc
 969              	.LFE29:
 971              	 .section .text.ecp_normalize_jac,"ax",%progbits
 972              	 .align 1
 973              	 .code 16
 974              	 .thumb_func
 976              	ecp_normalize_jac:
 977              	.LFB26:
1083:C:/Workspace/DAVE-4.4.2-64Bit/optiga-trust-m/externals/mbedtls/library\ecp.c ****     int ret;
 978              	 .loc 1 1083 0
 979              	 .cfi_startproc
 980              	.LVL194:
 981 0000 F0B5     	 push {r4,r5,r6,r7,lr}
 982              	.LCFI3:
 983              	 .cfi_def_cfa_offset 20
 984              	 .cfi_offset 4,-20
 985              	 .cfi_offset 5,-16
 986              	 .cfi_offset 6,-12
 987              	 .cfi_offset 7,-8
 988              	 .cfi_offset 14,-4
1087:C:/Workspace/DAVE-4.4.2-64Bit/optiga-trust-m/externals/mbedtls/library\ecp.c ****         return( 0 );
 989              	 .loc 1 1087 0
 990 0002 0F1C     	 mov r7,r1
 991 0004 1837     	 add r7,r7,#24
1083:C:/Workspace/DAVE-4.4.2-64Bit/optiga-trust-m/externals/mbedtls/library\ecp.c ****     int ret;
 992              	 .loc 1 1083 0
 993 0006 87B0     	 sub sp,sp,#28
 994              	.LCFI4:
 995              	 .cfi_def_cfa_offset 48
1083:C:/Workspace/DAVE-4.4.2-64Bit/optiga-trust-m/externals/mbedtls/library\ecp.c ****     int ret;
 996              	 .loc 1 1083 0
 997 0008 061C     	 mov r6,r0
 998 000a 0D1C     	 mov r5,r1
1087:C:/Workspace/DAVE-4.4.2-64Bit/optiga-trust-m/externals/mbedtls/library\ecp.c ****         return( 0 );
 999              	 .loc 1 1087 0
 1000 000c 381C     	 mov r0,r7
 1001              	.LVL195:
 1002 000e 0021     	 mov r1,#0
 1003              	.LVL196:
 1004 0010 FFF7FEFF 	 bl mbedtls_mpi_cmp_int
 1005              	.LVL197:
 1006 0014 0028     	 cmp r0,#0
 1007 0016 4DD0     	 beq .L106
1095:C:/Workspace/DAVE-4.4.2-64Bit/optiga-trust-m/externals/mbedtls/library\ecp.c **** 
 1008              	 .loc 1 1095 0
 1009 0018 6846     	 mov r0,sp
 1010 001a FFF7FEFF 	 bl mbedtls_mpi_init
 1011              	.LVL198:
 1012 001e 03A8     	 add r0,sp,#12
 1013 0020 FFF7FEFF 	 bl mbedtls_mpi_init
 1014              	.LVL199:
1100:C:/Workspace/DAVE-4.4.2-64Bit/optiga-trust-m/externals/mbedtls/library\ecp.c ****     MBEDTLS_MPI_CHK( mbedtls_mpi_mul_mpi( &ZZi,     &Zi,        &Zi     ) ); MOD_MUL( ZZi );
 1015              	 .loc 1 1100 0
 1016 0024 321D     	 add r2,r6,#4
 1017 0026 6846     	 mov r0,sp
 1018 0028 391C     	 mov r1,r7
 1019 002a FFF7FEFF 	 bl mbedtls_mpi_inv_mod
 1020              	.LVL200:
 1021 002e 041E     	 sub r4,r0,#0
 1022              	.LVL201:
 1023 0030 39D1     	 bne .L107
1101:C:/Workspace/DAVE-4.4.2-64Bit/optiga-trust-m/externals/mbedtls/library\ecp.c ****     MBEDTLS_MPI_CHK( mbedtls_mpi_mul_mpi( &pt->X,   &pt->X,     &ZZi    ) ); MOD_MUL( pt->X );
 1024              	 .loc 1 1101 0
 1025 0032 03A8     	 add r0,sp,#12
 1026              	.LVL202:
 1027 0034 6946     	 mov r1,sp
 1028 0036 6A46     	 mov r2,sp
 1029 0038 FFF7FEFF 	 bl mbedtls_mpi_mul_mpi
 1030              	.LVL203:
 1031 003c 041E     	 sub r4,r0,#0
 1032              	.LVL204:
 1033 003e 32D1     	 bne .L107
1101:C:/Workspace/DAVE-4.4.2-64Bit/optiga-trust-m/externals/mbedtls/library\ecp.c ****     MBEDTLS_MPI_CHK( mbedtls_mpi_mul_mpi( &pt->X,   &pt->X,     &ZZi    ) ); MOD_MUL( pt->X );
 1034              	 .loc 1 1101 0 is_stmt 0 discriminator 1
 1035 0040 03A8     	 add r0,sp,#12
 1036              	.LVL205:
 1037 0042 311C     	 mov r1,r6
 1038 0044 FFF7FEFF 	 bl ecp_modp
 1039              	.LVL206:
 1040 0048 041E     	 sub r4,r0,#0
 1041              	.LVL207:
 1042 004a 2CD1     	 bne .L107
1102:C:/Workspace/DAVE-4.4.2-64Bit/optiga-trust-m/externals/mbedtls/library\ecp.c **** 
 1043              	 .loc 1 1102 0 is_stmt 1
 1044 004c 281C     	 mov r0,r5
 1045              	.LVL208:
 1046 004e 291C     	 mov r1,r5
 1047 0050 03AA     	 add r2,sp,#12
 1048 0052 FFF7FEFF 	 bl mbedtls_mpi_mul_mpi
 1049              	.LVL209:
 1050 0056 041E     	 sub r4,r0,#0
 1051              	.LVL210:
 1052 0058 25D1     	 bne .L107
1102:C:/Workspace/DAVE-4.4.2-64Bit/optiga-trust-m/externals/mbedtls/library\ecp.c **** 
 1053              	 .loc 1 1102 0 is_stmt 0 discriminator 1
 1054 005a 281C     	 mov r0,r5
 1055              	.LVL211:
 1056 005c 311C     	 mov r1,r6
 1057 005e FFF7FEFF 	 bl ecp_modp
 1058              	.LVL212:
 1059 0062 041E     	 sub r4,r0,#0
 1060              	.LVL213:
 1061 0064 1FD1     	 bne .L107
1107:C:/Workspace/DAVE-4.4.2-64Bit/optiga-trust-m/externals/mbedtls/library\ecp.c ****     MBEDTLS_MPI_CHK( mbedtls_mpi_mul_mpi( &pt->Y,   &pt->Y,     &Zi     ) ); MOD_MUL( pt->Y );
 1062              	 .loc 1 1107 0 is_stmt 1
 1063 0066 0C35     	 add r5,r5,#12
 1064              	.LVL214:
 1065 0068 281C     	 mov r0,r5
 1066              	.LVL215:
 1067 006a 291C     	 mov r1,r5
 1068 006c 03AA     	 add r2,sp,#12
 1069 006e FFF7FEFF 	 bl mbedtls_mpi_mul_mpi
 1070              	.LVL216:
 1071 0072 041E     	 sub r4,r0,#0
 1072              	.LVL217:
 1073 0074 17D1     	 bne .L107
1107:C:/Workspace/DAVE-4.4.2-64Bit/optiga-trust-m/externals/mbedtls/library\ecp.c ****     MBEDTLS_MPI_CHK( mbedtls_mpi_mul_mpi( &pt->Y,   &pt->Y,     &Zi     ) ); MOD_MUL( pt->Y );
 1074              	 .loc 1 1107 0 is_stmt 0 discriminator 1
 1075 0076 281C     	 mov r0,r5
 1076              	.LVL218:
 1077 0078 311C     	 mov r1,r6
 1078 007a FFF7FEFF 	 bl ecp_modp
 1079              	.LVL219:
 1080 007e 041E     	 sub r4,r0,#0
 1081              	.LVL220:
 1082 0080 11D1     	 bne .L107
1108:C:/Workspace/DAVE-4.4.2-64Bit/optiga-trust-m/externals/mbedtls/library\ecp.c **** 
 1083              	 .loc 1 1108 0 is_stmt 1
 1084 0082 281C     	 mov r0,r5
 1085              	.LVL221:
 1086 0084 291C     	 mov r1,r5
 1087 0086 6A46     	 mov r2,sp
 1088 0088 FFF7FEFF 	 bl mbedtls_mpi_mul_mpi
 1089              	.LVL222:
 1090 008c 041E     	 sub r4,r0,#0
 1091              	.LVL223:
 1092 008e 0AD1     	 bne .L107
1108:C:/Workspace/DAVE-4.4.2-64Bit/optiga-trust-m/externals/mbedtls/library\ecp.c **** 
 1093              	 .loc 1 1108 0 is_stmt 0 discriminator 1
 1094 0090 281C     	 mov r0,r5
 1095              	.LVL224:
 1096 0092 311C     	 mov r1,r6
 1097 0094 FFF7FEFF 	 bl ecp_modp
 1098              	.LVL225:
 1099 0098 041E     	 sub r4,r0,#0
 1100              	.LVL226:
 1101 009a 04D1     	 bne .L107
1113:C:/Workspace/DAVE-4.4.2-64Bit/optiga-trust-m/externals/mbedtls/library\ecp.c **** 
 1102              	 .loc 1 1113 0 is_stmt 1
 1103 009c 381C     	 mov r0,r7
 1104              	.LVL227:
 1105 009e 0121     	 mov r1,#1
 1106 00a0 FFF7FEFF 	 bl mbedtls_mpi_lset
 1107              	.LVL228:
 1108 00a4 041C     	 mov r4,r0
 1109              	.LVL229:
 1110              	.L107:
1117:C:/Workspace/DAVE-4.4.2-64Bit/optiga-trust-m/externals/mbedtls/library\ecp.c **** 
 1111              	 .loc 1 1117 0
 1112 00a6 6846     	 mov r0,sp
 1113              	.LVL230:
 1114 00a8 FFF7FEFF 	 bl mbedtls_mpi_free
 1115              	.LVL231:
 1116 00ac 03A8     	 add r0,sp,#12
 1117 00ae FFF7FEFF 	 bl mbedtls_mpi_free
 1118              	.LVL232:
1119:C:/Workspace/DAVE-4.4.2-64Bit/optiga-trust-m/externals/mbedtls/library\ecp.c **** }
 1119              	 .loc 1 1119 0
 1120 00b2 201C     	 mov r0,r4
 1121              	.LVL233:
 1122              	.L106:
1120:C:/Workspace/DAVE-4.4.2-64Bit/optiga-trust-m/externals/mbedtls/library\ecp.c **** 
 1123              	 .loc 1 1120 0
 1124 00b4 07B0     	 add sp,sp,#28
 1125              	 
 1126              	.LVL234:
 1127              	.LVL235:
 1128 00b6 F0BD     	 pop {r4,r5,r6,r7,pc}
 1129              	 .cfi_endproc
 1130              	.LFE26:
 1132              	 .section .text.ecp_normalize_jac_many,"ax",%progbits
 1133              	 .align 1
 1134              	 .code 16
 1135              	 .thumb_func
 1137              	ecp_normalize_jac_many:
 1138              	.LFB27:
1135:C:/Workspace/DAVE-4.4.2-64Bit/optiga-trust-m/externals/mbedtls/library\ecp.c ****     int ret;
 1139              	 .loc 1 1135 0
 1140              	 .cfi_startproc
 1141              	.LVL236:
 1142 0000 F0B5     	 push {r4,r5,r6,r7,lr}
 1143              	.LCFI5:
 1144              	 .cfi_def_cfa_offset 20
 1145              	 .cfi_offset 4,-20
 1146              	 .cfi_offset 5,-16
 1147              	 .cfi_offset 6,-12
 1148              	 .cfi_offset 7,-8
 1149              	 .cfi_offset 14,-4
 1150 0002 8FB0     	 sub sp,sp,#60
 1151              	.LCFI6:
 1152              	 .cfi_def_cfa_offset 80
1135:C:/Workspace/DAVE-4.4.2-64Bit/optiga-trust-m/externals/mbedtls/library\ecp.c ****     int ret;
 1153              	 .loc 1 1135 0
 1154 0004 061C     	 mov r6,r0
 1155 0006 0D1C     	 mov r5,r1
 1156 0008 0192     	 str r2,[sp,#4]
1140:C:/Workspace/DAVE-4.4.2-64Bit/optiga-trust-m/externals/mbedtls/library\ecp.c ****         return( ecp_normalize_jac( grp, *T ) );
 1157              	 .loc 1 1140 0
 1158 000a 012A     	 cmp r2,#1
 1159 000c 03D8     	 bhi .L112
1141:C:/Workspace/DAVE-4.4.2-64Bit/optiga-trust-m/externals/mbedtls/library\ecp.c **** 
 1160              	 .loc 1 1141 0
 1161 000e 0968     	 ldr r1,[r1]
 1162              	.LVL237:
 1163 0010 FFF7FEFF 	 bl ecp_normalize_jac
 1164              	.LVL238:
 1165 0014 EAE0     	 b .L113
 1166              	.LVL239:
 1167              	.L112:
1148:C:/Workspace/DAVE-4.4.2-64Bit/optiga-trust-m/externals/mbedtls/library\ecp.c ****         return( MBEDTLS_ERR_ECP_ALLOC_FAILED );
 1168              	 .loc 1 1148 0
 1169 0016 0198     	 ldr r0,[sp,#4]
 1170              	.LVL240:
 1171 0018 0C21     	 mov r1,#12
 1172              	.LVL241:
 1173 001a FFF7FEFF 	 bl calloc
 1174              	.LVL242:
 1175 001e 071E     	 sub r7,r0,#0
 1176              	.LVL243:
 1177 0020 00D1     	 bne .LCB1223
 1178 0022 E2E0     	 b .L122
 1179              	.LCB1223:
 1180 0024 0024     	 mov r4,#0
 1181              	.LVL244:
 1182              	.L114:
 1183 0026 0C20     	 mov r0,#12
 1184 0028 6043     	 mul r0,r4
 1185 002a 3818     	 add r0,r7,r0
1152:C:/Workspace/DAVE-4.4.2-64Bit/optiga-trust-m/externals/mbedtls/library\ecp.c **** 
 1186              	 .loc 1 1152 0 discriminator 3
 1187 002c FFF7FEFF 	 bl mbedtls_mpi_init
 1188              	.LVL245:
1151:C:/Workspace/DAVE-4.4.2-64Bit/optiga-trust-m/externals/mbedtls/library\ecp.c ****         mbedtls_mpi_init( &c[i] );
 1189              	 .loc 1 1151 0 discriminator 3
 1190 0030 019B     	 ldr r3,[sp,#4]
 1191 0032 0134     	 add r4,r4,#1
 1192              	.LVL246:
 1193 0034 9C42     	 cmp r4,r3
 1194 0036 F6D1     	 bne .L114
1154:C:/Workspace/DAVE-4.4.2-64Bit/optiga-trust-m/externals/mbedtls/library\ecp.c **** 
 1195              	 .loc 1 1154 0
 1196 0038 05A8     	 add r0,sp,#20
 1197 003a FFF7FEFF 	 bl mbedtls_mpi_init
 1198              	.LVL247:
 1199 003e 08A8     	 add r0,sp,#32
 1200 0040 FFF7FEFF 	 bl mbedtls_mpi_init
 1201              	.LVL248:
 1202 0044 0BA8     	 add r0,sp,#44
 1203 0046 FFF7FEFF 	 bl mbedtls_mpi_init
 1204              	.LVL249:
1159:C:/Workspace/DAVE-4.4.2-64Bit/optiga-trust-m/externals/mbedtls/library\ecp.c ****     for( i = 1; i < T_size; i++ )
 1205              	 .loc 1 1159 0
 1206 004a 2968     	 ldr r1,[r5]
 1207 004c 381C     	 mov r0,r7
 1208 004e 1831     	 add r1,r1,#24
 1209 0050 FFF7FEFF 	 bl mbedtls_mpi_copy
 1210              	.LVL250:
 1211 0054 041E     	 sub r4,r0,#0
 1212              	.LVL251:
 1213 0056 00D0     	 beq .LCB1260
 1214 0058 AFE0     	 b .L115
 1215              	.LCB1260:
 1216 005a 3B1C     	 mov r3,r7
 1217 005c 0C33     	 add r3,r3,#12
 1218 005e 0293     	 str r3,[sp,#8]
 1219 0060 0123     	 mov r3,#1
 1220 0062 0393     	 str r3,[sp,#12]
 1221              	.L116:
 1222              	.LVL252:
1162:C:/Workspace/DAVE-4.4.2-64Bit/optiga-trust-m/externals/mbedtls/library\ecp.c ****         MOD_MUL( c[i] );
 1223              	 .loc 1 1162 0
 1224 0064 0298     	 ldr r0,[sp,#8]
 1225              	.LVL253:
 1226 0066 039B     	 ldr r3,[sp,#12]
 1227 0068 011C     	 mov r1,r0
 1228 006a 9B00     	 lsl r3,r3,#2
 1229 006c EA58     	 ldr r2,[r5,r3]
 1230 006e 0C39     	 sub r1,r1,#12
 1231 0070 1832     	 add r2,r2,#24
 1232 0072 FFF7FEFF 	 bl mbedtls_mpi_mul_mpi
 1233              	.LVL254:
 1234 0076 041E     	 sub r4,r0,#0
 1235              	.LVL255:
 1236 0078 00D0     	 beq .LCB1285
 1237 007a 9EE0     	 b .L115
 1238              	.LCB1285:
1163:C:/Workspace/DAVE-4.4.2-64Bit/optiga-trust-m/externals/mbedtls/library\ecp.c ****     }
 1239              	 .loc 1 1163 0
 1240 007c 0298     	 ldr r0,[sp,#8]
 1241              	.LVL256:
 1242 007e 311C     	 mov r1,r6
 1243 0080 FFF7FEFF 	 bl ecp_modp
 1244              	.LVL257:
 1245 0084 041E     	 sub r4,r0,#0
 1246              	.LVL258:
 1247 0086 00D0     	 beq .LCB1295
 1248 0088 97E0     	 b .L115
 1249              	.LCB1295:
1160:C:/Workspace/DAVE-4.4.2-64Bit/optiga-trust-m/externals/mbedtls/library\ecp.c ****     {
 1250              	 .loc 1 1160 0 discriminator 2
 1251 008a 039B     	 ldr r3,[sp,#12]
 1252 008c 019A     	 ldr r2,[sp,#4]
 1253 008e 0133     	 add r3,r3,#1
 1254 0090 0393     	 str r3,[sp,#12]
 1255              	.LVL259:
 1256 0092 029B     	 ldr r3,[sp,#8]
 1257              	.LVL260:
 1258 0094 0C33     	 add r3,r3,#12
 1259 0096 0293     	 str r3,[sp,#8]
 1260 0098 039B     	 ldr r3,[sp,#12]
 1261 009a 9342     	 cmp r3,r2
 1262 009c E2D1     	 bne .L116
1169:C:/Workspace/DAVE-4.4.2-64Bit/optiga-trust-m/externals/mbedtls/library\ecp.c **** 
 1263              	 .loc 1 1169 0
 1264 009e 0C23     	 mov r3,#12
 1265 00a0 5A43     	 mul r2,r3
 1266 00a2 111C     	 mov r1,r2
 1267 00a4 0C39     	 sub r1,r1,#12
 1268 00a6 0392     	 str r2,[sp,#12]
 1269              	.LVL261:
 1270 00a8 7918     	 add r1,r7,r1
 1271 00aa 321D     	 add r2,r6,#4
 1272 00ac 05A8     	 add r0,sp,#20
 1273              	.LVL262:
 1274 00ae FFF7FEFF 	 bl mbedtls_mpi_inv_mod
 1275              	.LVL263:
 1276 00b2 041E     	 sub r4,r0,#0
 1277              	.LVL264:
 1278 00b4 00D0     	 beq .LCB1325
 1279 00b6 80E0     	 b .L115
 1280              	.LCB1325:
1171:C:/Workspace/DAVE-4.4.2-64Bit/optiga-trust-m/externals/mbedtls/library\ecp.c ****     {
 1281              	 .loc 1 1171 0
 1282 00b8 019B     	 ldr r3,[sp,#4]
 1283 00ba 4D4A     	 ldr r2,.L128
 1284 00bc 013B     	 sub r3,r3,#1
 1285 00be 0293     	 str r3,[sp,#8]
 1286              	.LVL265:
 1287 00c0 019B     	 ldr r3,[sp,#4]
 1288              	.LVL266:
 1289 00c2 9B18     	 add r3,r3,r2
 1290 00c4 9B00     	 lsl r3,r3,#2
 1291 00c6 ED18     	 add r5,r5,r3
 1292              	.LVL267:
 1293 00c8 039B     	 ldr r3,[sp,#12]
 1294 00ca 183B     	 sub r3,r3,#24
 1295 00cc FB18     	 add r3,r7,r3
 1296 00ce 0393     	 str r3,[sp,#12]
 1297              	.LVL268:
 1298              	.L120:
1177:C:/Workspace/DAVE-4.4.2-64Bit/optiga-trust-m/externals/mbedtls/library\ecp.c ****             MBEDTLS_MPI_CHK( mbedtls_mpi_copy( &Zi, &u ) );
 1299              	 .loc 1 1177 0
 1300 00d0 029B     	 ldr r3,[sp,#8]
1178:C:/Workspace/DAVE-4.4.2-64Bit/optiga-trust-m/externals/mbedtls/library\ecp.c ****         }
 1301              	 .loc 1 1178 0
 1302 00d2 08A8     	 add r0,sp,#32
 1303 00d4 05A9     	 add r1,sp,#20
1177:C:/Workspace/DAVE-4.4.2-64Bit/optiga-trust-m/externals/mbedtls/library\ecp.c ****             MBEDTLS_MPI_CHK( mbedtls_mpi_copy( &Zi, &u ) );
 1304              	 .loc 1 1177 0
 1305 00d6 002B     	 cmp r3,#0
 1306 00d8 0BD1     	 bne .L117
1178:C:/Workspace/DAVE-4.4.2-64Bit/optiga-trust-m/externals/mbedtls/library\ecp.c ****         }
 1307              	 .loc 1 1178 0
 1308 00da FFF7FEFF 	 bl mbedtls_mpi_copy
 1309              	.LVL269:
 1310              	.L127:
 1311 00de 041E     	 sub r4,r0,#0
 1312              	.LVL270:
 1313 00e0 6BD1     	 bne .L115
1189:C:/Workspace/DAVE-4.4.2-64Bit/optiga-trust-m/externals/mbedtls/library\ecp.c ****         MBEDTLS_MPI_CHK( mbedtls_mpi_mul_mpi( &T[i]->X, &T[i]->X, &ZZi ) ); MOD_MUL( T[i]->X );
 1314              	 .loc 1 1189 0
 1315 00e2 08A9     	 add r1,sp,#32
 1316 00e4 0BA8     	 add r0,sp,#44
 1317              	.LVL271:
 1318 00e6 0A1C     	 mov r2,r1
 1319 00e8 FFF7FEFF 	 bl mbedtls_mpi_mul_mpi
 1320              	.LVL272:
 1321 00ec 041E     	 sub r4,r0,#0
 1322              	.LVL273:
 1323 00ee 18D0     	 beq .L126
 1324 00f0 63E0     	 b .L115
 1325              	.LVL274:
 1326              	.L117:
1182:C:/Workspace/DAVE-4.4.2-64Bit/optiga-trust-m/externals/mbedtls/library\ecp.c ****             MBEDTLS_MPI_CHK( mbedtls_mpi_mul_mpi( &u,  &u, &T[i]->Z ) ); MOD_MUL( u );
 1327              	 .loc 1 1182 0
 1328 00f2 039A     	 ldr r2,[sp,#12]
 1329 00f4 FFF7FEFF 	 bl mbedtls_mpi_mul_mpi
 1330              	.LVL275:
 1331 00f8 041E     	 sub r4,r0,#0
 1332              	.LVL276:
 1333 00fa 5ED1     	 bne .L115
1182:C:/Workspace/DAVE-4.4.2-64Bit/optiga-trust-m/externals/mbedtls/library\ecp.c ****             MBEDTLS_MPI_CHK( mbedtls_mpi_mul_mpi( &u,  &u, &T[i]->Z ) ); MOD_MUL( u );
 1334              	 .loc 1 1182 0 is_stmt 0 discriminator 1
 1335 00fc 08A8     	 add r0,sp,#32
 1336              	.LVL277:
 1337 00fe 311C     	 mov r1,r6
 1338 0100 FFF7FEFF 	 bl ecp_modp
 1339              	.LVL278:
 1340 0104 041E     	 sub r4,r0,#0
 1341              	.LVL279:
 1342 0106 58D1     	 bne .L115
1183:C:/Workspace/DAVE-4.4.2-64Bit/optiga-trust-m/externals/mbedtls/library\ecp.c ****         }
 1343              	 .loc 1 1183 0 is_stmt 1
 1344 0108 2A68     	 ldr r2,[r5]
 1345 010a 05A8     	 add r0,sp,#20
 1346              	.LVL280:
 1347 010c 1832     	 add r2,r2,#24
 1348 010e 011C     	 mov r1,r0
 1349 0110 FFF7FEFF 	 bl mbedtls_mpi_mul_mpi
 1350              	.LVL281:
 1351 0114 041E     	 sub r4,r0,#0
 1352              	.LVL282:
 1353 0116 50D1     	 bne .L115
1183:C:/Workspace/DAVE-4.4.2-64Bit/optiga-trust-m/externals/mbedtls/library\ecp.c ****         }
 1354              	 .loc 1 1183 0 is_stmt 0 discriminator 1
 1355 0118 05A8     	 add r0,sp,#20
 1356              	.LVL283:
 1357 011a 311C     	 mov r1,r6
 1358 011c FFF7FEFF 	 bl ecp_modp
 1359              	.LVL284:
 1360 0120 DDE7     	 b .L127
 1361              	.LVL285:
 1362              	.L126:
1189:C:/Workspace/DAVE-4.4.2-64Bit/optiga-trust-m/externals/mbedtls/library\ecp.c ****         MBEDTLS_MPI_CHK( mbedtls_mpi_mul_mpi( &T[i]->X, &T[i]->X, &ZZi ) ); MOD_MUL( T[i]->X );
 1363              	 .loc 1 1189 0 is_stmt 1 discriminator 1
 1364 0122 0BA8     	 add r0,sp,#44
 1365              	.LVL286:
 1366 0124 311C     	 mov r1,r6
 1367 0126 FFF7FEFF 	 bl ecp_modp
 1368              	.LVL287:
 1369 012a 041E     	 sub r4,r0,#0
 1370              	.LVL288:
 1371 012c 45D1     	 bne .L115
1190:C:/Workspace/DAVE-4.4.2-64Bit/optiga-trust-m/externals/mbedtls/library\ecp.c ****         MBEDTLS_MPI_CHK( mbedtls_mpi_mul_mpi( &T[i]->Y, &T[i]->Y, &ZZi ) ); MOD_MUL( T[i]->Y );
 1372              	 .loc 1 1190 0
 1373 012e 2868     	 ldr r0,[r5]
 1374              	.LVL289:
 1375 0130 0BAA     	 add r2,sp,#44
 1376 0132 011C     	 mov r1,r0
 1377 0134 FFF7FEFF 	 bl mbedtls_mpi_mul_mpi
 1378              	.LVL290:
 1379 0138 041E     	 sub r4,r0,#0
 1380              	.LVL291:
 1381 013a 3ED1     	 bne .L115
1190:C:/Workspace/DAVE-4.4.2-64Bit/optiga-trust-m/externals/mbedtls/library\ecp.c ****         MBEDTLS_MPI_CHK( mbedtls_mpi_mul_mpi( &T[i]->Y, &T[i]->Y, &ZZi ) ); MOD_MUL( T[i]->Y );
 1382              	 .loc 1 1190 0 is_stmt 0 discriminator 1
 1383 013c 2868     	 ldr r0,[r5]
 1384              	.LVL292:
 1385 013e 311C     	 mov r1,r6
 1386 0140 FFF7FEFF 	 bl ecp_modp
 1387              	.LVL293:
 1388 0144 041E     	 sub r4,r0,#0
 1389              	.LVL294:
 1390 0146 38D1     	 bne .L115
1191:C:/Workspace/DAVE-4.4.2-64Bit/optiga-trust-m/externals/mbedtls/library\ecp.c ****         MBEDTLS_MPI_CHK( mbedtls_mpi_mul_mpi( &T[i]->Y, &T[i]->Y, &Zi  ) ); MOD_MUL( T[i]->Y );
 1391              	 .loc 1 1191 0 is_stmt 1
 1392 0148 2968     	 ldr r1,[r5]
 1393 014a 0BAA     	 add r2,sp,#44
 1394 014c 0C31     	 add r1,r1,#12
 1395 014e 081C     	 mov r0,r1
 1396              	.LVL295:
 1397 0150 FFF7FEFF 	 bl mbedtls_mpi_mul_mpi
 1398              	.LVL296:
 1399 0154 041E     	 sub r4,r0,#0
 1400              	.LVL297:
 1401 0156 30D1     	 bne .L115
1191:C:/Workspace/DAVE-4.4.2-64Bit/optiga-trust-m/externals/mbedtls/library\ecp.c ****         MBEDTLS_MPI_CHK( mbedtls_mpi_mul_mpi( &T[i]->Y, &T[i]->Y, &Zi  ) ); MOD_MUL( T[i]->Y );
 1402              	 .loc 1 1191 0 is_stmt 0 discriminator 1
 1403 0158 2868     	 ldr r0,[r5]
 1404              	.LVL298:
 1405 015a 311C     	 mov r1,r6
 1406 015c 0C30     	 add r0,r0,#12
 1407 015e FFF7FEFF 	 bl ecp_modp
 1408              	.LVL299:
 1409 0162 041E     	 sub r4,r0,#0
 1410              	.LVL300:
 1411 0164 29D1     	 bne .L115
1192:C:/Workspace/DAVE-4.4.2-64Bit/optiga-trust-m/externals/mbedtls/library\ecp.c **** 
 1412              	 .loc 1 1192 0 is_stmt 1
 1413 0166 2968     	 ldr r1,[r5]
 1414 0168 08AA     	 add r2,sp,#32
 1415 016a 0C31     	 add r1,r1,#12
 1416 016c 081C     	 mov r0,r1
 1417              	.LVL301:
 1418 016e FFF7FEFF 	 bl mbedtls_mpi_mul_mpi
 1419              	.LVL302:
 1420 0172 041E     	 sub r4,r0,#0
 1421              	.LVL303:
 1422 0174 21D1     	 bne .L115
1192:C:/Workspace/DAVE-4.4.2-64Bit/optiga-trust-m/externals/mbedtls/library\ecp.c **** 
 1423              	 .loc 1 1192 0 is_stmt 0 discriminator 1
 1424 0176 2868     	 ldr r0,[r5]
 1425              	.LVL304:
 1426 0178 311C     	 mov r1,r6
 1427 017a 0C30     	 add r0,r0,#12
 1428 017c FFF7FEFF 	 bl ecp_modp
 1429              	.LVL305:
 1430 0180 041E     	 sub r4,r0,#0
 1431              	.LVL306:
 1432 0182 1AD1     	 bne .L115
1200:C:/Workspace/DAVE-4.4.2-64Bit/optiga-trust-m/externals/mbedtls/library\ecp.c ****         MBEDTLS_MPI_CHK( mbedtls_mpi_shrink( &T[i]->Y, grp->P.n ) );
 1433              	 .loc 1 1200 0 is_stmt 1
 1434 0184 2868     	 ldr r0,[r5]
 1435              	.LVL307:
 1436 0186 B168     	 ldr r1,[r6,#8]
 1437 0188 FFF7FEFF 	 bl mbedtls_mpi_shrink
 1438              	.LVL308:
 1439 018c 041E     	 sub r4,r0,#0
 1440              	.LVL309:
 1441 018e 14D1     	 bne .L115
1201:C:/Workspace/DAVE-4.4.2-64Bit/optiga-trust-m/externals/mbedtls/library\ecp.c ****         mbedtls_mpi_free( &T[i]->Z );
 1442              	 .loc 1 1201 0
 1443 0190 2868     	 ldr r0,[r5]
 1444              	.LVL310:
 1445 0192 B168     	 ldr r1,[r6,#8]
 1446 0194 0C30     	 add r0,r0,#12
 1447 0196 FFF7FEFF 	 bl mbedtls_mpi_shrink
 1448              	.LVL311:
 1449 019a 041E     	 sub r4,r0,#0
 1450              	.LVL312:
 1451 019c 0DD1     	 bne .L115
1202:C:/Workspace/DAVE-4.4.2-64Bit/optiga-trust-m/externals/mbedtls/library\ecp.c **** 
 1452              	 .loc 1 1202 0
 1453 019e 2868     	 ldr r0,[r5]
 1454              	.LVL313:
 1455 01a0 043D     	 sub r5,r5,#4
 1456 01a2 1830     	 add r0,r0,#24
 1457 01a4 FFF7FEFF 	 bl mbedtls_mpi_free
 1458              	.LVL314:
 1459 01a8 039B     	 ldr r3,[sp,#12]
 1460 01aa 0C3B     	 sub r3,r3,#12
 1461 01ac 0393     	 str r3,[sp,#12]
1204:C:/Workspace/DAVE-4.4.2-64Bit/optiga-trust-m/externals/mbedtls/library\ecp.c ****             break;
 1462              	 .loc 1 1204 0
 1463 01ae 029B     	 ldr r3,[sp,#8]
 1464 01b0 002B     	 cmp r3,#0
 1465 01b2 02D0     	 beq .L115
1171:C:/Workspace/DAVE-4.4.2-64Bit/optiga-trust-m/externals/mbedtls/library\ecp.c ****     {
 1466              	 .loc 1 1171 0
 1467 01b4 013B     	 sub r3,r3,#1
 1468 01b6 0293     	 str r3,[sp,#8]
 1469              	.LVL315:
1206:C:/Workspace/DAVE-4.4.2-64Bit/optiga-trust-m/externals/mbedtls/library\ecp.c **** 
 1470              	 .loc 1 1206 0
 1471 01b8 8AE7     	 b .L120
 1472              	.LVL316:
 1473              	.L115:
1210:C:/Workspace/DAVE-4.4.2-64Bit/optiga-trust-m/externals/mbedtls/library\ecp.c ****     for( i = 0; i < T_size; i++ )
 1474              	 .loc 1 1210 0
 1475 01ba 05A8     	 add r0,sp,#20
 1476 01bc FFF7FEFF 	 bl mbedtls_mpi_free
 1477              	.LVL317:
 1478 01c0 08A8     	 add r0,sp,#32
 1479 01c2 FFF7FEFF 	 bl mbedtls_mpi_free
 1480              	.LVL318:
 1481 01c6 0BA8     	 add r0,sp,#44
 1482 01c8 FFF7FEFF 	 bl mbedtls_mpi_free
 1483              	.LVL319:
1211:C:/Workspace/DAVE-4.4.2-64Bit/optiga-trust-m/externals/mbedtls/library\ecp.c ****         mbedtls_mpi_free( &c[i] );
 1484              	 .loc 1 1211 0
 1485 01cc 0025     	 mov r5,#0
 1486              	.LVL320:
 1487              	.L121:
 1488 01ce 0C20     	 mov r0,#12
 1489 01d0 6843     	 mul r0,r5
 1490 01d2 3818     	 add r0,r7,r0
1212:C:/Workspace/DAVE-4.4.2-64Bit/optiga-trust-m/externals/mbedtls/library\ecp.c ****     mbedtls_free( c );
 1491              	 .loc 1 1212 0 discriminator 3
 1492 01d4 FFF7FEFF 	 bl mbedtls_mpi_free
 1493              	.LVL321:
1211:C:/Workspace/DAVE-4.4.2-64Bit/optiga-trust-m/externals/mbedtls/library\ecp.c ****         mbedtls_mpi_free( &c[i] );
 1494              	 .loc 1 1211 0 discriminator 3
 1495 01d8 019B     	 ldr r3,[sp,#4]
 1496 01da 0135     	 add r5,r5,#1
 1497              	.LVL322:
 1498 01dc 9D42     	 cmp r5,r3
 1499 01de F6D1     	 bne .L121
1213:C:/Workspace/DAVE-4.4.2-64Bit/optiga-trust-m/externals/mbedtls/library\ecp.c **** 
 1500              	 .loc 1 1213 0
 1501 01e0 381C     	 mov r0,r7
 1502 01e2 FFF7FEFF 	 bl free
 1503              	.LVL323:
1215:C:/Workspace/DAVE-4.4.2-64Bit/optiga-trust-m/externals/mbedtls/library\ecp.c **** }
 1504              	 .loc 1 1215 0
 1505 01e6 201C     	 mov r0,r4
 1506 01e8 00E0     	 b .L113
 1507              	.LVL324:
 1508              	.L122:
1149:C:/Workspace/DAVE-4.4.2-64Bit/optiga-trust-m/externals/mbedtls/library\ecp.c **** 
 1509              	 .loc 1 1149 0
 1510 01ea 0248     	 ldr r0,.L128+4
 1511              	.LVL325:
 1512              	.L113:
1216:C:/Workspace/DAVE-4.4.2-64Bit/optiga-trust-m/externals/mbedtls/library\ecp.c **** 
 1513              	 .loc 1 1216 0
 1514 01ec 0FB0     	 add sp,sp,#60
 1515              	 
 1516              	.LVL326:
 1517 01ee F0BD     	 pop {r4,r5,r6,r7,pc}
 1518              	.L129:
 1519              	 .align 2
 1520              	.L128:
 1521 01f0 FFFFFF3F 	 .word 1073741823
 1522 01f4 80B2FFFF 	 .word -19840
 1523              	 .cfi_endproc
 1524              	.LFE27:
 1526              	 .section .text.ecp_safe_invert_jac,"ax",%progbits
 1527              	 .align 1
 1528              	 .code 16
 1529              	 .thumb_func
 1531              	ecp_safe_invert_jac:
 1532              	.LFB28:
1225:C:/Workspace/DAVE-4.4.2-64Bit/optiga-trust-m/externals/mbedtls/library\ecp.c ****     int ret;
 1533              	 .loc 1 1225 0
 1534              	 .cfi_startproc
 1535              	.LVL327:
 1536 0000 7FB5     	 push {r0,r1,r2,r3,r4,r5,r6,lr}
 1537              	.LCFI7:
 1538              	 .cfi_def_cfa_offset 32
 1539              	 .cfi_offset 0,-32
 1540              	 .cfi_offset 1,-28
 1541              	 .cfi_offset 2,-24
 1542              	 .cfi_offset 3,-20
 1543              	 .cfi_offset 4,-16
 1544              	 .cfi_offset 5,-12
 1545              	 .cfi_offset 6,-8
 1546              	 .cfi_offset 14,-4
1225:C:/Workspace/DAVE-4.4.2-64Bit/optiga-trust-m/externals/mbedtls/library\ecp.c ****     int ret;
 1547              	 .loc 1 1225 0
 1548 0002 0C1C     	 mov r4,r1
 1549 0004 051C     	 mov r5,r0
1233:C:/Workspace/DAVE-4.4.2-64Bit/optiga-trust-m/externals/mbedtls/library\ecp.c ****     nonzero = mbedtls_mpi_cmp_int( &Q->Y, 0 ) != 0;
 1550              	 .loc 1 1233 0
 1551 0006 0C34     	 add r4,r4,#12
1230:C:/Workspace/DAVE-4.4.2-64Bit/optiga-trust-m/externals/mbedtls/library\ecp.c **** 
 1552              	 .loc 1 1230 0
 1553 0008 01A8     	 add r0,sp,#4
 1554              	.LVL328:
1225:C:/Workspace/DAVE-4.4.2-64Bit/optiga-trust-m/externals/mbedtls/library\ecp.c ****     int ret;
 1555              	 .loc 1 1225 0
 1556 000a 161C     	 mov r6,r2
1230:C:/Workspace/DAVE-4.4.2-64Bit/optiga-trust-m/externals/mbedtls/library\ecp.c **** 
 1557              	 .loc 1 1230 0
 1558 000c FFF7FEFF 	 bl mbedtls_mpi_init
 1559              	.LVL329:
1233:C:/Workspace/DAVE-4.4.2-64Bit/optiga-trust-m/externals/mbedtls/library\ecp.c ****     nonzero = mbedtls_mpi_cmp_int( &Q->Y, 0 ) != 0;
 1560              	 .loc 1 1233 0
 1561 0010 291D     	 add r1,r5,#4
 1562 0012 01A8     	 add r0,sp,#4
 1563 0014 221C     	 mov r2,r4
 1564 0016 FFF7FEFF 	 bl mbedtls_mpi_sub_mpi
 1565              	.LVL330:
 1566 001a 051E     	 sub r5,r0,#0
 1567              	.LVL331:
 1568 001c 0CD1     	 bne .L131
1234:C:/Workspace/DAVE-4.4.2-64Bit/optiga-trust-m/externals/mbedtls/library\ecp.c ****     MBEDTLS_MPI_CHK( mbedtls_mpi_safe_cond_assign( &Q->Y, &mQY, inv & nonzero ) );
 1569              	 .loc 1 1234 0
 1570 001e 291C     	 mov r1,r5
 1571 0020 201C     	 mov r0,r4
 1572              	.LVL332:
 1573 0022 FFF7FEFF 	 bl mbedtls_mpi_cmp_int
 1574              	.LVL333:
 1575 0026 021C     	 mov r2,r0
 1576 0028 501E     	 sub r0,r2,#1
 1577 002a 8241     	 sbc r2,r2,r0
 1578              	.LVL334:
1235:C:/Workspace/DAVE-4.4.2-64Bit/optiga-trust-m/externals/mbedtls/library\ecp.c **** 
 1579              	 .loc 1 1235 0
 1580 002c 01A9     	 add r1,sp,#4
 1581 002e 3240     	 and r2,r6
 1582 0030 201C     	 mov r0,r4
 1583 0032 FFF7FEFF 	 bl mbedtls_mpi_safe_cond_assign
 1584              	.LVL335:
 1585 0036 051C     	 mov r5,r0
 1586              	.LVL336:
 1587              	.L131:
1238:C:/Workspace/DAVE-4.4.2-64Bit/optiga-trust-m/externals/mbedtls/library\ecp.c **** 
 1588              	 .loc 1 1238 0
 1589 0038 01A8     	 add r0,sp,#4
 1590              	.LVL337:
 1591 003a FFF7FEFF 	 bl mbedtls_mpi_free
 1592              	.LVL338:
1241:C:/Workspace/DAVE-4.4.2-64Bit/optiga-trust-m/externals/mbedtls/library\ecp.c **** 
 1593              	 .loc 1 1241 0
 1594 003e 281C     	 mov r0,r5
 1595 0040 04B0     	 add sp,sp,#16
 1596              	 
 1597              	.LVL339:
 1598              	.LVL340:
 1599 0042 70BD     	 pop {r4,r5,r6,pc}
 1600              	 .cfi_endproc
 1601              	.LFE28:
 1603              	 .section .text.ecp_select_comb,"ax",%progbits
 1604              	 .align 1
 1605              	 .code 16
 1606              	 .thumb_func
 1608              	ecp_select_comb:
 1609              	.LFB34:
1334:C:/Workspace/DAVE-4.4.2-64Bit/optiga-trust-m/externals/mbedtls/library\ecp.c **** 
1335:C:/Workspace/DAVE-4.4.2-64Bit/optiga-trust-m/externals/mbedtls/library\ecp.c **** /*
1336:C:/Workspace/DAVE-4.4.2-64Bit/optiga-trust-m/externals/mbedtls/library\ecp.c ****  * Addition: R = P + Q, mixed affine-Jacobian coordinates (GECC 3.22)
1337:C:/Workspace/DAVE-4.4.2-64Bit/optiga-trust-m/externals/mbedtls/library\ecp.c ****  *
1338:C:/Workspace/DAVE-4.4.2-64Bit/optiga-trust-m/externals/mbedtls/library\ecp.c ****  * The coordinates of Q must be normalized (= affine),
1339:C:/Workspace/DAVE-4.4.2-64Bit/optiga-trust-m/externals/mbedtls/library\ecp.c ****  * but those of P don't need to. R is not normalized.
1340:C:/Workspace/DAVE-4.4.2-64Bit/optiga-trust-m/externals/mbedtls/library\ecp.c ****  *
1341:C:/Workspace/DAVE-4.4.2-64Bit/optiga-trust-m/externals/mbedtls/library\ecp.c ****  * Special cases: (1) P or Q is zero, (2) R is zero, (3) P == Q.
1342:C:/Workspace/DAVE-4.4.2-64Bit/optiga-trust-m/externals/mbedtls/library\ecp.c ****  * None of these cases can happen as intermediate step in ecp_mul_comb():
1343:C:/Workspace/DAVE-4.4.2-64Bit/optiga-trust-m/externals/mbedtls/library\ecp.c ****  * - at each step, P, Q and R are multiples of the base point, the factor
1344:C:/Workspace/DAVE-4.4.2-64Bit/optiga-trust-m/externals/mbedtls/library\ecp.c ****  *   being less than its order, so none of them is zero;
1345:C:/Workspace/DAVE-4.4.2-64Bit/optiga-trust-m/externals/mbedtls/library\ecp.c ****  * - Q is an odd multiple of the base point, P an even multiple,
1346:C:/Workspace/DAVE-4.4.2-64Bit/optiga-trust-m/externals/mbedtls/library\ecp.c ****  *   due to the choice of precomputed points in the modified comb method.
1347:C:/Workspace/DAVE-4.4.2-64Bit/optiga-trust-m/externals/mbedtls/library\ecp.c ****  * So branches for these cases do not leak secret information.
1348:C:/Workspace/DAVE-4.4.2-64Bit/optiga-trust-m/externals/mbedtls/library\ecp.c ****  *
1349:C:/Workspace/DAVE-4.4.2-64Bit/optiga-trust-m/externals/mbedtls/library\ecp.c ****  * We accept Q->Z being unset (saving memory in tables) as meaning 1.
1350:C:/Workspace/DAVE-4.4.2-64Bit/optiga-trust-m/externals/mbedtls/library\ecp.c ****  *
1351:C:/Workspace/DAVE-4.4.2-64Bit/optiga-trust-m/externals/mbedtls/library\ecp.c ****  * Cost: 1A := 8M + 3S
1352:C:/Workspace/DAVE-4.4.2-64Bit/optiga-trust-m/externals/mbedtls/library\ecp.c ****  */
1353:C:/Workspace/DAVE-4.4.2-64Bit/optiga-trust-m/externals/mbedtls/library\ecp.c **** static int ecp_add_mixed( const mbedtls_ecp_group *grp, mbedtls_ecp_point *R,
1354:C:/Workspace/DAVE-4.4.2-64Bit/optiga-trust-m/externals/mbedtls/library\ecp.c ****                           const mbedtls_ecp_point *P, const mbedtls_ecp_point *Q )
1355:C:/Workspace/DAVE-4.4.2-64Bit/optiga-trust-m/externals/mbedtls/library\ecp.c **** {
1356:C:/Workspace/DAVE-4.4.2-64Bit/optiga-trust-m/externals/mbedtls/library\ecp.c ****     int ret;
1357:C:/Workspace/DAVE-4.4.2-64Bit/optiga-trust-m/externals/mbedtls/library\ecp.c ****     mbedtls_mpi T1, T2, T3, T4, X, Y, Z;
1358:C:/Workspace/DAVE-4.4.2-64Bit/optiga-trust-m/externals/mbedtls/library\ecp.c **** 
1359:C:/Workspace/DAVE-4.4.2-64Bit/optiga-trust-m/externals/mbedtls/library\ecp.c **** #if defined(MBEDTLS_SELF_TEST)
1360:C:/Workspace/DAVE-4.4.2-64Bit/optiga-trust-m/externals/mbedtls/library\ecp.c ****     add_count++;
1361:C:/Workspace/DAVE-4.4.2-64Bit/optiga-trust-m/externals/mbedtls/library\ecp.c **** #endif
1362:C:/Workspace/DAVE-4.4.2-64Bit/optiga-trust-m/externals/mbedtls/library\ecp.c **** 
1363:C:/Workspace/DAVE-4.4.2-64Bit/optiga-trust-m/externals/mbedtls/library\ecp.c **** #if defined(MBEDTLS_ECP_ADD_MIXED_ALT)
1364:C:/Workspace/DAVE-4.4.2-64Bit/optiga-trust-m/externals/mbedtls/library\ecp.c ****     if( mbedtls_internal_ecp_grp_capable( grp ) )
1365:C:/Workspace/DAVE-4.4.2-64Bit/optiga-trust-m/externals/mbedtls/library\ecp.c ****         return( mbedtls_internal_ecp_add_mixed( grp, R, P, Q ) );
1366:C:/Workspace/DAVE-4.4.2-64Bit/optiga-trust-m/externals/mbedtls/library\ecp.c **** #endif /* MBEDTLS_ECP_ADD_MIXED_ALT */
1367:C:/Workspace/DAVE-4.4.2-64Bit/optiga-trust-m/externals/mbedtls/library\ecp.c **** 
1368:C:/Workspace/DAVE-4.4.2-64Bit/optiga-trust-m/externals/mbedtls/library\ecp.c ****     /*
1369:C:/Workspace/DAVE-4.4.2-64Bit/optiga-trust-m/externals/mbedtls/library\ecp.c ****      * Trivial cases: P == 0 or Q == 0 (case 1)
1370:C:/Workspace/DAVE-4.4.2-64Bit/optiga-trust-m/externals/mbedtls/library\ecp.c ****      */
1371:C:/Workspace/DAVE-4.4.2-64Bit/optiga-trust-m/externals/mbedtls/library\ecp.c ****     if( mbedtls_mpi_cmp_int( &P->Z, 0 ) == 0 )
1372:C:/Workspace/DAVE-4.4.2-64Bit/optiga-trust-m/externals/mbedtls/library\ecp.c ****         return( mbedtls_ecp_copy( R, Q ) );
1373:C:/Workspace/DAVE-4.4.2-64Bit/optiga-trust-m/externals/mbedtls/library\ecp.c **** 
1374:C:/Workspace/DAVE-4.4.2-64Bit/optiga-trust-m/externals/mbedtls/library\ecp.c ****     if( Q->Z.p != NULL && mbedtls_mpi_cmp_int( &Q->Z, 0 ) == 0 )
1375:C:/Workspace/DAVE-4.4.2-64Bit/optiga-trust-m/externals/mbedtls/library\ecp.c ****         return( mbedtls_ecp_copy( R, P ) );
1376:C:/Workspace/DAVE-4.4.2-64Bit/optiga-trust-m/externals/mbedtls/library\ecp.c **** 
1377:C:/Workspace/DAVE-4.4.2-64Bit/optiga-trust-m/externals/mbedtls/library\ecp.c ****     /*
1378:C:/Workspace/DAVE-4.4.2-64Bit/optiga-trust-m/externals/mbedtls/library\ecp.c ****      * Make sure Q coordinates are normalized
1379:C:/Workspace/DAVE-4.4.2-64Bit/optiga-trust-m/externals/mbedtls/library\ecp.c ****      */
1380:C:/Workspace/DAVE-4.4.2-64Bit/optiga-trust-m/externals/mbedtls/library\ecp.c ****     if( Q->Z.p != NULL && mbedtls_mpi_cmp_int( &Q->Z, 1 ) != 0 )
1381:C:/Workspace/DAVE-4.4.2-64Bit/optiga-trust-m/externals/mbedtls/library\ecp.c ****         return( MBEDTLS_ERR_ECP_BAD_INPUT_DATA );
1382:C:/Workspace/DAVE-4.4.2-64Bit/optiga-trust-m/externals/mbedtls/library\ecp.c **** 
1383:C:/Workspace/DAVE-4.4.2-64Bit/optiga-trust-m/externals/mbedtls/library\ecp.c ****     mbedtls_mpi_init( &T1 ); mbedtls_mpi_init( &T2 ); mbedtls_mpi_init( &T3 ); mbedtls_mpi_init( &T
1384:C:/Workspace/DAVE-4.4.2-64Bit/optiga-trust-m/externals/mbedtls/library\ecp.c ****     mbedtls_mpi_init( &X ); mbedtls_mpi_init( &Y ); mbedtls_mpi_init( &Z );
1385:C:/Workspace/DAVE-4.4.2-64Bit/optiga-trust-m/externals/mbedtls/library\ecp.c **** 
1386:C:/Workspace/DAVE-4.4.2-64Bit/optiga-trust-m/externals/mbedtls/library\ecp.c ****     MBEDTLS_MPI_CHK( mbedtls_mpi_mul_mpi( &T1,  &P->Z,  &P->Z ) );  MOD_MUL( T1 );
1387:C:/Workspace/DAVE-4.4.2-64Bit/optiga-trust-m/externals/mbedtls/library\ecp.c ****     MBEDTLS_MPI_CHK( mbedtls_mpi_mul_mpi( &T2,  &T1,    &P->Z ) );  MOD_MUL( T2 );
1388:C:/Workspace/DAVE-4.4.2-64Bit/optiga-trust-m/externals/mbedtls/library\ecp.c ****     MBEDTLS_MPI_CHK( mbedtls_mpi_mul_mpi( &T1,  &T1,    &Q->X ) );  MOD_MUL( T1 );
1389:C:/Workspace/DAVE-4.4.2-64Bit/optiga-trust-m/externals/mbedtls/library\ecp.c ****     MBEDTLS_MPI_CHK( mbedtls_mpi_mul_mpi( &T2,  &T2,    &Q->Y ) );  MOD_MUL( T2 );
1390:C:/Workspace/DAVE-4.4.2-64Bit/optiga-trust-m/externals/mbedtls/library\ecp.c ****     MBEDTLS_MPI_CHK( mbedtls_mpi_sub_mpi( &T1,  &T1,    &P->X ) );  MOD_SUB( T1 );
1391:C:/Workspace/DAVE-4.4.2-64Bit/optiga-trust-m/externals/mbedtls/library\ecp.c ****     MBEDTLS_MPI_CHK( mbedtls_mpi_sub_mpi( &T2,  &T2,    &P->Y ) );  MOD_SUB( T2 );
1392:C:/Workspace/DAVE-4.4.2-64Bit/optiga-trust-m/externals/mbedtls/library\ecp.c **** 
1393:C:/Workspace/DAVE-4.4.2-64Bit/optiga-trust-m/externals/mbedtls/library\ecp.c ****     /* Special cases (2) and (3) */
1394:C:/Workspace/DAVE-4.4.2-64Bit/optiga-trust-m/externals/mbedtls/library\ecp.c ****     if( mbedtls_mpi_cmp_int( &T1, 0 ) == 0 )
1395:C:/Workspace/DAVE-4.4.2-64Bit/optiga-trust-m/externals/mbedtls/library\ecp.c ****     {
1396:C:/Workspace/DAVE-4.4.2-64Bit/optiga-trust-m/externals/mbedtls/library\ecp.c ****         if( mbedtls_mpi_cmp_int( &T2, 0 ) == 0 )
1397:C:/Workspace/DAVE-4.4.2-64Bit/optiga-trust-m/externals/mbedtls/library\ecp.c ****         {
1398:C:/Workspace/DAVE-4.4.2-64Bit/optiga-trust-m/externals/mbedtls/library\ecp.c ****             ret = ecp_double_jac( grp, R, P );
1399:C:/Workspace/DAVE-4.4.2-64Bit/optiga-trust-m/externals/mbedtls/library\ecp.c ****             goto cleanup;
1400:C:/Workspace/DAVE-4.4.2-64Bit/optiga-trust-m/externals/mbedtls/library\ecp.c ****         }
1401:C:/Workspace/DAVE-4.4.2-64Bit/optiga-trust-m/externals/mbedtls/library\ecp.c ****         else
1402:C:/Workspace/DAVE-4.4.2-64Bit/optiga-trust-m/externals/mbedtls/library\ecp.c ****         {
1403:C:/Workspace/DAVE-4.4.2-64Bit/optiga-trust-m/externals/mbedtls/library\ecp.c ****             ret = mbedtls_ecp_set_zero( R );
1404:C:/Workspace/DAVE-4.4.2-64Bit/optiga-trust-m/externals/mbedtls/library\ecp.c ****             goto cleanup;
1405:C:/Workspace/DAVE-4.4.2-64Bit/optiga-trust-m/externals/mbedtls/library\ecp.c ****         }
1406:C:/Workspace/DAVE-4.4.2-64Bit/optiga-trust-m/externals/mbedtls/library\ecp.c ****     }
1407:C:/Workspace/DAVE-4.4.2-64Bit/optiga-trust-m/externals/mbedtls/library\ecp.c **** 
1408:C:/Workspace/DAVE-4.4.2-64Bit/optiga-trust-m/externals/mbedtls/library\ecp.c ****     MBEDTLS_MPI_CHK( mbedtls_mpi_mul_mpi( &Z,   &P->Z,  &T1   ) );  MOD_MUL( Z  );
1409:C:/Workspace/DAVE-4.4.2-64Bit/optiga-trust-m/externals/mbedtls/library\ecp.c ****     MBEDTLS_MPI_CHK( mbedtls_mpi_mul_mpi( &T3,  &T1,    &T1   ) );  MOD_MUL( T3 );
1410:C:/Workspace/DAVE-4.4.2-64Bit/optiga-trust-m/externals/mbedtls/library\ecp.c ****     MBEDTLS_MPI_CHK( mbedtls_mpi_mul_mpi( &T4,  &T3,    &T1   ) );  MOD_MUL( T4 );
1411:C:/Workspace/DAVE-4.4.2-64Bit/optiga-trust-m/externals/mbedtls/library\ecp.c ****     MBEDTLS_MPI_CHK( mbedtls_mpi_mul_mpi( &T3,  &T3,    &P->X ) );  MOD_MUL( T3 );
1412:C:/Workspace/DAVE-4.4.2-64Bit/optiga-trust-m/externals/mbedtls/library\ecp.c ****     MBEDTLS_MPI_CHK( mbedtls_mpi_mul_int( &T1,  &T3,    2     ) );  MOD_ADD( T1 );
1413:C:/Workspace/DAVE-4.4.2-64Bit/optiga-trust-m/externals/mbedtls/library\ecp.c ****     MBEDTLS_MPI_CHK( mbedtls_mpi_mul_mpi( &X,   &T2,    &T2   ) );  MOD_MUL( X  );
1414:C:/Workspace/DAVE-4.4.2-64Bit/optiga-trust-m/externals/mbedtls/library\ecp.c ****     MBEDTLS_MPI_CHK( mbedtls_mpi_sub_mpi( &X,   &X,     &T1   ) );  MOD_SUB( X  );
1415:C:/Workspace/DAVE-4.4.2-64Bit/optiga-trust-m/externals/mbedtls/library\ecp.c ****     MBEDTLS_MPI_CHK( mbedtls_mpi_sub_mpi( &X,   &X,     &T4   ) );  MOD_SUB( X  );
1416:C:/Workspace/DAVE-4.4.2-64Bit/optiga-trust-m/externals/mbedtls/library\ecp.c ****     MBEDTLS_MPI_CHK( mbedtls_mpi_sub_mpi( &T3,  &T3,    &X    ) );  MOD_SUB( T3 );
1417:C:/Workspace/DAVE-4.4.2-64Bit/optiga-trust-m/externals/mbedtls/library\ecp.c ****     MBEDTLS_MPI_CHK( mbedtls_mpi_mul_mpi( &T3,  &T3,    &T2   ) );  MOD_MUL( T3 );
1418:C:/Workspace/DAVE-4.4.2-64Bit/optiga-trust-m/externals/mbedtls/library\ecp.c ****     MBEDTLS_MPI_CHK( mbedtls_mpi_mul_mpi( &T4,  &T4,    &P->Y ) );  MOD_MUL( T4 );
1419:C:/Workspace/DAVE-4.4.2-64Bit/optiga-trust-m/externals/mbedtls/library\ecp.c ****     MBEDTLS_MPI_CHK( mbedtls_mpi_sub_mpi( &Y,   &T3,    &T4   ) );  MOD_SUB( Y  );
1420:C:/Workspace/DAVE-4.4.2-64Bit/optiga-trust-m/externals/mbedtls/library\ecp.c **** 
1421:C:/Workspace/DAVE-4.4.2-64Bit/optiga-trust-m/externals/mbedtls/library\ecp.c ****     MBEDTLS_MPI_CHK( mbedtls_mpi_copy( &R->X, &X ) );
1422:C:/Workspace/DAVE-4.4.2-64Bit/optiga-trust-m/externals/mbedtls/library\ecp.c ****     MBEDTLS_MPI_CHK( mbedtls_mpi_copy( &R->Y, &Y ) );
1423:C:/Workspace/DAVE-4.4.2-64Bit/optiga-trust-m/externals/mbedtls/library\ecp.c ****     MBEDTLS_MPI_CHK( mbedtls_mpi_copy( &R->Z, &Z ) );
1424:C:/Workspace/DAVE-4.4.2-64Bit/optiga-trust-m/externals/mbedtls/library\ecp.c **** 
1425:C:/Workspace/DAVE-4.4.2-64Bit/optiga-trust-m/externals/mbedtls/library\ecp.c **** cleanup:
1426:C:/Workspace/DAVE-4.4.2-64Bit/optiga-trust-m/externals/mbedtls/library\ecp.c **** 
1427:C:/Workspace/DAVE-4.4.2-64Bit/optiga-trust-m/externals/mbedtls/library\ecp.c ****     mbedtls_mpi_free( &T1 ); mbedtls_mpi_free( &T2 ); mbedtls_mpi_free( &T3 ); mbedtls_mpi_free( &T
1428:C:/Workspace/DAVE-4.4.2-64Bit/optiga-trust-m/externals/mbedtls/library\ecp.c ****     mbedtls_mpi_free( &X ); mbedtls_mpi_free( &Y ); mbedtls_mpi_free( &Z );
1429:C:/Workspace/DAVE-4.4.2-64Bit/optiga-trust-m/externals/mbedtls/library\ecp.c **** 
1430:C:/Workspace/DAVE-4.4.2-64Bit/optiga-trust-m/externals/mbedtls/library\ecp.c ****     return( ret );
1431:C:/Workspace/DAVE-4.4.2-64Bit/optiga-trust-m/externals/mbedtls/library\ecp.c **** }
1432:C:/Workspace/DAVE-4.4.2-64Bit/optiga-trust-m/externals/mbedtls/library\ecp.c **** 
1433:C:/Workspace/DAVE-4.4.2-64Bit/optiga-trust-m/externals/mbedtls/library\ecp.c **** /*
1434:C:/Workspace/DAVE-4.4.2-64Bit/optiga-trust-m/externals/mbedtls/library\ecp.c ****  * Randomize jacobian coordinates:
1435:C:/Workspace/DAVE-4.4.2-64Bit/optiga-trust-m/externals/mbedtls/library\ecp.c ****  * (X, Y, Z) -> (l^2 X, l^3 Y, l Z) for random l
1436:C:/Workspace/DAVE-4.4.2-64Bit/optiga-trust-m/externals/mbedtls/library\ecp.c ****  * This is sort of the reverse operation of ecp_normalize_jac().
1437:C:/Workspace/DAVE-4.4.2-64Bit/optiga-trust-m/externals/mbedtls/library\ecp.c ****  *
1438:C:/Workspace/DAVE-4.4.2-64Bit/optiga-trust-m/externals/mbedtls/library\ecp.c ****  * This countermeasure was first suggested in [2].
1439:C:/Workspace/DAVE-4.4.2-64Bit/optiga-trust-m/externals/mbedtls/library\ecp.c ****  */
1440:C:/Workspace/DAVE-4.4.2-64Bit/optiga-trust-m/externals/mbedtls/library\ecp.c **** static int ecp_randomize_jac( const mbedtls_ecp_group *grp, mbedtls_ecp_point *pt,
1441:C:/Workspace/DAVE-4.4.2-64Bit/optiga-trust-m/externals/mbedtls/library\ecp.c ****                 int (*f_rng)(void *, unsigned char *, size_t), void *p_rng )
1442:C:/Workspace/DAVE-4.4.2-64Bit/optiga-trust-m/externals/mbedtls/library\ecp.c **** {
1443:C:/Workspace/DAVE-4.4.2-64Bit/optiga-trust-m/externals/mbedtls/library\ecp.c ****     int ret;
1444:C:/Workspace/DAVE-4.4.2-64Bit/optiga-trust-m/externals/mbedtls/library\ecp.c ****     mbedtls_mpi l, ll;
1445:C:/Workspace/DAVE-4.4.2-64Bit/optiga-trust-m/externals/mbedtls/library\ecp.c ****     size_t p_size;
1446:C:/Workspace/DAVE-4.4.2-64Bit/optiga-trust-m/externals/mbedtls/library\ecp.c ****     int count = 0;
1447:C:/Workspace/DAVE-4.4.2-64Bit/optiga-trust-m/externals/mbedtls/library\ecp.c **** 
1448:C:/Workspace/DAVE-4.4.2-64Bit/optiga-trust-m/externals/mbedtls/library\ecp.c **** #if defined(MBEDTLS_ECP_RANDOMIZE_JAC_ALT)
1449:C:/Workspace/DAVE-4.4.2-64Bit/optiga-trust-m/externals/mbedtls/library\ecp.c ****     if( mbedtls_internal_ecp_grp_capable( grp ) )
1450:C:/Workspace/DAVE-4.4.2-64Bit/optiga-trust-m/externals/mbedtls/library\ecp.c ****         return( mbedtls_internal_ecp_randomize_jac( grp, pt, f_rng, p_rng ) );
1451:C:/Workspace/DAVE-4.4.2-64Bit/optiga-trust-m/externals/mbedtls/library\ecp.c **** #endif /* MBEDTLS_ECP_RANDOMIZE_JAC_ALT */
1452:C:/Workspace/DAVE-4.4.2-64Bit/optiga-trust-m/externals/mbedtls/library\ecp.c **** 
1453:C:/Workspace/DAVE-4.4.2-64Bit/optiga-trust-m/externals/mbedtls/library\ecp.c ****     p_size = ( grp->pbits + 7 ) / 8;
1454:C:/Workspace/DAVE-4.4.2-64Bit/optiga-trust-m/externals/mbedtls/library\ecp.c ****     mbedtls_mpi_init( &l ); mbedtls_mpi_init( &ll );
1455:C:/Workspace/DAVE-4.4.2-64Bit/optiga-trust-m/externals/mbedtls/library\ecp.c **** 
1456:C:/Workspace/DAVE-4.4.2-64Bit/optiga-trust-m/externals/mbedtls/library\ecp.c ****     /* Generate l such that 1 < l < p */
1457:C:/Workspace/DAVE-4.4.2-64Bit/optiga-trust-m/externals/mbedtls/library\ecp.c ****     do
1458:C:/Workspace/DAVE-4.4.2-64Bit/optiga-trust-m/externals/mbedtls/library\ecp.c ****     {
1459:C:/Workspace/DAVE-4.4.2-64Bit/optiga-trust-m/externals/mbedtls/library\ecp.c ****         MBEDTLS_MPI_CHK( mbedtls_mpi_fill_random( &l, p_size, f_rng, p_rng ) );
1460:C:/Workspace/DAVE-4.4.2-64Bit/optiga-trust-m/externals/mbedtls/library\ecp.c **** 
1461:C:/Workspace/DAVE-4.4.2-64Bit/optiga-trust-m/externals/mbedtls/library\ecp.c ****         while( mbedtls_mpi_cmp_mpi( &l, &grp->P ) >= 0 )
1462:C:/Workspace/DAVE-4.4.2-64Bit/optiga-trust-m/externals/mbedtls/library\ecp.c ****             MBEDTLS_MPI_CHK( mbedtls_mpi_shift_r( &l, 1 ) );
1463:C:/Workspace/DAVE-4.4.2-64Bit/optiga-trust-m/externals/mbedtls/library\ecp.c **** 
1464:C:/Workspace/DAVE-4.4.2-64Bit/optiga-trust-m/externals/mbedtls/library\ecp.c ****         if( count++ > 10 )
1465:C:/Workspace/DAVE-4.4.2-64Bit/optiga-trust-m/externals/mbedtls/library\ecp.c ****             return( MBEDTLS_ERR_ECP_RANDOM_FAILED );
1466:C:/Workspace/DAVE-4.4.2-64Bit/optiga-trust-m/externals/mbedtls/library\ecp.c ****     }
1467:C:/Workspace/DAVE-4.4.2-64Bit/optiga-trust-m/externals/mbedtls/library\ecp.c ****     while( mbedtls_mpi_cmp_int( &l, 1 ) <= 0 );
1468:C:/Workspace/DAVE-4.4.2-64Bit/optiga-trust-m/externals/mbedtls/library\ecp.c **** 
1469:C:/Workspace/DAVE-4.4.2-64Bit/optiga-trust-m/externals/mbedtls/library\ecp.c ****     /* Z = l * Z */
1470:C:/Workspace/DAVE-4.4.2-64Bit/optiga-trust-m/externals/mbedtls/library\ecp.c ****     MBEDTLS_MPI_CHK( mbedtls_mpi_mul_mpi( &pt->Z,   &pt->Z,     &l  ) ); MOD_MUL( pt->Z );
1471:C:/Workspace/DAVE-4.4.2-64Bit/optiga-trust-m/externals/mbedtls/library\ecp.c **** 
1472:C:/Workspace/DAVE-4.4.2-64Bit/optiga-trust-m/externals/mbedtls/library\ecp.c ****     /* X = l^2 * X */
1473:C:/Workspace/DAVE-4.4.2-64Bit/optiga-trust-m/externals/mbedtls/library\ecp.c ****     MBEDTLS_MPI_CHK( mbedtls_mpi_mul_mpi( &ll,      &l,         &l  ) ); MOD_MUL( ll );
1474:C:/Workspace/DAVE-4.4.2-64Bit/optiga-trust-m/externals/mbedtls/library\ecp.c ****     MBEDTLS_MPI_CHK( mbedtls_mpi_mul_mpi( &pt->X,   &pt->X,     &ll ) ); MOD_MUL( pt->X );
1475:C:/Workspace/DAVE-4.4.2-64Bit/optiga-trust-m/externals/mbedtls/library\ecp.c **** 
1476:C:/Workspace/DAVE-4.4.2-64Bit/optiga-trust-m/externals/mbedtls/library\ecp.c ****     /* Y = l^3 * Y */
1477:C:/Workspace/DAVE-4.4.2-64Bit/optiga-trust-m/externals/mbedtls/library\ecp.c ****     MBEDTLS_MPI_CHK( mbedtls_mpi_mul_mpi( &ll,      &ll,        &l  ) ); MOD_MUL( ll );
1478:C:/Workspace/DAVE-4.4.2-64Bit/optiga-trust-m/externals/mbedtls/library\ecp.c ****     MBEDTLS_MPI_CHK( mbedtls_mpi_mul_mpi( &pt->Y,   &pt->Y,     &ll ) ); MOD_MUL( pt->Y );
1479:C:/Workspace/DAVE-4.4.2-64Bit/optiga-trust-m/externals/mbedtls/library\ecp.c **** 
1480:C:/Workspace/DAVE-4.4.2-64Bit/optiga-trust-m/externals/mbedtls/library\ecp.c **** cleanup:
1481:C:/Workspace/DAVE-4.4.2-64Bit/optiga-trust-m/externals/mbedtls/library\ecp.c ****     mbedtls_mpi_free( &l ); mbedtls_mpi_free( &ll );
1482:C:/Workspace/DAVE-4.4.2-64Bit/optiga-trust-m/externals/mbedtls/library\ecp.c **** 
1483:C:/Workspace/DAVE-4.4.2-64Bit/optiga-trust-m/externals/mbedtls/library\ecp.c ****     return( ret );
1484:C:/Workspace/DAVE-4.4.2-64Bit/optiga-trust-m/externals/mbedtls/library\ecp.c **** }
1485:C:/Workspace/DAVE-4.4.2-64Bit/optiga-trust-m/externals/mbedtls/library\ecp.c **** 
1486:C:/Workspace/DAVE-4.4.2-64Bit/optiga-trust-m/externals/mbedtls/library\ecp.c **** /*
1487:C:/Workspace/DAVE-4.4.2-64Bit/optiga-trust-m/externals/mbedtls/library\ecp.c ****  * Check and define parameters used by the comb method (see below for details)
1488:C:/Workspace/DAVE-4.4.2-64Bit/optiga-trust-m/externals/mbedtls/library\ecp.c ****  */
1489:C:/Workspace/DAVE-4.4.2-64Bit/optiga-trust-m/externals/mbedtls/library\ecp.c **** #if MBEDTLS_ECP_WINDOW_SIZE < 2 || MBEDTLS_ECP_WINDOW_SIZE > 7
1490:C:/Workspace/DAVE-4.4.2-64Bit/optiga-trust-m/externals/mbedtls/library\ecp.c **** #error "MBEDTLS_ECP_WINDOW_SIZE out of bounds"
1491:C:/Workspace/DAVE-4.4.2-64Bit/optiga-trust-m/externals/mbedtls/library\ecp.c **** #endif
1492:C:/Workspace/DAVE-4.4.2-64Bit/optiga-trust-m/externals/mbedtls/library\ecp.c **** 
1493:C:/Workspace/DAVE-4.4.2-64Bit/optiga-trust-m/externals/mbedtls/library\ecp.c **** /* d = ceil( n / w ) */
1494:C:/Workspace/DAVE-4.4.2-64Bit/optiga-trust-m/externals/mbedtls/library\ecp.c **** #define COMB_MAX_D      ( MBEDTLS_ECP_MAX_BITS + 1 ) / 2
1495:C:/Workspace/DAVE-4.4.2-64Bit/optiga-trust-m/externals/mbedtls/library\ecp.c **** 
1496:C:/Workspace/DAVE-4.4.2-64Bit/optiga-trust-m/externals/mbedtls/library\ecp.c **** /* number of precomputed points */
1497:C:/Workspace/DAVE-4.4.2-64Bit/optiga-trust-m/externals/mbedtls/library\ecp.c **** #define COMB_MAX_PRE    ( 1 << ( MBEDTLS_ECP_WINDOW_SIZE - 1 ) )
1498:C:/Workspace/DAVE-4.4.2-64Bit/optiga-trust-m/externals/mbedtls/library\ecp.c **** 
1499:C:/Workspace/DAVE-4.4.2-64Bit/optiga-trust-m/externals/mbedtls/library\ecp.c **** /*
1500:C:/Workspace/DAVE-4.4.2-64Bit/optiga-trust-m/externals/mbedtls/library\ecp.c ****  * Compute the representation of m that will be used with our comb method.
1501:C:/Workspace/DAVE-4.4.2-64Bit/optiga-trust-m/externals/mbedtls/library\ecp.c ****  *
1502:C:/Workspace/DAVE-4.4.2-64Bit/optiga-trust-m/externals/mbedtls/library\ecp.c ****  * The basic comb method is described in GECC 3.44 for example. We use a
1503:C:/Workspace/DAVE-4.4.2-64Bit/optiga-trust-m/externals/mbedtls/library\ecp.c ****  * modified version that provides resistance to SPA by avoiding zero
1504:C:/Workspace/DAVE-4.4.2-64Bit/optiga-trust-m/externals/mbedtls/library\ecp.c ****  * digits in the representation as in [3]. We modify the method further by
1505:C:/Workspace/DAVE-4.4.2-64Bit/optiga-trust-m/externals/mbedtls/library\ecp.c ****  * requiring that all K_i be odd, which has the small cost that our
1506:C:/Workspace/DAVE-4.4.2-64Bit/optiga-trust-m/externals/mbedtls/library\ecp.c ****  * representation uses one more K_i, due to carries, but saves on the size of
1507:C:/Workspace/DAVE-4.4.2-64Bit/optiga-trust-m/externals/mbedtls/library\ecp.c ****  * the precomputed table.
1508:C:/Workspace/DAVE-4.4.2-64Bit/optiga-trust-m/externals/mbedtls/library\ecp.c ****  *
1509:C:/Workspace/DAVE-4.4.2-64Bit/optiga-trust-m/externals/mbedtls/library\ecp.c ****  * Summary of the comb method and its modifications:
1510:C:/Workspace/DAVE-4.4.2-64Bit/optiga-trust-m/externals/mbedtls/library\ecp.c ****  *
1511:C:/Workspace/DAVE-4.4.2-64Bit/optiga-trust-m/externals/mbedtls/library\ecp.c ****  * - The goal is to compute m*P for some w*d-bit integer m.
1512:C:/Workspace/DAVE-4.4.2-64Bit/optiga-trust-m/externals/mbedtls/library\ecp.c ****  *
1513:C:/Workspace/DAVE-4.4.2-64Bit/optiga-trust-m/externals/mbedtls/library\ecp.c ****  * - The basic comb method splits m into the w-bit integers
1514:C:/Workspace/DAVE-4.4.2-64Bit/optiga-trust-m/externals/mbedtls/library\ecp.c ****  *   x[0] .. x[d-1] where x[i] consists of the bits in m whose
1515:C:/Workspace/DAVE-4.4.2-64Bit/optiga-trust-m/externals/mbedtls/library\ecp.c ****  *   index has residue i modulo d, and computes m * P as
1516:C:/Workspace/DAVE-4.4.2-64Bit/optiga-trust-m/externals/mbedtls/library\ecp.c ****  *   S[x[0]] + 2 * S[x[1]] + .. + 2^(d-1) S[x[d-1]], where
1517:C:/Workspace/DAVE-4.4.2-64Bit/optiga-trust-m/externals/mbedtls/library\ecp.c ****  *   S[i_{w-1} .. i_0] := i_{w-1} 2^{(w-1)d} P + ... + i_1 2^d P + i_0 P.
1518:C:/Workspace/DAVE-4.4.2-64Bit/optiga-trust-m/externals/mbedtls/library\ecp.c ****  *
1519:C:/Workspace/DAVE-4.4.2-64Bit/optiga-trust-m/externals/mbedtls/library\ecp.c ****  * - If it happens that, say, x[i+1]=0 (=> S[x[i+1]]=0), one can replace the sum by
1520:C:/Workspace/DAVE-4.4.2-64Bit/optiga-trust-m/externals/mbedtls/library\ecp.c ****  *    .. + 2^{i-1} S[x[i-1]] - 2^i S[x[i]] + 2^{i+1} S[x[i]] + 2^{i+2} S[x[i+2]] ..,
1521:C:/Workspace/DAVE-4.4.2-64Bit/optiga-trust-m/externals/mbedtls/library\ecp.c ****  *   thereby successively converting it into a form where all summands
1522:C:/Workspace/DAVE-4.4.2-64Bit/optiga-trust-m/externals/mbedtls/library\ecp.c ****  *   are nonzero, at the cost of negative summands. This is the basic idea of [3].
1523:C:/Workspace/DAVE-4.4.2-64Bit/optiga-trust-m/externals/mbedtls/library\ecp.c ****  *
1524:C:/Workspace/DAVE-4.4.2-64Bit/optiga-trust-m/externals/mbedtls/library\ecp.c ****  * - More generally, even if x[i+1] != 0, we can first transform the sum as
1525:C:/Workspace/DAVE-4.4.2-64Bit/optiga-trust-m/externals/mbedtls/library\ecp.c ****  *   .. - 2^i S[x[i]] + 2^{i+1} ( S[x[i]] + S[x[i+1]] ) + 2^{i+2} S[x[i+2]] ..,
1526:C:/Workspace/DAVE-4.4.2-64Bit/optiga-trust-m/externals/mbedtls/library\ecp.c ****  *   and then replace S[x[i]] + S[x[i+1]] = S[x[i] ^ x[i+1]] + 2 S[x[i] & x[i+1]].
1527:C:/Workspace/DAVE-4.4.2-64Bit/optiga-trust-m/externals/mbedtls/library\ecp.c ****  *   Performing and iterating this procedure for those x[i] that are even
1528:C:/Workspace/DAVE-4.4.2-64Bit/optiga-trust-m/externals/mbedtls/library\ecp.c ****  *   (keeping track of carry), we can transform the original sum into one of the form
1529:C:/Workspace/DAVE-4.4.2-64Bit/optiga-trust-m/externals/mbedtls/library\ecp.c ****  *   S[x'[0]] +- 2 S[x'[1]] +- .. +- 2^{d-1} S[x'[d-1]] + 2^d S[x'[d]]
1530:C:/Workspace/DAVE-4.4.2-64Bit/optiga-trust-m/externals/mbedtls/library\ecp.c ****  *   with all x'[i] odd. It is therefore only necessary to know S at odd indices,
1531:C:/Workspace/DAVE-4.4.2-64Bit/optiga-trust-m/externals/mbedtls/library\ecp.c ****  *   which is why we are only computing half of it in the first place in
1532:C:/Workspace/DAVE-4.4.2-64Bit/optiga-trust-m/externals/mbedtls/library\ecp.c ****  *   ecp_precompute_comb and accessing it with index abs(i) / 2 in ecp_select_comb.
1533:C:/Workspace/DAVE-4.4.2-64Bit/optiga-trust-m/externals/mbedtls/library\ecp.c ****  *
1534:C:/Workspace/DAVE-4.4.2-64Bit/optiga-trust-m/externals/mbedtls/library\ecp.c ****  * - For the sake of compactness, only the seven low-order bits of x[i]
1535:C:/Workspace/DAVE-4.4.2-64Bit/optiga-trust-m/externals/mbedtls/library\ecp.c ****  *   are used to represent its absolute value (K_i in the paper), and the msb
1536:C:/Workspace/DAVE-4.4.2-64Bit/optiga-trust-m/externals/mbedtls/library\ecp.c ****  *   of x[i] encodes the sign (s_i in the paper): it is set if and only if
1537:C:/Workspace/DAVE-4.4.2-64Bit/optiga-trust-m/externals/mbedtls/library\ecp.c ****  *   if s_i == -1;
1538:C:/Workspace/DAVE-4.4.2-64Bit/optiga-trust-m/externals/mbedtls/library\ecp.c ****  *
1539:C:/Workspace/DAVE-4.4.2-64Bit/optiga-trust-m/externals/mbedtls/library\ecp.c ****  * Calling conventions:
1540:C:/Workspace/DAVE-4.4.2-64Bit/optiga-trust-m/externals/mbedtls/library\ecp.c ****  * - x is an array of size d + 1
1541:C:/Workspace/DAVE-4.4.2-64Bit/optiga-trust-m/externals/mbedtls/library\ecp.c ****  * - w is the size, ie number of teeth, of the comb, and must be between
1542:C:/Workspace/DAVE-4.4.2-64Bit/optiga-trust-m/externals/mbedtls/library\ecp.c ****  *   2 and 7 (in practice, between 2 and MBEDTLS_ECP_WINDOW_SIZE)
1543:C:/Workspace/DAVE-4.4.2-64Bit/optiga-trust-m/externals/mbedtls/library\ecp.c ****  * - m is the MPI, expected to be odd and such that bitlength(m) <= w * d
1544:C:/Workspace/DAVE-4.4.2-64Bit/optiga-trust-m/externals/mbedtls/library\ecp.c ****  *   (the result will be incorrect if these assumptions are not satisfied)
1545:C:/Workspace/DAVE-4.4.2-64Bit/optiga-trust-m/externals/mbedtls/library\ecp.c ****  */
1546:C:/Workspace/DAVE-4.4.2-64Bit/optiga-trust-m/externals/mbedtls/library\ecp.c **** static void ecp_comb_recode_core( unsigned char x[], size_t d,
1547:C:/Workspace/DAVE-4.4.2-64Bit/optiga-trust-m/externals/mbedtls/library\ecp.c ****                                   unsigned char w, const mbedtls_mpi *m )
1548:C:/Workspace/DAVE-4.4.2-64Bit/optiga-trust-m/externals/mbedtls/library\ecp.c **** {
1549:C:/Workspace/DAVE-4.4.2-64Bit/optiga-trust-m/externals/mbedtls/library\ecp.c ****     size_t i, j;
1550:C:/Workspace/DAVE-4.4.2-64Bit/optiga-trust-m/externals/mbedtls/library\ecp.c ****     unsigned char c, cc, adjust;
1551:C:/Workspace/DAVE-4.4.2-64Bit/optiga-trust-m/externals/mbedtls/library\ecp.c **** 
1552:C:/Workspace/DAVE-4.4.2-64Bit/optiga-trust-m/externals/mbedtls/library\ecp.c ****     memset( x, 0, d+1 );
1553:C:/Workspace/DAVE-4.4.2-64Bit/optiga-trust-m/externals/mbedtls/library\ecp.c **** 
1554:C:/Workspace/DAVE-4.4.2-64Bit/optiga-trust-m/externals/mbedtls/library\ecp.c ****     /* First get the classical comb values (except for x_d = 0) */
1555:C:/Workspace/DAVE-4.4.2-64Bit/optiga-trust-m/externals/mbedtls/library\ecp.c ****     for( i = 0; i < d; i++ )
1556:C:/Workspace/DAVE-4.4.2-64Bit/optiga-trust-m/externals/mbedtls/library\ecp.c ****         for( j = 0; j < w; j++ )
1557:C:/Workspace/DAVE-4.4.2-64Bit/optiga-trust-m/externals/mbedtls/library\ecp.c ****             x[i] |= mbedtls_mpi_get_bit( m, i + d * j ) << j;
1558:C:/Workspace/DAVE-4.4.2-64Bit/optiga-trust-m/externals/mbedtls/library\ecp.c **** 
1559:C:/Workspace/DAVE-4.4.2-64Bit/optiga-trust-m/externals/mbedtls/library\ecp.c ****     /* Now make sure x_1 .. x_d are odd */
1560:C:/Workspace/DAVE-4.4.2-64Bit/optiga-trust-m/externals/mbedtls/library\ecp.c ****     c = 0;
1561:C:/Workspace/DAVE-4.4.2-64Bit/optiga-trust-m/externals/mbedtls/library\ecp.c ****     for( i = 1; i <= d; i++ )
1562:C:/Workspace/DAVE-4.4.2-64Bit/optiga-trust-m/externals/mbedtls/library\ecp.c ****     {
1563:C:/Workspace/DAVE-4.4.2-64Bit/optiga-trust-m/externals/mbedtls/library\ecp.c ****         /* Add carry and update it */
1564:C:/Workspace/DAVE-4.4.2-64Bit/optiga-trust-m/externals/mbedtls/library\ecp.c ****         cc   = x[i] & c;
1565:C:/Workspace/DAVE-4.4.2-64Bit/optiga-trust-m/externals/mbedtls/library\ecp.c ****         x[i] = x[i] ^ c;
1566:C:/Workspace/DAVE-4.4.2-64Bit/optiga-trust-m/externals/mbedtls/library\ecp.c ****         c = cc;
1567:C:/Workspace/DAVE-4.4.2-64Bit/optiga-trust-m/externals/mbedtls/library\ecp.c **** 
1568:C:/Workspace/DAVE-4.4.2-64Bit/optiga-trust-m/externals/mbedtls/library\ecp.c ****         /* Adjust if needed, avoiding branches */
1569:C:/Workspace/DAVE-4.4.2-64Bit/optiga-trust-m/externals/mbedtls/library\ecp.c ****         adjust = 1 - ( x[i] & 0x01 );
1570:C:/Workspace/DAVE-4.4.2-64Bit/optiga-trust-m/externals/mbedtls/library\ecp.c ****         c   |= x[i] & ( x[i-1] * adjust );
1571:C:/Workspace/DAVE-4.4.2-64Bit/optiga-trust-m/externals/mbedtls/library\ecp.c ****         x[i] = x[i] ^ ( x[i-1] * adjust );
1572:C:/Workspace/DAVE-4.4.2-64Bit/optiga-trust-m/externals/mbedtls/library\ecp.c ****         x[i-1] |= adjust << 7;
1573:C:/Workspace/DAVE-4.4.2-64Bit/optiga-trust-m/externals/mbedtls/library\ecp.c ****     }
1574:C:/Workspace/DAVE-4.4.2-64Bit/optiga-trust-m/externals/mbedtls/library\ecp.c **** }
1575:C:/Workspace/DAVE-4.4.2-64Bit/optiga-trust-m/externals/mbedtls/library\ecp.c **** 
1576:C:/Workspace/DAVE-4.4.2-64Bit/optiga-trust-m/externals/mbedtls/library\ecp.c **** /*
1577:C:/Workspace/DAVE-4.4.2-64Bit/optiga-trust-m/externals/mbedtls/library\ecp.c ****  * Precompute points for the adapted comb method
1578:C:/Workspace/DAVE-4.4.2-64Bit/optiga-trust-m/externals/mbedtls/library\ecp.c ****  *
1579:C:/Workspace/DAVE-4.4.2-64Bit/optiga-trust-m/externals/mbedtls/library\ecp.c ****  * Assumption: T must be able to hold 2^{w - 1} elements.
1580:C:/Workspace/DAVE-4.4.2-64Bit/optiga-trust-m/externals/mbedtls/library\ecp.c ****  *
1581:C:/Workspace/DAVE-4.4.2-64Bit/optiga-trust-m/externals/mbedtls/library\ecp.c ****  * Operation: If i = i_{w-1} ... i_1 is the binary representation of i,
1582:C:/Workspace/DAVE-4.4.2-64Bit/optiga-trust-m/externals/mbedtls/library\ecp.c ****  *            sets T[i] = i_{w-1} 2^{(w-1)d} P + ... + i_1 2^d P + P.
1583:C:/Workspace/DAVE-4.4.2-64Bit/optiga-trust-m/externals/mbedtls/library\ecp.c ****  *
1584:C:/Workspace/DAVE-4.4.2-64Bit/optiga-trust-m/externals/mbedtls/library\ecp.c ****  * Cost: d(w-1) D + (2^{w-1} - 1) A + 1 N(w-1) + 1 N(2^{w-1} - 1)
1585:C:/Workspace/DAVE-4.4.2-64Bit/optiga-trust-m/externals/mbedtls/library\ecp.c ****  *
1586:C:/Workspace/DAVE-4.4.2-64Bit/optiga-trust-m/externals/mbedtls/library\ecp.c ****  * Note: Even comb values (those where P would be omitted from the
1587:C:/Workspace/DAVE-4.4.2-64Bit/optiga-trust-m/externals/mbedtls/library\ecp.c ****  *       sum defining T[i] above) are not needed in our adaption
1588:C:/Workspace/DAVE-4.4.2-64Bit/optiga-trust-m/externals/mbedtls/library\ecp.c ****  *       the comb method. See ecp_comb_recode_core().
1589:C:/Workspace/DAVE-4.4.2-64Bit/optiga-trust-m/externals/mbedtls/library\ecp.c ****  *
1590:C:/Workspace/DAVE-4.4.2-64Bit/optiga-trust-m/externals/mbedtls/library\ecp.c ****  * This function currently works in four steps:
1591:C:/Workspace/DAVE-4.4.2-64Bit/optiga-trust-m/externals/mbedtls/library\ecp.c ****  * (1) [dbl]      Computation of intermediate T[i] for 2-power values of i
1592:C:/Workspace/DAVE-4.4.2-64Bit/optiga-trust-m/externals/mbedtls/library\ecp.c ****  * (2) [norm_dbl] Normalization of coordinates of these T[i]
1593:C:/Workspace/DAVE-4.4.2-64Bit/optiga-trust-m/externals/mbedtls/library\ecp.c ****  * (3) [add]      Computation of all T[i]
1594:C:/Workspace/DAVE-4.4.2-64Bit/optiga-trust-m/externals/mbedtls/library\ecp.c ****  * (4) [norm_add] Normalization of all T[i]
1595:C:/Workspace/DAVE-4.4.2-64Bit/optiga-trust-m/externals/mbedtls/library\ecp.c ****  *
1596:C:/Workspace/DAVE-4.4.2-64Bit/optiga-trust-m/externals/mbedtls/library\ecp.c ****  * Step 1 can be interrupted but not the others; together with the final
1597:C:/Workspace/DAVE-4.4.2-64Bit/optiga-trust-m/externals/mbedtls/library\ecp.c ****  * coordinate normalization they are the largest steps done at once, depending
1598:C:/Workspace/DAVE-4.4.2-64Bit/optiga-trust-m/externals/mbedtls/library\ecp.c ****  * on the window size. Here are operation counts for P-256:
1599:C:/Workspace/DAVE-4.4.2-64Bit/optiga-trust-m/externals/mbedtls/library\ecp.c ****  *
1600:C:/Workspace/DAVE-4.4.2-64Bit/optiga-trust-m/externals/mbedtls/library\ecp.c ****  * step     (2)     (3)     (4)
1601:C:/Workspace/DAVE-4.4.2-64Bit/optiga-trust-m/externals/mbedtls/library\ecp.c ****  * w = 5    142     165     208
1602:C:/Workspace/DAVE-4.4.2-64Bit/optiga-trust-m/externals/mbedtls/library\ecp.c ****  * w = 4    136      77     160
1603:C:/Workspace/DAVE-4.4.2-64Bit/optiga-trust-m/externals/mbedtls/library\ecp.c ****  * w = 3    130      33     136
1604:C:/Workspace/DAVE-4.4.2-64Bit/optiga-trust-m/externals/mbedtls/library\ecp.c ****  * w = 2    124      11     124
1605:C:/Workspace/DAVE-4.4.2-64Bit/optiga-trust-m/externals/mbedtls/library\ecp.c ****  *
1606:C:/Workspace/DAVE-4.4.2-64Bit/optiga-trust-m/externals/mbedtls/library\ecp.c ****  * So if ECC operations are blocking for too long even with a low max_ops
1607:C:/Workspace/DAVE-4.4.2-64Bit/optiga-trust-m/externals/mbedtls/library\ecp.c ****  * value, it's useful to set MBEDTLS_ECP_WINDOW_SIZE to a lower value in order
1608:C:/Workspace/DAVE-4.4.2-64Bit/optiga-trust-m/externals/mbedtls/library\ecp.c ****  * to minimize maximum blocking time.
1609:C:/Workspace/DAVE-4.4.2-64Bit/optiga-trust-m/externals/mbedtls/library\ecp.c ****  */
1610:C:/Workspace/DAVE-4.4.2-64Bit/optiga-trust-m/externals/mbedtls/library\ecp.c **** static int ecp_precompute_comb( const mbedtls_ecp_group *grp,
1611:C:/Workspace/DAVE-4.4.2-64Bit/optiga-trust-m/externals/mbedtls/library\ecp.c ****                                 mbedtls_ecp_point T[], const mbedtls_ecp_point *P,
1612:C:/Workspace/DAVE-4.4.2-64Bit/optiga-trust-m/externals/mbedtls/library\ecp.c ****                                 unsigned char w, size_t d,
1613:C:/Workspace/DAVE-4.4.2-64Bit/optiga-trust-m/externals/mbedtls/library\ecp.c ****                                 mbedtls_ecp_restart_ctx *rs_ctx )
1614:C:/Workspace/DAVE-4.4.2-64Bit/optiga-trust-m/externals/mbedtls/library\ecp.c **** {
1615:C:/Workspace/DAVE-4.4.2-64Bit/optiga-trust-m/externals/mbedtls/library\ecp.c ****     int ret;
1616:C:/Workspace/DAVE-4.4.2-64Bit/optiga-trust-m/externals/mbedtls/library\ecp.c ****     unsigned char i;
1617:C:/Workspace/DAVE-4.4.2-64Bit/optiga-trust-m/externals/mbedtls/library\ecp.c ****     size_t j = 0;
1618:C:/Workspace/DAVE-4.4.2-64Bit/optiga-trust-m/externals/mbedtls/library\ecp.c ****     const unsigned char T_size = 1U << ( w - 1 );
1619:C:/Workspace/DAVE-4.4.2-64Bit/optiga-trust-m/externals/mbedtls/library\ecp.c ****     mbedtls_ecp_point *cur, *TT[COMB_MAX_PRE - 1];
1620:C:/Workspace/DAVE-4.4.2-64Bit/optiga-trust-m/externals/mbedtls/library\ecp.c **** 
1621:C:/Workspace/DAVE-4.4.2-64Bit/optiga-trust-m/externals/mbedtls/library\ecp.c **** #if defined(MBEDTLS_ECP_RESTARTABLE)
1622:C:/Workspace/DAVE-4.4.2-64Bit/optiga-trust-m/externals/mbedtls/library\ecp.c ****     if( rs_ctx != NULL && rs_ctx->rsm != NULL )
1623:C:/Workspace/DAVE-4.4.2-64Bit/optiga-trust-m/externals/mbedtls/library\ecp.c ****     {
1624:C:/Workspace/DAVE-4.4.2-64Bit/optiga-trust-m/externals/mbedtls/library\ecp.c ****         if( rs_ctx->rsm->state == ecp_rsm_pre_dbl )
1625:C:/Workspace/DAVE-4.4.2-64Bit/optiga-trust-m/externals/mbedtls/library\ecp.c ****             goto dbl;
1626:C:/Workspace/DAVE-4.4.2-64Bit/optiga-trust-m/externals/mbedtls/library\ecp.c ****         if( rs_ctx->rsm->state == ecp_rsm_pre_norm_dbl )
1627:C:/Workspace/DAVE-4.4.2-64Bit/optiga-trust-m/externals/mbedtls/library\ecp.c ****             goto norm_dbl;
1628:C:/Workspace/DAVE-4.4.2-64Bit/optiga-trust-m/externals/mbedtls/library\ecp.c ****         if( rs_ctx->rsm->state == ecp_rsm_pre_add )
1629:C:/Workspace/DAVE-4.4.2-64Bit/optiga-trust-m/externals/mbedtls/library\ecp.c ****             goto add;
1630:C:/Workspace/DAVE-4.4.2-64Bit/optiga-trust-m/externals/mbedtls/library\ecp.c ****         if( rs_ctx->rsm->state == ecp_rsm_pre_norm_add )
1631:C:/Workspace/DAVE-4.4.2-64Bit/optiga-trust-m/externals/mbedtls/library\ecp.c ****             goto norm_add;
1632:C:/Workspace/DAVE-4.4.2-64Bit/optiga-trust-m/externals/mbedtls/library\ecp.c ****     }
1633:C:/Workspace/DAVE-4.4.2-64Bit/optiga-trust-m/externals/mbedtls/library\ecp.c **** #else
1634:C:/Workspace/DAVE-4.4.2-64Bit/optiga-trust-m/externals/mbedtls/library\ecp.c ****     (void) rs_ctx;
1635:C:/Workspace/DAVE-4.4.2-64Bit/optiga-trust-m/externals/mbedtls/library\ecp.c **** #endif
1636:C:/Workspace/DAVE-4.4.2-64Bit/optiga-trust-m/externals/mbedtls/library\ecp.c **** 
1637:C:/Workspace/DAVE-4.4.2-64Bit/optiga-trust-m/externals/mbedtls/library\ecp.c **** #if defined(MBEDTLS_ECP_RESTARTABLE)
1638:C:/Workspace/DAVE-4.4.2-64Bit/optiga-trust-m/externals/mbedtls/library\ecp.c ****     if( rs_ctx != NULL && rs_ctx->rsm != NULL )
1639:C:/Workspace/DAVE-4.4.2-64Bit/optiga-trust-m/externals/mbedtls/library\ecp.c ****     {
1640:C:/Workspace/DAVE-4.4.2-64Bit/optiga-trust-m/externals/mbedtls/library\ecp.c ****         rs_ctx->rsm->state = ecp_rsm_pre_dbl;
1641:C:/Workspace/DAVE-4.4.2-64Bit/optiga-trust-m/externals/mbedtls/library\ecp.c **** 
1642:C:/Workspace/DAVE-4.4.2-64Bit/optiga-trust-m/externals/mbedtls/library\ecp.c ****         /* initial state for the loop */
1643:C:/Workspace/DAVE-4.4.2-64Bit/optiga-trust-m/externals/mbedtls/library\ecp.c ****         rs_ctx->rsm->i = 0;
1644:C:/Workspace/DAVE-4.4.2-64Bit/optiga-trust-m/externals/mbedtls/library\ecp.c ****     }
1645:C:/Workspace/DAVE-4.4.2-64Bit/optiga-trust-m/externals/mbedtls/library\ecp.c **** 
1646:C:/Workspace/DAVE-4.4.2-64Bit/optiga-trust-m/externals/mbedtls/library\ecp.c **** dbl:
1647:C:/Workspace/DAVE-4.4.2-64Bit/optiga-trust-m/externals/mbedtls/library\ecp.c **** #endif
1648:C:/Workspace/DAVE-4.4.2-64Bit/optiga-trust-m/externals/mbedtls/library\ecp.c ****     /*
1649:C:/Workspace/DAVE-4.4.2-64Bit/optiga-trust-m/externals/mbedtls/library\ecp.c ****      * Set T[0] = P and
1650:C:/Workspace/DAVE-4.4.2-64Bit/optiga-trust-m/externals/mbedtls/library\ecp.c ****      * T[2^{l-1}] = 2^{dl} P for l = 1 .. w-1 (this is not the final value)
1651:C:/Workspace/DAVE-4.4.2-64Bit/optiga-trust-m/externals/mbedtls/library\ecp.c ****      */
1652:C:/Workspace/DAVE-4.4.2-64Bit/optiga-trust-m/externals/mbedtls/library\ecp.c ****     MBEDTLS_MPI_CHK( mbedtls_ecp_copy( &T[0], P ) );
1653:C:/Workspace/DAVE-4.4.2-64Bit/optiga-trust-m/externals/mbedtls/library\ecp.c **** 
1654:C:/Workspace/DAVE-4.4.2-64Bit/optiga-trust-m/externals/mbedtls/library\ecp.c **** #if defined(MBEDTLS_ECP_RESTARTABLE)
1655:C:/Workspace/DAVE-4.4.2-64Bit/optiga-trust-m/externals/mbedtls/library\ecp.c ****     if( rs_ctx != NULL && rs_ctx->rsm != NULL && rs_ctx->rsm->i != 0 )
1656:C:/Workspace/DAVE-4.4.2-64Bit/optiga-trust-m/externals/mbedtls/library\ecp.c ****         j = rs_ctx->rsm->i;
1657:C:/Workspace/DAVE-4.4.2-64Bit/optiga-trust-m/externals/mbedtls/library\ecp.c ****     else
1658:C:/Workspace/DAVE-4.4.2-64Bit/optiga-trust-m/externals/mbedtls/library\ecp.c **** #endif
1659:C:/Workspace/DAVE-4.4.2-64Bit/optiga-trust-m/externals/mbedtls/library\ecp.c ****         j = 0;
1660:C:/Workspace/DAVE-4.4.2-64Bit/optiga-trust-m/externals/mbedtls/library\ecp.c **** 
1661:C:/Workspace/DAVE-4.4.2-64Bit/optiga-trust-m/externals/mbedtls/library\ecp.c ****     for( ; j < d * ( w - 1 ); j++ )
1662:C:/Workspace/DAVE-4.4.2-64Bit/optiga-trust-m/externals/mbedtls/library\ecp.c ****     {
1663:C:/Workspace/DAVE-4.4.2-64Bit/optiga-trust-m/externals/mbedtls/library\ecp.c ****         MBEDTLS_ECP_BUDGET( MBEDTLS_ECP_OPS_DBL );
1664:C:/Workspace/DAVE-4.4.2-64Bit/optiga-trust-m/externals/mbedtls/library\ecp.c **** 
1665:C:/Workspace/DAVE-4.4.2-64Bit/optiga-trust-m/externals/mbedtls/library\ecp.c ****         i = 1U << ( j / d );
1666:C:/Workspace/DAVE-4.4.2-64Bit/optiga-trust-m/externals/mbedtls/library\ecp.c ****         cur = T + i;
1667:C:/Workspace/DAVE-4.4.2-64Bit/optiga-trust-m/externals/mbedtls/library\ecp.c **** 
1668:C:/Workspace/DAVE-4.4.2-64Bit/optiga-trust-m/externals/mbedtls/library\ecp.c ****         if( j % d == 0 )
1669:C:/Workspace/DAVE-4.4.2-64Bit/optiga-trust-m/externals/mbedtls/library\ecp.c ****             MBEDTLS_MPI_CHK( mbedtls_ecp_copy( cur, T + ( i >> 1 ) ) );
1670:C:/Workspace/DAVE-4.4.2-64Bit/optiga-trust-m/externals/mbedtls/library\ecp.c **** 
1671:C:/Workspace/DAVE-4.4.2-64Bit/optiga-trust-m/externals/mbedtls/library\ecp.c ****         MBEDTLS_MPI_CHK( ecp_double_jac( grp, cur, cur ) );
1672:C:/Workspace/DAVE-4.4.2-64Bit/optiga-trust-m/externals/mbedtls/library\ecp.c ****     }
1673:C:/Workspace/DAVE-4.4.2-64Bit/optiga-trust-m/externals/mbedtls/library\ecp.c **** 
1674:C:/Workspace/DAVE-4.4.2-64Bit/optiga-trust-m/externals/mbedtls/library\ecp.c **** #if defined(MBEDTLS_ECP_RESTARTABLE)
1675:C:/Workspace/DAVE-4.4.2-64Bit/optiga-trust-m/externals/mbedtls/library\ecp.c ****     if( rs_ctx != NULL && rs_ctx->rsm != NULL )
1676:C:/Workspace/DAVE-4.4.2-64Bit/optiga-trust-m/externals/mbedtls/library\ecp.c ****         rs_ctx->rsm->state = ecp_rsm_pre_norm_dbl;
1677:C:/Workspace/DAVE-4.4.2-64Bit/optiga-trust-m/externals/mbedtls/library\ecp.c **** 
1678:C:/Workspace/DAVE-4.4.2-64Bit/optiga-trust-m/externals/mbedtls/library\ecp.c **** norm_dbl:
1679:C:/Workspace/DAVE-4.4.2-64Bit/optiga-trust-m/externals/mbedtls/library\ecp.c **** #endif
1680:C:/Workspace/DAVE-4.4.2-64Bit/optiga-trust-m/externals/mbedtls/library\ecp.c ****     /*
1681:C:/Workspace/DAVE-4.4.2-64Bit/optiga-trust-m/externals/mbedtls/library\ecp.c ****      * Normalize current elements in T. As T has holes,
1682:C:/Workspace/DAVE-4.4.2-64Bit/optiga-trust-m/externals/mbedtls/library\ecp.c ****      * use an auxiliary array of pointers to elements in T.
1683:C:/Workspace/DAVE-4.4.2-64Bit/optiga-trust-m/externals/mbedtls/library\ecp.c ****      */
1684:C:/Workspace/DAVE-4.4.2-64Bit/optiga-trust-m/externals/mbedtls/library\ecp.c ****     j = 0;
1685:C:/Workspace/DAVE-4.4.2-64Bit/optiga-trust-m/externals/mbedtls/library\ecp.c ****     for( i = 1; i < T_size; i <<= 1 )
1686:C:/Workspace/DAVE-4.4.2-64Bit/optiga-trust-m/externals/mbedtls/library\ecp.c ****         TT[j++] = T + i;
1687:C:/Workspace/DAVE-4.4.2-64Bit/optiga-trust-m/externals/mbedtls/library\ecp.c **** 
1688:C:/Workspace/DAVE-4.4.2-64Bit/optiga-trust-m/externals/mbedtls/library\ecp.c ****     MBEDTLS_ECP_BUDGET( MBEDTLS_ECP_OPS_INV + 6 * j - 2 );
1689:C:/Workspace/DAVE-4.4.2-64Bit/optiga-trust-m/externals/mbedtls/library\ecp.c **** 
1690:C:/Workspace/DAVE-4.4.2-64Bit/optiga-trust-m/externals/mbedtls/library\ecp.c ****     MBEDTLS_MPI_CHK( ecp_normalize_jac_many( grp, TT, j ) );
1691:C:/Workspace/DAVE-4.4.2-64Bit/optiga-trust-m/externals/mbedtls/library\ecp.c **** 
1692:C:/Workspace/DAVE-4.4.2-64Bit/optiga-trust-m/externals/mbedtls/library\ecp.c **** #if defined(MBEDTLS_ECP_RESTARTABLE)
1693:C:/Workspace/DAVE-4.4.2-64Bit/optiga-trust-m/externals/mbedtls/library\ecp.c ****     if( rs_ctx != NULL && rs_ctx->rsm != NULL )
1694:C:/Workspace/DAVE-4.4.2-64Bit/optiga-trust-m/externals/mbedtls/library\ecp.c ****         rs_ctx->rsm->state = ecp_rsm_pre_add;
1695:C:/Workspace/DAVE-4.4.2-64Bit/optiga-trust-m/externals/mbedtls/library\ecp.c **** 
1696:C:/Workspace/DAVE-4.4.2-64Bit/optiga-trust-m/externals/mbedtls/library\ecp.c **** add:
1697:C:/Workspace/DAVE-4.4.2-64Bit/optiga-trust-m/externals/mbedtls/library\ecp.c **** #endif
1698:C:/Workspace/DAVE-4.4.2-64Bit/optiga-trust-m/externals/mbedtls/library\ecp.c ****     /*
1699:C:/Workspace/DAVE-4.4.2-64Bit/optiga-trust-m/externals/mbedtls/library\ecp.c ****      * Compute the remaining ones using the minimal number of additions
1700:C:/Workspace/DAVE-4.4.2-64Bit/optiga-trust-m/externals/mbedtls/library\ecp.c ****      * Be careful to update T[2^l] only after using it!
1701:C:/Workspace/DAVE-4.4.2-64Bit/optiga-trust-m/externals/mbedtls/library\ecp.c ****      */
1702:C:/Workspace/DAVE-4.4.2-64Bit/optiga-trust-m/externals/mbedtls/library\ecp.c ****     MBEDTLS_ECP_BUDGET( ( T_size - 1 ) * MBEDTLS_ECP_OPS_ADD );
1703:C:/Workspace/DAVE-4.4.2-64Bit/optiga-trust-m/externals/mbedtls/library\ecp.c **** 
1704:C:/Workspace/DAVE-4.4.2-64Bit/optiga-trust-m/externals/mbedtls/library\ecp.c ****     for( i = 1; i < T_size; i <<= 1 )
1705:C:/Workspace/DAVE-4.4.2-64Bit/optiga-trust-m/externals/mbedtls/library\ecp.c ****     {
1706:C:/Workspace/DAVE-4.4.2-64Bit/optiga-trust-m/externals/mbedtls/library\ecp.c ****         j = i;
1707:C:/Workspace/DAVE-4.4.2-64Bit/optiga-trust-m/externals/mbedtls/library\ecp.c ****         while( j-- )
1708:C:/Workspace/DAVE-4.4.2-64Bit/optiga-trust-m/externals/mbedtls/library\ecp.c ****             MBEDTLS_MPI_CHK( ecp_add_mixed( grp, &T[i + j], &T[j], &T[i] ) );
1709:C:/Workspace/DAVE-4.4.2-64Bit/optiga-trust-m/externals/mbedtls/library\ecp.c ****     }
1710:C:/Workspace/DAVE-4.4.2-64Bit/optiga-trust-m/externals/mbedtls/library\ecp.c **** 
1711:C:/Workspace/DAVE-4.4.2-64Bit/optiga-trust-m/externals/mbedtls/library\ecp.c **** #if defined(MBEDTLS_ECP_RESTARTABLE)
1712:C:/Workspace/DAVE-4.4.2-64Bit/optiga-trust-m/externals/mbedtls/library\ecp.c ****     if( rs_ctx != NULL && rs_ctx->rsm != NULL )
1713:C:/Workspace/DAVE-4.4.2-64Bit/optiga-trust-m/externals/mbedtls/library\ecp.c ****         rs_ctx->rsm->state = ecp_rsm_pre_norm_add;
1714:C:/Workspace/DAVE-4.4.2-64Bit/optiga-trust-m/externals/mbedtls/library\ecp.c **** 
1715:C:/Workspace/DAVE-4.4.2-64Bit/optiga-trust-m/externals/mbedtls/library\ecp.c **** norm_add:
1716:C:/Workspace/DAVE-4.4.2-64Bit/optiga-trust-m/externals/mbedtls/library\ecp.c **** #endif
1717:C:/Workspace/DAVE-4.4.2-64Bit/optiga-trust-m/externals/mbedtls/library\ecp.c ****     /*
1718:C:/Workspace/DAVE-4.4.2-64Bit/optiga-trust-m/externals/mbedtls/library\ecp.c ****      * Normalize final elements in T. Even though there are no holes now, we
1719:C:/Workspace/DAVE-4.4.2-64Bit/optiga-trust-m/externals/mbedtls/library\ecp.c ****      * still need the auxiliary array for homogeneity with the previous
1720:C:/Workspace/DAVE-4.4.2-64Bit/optiga-trust-m/externals/mbedtls/library\ecp.c ****      * call. Also, skip T[0] which is already normalised, being a copy of P.
1721:C:/Workspace/DAVE-4.4.2-64Bit/optiga-trust-m/externals/mbedtls/library\ecp.c ****      */
1722:C:/Workspace/DAVE-4.4.2-64Bit/optiga-trust-m/externals/mbedtls/library\ecp.c ****     for( j = 0; j + 1 < T_size; j++ )
1723:C:/Workspace/DAVE-4.4.2-64Bit/optiga-trust-m/externals/mbedtls/library\ecp.c ****         TT[j] = T + j + 1;
1724:C:/Workspace/DAVE-4.4.2-64Bit/optiga-trust-m/externals/mbedtls/library\ecp.c **** 
1725:C:/Workspace/DAVE-4.4.2-64Bit/optiga-trust-m/externals/mbedtls/library\ecp.c ****     MBEDTLS_ECP_BUDGET( MBEDTLS_ECP_OPS_INV + 6 * j - 2 );
1726:C:/Workspace/DAVE-4.4.2-64Bit/optiga-trust-m/externals/mbedtls/library\ecp.c **** 
1727:C:/Workspace/DAVE-4.4.2-64Bit/optiga-trust-m/externals/mbedtls/library\ecp.c ****     MBEDTLS_MPI_CHK( ecp_normalize_jac_many( grp, TT, j ) );
1728:C:/Workspace/DAVE-4.4.2-64Bit/optiga-trust-m/externals/mbedtls/library\ecp.c **** 
1729:C:/Workspace/DAVE-4.4.2-64Bit/optiga-trust-m/externals/mbedtls/library\ecp.c **** cleanup:
1730:C:/Workspace/DAVE-4.4.2-64Bit/optiga-trust-m/externals/mbedtls/library\ecp.c **** #if defined(MBEDTLS_ECP_RESTARTABLE)
1731:C:/Workspace/DAVE-4.4.2-64Bit/optiga-trust-m/externals/mbedtls/library\ecp.c ****     if( rs_ctx != NULL && rs_ctx->rsm != NULL &&
1732:C:/Workspace/DAVE-4.4.2-64Bit/optiga-trust-m/externals/mbedtls/library\ecp.c ****         ret == MBEDTLS_ERR_ECP_IN_PROGRESS )
1733:C:/Workspace/DAVE-4.4.2-64Bit/optiga-trust-m/externals/mbedtls/library\ecp.c ****     {
1734:C:/Workspace/DAVE-4.4.2-64Bit/optiga-trust-m/externals/mbedtls/library\ecp.c ****         if( rs_ctx->rsm->state == ecp_rsm_pre_dbl )
1735:C:/Workspace/DAVE-4.4.2-64Bit/optiga-trust-m/externals/mbedtls/library\ecp.c ****             rs_ctx->rsm->i = j;
1736:C:/Workspace/DAVE-4.4.2-64Bit/optiga-trust-m/externals/mbedtls/library\ecp.c ****     }
1737:C:/Workspace/DAVE-4.4.2-64Bit/optiga-trust-m/externals/mbedtls/library\ecp.c **** #endif
1738:C:/Workspace/DAVE-4.4.2-64Bit/optiga-trust-m/externals/mbedtls/library\ecp.c **** 
1739:C:/Workspace/DAVE-4.4.2-64Bit/optiga-trust-m/externals/mbedtls/library\ecp.c ****     return( ret );
1740:C:/Workspace/DAVE-4.4.2-64Bit/optiga-trust-m/externals/mbedtls/library\ecp.c **** }
1741:C:/Workspace/DAVE-4.4.2-64Bit/optiga-trust-m/externals/mbedtls/library\ecp.c **** 
1742:C:/Workspace/DAVE-4.4.2-64Bit/optiga-trust-m/externals/mbedtls/library\ecp.c **** /*
1743:C:/Workspace/DAVE-4.4.2-64Bit/optiga-trust-m/externals/mbedtls/library\ecp.c ****  * Select precomputed point: R = sign(i) * T[ abs(i) / 2 ]
1744:C:/Workspace/DAVE-4.4.2-64Bit/optiga-trust-m/externals/mbedtls/library\ecp.c ****  *
1745:C:/Workspace/DAVE-4.4.2-64Bit/optiga-trust-m/externals/mbedtls/library\ecp.c ****  * See ecp_comb_recode_core() for background
1746:C:/Workspace/DAVE-4.4.2-64Bit/optiga-trust-m/externals/mbedtls/library\ecp.c ****  */
1747:C:/Workspace/DAVE-4.4.2-64Bit/optiga-trust-m/externals/mbedtls/library\ecp.c **** static int ecp_select_comb( const mbedtls_ecp_group *grp, mbedtls_ecp_point *R,
1748:C:/Workspace/DAVE-4.4.2-64Bit/optiga-trust-m/externals/mbedtls/library\ecp.c ****                             const mbedtls_ecp_point T[], unsigned char T_size,
1749:C:/Workspace/DAVE-4.4.2-64Bit/optiga-trust-m/externals/mbedtls/library\ecp.c ****                             unsigned char i )
1750:C:/Workspace/DAVE-4.4.2-64Bit/optiga-trust-m/externals/mbedtls/library\ecp.c **** {
 1610              	 .loc 1 1750 0
 1611              	 .cfi_startproc
 1612              	.LVL341:
 1613 0000 0C32     	 add r2,r2,#12
 1614              	.LVL342:
 1615 0002 F0B5     	 push {r4,r5,r6,r7,lr}
 1616              	.LCFI8:
 1617              	 .cfi_def_cfa_offset 20
 1618              	 .cfi_offset 4,-20
 1619              	 .cfi_offset 5,-16
 1620              	 .cfi_offset 6,-12
 1621              	 .cfi_offset 7,-8
 1622              	 .cfi_offset 14,-4
 1623 0004 0F1C     	 mov r7,r1
 1624 0006 151C     	 mov r5,r2
1751:C:/Workspace/DAVE-4.4.2-64Bit/optiga-trust-m/externals/mbedtls/library\ecp.c ****     int ret;
1752:C:/Workspace/DAVE-4.4.2-64Bit/optiga-trust-m/externals/mbedtls/library\ecp.c ****     unsigned char ii, j;
1753:C:/Workspace/DAVE-4.4.2-64Bit/optiga-trust-m/externals/mbedtls/library\ecp.c **** 
1754:C:/Workspace/DAVE-4.4.2-64Bit/optiga-trust-m/externals/mbedtls/library\ecp.c ****     /* Ignore the "sign" bit and scale down */
1755:C:/Workspace/DAVE-4.4.2-64Bit/optiga-trust-m/externals/mbedtls/library\ecp.c ****     ii =  ( i & 0x7Fu ) >> 1;
1756:C:/Workspace/DAVE-4.4.2-64Bit/optiga-trust-m/externals/mbedtls/library\ecp.c **** 
1757:C:/Workspace/DAVE-4.4.2-64Bit/optiga-trust-m/externals/mbedtls/library\ecp.c ****     /* Read the whole table to thwart cache-based timing attacks */
1758:C:/Workspace/DAVE-4.4.2-64Bit/optiga-trust-m/externals/mbedtls/library\ecp.c ****     for( j = 0; j < T_size; j++ )
 1625              	 .loc 1 1758 0
 1626 0008 0026     	 mov r6,#0
1750:C:/Workspace/DAVE-4.4.2-64Bit/optiga-trust-m/externals/mbedtls/library\ecp.c ****     int ret;
 1627              	 .loc 1 1750 0
 1628 000a 85B0     	 sub sp,sp,#20
 1629              	.LCFI9:
 1630              	 .cfi_def_cfa_offset 40
1750:C:/Workspace/DAVE-4.4.2-64Bit/optiga-trust-m/externals/mbedtls/library\ecp.c ****     int ret;
 1631              	 .loc 1 1750 0
 1632 000c 0393     	 str r3,[sp,#12]
 1633 000e 0AAB     	 add r3,sp,#40
 1634              	.LVL343:
 1635 0010 1B78     	 ldrb r3,[r3]
 1636              	.LVL344:
 1637 0012 0290     	 str r0,[sp,#8]
 1638 0014 0093     	 str r3,[sp]
1755:C:/Workspace/DAVE-4.4.2-64Bit/optiga-trust-m/externals/mbedtls/library\ecp.c **** 
 1639              	 .loc 1 1755 0
 1640 0016 5B06     	 lsl r3,r3,#25
 1641 0018 9B0E     	 lsr r3,r3,#26
 1642 001a 0193     	 str r3,[sp,#4]
 1643              	.LVL345:
 1644              	.L133:
 1645              	 .loc 1 1758 0 discriminator 1
 1646 001c 039B     	 ldr r3,[sp,#12]
 1647 001e 9E42     	 cmp r6,r3
 1648 0020 18D0     	 beq .L136
1759:C:/Workspace/DAVE-4.4.2-64Bit/optiga-trust-m/externals/mbedtls/library\ecp.c ****     {
1760:C:/Workspace/DAVE-4.4.2-64Bit/optiga-trust-m/externals/mbedtls/library\ecp.c ****         MBEDTLS_MPI_CHK( mbedtls_mpi_safe_cond_assign( &R->X, &T[j].X, j == ii ) );
 1649              	 .loc 1 1760 0
 1650 0022 019B     	 ldr r3,[sp,#4]
 1651 0024 F4B2     	 uxtb r4,r6
 1652 0026 E41A     	 sub r4,r4,r3
 1653 0028 6342     	 neg r3,r4
 1654 002a 5C41     	 adc r4,r4,r3
 1655 002c 291C     	 mov r1,r5
 1656 002e E4B2     	 uxtb r4,r4
 1657 0030 381C     	 mov r0,r7
 1658 0032 0C39     	 sub r1,r1,#12
 1659 0034 221C     	 mov r2,r4
 1660 0036 FFF7FEFF 	 bl mbedtls_mpi_safe_cond_assign
 1661              	.LVL346:
 1662 003a 0028     	 cmp r0,#0
 1663 003c 10D1     	 bne .L134
1761:C:/Workspace/DAVE-4.4.2-64Bit/optiga-trust-m/externals/mbedtls/library\ecp.c ****         MBEDTLS_MPI_CHK( mbedtls_mpi_safe_cond_assign( &R->Y, &T[j].Y, j == ii ) );
 1664              	 .loc 1 1761 0
 1665 003e 381C     	 mov r0,r7
 1666              	.LVL347:
 1667 0040 291C     	 mov r1,r5
 1668 0042 0C30     	 add r0,r0,#12
 1669 0044 221C     	 mov r2,r4
 1670 0046 FFF7FEFF 	 bl mbedtls_mpi_safe_cond_assign
 1671              	.LVL348:
 1672 004a 0136     	 add r6,r6,#1
 1673              	.LVL349:
 1674 004c 2435     	 add r5,r5,#36
 1675 004e 0028     	 cmp r0,#0
 1676 0050 E4D0     	 beq .L133
 1677 0052 05E0     	 b .L134
 1678              	.LVL350:
 1679              	.L136:
 1680              	.LBB13:
 1681              	.LBB14:
1762:C:/Workspace/DAVE-4.4.2-64Bit/optiga-trust-m/externals/mbedtls/library\ecp.c ****     }
1763:C:/Workspace/DAVE-4.4.2-64Bit/optiga-trust-m/externals/mbedtls/library\ecp.c **** 
1764:C:/Workspace/DAVE-4.4.2-64Bit/optiga-trust-m/externals/mbedtls/library\ecp.c ****     /* Safely invert result if i is "negative" */
1765:C:/Workspace/DAVE-4.4.2-64Bit/optiga-trust-m/externals/mbedtls/library\ecp.c ****     MBEDTLS_MPI_CHK( ecp_safe_invert_jac( grp, R, i >> 7 ) );
 1682              	 .loc 1 1765 0
 1683 0054 009B     	 ldr r3,[sp]
 1684 0056 0298     	 ldr r0,[sp,#8]
 1685 0058 DA09     	 lsr r2,r3,#7
 1686 005a 391C     	 mov r1,r7
 1687 005c FFF7FEFF 	 bl ecp_safe_invert_jac
 1688              	.LVL351:
 1689              	.LDL1:
 1690              	.L134:
 1691              	.LBE14:
 1692              	.LBE13:
1766:C:/Workspace/DAVE-4.4.2-64Bit/optiga-trust-m/externals/mbedtls/library\ecp.c **** 
1767:C:/Workspace/DAVE-4.4.2-64Bit/optiga-trust-m/externals/mbedtls/library\ecp.c **** cleanup:
1768:C:/Workspace/DAVE-4.4.2-64Bit/optiga-trust-m/externals/mbedtls/library\ecp.c ****     return( ret );
1769:C:/Workspace/DAVE-4.4.2-64Bit/optiga-trust-m/externals/mbedtls/library\ecp.c **** }
 1693              	 .loc 1 1769 0
 1694 0060 05B0     	 add sp,sp,#20
 1695              	 
 1696              	.LVL352:
 1697 0062 F0BD     	 pop {r4,r5,r6,r7,pc}
 1698              	 .cfi_endproc
 1699              	.LFE34:
 1701              	 .section .text.mbedtls_ecp_curve_list,"ax",%progbits
 1702              	 .align 1
 1703              	 .global mbedtls_ecp_curve_list
 1704              	 .code 16
 1705              	 .thumb_func
 1707              	mbedtls_ecp_curve_list:
 1708              	.LFB0:
 435:C:/Workspace/DAVE-4.4.2-64Bit/optiga-trust-m/externals/mbedtls/library\ecp.c ****     return( ecp_supported_curves );
 1709              	 .loc 1 435 0
 1710              	 .cfi_startproc
 437:C:/Workspace/DAVE-4.4.2-64Bit/optiga-trust-m/externals/mbedtls/library\ecp.c **** 
 1711              	 .loc 1 437 0
 1712 0000 0048     	 ldr r0,.L138
 1713              	 
 1714 0002 7047     	 bx lr
 1715              	.L139:
 1716              	 .align 2
 1717              	.L138:
 1718 0004 00000000 	 .word .LANCHOR0
 1719              	 .cfi_endproc
 1720              	.LFE0:
 1722              	 .section .text.mbedtls_ecp_grp_id_list,"ax",%progbits
 1723              	 .align 1
 1724              	 .global mbedtls_ecp_grp_id_list
 1725              	 .code 16
 1726              	 .thumb_func
 1728              	mbedtls_ecp_grp_id_list:
 1729              	.LFB1:
 443:C:/Workspace/DAVE-4.4.2-64Bit/optiga-trust-m/externals/mbedtls/library\ecp.c ****     static int init_done = 0;
 1730              	 .loc 1 443 0
 1731              	 .cfi_startproc
 446:C:/Workspace/DAVE-4.4.2-64Bit/optiga-trust-m/externals/mbedtls/library\ecp.c ****     {
 1732              	 .loc 1 446 0
 1733 0000 094B     	 ldr r3,.L147
 443:C:/Workspace/DAVE-4.4.2-64Bit/optiga-trust-m/externals/mbedtls/library\ecp.c ****     static int init_done = 0;
 1734              	 .loc 1 443 0
 1735 0002 10B5     	 push {r4,lr}
 1736              	.LCFI10:
 1737              	 .cfi_def_cfa_offset 8
 1738              	 .cfi_offset 4,-8
 1739              	 .cfi_offset 14,-4
 446:C:/Workspace/DAVE-4.4.2-64Bit/optiga-trust-m/externals/mbedtls/library\ecp.c ****     {
 1740              	 .loc 1 446 0
 1741 0004 1968     	 ldr r1,[r3]
 1742 0006 1A1C     	 mov r2,r3
 1743 0008 0023     	 mov r3,#0
 1744 000a 0848     	 ldr r0,.L147+4
 1745 000c 9942     	 cmp r1,r3
 1746 000e 0AD1     	 bne .L142
 1747              	.L141:
 1748              	.LVL353:
 1749 0010 0C21     	 mov r1,#12
 1750 0012 5943     	 mul r1,r3
 1751              	.LBB15:
 452:C:/Workspace/DAVE-4.4.2-64Bit/optiga-trust-m/externals/mbedtls/library\ecp.c ****              curve_info++ )
 1752              	 .loc 1 452 0 discriminator 1
 1753 0014 064C     	 ldr r4,.L147+8
 1754 0016 095D     	 ldrb r1,[r1,r4]
 455:C:/Workspace/DAVE-4.4.2-64Bit/optiga-trust-m/externals/mbedtls/library\ecp.c ****         }
 1755              	 .loc 1 455 0 discriminator 1
 1756 0018 C154     	 strb r1,[r0,r3]
 451:C:/Workspace/DAVE-4.4.2-64Bit/optiga-trust-m/externals/mbedtls/library\ecp.c ****              curve_info->grp_id != MBEDTLS_ECP_DP_NONE;
 1757              	 .loc 1 451 0 discriminator 1
 1758 001a 0029     	 cmp r1,#0
 1759 001c 01D0     	 beq .L146
 1760              	.LVL354:
 455:C:/Workspace/DAVE-4.4.2-64Bit/optiga-trust-m/externals/mbedtls/library\ecp.c ****         }
 1761              	 .loc 1 455 0
 1762 001e 0133     	 add r3,r3,#1
 1763              	.LVL355:
 1764 0020 F6E7     	 b .L141
 1765              	.L146:
 459:C:/Workspace/DAVE-4.4.2-64Bit/optiga-trust-m/externals/mbedtls/library\ecp.c ****     }
 1766              	 .loc 1 459 0
 1767 0022 0123     	 mov r3,#1
 1768              	.LVL356:
 1769 0024 1360     	 str r3,[r2]
 1770              	.L142:
 1771              	.LBE15:
 463:C:/Workspace/DAVE-4.4.2-64Bit/optiga-trust-m/externals/mbedtls/library\ecp.c **** 
 1772              	 .loc 1 463 0
 1773              	 
 1774 0026 10BD     	 pop {r4,pc}
 1775              	.L148:
 1776              	 .align 2
 1777              	.L147:
 1778 0028 00000000 	 .word .LANCHOR1
 1779 002c 00000000 	 .word .LANCHOR2
 1780 0030 00000000 	 .word .LANCHOR0
 1781              	 .cfi_endproc
 1782              	.LFE1:
 1784              	 .section .text.mbedtls_ecp_curve_info_from_grp_id,"ax",%progbits
 1785              	 .align 1
 1786              	 .global mbedtls_ecp_curve_info_from_grp_id
 1787              	 .code 16
 1788              	 .thumb_func
 1790              	mbedtls_ecp_curve_info_from_grp_id:
 1791              	.LFB2:
 469:C:/Workspace/DAVE-4.4.2-64Bit/optiga-trust-m/externals/mbedtls/library\ecp.c ****     const mbedtls_ecp_curve_info *curve_info;
 1792              	 .loc 1 469 0
 1793              	 .cfi_startproc
 1794              	.LVL357:
 472:C:/Workspace/DAVE-4.4.2-64Bit/optiga-trust-m/externals/mbedtls/library\ecp.c ****          curve_info->grp_id != MBEDTLS_ECP_DP_NONE;
 1795              	 .loc 1 472 0
 1796 0000 054B     	 ldr r3,.L155
 1797              	.L150:
 1798              	.LVL358:
 473:C:/Workspace/DAVE-4.4.2-64Bit/optiga-trust-m/externals/mbedtls/library\ecp.c ****          curve_info++ )
 1799              	 .loc 1 473 0 discriminator 1
 1800 0002 1A78     	 ldrb r2,[r3]
 472:C:/Workspace/DAVE-4.4.2-64Bit/optiga-trust-m/externals/mbedtls/library\ecp.c ****          curve_info->grp_id != MBEDTLS_ECP_DP_NONE;
 1801              	 .loc 1 472 0 discriminator 1
 1802 0004 002A     	 cmp r2,#0
 1803 0006 03D0     	 beq .L154
 476:C:/Workspace/DAVE-4.4.2-64Bit/optiga-trust-m/externals/mbedtls/library\ecp.c ****             return( curve_info );
 1804              	 .loc 1 476 0
 1805 0008 8242     	 cmp r2,r0
 1806 000a 03D0     	 beq .L153
 474:C:/Workspace/DAVE-4.4.2-64Bit/optiga-trust-m/externals/mbedtls/library\ecp.c ****     {
 1807              	 .loc 1 474 0
 1808 000c 0C33     	 add r3,r3,#12
 1809              	.LVL359:
 1810 000e F8E7     	 b .L150
 1811              	.L154:
 480:C:/Workspace/DAVE-4.4.2-64Bit/optiga-trust-m/externals/mbedtls/library\ecp.c **** }
 1812              	 .loc 1 480 0
 1813 0010 101C     	 mov r0,r2
 1814              	.LVL360:
 1815 0012 00E0     	 b .L151
 1816              	.LVL361:
 1817              	.L153:
 1818 0014 181C     	 mov r0,r3
 1819              	.LVL362:
 1820              	.L151:
 481:C:/Workspace/DAVE-4.4.2-64Bit/optiga-trust-m/externals/mbedtls/library\ecp.c **** 
 1821              	 .loc 1 481 0
 1822              	 
 1823 0016 7047     	 bx lr
 1824              	.L156:
 1825              	 .align 2
 1826              	.L155:
 1827 0018 00000000 	 .word .LANCHOR0
 1828              	 .cfi_endproc
 1829              	.LFE2:
 1831              	 .section .text.mbedtls_ecp_curve_info_from_tls_id,"ax",%progbits
 1832              	 .align 1
 1833              	 .global mbedtls_ecp_curve_info_from_tls_id
 1834              	 .code 16
 1835              	 .thumb_func
 1837              	mbedtls_ecp_curve_info_from_tls_id:
 1838              	.LFB3:
 487:C:/Workspace/DAVE-4.4.2-64Bit/optiga-trust-m/externals/mbedtls/library\ecp.c ****     const mbedtls_ecp_curve_info *curve_info;
 1839              	 .loc 1 487 0
 1840              	 .cfi_startproc
 1841              	.LVL363:
 490:C:/Workspace/DAVE-4.4.2-64Bit/optiga-trust-m/externals/mbedtls/library\ecp.c ****          curve_info->grp_id != MBEDTLS_ECP_DP_NONE;
 1842              	 .loc 1 490 0
 1843 0000 064B     	 ldr r3,.L163
 1844              	.L158:
 1845              	.LVL364:
 490:C:/Workspace/DAVE-4.4.2-64Bit/optiga-trust-m/externals/mbedtls/library\ecp.c ****          curve_info->grp_id != MBEDTLS_ECP_DP_NONE;
 1846              	 .loc 1 490 0 is_stmt 0 discriminator 1
 1847 0002 1A78     	 ldrb r2,[r3]
 1848 0004 002A     	 cmp r2,#0
 1849 0006 04D0     	 beq .L162
 494:C:/Workspace/DAVE-4.4.2-64Bit/optiga-trust-m/externals/mbedtls/library\ecp.c ****             return( curve_info );
 1850              	 .loc 1 494 0 is_stmt 1
 1851 0008 5A88     	 ldrh r2,[r3,#2]
 1852 000a 8242     	 cmp r2,r0
 1853 000c 03D0     	 beq .L161
 492:C:/Workspace/DAVE-4.4.2-64Bit/optiga-trust-m/externals/mbedtls/library\ecp.c ****     {
 1854              	 .loc 1 492 0
 1855 000e 0C33     	 add r3,r3,#12
 1856              	.LVL365:
 1857 0010 F7E7     	 b .L158
 1858              	.L162:
 498:C:/Workspace/DAVE-4.4.2-64Bit/optiga-trust-m/externals/mbedtls/library\ecp.c **** }
 1859              	 .loc 1 498 0
 1860 0012 101C     	 mov r0,r2
 1861              	.LVL366:
 1862 0014 00E0     	 b .L159
 1863              	.LVL367:
 1864              	.L161:
 1865 0016 181C     	 mov r0,r3
 1866              	.LVL368:
 1867              	.L159:
 499:C:/Workspace/DAVE-4.4.2-64Bit/optiga-trust-m/externals/mbedtls/library\ecp.c **** 
 1868              	 .loc 1 499 0
 1869              	 
 1870 0018 7047     	 bx lr
 1871              	.L164:
 1872 001a C046     	 .align 2
 1873              	.L163:
 1874 001c 00000000 	 .word .LANCHOR0
 1875              	 .cfi_endproc
 1876              	.LFE3:
 1878              	 .section .text.mbedtls_ecp_curve_info_from_name,"ax",%progbits
 1879              	 .align 1
 1880              	 .global mbedtls_ecp_curve_info_from_name
 1881              	 .code 16
 1882              	 .thumb_func
 1884              	mbedtls_ecp_curve_info_from_name:
 1885              	.LFB4:
 505:C:/Workspace/DAVE-4.4.2-64Bit/optiga-trust-m/externals/mbedtls/library\ecp.c ****     const mbedtls_ecp_curve_info *curve_info;
 1886              	 .loc 1 505 0
 1887              	 .cfi_startproc
 1888              	.LVL369:
 1889 0000 38B5     	 push {r3,r4,r5,lr}
 1890              	.LCFI11:
 1891              	 .cfi_def_cfa_offset 16
 1892              	 .cfi_offset 3,-16
 1893              	 .cfi_offset 4,-12
 1894              	 .cfi_offset 5,-8
 1895              	 .cfi_offset 14,-4
 509:C:/Workspace/DAVE-4.4.2-64Bit/optiga-trust-m/externals/mbedtls/library\ecp.c **** 
 1896              	 .loc 1 509 0
 1897 0002 041E     	 sub r4,r0,#0
 508:C:/Workspace/DAVE-4.4.2-64Bit/optiga-trust-m/externals/mbedtls/library\ecp.c ****         return( NULL );
 1898              	 .loc 1 508 0
 1899 0004 0DD0     	 beq .L166
 1900 0006 051C     	 mov r5,r0
 1901 0008 074C     	 ldr r4,.L172
 1902              	.LVL370:
 1903              	.L167:
 511:C:/Workspace/DAVE-4.4.2-64Bit/optiga-trust-m/externals/mbedtls/library\ecp.c ****          curve_info->grp_id != MBEDTLS_ECP_DP_NONE;
 1904              	 .loc 1 511 0 discriminator 1
 1905 000a 2078     	 ldrb r0,[r4]
 1906 000c 0028     	 cmp r0,#0
 1907 000e 07D0     	 beq .L171
 515:C:/Workspace/DAVE-4.4.2-64Bit/optiga-trust-m/externals/mbedtls/library\ecp.c ****             return( curve_info );
 1908              	 .loc 1 515 0
 1909 0010 A068     	 ldr r0,[r4,#8]
 1910 0012 291C     	 mov r1,r5
 1911 0014 FFF7FEFF 	 bl strcmp
 1912              	.LVL371:
 1913 0018 0028     	 cmp r0,#0
 1914 001a 02D0     	 beq .L166
 513:C:/Workspace/DAVE-4.4.2-64Bit/optiga-trust-m/externals/mbedtls/library\ecp.c ****     {
 1915              	 .loc 1 513 0
 1916 001c 0C34     	 add r4,r4,#12
 1917              	.LVL372:
 1918 001e F4E7     	 b .L167
 1919              	.L171:
 509:C:/Workspace/DAVE-4.4.2-64Bit/optiga-trust-m/externals/mbedtls/library\ecp.c **** 
 1920              	 .loc 1 509 0
 1921 0020 041C     	 mov r4,r0
 1922              	.LVL373:
 1923              	.L166:
 520:C:/Workspace/DAVE-4.4.2-64Bit/optiga-trust-m/externals/mbedtls/library\ecp.c **** 
 1924              	 .loc 1 520 0
 1925 0022 201C     	 mov r0,r4
 1926              	 
 1927 0024 38BD     	 pop {r3,r4,r5,pc}
 1928              	.L173:
 1929 0026 C046     	 .align 2
 1930              	.L172:
 1931 0028 00000000 	 .word .LANCHOR0
 1932              	 .cfi_endproc
 1933              	.LFE4:
 1935              	 .section .text.mbedtls_ecp_point_init,"ax",%progbits
 1936              	 .align 1
 1937              	 .global mbedtls_ecp_point_init
 1938              	 .code 16
 1939              	 .thumb_func
 1941              	mbedtls_ecp_point_init:
 1942              	.LFB6:
 540:C:/Workspace/DAVE-4.4.2-64Bit/optiga-trust-m/externals/mbedtls/library\ecp.c ****     ECP_VALIDATE( pt != NULL );
 1943              	 .loc 1 540 0
 1944              	 .cfi_startproc
 1945              	.LVL374:
 1946 0000 10B5     	 push {r4,lr}
 1947              	.LCFI12:
 1948              	 .cfi_def_cfa_offset 8
 1949              	 .cfi_offset 4,-8
 1950              	 .cfi_offset 14,-4
 540:C:/Workspace/DAVE-4.4.2-64Bit/optiga-trust-m/externals/mbedtls/library\ecp.c ****     ECP_VALIDATE( pt != NULL );
 1951              	 .loc 1 540 0
 1952 0002 041C     	 mov r4,r0
 543:C:/Workspace/DAVE-4.4.2-64Bit/optiga-trust-m/externals/mbedtls/library\ecp.c ****     mbedtls_mpi_init( &pt->Y );
 1953              	 .loc 1 543 0
 1954 0004 FFF7FEFF 	 bl mbedtls_mpi_init
 1955              	.LVL375:
 544:C:/Workspace/DAVE-4.4.2-64Bit/optiga-trust-m/externals/mbedtls/library\ecp.c ****     mbedtls_mpi_init( &pt->Z );
 1956              	 .loc 1 544 0
 1957 0008 201C     	 mov r0,r4
 1958 000a 0C30     	 add r0,r0,#12
 1959 000c FFF7FEFF 	 bl mbedtls_mpi_init
 1960              	.LVL376:
 545:C:/Workspace/DAVE-4.4.2-64Bit/optiga-trust-m/externals/mbedtls/library\ecp.c **** }
 1961              	 .loc 1 545 0
 1962 0010 201C     	 mov r0,r4
 1963 0012 1830     	 add r0,r0,#24
 1964 0014 FFF7FEFF 	 bl mbedtls_mpi_init
 1965              	.LVL377:
 546:C:/Workspace/DAVE-4.4.2-64Bit/optiga-trust-m/externals/mbedtls/library\ecp.c **** 
 1966              	 .loc 1 546 0
 1967              	 
 1968              	.LVL378:
 1969 0018 10BD     	 pop {r4,pc}
 1970              	 .cfi_endproc
 1971              	.LFE6:
 1973              	 .section .text.mbedtls_ecp_group_init,"ax",%progbits
 1974              	 .align 1
 1975              	 .global mbedtls_ecp_group_init
 1976              	 .code 16
 1977              	 .thumb_func
 1979              	mbedtls_ecp_group_init:
 1980              	.LFB7:
 552:C:/Workspace/DAVE-4.4.2-64Bit/optiga-trust-m/externals/mbedtls/library\ecp.c ****     ECP_VALIDATE( grp != NULL );
 1981              	 .loc 1 552 0
 1982              	 .cfi_startproc
 1983              	.LVL379:
 1984 0000 38B5     	 push {r3,r4,r5,lr}
 1985              	.LCFI13:
 1986              	 .cfi_def_cfa_offset 16
 1987              	 .cfi_offset 3,-16
 1988              	 .cfi_offset 4,-12
 1989              	 .cfi_offset 5,-8
 1990              	 .cfi_offset 14,-4
 555:C:/Workspace/DAVE-4.4.2-64Bit/optiga-trust-m/externals/mbedtls/library\ecp.c ****     mbedtls_mpi_init( &grp->P );
 1991              	 .loc 1 555 0
 1992 0002 0025     	 mov r5,#0
 552:C:/Workspace/DAVE-4.4.2-64Bit/optiga-trust-m/externals/mbedtls/library\ecp.c ****     ECP_VALIDATE( grp != NULL );
 1993              	 .loc 1 552 0
 1994 0004 041C     	 mov r4,r0
 555:C:/Workspace/DAVE-4.4.2-64Bit/optiga-trust-m/externals/mbedtls/library\ecp.c ****     mbedtls_mpi_init( &grp->P );
 1995              	 .loc 1 555 0
 1996 0006 0570     	 strb r5,[r0]
 556:C:/Workspace/DAVE-4.4.2-64Bit/optiga-trust-m/externals/mbedtls/library\ecp.c ****     mbedtls_mpi_init( &grp->A );
 1997              	 .loc 1 556 0
 1998 0008 0430     	 add r0,r0,#4
 1999              	.LVL380:
 2000 000a FFF7FEFF 	 bl mbedtls_mpi_init
 2001              	.LVL381:
 557:C:/Workspace/DAVE-4.4.2-64Bit/optiga-trust-m/externals/mbedtls/library\ecp.c ****     mbedtls_mpi_init( &grp->B );
 2002              	 .loc 1 557 0
 2003 000e 201C     	 mov r0,r4
 2004 0010 1030     	 add r0,r0,#16
 2005 0012 FFF7FEFF 	 bl mbedtls_mpi_init
 2006              	.LVL382:
 558:C:/Workspace/DAVE-4.4.2-64Bit/optiga-trust-m/externals/mbedtls/library\ecp.c ****     mbedtls_ecp_point_init( &grp->G );
 2007              	 .loc 1 558 0
 2008 0016 201C     	 mov r0,r4
 2009 0018 1C30     	 add r0,r0,#28
 2010 001a FFF7FEFF 	 bl mbedtls_mpi_init
 2011              	.LVL383:
 559:C:/Workspace/DAVE-4.4.2-64Bit/optiga-trust-m/externals/mbedtls/library\ecp.c ****     mbedtls_mpi_init( &grp->N );
 2012              	 .loc 1 559 0
 2013 001e 201C     	 mov r0,r4
 2014 0020 2830     	 add r0,r0,#40
 2015 0022 FFF7FEFF 	 bl mbedtls_ecp_point_init
 2016              	.LVL384:
 560:C:/Workspace/DAVE-4.4.2-64Bit/optiga-trust-m/externals/mbedtls/library\ecp.c ****     grp->pbits = 0;
 2017              	 .loc 1 560 0
 2018 0026 201C     	 mov r0,r4
 2019 0028 4C30     	 add r0,r0,#76
 2020 002a FFF7FEFF 	 bl mbedtls_mpi_init
 2021              	.LVL385:
 570:C:/Workspace/DAVE-4.4.2-64Bit/optiga-trust-m/externals/mbedtls/library\ecp.c **** 
 2022              	 .loc 1 570 0
 2023              	 
 561:C:/Workspace/DAVE-4.4.2-64Bit/optiga-trust-m/externals/mbedtls/library\ecp.c ****     grp->nbits = 0;
 2024              	 .loc 1 561 0
 2025 002e A565     	 str r5,[r4,#88]
 562:C:/Workspace/DAVE-4.4.2-64Bit/optiga-trust-m/externals/mbedtls/library\ecp.c ****     grp->h = 0;
 2026              	 .loc 1 562 0
 2027 0030 E565     	 str r5,[r4,#92]
 563:C:/Workspace/DAVE-4.4.2-64Bit/optiga-trust-m/externals/mbedtls/library\ecp.c ****     grp->modp = NULL;
 2028              	 .loc 1 563 0
 2029 0032 2566     	 str r5,[r4,#96]
 564:C:/Workspace/DAVE-4.4.2-64Bit/optiga-trust-m/externals/mbedtls/library\ecp.c ****     grp->t_pre = NULL;
 2030              	 .loc 1 564 0
 2031 0034 6566     	 str r5,[r4,#100]
 565:C:/Workspace/DAVE-4.4.2-64Bit/optiga-trust-m/externals/mbedtls/library\ecp.c ****     grp->t_post = NULL;
 2032              	 .loc 1 565 0
 2033 0036 A566     	 str r5,[r4,#104]
 566:C:/Workspace/DAVE-4.4.2-64Bit/optiga-trust-m/externals/mbedtls/library\ecp.c ****     grp->t_data = NULL;
 2034              	 .loc 1 566 0
 2035 0038 E566     	 str r5,[r4,#108]
 567:C:/Workspace/DAVE-4.4.2-64Bit/optiga-trust-m/externals/mbedtls/library\ecp.c ****     grp->T = NULL;
 2036              	 .loc 1 567 0
 2037 003a 2567     	 str r5,[r4,#112]
 568:C:/Workspace/DAVE-4.4.2-64Bit/optiga-trust-m/externals/mbedtls/library\ecp.c ****     grp->T_size = 0;
 2038              	 .loc 1 568 0
 2039 003c 6567     	 str r5,[r4,#116]
 569:C:/Workspace/DAVE-4.4.2-64Bit/optiga-trust-m/externals/mbedtls/library\ecp.c **** }
 2040              	 .loc 1 569 0
 2041 003e A567     	 str r5,[r4,#120]
 2042              	.LVL386:
 570:C:/Workspace/DAVE-4.4.2-64Bit/optiga-trust-m/externals/mbedtls/library\ecp.c **** 
 2043              	 .loc 1 570 0
 2044 0040 38BD     	 pop {r3,r4,r5,pc}
 2045              	 .cfi_endproc
 2046              	.LFE7:
 2048              	 .section .text.mbedtls_ecp_keypair_init,"ax",%progbits
 2049              	 .align 1
 2050              	 .global mbedtls_ecp_keypair_init
 2051              	 .code 16
 2052              	 .thumb_func
 2054              	mbedtls_ecp_keypair_init:
 2055              	.LFB8:
 576:C:/Workspace/DAVE-4.4.2-64Bit/optiga-trust-m/externals/mbedtls/library\ecp.c ****     ECP_VALIDATE( key != NULL );
 2056              	 .loc 1 576 0
 2057              	 .cfi_startproc
 2058              	.LVL387:
 2059 0000 10B5     	 push {r4,lr}
 2060              	.LCFI14:
 2061              	 .cfi_def_cfa_offset 8
 2062              	 .cfi_offset 4,-8
 2063              	 .cfi_offset 14,-4
 576:C:/Workspace/DAVE-4.4.2-64Bit/optiga-trust-m/externals/mbedtls/library\ecp.c ****     ECP_VALIDATE( key != NULL );
 2064              	 .loc 1 576 0
 2065 0002 041C     	 mov r4,r0
 579:C:/Workspace/DAVE-4.4.2-64Bit/optiga-trust-m/externals/mbedtls/library\ecp.c ****     mbedtls_mpi_init( &key->d );
 2066              	 .loc 1 579 0
 2067 0004 FFF7FEFF 	 bl mbedtls_ecp_group_init
 2068              	.LVL388:
 580:C:/Workspace/DAVE-4.4.2-64Bit/optiga-trust-m/externals/mbedtls/library\ecp.c ****     mbedtls_ecp_point_init( &key->Q );
 2069              	 .loc 1 580 0
 2070 0008 201C     	 mov r0,r4
 2071 000a 7C30     	 add r0,r0,#124
 2072 000c FFF7FEFF 	 bl mbedtls_mpi_init
 2073              	.LVL389:
 581:C:/Workspace/DAVE-4.4.2-64Bit/optiga-trust-m/externals/mbedtls/library\ecp.c **** }
 2074              	 .loc 1 581 0
 2075 0010 201C     	 mov r0,r4
 2076 0012 8830     	 add r0,r0,#136
 2077 0014 FFF7FEFF 	 bl mbedtls_ecp_point_init
 2078              	.LVL390:
 582:C:/Workspace/DAVE-4.4.2-64Bit/optiga-trust-m/externals/mbedtls/library\ecp.c **** 
 2079              	 .loc 1 582 0
 2080              	 
 2081              	.LVL391:
 2082 0018 10BD     	 pop {r4,pc}
 2083              	 .cfi_endproc
 2084              	.LFE8:
 2086              	 .section .text.mbedtls_ecp_point_free,"ax",%progbits
 2087              	 .align 1
 2088              	 .global mbedtls_ecp_point_free
 2089              	 .code 16
 2090              	 .thumb_func
 2092              	mbedtls_ecp_point_free:
 2093              	.LFB9:
 588:C:/Workspace/DAVE-4.4.2-64Bit/optiga-trust-m/externals/mbedtls/library\ecp.c ****     if( pt == NULL )
 2094              	 .loc 1 588 0
 2095              	 .cfi_startproc
 2096              	.LVL392:
 2097 0000 10B5     	 push {r4,lr}
 2098              	.LCFI15:
 2099              	 .cfi_def_cfa_offset 8
 2100              	 .cfi_offset 4,-8
 2101              	 .cfi_offset 14,-4
 589:C:/Workspace/DAVE-4.4.2-64Bit/optiga-trust-m/externals/mbedtls/library\ecp.c ****         return;
 2102              	 .loc 1 589 0
 2103 0002 0028     	 cmp r0,#0
 2104 0004 0AD0     	 beq .L177
 2105 0006 041C     	 mov r4,r0
 592:C:/Workspace/DAVE-4.4.2-64Bit/optiga-trust-m/externals/mbedtls/library\ecp.c ****     mbedtls_mpi_free( &( pt->Y ) );
 2106              	 .loc 1 592 0
 2107 0008 FFF7FEFF 	 bl mbedtls_mpi_free
 2108              	.LVL393:
 593:C:/Workspace/DAVE-4.4.2-64Bit/optiga-trust-m/externals/mbedtls/library\ecp.c ****     mbedtls_mpi_free( &( pt->Z ) );
 2109              	 .loc 1 593 0
 2110 000c 201C     	 mov r0,r4
 2111 000e 0C30     	 add r0,r0,#12
 2112 0010 FFF7FEFF 	 bl mbedtls_mpi_free
 2113              	.LVL394:
 594:C:/Workspace/DAVE-4.4.2-64Bit/optiga-trust-m/externals/mbedtls/library\ecp.c **** }
 2114              	 .loc 1 594 0
 2115 0014 201C     	 mov r0,r4
 2116 0016 1830     	 add r0,r0,#24
 2117 0018 FFF7FEFF 	 bl mbedtls_mpi_free
 2118              	.LVL395:
 2119              	.L177:
 595:C:/Workspace/DAVE-4.4.2-64Bit/optiga-trust-m/externals/mbedtls/library\ecp.c **** 
 2120              	 .loc 1 595 0
 2121              	 
 2122 001c 10BD     	 pop {r4,pc}
 2123              	 .cfi_endproc
 2124              	.LFE9:
 2126              	 .section .text.mbedtls_ecp_group_free,"ax",%progbits
 2127              	 .align 1
 2128              	 .global mbedtls_ecp_group_free
 2129              	 .code 16
 2130              	 .thumb_func
 2132              	mbedtls_ecp_group_free:
 2133              	.LFB10:
 601:C:/Workspace/DAVE-4.4.2-64Bit/optiga-trust-m/externals/mbedtls/library\ecp.c ****     size_t i;
 2134              	 .loc 1 601 0
 2135              	 .cfi_startproc
 2136              	.LVL396:
 2137 0000 38B5     	 push {r3,r4,r5,lr}
 2138              	.LCFI16:
 2139              	 .cfi_def_cfa_offset 16
 2140              	 .cfi_offset 3,-16
 2141              	 .cfi_offset 4,-12
 2142              	 .cfi_offset 5,-8
 2143              	 .cfi_offset 14,-4
 604:C:/Workspace/DAVE-4.4.2-64Bit/optiga-trust-m/externals/mbedtls/library\ecp.c ****         return;
 2144              	 .loc 1 604 0
 2145 0002 0028     	 cmp r0,#0
 2146 0004 2CD0     	 beq .L182
 607:C:/Workspace/DAVE-4.4.2-64Bit/optiga-trust-m/externals/mbedtls/library\ecp.c ****     {
 2147              	 .loc 1 607 0
 2148 0006 036E     	 ldr r3,[r0,#96]
 2149 0008 041C     	 mov r4,r0
 2150 000a 012B     	 cmp r3,#1
 2151 000c 12D0     	 beq .L184
 609:C:/Workspace/DAVE-4.4.2-64Bit/optiga-trust-m/externals/mbedtls/library\ecp.c ****         mbedtls_mpi_free( &grp->A );
 2152              	 .loc 1 609 0
 2153 000e 0430     	 add r0,r0,#4
 2154              	.LVL397:
 2155 0010 FFF7FEFF 	 bl mbedtls_mpi_free
 2156              	.LVL398:
 610:C:/Workspace/DAVE-4.4.2-64Bit/optiga-trust-m/externals/mbedtls/library\ecp.c ****         mbedtls_mpi_free( &grp->B );
 2157              	 .loc 1 610 0
 2158 0014 201C     	 mov r0,r4
 2159 0016 1030     	 add r0,r0,#16
 2160 0018 FFF7FEFF 	 bl mbedtls_mpi_free
 2161              	.LVL399:
 611:C:/Workspace/DAVE-4.4.2-64Bit/optiga-trust-m/externals/mbedtls/library\ecp.c ****         mbedtls_ecp_point_free( &grp->G );
 2162              	 .loc 1 611 0
 2163 001c 201C     	 mov r0,r4
 2164 001e 1C30     	 add r0,r0,#28
 2165 0020 FFF7FEFF 	 bl mbedtls_mpi_free
 2166              	.LVL400:
 612:C:/Workspace/DAVE-4.4.2-64Bit/optiga-trust-m/externals/mbedtls/library\ecp.c ****         mbedtls_mpi_free( &grp->N );
 2167              	 .loc 1 612 0
 2168 0024 201C     	 mov r0,r4
 2169 0026 2830     	 add r0,r0,#40
 2170 0028 FFF7FEFF 	 bl mbedtls_ecp_point_free
 2171              	.LVL401:
 613:C:/Workspace/DAVE-4.4.2-64Bit/optiga-trust-m/externals/mbedtls/library\ecp.c ****     }
 2172              	 .loc 1 613 0
 2173 002c 201C     	 mov r0,r4
 2174 002e 4C30     	 add r0,r0,#76
 2175 0030 FFF7FEFF 	 bl mbedtls_mpi_free
 2176              	.LVL402:
 2177              	.L184:
 2178 0034 0025     	 mov r5,#0
 616:C:/Workspace/DAVE-4.4.2-64Bit/optiga-trust-m/externals/mbedtls/library\ecp.c ****     {
 2179              	 .loc 1 616 0
 2180 0036 636F     	 ldr r3,[r4,#116]
 2181 0038 AB42     	 cmp r3,r5
 2182 003a 0DD0     	 beq .L186
 2183              	.L185:
 2184              	.LVL403:
 618:C:/Workspace/DAVE-4.4.2-64Bit/optiga-trust-m/externals/mbedtls/library\ecp.c ****             mbedtls_ecp_point_free( &grp->T[i] );
 2185              	 .loc 1 618 0 discriminator 1
 2186 003c A36F     	 ldr r3,[r4,#120]
 2187 003e 9D42     	 cmp r5,r3
 2188 0040 07D2     	 bcs .L195
 2189 0042 2420     	 mov r0,#36
 2190 0044 6843     	 mul r0,r5
 619:C:/Workspace/DAVE-4.4.2-64Bit/optiga-trust-m/externals/mbedtls/library\ecp.c ****         mbedtls_free( grp->T );
 2191              	 .loc 1 619 0 discriminator 3
 2192 0046 636F     	 ldr r3,[r4,#116]
 618:C:/Workspace/DAVE-4.4.2-64Bit/optiga-trust-m/externals/mbedtls/library\ecp.c ****             mbedtls_ecp_point_free( &grp->T[i] );
 2193              	 .loc 1 618 0 discriminator 3
 2194 0048 0135     	 add r5,r5,#1
 2195              	.LVL404:
 619:C:/Workspace/DAVE-4.4.2-64Bit/optiga-trust-m/externals/mbedtls/library\ecp.c ****         mbedtls_free( grp->T );
 2196              	 .loc 1 619 0 discriminator 3
 2197 004a 1818     	 add r0,r3,r0
 2198 004c FFF7FEFF 	 bl mbedtls_ecp_point_free
 2199              	.LVL405:
 2200 0050 F4E7     	 b .L185
 2201              	.L195:
 620:C:/Workspace/DAVE-4.4.2-64Bit/optiga-trust-m/externals/mbedtls/library\ecp.c ****     }
 2202              	 .loc 1 620 0
 2203 0052 606F     	 ldr r0,[r4,#116]
 2204 0054 FFF7FEFF 	 bl free
 2205              	.LVL406:
 2206              	.L186:
 623:C:/Workspace/DAVE-4.4.2-64Bit/optiga-trust-m/externals/mbedtls/library\ecp.c **** }
 2207              	 .loc 1 623 0
 2208 0058 201C     	 mov r0,r4
 2209 005a 7C21     	 mov r1,#124
 2210 005c FFF7FEFF 	 bl mbedtls_platform_zeroize
 2211              	.LVL407:
 2212              	.L182:
 624:C:/Workspace/DAVE-4.4.2-64Bit/optiga-trust-m/externals/mbedtls/library\ecp.c **** 
 2213              	 .loc 1 624 0
 2214              	 
 2215 0060 38BD     	 pop {r3,r4,r5,pc}
 2216              	 .cfi_endproc
 2217              	.LFE10:
 2219              	 .section .text.mbedtls_ecp_keypair_free,"ax",%progbits
 2220              	 .align 1
 2221              	 .global mbedtls_ecp_keypair_free
 2222              	 .code 16
 2223              	 .thumb_func
 2225              	mbedtls_ecp_keypair_free:
 2226              	.LFB11:
 630:C:/Workspace/DAVE-4.4.2-64Bit/optiga-trust-m/externals/mbedtls/library\ecp.c ****     if( key == NULL )
 2227              	 .loc 1 630 0
 2228              	 .cfi_startproc
 2229              	.LVL408:
 2230 0000 10B5     	 push {r4,lr}
 2231              	.LCFI17:
 2232              	 .cfi_def_cfa_offset 8
 2233              	 .cfi_offset 4,-8
 2234              	 .cfi_offset 14,-4
 631:C:/Workspace/DAVE-4.4.2-64Bit/optiga-trust-m/externals/mbedtls/library\ecp.c ****         return;
 2235              	 .loc 1 631 0
 2236 0002 0028     	 cmp r0,#0
 2237 0004 0AD0     	 beq .L196
 2238 0006 041C     	 mov r4,r0
 634:C:/Workspace/DAVE-4.4.2-64Bit/optiga-trust-m/externals/mbedtls/library\ecp.c ****     mbedtls_mpi_free( &key->d );
 2239              	 .loc 1 634 0
 2240 0008 FFF7FEFF 	 bl mbedtls_ecp_group_free
 2241              	.LVL409:
 635:C:/Workspace/DAVE-4.4.2-64Bit/optiga-trust-m/externals/mbedtls/library\ecp.c ****     mbedtls_ecp_point_free( &key->Q );
 2242              	 .loc 1 635 0
 2243 000c 201C     	 mov r0,r4
 2244 000e 7C30     	 add r0,r0,#124
 2245 0010 FFF7FEFF 	 bl mbedtls_mpi_free
 2246              	.LVL410:
 636:C:/Workspace/DAVE-4.4.2-64Bit/optiga-trust-m/externals/mbedtls/library\ecp.c **** }
 2247              	 .loc 1 636 0
 2248 0014 201C     	 mov r0,r4
 2249 0016 8830     	 add r0,r0,#136
 2250 0018 FFF7FEFF 	 bl mbedtls_ecp_point_free
 2251              	.LVL411:
 2252              	.L196:
 637:C:/Workspace/DAVE-4.4.2-64Bit/optiga-trust-m/externals/mbedtls/library\ecp.c **** 
 2253              	 .loc 1 637 0
 2254              	 
 2255 001c 10BD     	 pop {r4,pc}
 2256              	 .cfi_endproc
 2257              	.LFE11:
 2259              	 .section .text.mbedtls_ecp_copy,"ax",%progbits
 2260              	 .align 1
 2261              	 .global mbedtls_ecp_copy
 2262              	 .code 16
 2263              	 .thumb_func
 2265              	mbedtls_ecp_copy:
 2266              	.LFB12:
 643:C:/Workspace/DAVE-4.4.2-64Bit/optiga-trust-m/externals/mbedtls/library\ecp.c ****     int ret;
 2267              	 .loc 1 643 0
 2268              	 .cfi_startproc
 2269              	.LVL412:
 2270 0000 38B5     	 push {r3,r4,r5,lr}
 2271              	.LCFI18:
 2272              	 .cfi_def_cfa_offset 16
 2273              	 .cfi_offset 3,-16
 2274              	 .cfi_offset 4,-12
 2275              	 .cfi_offset 5,-8
 2276              	 .cfi_offset 14,-4
 643:C:/Workspace/DAVE-4.4.2-64Bit/optiga-trust-m/externals/mbedtls/library\ecp.c ****     int ret;
 2277              	 .loc 1 643 0
 2278 0002 051C     	 mov r5,r0
 2279 0004 0C1C     	 mov r4,r1
 648:C:/Workspace/DAVE-4.4.2-64Bit/optiga-trust-m/externals/mbedtls/library\ecp.c ****     MBEDTLS_MPI_CHK( mbedtls_mpi_copy( &P->Y, &Q->Y ) );
 2280              	 .loc 1 648 0
 2281 0006 FFF7FEFF 	 bl mbedtls_mpi_copy
 2282              	.LVL413:
 2283 000a 0028     	 cmp r0,#0
 2284 000c 0DD1     	 bne .L202
 2285              	.LVL414:
 2286              	.LBB18:
 2287              	.LBB19:
 649:C:/Workspace/DAVE-4.4.2-64Bit/optiga-trust-m/externals/mbedtls/library\ecp.c ****     MBEDTLS_MPI_CHK( mbedtls_mpi_copy( &P->Z, &Q->Z ) );
 2288              	 .loc 1 649 0
 2289 000e 281C     	 mov r0,r5
 2290              	.LVL415:
 2291 0010 211C     	 mov r1,r4
 2292 0012 0C30     	 add r0,r0,#12
 2293 0014 0C31     	 add r1,r1,#12
 2294 0016 FFF7FEFF 	 bl mbedtls_mpi_copy
 2295              	.LVL416:
 2296 001a 0028     	 cmp r0,#0
 2297 001c 05D1     	 bne .L202
 650:C:/Workspace/DAVE-4.4.2-64Bit/optiga-trust-m/externals/mbedtls/library\ecp.c **** 
 2298              	 .loc 1 650 0
 2299 001e 281C     	 mov r0,r5
 2300              	.LVL417:
 2301 0020 211C     	 mov r1,r4
 2302 0022 1830     	 add r0,r0,#24
 2303 0024 1831     	 add r1,r1,#24
 2304 0026 FFF7FEFF 	 bl mbedtls_mpi_copy
 2305              	.LVL418:
 2306              	.L202:
 2307              	.LBE19:
 2308              	.LBE18:
 654:C:/Workspace/DAVE-4.4.2-64Bit/optiga-trust-m/externals/mbedtls/library\ecp.c **** 
 2309              	 .loc 1 654 0
 2310              	 
 2311              	.LVL419:
 2312              	.LVL420:
 2313 002a 38BD     	 pop {r3,r4,r5,pc}
 2314              	 .cfi_endproc
 2315              	.LFE12:
 2317              	 .section .text.mbedtls_ecp_group_copy,"ax",%progbits
 2318              	 .align 1
 2319              	 .global mbedtls_ecp_group_copy
 2320              	 .code 16
 2321              	 .thumb_func
 2323              	mbedtls_ecp_group_copy:
 2324              	.LFB13:
 660:C:/Workspace/DAVE-4.4.2-64Bit/optiga-trust-m/externals/mbedtls/library\ecp.c ****     ECP_VALIDATE_RET( dst != NULL );
 2325              	 .loc 1 660 0
 2326              	 .cfi_startproc
 2327              	.LVL421:
 2328 0000 08B5     	 push {r3,lr}
 2329              	.LCFI19:
 2330              	 .cfi_def_cfa_offset 8
 2331              	 .cfi_offset 3,-8
 2332              	 .cfi_offset 14,-4
 664:C:/Workspace/DAVE-4.4.2-64Bit/optiga-trust-m/externals/mbedtls/library\ecp.c **** }
 2333              	 .loc 1 664 0
 2334 0002 0978     	 ldrb r1,[r1]
 2335              	.LVL422:
 2336 0004 FFF7FEFF 	 bl mbedtls_ecp_group_load
 2337              	.LVL423:
 665:C:/Workspace/DAVE-4.4.2-64Bit/optiga-trust-m/externals/mbedtls/library\ecp.c **** 
 2338              	 .loc 1 665 0
 2339              	 
 2340 0008 08BD     	 pop {r3,pc}
 2341              	 .cfi_endproc
 2342              	.LFE13:
 2344              	 .section .text.mbedtls_ecp_set_zero,"ax",%progbits
 2345              	 .align 1
 2346              	 .global mbedtls_ecp_set_zero
 2347              	 .code 16
 2348              	 .thumb_func
 2350              	mbedtls_ecp_set_zero:
 2351              	.LFB14:
 671:C:/Workspace/DAVE-4.4.2-64Bit/optiga-trust-m/externals/mbedtls/library\ecp.c ****     int ret;
 2352              	 .loc 1 671 0
 2353              	 .cfi_startproc
 2354              	.LVL424:
 2355 0000 10B5     	 push {r4,lr}
 2356              	.LCFI20:
 2357              	 .cfi_def_cfa_offset 8
 2358              	 .cfi_offset 4,-8
 2359              	 .cfi_offset 14,-4
 675:C:/Workspace/DAVE-4.4.2-64Bit/optiga-trust-m/externals/mbedtls/library\ecp.c ****     MBEDTLS_MPI_CHK( mbedtls_mpi_lset( &pt->Y , 1 ) );
 2360              	 .loc 1 675 0
 2361 0002 0121     	 mov r1,#1
 671:C:/Workspace/DAVE-4.4.2-64Bit/optiga-trust-m/externals/mbedtls/library\ecp.c ****     int ret;
 2362              	 .loc 1 671 0
 2363 0004 041C     	 mov r4,r0
 675:C:/Workspace/DAVE-4.4.2-64Bit/optiga-trust-m/externals/mbedtls/library\ecp.c ****     MBEDTLS_MPI_CHK( mbedtls_mpi_lset( &pt->Y , 1 ) );
 2364              	 .loc 1 675 0
 2365 0006 FFF7FEFF 	 bl mbedtls_mpi_lset
 2366              	.LVL425:
 2367 000a 011E     	 sub r1,r0,#0
 2368              	.LVL426:
 2369 000c 0BD1     	 bne .L205
 676:C:/Workspace/DAVE-4.4.2-64Bit/optiga-trust-m/externals/mbedtls/library\ecp.c ****     MBEDTLS_MPI_CHK( mbedtls_mpi_lset( &pt->Z , 0 ) );
 2370              	 .loc 1 676 0
 2371 000e 201C     	 mov r0,r4
 2372              	.LVL427:
 2373 0010 0131     	 add r1,r1,#1
 2374              	.LVL428:
 2375 0012 0C30     	 add r0,r0,#12
 2376 0014 FFF7FEFF 	 bl mbedtls_mpi_lset
 2377              	.LVL429:
 2378 0018 011E     	 sub r1,r0,#0
 2379              	.LVL430:
 2380 001a 04D1     	 bne .L205
 2381              	.LVL431:
 2382              	.LBB22:
 2383              	.LBB23:
 677:C:/Workspace/DAVE-4.4.2-64Bit/optiga-trust-m/externals/mbedtls/library\ecp.c **** 
 2384              	 .loc 1 677 0
 2385 001c 201C     	 mov r0,r4
 2386              	.LVL432:
 2387 001e 1830     	 add r0,r0,#24
 2388 0020 FFF7FEFF 	 bl mbedtls_mpi_lset
 2389              	.LVL433:
 2390 0024 011C     	 mov r1,r0
 2391              	.LDL2:
 2392              	.LVL434:
 2393              	.L205:
 2394              	.LBE23:
 2395              	.LBE22:
 681:C:/Workspace/DAVE-4.4.2-64Bit/optiga-trust-m/externals/mbedtls/library\ecp.c **** 
 2396              	 .loc 1 681 0
 2397 0026 081C     	 mov r0,r1
 2398              	 
 2399              	.LVL435:
 2400 0028 10BD     	 pop {r4,pc}
 2401              	 .cfi_endproc
 2402              	.LFE14:
 2404              	 .section .text.ecp_add_mixed,"ax",%progbits
 2405              	 .align 1
 2406              	 .code 16
 2407              	 .thumb_func
 2409              	ecp_add_mixed:
 2410              	.LFB30:
1355:C:/Workspace/DAVE-4.4.2-64Bit/optiga-trust-m/externals/mbedtls/library\ecp.c ****     int ret;
 2411              	 .loc 1 1355 0
 2412              	 .cfi_startproc
 2413              	.LVL436:
 2414 0000 F0B5     	 push {r4,r5,r6,r7,lr}
 2415              	.LCFI21:
 2416              	 .cfi_def_cfa_offset 20
 2417              	 .cfi_offset 4,-20
 2418              	 .cfi_offset 5,-16
 2419              	 .cfi_offset 6,-12
 2420              	 .cfi_offset 7,-8
 2421              	 .cfi_offset 14,-4
 2422 0002 1F1C     	 mov r7,r3
1371:C:/Workspace/DAVE-4.4.2-64Bit/optiga-trust-m/externals/mbedtls/library\ecp.c ****         return( mbedtls_ecp_copy( R, Q ) );
 2423              	 .loc 1 1371 0
 2424 0004 131C     	 mov r3,r2
 2425              	.LVL437:
 2426 0006 1833     	 add r3,r3,#24
1355:C:/Workspace/DAVE-4.4.2-64Bit/optiga-trust-m/externals/mbedtls/library\ecp.c ****     int ret;
 2427              	 .loc 1 1355 0
 2428 0008 9BB0     	 sub sp,sp,#108
 2429              	.LCFI22:
 2430              	 .cfi_def_cfa_offset 128
1355:C:/Workspace/DAVE-4.4.2-64Bit/optiga-trust-m/externals/mbedtls/library\ecp.c ****     int ret;
 2431              	 .loc 1 1355 0
 2432 000a 051C     	 mov r5,r0
 2433 000c 0E1C     	 mov r6,r1
1371:C:/Workspace/DAVE-4.4.2-64Bit/optiga-trust-m/externals/mbedtls/library\ecp.c ****         return( mbedtls_ecp_copy( R, Q ) );
 2434              	 .loc 1 1371 0
 2435 000e 181C     	 mov r0,r3
 2436              	.LVL438:
 2437 0010 0021     	 mov r1,#0
 2438              	.LVL439:
1355:C:/Workspace/DAVE-4.4.2-64Bit/optiga-trust-m/externals/mbedtls/library\ecp.c ****     int ret;
 2439              	 .loc 1 1355 0
 2440 0012 0192     	 str r2,[sp,#4]
1371:C:/Workspace/DAVE-4.4.2-64Bit/optiga-trust-m/externals/mbedtls/library\ecp.c ****         return( mbedtls_ecp_copy( R, Q ) );
 2441              	 .loc 1 1371 0
 2442 0014 0293     	 str r3,[sp,#8]
 2443 0016 FFF7FEFF 	 bl mbedtls_mpi_cmp_int
 2444              	.LVL440:
 2445 001a 0028     	 cmp r0,#0
 2446 001c 02D1     	 bne .L207
1372:C:/Workspace/DAVE-4.4.2-64Bit/optiga-trust-m/externals/mbedtls/library\ecp.c **** 
 2447              	 .loc 1 1372 0
 2448 001e 301C     	 mov r0,r6
 2449 0020 391C     	 mov r1,r7
 2450 0022 0BE0     	 b .L268
 2451              	.L207:
1374:C:/Workspace/DAVE-4.4.2-64Bit/optiga-trust-m/externals/mbedtls/library\ecp.c ****         return( mbedtls_ecp_copy( R, P ) );
 2452              	 .loc 1 1374 0
 2453 0024 3B6A     	 ldr r3,[r7,#32]
 2454 0026 002B     	 cmp r3,#0
 2455 0028 0BD0     	 beq .L209
1374:C:/Workspace/DAVE-4.4.2-64Bit/optiga-trust-m/externals/mbedtls/library\ecp.c ****         return( mbedtls_ecp_copy( R, P ) );
 2456              	 .loc 1 1374 0 is_stmt 0 discriminator 1
 2457 002a 381C     	 mov r0,r7
 2458 002c 0021     	 mov r1,#0
 2459 002e 1830     	 add r0,r0,#24
 2460 0030 FFF7FEFF 	 bl mbedtls_mpi_cmp_int
 2461              	.LVL441:
 2462 0034 0028     	 cmp r0,#0
 2463 0036 04D1     	 bne .L209
1375:C:/Workspace/DAVE-4.4.2-64Bit/optiga-trust-m/externals/mbedtls/library\ecp.c **** 
 2464              	 .loc 1 1375 0 is_stmt 1
 2465 0038 301C     	 mov r0,r6
 2466 003a 0199     	 ldr r1,[sp,#4]
 2467              	.LVL442:
 2468              	.L268:
 2469 003c FFF7FEFF 	 bl mbedtls_ecp_copy
 2470              	.LVL443:
 2471 0040 A5E1     	 b .L208
 2472              	.L209:
1380:C:/Workspace/DAVE-4.4.2-64Bit/optiga-trust-m/externals/mbedtls/library\ecp.c ****         return( MBEDTLS_ERR_ECP_BAD_INPUT_DATA );
 2473              	 .loc 1 1380 0
 2474 0042 3B6A     	 ldr r3,[r7,#32]
 2475 0044 002B     	 cmp r3,#0
 2476 0046 1DD1     	 bne .L210
 2477              	.L213:
1383:C:/Workspace/DAVE-4.4.2-64Bit/optiga-trust-m/externals/mbedtls/library\ecp.c ****     mbedtls_mpi_init( &X ); mbedtls_mpi_init( &Y ); mbedtls_mpi_init( &Z );
 2478              	 .loc 1 1383 0
 2479 0048 05A8     	 add r0,sp,#20
 2480 004a FFF7FEFF 	 bl mbedtls_mpi_init
 2481              	.LVL444:
 2482 004e 08A8     	 add r0,sp,#32
 2483 0050 FFF7FEFF 	 bl mbedtls_mpi_init
 2484              	.LVL445:
 2485 0054 0BA8     	 add r0,sp,#44
 2486 0056 FFF7FEFF 	 bl mbedtls_mpi_init
 2487              	.LVL446:
 2488 005a 0EA8     	 add r0,sp,#56
 2489 005c FFF7FEFF 	 bl mbedtls_mpi_init
 2490              	.LVL447:
1384:C:/Workspace/DAVE-4.4.2-64Bit/optiga-trust-m/externals/mbedtls/library\ecp.c **** 
 2491              	 .loc 1 1384 0
 2492 0060 11A8     	 add r0,sp,#68
 2493 0062 FFF7FEFF 	 bl mbedtls_mpi_init
 2494              	.LVL448:
 2495 0066 14A8     	 add r0,sp,#80
 2496 0068 FFF7FEFF 	 bl mbedtls_mpi_init
 2497              	.LVL449:
 2498 006c 17A8     	 add r0,sp,#92
 2499 006e FFF7FEFF 	 bl mbedtls_mpi_init
 2500              	.LVL450:
1386:C:/Workspace/DAVE-4.4.2-64Bit/optiga-trust-m/externals/mbedtls/library\ecp.c ****     MBEDTLS_MPI_CHK( mbedtls_mpi_mul_mpi( &T2,  &T1,    &P->Z ) );  MOD_MUL( T2 );
 2501              	 .loc 1 1386 0
 2502 0072 0299     	 ldr r1,[sp,#8]
 2503 0074 05A8     	 add r0,sp,#20
 2504 0076 0A1C     	 mov r2,r1
 2505 0078 FFF7FEFF 	 bl mbedtls_mpi_mul_mpi
 2506              	.LVL451:
 2507 007c 041E     	 sub r4,r0,#0
 2508              	.LVL452:
 2509 007e 00D0     	 beq .LCB2585
 2510 0080 6FE1     	 b .L211
 2511              	.LCB2585:
 2512 0082 08E0     	 b .L269
 2513              	.LVL453:
 2514              	.L210:
1380:C:/Workspace/DAVE-4.4.2-64Bit/optiga-trust-m/externals/mbedtls/library\ecp.c ****         return( MBEDTLS_ERR_ECP_BAD_INPUT_DATA );
 2515              	 .loc 1 1380 0 discriminator 1
 2516 0084 381C     	 mov r0,r7
 2517 0086 0121     	 mov r1,#1
 2518 0088 1830     	 add r0,r0,#24
 2519 008a FFF7FEFF 	 bl mbedtls_mpi_cmp_int
 2520              	.LVL454:
 2521 008e 0028     	 cmp r0,#0
 2522 0090 DAD0     	 beq .L213
1381:C:/Workspace/DAVE-4.4.2-64Bit/optiga-trust-m/externals/mbedtls/library\ecp.c **** 
 2523              	 .loc 1 1381 0
 2524 0092 AC48     	 ldr r0,.L276
 2525 0094 7BE1     	 b .L208
 2526              	.LVL455:
 2527              	.L269:
1386:C:/Workspace/DAVE-4.4.2-64Bit/optiga-trust-m/externals/mbedtls/library\ecp.c ****     MBEDTLS_MPI_CHK( mbedtls_mpi_mul_mpi( &T2,  &T1,    &P->Z ) );  MOD_MUL( T2 );
 2528              	 .loc 1 1386 0 discriminator 1
 2529 0096 05A8     	 add r0,sp,#20
 2530              	.LVL456:
 2531 0098 291C     	 mov r1,r5
 2532 009a FFF7FEFF 	 bl ecp_modp
 2533              	.LVL457:
 2534 009e 041E     	 sub r4,r0,#0
 2535              	.LVL458:
 2536 00a0 00D0     	 beq .LCB2614
 2537 00a2 5EE1     	 b .L211
 2538              	.LCB2614:
1387:C:/Workspace/DAVE-4.4.2-64Bit/optiga-trust-m/externals/mbedtls/library\ecp.c ****     MBEDTLS_MPI_CHK( mbedtls_mpi_mul_mpi( &T1,  &T1,    &Q->X ) );  MOD_MUL( T1 );
 2539              	 .loc 1 1387 0
 2540 00a4 08A8     	 add r0,sp,#32
 2541              	.LVL459:
 2542 00a6 05A9     	 add r1,sp,#20
 2543 00a8 029A     	 ldr r2,[sp,#8]
 2544 00aa FFF7FEFF 	 bl mbedtls_mpi_mul_mpi
 2545              	.LVL460:
 2546 00ae 041E     	 sub r4,r0,#0
 2547              	.LVL461:
 2548 00b0 00D0     	 beq .LCB2625
 2549 00b2 56E1     	 b .L211
 2550              	.LCB2625:
1387:C:/Workspace/DAVE-4.4.2-64Bit/optiga-trust-m/externals/mbedtls/library\ecp.c ****     MBEDTLS_MPI_CHK( mbedtls_mpi_mul_mpi( &T1,  &T1,    &Q->X ) );  MOD_MUL( T1 );
 2551              	 .loc 1 1387 0 is_stmt 0 discriminator 1
 2552 00b4 08A8     	 add r0,sp,#32
 2553              	.LVL462:
 2554 00b6 291C     	 mov r1,r5
 2555 00b8 FFF7FEFF 	 bl ecp_modp
 2556              	.LVL463:
 2557 00bc 041E     	 sub r4,r0,#0
 2558              	.LVL464:
 2559 00be 00D0     	 beq .LCB2635
 2560 00c0 4FE1     	 b .L211
 2561              	.LCB2635:
1388:C:/Workspace/DAVE-4.4.2-64Bit/optiga-trust-m/externals/mbedtls/library\ecp.c ****     MBEDTLS_MPI_CHK( mbedtls_mpi_mul_mpi( &T2,  &T2,    &Q->Y ) );  MOD_MUL( T2 );
 2562              	 .loc 1 1388 0 is_stmt 1
 2563 00c2 05A8     	 add r0,sp,#20
 2564              	.LVL465:
 2565 00c4 011C     	 mov r1,r0
 2566 00c6 3A1C     	 mov r2,r7
 2567 00c8 FFF7FEFF 	 bl mbedtls_mpi_mul_mpi
 2568              	.LVL466:
 2569 00cc 041E     	 sub r4,r0,#0
 2570              	.LVL467:
 2571 00ce 00D0     	 beq .LCB2646
 2572 00d0 47E1     	 b .L211
 2573              	.LCB2646:
1388:C:/Workspace/DAVE-4.4.2-64Bit/optiga-trust-m/externals/mbedtls/library\ecp.c ****     MBEDTLS_MPI_CHK( mbedtls_mpi_mul_mpi( &T2,  &T2,    &Q->Y ) );  MOD_MUL( T2 );
 2574              	 .loc 1 1388 0 is_stmt 0 discriminator 1
 2575 00d2 05A8     	 add r0,sp,#20
 2576              	.LVL468:
 2577 00d4 291C     	 mov r1,r5
 2578 00d6 FFF7FEFF 	 bl ecp_modp
 2579              	.LVL469:
 2580 00da 041E     	 sub r4,r0,#0
 2581              	.LVL470:
 2582 00dc 00D0     	 beq .LCB2656
 2583 00de 40E1     	 b .L211
 2584              	.LCB2656:
1389:C:/Workspace/DAVE-4.4.2-64Bit/optiga-trust-m/externals/mbedtls/library\ecp.c ****     MBEDTLS_MPI_CHK( mbedtls_mpi_sub_mpi( &T1,  &T1,    &P->X ) );  MOD_SUB( T1 );
 2585              	 .loc 1 1389 0 is_stmt 1
 2586 00e0 3A1C     	 mov r2,r7
 2587 00e2 08A8     	 add r0,sp,#32
 2588              	.LVL471:
 2589 00e4 0C32     	 add r2,r2,#12
 2590 00e6 011C     	 mov r1,r0
 2591 00e8 FFF7FEFF 	 bl mbedtls_mpi_mul_mpi
 2592              	.LVL472:
 2593 00ec 041E     	 sub r4,r0,#0
 2594              	.LVL473:
 2595 00ee 00D0     	 beq .LCB2668
 2596 00f0 37E1     	 b .L211
 2597              	.LCB2668:
1389:C:/Workspace/DAVE-4.4.2-64Bit/optiga-trust-m/externals/mbedtls/library\ecp.c ****     MBEDTLS_MPI_CHK( mbedtls_mpi_sub_mpi( &T1,  &T1,    &P->X ) );  MOD_SUB( T1 );
 2598              	 .loc 1 1389 0 is_stmt 0 discriminator 1
 2599 00f2 08A8     	 add r0,sp,#32
 2600              	.LVL474:
 2601 00f4 291C     	 mov r1,r5
 2602 00f6 FFF7FEFF 	 bl ecp_modp
 2603              	.LVL475:
 2604 00fa 041E     	 sub r4,r0,#0
 2605              	.LVL476:
 2606 00fc 00D0     	 beq .LCB2678
 2607 00fe 30E1     	 b .L211
 2608              	.LCB2678:
1390:C:/Workspace/DAVE-4.4.2-64Bit/optiga-trust-m/externals/mbedtls/library\ecp.c ****     MBEDTLS_MPI_CHK( mbedtls_mpi_sub_mpi( &T2,  &T2,    &P->Y ) );  MOD_SUB( T2 );
 2609              	 .loc 1 1390 0 is_stmt 1
 2610 0100 05A8     	 add r0,sp,#20
 2611              	.LVL477:
 2612 0102 011C     	 mov r1,r0
 2613 0104 019A     	 ldr r2,[sp,#4]
 2614 0106 FFF7FEFF 	 bl mbedtls_mpi_sub_mpi
 2615              	.LVL478:
 2616              	.L254:
1390:C:/Workspace/DAVE-4.4.2-64Bit/optiga-trust-m/externals/mbedtls/library\ecp.c ****     MBEDTLS_MPI_CHK( mbedtls_mpi_sub_mpi( &T2,  &T2,    &P->Y ) );  MOD_SUB( T2 );
 2617              	 .loc 1 1390 0 is_stmt 0 discriminator 3
 2618 010a 041E     	 sub r4,r0,#0
 2619              	.LVL479:
 2620 010c 00D0     	 beq .LCB2692
 2621 010e 28E1     	 b .L211
 2622              	.LCB2692:
1390:C:/Workspace/DAVE-4.4.2-64Bit/optiga-trust-m/externals/mbedtls/library\ecp.c ****     MBEDTLS_MPI_CHK( mbedtls_mpi_sub_mpi( &T2,  &T2,    &P->Y ) );  MOD_SUB( T2 );
 2623              	 .loc 1 1390 0 discriminator 1
 2624 0110 059B     	 ldr r3,[sp,#20]
 2625 0112 002B     	 cmp r3,#0
 2626 0114 08DB     	 blt .L215
 2627              	.LVL480:
 2628              	.L218:
1391:C:/Workspace/DAVE-4.4.2-64Bit/optiga-trust-m/externals/mbedtls/library\ecp.c **** 
 2629              	 .loc 1 1391 0 is_stmt 1
 2630 0116 019B     	 ldr r3,[sp,#4]
 2631 0118 08A8     	 add r0,sp,#32
 2632 011a 0C33     	 add r3,r3,#12
 2633 011c 011C     	 mov r1,r0
 2634 011e 1A1C     	 mov r2,r3
 2635 0120 0393     	 str r3,[sp,#12]
 2636 0122 FFF7FEFF 	 bl mbedtls_mpi_sub_mpi
 2637              	.LVL481:
 2638 0126 19E0     	 b .L256
 2639              	.LVL482:
 2640              	.L215:
1390:C:/Workspace/DAVE-4.4.2-64Bit/optiga-trust-m/externals/mbedtls/library\ecp.c ****     MBEDTLS_MPI_CHK( mbedtls_mpi_sub_mpi( &T2,  &T2,    &P->Y ) );  MOD_SUB( T2 );
 2641              	 .loc 1 1390 0 discriminator 2
 2642 0128 05A8     	 add r0,sp,#20
 2643              	.LVL483:
 2644 012a 0021     	 mov r1,#0
 2645 012c FFF7FEFF 	 bl mbedtls_mpi_cmp_int
 2646              	.LVL484:
 2647 0130 0028     	 cmp r0,#0
 2648 0132 F0D0     	 beq .L218
1390:C:/Workspace/DAVE-4.4.2-64Bit/optiga-trust-m/externals/mbedtls/library\ecp.c ****     MBEDTLS_MPI_CHK( mbedtls_mpi_sub_mpi( &T2,  &T2,    &P->Y ) );  MOD_SUB( T2 );
 2649              	 .loc 1 1390 0 is_stmt 0 discriminator 3
 2650 0134 05A8     	 add r0,sp,#20
 2651 0136 2A1D     	 add r2,r5,#4
 2652 0138 011C     	 mov r1,r0
 2653 013a FFF7FEFF 	 bl mbedtls_mpi_add_mpi
 2654              	.LVL485:
 2655 013e E4E7     	 b .L254
 2656              	.LVL486:
 2657              	.L270:
1391:C:/Workspace/DAVE-4.4.2-64Bit/optiga-trust-m/externals/mbedtls/library\ecp.c **** 
 2658              	 .loc 1 1391 0 is_stmt 1 discriminator 1
 2659 0140 089B     	 ldr r3,[sp,#32]
 2660 0142 002B     	 cmp r3,#0
 2661 0144 0DDA     	 bge .L223
1391:C:/Workspace/DAVE-4.4.2-64Bit/optiga-trust-m/externals/mbedtls/library\ecp.c **** 
 2662              	 .loc 1 1391 0 is_stmt 0 discriminator 2
 2663 0146 08A8     	 add r0,sp,#32
 2664              	.LVL487:
 2665 0148 0021     	 mov r1,#0
 2666 014a FFF7FEFF 	 bl mbedtls_mpi_cmp_int
 2667              	.LVL488:
 2668 014e 0028     	 cmp r0,#0
 2669 0150 07D0     	 beq .L223
1391:C:/Workspace/DAVE-4.4.2-64Bit/optiga-trust-m/externals/mbedtls/library\ecp.c **** 
 2670              	 .loc 1 1391 0 discriminator 3
 2671 0152 08A8     	 add r0,sp,#32
 2672 0154 2A1D     	 add r2,r5,#4
 2673 0156 011C     	 mov r1,r0
 2674 0158 FFF7FEFF 	 bl mbedtls_mpi_add_mpi
 2675              	.LVL489:
 2676              	.L256:
 2677 015c 041E     	 sub r4,r0,#0
 2678              	.LVL490:
 2679 015e EFD0     	 beq .L270
 2680 0160 FFE0     	 b .L211
 2681              	.LVL491:
 2682              	.L223:
1394:C:/Workspace/DAVE-4.4.2-64Bit/optiga-trust-m/externals/mbedtls/library\ecp.c ****     {
 2683              	 .loc 1 1394 0 is_stmt 1
 2684 0162 0021     	 mov r1,#0
 2685 0164 05A8     	 add r0,sp,#20
 2686 0166 FFF7FEFF 	 bl mbedtls_mpi_cmp_int
 2687              	.LVL492:
 2688 016a 011E     	 sub r1,r0,#0
 2689 016c 0ED1     	 bne .L271
1396:C:/Workspace/DAVE-4.4.2-64Bit/optiga-trust-m/externals/mbedtls/library\ecp.c ****         {
 2690              	 .loc 1 1396 0
 2691 016e 08A8     	 add r0,sp,#32
 2692 0170 FFF7FEFF 	 bl mbedtls_mpi_cmp_int
 2693              	.LVL493:
 2694 0174 0028     	 cmp r0,#0
 2695 0176 05D1     	 bne .L224
1398:C:/Workspace/DAVE-4.4.2-64Bit/optiga-trust-m/externals/mbedtls/library\ecp.c ****             goto cleanup;
 2696              	 .loc 1 1398 0
 2697 0178 281C     	 mov r0,r5
 2698 017a 311C     	 mov r1,r6
 2699 017c 019A     	 ldr r2,[sp,#4]
 2700 017e FFF7FEFF 	 bl ecp_double_jac
 2701              	.LVL494:
 2702 0182 EDE0     	 b .L267
 2703              	.L224:
1403:C:/Workspace/DAVE-4.4.2-64Bit/optiga-trust-m/externals/mbedtls/library\ecp.c ****             goto cleanup;
 2704              	 .loc 1 1403 0
 2705 0184 301C     	 mov r0,r6
 2706 0186 FFF7FEFF 	 bl mbedtls_ecp_set_zero
 2707              	.LVL495:
 2708 018a E9E0     	 b .L267
 2709              	.L271:
1408:C:/Workspace/DAVE-4.4.2-64Bit/optiga-trust-m/externals/mbedtls/library\ecp.c ****     MBEDTLS_MPI_CHK( mbedtls_mpi_mul_mpi( &T3,  &T1,    &T1   ) );  MOD_MUL( T3 );
 2710              	 .loc 1 1408 0
 2711 018c 17A8     	 add r0,sp,#92
 2712 018e 0299     	 ldr r1,[sp,#8]
 2713 0190 05AA     	 add r2,sp,#20
 2714 0192 FFF7FEFF 	 bl mbedtls_mpi_mul_mpi
 2715              	.LVL496:
 2716 0196 041E     	 sub r4,r0,#0
 2717              	.LVL497:
 2718 0198 00D0     	 beq .LCB2805
 2719 019a E2E0     	 b .L211
 2720              	.LCB2805:
1408:C:/Workspace/DAVE-4.4.2-64Bit/optiga-trust-m/externals/mbedtls/library\ecp.c ****     MBEDTLS_MPI_CHK( mbedtls_mpi_mul_mpi( &T3,  &T1,    &T1   ) );  MOD_MUL( T3 );
 2721              	 .loc 1 1408 0 is_stmt 0 discriminator 1
 2722 019c 17A8     	 add r0,sp,#92
 2723              	.LVL498:
 2724 019e 291C     	 mov r1,r5
 2725 01a0 FFF7FEFF 	 bl ecp_modp
 2726              	.LVL499:
 2727 01a4 041E     	 sub r4,r0,#0
 2728              	.LVL500:
 2729 01a6 00D0     	 beq .LCB2815
 2730 01a8 DBE0     	 b .L211
 2731              	.LCB2815:
1409:C:/Workspace/DAVE-4.4.2-64Bit/optiga-trust-m/externals/mbedtls/library\ecp.c ****     MBEDTLS_MPI_CHK( mbedtls_mpi_mul_mpi( &T4,  &T3,    &T1   ) );  MOD_MUL( T4 );
 2732              	 .loc 1 1409 0 is_stmt 1
 2733 01aa 05A9     	 add r1,sp,#20
 2734 01ac 0BA8     	 add r0,sp,#44
 2735              	.LVL501:
 2736 01ae 0A1C     	 mov r2,r1
 2737 01b0 FFF7FEFF 	 bl mbedtls_mpi_mul_mpi
 2738              	.LVL502:
 2739 01b4 041E     	 sub r4,r0,#0
 2740              	.LVL503:
 2741 01b6 00D0     	 beq .LCB2827
 2742 01b8 D3E0     	 b .L211
 2743              	.LCB2827:
1409:C:/Workspace/DAVE-4.4.2-64Bit/optiga-trust-m/externals/mbedtls/library\ecp.c ****     MBEDTLS_MPI_CHK( mbedtls_mpi_mul_mpi( &T4,  &T3,    &T1   ) );  MOD_MUL( T4 );
 2744              	 .loc 1 1409 0 is_stmt 0 discriminator 1
 2745 01ba 0BA8     	 add r0,sp,#44
 2746              	.LVL504:
 2747 01bc 291C     	 mov r1,r5
 2748 01be FFF7FEFF 	 bl ecp_modp
 2749              	.LVL505:
 2750 01c2 041E     	 sub r4,r0,#0
 2751              	.LVL506:
 2752 01c4 00D0     	 beq .LCB2837
 2753 01c6 CCE0     	 b .L211
 2754              	.LCB2837:
1410:C:/Workspace/DAVE-4.4.2-64Bit/optiga-trust-m/externals/mbedtls/library\ecp.c ****     MBEDTLS_MPI_CHK( mbedtls_mpi_mul_mpi( &T3,  &T3,    &P->X ) );  MOD_MUL( T3 );
 2755              	 .loc 1 1410 0 is_stmt 1
 2756 01c8 0EA8     	 add r0,sp,#56
 2757              	.LVL507:
 2758 01ca 0BA9     	 add r1,sp,#44
 2759 01cc 05AA     	 add r2,sp,#20
 2760 01ce FFF7FEFF 	 bl mbedtls_mpi_mul_mpi
 2761              	.LVL508:
 2762 01d2 041E     	 sub r4,r0,#0
 2763              	.LVL509:
 2764 01d4 00D0     	 beq .LCB2849
 2765 01d6 C4E0     	 b .L211
 2766              	.LCB2849:
1410:C:/Workspace/DAVE-4.4.2-64Bit/optiga-trust-m/externals/mbedtls/library\ecp.c ****     MBEDTLS_MPI_CHK( mbedtls_mpi_mul_mpi( &T3,  &T3,    &P->X ) );  MOD_MUL( T3 );
 2767              	 .loc 1 1410 0 is_stmt 0 discriminator 1
 2768 01d8 0EA8     	 add r0,sp,#56
 2769              	.LVL510:
 2770 01da 291C     	 mov r1,r5
 2771 01dc FFF7FEFF 	 bl ecp_modp
 2772              	.LVL511:
 2773 01e0 041E     	 sub r4,r0,#0
 2774              	.LVL512:
 2775 01e2 00D0     	 beq .LCB2859
 2776 01e4 BDE0     	 b .L211
 2777              	.LCB2859:
1411:C:/Workspace/DAVE-4.4.2-64Bit/optiga-trust-m/externals/mbedtls/library\ecp.c ****     MBEDTLS_MPI_CHK( mbedtls_mpi_mul_int( &T1,  &T3,    2     ) );  MOD_ADD( T1 );
 2778              	 .loc 1 1411 0 is_stmt 1
 2779 01e6 0BA8     	 add r0,sp,#44
 2780              	.LVL513:
 2781 01e8 011C     	 mov r1,r0
 2782 01ea 019A     	 ldr r2,[sp,#4]
 2783 01ec FFF7FEFF 	 bl mbedtls_mpi_mul_mpi
 2784              	.LVL514:
 2785 01f0 041E     	 sub r4,r0,#0
 2786              	.LVL515:
 2787 01f2 00D0     	 beq .LCB2870
 2788 01f4 B5E0     	 b .L211
 2789              	.LCB2870:
1411:C:/Workspace/DAVE-4.4.2-64Bit/optiga-trust-m/externals/mbedtls/library\ecp.c ****     MBEDTLS_MPI_CHK( mbedtls_mpi_mul_int( &T1,  &T3,    2     ) );  MOD_ADD( T1 );
 2790              	 .loc 1 1411 0 is_stmt 0 discriminator 1
 2791 01f6 0BA8     	 add r0,sp,#44
 2792              	.LVL516:
 2793 01f8 291C     	 mov r1,r5
 2794 01fa FFF7FEFF 	 bl ecp_modp
 2795              	.LVL517:
 2796 01fe 041E     	 sub r4,r0,#0
 2797              	.LVL518:
 2798 0200 00D0     	 beq .LCB2880
 2799 0202 AEE0     	 b .L211
 2800              	.LCB2880:
1412:C:/Workspace/DAVE-4.4.2-64Bit/optiga-trust-m/externals/mbedtls/library\ecp.c ****     MBEDTLS_MPI_CHK( mbedtls_mpi_mul_mpi( &X,   &T2,    &T2   ) );  MOD_MUL( X  );
 2801              	 .loc 1 1412 0 is_stmt 1
 2802 0204 05A8     	 add r0,sp,#20
 2803              	.LVL519:
 2804 0206 0BA9     	 add r1,sp,#44
 2805 0208 0222     	 mov r2,#2
 2806 020a FFF7FEFF 	 bl mbedtls_mpi_mul_int
 2807              	.LVL520:
 2808              	.L258:
1412:C:/Workspace/DAVE-4.4.2-64Bit/optiga-trust-m/externals/mbedtls/library\ecp.c ****     MBEDTLS_MPI_CHK( mbedtls_mpi_mul_mpi( &X,   &T2,    &T2   ) );  MOD_MUL( X  );
 2809              	 .loc 1 1412 0 is_stmt 0 discriminator 2
 2810 020e 041E     	 sub r4,r0,#0
 2811              	.LVL521:
 2812 0210 00D0     	 beq .LCB2895
 2813 0212 A6E0     	 b .L211
 2814              	.LCB2895:
1412:C:/Workspace/DAVE-4.4.2-64Bit/optiga-trust-m/externals/mbedtls/library\ecp.c ****     MBEDTLS_MPI_CHK( mbedtls_mpi_mul_mpi( &X,   &T2,    &T2   ) );  MOD_MUL( X  );
 2815              	 .loc 1 1412 0 discriminator 1
 2816 0214 2F1D     	 add r7,r5,#4
 2817 0216 05A8     	 add r0,sp,#20
 2818              	.LVL522:
 2819 0218 391C     	 mov r1,r7
 2820 021a FFF7FEFF 	 bl mbedtls_mpi_cmp_mpi
 2821              	.LVL523:
 2822 021e 0028     	 cmp r0,#0
 2823 0220 05DB     	 blt .L272
1412:C:/Workspace/DAVE-4.4.2-64Bit/optiga-trust-m/externals/mbedtls/library\ecp.c ****     MBEDTLS_MPI_CHK( mbedtls_mpi_mul_mpi( &X,   &T2,    &T2   ) );  MOD_MUL( X  );
 2824              	 .loc 1 1412 0 discriminator 2
 2825 0222 05A8     	 add r0,sp,#20
 2826 0224 011C     	 mov r1,r0
 2827 0226 3A1C     	 mov r2,r7
 2828 0228 FFF7FEFF 	 bl mbedtls_mpi_sub_abs
 2829              	.LVL524:
 2830 022c EFE7     	 b .L258
 2831              	.L272:
1413:C:/Workspace/DAVE-4.4.2-64Bit/optiga-trust-m/externals/mbedtls/library\ecp.c ****     MBEDTLS_MPI_CHK( mbedtls_mpi_sub_mpi( &X,   &X,     &T1   ) );  MOD_SUB( X  );
 2832              	 .loc 1 1413 0 is_stmt 1
 2833 022e 08A9     	 add r1,sp,#32
 2834 0230 11A8     	 add r0,sp,#68
 2835 0232 0A1C     	 mov r2,r1
 2836 0234 FFF7FEFF 	 bl mbedtls_mpi_mul_mpi
 2837              	.LVL525:
 2838 0238 041E     	 sub r4,r0,#0
 2839              	.LVL526:
 2840 023a 00D0     	 beq .LCB2925
 2841 023c 91E0     	 b .L211
 2842              	.LCB2925:
1413:C:/Workspace/DAVE-4.4.2-64Bit/optiga-trust-m/externals/mbedtls/library\ecp.c ****     MBEDTLS_MPI_CHK( mbedtls_mpi_sub_mpi( &X,   &X,     &T1   ) );  MOD_SUB( X  );
 2843              	 .loc 1 1413 0 is_stmt 0 discriminator 1
 2844 023e 11A8     	 add r0,sp,#68
 2845              	.LVL527:
 2846 0240 291C     	 mov r1,r5
 2847 0242 FFF7FEFF 	 bl ecp_modp
 2848              	.LVL528:
 2849 0246 041E     	 sub r4,r0,#0
 2850              	.LVL529:
 2851 0248 00D0     	 beq .LCB2935
 2852 024a 8AE0     	 b .L211
 2853              	.LCB2935:
1414:C:/Workspace/DAVE-4.4.2-64Bit/optiga-trust-m/externals/mbedtls/library\ecp.c ****     MBEDTLS_MPI_CHK( mbedtls_mpi_sub_mpi( &X,   &X,     &T4   ) );  MOD_SUB( X  );
 2854              	 .loc 1 1414 0 is_stmt 1
 2855 024c 11A8     	 add r0,sp,#68
 2856              	.LVL530:
 2857 024e 011C     	 mov r1,r0
 2858 0250 05AA     	 add r2,sp,#20
 2859 0252 FFF7FEFF 	 bl mbedtls_mpi_sub_mpi
 2860              	.LVL531:
 2861              	.L260:
1414:C:/Workspace/DAVE-4.4.2-64Bit/optiga-trust-m/externals/mbedtls/library\ecp.c ****     MBEDTLS_MPI_CHK( mbedtls_mpi_sub_mpi( &X,   &X,     &T4   ) );  MOD_SUB( X  );
 2862              	 .loc 1 1414 0 is_stmt 0 discriminator 3
 2863 0256 041E     	 sub r4,r0,#0
 2864              	.LVL532:
 2865 0258 00D0     	 beq .LCB2949
 2866 025a 82E0     	 b .L211
 2867              	.LCB2949:
1414:C:/Workspace/DAVE-4.4.2-64Bit/optiga-trust-m/externals/mbedtls/library\ecp.c ****     MBEDTLS_MPI_CHK( mbedtls_mpi_sub_mpi( &X,   &X,     &T4   ) );  MOD_SUB( X  );
 2868              	 .loc 1 1414 0 discriminator 1
 2869 025c 119B     	 ldr r3,[sp,#68]
 2870 025e 002B     	 cmp r3,#0
 2871 0260 05DB     	 blt .L228
 2872              	.LVL533:
 2873              	.L231:
1415:C:/Workspace/DAVE-4.4.2-64Bit/optiga-trust-m/externals/mbedtls/library\ecp.c ****     MBEDTLS_MPI_CHK( mbedtls_mpi_sub_mpi( &T3,  &T3,    &X    ) );  MOD_SUB( T3 );
 2874              	 .loc 1 1415 0 is_stmt 1
 2875 0262 11A8     	 add r0,sp,#68
 2876 0264 011C     	 mov r1,r0
 2877 0266 0EAA     	 add r2,sp,#56
 2878 0268 FFF7FEFF 	 bl mbedtls_mpi_sub_mpi
 2879              	.LVL534:
 2880 026c 19E0     	 b .L262
 2881              	.LVL535:
 2882              	.L228:
1414:C:/Workspace/DAVE-4.4.2-64Bit/optiga-trust-m/externals/mbedtls/library\ecp.c ****     MBEDTLS_MPI_CHK( mbedtls_mpi_sub_mpi( &X,   &X,     &T4   ) );  MOD_SUB( X  );
 2883              	 .loc 1 1414 0 discriminator 2
 2884 026e 11A8     	 add r0,sp,#68
 2885              	.LVL536:
 2886 0270 0021     	 mov r1,#0
 2887 0272 FFF7FEFF 	 bl mbedtls_mpi_cmp_int
 2888              	.LVL537:
 2889 0276 0028     	 cmp r0,#0
 2890 0278 F3D0     	 beq .L231
1414:C:/Workspace/DAVE-4.4.2-64Bit/optiga-trust-m/externals/mbedtls/library\ecp.c ****     MBEDTLS_MPI_CHK( mbedtls_mpi_sub_mpi( &X,   &X,     &T4   ) );  MOD_SUB( X  );
 2891              	 .loc 1 1414 0 is_stmt 0 discriminator 3
 2892 027a 11A8     	 add r0,sp,#68
 2893 027c 011C     	 mov r1,r0
 2894 027e 3A1C     	 mov r2,r7
 2895 0280 FFF7FEFF 	 bl mbedtls_mpi_add_mpi
 2896              	.LVL538:
 2897 0284 E7E7     	 b .L260
 2898              	.LVL539:
 2899              	.L273:
1415:C:/Workspace/DAVE-4.4.2-64Bit/optiga-trust-m/externals/mbedtls/library\ecp.c ****     MBEDTLS_MPI_CHK( mbedtls_mpi_sub_mpi( &T3,  &T3,    &X    ) );  MOD_SUB( T3 );
 2900              	 .loc 1 1415 0 is_stmt 1 discriminator 1
 2901 0286 119B     	 ldr r3,[sp,#68]
 2902 0288 002B     	 cmp r3,#0
 2903 028a 0DDA     	 bge .L235
1415:C:/Workspace/DAVE-4.4.2-64Bit/optiga-trust-m/externals/mbedtls/library\ecp.c ****     MBEDTLS_MPI_CHK( mbedtls_mpi_sub_mpi( &T3,  &T3,    &X    ) );  MOD_SUB( T3 );
 2904              	 .loc 1 1415 0 is_stmt 0 discriminator 2
 2905 028c 11A8     	 add r0,sp,#68
 2906              	.LVL540:
 2907 028e 0021     	 mov r1,#0
 2908 0290 FFF7FEFF 	 bl mbedtls_mpi_cmp_int
 2909              	.LVL541:
 2910 0294 0028     	 cmp r0,#0
 2911 0296 07D0     	 beq .L235
1415:C:/Workspace/DAVE-4.4.2-64Bit/optiga-trust-m/externals/mbedtls/library\ecp.c ****     MBEDTLS_MPI_CHK( mbedtls_mpi_sub_mpi( &T3,  &T3,    &X    ) );  MOD_SUB( T3 );
 2912              	 .loc 1 1415 0 discriminator 3
 2913 0298 11A8     	 add r0,sp,#68
 2914 029a 011C     	 mov r1,r0
 2915 029c 3A1C     	 mov r2,r7
 2916 029e FFF7FEFF 	 bl mbedtls_mpi_add_mpi
 2917              	.LVL542:
 2918              	.L262:
 2919 02a2 041E     	 sub r4,r0,#0
 2920              	.LVL543:
 2921 02a4 EFD0     	 beq .L273
 2922 02a6 5CE0     	 b .L211
 2923              	.LVL544:
 2924              	.L235:
1416:C:/Workspace/DAVE-4.4.2-64Bit/optiga-trust-m/externals/mbedtls/library\ecp.c ****     MBEDTLS_MPI_CHK( mbedtls_mpi_mul_mpi( &T3,  &T3,    &T2   ) );  MOD_MUL( T3 );
 2925              	 .loc 1 1416 0 is_stmt 1
 2926 02a8 0BA8     	 add r0,sp,#44
 2927 02aa 011C     	 mov r1,r0
 2928 02ac 11AA     	 add r2,sp,#68
 2929 02ae FFF7FEFF 	 bl mbedtls_mpi_sub_mpi
 2930              	.LVL545:
 2931 02b2 0DE0     	 b .L264
 2932              	.LVL546:
 2933              	.L274:
1416:C:/Workspace/DAVE-4.4.2-64Bit/optiga-trust-m/externals/mbedtls/library\ecp.c ****     MBEDTLS_MPI_CHK( mbedtls_mpi_mul_mpi( &T3,  &T3,    &T2   ) );  MOD_MUL( T3 );
 2934              	 .loc 1 1416 0 is_stmt 0 discriminator 1
 2935 02b4 0B9B     	 ldr r3,[sp,#44]
 2936 02b6 002B     	 cmp r3,#0
 2937 02b8 0DDA     	 bge .L239
1416:C:/Workspace/DAVE-4.4.2-64Bit/optiga-trust-m/externals/mbedtls/library\ecp.c ****     MBEDTLS_MPI_CHK( mbedtls_mpi_mul_mpi( &T3,  &T3,    &T2   ) );  MOD_MUL( T3 );
 2938              	 .loc 1 1416 0 discriminator 2
 2939 02ba 0BA8     	 add r0,sp,#44
 2940              	.LVL547:
 2941 02bc 0021     	 mov r1,#0
 2942 02be FFF7FEFF 	 bl mbedtls_mpi_cmp_int
 2943              	.LVL548:
 2944 02c2 0028     	 cmp r0,#0
 2945 02c4 07D0     	 beq .L239
1416:C:/Workspace/DAVE-4.4.2-64Bit/optiga-trust-m/externals/mbedtls/library\ecp.c ****     MBEDTLS_MPI_CHK( mbedtls_mpi_mul_mpi( &T3,  &T3,    &T2   ) );  MOD_MUL( T3 );
 2946              	 .loc 1 1416 0 discriminator 3
 2947 02c6 0BA8     	 add r0,sp,#44
 2948 02c8 011C     	 mov r1,r0
 2949 02ca 3A1C     	 mov r2,r7
 2950 02cc FFF7FEFF 	 bl mbedtls_mpi_add_mpi
 2951              	.LVL549:
 2952              	.L264:
 2953 02d0 041E     	 sub r4,r0,#0
 2954              	.LVL550:
 2955 02d2 EFD0     	 beq .L274
 2956 02d4 45E0     	 b .L211
 2957              	.LVL551:
 2958              	.L239:
1417:C:/Workspace/DAVE-4.4.2-64Bit/optiga-trust-m/externals/mbedtls/library\ecp.c ****     MBEDTLS_MPI_CHK( mbedtls_mpi_mul_mpi( &T4,  &T4,    &P->Y ) );  MOD_MUL( T4 );
 2959              	 .loc 1 1417 0 is_stmt 1
 2960 02d6 0BA8     	 add r0,sp,#44
 2961 02d8 011C     	 mov r1,r0
 2962 02da 08AA     	 add r2,sp,#32
 2963 02dc FFF7FEFF 	 bl mbedtls_mpi_mul_mpi
 2964              	.LVL552:
 2965 02e0 041E     	 sub r4,r0,#0
 2966              	.LVL553:
 2967 02e2 3ED1     	 bne .L211
1417:C:/Workspace/DAVE-4.4.2-64Bit/optiga-trust-m/externals/mbedtls/library\ecp.c ****     MBEDTLS_MPI_CHK( mbedtls_mpi_mul_mpi( &T4,  &T4,    &P->Y ) );  MOD_MUL( T4 );
 2968              	 .loc 1 1417 0 is_stmt 0 discriminator 1
 2969 02e4 0BA8     	 add r0,sp,#44
 2970              	.LVL554:
 2971 02e6 291C     	 mov r1,r5
 2972 02e8 FFF7FEFF 	 bl ecp_modp
 2973              	.LVL555:
 2974 02ec 041E     	 sub r4,r0,#0
 2975              	.LVL556:
 2976 02ee 38D1     	 bne .L211
1418:C:/Workspace/DAVE-4.4.2-64Bit/optiga-trust-m/externals/mbedtls/library\ecp.c ****     MBEDTLS_MPI_CHK( mbedtls_mpi_sub_mpi( &Y,   &T3,    &T4   ) );  MOD_SUB( Y  );
 2977              	 .loc 1 1418 0 is_stmt 1
 2978 02f0 0EA8     	 add r0,sp,#56
 2979              	.LVL557:
 2980 02f2 011C     	 mov r1,r0
 2981 02f4 039A     	 ldr r2,[sp,#12]
 2982 02f6 FFF7FEFF 	 bl mbedtls_mpi_mul_mpi
 2983              	.LVL558:
 2984 02fa 041E     	 sub r4,r0,#0
 2985              	.LVL559:
 2986 02fc 31D1     	 bne .L211
1418:C:/Workspace/DAVE-4.4.2-64Bit/optiga-trust-m/externals/mbedtls/library\ecp.c ****     MBEDTLS_MPI_CHK( mbedtls_mpi_sub_mpi( &Y,   &T3,    &T4   ) );  MOD_SUB( Y  );
 2987              	 .loc 1 1418 0 is_stmt 0 discriminator 1
 2988 02fe 0EA8     	 add r0,sp,#56
 2989              	.LVL560:
 2990 0300 291C     	 mov r1,r5
 2991 0302 FFF7FEFF 	 bl ecp_modp
 2992              	.LVL561:
 2993 0306 041E     	 sub r4,r0,#0
 2994              	.LVL562:
 2995 0308 2BD1     	 bne .L211
1419:C:/Workspace/DAVE-4.4.2-64Bit/optiga-trust-m/externals/mbedtls/library\ecp.c **** 
 2996              	 .loc 1 1419 0 is_stmt 1
 2997 030a 14A8     	 add r0,sp,#80
 2998              	.LVL563:
 2999 030c 0BA9     	 add r1,sp,#44
 3000 030e 0EAA     	 add r2,sp,#56
 3001 0310 FFF7FEFF 	 bl mbedtls_mpi_sub_mpi
 3002              	.LVL564:
 3003              	.L266:
1419:C:/Workspace/DAVE-4.4.2-64Bit/optiga-trust-m/externals/mbedtls/library\ecp.c **** 
 3004              	 .loc 1 1419 0 is_stmt 0 discriminator 3
 3005 0314 041E     	 sub r4,r0,#0
 3006              	.LVL565:
 3007 0316 24D1     	 bne .L211
1419:C:/Workspace/DAVE-4.4.2-64Bit/optiga-trust-m/externals/mbedtls/library\ecp.c **** 
 3008              	 .loc 1 1419 0 discriminator 1
 3009 0318 149B     	 ldr r3,[sp,#80]
 3010 031a 002B     	 cmp r3,#0
 3011 031c 06DB     	 blt .L241
 3012              	.LVL566:
 3013              	.L244:
1421:C:/Workspace/DAVE-4.4.2-64Bit/optiga-trust-m/externals/mbedtls/library\ecp.c ****     MBEDTLS_MPI_CHK( mbedtls_mpi_copy( &R->Y, &Y ) );
 3014              	 .loc 1 1421 0 is_stmt 1
 3015 031e 301C     	 mov r0,r6
 3016 0320 11A9     	 add r1,sp,#68
 3017 0322 FFF7FEFF 	 bl mbedtls_mpi_copy
 3018              	.LVL567:
 3019 0326 041E     	 sub r4,r0,#0
 3020              	.LVL568:
 3021 0328 1BD1     	 bne .L211
 3022 032a 0DE0     	 b .L275
 3023              	.L241:
1419:C:/Workspace/DAVE-4.4.2-64Bit/optiga-trust-m/externals/mbedtls/library\ecp.c **** 
 3024              	 .loc 1 1419 0 discriminator 2
 3025 032c 14A8     	 add r0,sp,#80
 3026              	.LVL569:
 3027 032e 0021     	 mov r1,#0
 3028 0330 FFF7FEFF 	 bl mbedtls_mpi_cmp_int
 3029              	.LVL570:
 3030 0334 0028     	 cmp r0,#0
 3031 0336 F2D0     	 beq .L244
1419:C:/Workspace/DAVE-4.4.2-64Bit/optiga-trust-m/externals/mbedtls/library\ecp.c **** 
 3032              	 .loc 1 1419 0 is_stmt 0 discriminator 3
 3033 0338 14A8     	 add r0,sp,#80
 3034 033a 011C     	 mov r1,r0
 3035 033c 3A1C     	 mov r2,r7
 3036 033e FFF7FEFF 	 bl mbedtls_mpi_add_mpi
 3037              	.LVL571:
 3038 0342 E7E7     	 b .L266
 3039              	.L277:
 3040              	 .align 2
 3041              	.L276:
 3042 0344 80B0FFFF 	 .word -20352
 3043              	.LVL572:
 3044              	.L275:
1422:C:/Workspace/DAVE-4.4.2-64Bit/optiga-trust-m/externals/mbedtls/library\ecp.c ****     MBEDTLS_MPI_CHK( mbedtls_mpi_copy( &R->Z, &Z ) );
 3045              	 .loc 1 1422 0 is_stmt 1
 3046 0348 301C     	 mov r0,r6
 3047              	.LVL573:
 3048 034a 14A9     	 add r1,sp,#80
 3049 034c 0C30     	 add r0,r0,#12
 3050 034e FFF7FEFF 	 bl mbedtls_mpi_copy
 3051              	.LVL574:
 3052 0352 041E     	 sub r4,r0,#0
 3053              	.LVL575:
 3054 0354 05D1     	 bne .L211
1423:C:/Workspace/DAVE-4.4.2-64Bit/optiga-trust-m/externals/mbedtls/library\ecp.c **** 
 3055              	 .loc 1 1423 0
 3056 0356 301C     	 mov r0,r6
 3057              	.LVL576:
 3058 0358 17A9     	 add r1,sp,#92
 3059 035a 1830     	 add r0,r0,#24
 3060 035c FFF7FEFF 	 bl mbedtls_mpi_copy
 3061              	.LVL577:
 3062              	.L267:
 3063 0360 041C     	 mov r4,r0
 3064              	.LVL578:
 3065              	.L211:
1427:C:/Workspace/DAVE-4.4.2-64Bit/optiga-trust-m/externals/mbedtls/library\ecp.c ****     mbedtls_mpi_free( &X ); mbedtls_mpi_free( &Y ); mbedtls_mpi_free( &Z );
 3066              	 .loc 1 1427 0
 3067 0362 05A8     	 add r0,sp,#20
 3068              	.LVL579:
 3069 0364 FFF7FEFF 	 bl mbedtls_mpi_free
 3070              	.LVL580:
 3071 0368 08A8     	 add r0,sp,#32
 3072 036a FFF7FEFF 	 bl mbedtls_mpi_free
 3073              	.LVL581:
 3074 036e 0BA8     	 add r0,sp,#44
 3075 0370 FFF7FEFF 	 bl mbedtls_mpi_free
 3076              	.LVL582:
 3077 0374 0EA8     	 add r0,sp,#56
 3078 0376 FFF7FEFF 	 bl mbedtls_mpi_free
 3079              	.LVL583:
1428:C:/Workspace/DAVE-4.4.2-64Bit/optiga-trust-m/externals/mbedtls/library\ecp.c **** 
 3080              	 .loc 1 1428 0
 3081 037a 11A8     	 add r0,sp,#68
 3082 037c FFF7FEFF 	 bl mbedtls_mpi_free
 3083              	.LVL584:
 3084 0380 14A8     	 add r0,sp,#80
 3085 0382 FFF7FEFF 	 bl mbedtls_mpi_free
 3086              	.LVL585:
 3087 0386 17A8     	 add r0,sp,#92
 3088 0388 FFF7FEFF 	 bl mbedtls_mpi_free
 3089              	.LVL586:
1430:C:/Workspace/DAVE-4.4.2-64Bit/optiga-trust-m/externals/mbedtls/library\ecp.c **** }
 3090              	 .loc 1 1430 0
 3091 038c 201C     	 mov r0,r4
 3092              	.LVL587:
 3093              	.L208:
1431:C:/Workspace/DAVE-4.4.2-64Bit/optiga-trust-m/externals/mbedtls/library\ecp.c **** 
 3094              	 .loc 1 1431 0
 3095 038e 1BB0     	 add sp,sp,#108
 3096              	 
 3097              	.LVL588:
 3098              	.LVL589:
 3099 0390 F0BD     	 pop {r4,r5,r6,r7,pc}
 3100              	 .cfi_endproc
 3101              	.LFE30:
 3103 0392 C046     	 .section .text.ecp_mul_comb_after_precomp.isra.6,"ax",%progbits
 3104              	 .align 1
 3105              	 .code 16
 3106              	 .thumb_func
 3108              	ecp_mul_comb_after_precomp.isra.6:
 3109              	.LFB59:
1770:C:/Workspace/DAVE-4.4.2-64Bit/optiga-trust-m/externals/mbedtls/library\ecp.c **** 
1771:C:/Workspace/DAVE-4.4.2-64Bit/optiga-trust-m/externals/mbedtls/library\ecp.c **** /*
1772:C:/Workspace/DAVE-4.4.2-64Bit/optiga-trust-m/externals/mbedtls/library\ecp.c ****  * Core multiplication algorithm for the (modified) comb method.
1773:C:/Workspace/DAVE-4.4.2-64Bit/optiga-trust-m/externals/mbedtls/library\ecp.c ****  * This part is actually common with the basic comb method (GECC 3.44)
1774:C:/Workspace/DAVE-4.4.2-64Bit/optiga-trust-m/externals/mbedtls/library\ecp.c ****  *
1775:C:/Workspace/DAVE-4.4.2-64Bit/optiga-trust-m/externals/mbedtls/library\ecp.c ****  * Cost: d A + d D + 1 R
1776:C:/Workspace/DAVE-4.4.2-64Bit/optiga-trust-m/externals/mbedtls/library\ecp.c ****  */
1777:C:/Workspace/DAVE-4.4.2-64Bit/optiga-trust-m/externals/mbedtls/library\ecp.c **** static int ecp_mul_comb_core( const mbedtls_ecp_group *grp, mbedtls_ecp_point *R,
1778:C:/Workspace/DAVE-4.4.2-64Bit/optiga-trust-m/externals/mbedtls/library\ecp.c ****                               const mbedtls_ecp_point T[], unsigned char T_size,
1779:C:/Workspace/DAVE-4.4.2-64Bit/optiga-trust-m/externals/mbedtls/library\ecp.c ****                               const unsigned char x[], size_t d,
1780:C:/Workspace/DAVE-4.4.2-64Bit/optiga-trust-m/externals/mbedtls/library\ecp.c ****                               int (*f_rng)(void *, unsigned char *, size_t),
1781:C:/Workspace/DAVE-4.4.2-64Bit/optiga-trust-m/externals/mbedtls/library\ecp.c ****                               void *p_rng,
1782:C:/Workspace/DAVE-4.4.2-64Bit/optiga-trust-m/externals/mbedtls/library\ecp.c ****                               mbedtls_ecp_restart_ctx *rs_ctx )
1783:C:/Workspace/DAVE-4.4.2-64Bit/optiga-trust-m/externals/mbedtls/library\ecp.c **** {
1784:C:/Workspace/DAVE-4.4.2-64Bit/optiga-trust-m/externals/mbedtls/library\ecp.c ****     int ret;
1785:C:/Workspace/DAVE-4.4.2-64Bit/optiga-trust-m/externals/mbedtls/library\ecp.c ****     mbedtls_ecp_point Txi;
1786:C:/Workspace/DAVE-4.4.2-64Bit/optiga-trust-m/externals/mbedtls/library\ecp.c ****     size_t i;
1787:C:/Workspace/DAVE-4.4.2-64Bit/optiga-trust-m/externals/mbedtls/library\ecp.c **** 
1788:C:/Workspace/DAVE-4.4.2-64Bit/optiga-trust-m/externals/mbedtls/library\ecp.c ****     mbedtls_ecp_point_init( &Txi );
1789:C:/Workspace/DAVE-4.4.2-64Bit/optiga-trust-m/externals/mbedtls/library\ecp.c **** 
1790:C:/Workspace/DAVE-4.4.2-64Bit/optiga-trust-m/externals/mbedtls/library\ecp.c **** #if !defined(MBEDTLS_ECP_RESTARTABLE)
1791:C:/Workspace/DAVE-4.4.2-64Bit/optiga-trust-m/externals/mbedtls/library\ecp.c ****     (void) rs_ctx;
1792:C:/Workspace/DAVE-4.4.2-64Bit/optiga-trust-m/externals/mbedtls/library\ecp.c **** #endif
1793:C:/Workspace/DAVE-4.4.2-64Bit/optiga-trust-m/externals/mbedtls/library\ecp.c **** 
1794:C:/Workspace/DAVE-4.4.2-64Bit/optiga-trust-m/externals/mbedtls/library\ecp.c **** #if defined(MBEDTLS_ECP_RESTARTABLE)
1795:C:/Workspace/DAVE-4.4.2-64Bit/optiga-trust-m/externals/mbedtls/library\ecp.c ****     if( rs_ctx != NULL && rs_ctx->rsm != NULL &&
1796:C:/Workspace/DAVE-4.4.2-64Bit/optiga-trust-m/externals/mbedtls/library\ecp.c ****         rs_ctx->rsm->state != ecp_rsm_comb_core )
1797:C:/Workspace/DAVE-4.4.2-64Bit/optiga-trust-m/externals/mbedtls/library\ecp.c ****     {
1798:C:/Workspace/DAVE-4.4.2-64Bit/optiga-trust-m/externals/mbedtls/library\ecp.c ****         rs_ctx->rsm->i = 0;
1799:C:/Workspace/DAVE-4.4.2-64Bit/optiga-trust-m/externals/mbedtls/library\ecp.c ****         rs_ctx->rsm->state = ecp_rsm_comb_core;
1800:C:/Workspace/DAVE-4.4.2-64Bit/optiga-trust-m/externals/mbedtls/library\ecp.c ****     }
1801:C:/Workspace/DAVE-4.4.2-64Bit/optiga-trust-m/externals/mbedtls/library\ecp.c **** 
1802:C:/Workspace/DAVE-4.4.2-64Bit/optiga-trust-m/externals/mbedtls/library\ecp.c ****     /* new 'if' instead of nested for the sake of the 'else' branch */
1803:C:/Workspace/DAVE-4.4.2-64Bit/optiga-trust-m/externals/mbedtls/library\ecp.c ****     if( rs_ctx != NULL && rs_ctx->rsm != NULL && rs_ctx->rsm->i != 0 )
1804:C:/Workspace/DAVE-4.4.2-64Bit/optiga-trust-m/externals/mbedtls/library\ecp.c ****     {
1805:C:/Workspace/DAVE-4.4.2-64Bit/optiga-trust-m/externals/mbedtls/library\ecp.c ****         /* restore current index (R already pointing to rs_ctx->rsm->R) */
1806:C:/Workspace/DAVE-4.4.2-64Bit/optiga-trust-m/externals/mbedtls/library\ecp.c ****         i = rs_ctx->rsm->i;
1807:C:/Workspace/DAVE-4.4.2-64Bit/optiga-trust-m/externals/mbedtls/library\ecp.c ****     }
1808:C:/Workspace/DAVE-4.4.2-64Bit/optiga-trust-m/externals/mbedtls/library\ecp.c ****     else
1809:C:/Workspace/DAVE-4.4.2-64Bit/optiga-trust-m/externals/mbedtls/library\ecp.c **** #endif
1810:C:/Workspace/DAVE-4.4.2-64Bit/optiga-trust-m/externals/mbedtls/library\ecp.c ****     {
1811:C:/Workspace/DAVE-4.4.2-64Bit/optiga-trust-m/externals/mbedtls/library\ecp.c ****         /* Start with a non-zero point and randomize its coordinates */
1812:C:/Workspace/DAVE-4.4.2-64Bit/optiga-trust-m/externals/mbedtls/library\ecp.c ****         i = d;
1813:C:/Workspace/DAVE-4.4.2-64Bit/optiga-trust-m/externals/mbedtls/library\ecp.c ****         MBEDTLS_MPI_CHK( ecp_select_comb( grp, R, T, T_size, x[i] ) );
1814:C:/Workspace/DAVE-4.4.2-64Bit/optiga-trust-m/externals/mbedtls/library\ecp.c ****         MBEDTLS_MPI_CHK( mbedtls_mpi_lset( &R->Z, 1 ) );
1815:C:/Workspace/DAVE-4.4.2-64Bit/optiga-trust-m/externals/mbedtls/library\ecp.c ****         if( f_rng != 0 )
1816:C:/Workspace/DAVE-4.4.2-64Bit/optiga-trust-m/externals/mbedtls/library\ecp.c ****             MBEDTLS_MPI_CHK( ecp_randomize_jac( grp, R, f_rng, p_rng ) );
1817:C:/Workspace/DAVE-4.4.2-64Bit/optiga-trust-m/externals/mbedtls/library\ecp.c ****     }
1818:C:/Workspace/DAVE-4.4.2-64Bit/optiga-trust-m/externals/mbedtls/library\ecp.c **** 
1819:C:/Workspace/DAVE-4.4.2-64Bit/optiga-trust-m/externals/mbedtls/library\ecp.c ****     while( i != 0 )
1820:C:/Workspace/DAVE-4.4.2-64Bit/optiga-trust-m/externals/mbedtls/library\ecp.c ****     {
1821:C:/Workspace/DAVE-4.4.2-64Bit/optiga-trust-m/externals/mbedtls/library\ecp.c ****         MBEDTLS_ECP_BUDGET( MBEDTLS_ECP_OPS_DBL + MBEDTLS_ECP_OPS_ADD );
1822:C:/Workspace/DAVE-4.4.2-64Bit/optiga-trust-m/externals/mbedtls/library\ecp.c ****         --i;
1823:C:/Workspace/DAVE-4.4.2-64Bit/optiga-trust-m/externals/mbedtls/library\ecp.c **** 
1824:C:/Workspace/DAVE-4.4.2-64Bit/optiga-trust-m/externals/mbedtls/library\ecp.c ****         MBEDTLS_MPI_CHK( ecp_double_jac( grp, R, R ) );
1825:C:/Workspace/DAVE-4.4.2-64Bit/optiga-trust-m/externals/mbedtls/library\ecp.c ****         MBEDTLS_MPI_CHK( ecp_select_comb( grp, &Txi, T, T_size, x[i] ) );
1826:C:/Workspace/DAVE-4.4.2-64Bit/optiga-trust-m/externals/mbedtls/library\ecp.c ****         MBEDTLS_MPI_CHK( ecp_add_mixed( grp, R, R, &Txi ) );
1827:C:/Workspace/DAVE-4.4.2-64Bit/optiga-trust-m/externals/mbedtls/library\ecp.c ****     }
1828:C:/Workspace/DAVE-4.4.2-64Bit/optiga-trust-m/externals/mbedtls/library\ecp.c **** 
1829:C:/Workspace/DAVE-4.4.2-64Bit/optiga-trust-m/externals/mbedtls/library\ecp.c **** cleanup:
1830:C:/Workspace/DAVE-4.4.2-64Bit/optiga-trust-m/externals/mbedtls/library\ecp.c **** 
1831:C:/Workspace/DAVE-4.4.2-64Bit/optiga-trust-m/externals/mbedtls/library\ecp.c ****     mbedtls_ecp_point_free( &Txi );
1832:C:/Workspace/DAVE-4.4.2-64Bit/optiga-trust-m/externals/mbedtls/library\ecp.c **** 
1833:C:/Workspace/DAVE-4.4.2-64Bit/optiga-trust-m/externals/mbedtls/library\ecp.c **** #if defined(MBEDTLS_ECP_RESTARTABLE)
1834:C:/Workspace/DAVE-4.4.2-64Bit/optiga-trust-m/externals/mbedtls/library\ecp.c ****     if( rs_ctx != NULL && rs_ctx->rsm != NULL &&
1835:C:/Workspace/DAVE-4.4.2-64Bit/optiga-trust-m/externals/mbedtls/library\ecp.c ****         ret == MBEDTLS_ERR_ECP_IN_PROGRESS )
1836:C:/Workspace/DAVE-4.4.2-64Bit/optiga-trust-m/externals/mbedtls/library\ecp.c ****     {
1837:C:/Workspace/DAVE-4.4.2-64Bit/optiga-trust-m/externals/mbedtls/library\ecp.c ****         rs_ctx->rsm->i = i;
1838:C:/Workspace/DAVE-4.4.2-64Bit/optiga-trust-m/externals/mbedtls/library\ecp.c ****         /* no need to save R, already pointing to rs_ctx->rsm->R */
1839:C:/Workspace/DAVE-4.4.2-64Bit/optiga-trust-m/externals/mbedtls/library\ecp.c ****     }
1840:C:/Workspace/DAVE-4.4.2-64Bit/optiga-trust-m/externals/mbedtls/library\ecp.c **** #endif
1841:C:/Workspace/DAVE-4.4.2-64Bit/optiga-trust-m/externals/mbedtls/library\ecp.c **** 
1842:C:/Workspace/DAVE-4.4.2-64Bit/optiga-trust-m/externals/mbedtls/library\ecp.c ****     return( ret );
1843:C:/Workspace/DAVE-4.4.2-64Bit/optiga-trust-m/externals/mbedtls/library\ecp.c **** }
1844:C:/Workspace/DAVE-4.4.2-64Bit/optiga-trust-m/externals/mbedtls/library\ecp.c **** 
1845:C:/Workspace/DAVE-4.4.2-64Bit/optiga-trust-m/externals/mbedtls/library\ecp.c **** /*
1846:C:/Workspace/DAVE-4.4.2-64Bit/optiga-trust-m/externals/mbedtls/library\ecp.c ****  * Recode the scalar to get constant-time comb multiplication
1847:C:/Workspace/DAVE-4.4.2-64Bit/optiga-trust-m/externals/mbedtls/library\ecp.c ****  *
1848:C:/Workspace/DAVE-4.4.2-64Bit/optiga-trust-m/externals/mbedtls/library\ecp.c ****  * As the actual scalar recoding needs an odd scalar as a starting point,
1849:C:/Workspace/DAVE-4.4.2-64Bit/optiga-trust-m/externals/mbedtls/library\ecp.c ****  * this wrapper ensures that by replacing m by N - m if necessary, and
1850:C:/Workspace/DAVE-4.4.2-64Bit/optiga-trust-m/externals/mbedtls/library\ecp.c ****  * informs the caller that the result of multiplication will be negated.
1851:C:/Workspace/DAVE-4.4.2-64Bit/optiga-trust-m/externals/mbedtls/library\ecp.c ****  *
1852:C:/Workspace/DAVE-4.4.2-64Bit/optiga-trust-m/externals/mbedtls/library\ecp.c ****  * This works because we only support large prime order for Short Weierstrass
1853:C:/Workspace/DAVE-4.4.2-64Bit/optiga-trust-m/externals/mbedtls/library\ecp.c ****  * curves, so N is always odd hence either m or N - m is.
1854:C:/Workspace/DAVE-4.4.2-64Bit/optiga-trust-m/externals/mbedtls/library\ecp.c ****  *
1855:C:/Workspace/DAVE-4.4.2-64Bit/optiga-trust-m/externals/mbedtls/library\ecp.c ****  * See ecp_comb_recode_core() for background.
1856:C:/Workspace/DAVE-4.4.2-64Bit/optiga-trust-m/externals/mbedtls/library\ecp.c ****  */
1857:C:/Workspace/DAVE-4.4.2-64Bit/optiga-trust-m/externals/mbedtls/library\ecp.c **** static int ecp_comb_recode_scalar( const mbedtls_ecp_group *grp,
1858:C:/Workspace/DAVE-4.4.2-64Bit/optiga-trust-m/externals/mbedtls/library\ecp.c ****                                    const mbedtls_mpi *m,
1859:C:/Workspace/DAVE-4.4.2-64Bit/optiga-trust-m/externals/mbedtls/library\ecp.c ****                                    unsigned char k[COMB_MAX_D + 1],
1860:C:/Workspace/DAVE-4.4.2-64Bit/optiga-trust-m/externals/mbedtls/library\ecp.c ****                                    size_t d,
1861:C:/Workspace/DAVE-4.4.2-64Bit/optiga-trust-m/externals/mbedtls/library\ecp.c ****                                    unsigned char w,
1862:C:/Workspace/DAVE-4.4.2-64Bit/optiga-trust-m/externals/mbedtls/library\ecp.c ****                                    unsigned char *parity_trick )
1863:C:/Workspace/DAVE-4.4.2-64Bit/optiga-trust-m/externals/mbedtls/library\ecp.c **** {
1864:C:/Workspace/DAVE-4.4.2-64Bit/optiga-trust-m/externals/mbedtls/library\ecp.c ****     int ret;
1865:C:/Workspace/DAVE-4.4.2-64Bit/optiga-trust-m/externals/mbedtls/library\ecp.c ****     mbedtls_mpi M, mm;
1866:C:/Workspace/DAVE-4.4.2-64Bit/optiga-trust-m/externals/mbedtls/library\ecp.c **** 
1867:C:/Workspace/DAVE-4.4.2-64Bit/optiga-trust-m/externals/mbedtls/library\ecp.c ****     mbedtls_mpi_init( &M );
1868:C:/Workspace/DAVE-4.4.2-64Bit/optiga-trust-m/externals/mbedtls/library\ecp.c ****     mbedtls_mpi_init( &mm );
1869:C:/Workspace/DAVE-4.4.2-64Bit/optiga-trust-m/externals/mbedtls/library\ecp.c **** 
1870:C:/Workspace/DAVE-4.4.2-64Bit/optiga-trust-m/externals/mbedtls/library\ecp.c ****     /* N is always odd (see above), just make extra sure */
1871:C:/Workspace/DAVE-4.4.2-64Bit/optiga-trust-m/externals/mbedtls/library\ecp.c ****     if( mbedtls_mpi_get_bit( &grp->N, 0 ) != 1 )
1872:C:/Workspace/DAVE-4.4.2-64Bit/optiga-trust-m/externals/mbedtls/library\ecp.c ****         return( MBEDTLS_ERR_ECP_BAD_INPUT_DATA );
1873:C:/Workspace/DAVE-4.4.2-64Bit/optiga-trust-m/externals/mbedtls/library\ecp.c **** 
1874:C:/Workspace/DAVE-4.4.2-64Bit/optiga-trust-m/externals/mbedtls/library\ecp.c ****     /* do we need the parity trick? */
1875:C:/Workspace/DAVE-4.4.2-64Bit/optiga-trust-m/externals/mbedtls/library\ecp.c ****     *parity_trick = ( mbedtls_mpi_get_bit( m, 0 ) == 0 );
1876:C:/Workspace/DAVE-4.4.2-64Bit/optiga-trust-m/externals/mbedtls/library\ecp.c **** 
1877:C:/Workspace/DAVE-4.4.2-64Bit/optiga-trust-m/externals/mbedtls/library\ecp.c ****     /* execute parity fix in constant time */
1878:C:/Workspace/DAVE-4.4.2-64Bit/optiga-trust-m/externals/mbedtls/library\ecp.c ****     MBEDTLS_MPI_CHK( mbedtls_mpi_copy( &M, m ) );
1879:C:/Workspace/DAVE-4.4.2-64Bit/optiga-trust-m/externals/mbedtls/library\ecp.c ****     MBEDTLS_MPI_CHK( mbedtls_mpi_sub_mpi( &mm, &grp->N, m ) );
1880:C:/Workspace/DAVE-4.4.2-64Bit/optiga-trust-m/externals/mbedtls/library\ecp.c ****     MBEDTLS_MPI_CHK( mbedtls_mpi_safe_cond_assign( &M, &mm, *parity_trick ) );
1881:C:/Workspace/DAVE-4.4.2-64Bit/optiga-trust-m/externals/mbedtls/library\ecp.c **** 
1882:C:/Workspace/DAVE-4.4.2-64Bit/optiga-trust-m/externals/mbedtls/library\ecp.c ****     /* actual scalar recoding */
1883:C:/Workspace/DAVE-4.4.2-64Bit/optiga-trust-m/externals/mbedtls/library\ecp.c ****     ecp_comb_recode_core( k, d, w, &M );
1884:C:/Workspace/DAVE-4.4.2-64Bit/optiga-trust-m/externals/mbedtls/library\ecp.c **** 
1885:C:/Workspace/DAVE-4.4.2-64Bit/optiga-trust-m/externals/mbedtls/library\ecp.c **** cleanup:
1886:C:/Workspace/DAVE-4.4.2-64Bit/optiga-trust-m/externals/mbedtls/library\ecp.c ****     mbedtls_mpi_free( &mm );
1887:C:/Workspace/DAVE-4.4.2-64Bit/optiga-trust-m/externals/mbedtls/library\ecp.c ****     mbedtls_mpi_free( &M );
1888:C:/Workspace/DAVE-4.4.2-64Bit/optiga-trust-m/externals/mbedtls/library\ecp.c **** 
1889:C:/Workspace/DAVE-4.4.2-64Bit/optiga-trust-m/externals/mbedtls/library\ecp.c ****     return( ret );
1890:C:/Workspace/DAVE-4.4.2-64Bit/optiga-trust-m/externals/mbedtls/library\ecp.c **** }
1891:C:/Workspace/DAVE-4.4.2-64Bit/optiga-trust-m/externals/mbedtls/library\ecp.c **** 
1892:C:/Workspace/DAVE-4.4.2-64Bit/optiga-trust-m/externals/mbedtls/library\ecp.c **** /*
1893:C:/Workspace/DAVE-4.4.2-64Bit/optiga-trust-m/externals/mbedtls/library\ecp.c ****  * Perform comb multiplication (for short Weierstrass curves)
1894:C:/Workspace/DAVE-4.4.2-64Bit/optiga-trust-m/externals/mbedtls/library\ecp.c ****  * once the auxiliary table has been pre-computed.
1895:C:/Workspace/DAVE-4.4.2-64Bit/optiga-trust-m/externals/mbedtls/library\ecp.c ****  *
1896:C:/Workspace/DAVE-4.4.2-64Bit/optiga-trust-m/externals/mbedtls/library\ecp.c ****  * Scalar recoding may use a parity trick that makes us compute -m * P,
1897:C:/Workspace/DAVE-4.4.2-64Bit/optiga-trust-m/externals/mbedtls/library\ecp.c ****  * if that is the case we'll need to recover m * P at the end.
1898:C:/Workspace/DAVE-4.4.2-64Bit/optiga-trust-m/externals/mbedtls/library\ecp.c ****  */
1899:C:/Workspace/DAVE-4.4.2-64Bit/optiga-trust-m/externals/mbedtls/library\ecp.c **** static int ecp_mul_comb_after_precomp( const mbedtls_ecp_group *grp,
 3110              	 .loc 1 1899 0
 3111              	 .cfi_startproc
 3112              	.LVL590:
 3113 0000 F0B5     	 push {r4,r5,r6,r7,lr}
 3114              	.LCFI23:
 3115              	 .cfi_def_cfa_offset 20
 3116              	 .cfi_offset 4,-20
 3117              	 .cfi_offset 5,-16
 3118              	 .cfi_offset 6,-12
 3119              	 .cfi_offset 7,-8
 3120              	 .cfi_offset 14,-4
 3121 0002 071C     	 mov r7,r0
 3122              	.LBB32:
 3123              	.LBB33:
1871:C:/Workspace/DAVE-4.4.2-64Bit/optiga-trust-m/externals/mbedtls/library\ecp.c ****         return( MBEDTLS_ERR_ECP_BAD_INPUT_DATA );
 3124              	 .loc 1 1871 0
 3125 0004 3E1C     	 mov r6,r7
 3126              	.LBE33:
 3127              	.LBE32:
 3128              	 .loc 1 1899 0
 3129 0006 DBB0     	 sub sp,sp,#364
 3130              	.LCFI24:
 3131              	 .cfi_def_cfa_offset 384
 3132              	.LVL591:
 3133              	 .loc 1 1899 0
 3134 0008 0593     	 str r3,[sp,#20]
 3135 000a 60AB     	 add r3,sp,#384
 3136              	.LVL592:
 3137 000c 1B78     	 ldrb r3,[r3]
 3138              	.LVL593:
 3139              	.LBB39:
 3140              	.LBB36:
1867:C:/Workspace/DAVE-4.4.2-64Bit/optiga-trust-m/externals/mbedtls/library\ecp.c ****     mbedtls_mpi_init( &mm );
 3141              	 .loc 1 1867 0
 3142 000e 0CA8     	 add r0,sp,#48
 3143              	.LVL594:
 3144              	.LBE36:
 3145              	.LBE39:
 3146              	 .loc 1 1899 0
 3147 0010 0693     	 str r3,[sp,#24]
 3148 0012 61AB     	 add r3,sp,#388
 3149              	.LVL595:
 3150 0014 1B78     	 ldrb r3,[r3]
 3151              	.LVL596:
 3152 0016 0291     	 str r1,[sp,#8]
 3153              	.LVL597:
 3154 0018 151C     	 mov r5,r2
 3155              	.LVL598:
 3156 001a 0793     	 str r3,[sp,#28]
 3157              	.LVL599:
 3158              	.LBB40:
 3159              	.LBB37:
1871:C:/Workspace/DAVE-4.4.2-64Bit/optiga-trust-m/externals/mbedtls/library\ecp.c ****         return( MBEDTLS_ERR_ECP_BAD_INPUT_DATA );
 3160              	 .loc 1 1871 0
 3161 001c 4C36     	 add r6,r6,#76
 3162              	.LVL600:
1867:C:/Workspace/DAVE-4.4.2-64Bit/optiga-trust-m/externals/mbedtls/library\ecp.c ****     mbedtls_mpi_init( &mm );
 3163              	 .loc 1 1867 0
 3164 001e FFF7FEFF 	 bl mbedtls_mpi_init
 3165              	.LVL601:
1868:C:/Workspace/DAVE-4.4.2-64Bit/optiga-trust-m/externals/mbedtls/library\ecp.c **** 
 3166              	 .loc 1 1868 0
 3167 0022 0FA8     	 add r0,sp,#60
 3168 0024 FFF7FEFF 	 bl mbedtls_mpi_init
 3169              	.LVL602:
1871:C:/Workspace/DAVE-4.4.2-64Bit/optiga-trust-m/externals/mbedtls/library\ecp.c ****         return( MBEDTLS_ERR_ECP_BAD_INPUT_DATA );
 3170              	 .loc 1 1871 0
 3171 0028 301C     	 mov r0,r6
 3172 002a 0021     	 mov r1,#0
 3173 002c FFF7FEFF 	 bl mbedtls_mpi_get_bit
 3174              	.LVL603:
 3175 0030 0128     	 cmp r0,#1
 3176 0032 6DD1     	 bne .L297
1875:C:/Workspace/DAVE-4.4.2-64Bit/optiga-trust-m/externals/mbedtls/library\ecp.c **** 
 3177              	 .loc 1 1875 0
 3178 0034 0021     	 mov r1,#0
 3179 0036 281C     	 mov r0,r5
 3180 0038 FFF7FEFF 	 bl mbedtls_mpi_get_bit
 3181              	.LVL604:
 3182 003c 031C     	 mov r3,r0
 3183 003e 5842     	 neg r0,r3
 3184 0040 5841     	 adc r0,r0,r3
1878:C:/Workspace/DAVE-4.4.2-64Bit/optiga-trust-m/externals/mbedtls/library\ecp.c ****     MBEDTLS_MPI_CHK( mbedtls_mpi_sub_mpi( &mm, &grp->N, m ) );
 3185              	 .loc 1 1878 0
 3186 0042 291C     	 mov r1,r5
1875:C:/Workspace/DAVE-4.4.2-64Bit/optiga-trust-m/externals/mbedtls/library\ecp.c **** 
 3187              	 .loc 1 1875 0
 3188 0044 C3B2     	 uxtb r3,r0
1878:C:/Workspace/DAVE-4.4.2-64Bit/optiga-trust-m/externals/mbedtls/library\ecp.c ****     MBEDTLS_MPI_CHK( mbedtls_mpi_sub_mpi( &mm, &grp->N, m ) );
 3189              	 .loc 1 1878 0
 3190 0046 0CA8     	 add r0,sp,#48
1875:C:/Workspace/DAVE-4.4.2-64Bit/optiga-trust-m/externals/mbedtls/library\ecp.c **** 
 3191              	 .loc 1 1875 0
 3192 0048 0493     	 str r3,[sp,#16]
 3193              	.LVL605:
1878:C:/Workspace/DAVE-4.4.2-64Bit/optiga-trust-m/externals/mbedtls/library\ecp.c ****     MBEDTLS_MPI_CHK( mbedtls_mpi_sub_mpi( &mm, &grp->N, m ) );
 3194              	 .loc 1 1878 0
 3195 004a FFF7FEFF 	 bl mbedtls_mpi_copy
 3196              	.LVL606:
 3197 004e 041E     	 sub r4,r0,#0
 3198              	.LVL607:
 3199 0050 54D1     	 bne .L280
1879:C:/Workspace/DAVE-4.4.2-64Bit/optiga-trust-m/externals/mbedtls/library\ecp.c ****     MBEDTLS_MPI_CHK( mbedtls_mpi_safe_cond_assign( &M, &mm, *parity_trick ) );
 3200              	 .loc 1 1879 0
 3201 0052 0FA8     	 add r0,sp,#60
 3202              	.LVL608:
 3203 0054 311C     	 mov r1,r6
 3204 0056 2A1C     	 mov r2,r5
 3205 0058 FFF7FEFF 	 bl mbedtls_mpi_sub_mpi
 3206              	.LVL609:
 3207 005c 041E     	 sub r4,r0,#0
 3208              	.LVL610:
 3209 005e 4DD1     	 bne .L280
1880:C:/Workspace/DAVE-4.4.2-64Bit/optiga-trust-m/externals/mbedtls/library\ecp.c **** 
 3210              	 .loc 1 1880 0
 3211 0060 0CA8     	 add r0,sp,#48
 3212              	.LVL611:
 3213 0062 0FA9     	 add r1,sp,#60
 3214 0064 049A     	 ldr r2,[sp,#16]
 3215 0066 FFF7FEFF 	 bl mbedtls_mpi_safe_cond_assign
 3216              	.LVL612:
 3217 006a 041E     	 sub r4,r0,#0
 3218              	.LVL613:
 3219 006c 46D1     	 bne .L280
 3220              	.LVL614:
 3221              	.LBB34:
 3222              	.LBB35:
1552:C:/Workspace/DAVE-4.4.2-64Bit/optiga-trust-m/externals/mbedtls/library\ecp.c **** 
 3223              	 .loc 1 1552 0
 3224 006e 629B     	 ldr r3,[sp,#392]
 3225 0070 18A8     	 add r0,sp,#96
 3226              	.LVL615:
 3227 0072 5A1C     	 add r2,r3,#1
 3228 0074 211C     	 mov r1,r4
 3229 0076 FFF7FEFF 	 bl memset
 3230              	.LVL616:
1555:C:/Workspace/DAVE-4.4.2-64Bit/optiga-trust-m/externals/mbedtls/library\ecp.c ****         for( j = 0; j < w; j++ )
 3231              	 .loc 1 1555 0
 3232 007a 251C     	 mov r5,r4
 3233              	.LVL617:
 3234              	.L281:
 3235 007c 629B     	 ldr r3,[sp,#392]
 3236 007e 9D42     	 cmp r5,r3
 3237 0080 03D1     	 bne .L283
 3238 0082 0023     	 mov r3,#0
 3239 0084 18AA     	 add r2,sp,#96
 3240              	.LVL618:
 3241 0086 9C46     	 mov ip,r3
 3242 0088 16E0     	 b .L284
 3243              	.LVL619:
 3244              	.L283:
 3245 008a 0026     	 mov r6,#0
 3246 008c 0395     	 str r5,[sp,#12]
 3247              	.L285:
 3248              	.LVL620:
1556:C:/Workspace/DAVE-4.4.2-64Bit/optiga-trust-m/externals/mbedtls/library\ecp.c ****             x[i] |= mbedtls_mpi_get_bit( m, i + d * j ) << j;
 3249              	 .loc 1 1556 0
 3250 008e 079B     	 ldr r3,[sp,#28]
 3251 0090 9E42     	 cmp r6,r3
 3252 0092 0FD2     	 bcs .L308
1557:C:/Workspace/DAVE-4.4.2-64Bit/optiga-trust-m/externals/mbedtls/library\ecp.c **** 
 3253              	 .loc 1 1557 0
 3254 0094 0CA8     	 add r0,sp,#48
 3255              	.LVL621:
 3256 0096 0399     	 ldr r1,[sp,#12]
 3257 0098 FFF7FEFF 	 bl mbedtls_mpi_get_bit
 3258              	.LVL622:
 3259 009c B040     	 lsl r0,r0,r6
 3260 009e 18AA     	 add r2,sp,#96
 3261              	.LVL623:
 3262 00a0 AB5C     	 ldrb r3,[r5,r2]
1556:C:/Workspace/DAVE-4.4.2-64Bit/optiga-trust-m/externals/mbedtls/library\ecp.c ****             x[i] |= mbedtls_mpi_get_bit( m, i + d * j ) << j;
 3263              	 .loc 1 1556 0
 3264 00a2 0136     	 add r6,r6,#1
 3265              	.LVL624:
1557:C:/Workspace/DAVE-4.4.2-64Bit/optiga-trust-m/externals/mbedtls/library\ecp.c **** 
 3266              	 .loc 1 1557 0
 3267 00a4 1843     	 orr r0,r3
 3268 00a6 A854     	 strb r0,[r5,r2]
 3269 00a8 629A     	 ldr r2,[sp,#392]
 3270              	.LVL625:
 3271 00aa 039B     	 ldr r3,[sp,#12]
 3272 00ac 9446     	 mov ip,r2
 3273 00ae 6344     	 add r3,r3,ip
 3274 00b0 0393     	 str r3,[sp,#12]
 3275 00b2 ECE7     	 b .L285
 3276              	.L308:
1555:C:/Workspace/DAVE-4.4.2-64Bit/optiga-trust-m/externals/mbedtls/library\ecp.c ****         for( j = 0; j < w; j++ )
 3277              	 .loc 1 1555 0
 3278 00b4 0135     	 add r5,r5,#1
 3279              	.LVL626:
 3280 00b6 E1E7     	 b .L281
 3281              	.LVL627:
 3282              	.L284:
 3283 00b8 0123     	 mov r3,#1
 3284 00ba 18A9     	 add r1,sp,#96
 3285              	.LVL628:
 3286 00bc 591A     	 sub r1,r3,r1
 3287              	.LVL629:
1561:C:/Workspace/DAVE-4.4.2-64Bit/optiga-trust-m/externals/mbedtls/library\ecp.c ****     {
 3288              	 .loc 1 1561 0
 3289 00be 6298     	 ldr r0,[sp,#392]
 3290 00c0 8918     	 add r1,r1,r2
 3291 00c2 8142     	 cmp r1,r0
 3292 00c4 1AD8     	 bhi .L280
1570:C:/Workspace/DAVE-4.4.2-64Bit/optiga-trust-m/externals/mbedtls/library\ecp.c ****         x[i] = x[i] ^ ( x[i-1] * adjust );
 3293              	 .loc 1 1570 0
 3294 00c6 1678     	 ldrb r6,[r2]
1565:C:/Workspace/DAVE-4.4.2-64Bit/optiga-trust-m/externals/mbedtls/library\ecp.c ****         c = cc;
 3295              	 .loc 1 1565 0
 3296 00c8 6146     	 mov r1,ip
1570:C:/Workspace/DAVE-4.4.2-64Bit/optiga-trust-m/externals/mbedtls/library\ecp.c ****         x[i] = x[i] ^ ( x[i-1] * adjust );
 3297              	 .loc 1 1570 0
 3298 00ca 301C     	 mov r0,r6
1564:C:/Workspace/DAVE-4.4.2-64Bit/optiga-trust-m/externals/mbedtls/library\ecp.c ****         x[i] = x[i] ^ c;
 3299              	 .loc 1 1564 0
 3300 00cc 5578     	 ldrb r5,[r2,#1]
 3301              	.LVL630:
1565:C:/Workspace/DAVE-4.4.2-64Bit/optiga-trust-m/externals/mbedtls/library\ecp.c ****         c = cc;
 3302              	 .loc 1 1565 0
 3303 00ce 6940     	 eor r1,r5
 3304              	.LVL631:
 3305 00d0 8B43     	 bic r3,r1
1570:C:/Workspace/DAVE-4.4.2-64Bit/optiga-trust-m/externals/mbedtls/library\ecp.c ****         x[i] = x[i] ^ ( x[i-1] * adjust );
 3306              	 .loc 1 1570 0
 3307 00d2 C9B2     	 uxtb r1,r1
 3308 00d4 0393     	 str r3,[sp,#12]
 3309              	.LVL632:
 3310 00d6 5843     	 mul r0,r3
 3311 00d8 0B1C     	 mov r3,r1
 3312 00da C0B2     	 uxtb r0,r0
 3313 00dc 0340     	 and r3,r0
 3314 00de 0793     	 str r3,[sp,#28]
1564:C:/Workspace/DAVE-4.4.2-64Bit/optiga-trust-m/externals/mbedtls/library\ecp.c ****         x[i] = x[i] ^ c;
 3315              	 .loc 1 1564 0
 3316 00e0 6346     	 mov r3,ip
 3317 00e2 2B40     	 and r3,r5
 3318 00e4 1D1C     	 mov r5,r3
 3319              	.LVL633:
1570:C:/Workspace/DAVE-4.4.2-64Bit/optiga-trust-m/externals/mbedtls/library\ecp.c ****         x[i] = x[i] ^ ( x[i-1] * adjust );
 3320              	 .loc 1 1570 0
 3321 00e6 079B     	 ldr r3,[sp,#28]
1571:C:/Workspace/DAVE-4.4.2-64Bit/optiga-trust-m/externals/mbedtls/library\ecp.c ****         x[i-1] |= adjust << 7;
 3322              	 .loc 1 1571 0
 3323 00e8 4140     	 eor r1,r0
1570:C:/Workspace/DAVE-4.4.2-64Bit/optiga-trust-m/externals/mbedtls/library\ecp.c ****         x[i] = x[i] ^ ( x[i-1] * adjust );
 3324              	 .loc 1 1570 0
 3325 00ea 2B43     	 orr r3,r5
 3326 00ec 9C46     	 mov ip,r3
 3327              	.LVL634:
1572:C:/Workspace/DAVE-4.4.2-64Bit/optiga-trust-m/externals/mbedtls/library\ecp.c ****     }
 3328              	 .loc 1 1572 0
 3329 00ee 039B     	 ldr r3,[sp,#12]
1571:C:/Workspace/DAVE-4.4.2-64Bit/optiga-trust-m/externals/mbedtls/library\ecp.c ****         x[i-1] |= adjust << 7;
 3330              	 .loc 1 1571 0
 3331 00f0 5170     	 strb r1,[r2,#1]
1572:C:/Workspace/DAVE-4.4.2-64Bit/optiga-trust-m/externals/mbedtls/library\ecp.c ****     }
 3332              	 .loc 1 1572 0
 3333 00f2 DB01     	 lsl r3,r3,#7
 3334 00f4 1E43     	 orr r6,r3
 3335 00f6 1670     	 strb r6,[r2]
 3336              	.LVL635:
 3337 00f8 0132     	 add r2,r2,#1
 3338              	.LVL636:
 3339 00fa DDE7     	 b .L284
 3340              	.LVL637:
 3341              	.L280:
 3342              	.LBE35:
 3343              	.LBE34:
1886:C:/Workspace/DAVE-4.4.2-64Bit/optiga-trust-m/externals/mbedtls/library\ecp.c ****     mbedtls_mpi_free( &M );
 3344              	 .loc 1 1886 0
 3345 00fc 0FA8     	 add r0,sp,#60
 3346 00fe FFF7FEFF 	 bl mbedtls_mpi_free
 3347              	.LVL638:
1887:C:/Workspace/DAVE-4.4.2-64Bit/optiga-trust-m/externals/mbedtls/library\ecp.c **** 
 3348              	 .loc 1 1887 0
 3349 0102 0CA8     	 add r0,sp,#48
 3350 0104 FFF7FEFF 	 bl mbedtls_mpi_free
 3351              	.LVL639:
 3352              	.LBE37:
 3353              	.LBE40:
1900:C:/Workspace/DAVE-4.4.2-64Bit/optiga-trust-m/externals/mbedtls/library\ecp.c ****                                 mbedtls_ecp_point *R,
1901:C:/Workspace/DAVE-4.4.2-64Bit/optiga-trust-m/externals/mbedtls/library\ecp.c ****                                 const mbedtls_mpi *m,
1902:C:/Workspace/DAVE-4.4.2-64Bit/optiga-trust-m/externals/mbedtls/library\ecp.c ****                                 const mbedtls_ecp_point *T,
1903:C:/Workspace/DAVE-4.4.2-64Bit/optiga-trust-m/externals/mbedtls/library\ecp.c ****                                 unsigned char T_size,
1904:C:/Workspace/DAVE-4.4.2-64Bit/optiga-trust-m/externals/mbedtls/library\ecp.c ****                                 unsigned char w,
1905:C:/Workspace/DAVE-4.4.2-64Bit/optiga-trust-m/externals/mbedtls/library\ecp.c ****                                 size_t d,
1906:C:/Workspace/DAVE-4.4.2-64Bit/optiga-trust-m/externals/mbedtls/library\ecp.c ****                                 int (*f_rng)(void *, unsigned char *, size_t),
1907:C:/Workspace/DAVE-4.4.2-64Bit/optiga-trust-m/externals/mbedtls/library\ecp.c ****                                 void *p_rng,
1908:C:/Workspace/DAVE-4.4.2-64Bit/optiga-trust-m/externals/mbedtls/library\ecp.c ****                                 mbedtls_ecp_restart_ctx *rs_ctx )
1909:C:/Workspace/DAVE-4.4.2-64Bit/optiga-trust-m/externals/mbedtls/library\ecp.c **** {
1910:C:/Workspace/DAVE-4.4.2-64Bit/optiga-trust-m/externals/mbedtls/library\ecp.c ****     int ret;
1911:C:/Workspace/DAVE-4.4.2-64Bit/optiga-trust-m/externals/mbedtls/library\ecp.c ****     unsigned char parity_trick;
1912:C:/Workspace/DAVE-4.4.2-64Bit/optiga-trust-m/externals/mbedtls/library\ecp.c ****     unsigned char k[COMB_MAX_D + 1];
1913:C:/Workspace/DAVE-4.4.2-64Bit/optiga-trust-m/externals/mbedtls/library\ecp.c ****     mbedtls_ecp_point *RR = R;
1914:C:/Workspace/DAVE-4.4.2-64Bit/optiga-trust-m/externals/mbedtls/library\ecp.c **** 
1915:C:/Workspace/DAVE-4.4.2-64Bit/optiga-trust-m/externals/mbedtls/library\ecp.c **** #if defined(MBEDTLS_ECP_RESTARTABLE)
1916:C:/Workspace/DAVE-4.4.2-64Bit/optiga-trust-m/externals/mbedtls/library\ecp.c ****     if( rs_ctx != NULL && rs_ctx->rsm != NULL )
1917:C:/Workspace/DAVE-4.4.2-64Bit/optiga-trust-m/externals/mbedtls/library\ecp.c ****     {
1918:C:/Workspace/DAVE-4.4.2-64Bit/optiga-trust-m/externals/mbedtls/library\ecp.c ****         RR = &rs_ctx->rsm->R;
1919:C:/Workspace/DAVE-4.4.2-64Bit/optiga-trust-m/externals/mbedtls/library\ecp.c **** 
1920:C:/Workspace/DAVE-4.4.2-64Bit/optiga-trust-m/externals/mbedtls/library\ecp.c ****         if( rs_ctx->rsm->state == ecp_rsm_final_norm )
1921:C:/Workspace/DAVE-4.4.2-64Bit/optiga-trust-m/externals/mbedtls/library\ecp.c ****             goto final_norm;
1922:C:/Workspace/DAVE-4.4.2-64Bit/optiga-trust-m/externals/mbedtls/library\ecp.c ****     }
1923:C:/Workspace/DAVE-4.4.2-64Bit/optiga-trust-m/externals/mbedtls/library\ecp.c **** #endif
1924:C:/Workspace/DAVE-4.4.2-64Bit/optiga-trust-m/externals/mbedtls/library\ecp.c **** 
1925:C:/Workspace/DAVE-4.4.2-64Bit/optiga-trust-m/externals/mbedtls/library\ecp.c ****     MBEDTLS_MPI_CHK( ecp_comb_recode_scalar( grp, m, k, d, w,
 3354              	 .loc 1 1925 0
 3355 0108 002C     	 cmp r4,#0
 3356 010a 00D0     	 beq .LCB3537
 3357 010c CFE0     	 b .L287
 3358              	.LCB3537:
 3359 010e 01E0     	 b .L309
 3360              	.LVL640:
 3361              	.L297:
 3362              	.LBB41:
 3363              	.LBB38:
1872:C:/Workspace/DAVE-4.4.2-64Bit/optiga-trust-m/externals/mbedtls/library\ecp.c **** 
 3364              	 .loc 1 1872 0
 3365 0110 684C     	 ldr r4,.L311
 3366 0112 CCE0     	 b .L287
 3367              	.LVL641:
 3368              	.L309:
 3369              	.LBE38:
 3370              	.LBE41:
 3371              	.LBB42:
 3372              	.LBB43:
1788:C:/Workspace/DAVE-4.4.2-64Bit/optiga-trust-m/externals/mbedtls/library\ecp.c **** 
 3373              	 .loc 1 1788 0
 3374 0114 0FA8     	 add r0,sp,#60
 3375 0116 FFF7FEFF 	 bl mbedtls_ecp_point_init
 3376              	.LVL642:
1813:C:/Workspace/DAVE-4.4.2-64Bit/optiga-trust-m/externals/mbedtls/library\ecp.c ****         MBEDTLS_MPI_CHK( mbedtls_mpi_lset( &R->Z, 1 ) );
 3377              	 .loc 1 1813 0
 3378 011a 629A     	 ldr r2,[sp,#392]
 3379 011c 5AAB     	 add r3,sp,#360
 3380 011e 9B18     	 add r3,r3,r2
 3381 0120 093B     	 sub r3,r3,#9
 3382 0122 FF3B     	 sub r3,r3,#255
 3383 0124 1B78     	 ldrb r3,[r3]
 3384 0126 381C     	 mov r0,r7
 3385 0128 0093     	 str r3,[sp]
 3386 012a 0299     	 ldr r1,[sp,#8]
 3387 012c 059A     	 ldr r2,[sp,#20]
 3388 012e 069B     	 ldr r3,[sp,#24]
 3389 0130 FFF7FEFF 	 bl ecp_select_comb
 3390              	.LVL643:
 3391 0134 041E     	 sub r4,r0,#0
 3392              	.LVL644:
 3393 0136 00D0     	 beq .LCB3592
 3394 0138 A8E0     	 b .L288
 3395              	.LCB3592:
1814:C:/Workspace/DAVE-4.4.2-64Bit/optiga-trust-m/externals/mbedtls/library\ecp.c ****         if( f_rng != 0 )
 3396              	 .loc 1 1814 0
 3397 013a 029E     	 ldr r6,[sp,#8]
 3398 013c 0121     	 mov r1,#1
 3399 013e 1836     	 add r6,r6,#24
 3400 0140 301C     	 mov r0,r6
 3401              	.LVL645:
 3402 0142 FFF7FEFF 	 bl mbedtls_mpi_lset
 3403              	.LVL646:
 3404 0146 041E     	 sub r4,r0,#0
 3405              	.LVL647:
 3406 0148 00D0     	 beq .LCB3604
 3407 014a 9FE0     	 b .L288
 3408              	.LCB3604:
1815:C:/Workspace/DAVE-4.4.2-64Bit/optiga-trust-m/externals/mbedtls/library\ecp.c ****             MBEDTLS_MPI_CHK( ecp_randomize_jac( grp, R, f_rng, p_rng ) );
 3409              	 .loc 1 1815 0
 3410 014c 639B     	 ldr r3,[sp,#396]
 3411 014e 002B     	 cmp r3,#0
 3412 0150 00D1     	 bne .LCB3607
 3413 0152 94E0     	 b .L295
 3414              	.LCB3607:
 3415              	.LVL648:
 3416              	.LBB44:
 3417              	.LBB45:
1453:C:/Workspace/DAVE-4.4.2-64Bit/optiga-trust-m/externals/mbedtls/library\ecp.c ****     mbedtls_mpi_init( &l ); mbedtls_mpi_init( &ll );
 3418              	 .loc 1 1453 0
 3419 0154 BB6D     	 ldr r3,[r7,#88]
 3420              	.LVL649:
1454:C:/Workspace/DAVE-4.4.2-64Bit/optiga-trust-m/externals/mbedtls/library\ecp.c **** 
 3421              	 .loc 1 1454 0
 3422 0156 09A8     	 add r0,sp,#36
 3423              	.LVL650:
1453:C:/Workspace/DAVE-4.4.2-64Bit/optiga-trust-m/externals/mbedtls/library\ecp.c ****     mbedtls_mpi_init( &l ); mbedtls_mpi_init( &ll );
 3424              	 .loc 1 1453 0
 3425 0158 0733     	 add r3,r3,#7
 3426 015a DB08     	 lsr r3,r3,#3
 3427 015c 0793     	 str r3,[sp,#28]
 3428              	.LVL651:
1454:C:/Workspace/DAVE-4.4.2-64Bit/optiga-trust-m/externals/mbedtls/library\ecp.c **** 
 3429              	 .loc 1 1454 0
 3430 015e FFF7FEFF 	 bl mbedtls_mpi_init
 3431              	.LVL652:
 3432 0162 0CA8     	 add r0,sp,#48
 3433 0164 FFF7FEFF 	 bl mbedtls_mpi_init
 3434              	.LVL653:
 3435 0168 0C23     	 mov r3,#12
 3436 016a 0393     	 str r3,[sp,#12]
 3437              	.LVL654:
 3438              	.L294:
1459:C:/Workspace/DAVE-4.4.2-64Bit/optiga-trust-m/externals/mbedtls/library\ecp.c **** 
 3439              	 .loc 1 1459 0
 3440 016c 09A8     	 add r0,sp,#36
 3441 016e 0799     	 ldr r1,[sp,#28]
 3442 0170 639A     	 ldr r2,[sp,#396]
 3443 0172 649B     	 ldr r3,[sp,#400]
 3444 0174 FFF7FEFF 	 bl mbedtls_mpi_fill_random
 3445              	.LVL655:
 3446              	.L307:
1462:C:/Workspace/DAVE-4.4.2-64Bit/optiga-trust-m/externals/mbedtls/library\ecp.c **** 
 3447              	 .loc 1 1462 0
 3448 0178 051E     	 sub r5,r0,#0
 3449              	.LVL656:
 3450 017a 57D1     	 bne .L290
1461:C:/Workspace/DAVE-4.4.2-64Bit/optiga-trust-m/externals/mbedtls/library\ecp.c ****             MBEDTLS_MPI_CHK( mbedtls_mpi_shift_r( &l, 1 ) );
 3451              	 .loc 1 1461 0
 3452 017c 391D     	 add r1,r7,#4
 3453 017e 09A8     	 add r0,sp,#36
 3454              	.LVL657:
 3455 0180 FFF7FEFF 	 bl mbedtls_mpi_cmp_mpi
 3456              	.LVL658:
 3457 0184 0028     	 cmp r0,#0
 3458 0186 04DB     	 blt .L310
1462:C:/Workspace/DAVE-4.4.2-64Bit/optiga-trust-m/externals/mbedtls/library\ecp.c **** 
 3459              	 .loc 1 1462 0
 3460 0188 09A8     	 add r0,sp,#36
 3461 018a 0121     	 mov r1,#1
 3462 018c FFF7FEFF 	 bl mbedtls_mpi_shift_r
 3463              	.LVL659:
 3464 0190 F2E7     	 b .L307
 3465              	.L310:
 3466              	.LVL660:
 3467 0192 039B     	 ldr r3,[sp,#12]
 3468 0194 013B     	 sub r3,r3,#1
 3469 0196 0393     	 str r3,[sp,#12]
 3470              	.LVL661:
1464:C:/Workspace/DAVE-4.4.2-64Bit/optiga-trust-m/externals/mbedtls/library\ecp.c ****             return( MBEDTLS_ERR_ECP_RANDOM_FAILED );
 3471              	 .loc 1 1464 0
 3472 0198 002B     	 cmp r3,#0
 3473 019a 50D0     	 beq .L298
1467:C:/Workspace/DAVE-4.4.2-64Bit/optiga-trust-m/externals/mbedtls/library\ecp.c **** 
 3474              	 .loc 1 1467 0
 3475 019c 09A8     	 add r0,sp,#36
 3476 019e 0121     	 mov r1,#1
 3477 01a0 FFF7FEFF 	 bl mbedtls_mpi_cmp_int
 3478              	.LVL662:
 3479 01a4 0028     	 cmp r0,#0
 3480 01a6 E1DD     	 ble .L294
1470:C:/Workspace/DAVE-4.4.2-64Bit/optiga-trust-m/externals/mbedtls/library\ecp.c **** 
 3481              	 .loc 1 1470 0
 3482 01a8 301C     	 mov r0,r6
 3483 01aa 311C     	 mov r1,r6
 3484 01ac 09AA     	 add r2,sp,#36
 3485 01ae FFF7FEFF 	 bl mbedtls_mpi_mul_mpi
 3486              	.LVL663:
 3487 01b2 051E     	 sub r5,r0,#0
 3488              	.LVL664:
 3489 01b4 3AD1     	 bne .L290
 3490 01b6 301C     	 mov r0,r6
 3491              	.LVL665:
 3492 01b8 391C     	 mov r1,r7
 3493 01ba FFF7FEFF 	 bl ecp_modp
 3494              	.LVL666:
 3495 01be 051E     	 sub r5,r0,#0
 3496              	.LVL667:
 3497 01c0 34D1     	 bne .L290
1473:C:/Workspace/DAVE-4.4.2-64Bit/optiga-trust-m/externals/mbedtls/library\ecp.c ****     MBEDTLS_MPI_CHK( mbedtls_mpi_mul_mpi( &pt->X,   &pt->X,     &ll ) ); MOD_MUL( pt->X );
 3498              	 .loc 1 1473 0
 3499 01c2 09A9     	 add r1,sp,#36
 3500 01c4 0CA8     	 add r0,sp,#48
 3501              	.LVL668:
 3502 01c6 0A1C     	 mov r2,r1
 3503 01c8 FFF7FEFF 	 bl mbedtls_mpi_mul_mpi
 3504              	.LVL669:
 3505 01cc 051E     	 sub r5,r0,#0
 3506              	.LVL670:
 3507 01ce 2DD1     	 bne .L290
 3508 01d0 0CA8     	 add r0,sp,#48
 3509              	.LVL671:
 3510 01d2 391C     	 mov r1,r7
 3511 01d4 FFF7FEFF 	 bl ecp_modp
 3512              	.LVL672:
 3513 01d8 051E     	 sub r5,r0,#0
 3514              	.LVL673:
 3515 01da 27D1     	 bne .L290
1474:C:/Workspace/DAVE-4.4.2-64Bit/optiga-trust-m/externals/mbedtls/library\ecp.c **** 
 3516              	 .loc 1 1474 0
 3517 01dc 0298     	 ldr r0,[sp,#8]
 3518              	.LVL674:
 3519 01de 0CAA     	 add r2,sp,#48
 3520 01e0 011C     	 mov r1,r0
 3521 01e2 FFF7FEFF 	 bl mbedtls_mpi_mul_mpi
 3522              	.LVL675:
 3523 01e6 051E     	 sub r5,r0,#0
 3524              	.LVL676:
 3525 01e8 20D1     	 bne .L290
 3526 01ea 0298     	 ldr r0,[sp,#8]
 3527              	.LVL677:
 3528 01ec 391C     	 mov r1,r7
 3529 01ee FFF7FEFF 	 bl ecp_modp
 3530              	.LVL678:
 3531 01f2 051E     	 sub r5,r0,#0
 3532              	.LVL679:
 3533 01f4 1AD1     	 bne .L290
1477:C:/Workspace/DAVE-4.4.2-64Bit/optiga-trust-m/externals/mbedtls/library\ecp.c ****     MBEDTLS_MPI_CHK( mbedtls_mpi_mul_mpi( &pt->Y,   &pt->Y,     &ll ) ); MOD_MUL( pt->Y );
 3534              	 .loc 1 1477 0
 3535 01f6 0CA8     	 add r0,sp,#48
 3536              	.LVL680:
 3537 01f8 011C     	 mov r1,r0
 3538 01fa 09AA     	 add r2,sp,#36
 3539 01fc FFF7FEFF 	 bl mbedtls_mpi_mul_mpi
 3540              	.LVL681:
 3541 0200 051E     	 sub r5,r0,#0
 3542              	.LVL682:
 3543 0202 13D1     	 bne .L290
 3544 0204 0CA8     	 add r0,sp,#48
 3545              	.LVL683:
 3546 0206 391C     	 mov r1,r7
 3547 0208 FFF7FEFF 	 bl ecp_modp
 3548              	.LVL684:
 3549 020c 051E     	 sub r5,r0,#0
 3550              	.LVL685:
 3551 020e 0DD1     	 bne .L290
1478:C:/Workspace/DAVE-4.4.2-64Bit/optiga-trust-m/externals/mbedtls/library\ecp.c **** 
 3552              	 .loc 1 1478 0
 3553 0210 029E     	 ldr r6,[sp,#8]
 3554 0212 0CAA     	 add r2,sp,#48
 3555 0214 0C36     	 add r6,r6,#12
 3556 0216 301C     	 mov r0,r6
 3557              	.LVL686:
 3558 0218 311C     	 mov r1,r6
 3559 021a FFF7FEFF 	 bl mbedtls_mpi_mul_mpi
 3560              	.LVL687:
 3561 021e 051E     	 sub r5,r0,#0
 3562              	.LVL688:
 3563 0220 04D1     	 bne .L290
 3564 0222 301C     	 mov r0,r6
 3565              	.LVL689:
 3566 0224 391C     	 mov r1,r7
 3567 0226 FFF7FEFF 	 bl ecp_modp
 3568              	.LVL690:
 3569 022a 051C     	 mov r5,r0
 3570              	.LVL691:
 3571              	.L290:
1481:C:/Workspace/DAVE-4.4.2-64Bit/optiga-trust-m/externals/mbedtls/library\ecp.c **** 
 3572              	 .loc 1 1481 0
 3573 022c 09A8     	 add r0,sp,#36
 3574              	.LVL692:
 3575 022e FFF7FEFF 	 bl mbedtls_mpi_free
 3576              	.LVL693:
 3577 0232 0CA8     	 add r0,sp,#48
 3578 0234 FFF7FEFF 	 bl mbedtls_mpi_free
 3579              	.LVL694:
 3580              	.LBE45:
 3581              	.LBE44:
1816:C:/Workspace/DAVE-4.4.2-64Bit/optiga-trust-m/externals/mbedtls/library\ecp.c ****     }
 3582              	 .loc 1 1816 0
 3583 0238 002D     	 cmp r5,#0
 3584 023a 20D0     	 beq .L295
 3585 023c 23E0     	 b .L299
 3586              	.LVL695:
 3587              	.L298:
 3588              	.LBB47:
 3589              	.LBB46:
1465:C:/Workspace/DAVE-4.4.2-64Bit/optiga-trust-m/externals/mbedtls/library\ecp.c ****     }
 3590              	 .loc 1 1465 0
 3591 023e 1E4D     	 ldr r5,.L311+4
 3592              	.LVL696:
 3593 0240 21E0     	 b .L299
 3594              	.LVL697:
 3595              	.L296:
 3596              	.LBE46:
 3597              	.LBE47:
1822:C:/Workspace/DAVE-4.4.2-64Bit/optiga-trust-m/externals/mbedtls/library\ecp.c **** 
 3598              	 .loc 1 1822 0
 3599 0242 629B     	 ldr r3,[sp,#392]
 3600              	.LVL698:
1824:C:/Workspace/DAVE-4.4.2-64Bit/optiga-trust-m/externals/mbedtls/library\ecp.c ****         MBEDTLS_MPI_CHK( ecp_select_comb( grp, &Txi, T, T_size, x[i] ) );
 3601              	 .loc 1 1824 0
 3602 0244 0299     	 ldr r1,[sp,#8]
1822:C:/Workspace/DAVE-4.4.2-64Bit/optiga-trust-m/externals/mbedtls/library\ecp.c **** 
 3603              	 .loc 1 1822 0
 3604 0246 013B     	 sub r3,r3,#1
1824:C:/Workspace/DAVE-4.4.2-64Bit/optiga-trust-m/externals/mbedtls/library\ecp.c ****         MBEDTLS_MPI_CHK( ecp_select_comb( grp, &Txi, T, T_size, x[i] ) );
 3605              	 .loc 1 1824 0
 3606 0248 381C     	 mov r0,r7
 3607 024a 0A1C     	 mov r2,r1
1822:C:/Workspace/DAVE-4.4.2-64Bit/optiga-trust-m/externals/mbedtls/library\ecp.c **** 
 3608              	 .loc 1 1822 0
 3609 024c 6293     	 str r3,[sp,#392]
 3610              	.LVL699:
1824:C:/Workspace/DAVE-4.4.2-64Bit/optiga-trust-m/externals/mbedtls/library\ecp.c ****         MBEDTLS_MPI_CHK( ecp_select_comb( grp, &Txi, T, T_size, x[i] ) );
 3611              	 .loc 1 1824 0
 3612 024e FFF7FEFF 	 bl ecp_double_jac
 3613              	.LVL700:
 3614 0252 0028     	 cmp r0,#0
 3615 0254 19D1     	 bne .L302
1825:C:/Workspace/DAVE-4.4.2-64Bit/optiga-trust-m/externals/mbedtls/library\ecp.c ****         MBEDTLS_MPI_CHK( ecp_add_mixed( grp, R, R, &Txi ) );
 3616              	 .loc 1 1825 0
 3617 0256 629A     	 ldr r2,[sp,#392]
 3618 0258 18AB     	 add r3,sp,#96
 3619              	.LVL701:
 3620 025a D35C     	 ldrb r3,[r2,r3]
 3621              	.LVL702:
 3622 025c 381C     	 mov r0,r7
 3623              	.LVL703:
 3624 025e 0093     	 str r3,[sp]
 3625 0260 0FA9     	 add r1,sp,#60
 3626 0262 059A     	 ldr r2,[sp,#20]
 3627 0264 069B     	 ldr r3,[sp,#24]
 3628 0266 FFF7FEFF 	 bl ecp_select_comb
 3629              	.LVL704:
 3630 026a 0028     	 cmp r0,#0
 3631 026c 0DD1     	 bne .L302
1826:C:/Workspace/DAVE-4.4.2-64Bit/optiga-trust-m/externals/mbedtls/library\ecp.c ****     }
 3632              	 .loc 1 1826 0
 3633 026e 0299     	 ldr r1,[sp,#8]
 3634 0270 381C     	 mov r0,r7
 3635              	.LVL705:
 3636 0272 0A1C     	 mov r2,r1
 3637 0274 0FAB     	 add r3,sp,#60
 3638 0276 FFF7FEFF 	 bl ecp_add_mixed
 3639              	.LVL706:
 3640 027a 0028     	 cmp r0,#0
 3641 027c 05D1     	 bne .L302
 3642              	.LVL707:
 3643              	.L295:
1819:C:/Workspace/DAVE-4.4.2-64Bit/optiga-trust-m/externals/mbedtls/library\ecp.c ****     {
 3644              	 .loc 1 1819 0
 3645 027e 629B     	 ldr r3,[sp,#392]
 3646 0280 002B     	 cmp r3,#0
 3647 0282 DED1     	 bne .L296
 3648 0284 02E0     	 b .L288
 3649              	.LVL708:
 3650              	.L299:
1816:C:/Workspace/DAVE-4.4.2-64Bit/optiga-trust-m/externals/mbedtls/library\ecp.c ****     }
 3651              	 .loc 1 1816 0
 3652 0286 2C1C     	 mov r4,r5
 3653 0288 00E0     	 b .L288
 3654              	.LVL709:
 3655              	.L302:
1826:C:/Workspace/DAVE-4.4.2-64Bit/optiga-trust-m/externals/mbedtls/library\ecp.c ****     }
 3656              	 .loc 1 1826 0
 3657 028a 041C     	 mov r4,r0
 3658              	.LVL710:
 3659              	.L288:
1831:C:/Workspace/DAVE-4.4.2-64Bit/optiga-trust-m/externals/mbedtls/library\ecp.c **** 
 3660              	 .loc 1 1831 0
 3661 028c 0FA8     	 add r0,sp,#60
 3662 028e FFF7FEFF 	 bl mbedtls_ecp_point_free
 3663              	.LVL711:
 3664              	.LBE43:
 3665              	.LBE42:
1926:C:/Workspace/DAVE-4.4.2-64Bit/optiga-trust-m/externals/mbedtls/library\ecp.c ****                                             &parity_trick ) );
1927:C:/Workspace/DAVE-4.4.2-64Bit/optiga-trust-m/externals/mbedtls/library\ecp.c ****     MBEDTLS_MPI_CHK( ecp_mul_comb_core( grp, RR, T, T_size, k, d,
 3666              	 .loc 1 1927 0
 3667 0292 002C     	 cmp r4,#0
 3668 0294 0BD1     	 bne .L287
 3669              	.LVL712:
1928:C:/Workspace/DAVE-4.4.2-64Bit/optiga-trust-m/externals/mbedtls/library\ecp.c ****                                         f_rng, p_rng, rs_ctx ) );
1929:C:/Workspace/DAVE-4.4.2-64Bit/optiga-trust-m/externals/mbedtls/library\ecp.c ****     MBEDTLS_MPI_CHK( ecp_safe_invert_jac( grp, RR, parity_trick ) );
 3670              	 .loc 1 1929 0
 3671 0296 381C     	 mov r0,r7
 3672 0298 0299     	 ldr r1,[sp,#8]
 3673 029a 049A     	 ldr r2,[sp,#16]
 3674 029c FFF7FEFF 	 bl ecp_safe_invert_jac
 3675              	.LVL713:
 3676 02a0 041E     	 sub r4,r0,#0
 3677              	.LVL714:
 3678 02a2 04D1     	 bne .L287
1930:C:/Workspace/DAVE-4.4.2-64Bit/optiga-trust-m/externals/mbedtls/library\ecp.c **** 
1931:C:/Workspace/DAVE-4.4.2-64Bit/optiga-trust-m/externals/mbedtls/library\ecp.c **** #if defined(MBEDTLS_ECP_RESTARTABLE)
1932:C:/Workspace/DAVE-4.4.2-64Bit/optiga-trust-m/externals/mbedtls/library\ecp.c ****     if( rs_ctx != NULL && rs_ctx->rsm != NULL )
1933:C:/Workspace/DAVE-4.4.2-64Bit/optiga-trust-m/externals/mbedtls/library\ecp.c ****         rs_ctx->rsm->state = ecp_rsm_final_norm;
1934:C:/Workspace/DAVE-4.4.2-64Bit/optiga-trust-m/externals/mbedtls/library\ecp.c **** 
1935:C:/Workspace/DAVE-4.4.2-64Bit/optiga-trust-m/externals/mbedtls/library\ecp.c **** final_norm:
1936:C:/Workspace/DAVE-4.4.2-64Bit/optiga-trust-m/externals/mbedtls/library\ecp.c **** #endif
1937:C:/Workspace/DAVE-4.4.2-64Bit/optiga-trust-m/externals/mbedtls/library\ecp.c ****     MBEDTLS_ECP_BUDGET( MBEDTLS_ECP_OPS_INV );
1938:C:/Workspace/DAVE-4.4.2-64Bit/optiga-trust-m/externals/mbedtls/library\ecp.c ****     MBEDTLS_MPI_CHK( ecp_normalize_jac( grp, RR ) );
 3679              	 .loc 1 1938 0
 3680 02a4 381C     	 mov r0,r7
 3681              	.LVL715:
 3682 02a6 0299     	 ldr r1,[sp,#8]
 3683 02a8 FFF7FEFF 	 bl ecp_normalize_jac
 3684              	.LVL716:
 3685 02ac 041C     	 mov r4,r0
 3686              	.LVL717:
 3687              	.L287:
1939:C:/Workspace/DAVE-4.4.2-64Bit/optiga-trust-m/externals/mbedtls/library\ecp.c **** 
1940:C:/Workspace/DAVE-4.4.2-64Bit/optiga-trust-m/externals/mbedtls/library\ecp.c **** #if defined(MBEDTLS_ECP_RESTARTABLE)
1941:C:/Workspace/DAVE-4.4.2-64Bit/optiga-trust-m/externals/mbedtls/library\ecp.c ****     if( rs_ctx != NULL && rs_ctx->rsm != NULL )
1942:C:/Workspace/DAVE-4.4.2-64Bit/optiga-trust-m/externals/mbedtls/library\ecp.c ****         MBEDTLS_MPI_CHK( mbedtls_ecp_copy( R, RR ) );
1943:C:/Workspace/DAVE-4.4.2-64Bit/optiga-trust-m/externals/mbedtls/library\ecp.c **** #endif
1944:C:/Workspace/DAVE-4.4.2-64Bit/optiga-trust-m/externals/mbedtls/library\ecp.c **** 
1945:C:/Workspace/DAVE-4.4.2-64Bit/optiga-trust-m/externals/mbedtls/library\ecp.c **** cleanup:
1946:C:/Workspace/DAVE-4.4.2-64Bit/optiga-trust-m/externals/mbedtls/library\ecp.c ****     return( ret );
1947:C:/Workspace/DAVE-4.4.2-64Bit/optiga-trust-m/externals/mbedtls/library\ecp.c **** }
 3688              	 .loc 1 1947 0
 3689 02ae 201C     	 mov r0,r4
 3690 02b0 5BB0     	 add sp,sp,#364
 3691              	 
 3692              	.LVL718:
 3693              	.LVL719:
 3694 02b2 F0BD     	 pop {r4,r5,r6,r7,pc}
 3695              	.L312:
 3696              	 .align 2
 3697              	.L311:
 3698 02b4 80B0FFFF 	 .word -20352
 3699 02b8 00B3FFFF 	 .word -19712
 3700              	 .cfi_endproc
 3701              	.LFE59:
 3703              	 .section .text.mbedtls_ecp_is_zero,"ax",%progbits
 3704              	 .align 1
 3705              	 .global mbedtls_ecp_is_zero
 3706              	 .code 16
 3707              	 .thumb_func
 3709              	mbedtls_ecp_is_zero:
 3710              	.LFB15:
 687:C:/Workspace/DAVE-4.4.2-64Bit/optiga-trust-m/externals/mbedtls/library\ecp.c ****     ECP_VALIDATE_RET( pt != NULL );
 3711              	 .loc 1 687 0
 3712              	 .cfi_startproc
 3713              	.LVL720:
 3714 0000 08B5     	 push {r3,lr}
 3715              	.LCFI25:
 3716              	 .cfi_def_cfa_offset 8
 3717              	 .cfi_offset 3,-8
 3718              	 .cfi_offset 14,-4
 690:C:/Workspace/DAVE-4.4.2-64Bit/optiga-trust-m/externals/mbedtls/library\ecp.c **** }
 3719              	 .loc 1 690 0
 3720 0002 1830     	 add r0,r0,#24
 3721              	.LVL721:
 3722 0004 0021     	 mov r1,#0
 3723 0006 FFF7FEFF 	 bl mbedtls_mpi_cmp_int
 3724              	.LVL722:
 691:C:/Workspace/DAVE-4.4.2-64Bit/optiga-trust-m/externals/mbedtls/library\ecp.c **** 
 3725              	 .loc 1 691 0
 3726              	 
 690:C:/Workspace/DAVE-4.4.2-64Bit/optiga-trust-m/externals/mbedtls/library\ecp.c **** }
 3727              	 .loc 1 690 0
 3728 000a 4342     	 neg r3,r0
 3729 000c 5841     	 adc r0,r0,r3
 691:C:/Workspace/DAVE-4.4.2-64Bit/optiga-trust-m/externals/mbedtls/library\ecp.c **** 
 3730              	 .loc 1 691 0
 3731 000e 08BD     	 pop {r3,pc}
 3732              	 .cfi_endproc
 3733              	.LFE15:
 3735              	 .section .text.mbedtls_ecp_point_cmp,"ax",%progbits
 3736              	 .align 1
 3737              	 .global mbedtls_ecp_point_cmp
 3738              	 .code 16
 3739              	 .thumb_func
 3741              	mbedtls_ecp_point_cmp:
 3742              	.LFB16:
 698:C:/Workspace/DAVE-4.4.2-64Bit/optiga-trust-m/externals/mbedtls/library\ecp.c ****     ECP_VALIDATE_RET( P != NULL );
 3743              	 .loc 1 698 0
 3744              	 .cfi_startproc
 3745              	.LVL723:
 3746 0000 38B5     	 push {r3,r4,r5,lr}
 3747              	.LCFI26:
 3748              	 .cfi_def_cfa_offset 16
 3749              	 .cfi_offset 3,-16
 3750              	 .cfi_offset 4,-12
 3751              	 .cfi_offset 5,-8
 3752              	 .cfi_offset 14,-4
 698:C:/Workspace/DAVE-4.4.2-64Bit/optiga-trust-m/externals/mbedtls/library\ecp.c ****     ECP_VALIDATE_RET( P != NULL );
 3753              	 .loc 1 698 0
 3754 0002 051C     	 mov r5,r0
 3755 0004 0C1C     	 mov r4,r1
 702:C:/Workspace/DAVE-4.4.2-64Bit/optiga-trust-m/externals/mbedtls/library\ecp.c ****         mbedtls_mpi_cmp_mpi( &P->Y, &Q->Y ) == 0 &&
 3756              	 .loc 1 702 0
 3757 0006 FFF7FEFF 	 bl mbedtls_mpi_cmp_mpi
 3758              	.LVL724:
 3759 000a 0028     	 cmp r0,#0
 3760 000c 0FD1     	 bne .L321
 703:C:/Workspace/DAVE-4.4.2-64Bit/optiga-trust-m/externals/mbedtls/library\ecp.c ****         mbedtls_mpi_cmp_mpi( &P->Z, &Q->Z ) == 0 )
 3761              	 .loc 1 703 0 discriminator 1
 3762 000e 281C     	 mov r0,r5
 3763 0010 211C     	 mov r1,r4
 3764 0012 0C30     	 add r0,r0,#12
 3765 0014 0C31     	 add r1,r1,#12
 3766 0016 FFF7FEFF 	 bl mbedtls_mpi_cmp_mpi
 3767              	.LVL725:
 702:C:/Workspace/DAVE-4.4.2-64Bit/optiga-trust-m/externals/mbedtls/library\ecp.c ****         mbedtls_mpi_cmp_mpi( &P->Y, &Q->Y ) == 0 &&
 3768              	 .loc 1 702 0 discriminator 1
 3769 001a 0028     	 cmp r0,#0
 3770 001c 07D1     	 bne .L321
 704:C:/Workspace/DAVE-4.4.2-64Bit/optiga-trust-m/externals/mbedtls/library\ecp.c ****     {
 3771              	 .loc 1 704 0
 3772 001e 281C     	 mov r0,r5
 3773 0020 211C     	 mov r1,r4
 3774 0022 1830     	 add r0,r0,#24
 3775 0024 1831     	 add r1,r1,#24
 3776 0026 FFF7FEFF 	 bl mbedtls_mpi_cmp_mpi
 3777              	.LVL726:
 703:C:/Workspace/DAVE-4.4.2-64Bit/optiga-trust-m/externals/mbedtls/library\ecp.c ****         mbedtls_mpi_cmp_mpi( &P->Z, &Q->Z ) == 0 )
 3778              	 .loc 1 703 0
 3779 002a 0028     	 cmp r0,#0
 3780 002c 00D0     	 beq .L316
 3781              	.L321:
 709:C:/Workspace/DAVE-4.4.2-64Bit/optiga-trust-m/externals/mbedtls/library\ecp.c **** }
 3782              	 .loc 1 709 0
 3783 002e 0148     	 ldr r0,.L322
 3784              	.L316:
 710:C:/Workspace/DAVE-4.4.2-64Bit/optiga-trust-m/externals/mbedtls/library\ecp.c **** 
 3785              	 .loc 1 710 0
 3786              	 
 3787              	.LVL727:
 3788              	.LVL728:
 3789 0030 38BD     	 pop {r3,r4,r5,pc}
 3790              	.L323:
 3791 0032 C046     	 .align 2
 3792              	.L322:
 3793 0034 80B0FFFF 	 .word -20352
 3794              	 .cfi_endproc
 3795              	.LFE16:
 3797              	 .section .text.mbedtls_ecp_point_read_string,"ax",%progbits
 3798              	 .align 1
 3799              	 .global mbedtls_ecp_point_read_string
 3800              	 .code 16
 3801              	 .thumb_func
 3803              	mbedtls_ecp_point_read_string:
 3804              	.LFB17:
 717:C:/Workspace/DAVE-4.4.2-64Bit/optiga-trust-m/externals/mbedtls/library\ecp.c ****     int ret;
 3805              	 .loc 1 717 0
 3806              	 .cfi_startproc
 3807              	.LVL729:
 3808 0000 70B5     	 push {r4,r5,r6,lr}
 3809              	.LCFI27:
 3810              	 .cfi_def_cfa_offset 16
 3811              	 .cfi_offset 4,-16
 3812              	 .cfi_offset 5,-12
 3813              	 .cfi_offset 6,-8
 3814              	 .cfi_offset 14,-4
 717:C:/Workspace/DAVE-4.4.2-64Bit/optiga-trust-m/externals/mbedtls/library\ecp.c ****     int ret;
 3815              	 .loc 1 717 0
 3816 0002 041C     	 mov r4,r0
 3817 0004 0D1C     	 mov r5,r1
 3818 0006 1E1C     	 mov r6,r3
 723:C:/Workspace/DAVE-4.4.2-64Bit/optiga-trust-m/externals/mbedtls/library\ecp.c ****     MBEDTLS_MPI_CHK( mbedtls_mpi_read_string( &P->Y, radix, y ) );
 3819              	 .loc 1 723 0
 3820 0008 FFF7FEFF 	 bl mbedtls_mpi_read_string
 3821              	.LVL730:
 3822 000c 0028     	 cmp r0,#0
 3823 000e 0CD1     	 bne .L325
 724:C:/Workspace/DAVE-4.4.2-64Bit/optiga-trust-m/externals/mbedtls/library\ecp.c ****     MBEDTLS_MPI_CHK( mbedtls_mpi_lset( &P->Z, 1 ) );
 3824              	 .loc 1 724 0
 3825 0010 201C     	 mov r0,r4
 3826              	.LVL731:
 3827 0012 291C     	 mov r1,r5
 3828 0014 0C30     	 add r0,r0,#12
 3829 0016 321C     	 mov r2,r6
 3830 0018 FFF7FEFF 	 bl mbedtls_mpi_read_string
 3831              	.LVL732:
 3832 001c 0028     	 cmp r0,#0
 3833 001e 04D1     	 bne .L325
 725:C:/Workspace/DAVE-4.4.2-64Bit/optiga-trust-m/externals/mbedtls/library\ecp.c **** 
 3834              	 .loc 1 725 0
 3835 0020 201C     	 mov r0,r4
 3836              	.LVL733:
 3837 0022 0121     	 mov r1,#1
 3838 0024 1830     	 add r0,r0,#24
 3839 0026 FFF7FEFF 	 bl mbedtls_mpi_lset
 3840              	.LVL734:
 3841              	.L325:
 729:C:/Workspace/DAVE-4.4.2-64Bit/optiga-trust-m/externals/mbedtls/library\ecp.c **** 
 3842              	 .loc 1 729 0
 3843              	 
 3844              	.LVL735:
 3845              	.LVL736:
 3846              	.LVL737:
 3847 002a 70BD     	 pop {r4,r5,r6,pc}
 3848              	 .cfi_endproc
 3849              	.LFE17:
 3851              	 .section .text.mbedtls_ecp_point_write_binary,"ax",%progbits
 3852              	 .align 1
 3853              	 .global mbedtls_ecp_point_write_binary
 3854              	 .code 16
 3855              	 .thumb_func
 3857              	mbedtls_ecp_point_write_binary:
 3858              	.LFB18:
 738:C:/Workspace/DAVE-4.4.2-64Bit/optiga-trust-m/externals/mbedtls/library\ecp.c ****     int ret = 0;
 3859              	 .loc 1 738 0
 3860              	 .cfi_startproc
 3861              	.LVL738:
 3862 0000 F7B5     	 push {r0,r1,r2,r4,r5,r6,r7,lr}
 3863              	.LCFI28:
 3864              	 .cfi_def_cfa_offset 32
 3865              	 .cfi_offset 0,-32
 3866              	 .cfi_offset 1,-28
 3867              	 .cfi_offset 2,-24
 3868              	 .cfi_offset 4,-20
 3869              	 .cfi_offset 5,-16
 3870              	 .cfi_offset 6,-12
 3871              	 .cfi_offset 7,-8
 3872              	 .cfi_offset 14,-4
 738:C:/Workspace/DAVE-4.4.2-64Bit/optiga-trust-m/externals/mbedtls/library\ecp.c ****     int ret = 0;
 3873              	 .loc 1 738 0
 3874 0002 051C     	 mov r5,r0
 751:C:/Workspace/DAVE-4.4.2-64Bit/optiga-trust-m/externals/mbedtls/library\ecp.c ****     {
 3875              	 .loc 1 751 0
 3876 0004 081C     	 mov r0,r1
 3877              	.LVL739:
 738:C:/Workspace/DAVE-4.4.2-64Bit/optiga-trust-m/externals/mbedtls/library\ecp.c ****     int ret = 0;
 3878              	 .loc 1 738 0
 3879 0006 0C1C     	 mov r4,r1
 751:C:/Workspace/DAVE-4.4.2-64Bit/optiga-trust-m/externals/mbedtls/library\ecp.c ****     {
 3880              	 .loc 1 751 0
 3881 0008 1830     	 add r0,r0,#24
 3882 000a 0021     	 mov r1,#0
 3883              	.LVL740:
 738:C:/Workspace/DAVE-4.4.2-64Bit/optiga-trust-m/externals/mbedtls/library\ecp.c ****     int ret = 0;
 3884              	 .loc 1 738 0
 3885 000c 0192     	 str r2,[sp,#4]
 3886 000e 1F1C     	 mov r7,r3
 3887 0010 089E     	 ldr r6,[sp,#32]
 751:C:/Workspace/DAVE-4.4.2-64Bit/optiga-trust-m/externals/mbedtls/library\ecp.c ****     {
 3888              	 .loc 1 751 0
 3889 0012 FFF7FEFF 	 bl mbedtls_mpi_cmp_int
 3890              	.LVL741:
 3891 0016 011E     	 sub r1,r0,#0
 3892 0018 08D1     	 bne .L327
 753:C:/Workspace/DAVE-4.4.2-64Bit/optiga-trust-m/externals/mbedtls/library\ecp.c ****             return( MBEDTLS_ERR_ECP_BUFFER_TOO_SMALL );
 3893              	 .loc 1 753 0
 3894 001a 099B     	 ldr r3,[sp,#36]
 3895 001c 002B     	 cmp r3,#0
 3896 001e 01D1     	 bne .L328
 3897              	.LVL742:
 3898              	.L331:
 754:C:/Workspace/DAVE-4.4.2-64Bit/optiga-trust-m/externals/mbedtls/library\ecp.c **** 
 3899              	 .loc 1 754 0
 3900 0020 1B49     	 ldr r1,.L335
 3901 0022 33E0     	 b .L329
 3902              	.LVL743:
 3903              	.L328:
 757:C:/Workspace/DAVE-4.4.2-64Bit/optiga-trust-m/externals/mbedtls/library\ecp.c **** 
 3904              	 .loc 1 757 0
 3905 0024 0123     	 mov r3,#1
 756:C:/Workspace/DAVE-4.4.2-64Bit/optiga-trust-m/externals/mbedtls/library\ecp.c ****         *olen = 1;
 3906              	 .loc 1 756 0
 3907 0026 3070     	 strb r0,[r6]
 757:C:/Workspace/DAVE-4.4.2-64Bit/optiga-trust-m/externals/mbedtls/library\ecp.c **** 
 3908              	 .loc 1 757 0
 3909 0028 3B60     	 str r3,[r7]
 759:C:/Workspace/DAVE-4.4.2-64Bit/optiga-trust-m/externals/mbedtls/library\ecp.c ****     }
 3910              	 .loc 1 759 0
 3911 002a 2FE0     	 b .L329
 3912              	.L327:
 3913              	.LVL744:
 3914              	.LBB50:
 3915              	.LBB51:
 762:C:/Workspace/DAVE-4.4.2-64Bit/optiga-trust-m/externals/mbedtls/library\ecp.c **** 
 3916              	 .loc 1 762 0
 3917 002c 281D     	 add r0,r5,#4
 3918 002e FFF7FEFF 	 bl mbedtls_mpi_size
 3919              	.LVL745:
 764:C:/Workspace/DAVE-4.4.2-64Bit/optiga-trust-m/externals/mbedtls/library\ecp.c ****     {
 3920              	 .loc 1 764 0
 3921 0032 019B     	 ldr r3,[sp,#4]
 762:C:/Workspace/DAVE-4.4.2-64Bit/optiga-trust-m/externals/mbedtls/library\ecp.c **** 
 3922              	 .loc 1 762 0
 3923 0034 051C     	 mov r5,r0
 3924              	.LVL746:
 764:C:/Workspace/DAVE-4.4.2-64Bit/optiga-trust-m/externals/mbedtls/library\ecp.c ****     {
 3925              	 .loc 1 764 0
 3926 0036 002B     	 cmp r3,#0
 3927 0038 13D1     	 bne .L330
 766:C:/Workspace/DAVE-4.4.2-64Bit/optiga-trust-m/externals/mbedtls/library\ecp.c **** 
 3928              	 .loc 1 766 0
 3929 003a 4300     	 lsl r3,r0,#1
 768:C:/Workspace/DAVE-4.4.2-64Bit/optiga-trust-m/externals/mbedtls/library\ecp.c ****             return( MBEDTLS_ERR_ECP_BUFFER_TOO_SMALL );
 3930              	 .loc 1 768 0
 3931 003c 099A     	 ldr r2,[sp,#36]
 766:C:/Workspace/DAVE-4.4.2-64Bit/optiga-trust-m/externals/mbedtls/library\ecp.c **** 
 3932              	 .loc 1 766 0
 3933 003e 0133     	 add r3,r3,#1
 3934 0040 3B60     	 str r3,[r7]
 768:C:/Workspace/DAVE-4.4.2-64Bit/optiga-trust-m/externals/mbedtls/library\ecp.c ****             return( MBEDTLS_ERR_ECP_BUFFER_TOO_SMALL );
 3935              	 .loc 1 768 0
 3936 0042 9A42     	 cmp r2,r3
 3937 0044 ECD3     	 bcc .L331
 771:C:/Workspace/DAVE-4.4.2-64Bit/optiga-trust-m/externals/mbedtls/library\ecp.c ****         MBEDTLS_MPI_CHK( mbedtls_mpi_write_binary( &P->X, buf + 1, plen ) );
 3938              	 .loc 1 771 0
 3939 0046 0423     	 mov r3,#4
 772:C:/Workspace/DAVE-4.4.2-64Bit/optiga-trust-m/externals/mbedtls/library\ecp.c ****         MBEDTLS_MPI_CHK( mbedtls_mpi_write_binary( &P->Y, buf + 1 + plen, plen ) );
 3940              	 .loc 1 772 0
 3941 0048 711C     	 add r1,r6,#1
 771:C:/Workspace/DAVE-4.4.2-64Bit/optiga-trust-m/externals/mbedtls/library\ecp.c ****         MBEDTLS_MPI_CHK( mbedtls_mpi_write_binary( &P->X, buf + 1, plen ) );
 3942              	 .loc 1 771 0
 3943 004a 3370     	 strb r3,[r6]
 772:C:/Workspace/DAVE-4.4.2-64Bit/optiga-trust-m/externals/mbedtls/library\ecp.c ****         MBEDTLS_MPI_CHK( mbedtls_mpi_write_binary( &P->Y, buf + 1 + plen, plen ) );
 3944              	 .loc 1 772 0
 3945 004c 201C     	 mov r0,r4
 3946              	.LVL747:
 3947 004e 2A1C     	 mov r2,r5
 3948 0050 FFF7FEFF 	 bl mbedtls_mpi_write_binary
 3949              	.LVL748:
 3950 0054 011E     	 sub r1,r0,#0
 3951              	.LVL749:
 3952 0056 19D1     	 bne .L329
 773:C:/Workspace/DAVE-4.4.2-64Bit/optiga-trust-m/externals/mbedtls/library\ecp.c ****     }
 3953              	 .loc 1 773 0
 3954 0058 201C     	 mov r0,r4
 3955              	.LVL750:
 3956 005a 691C     	 add r1,r5,#1
 3957              	.LVL751:
 3958 005c 0C30     	 add r0,r0,#12
 3959 005e 7118     	 add r1,r6,r1
 3960 0060 10E0     	 b .L334
 3961              	.LVL752:
 3962              	.L330:
 775:C:/Workspace/DAVE-4.4.2-64Bit/optiga-trust-m/externals/mbedtls/library\ecp.c ****     {
 3963              	 .loc 1 775 0
 3964 0062 019B     	 ldr r3,[sp,#4]
 739:C:/Workspace/DAVE-4.4.2-64Bit/optiga-trust-m/externals/mbedtls/library\ecp.c ****     size_t plen;
 3965              	 .loc 1 739 0
 3966 0064 0021     	 mov r1,#0
 775:C:/Workspace/DAVE-4.4.2-64Bit/optiga-trust-m/externals/mbedtls/library\ecp.c ****     {
 3967              	 .loc 1 775 0
 3968 0066 012B     	 cmp r3,#1
 3969 0068 10D1     	 bne .L329
 779:C:/Workspace/DAVE-4.4.2-64Bit/optiga-trust-m/externals/mbedtls/library\ecp.c ****             return( MBEDTLS_ERR_ECP_BUFFER_TOO_SMALL );
 3970              	 .loc 1 779 0
 3971 006a 099A     	 ldr r2,[sp,#36]
 777:C:/Workspace/DAVE-4.4.2-64Bit/optiga-trust-m/externals/mbedtls/library\ecp.c **** 
 3972              	 .loc 1 777 0
 3973 006c 431C     	 add r3,r0,#1
 3974 006e 3B60     	 str r3,[r7]
 779:C:/Workspace/DAVE-4.4.2-64Bit/optiga-trust-m/externals/mbedtls/library\ecp.c ****             return( MBEDTLS_ERR_ECP_BUFFER_TOO_SMALL );
 3975              	 .loc 1 779 0
 3976 0070 9A42     	 cmp r2,r3
 3977 0072 D5D3     	 bcc .L331
 782:C:/Workspace/DAVE-4.4.2-64Bit/optiga-trust-m/externals/mbedtls/library\ecp.c ****         MBEDTLS_MPI_CHK( mbedtls_mpi_write_binary( &P->X, buf + 1, plen ) );
 3978              	 .loc 1 782 0
 3979 0074 201C     	 mov r0,r4
 3980              	.LVL753:
 3981 0076 0C30     	 add r0,r0,#12
 3982 0078 FFF7FEFF 	 bl mbedtls_mpi_get_bit
 3983              	.LVL754:
 3984 007c 0230     	 add r0,r0,#2
 3985 007e 3070     	 strb r0,[r6]
 783:C:/Workspace/DAVE-4.4.2-64Bit/optiga-trust-m/externals/mbedtls/library\ecp.c ****     }
 3986              	 .loc 1 783 0
 3987 0080 201C     	 mov r0,r4
 3988 0082 711C     	 add r1,r6,#1
 3989              	.L334:
 3990 0084 2A1C     	 mov r2,r5
 3991 0086 FFF7FEFF 	 bl mbedtls_mpi_write_binary
 3992              	.LVL755:
 3993 008a 011C     	 mov r1,r0
 3994              	.LVL756:
 3995              	.L329:
 3996              	.LBE51:
 3997              	.LBE50:
 788:C:/Workspace/DAVE-4.4.2-64Bit/optiga-trust-m/externals/mbedtls/library\ecp.c **** 
 3998              	 .loc 1 788 0
 3999 008c 081C     	 mov r0,r1
 4000              	 
 4001              	.LVL757:
 4002              	.LVL758:
 4003 008e FEBD     	 pop {r1,r2,r3,r4,r5,r6,r7,pc}
 4004              	.L336:
 4005              	 .align 2
 4006              	.L335:
 4007 0090 00B1FFFF 	 .word -20224
 4008              	 .cfi_endproc
 4009              	.LFE18:
 4011              	 .section .text.mbedtls_ecp_point_read_binary,"ax",%progbits
 4012              	 .align 1
 4013              	 .global mbedtls_ecp_point_read_binary
 4014              	 .code 16
 4015              	 .thumb_func
 4017              	mbedtls_ecp_point_read_binary:
 4018              	.LFB19:
 796:C:/Workspace/DAVE-4.4.2-64Bit/optiga-trust-m/externals/mbedtls/library\ecp.c ****     int ret;
 4019              	 .loc 1 796 0
 4020              	 .cfi_startproc
 4021              	.LVL759:
 4022 0000 F8B5     	 push {r3,r4,r5,r6,r7,lr}
 4023              	.LCFI29:
 4024              	 .cfi_def_cfa_offset 24
 4025              	 .cfi_offset 3,-24
 4026              	 .cfi_offset 4,-20
 4027              	 .cfi_offset 5,-16
 4028              	 .cfi_offset 6,-12
 4029              	 .cfi_offset 7,-8
 4030              	 .cfi_offset 14,-4
 803:C:/Workspace/DAVE-4.4.2-64Bit/optiga-trust-m/externals/mbedtls/library\ecp.c ****         return( MBEDTLS_ERR_ECP_BAD_INPUT_DATA );
 4031              	 .loc 1 803 0
 4032 0002 002B     	 cmp r3,#0
 4033 0004 01D1     	 bne .L338
 4034              	.LVL760:
 4035              	.L341:
 804:C:/Workspace/DAVE-4.4.2-64Bit/optiga-trust-m/externals/mbedtls/library\ecp.c **** 
 4036              	 .loc 1 804 0
 4037 0006 1848     	 ldr r0,.L345
 4038 0008 2DE0     	 b .L339
 4039              	.LVL761:
 4040              	.L338:
 4041 000a 1F1C     	 mov r7,r3
 806:C:/Workspace/DAVE-4.4.2-64Bit/optiga-trust-m/externals/mbedtls/library\ecp.c ****     {
 4042              	 .loc 1 806 0
 4043 000c 1378     	 ldrb r3,[r2]
 4044              	.LVL762:
 4045 000e 151C     	 mov r5,r2
 4046 0010 0C1C     	 mov r4,r1
 4047 0012 002B     	 cmp r3,#0
 4048 0014 05D1     	 bne .L340
 808:C:/Workspace/DAVE-4.4.2-64Bit/optiga-trust-m/externals/mbedtls/library\ecp.c ****             return( mbedtls_ecp_set_zero( pt ) );
 4049              	 .loc 1 808 0
 4050 0016 012F     	 cmp r7,#1
 4051 0018 F5D1     	 bne .L341
 809:C:/Workspace/DAVE-4.4.2-64Bit/optiga-trust-m/externals/mbedtls/library\ecp.c ****         else
 4052              	 .loc 1 809 0
 4053 001a 081C     	 mov r0,r1
 4054              	.LVL763:
 4055 001c FFF7FEFF 	 bl mbedtls_ecp_set_zero
 4056              	.LVL764:
 4057 0020 21E0     	 b .L339
 4058              	.LVL765:
 4059              	.L340:
 4060              	.LBB54:
 4061              	.LBB55:
 814:C:/Workspace/DAVE-4.4.2-64Bit/optiga-trust-m/externals/mbedtls/library\ecp.c **** 
 4062              	 .loc 1 814 0
 4063 0022 0430     	 add r0,r0,#4
 4064              	.LVL766:
 4065 0024 FFF7FEFF 	 bl mbedtls_mpi_size
 4066              	.LVL767:
 816:C:/Workspace/DAVE-4.4.2-64Bit/optiga-trust-m/externals/mbedtls/library\ecp.c ****         return( MBEDTLS_ERR_ECP_FEATURE_UNAVAILABLE );
 4067              	 .loc 1 816 0
 4068 0028 2B78     	 ldrb r3,[r5]
 814:C:/Workspace/DAVE-4.4.2-64Bit/optiga-trust-m/externals/mbedtls/library\ecp.c **** 
 4069              	 .loc 1 814 0
 4070 002a 061C     	 mov r6,r0
 4071              	.LVL768:
 816:C:/Workspace/DAVE-4.4.2-64Bit/optiga-trust-m/externals/mbedtls/library\ecp.c ****         return( MBEDTLS_ERR_ECP_FEATURE_UNAVAILABLE );
 4072              	 .loc 1 816 0
 4073 002c 042B     	 cmp r3,#4
 4074 002e 19D1     	 bne .L342
 819:C:/Workspace/DAVE-4.4.2-64Bit/optiga-trust-m/externals/mbedtls/library\ecp.c ****         return( MBEDTLS_ERR_ECP_BAD_INPUT_DATA );
 4075              	 .loc 1 819 0
 4076 0030 4300     	 lsl r3,r0,#1
 4077 0032 0133     	 add r3,r3,#1
 4078 0034 9F42     	 cmp r7,r3
 4079 0036 E6D1     	 bne .L341
 822:C:/Workspace/DAVE-4.4.2-64Bit/optiga-trust-m/externals/mbedtls/library\ecp.c ****     MBEDTLS_MPI_CHK( mbedtls_mpi_read_binary( &pt->Y, buf + 1 + plen, plen ) );
 4080              	 .loc 1 822 0
 4081 0038 691C     	 add r1,r5,#1
 4082 003a 201C     	 mov r0,r4
 4083              	.LVL769:
 4084 003c 321C     	 mov r2,r6
 4085 003e FFF7FEFF 	 bl mbedtls_mpi_read_binary
 4086              	.LVL770:
 4087 0042 0028     	 cmp r0,#0
 4088 0044 0FD1     	 bne .L339
 823:C:/Workspace/DAVE-4.4.2-64Bit/optiga-trust-m/externals/mbedtls/library\ecp.c ****     MBEDTLS_MPI_CHK( mbedtls_mpi_lset( &pt->Z, 1 ) );
 4089              	 .loc 1 823 0
 4090 0046 201C     	 mov r0,r4
 4091              	.LVL771:
 4092 0048 711C     	 add r1,r6,#1
 4093 004a 6918     	 add r1,r5,r1
 4094 004c 0C30     	 add r0,r0,#12
 4095 004e 321C     	 mov r2,r6
 4096 0050 FFF7FEFF 	 bl mbedtls_mpi_read_binary
 4097              	.LVL772:
 4098 0054 0028     	 cmp r0,#0
 4099 0056 06D1     	 bne .L339
 824:C:/Workspace/DAVE-4.4.2-64Bit/optiga-trust-m/externals/mbedtls/library\ecp.c **** 
 4100              	 .loc 1 824 0
 4101 0058 201C     	 mov r0,r4
 4102              	.LVL773:
 4103 005a 0121     	 mov r1,#1
 4104 005c 1830     	 add r0,r0,#24
 4105 005e FFF7FEFF 	 bl mbedtls_mpi_lset
 4106              	.LVL774:
 4107 0062 00E0     	 b .L339
 4108              	.LVL775:
 4109              	.L342:
 817:C:/Workspace/DAVE-4.4.2-64Bit/optiga-trust-m/externals/mbedtls/library\ecp.c **** 
 4110              	 .loc 1 817 0
 4111 0064 0148     	 ldr r0,.L345+4
 4112              	.LVL776:
 4113              	.L339:
 4114              	.LBE55:
 4115              	.LBE54:
 828:C:/Workspace/DAVE-4.4.2-64Bit/optiga-trust-m/externals/mbedtls/library\ecp.c **** 
 4116              	 .loc 1 828 0
 4117              	 
 4118 0066 F8BD     	 pop {r3,r4,r5,r6,r7,pc}
 4119              	.L346:
 4120              	 .align 2
 4121              	.L345:
 4122 0068 80B0FFFF 	 .word -20352
 4123 006c 80B1FFFF 	 .word -20096
 4124              	 .cfi_endproc
 4125              	.LFE19:
 4127              	 .section .text.mbedtls_ecp_tls_read_point,"ax",%progbits
 4128              	 .align 1
 4129              	 .global mbedtls_ecp_tls_read_point
 4130              	 .code 16
 4131              	 .thumb_func
 4133              	mbedtls_ecp_tls_read_point:
 4134              	.LFB20:
 839:C:/Workspace/DAVE-4.4.2-64Bit/optiga-trust-m/externals/mbedtls/library\ecp.c ****     unsigned char data_len;
 4135              	 .loc 1 839 0
 4136              	 .cfi_startproc
 4137              	.LVL777:
 4138 0000 70B5     	 push {r4,r5,r6,lr}
 4139              	.LCFI30:
 4140              	 .cfi_def_cfa_offset 16
 4141              	 .cfi_offset 4,-16
 4142              	 .cfi_offset 5,-12
 4143              	 .cfi_offset 6,-8
 4144              	 .cfi_offset 14,-4
 850:C:/Workspace/DAVE-4.4.2-64Bit/optiga-trust-m/externals/mbedtls/library\ecp.c ****         return( MBEDTLS_ERR_ECP_BAD_INPUT_DATA );
 4145              	 .loc 1 850 0
 4146 0002 012B     	 cmp r3,#1
 4147 0004 01D8     	 bhi .L348
 4148              	.LVL778:
 4149              	.L350:
 851:C:/Workspace/DAVE-4.4.2-64Bit/optiga-trust-m/externals/mbedtls/library\ecp.c **** 
 4150              	 .loc 1 851 0
 4151 0006 0948     	 ldr r0,.L354
 4152              	.LVL779:
 4153 0008 0EE0     	 b .L349
 4154              	.LVL780:
 4155              	.L348:
 853:C:/Workspace/DAVE-4.4.2-64Bit/optiga-trust-m/externals/mbedtls/library\ecp.c ****     if( data_len < 1 || data_len > buf_len - 1 )
 4156              	 .loc 1 853 0
 4157 000a 1468     	 ldr r4,[r2]
 4158 000c 661C     	 add r6,r4,#1
 4159 000e 1660     	 str r6,[r2]
 4160 0010 2578     	 ldrb r5,[r4]
 4161              	.LVL781:
 854:C:/Workspace/DAVE-4.4.2-64Bit/optiga-trust-m/externals/mbedtls/library\ecp.c ****         return( MBEDTLS_ERR_ECP_BAD_INPUT_DATA );
 4162              	 .loc 1 854 0
 4163 0012 002D     	 cmp r5,#0
 4164 0014 F7D0     	 beq .L350
 854:C:/Workspace/DAVE-4.4.2-64Bit/optiga-trust-m/externals/mbedtls/library\ecp.c ****         return( MBEDTLS_ERR_ECP_BAD_INPUT_DATA );
 4165              	 .loc 1 854 0 is_stmt 0 discriminator 1
 4166 0016 013B     	 sub r3,r3,#1
 4167              	.LVL782:
 4168 0018 9D42     	 cmp r5,r3
 4169 001a F4D8     	 bhi .L350
 4170              	.LVL783:
 861:C:/Workspace/DAVE-4.4.2-64Bit/optiga-trust-m/externals/mbedtls/library\ecp.c **** 
 4171              	 .loc 1 861 0 is_stmt 1
 4172 001c 7319     	 add r3,r6,r5
 4173              	.LVL784:
 4174 001e 1360     	 str r3,[r2]
 863:C:/Workspace/DAVE-4.4.2-64Bit/optiga-trust-m/externals/mbedtls/library\ecp.c **** }
 4175              	 .loc 1 863 0
 4176 0020 321C     	 mov r2,r6
 4177              	.LVL785:
 4178 0022 2B1C     	 mov r3,r5
 4179 0024 FFF7FEFF 	 bl mbedtls_ecp_point_read_binary
 4180              	.LVL786:
 4181              	.L349:
 864:C:/Workspace/DAVE-4.4.2-64Bit/optiga-trust-m/externals/mbedtls/library\ecp.c **** 
 4182              	 .loc 1 864 0
 4183              	 
 4184 0028 70BD     	 pop {r4,r5,r6,pc}
 4185              	.L355:
 4186 002a C046     	 .align 2
 4187              	.L354:
 4188 002c 80B0FFFF 	 .word -20352
 4189              	 .cfi_endproc
 4190              	.LFE20:
 4192              	 .section .text.mbedtls_ecp_tls_write_point,"ax",%progbits
 4193              	 .align 1
 4194              	 .global mbedtls_ecp_tls_write_point
 4195              	 .code 16
 4196              	 .thumb_func
 4198              	mbedtls_ecp_tls_write_point:
 4199              	.LFB21:
 875:C:/Workspace/DAVE-4.4.2-64Bit/optiga-trust-m/externals/mbedtls/library\ecp.c ****     int ret;
 4200              	 .loc 1 875 0
 4201              	 .cfi_startproc
 4202              	.LVL787:
 4203 0000 73B5     	 push {r0,r1,r4,r5,r6,lr}
 4204              	.LCFI31:
 4205              	 .cfi_def_cfa_offset 24
 4206              	 .cfi_offset 0,-24
 4207              	 .cfi_offset 1,-20
 4208              	 .cfi_offset 4,-16
 4209              	 .cfi_offset 5,-12
 4210              	 .cfi_offset 6,-8
 4211              	 .cfi_offset 14,-4
 875:C:/Workspace/DAVE-4.4.2-64Bit/optiga-trust-m/externals/mbedtls/library\ecp.c ****     int ret;
 4212              	 .loc 1 875 0
 4213 0002 079D     	 ldr r5,[sp,#28]
 4214 0004 069E     	 ldr r6,[sp,#24]
 887:C:/Workspace/DAVE-4.4.2-64Bit/optiga-trust-m/externals/mbedtls/library\ecp.c ****         return( MBEDTLS_ERR_ECP_BAD_INPUT_DATA );
 4215              	 .loc 1 887 0
 4216 0006 002D     	 cmp r5,#0
 4217 0008 0FD0     	 beq .L358
 4218 000a 1C1C     	 mov r4,r3
 890:C:/Workspace/DAVE-4.4.2-64Bit/optiga-trust-m/externals/mbedtls/library\ecp.c ****                     olen, buf + 1, blen - 1) ) != 0 )
 4219              	 .loc 1 890 0
 4220 000c 013D     	 sub r5,r5,#1
 4221 000e 731C     	 add r3,r6,#1
 4222              	.LVL788:
 4223 0010 0093     	 str r3,[sp]
 4224 0012 0195     	 str r5,[sp,#4]
 4225 0014 231C     	 mov r3,r4
 4226 0016 FFF7FEFF 	 bl mbedtls_ecp_point_write_binary
 4227              	.LVL789:
 4228 001a 0028     	 cmp r0,#0
 4229 001c 06D1     	 bne .L357
 897:C:/Workspace/DAVE-4.4.2-64Bit/optiga-trust-m/externals/mbedtls/library\ecp.c ****     ++*olen;
 4230              	 .loc 1 897 0
 4231 001e 2378     	 ldrb r3,[r4]
 4232 0020 3370     	 strb r3,[r6]
 898:C:/Workspace/DAVE-4.4.2-64Bit/optiga-trust-m/externals/mbedtls/library\ecp.c **** 
 4233              	 .loc 1 898 0
 4234 0022 2368     	 ldr r3,[r4]
 4235 0024 0133     	 add r3,r3,#1
 4236 0026 2360     	 str r3,[r4]
 900:C:/Workspace/DAVE-4.4.2-64Bit/optiga-trust-m/externals/mbedtls/library\ecp.c **** }
 4237              	 .loc 1 900 0
 4238 0028 00E0     	 b .L357
 4239              	.LVL790:
 4240              	.L358:
 888:C:/Workspace/DAVE-4.4.2-64Bit/optiga-trust-m/externals/mbedtls/library\ecp.c **** 
 4241              	 .loc 1 888 0
 4242 002a 0148     	 ldr r0,.L360
 4243              	.LVL791:
 4244              	.L357:
 901:C:/Workspace/DAVE-4.4.2-64Bit/optiga-trust-m/externals/mbedtls/library\ecp.c **** 
 4245              	 .loc 1 901 0
 4246              	 
 4247 002c 76BD     	 pop {r1,r2,r4,r5,r6,pc}
 4248              	.L361:
 4249 002e C046     	 .align 2
 4250              	.L360:
 4251 0030 80B0FFFF 	 .word -20352
 4252              	 .cfi_endproc
 4253              	.LFE21:
 4255              	 .section .text.mbedtls_ecp_tls_read_group_id,"ax",%progbits
 4256              	 .align 1
 4257              	 .global mbedtls_ecp_tls_read_group_id
 4258              	 .code 16
 4259              	 .thumb_func
 4261              	mbedtls_ecp_tls_read_group_id:
 4262              	.LFB23:
 927:C:/Workspace/DAVE-4.4.2-64Bit/optiga-trust-m/externals/mbedtls/library\ecp.c ****     uint16_t tls_id;
 4263              	 .loc 1 927 0
 4264              	 .cfi_startproc
 4265              	.LVL792:
 4266 0000 10B5     	 push {r4,lr}
 4267              	.LCFI32:
 4268              	 .cfi_def_cfa_offset 8
 4269              	 .cfi_offset 4,-8
 4270              	 .cfi_offset 14,-4
 937:C:/Workspace/DAVE-4.4.2-64Bit/optiga-trust-m/externals/mbedtls/library\ecp.c ****         return( MBEDTLS_ERR_ECP_BAD_INPUT_DATA );
 4271              	 .loc 1 937 0
 4272 0002 022A     	 cmp r2,#2
 4273 0004 01D8     	 bhi .L363
 4274              	.LVL793:
 4275              	.L365:
 938:C:/Workspace/DAVE-4.4.2-64Bit/optiga-trust-m/externals/mbedtls/library\ecp.c **** 
 4276              	 .loc 1 938 0
 4277 0006 0D48     	 ldr r0,.L367
 4278              	.LVL794:
 4279 0008 17E0     	 b .L364
 4280              	.LVL795:
 4281              	.L363:
 943:C:/Workspace/DAVE-4.4.2-64Bit/optiga-trust-m/externals/mbedtls/library\ecp.c ****         return( MBEDTLS_ERR_ECP_BAD_INPUT_DATA );
 4282              	 .loc 1 943 0
 4283 000a 0B68     	 ldr r3,[r1]
 4284 000c 5A1C     	 add r2,r3,#1
 4285              	.LVL796:
 4286 000e 0A60     	 str r2,[r1]
 4287 0010 1A78     	 ldrb r2,[r3]
 4288 0012 032A     	 cmp r2,#3
 4289 0014 F7D1     	 bne .L365
 949:C:/Workspace/DAVE-4.4.2-64Bit/optiga-trust-m/externals/mbedtls/library\ecp.c ****     tls_id <<= 8;
 4290              	 .loc 1 949 0
 4291 0016 9A1C     	 add r2,r3,#2
 4292 0018 0A60     	 str r2,[r1]
 951:C:/Workspace/DAVE-4.4.2-64Bit/optiga-trust-m/externals/mbedtls/library\ecp.c **** 
 4293              	 .loc 1 951 0
 4294 001a DA1C     	 add r2,r3,#3
 4295 001c 041C     	 mov r4,r0
 949:C:/Workspace/DAVE-4.4.2-64Bit/optiga-trust-m/externals/mbedtls/library\ecp.c ****     tls_id <<= 8;
 4296              	 .loc 1 949 0
 4297 001e 5878     	 ldrb r0,[r3,#1]
 4298              	.LVL797:
 951:C:/Workspace/DAVE-4.4.2-64Bit/optiga-trust-m/externals/mbedtls/library\ecp.c **** 
 4299              	 .loc 1 951 0
 4300 0020 0A60     	 str r2,[r1]
 4301 0022 9B78     	 ldrb r3,[r3,#2]
 950:C:/Workspace/DAVE-4.4.2-64Bit/optiga-trust-m/externals/mbedtls/library\ecp.c ****     tls_id |= *(*buf)++;
 4302              	 .loc 1 950 0
 4303 0024 0002     	 lsl r0,r0,#8
 4304              	.LVL798:
 953:C:/Workspace/DAVE-4.4.2-64Bit/optiga-trust-m/externals/mbedtls/library\ecp.c ****         return( MBEDTLS_ERR_ECP_FEATURE_UNAVAILABLE );
 4305              	 .loc 1 953 0
 4306 0026 1843     	 orr r0,r3
 4307 0028 FFF7FEFF 	 bl mbedtls_ecp_curve_info_from_tls_id
 4308              	.LVL799:
 4309 002c 0028     	 cmp r0,#0
 4310 002e 03D0     	 beq .L366
 956:C:/Workspace/DAVE-4.4.2-64Bit/optiga-trust-m/externals/mbedtls/library\ecp.c **** 
 4311              	 .loc 1 956 0
 4312 0030 0378     	 ldrb r3,[r0]
 958:C:/Workspace/DAVE-4.4.2-64Bit/optiga-trust-m/externals/mbedtls/library\ecp.c **** }
 4313              	 .loc 1 958 0
 4314 0032 0020     	 mov r0,#0
 4315              	.LVL800:
 956:C:/Workspace/DAVE-4.4.2-64Bit/optiga-trust-m/externals/mbedtls/library\ecp.c **** 
 4316              	 .loc 1 956 0
 4317 0034 2370     	 strb r3,[r4]
 958:C:/Workspace/DAVE-4.4.2-64Bit/optiga-trust-m/externals/mbedtls/library\ecp.c **** }
 4318              	 .loc 1 958 0
 4319 0036 00E0     	 b .L364
 4320              	.LVL801:
 4321              	.L366:
 954:C:/Workspace/DAVE-4.4.2-64Bit/optiga-trust-m/externals/mbedtls/library\ecp.c **** 
 4322              	 .loc 1 954 0
 4323 0038 0148     	 ldr r0,.L367+4
 4324              	.LVL802:
 4325              	.L364:
 959:C:/Workspace/DAVE-4.4.2-64Bit/optiga-trust-m/externals/mbedtls/library\ecp.c **** 
 4326              	 .loc 1 959 0
 4327              	 
 4328 003a 10BD     	 pop {r4,pc}
 4329              	.L368:
 4330              	 .align 2
 4331              	.L367:
 4332 003c 80B0FFFF 	 .word -20352
 4333 0040 80B1FFFF 	 .word -20096
 4334              	 .cfi_endproc
 4335              	.LFE23:
 4337              	 .section .text.mbedtls_ecp_tls_read_group,"ax",%progbits
 4338              	 .align 1
 4339              	 .global mbedtls_ecp_tls_read_group
 4340              	 .code 16
 4341              	 .thumb_func
 4343              	mbedtls_ecp_tls_read_group:
 4344              	.LFB22:
 908:C:/Workspace/DAVE-4.4.2-64Bit/optiga-trust-m/externals/mbedtls/library\ecp.c ****     int ret;
 4345              	 .loc 1 908 0
 4346              	 .cfi_startproc
 4347              	.LVL803:
 4348 0000 37B5     	 push {r0,r1,r2,r4,r5,lr}
 4349              	.LCFI33:
 4350              	 .cfi_def_cfa_offset 24
 4351              	 .cfi_offset 0,-24
 4352              	 .cfi_offset 1,-20
 4353              	 .cfi_offset 2,-16
 4354              	 .cfi_offset 4,-12
 4355              	 .cfi_offset 5,-8
 4356              	 .cfi_offset 14,-4
 915:C:/Workspace/DAVE-4.4.2-64Bit/optiga-trust-m/externals/mbedtls/library\ecp.c ****         return( ret );
 4357              	 .loc 1 915 0
 4358 0002 6B46     	 mov r3,sp
 4359 0004 DC1D     	 add r4,r3,#7
 908:C:/Workspace/DAVE-4.4.2-64Bit/optiga-trust-m/externals/mbedtls/library\ecp.c ****     int ret;
 4360              	 .loc 1 908 0
 4361 0006 051C     	 mov r5,r0
 915:C:/Workspace/DAVE-4.4.2-64Bit/optiga-trust-m/externals/mbedtls/library\ecp.c ****         return( ret );
 4362              	 .loc 1 915 0
 4363 0008 201C     	 mov r0,r4
 4364              	.LVL804:
 4365 000a FFF7FEFF 	 bl mbedtls_ecp_tls_read_group_id
 4366              	.LVL805:
 4367 000e 0028     	 cmp r0,#0
 4368 0010 03D1     	 bne .L370
 918:C:/Workspace/DAVE-4.4.2-64Bit/optiga-trust-m/externals/mbedtls/library\ecp.c **** }
 4369              	 .loc 1 918 0
 4370 0012 2178     	 ldrb r1,[r4]
 4371 0014 281C     	 mov r0,r5
 4372              	.LVL806:
 4373 0016 FFF7FEFF 	 bl mbedtls_ecp_group_load
 4374              	.LVL807:
 4375              	.L370:
 919:C:/Workspace/DAVE-4.4.2-64Bit/optiga-trust-m/externals/mbedtls/library\ecp.c **** 
 4376              	 .loc 1 919 0
 4377              	 
 4378              	.LVL808:
 4379 001a 3EBD     	 pop {r1,r2,r3,r4,r5,pc}
 4380              	 .cfi_endproc
 4381              	.LFE22:
 4383              	 .section .text.mbedtls_ecp_tls_write_group,"ax",%progbits
 4384              	 .align 1
 4385              	 .global mbedtls_ecp_tls_write_group
 4386              	 .code 16
 4387              	 .thumb_func
 4389              	mbedtls_ecp_tls_write_group:
 4390              	.LFB24:
 966:C:/Workspace/DAVE-4.4.2-64Bit/optiga-trust-m/externals/mbedtls/library\ecp.c ****     const mbedtls_ecp_curve_info *curve_info;
 4391              	 .loc 1 966 0
 4392              	 .cfi_startproc
 4393              	.LVL809:
 4394 0000 70B5     	 push {r4,r5,r6,lr}
 4395              	.LCFI34:
 4396              	 .cfi_def_cfa_offset 16
 4397              	 .cfi_offset 4,-16
 4398              	 .cfi_offset 5,-12
 4399              	 .cfi_offset 6,-8
 4400              	 .cfi_offset 14,-4
 972:C:/Workspace/DAVE-4.4.2-64Bit/optiga-trust-m/externals/mbedtls/library\ecp.c ****         return( MBEDTLS_ERR_ECP_BAD_INPUT_DATA );
 4401              	 .loc 1 972 0
 4402 0002 0078     	 ldrb r0,[r0]
 4403              	.LVL810:
 966:C:/Workspace/DAVE-4.4.2-64Bit/optiga-trust-m/externals/mbedtls/library\ecp.c ****     const mbedtls_ecp_curve_info *curve_info;
 4404              	 .loc 1 966 0
 4405 0004 0E1C     	 mov r6,r1
 4406 0006 141C     	 mov r4,r2
 4407 0008 1D1C     	 mov r5,r3
 972:C:/Workspace/DAVE-4.4.2-64Bit/optiga-trust-m/externals/mbedtls/library\ecp.c ****         return( MBEDTLS_ERR_ECP_BAD_INPUT_DATA );
 4408              	 .loc 1 972 0
 4409 000a FFF7FEFF 	 bl mbedtls_ecp_curve_info_from_grp_id
 4410              	.LVL811:
 4411 000e 0028     	 cmp r0,#0
 4412 0010 0BD0     	 beq .L374
 978:C:/Workspace/DAVE-4.4.2-64Bit/optiga-trust-m/externals/mbedtls/library\ecp.c ****     if( blen < *olen )
 4413              	 .loc 1 978 0
 4414 0012 0323     	 mov r3,#3
 4415 0014 3360     	 str r3,[r6]
 979:C:/Workspace/DAVE-4.4.2-64Bit/optiga-trust-m/externals/mbedtls/library\ecp.c ****         return( MBEDTLS_ERR_ECP_BUFFER_TOO_SMALL );
 4416              	 .loc 1 979 0
 4417 0016 022D     	 cmp r5,#2
 4418 0018 09D9     	 bls .L375
 4419              	.LVL812:
 985:C:/Workspace/DAVE-4.4.2-64Bit/optiga-trust-m/externals/mbedtls/library\ecp.c **** 
 4420              	 .loc 1 985 0
 4421 001a 2370     	 strb r3,[r4]
 990:C:/Workspace/DAVE-4.4.2-64Bit/optiga-trust-m/externals/mbedtls/library\ecp.c ****     buf[1] = curve_info->tls_id & 0xFF;
 4422              	 .loc 1 990 0
 4423 001c 4388     	 ldrh r3,[r0,#2]
 4424 001e 1B0A     	 lsr r3,r3,#8
 4425 0020 6370     	 strb r3,[r4,#1]
 991:C:/Workspace/DAVE-4.4.2-64Bit/optiga-trust-m/externals/mbedtls/library\ecp.c **** 
 4426              	 .loc 1 991 0
 4427 0022 4388     	 ldrh r3,[r0,#2]
 993:C:/Workspace/DAVE-4.4.2-64Bit/optiga-trust-m/externals/mbedtls/library\ecp.c **** }
 4428              	 .loc 1 993 0
 4429 0024 0020     	 mov r0,#0
 4430              	.LVL813:
 991:C:/Workspace/DAVE-4.4.2-64Bit/optiga-trust-m/externals/mbedtls/library\ecp.c **** 
 4431              	 .loc 1 991 0
 4432 0026 A370     	 strb r3,[r4,#2]
 993:C:/Workspace/DAVE-4.4.2-64Bit/optiga-trust-m/externals/mbedtls/library\ecp.c **** }
 4433              	 .loc 1 993 0
 4434 0028 02E0     	 b .L373
 4435              	.LVL814:
 4436              	.L374:
 973:C:/Workspace/DAVE-4.4.2-64Bit/optiga-trust-m/externals/mbedtls/library\ecp.c **** 
 4437              	 .loc 1 973 0
 4438 002a 0248     	 ldr r0,.L376
 4439              	.LVL815:
 4440 002c 00E0     	 b .L373
 4441              	.LVL816:
 4442              	.L375:
 980:C:/Workspace/DAVE-4.4.2-64Bit/optiga-trust-m/externals/mbedtls/library\ecp.c **** 
 4443              	 .loc 1 980 0
 4444 002e 0248     	 ldr r0,.L376+4
 4445              	.LVL817:
 4446              	.L373:
 994:C:/Workspace/DAVE-4.4.2-64Bit/optiga-trust-m/externals/mbedtls/library\ecp.c **** 
 4447              	 .loc 1 994 0
 4448              	 
 4449              	.LVL818:
 4450              	.LVL819:
 4451 0030 70BD     	 pop {r4,r5,r6,pc}
 4452              	.L377:
 4453 0032 C046     	 .align 2
 4454              	.L376:
 4455 0034 80B0FFFF 	 .word -20352
 4456 0038 00B1FFFF 	 .word -20224
 4457              	 .cfi_endproc
 4458              	.LFE24:
 4460              	 .section .text.mbedtls_ecp_check_pubkey,"ax",%progbits
 4461              	 .align 1
 4462              	 .global mbedtls_ecp_check_pubkey
 4463              	 .code 16
 4464              	 .thumb_func
 4466              	mbedtls_ecp_check_pubkey:
 4467              	.LFB46:
1948:C:/Workspace/DAVE-4.4.2-64Bit/optiga-trust-m/externals/mbedtls/library\ecp.c **** 
1949:C:/Workspace/DAVE-4.4.2-64Bit/optiga-trust-m/externals/mbedtls/library\ecp.c **** /*
1950:C:/Workspace/DAVE-4.4.2-64Bit/optiga-trust-m/externals/mbedtls/library\ecp.c ****  * Pick window size based on curve size and whether we optimize for base point
1951:C:/Workspace/DAVE-4.4.2-64Bit/optiga-trust-m/externals/mbedtls/library\ecp.c ****  */
1952:C:/Workspace/DAVE-4.4.2-64Bit/optiga-trust-m/externals/mbedtls/library\ecp.c **** static unsigned char ecp_pick_window_size( const mbedtls_ecp_group *grp,
1953:C:/Workspace/DAVE-4.4.2-64Bit/optiga-trust-m/externals/mbedtls/library\ecp.c ****                                            unsigned char p_eq_g )
1954:C:/Workspace/DAVE-4.4.2-64Bit/optiga-trust-m/externals/mbedtls/library\ecp.c **** {
1955:C:/Workspace/DAVE-4.4.2-64Bit/optiga-trust-m/externals/mbedtls/library\ecp.c ****     unsigned char w;
1956:C:/Workspace/DAVE-4.4.2-64Bit/optiga-trust-m/externals/mbedtls/library\ecp.c **** 
1957:C:/Workspace/DAVE-4.4.2-64Bit/optiga-trust-m/externals/mbedtls/library\ecp.c ****     /*
1958:C:/Workspace/DAVE-4.4.2-64Bit/optiga-trust-m/externals/mbedtls/library\ecp.c ****      * Minimize the number of multiplications, that is minimize
1959:C:/Workspace/DAVE-4.4.2-64Bit/optiga-trust-m/externals/mbedtls/library\ecp.c ****      * 10 * d * w + 18 * 2^(w-1) + 11 * d + 7 * w, with d = ceil( nbits / w )
1960:C:/Workspace/DAVE-4.4.2-64Bit/optiga-trust-m/externals/mbedtls/library\ecp.c ****      * (see costs of the various parts, with 1S = 1M)
1961:C:/Workspace/DAVE-4.4.2-64Bit/optiga-trust-m/externals/mbedtls/library\ecp.c ****      */
1962:C:/Workspace/DAVE-4.4.2-64Bit/optiga-trust-m/externals/mbedtls/library\ecp.c ****     w = grp->nbits >= 384 ? 5 : 4;
1963:C:/Workspace/DAVE-4.4.2-64Bit/optiga-trust-m/externals/mbedtls/library\ecp.c **** 
1964:C:/Workspace/DAVE-4.4.2-64Bit/optiga-trust-m/externals/mbedtls/library\ecp.c ****     /*
1965:C:/Workspace/DAVE-4.4.2-64Bit/optiga-trust-m/externals/mbedtls/library\ecp.c ****      * If P == G, pre-compute a bit more, since this may be re-used later.
1966:C:/Workspace/DAVE-4.4.2-64Bit/optiga-trust-m/externals/mbedtls/library\ecp.c ****      * Just adding one avoids upping the cost of the first mul too much,
1967:C:/Workspace/DAVE-4.4.2-64Bit/optiga-trust-m/externals/mbedtls/library\ecp.c ****      * and the memory cost too.
1968:C:/Workspace/DAVE-4.4.2-64Bit/optiga-trust-m/externals/mbedtls/library\ecp.c ****      */
1969:C:/Workspace/DAVE-4.4.2-64Bit/optiga-trust-m/externals/mbedtls/library\ecp.c ****     if( p_eq_g )
1970:C:/Workspace/DAVE-4.4.2-64Bit/optiga-trust-m/externals/mbedtls/library\ecp.c ****         w++;
1971:C:/Workspace/DAVE-4.4.2-64Bit/optiga-trust-m/externals/mbedtls/library\ecp.c **** 
1972:C:/Workspace/DAVE-4.4.2-64Bit/optiga-trust-m/externals/mbedtls/library\ecp.c ****     /*
1973:C:/Workspace/DAVE-4.4.2-64Bit/optiga-trust-m/externals/mbedtls/library\ecp.c ****      * Make sure w is within bounds.
1974:C:/Workspace/DAVE-4.4.2-64Bit/optiga-trust-m/externals/mbedtls/library\ecp.c ****      * (The last test is useful only for very small curves in the test suite.)
1975:C:/Workspace/DAVE-4.4.2-64Bit/optiga-trust-m/externals/mbedtls/library\ecp.c ****      */
1976:C:/Workspace/DAVE-4.4.2-64Bit/optiga-trust-m/externals/mbedtls/library\ecp.c ****     if( w > MBEDTLS_ECP_WINDOW_SIZE )
1977:C:/Workspace/DAVE-4.4.2-64Bit/optiga-trust-m/externals/mbedtls/library\ecp.c ****         w = MBEDTLS_ECP_WINDOW_SIZE;
1978:C:/Workspace/DAVE-4.4.2-64Bit/optiga-trust-m/externals/mbedtls/library\ecp.c ****     if( w >= grp->nbits )
1979:C:/Workspace/DAVE-4.4.2-64Bit/optiga-trust-m/externals/mbedtls/library\ecp.c ****         w = 2;
1980:C:/Workspace/DAVE-4.4.2-64Bit/optiga-trust-m/externals/mbedtls/library\ecp.c **** 
1981:C:/Workspace/DAVE-4.4.2-64Bit/optiga-trust-m/externals/mbedtls/library\ecp.c ****     return( w );
1982:C:/Workspace/DAVE-4.4.2-64Bit/optiga-trust-m/externals/mbedtls/library\ecp.c **** }
1983:C:/Workspace/DAVE-4.4.2-64Bit/optiga-trust-m/externals/mbedtls/library\ecp.c **** 
1984:C:/Workspace/DAVE-4.4.2-64Bit/optiga-trust-m/externals/mbedtls/library\ecp.c **** /*
1985:C:/Workspace/DAVE-4.4.2-64Bit/optiga-trust-m/externals/mbedtls/library\ecp.c ****  * Multiplication using the comb method - for curves in short Weierstrass form
1986:C:/Workspace/DAVE-4.4.2-64Bit/optiga-trust-m/externals/mbedtls/library\ecp.c ****  *
1987:C:/Workspace/DAVE-4.4.2-64Bit/optiga-trust-m/externals/mbedtls/library\ecp.c ****  * This function is mainly responsible for administrative work:
1988:C:/Workspace/DAVE-4.4.2-64Bit/optiga-trust-m/externals/mbedtls/library\ecp.c ****  * - managing the restart context if enabled
1989:C:/Workspace/DAVE-4.4.2-64Bit/optiga-trust-m/externals/mbedtls/library\ecp.c ****  * - managing the table of precomputed points (passed between the below two
1990:C:/Workspace/DAVE-4.4.2-64Bit/optiga-trust-m/externals/mbedtls/library\ecp.c ****  *   functions): allocation, computation, ownership tranfer, freeing.
1991:C:/Workspace/DAVE-4.4.2-64Bit/optiga-trust-m/externals/mbedtls/library\ecp.c ****  *
1992:C:/Workspace/DAVE-4.4.2-64Bit/optiga-trust-m/externals/mbedtls/library\ecp.c ****  * It delegates the actual arithmetic work to:
1993:C:/Workspace/DAVE-4.4.2-64Bit/optiga-trust-m/externals/mbedtls/library\ecp.c ****  *      ecp_precompute_comb() and ecp_mul_comb_with_precomp()
1994:C:/Workspace/DAVE-4.4.2-64Bit/optiga-trust-m/externals/mbedtls/library\ecp.c ****  *
1995:C:/Workspace/DAVE-4.4.2-64Bit/optiga-trust-m/externals/mbedtls/library\ecp.c ****  * See comments on ecp_comb_recode_core() regarding the computation strategy.
1996:C:/Workspace/DAVE-4.4.2-64Bit/optiga-trust-m/externals/mbedtls/library\ecp.c ****  */
1997:C:/Workspace/DAVE-4.4.2-64Bit/optiga-trust-m/externals/mbedtls/library\ecp.c **** static int ecp_mul_comb( mbedtls_ecp_group *grp, mbedtls_ecp_point *R,
1998:C:/Workspace/DAVE-4.4.2-64Bit/optiga-trust-m/externals/mbedtls/library\ecp.c ****                          const mbedtls_mpi *m, const mbedtls_ecp_point *P,
1999:C:/Workspace/DAVE-4.4.2-64Bit/optiga-trust-m/externals/mbedtls/library\ecp.c ****                          int (*f_rng)(void *, unsigned char *, size_t),
2000:C:/Workspace/DAVE-4.4.2-64Bit/optiga-trust-m/externals/mbedtls/library\ecp.c ****                          void *p_rng,
2001:C:/Workspace/DAVE-4.4.2-64Bit/optiga-trust-m/externals/mbedtls/library\ecp.c ****                          mbedtls_ecp_restart_ctx *rs_ctx )
2002:C:/Workspace/DAVE-4.4.2-64Bit/optiga-trust-m/externals/mbedtls/library\ecp.c **** {
2003:C:/Workspace/DAVE-4.4.2-64Bit/optiga-trust-m/externals/mbedtls/library\ecp.c ****     int ret;
2004:C:/Workspace/DAVE-4.4.2-64Bit/optiga-trust-m/externals/mbedtls/library\ecp.c ****     unsigned char w, p_eq_g, i;
2005:C:/Workspace/DAVE-4.4.2-64Bit/optiga-trust-m/externals/mbedtls/library\ecp.c ****     size_t d;
2006:C:/Workspace/DAVE-4.4.2-64Bit/optiga-trust-m/externals/mbedtls/library\ecp.c ****     unsigned char T_size, T_ok;
2007:C:/Workspace/DAVE-4.4.2-64Bit/optiga-trust-m/externals/mbedtls/library\ecp.c ****     mbedtls_ecp_point *T;
2008:C:/Workspace/DAVE-4.4.2-64Bit/optiga-trust-m/externals/mbedtls/library\ecp.c **** 
2009:C:/Workspace/DAVE-4.4.2-64Bit/optiga-trust-m/externals/mbedtls/library\ecp.c ****     ECP_RS_ENTER( rsm );
2010:C:/Workspace/DAVE-4.4.2-64Bit/optiga-trust-m/externals/mbedtls/library\ecp.c **** 
2011:C:/Workspace/DAVE-4.4.2-64Bit/optiga-trust-m/externals/mbedtls/library\ecp.c ****     /* Is P the base point ? */
2012:C:/Workspace/DAVE-4.4.2-64Bit/optiga-trust-m/externals/mbedtls/library\ecp.c **** #if MBEDTLS_ECP_FIXED_POINT_OPTIM == 1
2013:C:/Workspace/DAVE-4.4.2-64Bit/optiga-trust-m/externals/mbedtls/library\ecp.c ****     p_eq_g = ( mbedtls_mpi_cmp_mpi( &P->Y, &grp->G.Y ) == 0 &&
2014:C:/Workspace/DAVE-4.4.2-64Bit/optiga-trust-m/externals/mbedtls/library\ecp.c ****                mbedtls_mpi_cmp_mpi( &P->X, &grp->G.X ) == 0 );
2015:C:/Workspace/DAVE-4.4.2-64Bit/optiga-trust-m/externals/mbedtls/library\ecp.c **** #else
2016:C:/Workspace/DAVE-4.4.2-64Bit/optiga-trust-m/externals/mbedtls/library\ecp.c ****     p_eq_g = 0;
2017:C:/Workspace/DAVE-4.4.2-64Bit/optiga-trust-m/externals/mbedtls/library\ecp.c **** #endif
2018:C:/Workspace/DAVE-4.4.2-64Bit/optiga-trust-m/externals/mbedtls/library\ecp.c **** 
2019:C:/Workspace/DAVE-4.4.2-64Bit/optiga-trust-m/externals/mbedtls/library\ecp.c ****     /* Pick window size and deduce related sizes */
2020:C:/Workspace/DAVE-4.4.2-64Bit/optiga-trust-m/externals/mbedtls/library\ecp.c ****     w = ecp_pick_window_size( grp, p_eq_g );
2021:C:/Workspace/DAVE-4.4.2-64Bit/optiga-trust-m/externals/mbedtls/library\ecp.c ****     T_size = 1U << ( w - 1 );
2022:C:/Workspace/DAVE-4.4.2-64Bit/optiga-trust-m/externals/mbedtls/library\ecp.c ****     d = ( grp->nbits + w - 1 ) / w;
2023:C:/Workspace/DAVE-4.4.2-64Bit/optiga-trust-m/externals/mbedtls/library\ecp.c **** 
2024:C:/Workspace/DAVE-4.4.2-64Bit/optiga-trust-m/externals/mbedtls/library\ecp.c ****     /* Pre-computed table: do we have it already for the base point? */
2025:C:/Workspace/DAVE-4.4.2-64Bit/optiga-trust-m/externals/mbedtls/library\ecp.c ****     if( p_eq_g && grp->T != NULL )
2026:C:/Workspace/DAVE-4.4.2-64Bit/optiga-trust-m/externals/mbedtls/library\ecp.c ****     {
2027:C:/Workspace/DAVE-4.4.2-64Bit/optiga-trust-m/externals/mbedtls/library\ecp.c ****         /* second pointer to the same table, will be deleted on exit */
2028:C:/Workspace/DAVE-4.4.2-64Bit/optiga-trust-m/externals/mbedtls/library\ecp.c ****         T = grp->T;
2029:C:/Workspace/DAVE-4.4.2-64Bit/optiga-trust-m/externals/mbedtls/library\ecp.c ****         T_ok = 1;
2030:C:/Workspace/DAVE-4.4.2-64Bit/optiga-trust-m/externals/mbedtls/library\ecp.c ****     }
2031:C:/Workspace/DAVE-4.4.2-64Bit/optiga-trust-m/externals/mbedtls/library\ecp.c ****     else
2032:C:/Workspace/DAVE-4.4.2-64Bit/optiga-trust-m/externals/mbedtls/library\ecp.c **** #if defined(MBEDTLS_ECP_RESTARTABLE)
2033:C:/Workspace/DAVE-4.4.2-64Bit/optiga-trust-m/externals/mbedtls/library\ecp.c ****     /* Pre-computed table: do we have one in progress? complete? */
2034:C:/Workspace/DAVE-4.4.2-64Bit/optiga-trust-m/externals/mbedtls/library\ecp.c ****     if( rs_ctx != NULL && rs_ctx->rsm != NULL && rs_ctx->rsm->T != NULL )
2035:C:/Workspace/DAVE-4.4.2-64Bit/optiga-trust-m/externals/mbedtls/library\ecp.c ****     {
2036:C:/Workspace/DAVE-4.4.2-64Bit/optiga-trust-m/externals/mbedtls/library\ecp.c ****         /* transfer ownership of T from rsm to local function */
2037:C:/Workspace/DAVE-4.4.2-64Bit/optiga-trust-m/externals/mbedtls/library\ecp.c ****         T = rs_ctx->rsm->T;
2038:C:/Workspace/DAVE-4.4.2-64Bit/optiga-trust-m/externals/mbedtls/library\ecp.c ****         rs_ctx->rsm->T = NULL;
2039:C:/Workspace/DAVE-4.4.2-64Bit/optiga-trust-m/externals/mbedtls/library\ecp.c ****         rs_ctx->rsm->T_size = 0;
2040:C:/Workspace/DAVE-4.4.2-64Bit/optiga-trust-m/externals/mbedtls/library\ecp.c **** 
2041:C:/Workspace/DAVE-4.4.2-64Bit/optiga-trust-m/externals/mbedtls/library\ecp.c ****         /* This effectively jumps to the call to mul_comb_after_precomp() */
2042:C:/Workspace/DAVE-4.4.2-64Bit/optiga-trust-m/externals/mbedtls/library\ecp.c ****         T_ok = rs_ctx->rsm->state >= ecp_rsm_comb_core;
2043:C:/Workspace/DAVE-4.4.2-64Bit/optiga-trust-m/externals/mbedtls/library\ecp.c ****     }
2044:C:/Workspace/DAVE-4.4.2-64Bit/optiga-trust-m/externals/mbedtls/library\ecp.c ****     else
2045:C:/Workspace/DAVE-4.4.2-64Bit/optiga-trust-m/externals/mbedtls/library\ecp.c **** #endif
2046:C:/Workspace/DAVE-4.4.2-64Bit/optiga-trust-m/externals/mbedtls/library\ecp.c ****     /* Allocate table if we didn't have any */
2047:C:/Workspace/DAVE-4.4.2-64Bit/optiga-trust-m/externals/mbedtls/library\ecp.c ****     {
2048:C:/Workspace/DAVE-4.4.2-64Bit/optiga-trust-m/externals/mbedtls/library\ecp.c ****         T = mbedtls_calloc( T_size, sizeof( mbedtls_ecp_point ) );
2049:C:/Workspace/DAVE-4.4.2-64Bit/optiga-trust-m/externals/mbedtls/library\ecp.c ****         if( T == NULL )
2050:C:/Workspace/DAVE-4.4.2-64Bit/optiga-trust-m/externals/mbedtls/library\ecp.c ****         {
2051:C:/Workspace/DAVE-4.4.2-64Bit/optiga-trust-m/externals/mbedtls/library\ecp.c ****             ret = MBEDTLS_ERR_ECP_ALLOC_FAILED;
2052:C:/Workspace/DAVE-4.4.2-64Bit/optiga-trust-m/externals/mbedtls/library\ecp.c ****             goto cleanup;
2053:C:/Workspace/DAVE-4.4.2-64Bit/optiga-trust-m/externals/mbedtls/library\ecp.c ****         }
2054:C:/Workspace/DAVE-4.4.2-64Bit/optiga-trust-m/externals/mbedtls/library\ecp.c **** 
2055:C:/Workspace/DAVE-4.4.2-64Bit/optiga-trust-m/externals/mbedtls/library\ecp.c ****         for( i = 0; i < T_size; i++ )
2056:C:/Workspace/DAVE-4.4.2-64Bit/optiga-trust-m/externals/mbedtls/library\ecp.c ****             mbedtls_ecp_point_init( &T[i] );
2057:C:/Workspace/DAVE-4.4.2-64Bit/optiga-trust-m/externals/mbedtls/library\ecp.c **** 
2058:C:/Workspace/DAVE-4.4.2-64Bit/optiga-trust-m/externals/mbedtls/library\ecp.c ****         T_ok = 0;
2059:C:/Workspace/DAVE-4.4.2-64Bit/optiga-trust-m/externals/mbedtls/library\ecp.c ****     }
2060:C:/Workspace/DAVE-4.4.2-64Bit/optiga-trust-m/externals/mbedtls/library\ecp.c **** 
2061:C:/Workspace/DAVE-4.4.2-64Bit/optiga-trust-m/externals/mbedtls/library\ecp.c ****     /* Compute table (or finish computing it) if not done already */
2062:C:/Workspace/DAVE-4.4.2-64Bit/optiga-trust-m/externals/mbedtls/library\ecp.c ****     if( !T_ok )
2063:C:/Workspace/DAVE-4.4.2-64Bit/optiga-trust-m/externals/mbedtls/library\ecp.c ****     {
2064:C:/Workspace/DAVE-4.4.2-64Bit/optiga-trust-m/externals/mbedtls/library\ecp.c ****         MBEDTLS_MPI_CHK( ecp_precompute_comb( grp, T, P, w, d, rs_ctx ) );
2065:C:/Workspace/DAVE-4.4.2-64Bit/optiga-trust-m/externals/mbedtls/library\ecp.c **** 
2066:C:/Workspace/DAVE-4.4.2-64Bit/optiga-trust-m/externals/mbedtls/library\ecp.c ****         if( p_eq_g )
2067:C:/Workspace/DAVE-4.4.2-64Bit/optiga-trust-m/externals/mbedtls/library\ecp.c ****         {
2068:C:/Workspace/DAVE-4.4.2-64Bit/optiga-trust-m/externals/mbedtls/library\ecp.c ****             /* almost transfer ownership of T to the group, but keep a copy of
2069:C:/Workspace/DAVE-4.4.2-64Bit/optiga-trust-m/externals/mbedtls/library\ecp.c ****              * the pointer to use for calling the next function more easily */
2070:C:/Workspace/DAVE-4.4.2-64Bit/optiga-trust-m/externals/mbedtls/library\ecp.c ****             grp->T = T;
2071:C:/Workspace/DAVE-4.4.2-64Bit/optiga-trust-m/externals/mbedtls/library\ecp.c ****             grp->T_size = T_size;
2072:C:/Workspace/DAVE-4.4.2-64Bit/optiga-trust-m/externals/mbedtls/library\ecp.c ****         }
2073:C:/Workspace/DAVE-4.4.2-64Bit/optiga-trust-m/externals/mbedtls/library\ecp.c ****     }
2074:C:/Workspace/DAVE-4.4.2-64Bit/optiga-trust-m/externals/mbedtls/library\ecp.c **** 
2075:C:/Workspace/DAVE-4.4.2-64Bit/optiga-trust-m/externals/mbedtls/library\ecp.c ****     /* Actual comb multiplication using precomputed points */
2076:C:/Workspace/DAVE-4.4.2-64Bit/optiga-trust-m/externals/mbedtls/library\ecp.c ****     MBEDTLS_MPI_CHK( ecp_mul_comb_after_precomp( grp, R, m,
2077:C:/Workspace/DAVE-4.4.2-64Bit/optiga-trust-m/externals/mbedtls/library\ecp.c ****                                                  T, T_size, w, d,
2078:C:/Workspace/DAVE-4.4.2-64Bit/optiga-trust-m/externals/mbedtls/library\ecp.c ****                                                  f_rng, p_rng, rs_ctx ) );
2079:C:/Workspace/DAVE-4.4.2-64Bit/optiga-trust-m/externals/mbedtls/library\ecp.c **** 
2080:C:/Workspace/DAVE-4.4.2-64Bit/optiga-trust-m/externals/mbedtls/library\ecp.c **** cleanup:
2081:C:/Workspace/DAVE-4.4.2-64Bit/optiga-trust-m/externals/mbedtls/library\ecp.c **** 
2082:C:/Workspace/DAVE-4.4.2-64Bit/optiga-trust-m/externals/mbedtls/library\ecp.c ****     /* does T belong to the group? */
2083:C:/Workspace/DAVE-4.4.2-64Bit/optiga-trust-m/externals/mbedtls/library\ecp.c ****     if( T == grp->T )
2084:C:/Workspace/DAVE-4.4.2-64Bit/optiga-trust-m/externals/mbedtls/library\ecp.c ****         T = NULL;
2085:C:/Workspace/DAVE-4.4.2-64Bit/optiga-trust-m/externals/mbedtls/library\ecp.c **** 
2086:C:/Workspace/DAVE-4.4.2-64Bit/optiga-trust-m/externals/mbedtls/library\ecp.c ****     /* does T belong to the restart context? */
2087:C:/Workspace/DAVE-4.4.2-64Bit/optiga-trust-m/externals/mbedtls/library\ecp.c **** #if defined(MBEDTLS_ECP_RESTARTABLE)
2088:C:/Workspace/DAVE-4.4.2-64Bit/optiga-trust-m/externals/mbedtls/library\ecp.c ****     if( rs_ctx != NULL && rs_ctx->rsm != NULL && ret == MBEDTLS_ERR_ECP_IN_PROGRESS && T != NULL )
2089:C:/Workspace/DAVE-4.4.2-64Bit/optiga-trust-m/externals/mbedtls/library\ecp.c ****     {
2090:C:/Workspace/DAVE-4.4.2-64Bit/optiga-trust-m/externals/mbedtls/library\ecp.c ****         /* transfer ownership of T from local function to rsm */
2091:C:/Workspace/DAVE-4.4.2-64Bit/optiga-trust-m/externals/mbedtls/library\ecp.c ****         rs_ctx->rsm->T_size = T_size;
2092:C:/Workspace/DAVE-4.4.2-64Bit/optiga-trust-m/externals/mbedtls/library\ecp.c ****         rs_ctx->rsm->T = T;
2093:C:/Workspace/DAVE-4.4.2-64Bit/optiga-trust-m/externals/mbedtls/library\ecp.c ****         T = NULL;
2094:C:/Workspace/DAVE-4.4.2-64Bit/optiga-trust-m/externals/mbedtls/library\ecp.c ****     }
2095:C:/Workspace/DAVE-4.4.2-64Bit/optiga-trust-m/externals/mbedtls/library\ecp.c **** #endif
2096:C:/Workspace/DAVE-4.4.2-64Bit/optiga-trust-m/externals/mbedtls/library\ecp.c **** 
2097:C:/Workspace/DAVE-4.4.2-64Bit/optiga-trust-m/externals/mbedtls/library\ecp.c ****     /* did T belong to us? then let's destroy it! */
2098:C:/Workspace/DAVE-4.4.2-64Bit/optiga-trust-m/externals/mbedtls/library\ecp.c ****     if( T != NULL )
2099:C:/Workspace/DAVE-4.4.2-64Bit/optiga-trust-m/externals/mbedtls/library\ecp.c ****     {
2100:C:/Workspace/DAVE-4.4.2-64Bit/optiga-trust-m/externals/mbedtls/library\ecp.c ****         for( i = 0; i < T_size; i++ )
2101:C:/Workspace/DAVE-4.4.2-64Bit/optiga-trust-m/externals/mbedtls/library\ecp.c ****             mbedtls_ecp_point_free( &T[i] );
2102:C:/Workspace/DAVE-4.4.2-64Bit/optiga-trust-m/externals/mbedtls/library\ecp.c ****         mbedtls_free( T );
2103:C:/Workspace/DAVE-4.4.2-64Bit/optiga-trust-m/externals/mbedtls/library\ecp.c ****     }
2104:C:/Workspace/DAVE-4.4.2-64Bit/optiga-trust-m/externals/mbedtls/library\ecp.c **** 
2105:C:/Workspace/DAVE-4.4.2-64Bit/optiga-trust-m/externals/mbedtls/library\ecp.c ****     /* don't free R while in progress in case R == P */
2106:C:/Workspace/DAVE-4.4.2-64Bit/optiga-trust-m/externals/mbedtls/library\ecp.c **** #if defined(MBEDTLS_ECP_RESTARTABLE)
2107:C:/Workspace/DAVE-4.4.2-64Bit/optiga-trust-m/externals/mbedtls/library\ecp.c ****     if( ret != MBEDTLS_ERR_ECP_IN_PROGRESS )
2108:C:/Workspace/DAVE-4.4.2-64Bit/optiga-trust-m/externals/mbedtls/library\ecp.c **** #endif
2109:C:/Workspace/DAVE-4.4.2-64Bit/optiga-trust-m/externals/mbedtls/library\ecp.c ****     /* prevent caller from using invalid value */
2110:C:/Workspace/DAVE-4.4.2-64Bit/optiga-trust-m/externals/mbedtls/library\ecp.c ****     if( ret != 0 )
2111:C:/Workspace/DAVE-4.4.2-64Bit/optiga-trust-m/externals/mbedtls/library\ecp.c ****         mbedtls_ecp_point_free( R );
2112:C:/Workspace/DAVE-4.4.2-64Bit/optiga-trust-m/externals/mbedtls/library\ecp.c **** 
2113:C:/Workspace/DAVE-4.4.2-64Bit/optiga-trust-m/externals/mbedtls/library\ecp.c ****     ECP_RS_LEAVE( rsm );
2114:C:/Workspace/DAVE-4.4.2-64Bit/optiga-trust-m/externals/mbedtls/library\ecp.c **** 
2115:C:/Workspace/DAVE-4.4.2-64Bit/optiga-trust-m/externals/mbedtls/library\ecp.c ****     return( ret );
2116:C:/Workspace/DAVE-4.4.2-64Bit/optiga-trust-m/externals/mbedtls/library\ecp.c **** }
2117:C:/Workspace/DAVE-4.4.2-64Bit/optiga-trust-m/externals/mbedtls/library\ecp.c **** 
2118:C:/Workspace/DAVE-4.4.2-64Bit/optiga-trust-m/externals/mbedtls/library\ecp.c **** #endif /* ECP_SHORTWEIERSTRASS */
2119:C:/Workspace/DAVE-4.4.2-64Bit/optiga-trust-m/externals/mbedtls/library\ecp.c **** 
2120:C:/Workspace/DAVE-4.4.2-64Bit/optiga-trust-m/externals/mbedtls/library\ecp.c **** #if defined(ECP_MONTGOMERY)
2121:C:/Workspace/DAVE-4.4.2-64Bit/optiga-trust-m/externals/mbedtls/library\ecp.c **** /*
2122:C:/Workspace/DAVE-4.4.2-64Bit/optiga-trust-m/externals/mbedtls/library\ecp.c ****  * For Montgomery curves, we do all the internal arithmetic in projective
2123:C:/Workspace/DAVE-4.4.2-64Bit/optiga-trust-m/externals/mbedtls/library\ecp.c ****  * coordinates. Import/export of points uses only the x coordinates, which is
2124:C:/Workspace/DAVE-4.4.2-64Bit/optiga-trust-m/externals/mbedtls/library\ecp.c ****  * internaly represented as X / Z.
2125:C:/Workspace/DAVE-4.4.2-64Bit/optiga-trust-m/externals/mbedtls/library\ecp.c ****  *
2126:C:/Workspace/DAVE-4.4.2-64Bit/optiga-trust-m/externals/mbedtls/library\ecp.c ****  * For scalar multiplication, we'll use a Montgomery ladder.
2127:C:/Workspace/DAVE-4.4.2-64Bit/optiga-trust-m/externals/mbedtls/library\ecp.c ****  */
2128:C:/Workspace/DAVE-4.4.2-64Bit/optiga-trust-m/externals/mbedtls/library\ecp.c **** 
2129:C:/Workspace/DAVE-4.4.2-64Bit/optiga-trust-m/externals/mbedtls/library\ecp.c **** /*
2130:C:/Workspace/DAVE-4.4.2-64Bit/optiga-trust-m/externals/mbedtls/library\ecp.c ****  * Normalize Montgomery x/z coordinates: X = X/Z, Z = 1
2131:C:/Workspace/DAVE-4.4.2-64Bit/optiga-trust-m/externals/mbedtls/library\ecp.c ****  * Cost: 1M + 1I
2132:C:/Workspace/DAVE-4.4.2-64Bit/optiga-trust-m/externals/mbedtls/library\ecp.c ****  */
2133:C:/Workspace/DAVE-4.4.2-64Bit/optiga-trust-m/externals/mbedtls/library\ecp.c **** static int ecp_normalize_mxz( const mbedtls_ecp_group *grp, mbedtls_ecp_point *P )
2134:C:/Workspace/DAVE-4.4.2-64Bit/optiga-trust-m/externals/mbedtls/library\ecp.c **** {
2135:C:/Workspace/DAVE-4.4.2-64Bit/optiga-trust-m/externals/mbedtls/library\ecp.c ****     int ret;
2136:C:/Workspace/DAVE-4.4.2-64Bit/optiga-trust-m/externals/mbedtls/library\ecp.c **** 
2137:C:/Workspace/DAVE-4.4.2-64Bit/optiga-trust-m/externals/mbedtls/library\ecp.c **** #if defined(MBEDTLS_ECP_NORMALIZE_MXZ_ALT)
2138:C:/Workspace/DAVE-4.4.2-64Bit/optiga-trust-m/externals/mbedtls/library\ecp.c ****     if( mbedtls_internal_ecp_grp_capable( grp ) )
2139:C:/Workspace/DAVE-4.4.2-64Bit/optiga-trust-m/externals/mbedtls/library\ecp.c ****         return( mbedtls_internal_ecp_normalize_mxz( grp, P ) );
2140:C:/Workspace/DAVE-4.4.2-64Bit/optiga-trust-m/externals/mbedtls/library\ecp.c **** #endif /* MBEDTLS_ECP_NORMALIZE_MXZ_ALT */
2141:C:/Workspace/DAVE-4.4.2-64Bit/optiga-trust-m/externals/mbedtls/library\ecp.c **** 
2142:C:/Workspace/DAVE-4.4.2-64Bit/optiga-trust-m/externals/mbedtls/library\ecp.c ****     MBEDTLS_MPI_CHK( mbedtls_mpi_inv_mod( &P->Z, &P->Z, &grp->P ) );
2143:C:/Workspace/DAVE-4.4.2-64Bit/optiga-trust-m/externals/mbedtls/library\ecp.c ****     MBEDTLS_MPI_CHK( mbedtls_mpi_mul_mpi( &P->X, &P->X, &P->Z ) ); MOD_MUL( P->X );
2144:C:/Workspace/DAVE-4.4.2-64Bit/optiga-trust-m/externals/mbedtls/library\ecp.c ****     MBEDTLS_MPI_CHK( mbedtls_mpi_lset( &P->Z, 1 ) );
2145:C:/Workspace/DAVE-4.4.2-64Bit/optiga-trust-m/externals/mbedtls/library\ecp.c **** 
2146:C:/Workspace/DAVE-4.4.2-64Bit/optiga-trust-m/externals/mbedtls/library\ecp.c **** cleanup:
2147:C:/Workspace/DAVE-4.4.2-64Bit/optiga-trust-m/externals/mbedtls/library\ecp.c ****     return( ret );
2148:C:/Workspace/DAVE-4.4.2-64Bit/optiga-trust-m/externals/mbedtls/library\ecp.c **** }
2149:C:/Workspace/DAVE-4.4.2-64Bit/optiga-trust-m/externals/mbedtls/library\ecp.c **** 
2150:C:/Workspace/DAVE-4.4.2-64Bit/optiga-trust-m/externals/mbedtls/library\ecp.c **** /*
2151:C:/Workspace/DAVE-4.4.2-64Bit/optiga-trust-m/externals/mbedtls/library\ecp.c ****  * Randomize projective x/z coordinates:
2152:C:/Workspace/DAVE-4.4.2-64Bit/optiga-trust-m/externals/mbedtls/library\ecp.c ****  * (X, Z) -> (l X, l Z) for random l
2153:C:/Workspace/DAVE-4.4.2-64Bit/optiga-trust-m/externals/mbedtls/library\ecp.c ****  * This is sort of the reverse operation of ecp_normalize_mxz().
2154:C:/Workspace/DAVE-4.4.2-64Bit/optiga-trust-m/externals/mbedtls/library\ecp.c ****  *
2155:C:/Workspace/DAVE-4.4.2-64Bit/optiga-trust-m/externals/mbedtls/library\ecp.c ****  * This countermeasure was first suggested in [2].
2156:C:/Workspace/DAVE-4.4.2-64Bit/optiga-trust-m/externals/mbedtls/library\ecp.c ****  * Cost: 2M
2157:C:/Workspace/DAVE-4.4.2-64Bit/optiga-trust-m/externals/mbedtls/library\ecp.c ****  */
2158:C:/Workspace/DAVE-4.4.2-64Bit/optiga-trust-m/externals/mbedtls/library\ecp.c **** static int ecp_randomize_mxz( const mbedtls_ecp_group *grp, mbedtls_ecp_point *P,
2159:C:/Workspace/DAVE-4.4.2-64Bit/optiga-trust-m/externals/mbedtls/library\ecp.c ****                 int (*f_rng)(void *, unsigned char *, size_t), void *p_rng )
2160:C:/Workspace/DAVE-4.4.2-64Bit/optiga-trust-m/externals/mbedtls/library\ecp.c **** {
2161:C:/Workspace/DAVE-4.4.2-64Bit/optiga-trust-m/externals/mbedtls/library\ecp.c ****     int ret;
2162:C:/Workspace/DAVE-4.4.2-64Bit/optiga-trust-m/externals/mbedtls/library\ecp.c ****     mbedtls_mpi l;
2163:C:/Workspace/DAVE-4.4.2-64Bit/optiga-trust-m/externals/mbedtls/library\ecp.c ****     size_t p_size;
2164:C:/Workspace/DAVE-4.4.2-64Bit/optiga-trust-m/externals/mbedtls/library\ecp.c ****     int count = 0;
2165:C:/Workspace/DAVE-4.4.2-64Bit/optiga-trust-m/externals/mbedtls/library\ecp.c **** 
2166:C:/Workspace/DAVE-4.4.2-64Bit/optiga-trust-m/externals/mbedtls/library\ecp.c **** #if defined(MBEDTLS_ECP_RANDOMIZE_MXZ_ALT)
2167:C:/Workspace/DAVE-4.4.2-64Bit/optiga-trust-m/externals/mbedtls/library\ecp.c ****     if( mbedtls_internal_ecp_grp_capable( grp ) )
2168:C:/Workspace/DAVE-4.4.2-64Bit/optiga-trust-m/externals/mbedtls/library\ecp.c ****         return( mbedtls_internal_ecp_randomize_mxz( grp, P, f_rng, p_rng );
2169:C:/Workspace/DAVE-4.4.2-64Bit/optiga-trust-m/externals/mbedtls/library\ecp.c **** #endif /* MBEDTLS_ECP_RANDOMIZE_MXZ_ALT */
2170:C:/Workspace/DAVE-4.4.2-64Bit/optiga-trust-m/externals/mbedtls/library\ecp.c **** 
2171:C:/Workspace/DAVE-4.4.2-64Bit/optiga-trust-m/externals/mbedtls/library\ecp.c ****     p_size = ( grp->pbits + 7 ) / 8;
2172:C:/Workspace/DAVE-4.4.2-64Bit/optiga-trust-m/externals/mbedtls/library\ecp.c ****     mbedtls_mpi_init( &l );
2173:C:/Workspace/DAVE-4.4.2-64Bit/optiga-trust-m/externals/mbedtls/library\ecp.c **** 
2174:C:/Workspace/DAVE-4.4.2-64Bit/optiga-trust-m/externals/mbedtls/library\ecp.c ****     /* Generate l such that 1 < l < p */
2175:C:/Workspace/DAVE-4.4.2-64Bit/optiga-trust-m/externals/mbedtls/library\ecp.c ****     do
2176:C:/Workspace/DAVE-4.4.2-64Bit/optiga-trust-m/externals/mbedtls/library\ecp.c ****     {
2177:C:/Workspace/DAVE-4.4.2-64Bit/optiga-trust-m/externals/mbedtls/library\ecp.c ****         MBEDTLS_MPI_CHK( mbedtls_mpi_fill_random( &l, p_size, f_rng, p_rng ) );
2178:C:/Workspace/DAVE-4.4.2-64Bit/optiga-trust-m/externals/mbedtls/library\ecp.c **** 
2179:C:/Workspace/DAVE-4.4.2-64Bit/optiga-trust-m/externals/mbedtls/library\ecp.c ****         while( mbedtls_mpi_cmp_mpi( &l, &grp->P ) >= 0 )
2180:C:/Workspace/DAVE-4.4.2-64Bit/optiga-trust-m/externals/mbedtls/library\ecp.c ****             MBEDTLS_MPI_CHK( mbedtls_mpi_shift_r( &l, 1 ) );
2181:C:/Workspace/DAVE-4.4.2-64Bit/optiga-trust-m/externals/mbedtls/library\ecp.c **** 
2182:C:/Workspace/DAVE-4.4.2-64Bit/optiga-trust-m/externals/mbedtls/library\ecp.c ****         if( count++ > 10 )
2183:C:/Workspace/DAVE-4.4.2-64Bit/optiga-trust-m/externals/mbedtls/library\ecp.c ****             return( MBEDTLS_ERR_ECP_RANDOM_FAILED );
2184:C:/Workspace/DAVE-4.4.2-64Bit/optiga-trust-m/externals/mbedtls/library\ecp.c ****     }
2185:C:/Workspace/DAVE-4.4.2-64Bit/optiga-trust-m/externals/mbedtls/library\ecp.c ****     while( mbedtls_mpi_cmp_int( &l, 1 ) <= 0 );
2186:C:/Workspace/DAVE-4.4.2-64Bit/optiga-trust-m/externals/mbedtls/library\ecp.c **** 
2187:C:/Workspace/DAVE-4.4.2-64Bit/optiga-trust-m/externals/mbedtls/library\ecp.c ****     MBEDTLS_MPI_CHK( mbedtls_mpi_mul_mpi( &P->X, &P->X, &l ) ); MOD_MUL( P->X );
2188:C:/Workspace/DAVE-4.4.2-64Bit/optiga-trust-m/externals/mbedtls/library\ecp.c ****     MBEDTLS_MPI_CHK( mbedtls_mpi_mul_mpi( &P->Z, &P->Z, &l ) ); MOD_MUL( P->Z );
2189:C:/Workspace/DAVE-4.4.2-64Bit/optiga-trust-m/externals/mbedtls/library\ecp.c **** 
2190:C:/Workspace/DAVE-4.4.2-64Bit/optiga-trust-m/externals/mbedtls/library\ecp.c **** cleanup:
2191:C:/Workspace/DAVE-4.4.2-64Bit/optiga-trust-m/externals/mbedtls/library\ecp.c ****     mbedtls_mpi_free( &l );
2192:C:/Workspace/DAVE-4.4.2-64Bit/optiga-trust-m/externals/mbedtls/library\ecp.c **** 
2193:C:/Workspace/DAVE-4.4.2-64Bit/optiga-trust-m/externals/mbedtls/library\ecp.c ****     return( ret );
2194:C:/Workspace/DAVE-4.4.2-64Bit/optiga-trust-m/externals/mbedtls/library\ecp.c **** }
2195:C:/Workspace/DAVE-4.4.2-64Bit/optiga-trust-m/externals/mbedtls/library\ecp.c **** 
2196:C:/Workspace/DAVE-4.4.2-64Bit/optiga-trust-m/externals/mbedtls/library\ecp.c **** /*
2197:C:/Workspace/DAVE-4.4.2-64Bit/optiga-trust-m/externals/mbedtls/library\ecp.c ****  * Double-and-add: R = 2P, S = P + Q, with d = X(P - Q),
2198:C:/Workspace/DAVE-4.4.2-64Bit/optiga-trust-m/externals/mbedtls/library\ecp.c ****  * for Montgomery curves in x/z coordinates.
2199:C:/Workspace/DAVE-4.4.2-64Bit/optiga-trust-m/externals/mbedtls/library\ecp.c ****  *
2200:C:/Workspace/DAVE-4.4.2-64Bit/optiga-trust-m/externals/mbedtls/library\ecp.c ****  * http://www.hyperelliptic.org/EFD/g1p/auto-code/montgom/xz/ladder/mladd-1987-m.op3
2201:C:/Workspace/DAVE-4.4.2-64Bit/optiga-trust-m/externals/mbedtls/library\ecp.c ****  * with
2202:C:/Workspace/DAVE-4.4.2-64Bit/optiga-trust-m/externals/mbedtls/library\ecp.c ****  * d =  X1
2203:C:/Workspace/DAVE-4.4.2-64Bit/optiga-trust-m/externals/mbedtls/library\ecp.c ****  * P = (X2, Z2)
2204:C:/Workspace/DAVE-4.4.2-64Bit/optiga-trust-m/externals/mbedtls/library\ecp.c ****  * Q = (X3, Z3)
2205:C:/Workspace/DAVE-4.4.2-64Bit/optiga-trust-m/externals/mbedtls/library\ecp.c ****  * R = (X4, Z4)
2206:C:/Workspace/DAVE-4.4.2-64Bit/optiga-trust-m/externals/mbedtls/library\ecp.c ****  * S = (X5, Z5)
2207:C:/Workspace/DAVE-4.4.2-64Bit/optiga-trust-m/externals/mbedtls/library\ecp.c ****  * and eliminating temporary variables tO, ..., t4.
2208:C:/Workspace/DAVE-4.4.2-64Bit/optiga-trust-m/externals/mbedtls/library\ecp.c ****  *
2209:C:/Workspace/DAVE-4.4.2-64Bit/optiga-trust-m/externals/mbedtls/library\ecp.c ****  * Cost: 5M + 4S
2210:C:/Workspace/DAVE-4.4.2-64Bit/optiga-trust-m/externals/mbedtls/library\ecp.c ****  */
2211:C:/Workspace/DAVE-4.4.2-64Bit/optiga-trust-m/externals/mbedtls/library\ecp.c **** static int ecp_double_add_mxz( const mbedtls_ecp_group *grp,
2212:C:/Workspace/DAVE-4.4.2-64Bit/optiga-trust-m/externals/mbedtls/library\ecp.c ****                                mbedtls_ecp_point *R, mbedtls_ecp_point *S,
2213:C:/Workspace/DAVE-4.4.2-64Bit/optiga-trust-m/externals/mbedtls/library\ecp.c ****                                const mbedtls_ecp_point *P, const mbedtls_ecp_point *Q,
2214:C:/Workspace/DAVE-4.4.2-64Bit/optiga-trust-m/externals/mbedtls/library\ecp.c ****                                const mbedtls_mpi *d )
2215:C:/Workspace/DAVE-4.4.2-64Bit/optiga-trust-m/externals/mbedtls/library\ecp.c **** {
2216:C:/Workspace/DAVE-4.4.2-64Bit/optiga-trust-m/externals/mbedtls/library\ecp.c ****     int ret;
2217:C:/Workspace/DAVE-4.4.2-64Bit/optiga-trust-m/externals/mbedtls/library\ecp.c ****     mbedtls_mpi A, AA, B, BB, E, C, D, DA, CB;
2218:C:/Workspace/DAVE-4.4.2-64Bit/optiga-trust-m/externals/mbedtls/library\ecp.c **** 
2219:C:/Workspace/DAVE-4.4.2-64Bit/optiga-trust-m/externals/mbedtls/library\ecp.c **** #if defined(MBEDTLS_ECP_DOUBLE_ADD_MXZ_ALT)
2220:C:/Workspace/DAVE-4.4.2-64Bit/optiga-trust-m/externals/mbedtls/library\ecp.c ****     if( mbedtls_internal_ecp_grp_capable( grp ) )
2221:C:/Workspace/DAVE-4.4.2-64Bit/optiga-trust-m/externals/mbedtls/library\ecp.c ****         return( mbedtls_internal_ecp_double_add_mxz( grp, R, S, P, Q, d ) );
2222:C:/Workspace/DAVE-4.4.2-64Bit/optiga-trust-m/externals/mbedtls/library\ecp.c **** #endif /* MBEDTLS_ECP_DOUBLE_ADD_MXZ_ALT */
2223:C:/Workspace/DAVE-4.4.2-64Bit/optiga-trust-m/externals/mbedtls/library\ecp.c **** 
2224:C:/Workspace/DAVE-4.4.2-64Bit/optiga-trust-m/externals/mbedtls/library\ecp.c ****     mbedtls_mpi_init( &A ); mbedtls_mpi_init( &AA ); mbedtls_mpi_init( &B );
2225:C:/Workspace/DAVE-4.4.2-64Bit/optiga-trust-m/externals/mbedtls/library\ecp.c ****     mbedtls_mpi_init( &BB ); mbedtls_mpi_init( &E ); mbedtls_mpi_init( &C );
2226:C:/Workspace/DAVE-4.4.2-64Bit/optiga-trust-m/externals/mbedtls/library\ecp.c ****     mbedtls_mpi_init( &D ); mbedtls_mpi_init( &DA ); mbedtls_mpi_init( &CB );
2227:C:/Workspace/DAVE-4.4.2-64Bit/optiga-trust-m/externals/mbedtls/library\ecp.c **** 
2228:C:/Workspace/DAVE-4.4.2-64Bit/optiga-trust-m/externals/mbedtls/library\ecp.c ****     MBEDTLS_MPI_CHK( mbedtls_mpi_add_mpi( &A,    &P->X,   &P->Z ) ); MOD_ADD( A    );
2229:C:/Workspace/DAVE-4.4.2-64Bit/optiga-trust-m/externals/mbedtls/library\ecp.c ****     MBEDTLS_MPI_CHK( mbedtls_mpi_mul_mpi( &AA,   &A,      &A    ) ); MOD_MUL( AA   );
2230:C:/Workspace/DAVE-4.4.2-64Bit/optiga-trust-m/externals/mbedtls/library\ecp.c ****     MBEDTLS_MPI_CHK( mbedtls_mpi_sub_mpi( &B,    &P->X,   &P->Z ) ); MOD_SUB( B    );
2231:C:/Workspace/DAVE-4.4.2-64Bit/optiga-trust-m/externals/mbedtls/library\ecp.c ****     MBEDTLS_MPI_CHK( mbedtls_mpi_mul_mpi( &BB,   &B,      &B    ) ); MOD_MUL( BB   );
2232:C:/Workspace/DAVE-4.4.2-64Bit/optiga-trust-m/externals/mbedtls/library\ecp.c ****     MBEDTLS_MPI_CHK( mbedtls_mpi_sub_mpi( &E,    &AA,     &BB   ) ); MOD_SUB( E    );
2233:C:/Workspace/DAVE-4.4.2-64Bit/optiga-trust-m/externals/mbedtls/library\ecp.c ****     MBEDTLS_MPI_CHK( mbedtls_mpi_add_mpi( &C,    &Q->X,   &Q->Z ) ); MOD_ADD( C    );
2234:C:/Workspace/DAVE-4.4.2-64Bit/optiga-trust-m/externals/mbedtls/library\ecp.c ****     MBEDTLS_MPI_CHK( mbedtls_mpi_sub_mpi( &D,    &Q->X,   &Q->Z ) ); MOD_SUB( D    );
2235:C:/Workspace/DAVE-4.4.2-64Bit/optiga-trust-m/externals/mbedtls/library\ecp.c ****     MBEDTLS_MPI_CHK( mbedtls_mpi_mul_mpi( &DA,   &D,      &A    ) ); MOD_MUL( DA   );
2236:C:/Workspace/DAVE-4.4.2-64Bit/optiga-trust-m/externals/mbedtls/library\ecp.c ****     MBEDTLS_MPI_CHK( mbedtls_mpi_mul_mpi( &CB,   &C,      &B    ) ); MOD_MUL( CB   );
2237:C:/Workspace/DAVE-4.4.2-64Bit/optiga-trust-m/externals/mbedtls/library\ecp.c ****     MBEDTLS_MPI_CHK( mbedtls_mpi_add_mpi( &S->X, &DA,     &CB   ) ); MOD_MUL( S->X );
2238:C:/Workspace/DAVE-4.4.2-64Bit/optiga-trust-m/externals/mbedtls/library\ecp.c ****     MBEDTLS_MPI_CHK( mbedtls_mpi_mul_mpi( &S->X, &S->X,   &S->X ) ); MOD_MUL( S->X );
2239:C:/Workspace/DAVE-4.4.2-64Bit/optiga-trust-m/externals/mbedtls/library\ecp.c ****     MBEDTLS_MPI_CHK( mbedtls_mpi_sub_mpi( &S->Z, &DA,     &CB   ) ); MOD_SUB( S->Z );
2240:C:/Workspace/DAVE-4.4.2-64Bit/optiga-trust-m/externals/mbedtls/library\ecp.c ****     MBEDTLS_MPI_CHK( mbedtls_mpi_mul_mpi( &S->Z, &S->Z,   &S->Z ) ); MOD_MUL( S->Z );
2241:C:/Workspace/DAVE-4.4.2-64Bit/optiga-trust-m/externals/mbedtls/library\ecp.c ****     MBEDTLS_MPI_CHK( mbedtls_mpi_mul_mpi( &S->Z, d,       &S->Z ) ); MOD_MUL( S->Z );
2242:C:/Workspace/DAVE-4.4.2-64Bit/optiga-trust-m/externals/mbedtls/library\ecp.c ****     MBEDTLS_MPI_CHK( mbedtls_mpi_mul_mpi( &R->X, &AA,     &BB   ) ); MOD_MUL( R->X );
2243:C:/Workspace/DAVE-4.4.2-64Bit/optiga-trust-m/externals/mbedtls/library\ecp.c ****     MBEDTLS_MPI_CHK( mbedtls_mpi_mul_mpi( &R->Z, &grp->A, &E    ) ); MOD_MUL( R->Z );
2244:C:/Workspace/DAVE-4.4.2-64Bit/optiga-trust-m/externals/mbedtls/library\ecp.c ****     MBEDTLS_MPI_CHK( mbedtls_mpi_add_mpi( &R->Z, &BB,     &R->Z ) ); MOD_ADD( R->Z );
2245:C:/Workspace/DAVE-4.4.2-64Bit/optiga-trust-m/externals/mbedtls/library\ecp.c ****     MBEDTLS_MPI_CHK( mbedtls_mpi_mul_mpi( &R->Z, &E,      &R->Z ) ); MOD_MUL( R->Z );
2246:C:/Workspace/DAVE-4.4.2-64Bit/optiga-trust-m/externals/mbedtls/library\ecp.c **** 
2247:C:/Workspace/DAVE-4.4.2-64Bit/optiga-trust-m/externals/mbedtls/library\ecp.c **** cleanup:
2248:C:/Workspace/DAVE-4.4.2-64Bit/optiga-trust-m/externals/mbedtls/library\ecp.c ****     mbedtls_mpi_free( &A ); mbedtls_mpi_free( &AA ); mbedtls_mpi_free( &B );
2249:C:/Workspace/DAVE-4.4.2-64Bit/optiga-trust-m/externals/mbedtls/library\ecp.c ****     mbedtls_mpi_free( &BB ); mbedtls_mpi_free( &E ); mbedtls_mpi_free( &C );
2250:C:/Workspace/DAVE-4.4.2-64Bit/optiga-trust-m/externals/mbedtls/library\ecp.c ****     mbedtls_mpi_free( &D ); mbedtls_mpi_free( &DA ); mbedtls_mpi_free( &CB );
2251:C:/Workspace/DAVE-4.4.2-64Bit/optiga-trust-m/externals/mbedtls/library\ecp.c **** 
2252:C:/Workspace/DAVE-4.4.2-64Bit/optiga-trust-m/externals/mbedtls/library\ecp.c ****     return( ret );
2253:C:/Workspace/DAVE-4.4.2-64Bit/optiga-trust-m/externals/mbedtls/library\ecp.c **** }
2254:C:/Workspace/DAVE-4.4.2-64Bit/optiga-trust-m/externals/mbedtls/library\ecp.c **** 
2255:C:/Workspace/DAVE-4.4.2-64Bit/optiga-trust-m/externals/mbedtls/library\ecp.c **** /*
2256:C:/Workspace/DAVE-4.4.2-64Bit/optiga-trust-m/externals/mbedtls/library\ecp.c ****  * Multiplication with Montgomery ladder in x/z coordinates,
2257:C:/Workspace/DAVE-4.4.2-64Bit/optiga-trust-m/externals/mbedtls/library\ecp.c ****  * for curves in Montgomery form
2258:C:/Workspace/DAVE-4.4.2-64Bit/optiga-trust-m/externals/mbedtls/library\ecp.c ****  */
2259:C:/Workspace/DAVE-4.4.2-64Bit/optiga-trust-m/externals/mbedtls/library\ecp.c **** static int ecp_mul_mxz( mbedtls_ecp_group *grp, mbedtls_ecp_point *R,
2260:C:/Workspace/DAVE-4.4.2-64Bit/optiga-trust-m/externals/mbedtls/library\ecp.c ****                         const mbedtls_mpi *m, const mbedtls_ecp_point *P,
2261:C:/Workspace/DAVE-4.4.2-64Bit/optiga-trust-m/externals/mbedtls/library\ecp.c ****                         int (*f_rng)(void *, unsigned char *, size_t),
2262:C:/Workspace/DAVE-4.4.2-64Bit/optiga-trust-m/externals/mbedtls/library\ecp.c ****                         void *p_rng )
2263:C:/Workspace/DAVE-4.4.2-64Bit/optiga-trust-m/externals/mbedtls/library\ecp.c **** {
2264:C:/Workspace/DAVE-4.4.2-64Bit/optiga-trust-m/externals/mbedtls/library\ecp.c ****     int ret;
2265:C:/Workspace/DAVE-4.4.2-64Bit/optiga-trust-m/externals/mbedtls/library\ecp.c ****     size_t i;
2266:C:/Workspace/DAVE-4.4.2-64Bit/optiga-trust-m/externals/mbedtls/library\ecp.c ****     unsigned char b;
2267:C:/Workspace/DAVE-4.4.2-64Bit/optiga-trust-m/externals/mbedtls/library\ecp.c ****     mbedtls_ecp_point RP;
2268:C:/Workspace/DAVE-4.4.2-64Bit/optiga-trust-m/externals/mbedtls/library\ecp.c ****     mbedtls_mpi PX;
2269:C:/Workspace/DAVE-4.4.2-64Bit/optiga-trust-m/externals/mbedtls/library\ecp.c **** 
2270:C:/Workspace/DAVE-4.4.2-64Bit/optiga-trust-m/externals/mbedtls/library\ecp.c ****     mbedtls_ecp_point_init( &RP ); mbedtls_mpi_init( &PX );
2271:C:/Workspace/DAVE-4.4.2-64Bit/optiga-trust-m/externals/mbedtls/library\ecp.c **** 
2272:C:/Workspace/DAVE-4.4.2-64Bit/optiga-trust-m/externals/mbedtls/library\ecp.c ****     /* Save PX and read from P before writing to R, in case P == R */
2273:C:/Workspace/DAVE-4.4.2-64Bit/optiga-trust-m/externals/mbedtls/library\ecp.c ****     MBEDTLS_MPI_CHK( mbedtls_mpi_copy( &PX, &P->X ) );
2274:C:/Workspace/DAVE-4.4.2-64Bit/optiga-trust-m/externals/mbedtls/library\ecp.c ****     MBEDTLS_MPI_CHK( mbedtls_ecp_copy( &RP, P ) );
2275:C:/Workspace/DAVE-4.4.2-64Bit/optiga-trust-m/externals/mbedtls/library\ecp.c **** 
2276:C:/Workspace/DAVE-4.4.2-64Bit/optiga-trust-m/externals/mbedtls/library\ecp.c ****     /* Set R to zero in modified x/z coordinates */
2277:C:/Workspace/DAVE-4.4.2-64Bit/optiga-trust-m/externals/mbedtls/library\ecp.c ****     MBEDTLS_MPI_CHK( mbedtls_mpi_lset( &R->X, 1 ) );
2278:C:/Workspace/DAVE-4.4.2-64Bit/optiga-trust-m/externals/mbedtls/library\ecp.c ****     MBEDTLS_MPI_CHK( mbedtls_mpi_lset( &R->Z, 0 ) );
2279:C:/Workspace/DAVE-4.4.2-64Bit/optiga-trust-m/externals/mbedtls/library\ecp.c ****     mbedtls_mpi_free( &R->Y );
2280:C:/Workspace/DAVE-4.4.2-64Bit/optiga-trust-m/externals/mbedtls/library\ecp.c **** 
2281:C:/Workspace/DAVE-4.4.2-64Bit/optiga-trust-m/externals/mbedtls/library\ecp.c ****     /* RP.X might be sligtly larger than P, so reduce it */
2282:C:/Workspace/DAVE-4.4.2-64Bit/optiga-trust-m/externals/mbedtls/library\ecp.c ****     MOD_ADD( RP.X );
2283:C:/Workspace/DAVE-4.4.2-64Bit/optiga-trust-m/externals/mbedtls/library\ecp.c **** 
2284:C:/Workspace/DAVE-4.4.2-64Bit/optiga-trust-m/externals/mbedtls/library\ecp.c ****     /* Randomize coordinates of the starting point */
2285:C:/Workspace/DAVE-4.4.2-64Bit/optiga-trust-m/externals/mbedtls/library\ecp.c ****     if( f_rng != NULL )
2286:C:/Workspace/DAVE-4.4.2-64Bit/optiga-trust-m/externals/mbedtls/library\ecp.c ****         MBEDTLS_MPI_CHK( ecp_randomize_mxz( grp, &RP, f_rng, p_rng ) );
2287:C:/Workspace/DAVE-4.4.2-64Bit/optiga-trust-m/externals/mbedtls/library\ecp.c **** 
2288:C:/Workspace/DAVE-4.4.2-64Bit/optiga-trust-m/externals/mbedtls/library\ecp.c ****     /* Loop invariant: R = result so far, RP = R + P */
2289:C:/Workspace/DAVE-4.4.2-64Bit/optiga-trust-m/externals/mbedtls/library\ecp.c ****     i = mbedtls_mpi_bitlen( m ); /* one past the (zero-based) most significant bit */
2290:C:/Workspace/DAVE-4.4.2-64Bit/optiga-trust-m/externals/mbedtls/library\ecp.c ****     while( i-- > 0 )
2291:C:/Workspace/DAVE-4.4.2-64Bit/optiga-trust-m/externals/mbedtls/library\ecp.c ****     {
2292:C:/Workspace/DAVE-4.4.2-64Bit/optiga-trust-m/externals/mbedtls/library\ecp.c ****         b = mbedtls_mpi_get_bit( m, i );
2293:C:/Workspace/DAVE-4.4.2-64Bit/optiga-trust-m/externals/mbedtls/library\ecp.c ****         /*
2294:C:/Workspace/DAVE-4.4.2-64Bit/optiga-trust-m/externals/mbedtls/library\ecp.c ****          *  if (b) R = 2R + P else R = 2R,
2295:C:/Workspace/DAVE-4.4.2-64Bit/optiga-trust-m/externals/mbedtls/library\ecp.c ****          * which is:
2296:C:/Workspace/DAVE-4.4.2-64Bit/optiga-trust-m/externals/mbedtls/library\ecp.c ****          *  if (b) double_add( RP, R, RP, R )
2297:C:/Workspace/DAVE-4.4.2-64Bit/optiga-trust-m/externals/mbedtls/library\ecp.c ****          *  else   double_add( R, RP, R, RP )
2298:C:/Workspace/DAVE-4.4.2-64Bit/optiga-trust-m/externals/mbedtls/library\ecp.c ****          * but using safe conditional swaps to avoid leaks
2299:C:/Workspace/DAVE-4.4.2-64Bit/optiga-trust-m/externals/mbedtls/library\ecp.c ****          */
2300:C:/Workspace/DAVE-4.4.2-64Bit/optiga-trust-m/externals/mbedtls/library\ecp.c ****         MBEDTLS_MPI_CHK( mbedtls_mpi_safe_cond_swap( &R->X, &RP.X, b ) );
2301:C:/Workspace/DAVE-4.4.2-64Bit/optiga-trust-m/externals/mbedtls/library\ecp.c ****         MBEDTLS_MPI_CHK( mbedtls_mpi_safe_cond_swap( &R->Z, &RP.Z, b ) );
2302:C:/Workspace/DAVE-4.4.2-64Bit/optiga-trust-m/externals/mbedtls/library\ecp.c ****         MBEDTLS_MPI_CHK( ecp_double_add_mxz( grp, R, &RP, R, &RP, &PX ) );
2303:C:/Workspace/DAVE-4.4.2-64Bit/optiga-trust-m/externals/mbedtls/library\ecp.c ****         MBEDTLS_MPI_CHK( mbedtls_mpi_safe_cond_swap( &R->X, &RP.X, b ) );
2304:C:/Workspace/DAVE-4.4.2-64Bit/optiga-trust-m/externals/mbedtls/library\ecp.c ****         MBEDTLS_MPI_CHK( mbedtls_mpi_safe_cond_swap( &R->Z, &RP.Z, b ) );
2305:C:/Workspace/DAVE-4.4.2-64Bit/optiga-trust-m/externals/mbedtls/library\ecp.c ****     }
2306:C:/Workspace/DAVE-4.4.2-64Bit/optiga-trust-m/externals/mbedtls/library\ecp.c **** 
2307:C:/Workspace/DAVE-4.4.2-64Bit/optiga-trust-m/externals/mbedtls/library\ecp.c ****     MBEDTLS_MPI_CHK( ecp_normalize_mxz( grp, R ) );
2308:C:/Workspace/DAVE-4.4.2-64Bit/optiga-trust-m/externals/mbedtls/library\ecp.c **** 
2309:C:/Workspace/DAVE-4.4.2-64Bit/optiga-trust-m/externals/mbedtls/library\ecp.c **** cleanup:
2310:C:/Workspace/DAVE-4.4.2-64Bit/optiga-trust-m/externals/mbedtls/library\ecp.c ****     mbedtls_ecp_point_free( &RP ); mbedtls_mpi_free( &PX );
2311:C:/Workspace/DAVE-4.4.2-64Bit/optiga-trust-m/externals/mbedtls/library\ecp.c **** 
2312:C:/Workspace/DAVE-4.4.2-64Bit/optiga-trust-m/externals/mbedtls/library\ecp.c ****     return( ret );
2313:C:/Workspace/DAVE-4.4.2-64Bit/optiga-trust-m/externals/mbedtls/library\ecp.c **** }
2314:C:/Workspace/DAVE-4.4.2-64Bit/optiga-trust-m/externals/mbedtls/library\ecp.c **** 
2315:C:/Workspace/DAVE-4.4.2-64Bit/optiga-trust-m/externals/mbedtls/library\ecp.c **** #endif /* ECP_MONTGOMERY */
2316:C:/Workspace/DAVE-4.4.2-64Bit/optiga-trust-m/externals/mbedtls/library\ecp.c **** 
2317:C:/Workspace/DAVE-4.4.2-64Bit/optiga-trust-m/externals/mbedtls/library\ecp.c **** /*
2318:C:/Workspace/DAVE-4.4.2-64Bit/optiga-trust-m/externals/mbedtls/library\ecp.c ****  * Restartable multiplication R = m * P
2319:C:/Workspace/DAVE-4.4.2-64Bit/optiga-trust-m/externals/mbedtls/library\ecp.c ****  */
2320:C:/Workspace/DAVE-4.4.2-64Bit/optiga-trust-m/externals/mbedtls/library\ecp.c **** int mbedtls_ecp_mul_restartable( mbedtls_ecp_group *grp, mbedtls_ecp_point *R,
2321:C:/Workspace/DAVE-4.4.2-64Bit/optiga-trust-m/externals/mbedtls/library\ecp.c ****              const mbedtls_mpi *m, const mbedtls_ecp_point *P,
2322:C:/Workspace/DAVE-4.4.2-64Bit/optiga-trust-m/externals/mbedtls/library\ecp.c ****              int (*f_rng)(void *, unsigned char *, size_t), void *p_rng,
2323:C:/Workspace/DAVE-4.4.2-64Bit/optiga-trust-m/externals/mbedtls/library\ecp.c ****              mbedtls_ecp_restart_ctx *rs_ctx )
2324:C:/Workspace/DAVE-4.4.2-64Bit/optiga-trust-m/externals/mbedtls/library\ecp.c **** {
2325:C:/Workspace/DAVE-4.4.2-64Bit/optiga-trust-m/externals/mbedtls/library\ecp.c ****     int ret = MBEDTLS_ERR_ECP_BAD_INPUT_DATA;
2326:C:/Workspace/DAVE-4.4.2-64Bit/optiga-trust-m/externals/mbedtls/library\ecp.c **** #if defined(MBEDTLS_ECP_INTERNAL_ALT)
2327:C:/Workspace/DAVE-4.4.2-64Bit/optiga-trust-m/externals/mbedtls/library\ecp.c ****     char is_grp_capable = 0;
2328:C:/Workspace/DAVE-4.4.2-64Bit/optiga-trust-m/externals/mbedtls/library\ecp.c **** #endif
2329:C:/Workspace/DAVE-4.4.2-64Bit/optiga-trust-m/externals/mbedtls/library\ecp.c ****     ECP_VALIDATE_RET( grp != NULL );
2330:C:/Workspace/DAVE-4.4.2-64Bit/optiga-trust-m/externals/mbedtls/library\ecp.c ****     ECP_VALIDATE_RET( R   != NULL );
2331:C:/Workspace/DAVE-4.4.2-64Bit/optiga-trust-m/externals/mbedtls/library\ecp.c ****     ECP_VALIDATE_RET( m   != NULL );
2332:C:/Workspace/DAVE-4.4.2-64Bit/optiga-trust-m/externals/mbedtls/library\ecp.c ****     ECP_VALIDATE_RET( P   != NULL );
2333:C:/Workspace/DAVE-4.4.2-64Bit/optiga-trust-m/externals/mbedtls/library\ecp.c **** 
2334:C:/Workspace/DAVE-4.4.2-64Bit/optiga-trust-m/externals/mbedtls/library\ecp.c **** #if defined(MBEDTLS_ECP_RESTARTABLE)
2335:C:/Workspace/DAVE-4.4.2-64Bit/optiga-trust-m/externals/mbedtls/library\ecp.c ****     /* reset ops count for this call if top-level */
2336:C:/Workspace/DAVE-4.4.2-64Bit/optiga-trust-m/externals/mbedtls/library\ecp.c ****     if( rs_ctx != NULL && rs_ctx->depth++ == 0 )
2337:C:/Workspace/DAVE-4.4.2-64Bit/optiga-trust-m/externals/mbedtls/library\ecp.c ****         rs_ctx->ops_done = 0;
2338:C:/Workspace/DAVE-4.4.2-64Bit/optiga-trust-m/externals/mbedtls/library\ecp.c **** #endif
2339:C:/Workspace/DAVE-4.4.2-64Bit/optiga-trust-m/externals/mbedtls/library\ecp.c **** 
2340:C:/Workspace/DAVE-4.4.2-64Bit/optiga-trust-m/externals/mbedtls/library\ecp.c **** #if defined(MBEDTLS_ECP_INTERNAL_ALT)
2341:C:/Workspace/DAVE-4.4.2-64Bit/optiga-trust-m/externals/mbedtls/library\ecp.c ****     if( ( is_grp_capable = mbedtls_internal_ecp_grp_capable( grp ) ) )
2342:C:/Workspace/DAVE-4.4.2-64Bit/optiga-trust-m/externals/mbedtls/library\ecp.c ****         MBEDTLS_MPI_CHK( mbedtls_internal_ecp_init( grp ) );
2343:C:/Workspace/DAVE-4.4.2-64Bit/optiga-trust-m/externals/mbedtls/library\ecp.c **** #endif /* MBEDTLS_ECP_INTERNAL_ALT */
2344:C:/Workspace/DAVE-4.4.2-64Bit/optiga-trust-m/externals/mbedtls/library\ecp.c **** 
2345:C:/Workspace/DAVE-4.4.2-64Bit/optiga-trust-m/externals/mbedtls/library\ecp.c **** #if defined(MBEDTLS_ECP_RESTARTABLE)
2346:C:/Workspace/DAVE-4.4.2-64Bit/optiga-trust-m/externals/mbedtls/library\ecp.c ****     /* skip argument check when restarting */
2347:C:/Workspace/DAVE-4.4.2-64Bit/optiga-trust-m/externals/mbedtls/library\ecp.c ****     if( rs_ctx == NULL || rs_ctx->rsm == NULL )
2348:C:/Workspace/DAVE-4.4.2-64Bit/optiga-trust-m/externals/mbedtls/library\ecp.c **** #endif
2349:C:/Workspace/DAVE-4.4.2-64Bit/optiga-trust-m/externals/mbedtls/library\ecp.c ****     {
2350:C:/Workspace/DAVE-4.4.2-64Bit/optiga-trust-m/externals/mbedtls/library\ecp.c ****         /* check_privkey is free */
2351:C:/Workspace/DAVE-4.4.2-64Bit/optiga-trust-m/externals/mbedtls/library\ecp.c ****         MBEDTLS_ECP_BUDGET( MBEDTLS_ECP_OPS_CHK );
2352:C:/Workspace/DAVE-4.4.2-64Bit/optiga-trust-m/externals/mbedtls/library\ecp.c **** 
2353:C:/Workspace/DAVE-4.4.2-64Bit/optiga-trust-m/externals/mbedtls/library\ecp.c ****         /* Common sanity checks */
2354:C:/Workspace/DAVE-4.4.2-64Bit/optiga-trust-m/externals/mbedtls/library\ecp.c ****         MBEDTLS_MPI_CHK( mbedtls_ecp_check_privkey( grp, m ) );
2355:C:/Workspace/DAVE-4.4.2-64Bit/optiga-trust-m/externals/mbedtls/library\ecp.c ****         MBEDTLS_MPI_CHK( mbedtls_ecp_check_pubkey( grp, P ) );
2356:C:/Workspace/DAVE-4.4.2-64Bit/optiga-trust-m/externals/mbedtls/library\ecp.c ****     }
2357:C:/Workspace/DAVE-4.4.2-64Bit/optiga-trust-m/externals/mbedtls/library\ecp.c **** 
2358:C:/Workspace/DAVE-4.4.2-64Bit/optiga-trust-m/externals/mbedtls/library\ecp.c ****     ret = MBEDTLS_ERR_ECP_BAD_INPUT_DATA;
2359:C:/Workspace/DAVE-4.4.2-64Bit/optiga-trust-m/externals/mbedtls/library\ecp.c **** #if defined(ECP_MONTGOMERY)
2360:C:/Workspace/DAVE-4.4.2-64Bit/optiga-trust-m/externals/mbedtls/library\ecp.c ****     if( ecp_get_type( grp ) == ECP_TYPE_MONTGOMERY )
2361:C:/Workspace/DAVE-4.4.2-64Bit/optiga-trust-m/externals/mbedtls/library\ecp.c ****         MBEDTLS_MPI_CHK( ecp_mul_mxz( grp, R, m, P, f_rng, p_rng ) );
2362:C:/Workspace/DAVE-4.4.2-64Bit/optiga-trust-m/externals/mbedtls/library\ecp.c **** #endif
2363:C:/Workspace/DAVE-4.4.2-64Bit/optiga-trust-m/externals/mbedtls/library\ecp.c **** #if defined(ECP_SHORTWEIERSTRASS)
2364:C:/Workspace/DAVE-4.4.2-64Bit/optiga-trust-m/externals/mbedtls/library\ecp.c ****     if( ecp_get_type( grp ) == ECP_TYPE_SHORT_WEIERSTRASS )
2365:C:/Workspace/DAVE-4.4.2-64Bit/optiga-trust-m/externals/mbedtls/library\ecp.c ****         MBEDTLS_MPI_CHK( ecp_mul_comb( grp, R, m, P, f_rng, p_rng, rs_ctx ) );
2366:C:/Workspace/DAVE-4.4.2-64Bit/optiga-trust-m/externals/mbedtls/library\ecp.c **** #endif
2367:C:/Workspace/DAVE-4.4.2-64Bit/optiga-trust-m/externals/mbedtls/library\ecp.c **** 
2368:C:/Workspace/DAVE-4.4.2-64Bit/optiga-trust-m/externals/mbedtls/library\ecp.c **** cleanup:
2369:C:/Workspace/DAVE-4.4.2-64Bit/optiga-trust-m/externals/mbedtls/library\ecp.c **** 
2370:C:/Workspace/DAVE-4.4.2-64Bit/optiga-trust-m/externals/mbedtls/library\ecp.c **** #if defined(MBEDTLS_ECP_INTERNAL_ALT)
2371:C:/Workspace/DAVE-4.4.2-64Bit/optiga-trust-m/externals/mbedtls/library\ecp.c ****     if( is_grp_capable )
2372:C:/Workspace/DAVE-4.4.2-64Bit/optiga-trust-m/externals/mbedtls/library\ecp.c ****         mbedtls_internal_ecp_free( grp );
2373:C:/Workspace/DAVE-4.4.2-64Bit/optiga-trust-m/externals/mbedtls/library\ecp.c **** #endif /* MBEDTLS_ECP_INTERNAL_ALT */
2374:C:/Workspace/DAVE-4.4.2-64Bit/optiga-trust-m/externals/mbedtls/library\ecp.c **** 
2375:C:/Workspace/DAVE-4.4.2-64Bit/optiga-trust-m/externals/mbedtls/library\ecp.c **** #if defined(MBEDTLS_ECP_RESTARTABLE)
2376:C:/Workspace/DAVE-4.4.2-64Bit/optiga-trust-m/externals/mbedtls/library\ecp.c ****     if( rs_ctx != NULL )
2377:C:/Workspace/DAVE-4.4.2-64Bit/optiga-trust-m/externals/mbedtls/library\ecp.c ****         rs_ctx->depth--;
2378:C:/Workspace/DAVE-4.4.2-64Bit/optiga-trust-m/externals/mbedtls/library\ecp.c **** #endif
2379:C:/Workspace/DAVE-4.4.2-64Bit/optiga-trust-m/externals/mbedtls/library\ecp.c **** 
2380:C:/Workspace/DAVE-4.4.2-64Bit/optiga-trust-m/externals/mbedtls/library\ecp.c ****     return( ret );
2381:C:/Workspace/DAVE-4.4.2-64Bit/optiga-trust-m/externals/mbedtls/library\ecp.c **** }
2382:C:/Workspace/DAVE-4.4.2-64Bit/optiga-trust-m/externals/mbedtls/library\ecp.c **** 
2383:C:/Workspace/DAVE-4.4.2-64Bit/optiga-trust-m/externals/mbedtls/library\ecp.c **** /*
2384:C:/Workspace/DAVE-4.4.2-64Bit/optiga-trust-m/externals/mbedtls/library\ecp.c ****  * Multiplication R = m * P
2385:C:/Workspace/DAVE-4.4.2-64Bit/optiga-trust-m/externals/mbedtls/library\ecp.c ****  */
2386:C:/Workspace/DAVE-4.4.2-64Bit/optiga-trust-m/externals/mbedtls/library\ecp.c **** int mbedtls_ecp_mul( mbedtls_ecp_group *grp, mbedtls_ecp_point *R,
2387:C:/Workspace/DAVE-4.4.2-64Bit/optiga-trust-m/externals/mbedtls/library\ecp.c ****              const mbedtls_mpi *m, const mbedtls_ecp_point *P,
2388:C:/Workspace/DAVE-4.4.2-64Bit/optiga-trust-m/externals/mbedtls/library\ecp.c ****              int (*f_rng)(void *, unsigned char *, size_t), void *p_rng )
2389:C:/Workspace/DAVE-4.4.2-64Bit/optiga-trust-m/externals/mbedtls/library\ecp.c **** {
2390:C:/Workspace/DAVE-4.4.2-64Bit/optiga-trust-m/externals/mbedtls/library\ecp.c ****     ECP_VALIDATE_RET( grp != NULL );
2391:C:/Workspace/DAVE-4.4.2-64Bit/optiga-trust-m/externals/mbedtls/library\ecp.c ****     ECP_VALIDATE_RET( R   != NULL );
2392:C:/Workspace/DAVE-4.4.2-64Bit/optiga-trust-m/externals/mbedtls/library\ecp.c ****     ECP_VALIDATE_RET( m   != NULL );
2393:C:/Workspace/DAVE-4.4.2-64Bit/optiga-trust-m/externals/mbedtls/library\ecp.c ****     ECP_VALIDATE_RET( P   != NULL );
2394:C:/Workspace/DAVE-4.4.2-64Bit/optiga-trust-m/externals/mbedtls/library\ecp.c ****     return( mbedtls_ecp_mul_restartable( grp, R, m, P, f_rng, p_rng, NULL ) );
2395:C:/Workspace/DAVE-4.4.2-64Bit/optiga-trust-m/externals/mbedtls/library\ecp.c **** }
2396:C:/Workspace/DAVE-4.4.2-64Bit/optiga-trust-m/externals/mbedtls/library\ecp.c **** 
2397:C:/Workspace/DAVE-4.4.2-64Bit/optiga-trust-m/externals/mbedtls/library\ecp.c **** #if defined(ECP_SHORTWEIERSTRASS)
2398:C:/Workspace/DAVE-4.4.2-64Bit/optiga-trust-m/externals/mbedtls/library\ecp.c **** /*
2399:C:/Workspace/DAVE-4.4.2-64Bit/optiga-trust-m/externals/mbedtls/library\ecp.c ****  * Check that an affine point is valid as a public key,
2400:C:/Workspace/DAVE-4.4.2-64Bit/optiga-trust-m/externals/mbedtls/library\ecp.c ****  * short weierstrass curves (SEC1 3.2.3.1)
2401:C:/Workspace/DAVE-4.4.2-64Bit/optiga-trust-m/externals/mbedtls/library\ecp.c ****  */
2402:C:/Workspace/DAVE-4.4.2-64Bit/optiga-trust-m/externals/mbedtls/library\ecp.c **** static int ecp_check_pubkey_sw( const mbedtls_ecp_group *grp, const mbedtls_ecp_point *pt )
2403:C:/Workspace/DAVE-4.4.2-64Bit/optiga-trust-m/externals/mbedtls/library\ecp.c **** {
2404:C:/Workspace/DAVE-4.4.2-64Bit/optiga-trust-m/externals/mbedtls/library\ecp.c ****     int ret;
2405:C:/Workspace/DAVE-4.4.2-64Bit/optiga-trust-m/externals/mbedtls/library\ecp.c ****     mbedtls_mpi YY, RHS;
2406:C:/Workspace/DAVE-4.4.2-64Bit/optiga-trust-m/externals/mbedtls/library\ecp.c **** 
2407:C:/Workspace/DAVE-4.4.2-64Bit/optiga-trust-m/externals/mbedtls/library\ecp.c ****     /* pt coordinates must be normalized for our checks */
2408:C:/Workspace/DAVE-4.4.2-64Bit/optiga-trust-m/externals/mbedtls/library\ecp.c ****     if( mbedtls_mpi_cmp_int( &pt->X, 0 ) < 0 ||
2409:C:/Workspace/DAVE-4.4.2-64Bit/optiga-trust-m/externals/mbedtls/library\ecp.c ****         mbedtls_mpi_cmp_int( &pt->Y, 0 ) < 0 ||
2410:C:/Workspace/DAVE-4.4.2-64Bit/optiga-trust-m/externals/mbedtls/library\ecp.c ****         mbedtls_mpi_cmp_mpi( &pt->X, &grp->P ) >= 0 ||
2411:C:/Workspace/DAVE-4.4.2-64Bit/optiga-trust-m/externals/mbedtls/library\ecp.c ****         mbedtls_mpi_cmp_mpi( &pt->Y, &grp->P ) >= 0 )
2412:C:/Workspace/DAVE-4.4.2-64Bit/optiga-trust-m/externals/mbedtls/library\ecp.c ****         return( MBEDTLS_ERR_ECP_INVALID_KEY );
2413:C:/Workspace/DAVE-4.4.2-64Bit/optiga-trust-m/externals/mbedtls/library\ecp.c **** 
2414:C:/Workspace/DAVE-4.4.2-64Bit/optiga-trust-m/externals/mbedtls/library\ecp.c ****     mbedtls_mpi_init( &YY ); mbedtls_mpi_init( &RHS );
2415:C:/Workspace/DAVE-4.4.2-64Bit/optiga-trust-m/externals/mbedtls/library\ecp.c **** 
2416:C:/Workspace/DAVE-4.4.2-64Bit/optiga-trust-m/externals/mbedtls/library\ecp.c ****     /*
2417:C:/Workspace/DAVE-4.4.2-64Bit/optiga-trust-m/externals/mbedtls/library\ecp.c ****      * YY = Y^2
2418:C:/Workspace/DAVE-4.4.2-64Bit/optiga-trust-m/externals/mbedtls/library\ecp.c ****      * RHS = X (X^2 + A) + B = X^3 + A X + B
2419:C:/Workspace/DAVE-4.4.2-64Bit/optiga-trust-m/externals/mbedtls/library\ecp.c ****      */
2420:C:/Workspace/DAVE-4.4.2-64Bit/optiga-trust-m/externals/mbedtls/library\ecp.c ****     MBEDTLS_MPI_CHK( mbedtls_mpi_mul_mpi( &YY,  &pt->Y,   &pt->Y  ) );  MOD_MUL( YY  );
2421:C:/Workspace/DAVE-4.4.2-64Bit/optiga-trust-m/externals/mbedtls/library\ecp.c ****     MBEDTLS_MPI_CHK( mbedtls_mpi_mul_mpi( &RHS, &pt->X,   &pt->X  ) );  MOD_MUL( RHS );
2422:C:/Workspace/DAVE-4.4.2-64Bit/optiga-trust-m/externals/mbedtls/library\ecp.c **** 
2423:C:/Workspace/DAVE-4.4.2-64Bit/optiga-trust-m/externals/mbedtls/library\ecp.c ****     /* Special case for A = -3 */
2424:C:/Workspace/DAVE-4.4.2-64Bit/optiga-trust-m/externals/mbedtls/library\ecp.c ****     if( grp->A.p == NULL )
2425:C:/Workspace/DAVE-4.4.2-64Bit/optiga-trust-m/externals/mbedtls/library\ecp.c ****     {
2426:C:/Workspace/DAVE-4.4.2-64Bit/optiga-trust-m/externals/mbedtls/library\ecp.c ****         MBEDTLS_MPI_CHK( mbedtls_mpi_sub_int( &RHS, &RHS, 3       ) );  MOD_SUB( RHS );
2427:C:/Workspace/DAVE-4.4.2-64Bit/optiga-trust-m/externals/mbedtls/library\ecp.c ****     }
2428:C:/Workspace/DAVE-4.4.2-64Bit/optiga-trust-m/externals/mbedtls/library\ecp.c ****     else
2429:C:/Workspace/DAVE-4.4.2-64Bit/optiga-trust-m/externals/mbedtls/library\ecp.c ****     {
2430:C:/Workspace/DAVE-4.4.2-64Bit/optiga-trust-m/externals/mbedtls/library\ecp.c ****         MBEDTLS_MPI_CHK( mbedtls_mpi_add_mpi( &RHS, &RHS, &grp->A ) );  MOD_ADD( RHS );
2431:C:/Workspace/DAVE-4.4.2-64Bit/optiga-trust-m/externals/mbedtls/library\ecp.c ****     }
2432:C:/Workspace/DAVE-4.4.2-64Bit/optiga-trust-m/externals/mbedtls/library\ecp.c **** 
2433:C:/Workspace/DAVE-4.4.2-64Bit/optiga-trust-m/externals/mbedtls/library\ecp.c ****     MBEDTLS_MPI_CHK( mbedtls_mpi_mul_mpi( &RHS, &RHS,     &pt->X  ) );  MOD_MUL( RHS );
2434:C:/Workspace/DAVE-4.4.2-64Bit/optiga-trust-m/externals/mbedtls/library\ecp.c ****     MBEDTLS_MPI_CHK( mbedtls_mpi_add_mpi( &RHS, &RHS,     &grp->B ) );  MOD_ADD( RHS );
2435:C:/Workspace/DAVE-4.4.2-64Bit/optiga-trust-m/externals/mbedtls/library\ecp.c **** 
2436:C:/Workspace/DAVE-4.4.2-64Bit/optiga-trust-m/externals/mbedtls/library\ecp.c ****     if( mbedtls_mpi_cmp_mpi( &YY, &RHS ) != 0 )
2437:C:/Workspace/DAVE-4.4.2-64Bit/optiga-trust-m/externals/mbedtls/library\ecp.c ****         ret = MBEDTLS_ERR_ECP_INVALID_KEY;
2438:C:/Workspace/DAVE-4.4.2-64Bit/optiga-trust-m/externals/mbedtls/library\ecp.c **** 
2439:C:/Workspace/DAVE-4.4.2-64Bit/optiga-trust-m/externals/mbedtls/library\ecp.c **** cleanup:
2440:C:/Workspace/DAVE-4.4.2-64Bit/optiga-trust-m/externals/mbedtls/library\ecp.c **** 
2441:C:/Workspace/DAVE-4.4.2-64Bit/optiga-trust-m/externals/mbedtls/library\ecp.c ****     mbedtls_mpi_free( &YY ); mbedtls_mpi_free( &RHS );
2442:C:/Workspace/DAVE-4.4.2-64Bit/optiga-trust-m/externals/mbedtls/library\ecp.c **** 
2443:C:/Workspace/DAVE-4.4.2-64Bit/optiga-trust-m/externals/mbedtls/library\ecp.c ****     return( ret );
2444:C:/Workspace/DAVE-4.4.2-64Bit/optiga-trust-m/externals/mbedtls/library\ecp.c **** }
2445:C:/Workspace/DAVE-4.4.2-64Bit/optiga-trust-m/externals/mbedtls/library\ecp.c **** #endif /* ECP_SHORTWEIERSTRASS */
2446:C:/Workspace/DAVE-4.4.2-64Bit/optiga-trust-m/externals/mbedtls/library\ecp.c **** 
2447:C:/Workspace/DAVE-4.4.2-64Bit/optiga-trust-m/externals/mbedtls/library\ecp.c **** /*
2448:C:/Workspace/DAVE-4.4.2-64Bit/optiga-trust-m/externals/mbedtls/library\ecp.c ****  * R = m * P with shortcuts for m == 1 and m == -1
2449:C:/Workspace/DAVE-4.4.2-64Bit/optiga-trust-m/externals/mbedtls/library\ecp.c ****  * NOT constant-time - ONLY for short Weierstrass!
2450:C:/Workspace/DAVE-4.4.2-64Bit/optiga-trust-m/externals/mbedtls/library\ecp.c ****  */
2451:C:/Workspace/DAVE-4.4.2-64Bit/optiga-trust-m/externals/mbedtls/library\ecp.c **** static int mbedtls_ecp_mul_shortcuts( mbedtls_ecp_group *grp,
2452:C:/Workspace/DAVE-4.4.2-64Bit/optiga-trust-m/externals/mbedtls/library\ecp.c ****                                       mbedtls_ecp_point *R,
2453:C:/Workspace/DAVE-4.4.2-64Bit/optiga-trust-m/externals/mbedtls/library\ecp.c ****                                       const mbedtls_mpi *m,
2454:C:/Workspace/DAVE-4.4.2-64Bit/optiga-trust-m/externals/mbedtls/library\ecp.c ****                                       const mbedtls_ecp_point *P,
2455:C:/Workspace/DAVE-4.4.2-64Bit/optiga-trust-m/externals/mbedtls/library\ecp.c ****                                       mbedtls_ecp_restart_ctx *rs_ctx )
2456:C:/Workspace/DAVE-4.4.2-64Bit/optiga-trust-m/externals/mbedtls/library\ecp.c **** {
2457:C:/Workspace/DAVE-4.4.2-64Bit/optiga-trust-m/externals/mbedtls/library\ecp.c ****     int ret;
2458:C:/Workspace/DAVE-4.4.2-64Bit/optiga-trust-m/externals/mbedtls/library\ecp.c **** 
2459:C:/Workspace/DAVE-4.4.2-64Bit/optiga-trust-m/externals/mbedtls/library\ecp.c ****     if( mbedtls_mpi_cmp_int( m, 1 ) == 0 )
2460:C:/Workspace/DAVE-4.4.2-64Bit/optiga-trust-m/externals/mbedtls/library\ecp.c ****     {
2461:C:/Workspace/DAVE-4.4.2-64Bit/optiga-trust-m/externals/mbedtls/library\ecp.c ****         MBEDTLS_MPI_CHK( mbedtls_ecp_copy( R, P ) );
2462:C:/Workspace/DAVE-4.4.2-64Bit/optiga-trust-m/externals/mbedtls/library\ecp.c ****     }
2463:C:/Workspace/DAVE-4.4.2-64Bit/optiga-trust-m/externals/mbedtls/library\ecp.c ****     else if( mbedtls_mpi_cmp_int( m, -1 ) == 0 )
2464:C:/Workspace/DAVE-4.4.2-64Bit/optiga-trust-m/externals/mbedtls/library\ecp.c ****     {
2465:C:/Workspace/DAVE-4.4.2-64Bit/optiga-trust-m/externals/mbedtls/library\ecp.c ****         MBEDTLS_MPI_CHK( mbedtls_ecp_copy( R, P ) );
2466:C:/Workspace/DAVE-4.4.2-64Bit/optiga-trust-m/externals/mbedtls/library\ecp.c ****         if( mbedtls_mpi_cmp_int( &R->Y, 0 ) != 0 )
2467:C:/Workspace/DAVE-4.4.2-64Bit/optiga-trust-m/externals/mbedtls/library\ecp.c ****             MBEDTLS_MPI_CHK( mbedtls_mpi_sub_mpi( &R->Y, &grp->P, &R->Y ) );
2468:C:/Workspace/DAVE-4.4.2-64Bit/optiga-trust-m/externals/mbedtls/library\ecp.c ****     }
2469:C:/Workspace/DAVE-4.4.2-64Bit/optiga-trust-m/externals/mbedtls/library\ecp.c ****     else
2470:C:/Workspace/DAVE-4.4.2-64Bit/optiga-trust-m/externals/mbedtls/library\ecp.c ****     {
2471:C:/Workspace/DAVE-4.4.2-64Bit/optiga-trust-m/externals/mbedtls/library\ecp.c ****         MBEDTLS_MPI_CHK( mbedtls_ecp_mul_restartable( grp, R, m, P,
2472:C:/Workspace/DAVE-4.4.2-64Bit/optiga-trust-m/externals/mbedtls/library\ecp.c ****                                                       NULL, NULL, rs_ctx ) );
2473:C:/Workspace/DAVE-4.4.2-64Bit/optiga-trust-m/externals/mbedtls/library\ecp.c ****     }
2474:C:/Workspace/DAVE-4.4.2-64Bit/optiga-trust-m/externals/mbedtls/library\ecp.c **** 
2475:C:/Workspace/DAVE-4.4.2-64Bit/optiga-trust-m/externals/mbedtls/library\ecp.c **** cleanup:
2476:C:/Workspace/DAVE-4.4.2-64Bit/optiga-trust-m/externals/mbedtls/library\ecp.c ****     return( ret );
2477:C:/Workspace/DAVE-4.4.2-64Bit/optiga-trust-m/externals/mbedtls/library\ecp.c **** }
2478:C:/Workspace/DAVE-4.4.2-64Bit/optiga-trust-m/externals/mbedtls/library\ecp.c **** 
2479:C:/Workspace/DAVE-4.4.2-64Bit/optiga-trust-m/externals/mbedtls/library\ecp.c **** /*
2480:C:/Workspace/DAVE-4.4.2-64Bit/optiga-trust-m/externals/mbedtls/library\ecp.c ****  * Restartable linear combination
2481:C:/Workspace/DAVE-4.4.2-64Bit/optiga-trust-m/externals/mbedtls/library\ecp.c ****  * NOT constant-time
2482:C:/Workspace/DAVE-4.4.2-64Bit/optiga-trust-m/externals/mbedtls/library\ecp.c ****  */
2483:C:/Workspace/DAVE-4.4.2-64Bit/optiga-trust-m/externals/mbedtls/library\ecp.c **** int mbedtls_ecp_muladd_restartable(
2484:C:/Workspace/DAVE-4.4.2-64Bit/optiga-trust-m/externals/mbedtls/library\ecp.c ****              mbedtls_ecp_group *grp, mbedtls_ecp_point *R,
2485:C:/Workspace/DAVE-4.4.2-64Bit/optiga-trust-m/externals/mbedtls/library\ecp.c ****              const mbedtls_mpi *m, const mbedtls_ecp_point *P,
2486:C:/Workspace/DAVE-4.4.2-64Bit/optiga-trust-m/externals/mbedtls/library\ecp.c ****              const mbedtls_mpi *n, const mbedtls_ecp_point *Q,
2487:C:/Workspace/DAVE-4.4.2-64Bit/optiga-trust-m/externals/mbedtls/library\ecp.c ****              mbedtls_ecp_restart_ctx *rs_ctx )
2488:C:/Workspace/DAVE-4.4.2-64Bit/optiga-trust-m/externals/mbedtls/library\ecp.c **** {
2489:C:/Workspace/DAVE-4.4.2-64Bit/optiga-trust-m/externals/mbedtls/library\ecp.c ****     int ret;
2490:C:/Workspace/DAVE-4.4.2-64Bit/optiga-trust-m/externals/mbedtls/library\ecp.c ****     mbedtls_ecp_point mP;
2491:C:/Workspace/DAVE-4.4.2-64Bit/optiga-trust-m/externals/mbedtls/library\ecp.c ****     mbedtls_ecp_point *pmP = &mP;
2492:C:/Workspace/DAVE-4.4.2-64Bit/optiga-trust-m/externals/mbedtls/library\ecp.c ****     mbedtls_ecp_point *pR = R;
2493:C:/Workspace/DAVE-4.4.2-64Bit/optiga-trust-m/externals/mbedtls/library\ecp.c **** #if defined(MBEDTLS_ECP_INTERNAL_ALT)
2494:C:/Workspace/DAVE-4.4.2-64Bit/optiga-trust-m/externals/mbedtls/library\ecp.c ****     char is_grp_capable = 0;
2495:C:/Workspace/DAVE-4.4.2-64Bit/optiga-trust-m/externals/mbedtls/library\ecp.c **** #endif
2496:C:/Workspace/DAVE-4.4.2-64Bit/optiga-trust-m/externals/mbedtls/library\ecp.c ****     ECP_VALIDATE_RET( grp != NULL );
2497:C:/Workspace/DAVE-4.4.2-64Bit/optiga-trust-m/externals/mbedtls/library\ecp.c ****     ECP_VALIDATE_RET( R   != NULL );
2498:C:/Workspace/DAVE-4.4.2-64Bit/optiga-trust-m/externals/mbedtls/library\ecp.c ****     ECP_VALIDATE_RET( m   != NULL );
2499:C:/Workspace/DAVE-4.4.2-64Bit/optiga-trust-m/externals/mbedtls/library\ecp.c ****     ECP_VALIDATE_RET( P   != NULL );
2500:C:/Workspace/DAVE-4.4.2-64Bit/optiga-trust-m/externals/mbedtls/library\ecp.c ****     ECP_VALIDATE_RET( n   != NULL );
2501:C:/Workspace/DAVE-4.4.2-64Bit/optiga-trust-m/externals/mbedtls/library\ecp.c ****     ECP_VALIDATE_RET( Q   != NULL );
2502:C:/Workspace/DAVE-4.4.2-64Bit/optiga-trust-m/externals/mbedtls/library\ecp.c **** 
2503:C:/Workspace/DAVE-4.4.2-64Bit/optiga-trust-m/externals/mbedtls/library\ecp.c ****     if( ecp_get_type( grp ) != ECP_TYPE_SHORT_WEIERSTRASS )
2504:C:/Workspace/DAVE-4.4.2-64Bit/optiga-trust-m/externals/mbedtls/library\ecp.c ****         return( MBEDTLS_ERR_ECP_FEATURE_UNAVAILABLE );
2505:C:/Workspace/DAVE-4.4.2-64Bit/optiga-trust-m/externals/mbedtls/library\ecp.c **** 
2506:C:/Workspace/DAVE-4.4.2-64Bit/optiga-trust-m/externals/mbedtls/library\ecp.c ****     mbedtls_ecp_point_init( &mP );
2507:C:/Workspace/DAVE-4.4.2-64Bit/optiga-trust-m/externals/mbedtls/library\ecp.c **** 
2508:C:/Workspace/DAVE-4.4.2-64Bit/optiga-trust-m/externals/mbedtls/library\ecp.c ****     ECP_RS_ENTER( ma );
2509:C:/Workspace/DAVE-4.4.2-64Bit/optiga-trust-m/externals/mbedtls/library\ecp.c **** 
2510:C:/Workspace/DAVE-4.4.2-64Bit/optiga-trust-m/externals/mbedtls/library\ecp.c **** #if defined(MBEDTLS_ECP_RESTARTABLE)
2511:C:/Workspace/DAVE-4.4.2-64Bit/optiga-trust-m/externals/mbedtls/library\ecp.c ****     if( rs_ctx != NULL && rs_ctx->ma != NULL )
2512:C:/Workspace/DAVE-4.4.2-64Bit/optiga-trust-m/externals/mbedtls/library\ecp.c ****     {
2513:C:/Workspace/DAVE-4.4.2-64Bit/optiga-trust-m/externals/mbedtls/library\ecp.c ****         /* redirect intermediate results to restart context */
2514:C:/Workspace/DAVE-4.4.2-64Bit/optiga-trust-m/externals/mbedtls/library\ecp.c ****         pmP = &rs_ctx->ma->mP;
2515:C:/Workspace/DAVE-4.4.2-64Bit/optiga-trust-m/externals/mbedtls/library\ecp.c ****         pR  = &rs_ctx->ma->R;
2516:C:/Workspace/DAVE-4.4.2-64Bit/optiga-trust-m/externals/mbedtls/library\ecp.c **** 
2517:C:/Workspace/DAVE-4.4.2-64Bit/optiga-trust-m/externals/mbedtls/library\ecp.c ****         /* jump to next operation */
2518:C:/Workspace/DAVE-4.4.2-64Bit/optiga-trust-m/externals/mbedtls/library\ecp.c ****         if( rs_ctx->ma->state == ecp_rsma_mul2 )
2519:C:/Workspace/DAVE-4.4.2-64Bit/optiga-trust-m/externals/mbedtls/library\ecp.c ****             goto mul2;
2520:C:/Workspace/DAVE-4.4.2-64Bit/optiga-trust-m/externals/mbedtls/library\ecp.c ****         if( rs_ctx->ma->state == ecp_rsma_add )
2521:C:/Workspace/DAVE-4.4.2-64Bit/optiga-trust-m/externals/mbedtls/library\ecp.c ****             goto add;
2522:C:/Workspace/DAVE-4.4.2-64Bit/optiga-trust-m/externals/mbedtls/library\ecp.c ****         if( rs_ctx->ma->state == ecp_rsma_norm )
2523:C:/Workspace/DAVE-4.4.2-64Bit/optiga-trust-m/externals/mbedtls/library\ecp.c ****             goto norm;
2524:C:/Workspace/DAVE-4.4.2-64Bit/optiga-trust-m/externals/mbedtls/library\ecp.c ****     }
2525:C:/Workspace/DAVE-4.4.2-64Bit/optiga-trust-m/externals/mbedtls/library\ecp.c **** #endif /* MBEDTLS_ECP_RESTARTABLE */
2526:C:/Workspace/DAVE-4.4.2-64Bit/optiga-trust-m/externals/mbedtls/library\ecp.c **** 
2527:C:/Workspace/DAVE-4.4.2-64Bit/optiga-trust-m/externals/mbedtls/library\ecp.c ****     MBEDTLS_MPI_CHK( mbedtls_ecp_mul_shortcuts( grp, pmP, m, P, rs_ctx ) );
2528:C:/Workspace/DAVE-4.4.2-64Bit/optiga-trust-m/externals/mbedtls/library\ecp.c **** #if defined(MBEDTLS_ECP_RESTARTABLE)
2529:C:/Workspace/DAVE-4.4.2-64Bit/optiga-trust-m/externals/mbedtls/library\ecp.c ****     if( rs_ctx != NULL && rs_ctx->ma != NULL )
2530:C:/Workspace/DAVE-4.4.2-64Bit/optiga-trust-m/externals/mbedtls/library\ecp.c ****         rs_ctx->ma->state = ecp_rsma_mul2;
2531:C:/Workspace/DAVE-4.4.2-64Bit/optiga-trust-m/externals/mbedtls/library\ecp.c **** 
2532:C:/Workspace/DAVE-4.4.2-64Bit/optiga-trust-m/externals/mbedtls/library\ecp.c **** mul2:
2533:C:/Workspace/DAVE-4.4.2-64Bit/optiga-trust-m/externals/mbedtls/library\ecp.c **** #endif
2534:C:/Workspace/DAVE-4.4.2-64Bit/optiga-trust-m/externals/mbedtls/library\ecp.c ****     MBEDTLS_MPI_CHK( mbedtls_ecp_mul_shortcuts( grp, pR,  n, Q, rs_ctx ) );
2535:C:/Workspace/DAVE-4.4.2-64Bit/optiga-trust-m/externals/mbedtls/library\ecp.c **** 
2536:C:/Workspace/DAVE-4.4.2-64Bit/optiga-trust-m/externals/mbedtls/library\ecp.c **** #if defined(MBEDTLS_ECP_INTERNAL_ALT)
2537:C:/Workspace/DAVE-4.4.2-64Bit/optiga-trust-m/externals/mbedtls/library\ecp.c ****     if( ( is_grp_capable = mbedtls_internal_ecp_grp_capable( grp ) ) )
2538:C:/Workspace/DAVE-4.4.2-64Bit/optiga-trust-m/externals/mbedtls/library\ecp.c ****         MBEDTLS_MPI_CHK( mbedtls_internal_ecp_init( grp ) );
2539:C:/Workspace/DAVE-4.4.2-64Bit/optiga-trust-m/externals/mbedtls/library\ecp.c **** #endif /* MBEDTLS_ECP_INTERNAL_ALT */
2540:C:/Workspace/DAVE-4.4.2-64Bit/optiga-trust-m/externals/mbedtls/library\ecp.c **** 
2541:C:/Workspace/DAVE-4.4.2-64Bit/optiga-trust-m/externals/mbedtls/library\ecp.c **** #if defined(MBEDTLS_ECP_RESTARTABLE)
2542:C:/Workspace/DAVE-4.4.2-64Bit/optiga-trust-m/externals/mbedtls/library\ecp.c ****     if( rs_ctx != NULL && rs_ctx->ma != NULL )
2543:C:/Workspace/DAVE-4.4.2-64Bit/optiga-trust-m/externals/mbedtls/library\ecp.c ****         rs_ctx->ma->state = ecp_rsma_add;
2544:C:/Workspace/DAVE-4.4.2-64Bit/optiga-trust-m/externals/mbedtls/library\ecp.c **** 
2545:C:/Workspace/DAVE-4.4.2-64Bit/optiga-trust-m/externals/mbedtls/library\ecp.c **** add:
2546:C:/Workspace/DAVE-4.4.2-64Bit/optiga-trust-m/externals/mbedtls/library\ecp.c **** #endif
2547:C:/Workspace/DAVE-4.4.2-64Bit/optiga-trust-m/externals/mbedtls/library\ecp.c ****     MBEDTLS_ECP_BUDGET( MBEDTLS_ECP_OPS_ADD );
2548:C:/Workspace/DAVE-4.4.2-64Bit/optiga-trust-m/externals/mbedtls/library\ecp.c ****     MBEDTLS_MPI_CHK( ecp_add_mixed( grp, pR, pmP, pR ) );
2549:C:/Workspace/DAVE-4.4.2-64Bit/optiga-trust-m/externals/mbedtls/library\ecp.c **** #if defined(MBEDTLS_ECP_RESTARTABLE)
2550:C:/Workspace/DAVE-4.4.2-64Bit/optiga-trust-m/externals/mbedtls/library\ecp.c ****     if( rs_ctx != NULL && rs_ctx->ma != NULL )
2551:C:/Workspace/DAVE-4.4.2-64Bit/optiga-trust-m/externals/mbedtls/library\ecp.c ****         rs_ctx->ma->state = ecp_rsma_norm;
2552:C:/Workspace/DAVE-4.4.2-64Bit/optiga-trust-m/externals/mbedtls/library\ecp.c **** 
2553:C:/Workspace/DAVE-4.4.2-64Bit/optiga-trust-m/externals/mbedtls/library\ecp.c **** norm:
2554:C:/Workspace/DAVE-4.4.2-64Bit/optiga-trust-m/externals/mbedtls/library\ecp.c **** #endif
2555:C:/Workspace/DAVE-4.4.2-64Bit/optiga-trust-m/externals/mbedtls/library\ecp.c ****     MBEDTLS_ECP_BUDGET( MBEDTLS_ECP_OPS_INV );
2556:C:/Workspace/DAVE-4.4.2-64Bit/optiga-trust-m/externals/mbedtls/library\ecp.c ****     MBEDTLS_MPI_CHK( ecp_normalize_jac( grp, pR ) );
2557:C:/Workspace/DAVE-4.4.2-64Bit/optiga-trust-m/externals/mbedtls/library\ecp.c **** 
2558:C:/Workspace/DAVE-4.4.2-64Bit/optiga-trust-m/externals/mbedtls/library\ecp.c **** #if defined(MBEDTLS_ECP_RESTARTABLE)
2559:C:/Workspace/DAVE-4.4.2-64Bit/optiga-trust-m/externals/mbedtls/library\ecp.c ****     if( rs_ctx != NULL && rs_ctx->ma != NULL )
2560:C:/Workspace/DAVE-4.4.2-64Bit/optiga-trust-m/externals/mbedtls/library\ecp.c ****         MBEDTLS_MPI_CHK( mbedtls_ecp_copy( R, pR ) );
2561:C:/Workspace/DAVE-4.4.2-64Bit/optiga-trust-m/externals/mbedtls/library\ecp.c **** #endif
2562:C:/Workspace/DAVE-4.4.2-64Bit/optiga-trust-m/externals/mbedtls/library\ecp.c **** 
2563:C:/Workspace/DAVE-4.4.2-64Bit/optiga-trust-m/externals/mbedtls/library\ecp.c **** cleanup:
2564:C:/Workspace/DAVE-4.4.2-64Bit/optiga-trust-m/externals/mbedtls/library\ecp.c **** #if defined(MBEDTLS_ECP_INTERNAL_ALT)
2565:C:/Workspace/DAVE-4.4.2-64Bit/optiga-trust-m/externals/mbedtls/library\ecp.c ****     if( is_grp_capable )
2566:C:/Workspace/DAVE-4.4.2-64Bit/optiga-trust-m/externals/mbedtls/library\ecp.c ****         mbedtls_internal_ecp_free( grp );
2567:C:/Workspace/DAVE-4.4.2-64Bit/optiga-trust-m/externals/mbedtls/library\ecp.c **** #endif /* MBEDTLS_ECP_INTERNAL_ALT */
2568:C:/Workspace/DAVE-4.4.2-64Bit/optiga-trust-m/externals/mbedtls/library\ecp.c **** 
2569:C:/Workspace/DAVE-4.4.2-64Bit/optiga-trust-m/externals/mbedtls/library\ecp.c ****     mbedtls_ecp_point_free( &mP );
2570:C:/Workspace/DAVE-4.4.2-64Bit/optiga-trust-m/externals/mbedtls/library\ecp.c **** 
2571:C:/Workspace/DAVE-4.4.2-64Bit/optiga-trust-m/externals/mbedtls/library\ecp.c ****     ECP_RS_LEAVE( ma );
2572:C:/Workspace/DAVE-4.4.2-64Bit/optiga-trust-m/externals/mbedtls/library\ecp.c **** 
2573:C:/Workspace/DAVE-4.4.2-64Bit/optiga-trust-m/externals/mbedtls/library\ecp.c ****     return( ret );
2574:C:/Workspace/DAVE-4.4.2-64Bit/optiga-trust-m/externals/mbedtls/library\ecp.c **** }
2575:C:/Workspace/DAVE-4.4.2-64Bit/optiga-trust-m/externals/mbedtls/library\ecp.c **** 
2576:C:/Workspace/DAVE-4.4.2-64Bit/optiga-trust-m/externals/mbedtls/library\ecp.c **** /*
2577:C:/Workspace/DAVE-4.4.2-64Bit/optiga-trust-m/externals/mbedtls/library\ecp.c ****  * Linear combination
2578:C:/Workspace/DAVE-4.4.2-64Bit/optiga-trust-m/externals/mbedtls/library\ecp.c ****  * NOT constant-time
2579:C:/Workspace/DAVE-4.4.2-64Bit/optiga-trust-m/externals/mbedtls/library\ecp.c ****  */
2580:C:/Workspace/DAVE-4.4.2-64Bit/optiga-trust-m/externals/mbedtls/library\ecp.c **** int mbedtls_ecp_muladd( mbedtls_ecp_group *grp, mbedtls_ecp_point *R,
2581:C:/Workspace/DAVE-4.4.2-64Bit/optiga-trust-m/externals/mbedtls/library\ecp.c ****              const mbedtls_mpi *m, const mbedtls_ecp_point *P,
2582:C:/Workspace/DAVE-4.4.2-64Bit/optiga-trust-m/externals/mbedtls/library\ecp.c ****              const mbedtls_mpi *n, const mbedtls_ecp_point *Q )
2583:C:/Workspace/DAVE-4.4.2-64Bit/optiga-trust-m/externals/mbedtls/library\ecp.c **** {
2584:C:/Workspace/DAVE-4.4.2-64Bit/optiga-trust-m/externals/mbedtls/library\ecp.c ****     ECP_VALIDATE_RET( grp != NULL );
2585:C:/Workspace/DAVE-4.4.2-64Bit/optiga-trust-m/externals/mbedtls/library\ecp.c ****     ECP_VALIDATE_RET( R   != NULL );
2586:C:/Workspace/DAVE-4.4.2-64Bit/optiga-trust-m/externals/mbedtls/library\ecp.c ****     ECP_VALIDATE_RET( m   != NULL );
2587:C:/Workspace/DAVE-4.4.2-64Bit/optiga-trust-m/externals/mbedtls/library\ecp.c ****     ECP_VALIDATE_RET( P   != NULL );
2588:C:/Workspace/DAVE-4.4.2-64Bit/optiga-trust-m/externals/mbedtls/library\ecp.c ****     ECP_VALIDATE_RET( n   != NULL );
2589:C:/Workspace/DAVE-4.4.2-64Bit/optiga-trust-m/externals/mbedtls/library\ecp.c ****     ECP_VALIDATE_RET( Q   != NULL );
2590:C:/Workspace/DAVE-4.4.2-64Bit/optiga-trust-m/externals/mbedtls/library\ecp.c ****     return( mbedtls_ecp_muladd_restartable( grp, R, m, P, n, Q, NULL ) );
2591:C:/Workspace/DAVE-4.4.2-64Bit/optiga-trust-m/externals/mbedtls/library\ecp.c **** }
2592:C:/Workspace/DAVE-4.4.2-64Bit/optiga-trust-m/externals/mbedtls/library\ecp.c **** 
2593:C:/Workspace/DAVE-4.4.2-64Bit/optiga-trust-m/externals/mbedtls/library\ecp.c **** #if defined(ECP_MONTGOMERY)
2594:C:/Workspace/DAVE-4.4.2-64Bit/optiga-trust-m/externals/mbedtls/library\ecp.c **** /*
2595:C:/Workspace/DAVE-4.4.2-64Bit/optiga-trust-m/externals/mbedtls/library\ecp.c ****  * Check validity of a public key for Montgomery curves with x-only schemes
2596:C:/Workspace/DAVE-4.4.2-64Bit/optiga-trust-m/externals/mbedtls/library\ecp.c ****  */
2597:C:/Workspace/DAVE-4.4.2-64Bit/optiga-trust-m/externals/mbedtls/library\ecp.c **** static int ecp_check_pubkey_mx( const mbedtls_ecp_group *grp, const mbedtls_ecp_point *pt )
2598:C:/Workspace/DAVE-4.4.2-64Bit/optiga-trust-m/externals/mbedtls/library\ecp.c **** {
2599:C:/Workspace/DAVE-4.4.2-64Bit/optiga-trust-m/externals/mbedtls/library\ecp.c ****     /* [Curve25519 p. 5] Just check X is the correct number of bytes */
2600:C:/Workspace/DAVE-4.4.2-64Bit/optiga-trust-m/externals/mbedtls/library\ecp.c ****     /* Allow any public value, if it's too big then we'll just reduce it mod p
2601:C:/Workspace/DAVE-4.4.2-64Bit/optiga-trust-m/externals/mbedtls/library\ecp.c ****      * (RFC 7748 sec. 5 para. 3). */
2602:C:/Workspace/DAVE-4.4.2-64Bit/optiga-trust-m/externals/mbedtls/library\ecp.c ****     if( mbedtls_mpi_size( &pt->X ) > ( grp->nbits + 7 ) / 8 )
2603:C:/Workspace/DAVE-4.4.2-64Bit/optiga-trust-m/externals/mbedtls/library\ecp.c ****         return( MBEDTLS_ERR_ECP_INVALID_KEY );
2604:C:/Workspace/DAVE-4.4.2-64Bit/optiga-trust-m/externals/mbedtls/library\ecp.c **** 
2605:C:/Workspace/DAVE-4.4.2-64Bit/optiga-trust-m/externals/mbedtls/library\ecp.c ****     return( 0 );
2606:C:/Workspace/DAVE-4.4.2-64Bit/optiga-trust-m/externals/mbedtls/library\ecp.c **** }
2607:C:/Workspace/DAVE-4.4.2-64Bit/optiga-trust-m/externals/mbedtls/library\ecp.c **** #endif /* ECP_MONTGOMERY */
2608:C:/Workspace/DAVE-4.4.2-64Bit/optiga-trust-m/externals/mbedtls/library\ecp.c **** 
2609:C:/Workspace/DAVE-4.4.2-64Bit/optiga-trust-m/externals/mbedtls/library\ecp.c **** /*
2610:C:/Workspace/DAVE-4.4.2-64Bit/optiga-trust-m/externals/mbedtls/library\ecp.c ****  * Check that a point is valid as a public key
2611:C:/Workspace/DAVE-4.4.2-64Bit/optiga-trust-m/externals/mbedtls/library\ecp.c ****  */
2612:C:/Workspace/DAVE-4.4.2-64Bit/optiga-trust-m/externals/mbedtls/library\ecp.c **** int mbedtls_ecp_check_pubkey( const mbedtls_ecp_group *grp,
2613:C:/Workspace/DAVE-4.4.2-64Bit/optiga-trust-m/externals/mbedtls/library\ecp.c ****                               const mbedtls_ecp_point *pt )
2614:C:/Workspace/DAVE-4.4.2-64Bit/optiga-trust-m/externals/mbedtls/library\ecp.c **** {
 4468              	 .loc 1 2614 0
 4469              	 .cfi_startproc
 4470              	.LVL820:
 4471 0000 F0B5     	 push {r4,r5,r6,r7,lr}
 4472              	.LCFI35:
 4473              	 .cfi_def_cfa_offset 20
 4474              	 .cfi_offset 4,-20
 4475              	 .cfi_offset 5,-16
 4476              	 .cfi_offset 6,-12
 4477              	 .cfi_offset 7,-8
 4478              	 .cfi_offset 14,-4
 4479 0002 051C     	 mov r5,r0
2615:C:/Workspace/DAVE-4.4.2-64Bit/optiga-trust-m/externals/mbedtls/library\ecp.c ****     ECP_VALIDATE_RET( grp != NULL );
2616:C:/Workspace/DAVE-4.4.2-64Bit/optiga-trust-m/externals/mbedtls/library\ecp.c ****     ECP_VALIDATE_RET( pt  != NULL );
2617:C:/Workspace/DAVE-4.4.2-64Bit/optiga-trust-m/externals/mbedtls/library\ecp.c **** 
2618:C:/Workspace/DAVE-4.4.2-64Bit/optiga-trust-m/externals/mbedtls/library\ecp.c ****     /* Must use affine coordinates */
2619:C:/Workspace/DAVE-4.4.2-64Bit/optiga-trust-m/externals/mbedtls/library\ecp.c ****     if( mbedtls_mpi_cmp_int( &pt->Z, 1 ) != 0 )
 4480              	 .loc 1 2619 0
 4481 0004 081C     	 mov r0,r1
 4482              	.LVL821:
2614:C:/Workspace/DAVE-4.4.2-64Bit/optiga-trust-m/externals/mbedtls/library\ecp.c ****     ECP_VALIDATE_RET( grp != NULL );
 4483              	 .loc 1 2614 0
 4484 0006 89B0     	 sub sp,sp,#36
 4485              	.LCFI36:
 4486              	 .cfi_def_cfa_offset 56
2614:C:/Workspace/DAVE-4.4.2-64Bit/optiga-trust-m/externals/mbedtls/library\ecp.c ****     ECP_VALIDATE_RET( grp != NULL );
 4487              	 .loc 1 2614 0
 4488 0008 0F1C     	 mov r7,r1
 4489              	 .loc 1 2619 0
 4490 000a 1830     	 add r0,r0,#24
 4491 000c 0121     	 mov r1,#1
 4492              	.LVL822:
 4493 000e FFF7FEFF 	 bl mbedtls_mpi_cmp_int
 4494              	.LVL823:
 4495 0012 061E     	 sub r6,r0,#0
 4496 0014 00D0     	 beq .LCB4852
 4497 0016 A4E0     	 b .L394
 4498              	.LCB4852:
2620:C:/Workspace/DAVE-4.4.2-64Bit/optiga-trust-m/externals/mbedtls/library\ecp.c ****         return( MBEDTLS_ERR_ECP_INVALID_KEY );
2621:C:/Workspace/DAVE-4.4.2-64Bit/optiga-trust-m/externals/mbedtls/library\ecp.c **** 
2622:C:/Workspace/DAVE-4.4.2-64Bit/optiga-trust-m/externals/mbedtls/library\ecp.c **** #if defined(ECP_MONTGOMERY)
2623:C:/Workspace/DAVE-4.4.2-64Bit/optiga-trust-m/externals/mbedtls/library\ecp.c ****     if( ecp_get_type( grp ) == ECP_TYPE_MONTGOMERY )
2624:C:/Workspace/DAVE-4.4.2-64Bit/optiga-trust-m/externals/mbedtls/library\ecp.c ****         return( ecp_check_pubkey_mx( grp, pt ) );
2625:C:/Workspace/DAVE-4.4.2-64Bit/optiga-trust-m/externals/mbedtls/library\ecp.c **** #endif
2626:C:/Workspace/DAVE-4.4.2-64Bit/optiga-trust-m/externals/mbedtls/library\ecp.c **** #if defined(ECP_SHORTWEIERSTRASS)
2627:C:/Workspace/DAVE-4.4.2-64Bit/optiga-trust-m/externals/mbedtls/library\ecp.c ****     if( ecp_get_type( grp ) == ECP_TYPE_SHORT_WEIERSTRASS )
 4499              	 .loc 1 2627 0
 4500 0018 281C     	 mov r0,r5
 4501 001a FFF7FEFF 	 bl ecp_get_type
 4502              	.LVL824:
 4503 001e 0128     	 cmp r0,#1
 4504 0020 00D0     	 beq .LCB4857
 4505 0022 A0E0     	 b .L395
 4506              	.LCB4857:
 4507              	.LVL825:
 4508              	.LBB58:
 4509              	.LBB59:
2408:C:/Workspace/DAVE-4.4.2-64Bit/optiga-trust-m/externals/mbedtls/library\ecp.c ****         mbedtls_mpi_cmp_int( &pt->Y, 0 ) < 0 ||
 4510              	 .loc 1 2408 0
 4511 0024 381C     	 mov r0,r7
 4512 0026 311C     	 mov r1,r6
 4513 0028 FFF7FEFF 	 bl mbedtls_mpi_cmp_int
 4514              	.LVL826:
 4515 002c 0028     	 cmp r0,#0
 4516 002e 00DA     	 bge .LCB4867
 4517 0030 97E0     	 b .L394
 4518              	.LCB4867:
2409:C:/Workspace/DAVE-4.4.2-64Bit/optiga-trust-m/externals/mbedtls/library\ecp.c ****         mbedtls_mpi_cmp_mpi( &pt->X, &grp->P ) >= 0 ||
 4519              	 .loc 1 2409 0
 4520 0032 3C1C     	 mov r4,r7
 4521 0034 0C34     	 add r4,r4,#12
 4522 0036 201C     	 mov r0,r4
 4523 0038 311C     	 mov r1,r6
 4524 003a FFF7FEFF 	 bl mbedtls_mpi_cmp_int
 4525              	.LVL827:
2408:C:/Workspace/DAVE-4.4.2-64Bit/optiga-trust-m/externals/mbedtls/library\ecp.c ****         mbedtls_mpi_cmp_int( &pt->Y, 0 ) < 0 ||
 4526              	 .loc 1 2408 0
 4527 003e 0028     	 cmp r0,#0
 4528 0040 00DA     	 bge .LCB4875
 4529 0042 8EE0     	 b .L394
 4530              	.LCB4875:
2410:C:/Workspace/DAVE-4.4.2-64Bit/optiga-trust-m/externals/mbedtls/library\ecp.c ****         mbedtls_mpi_cmp_mpi( &pt->Y, &grp->P ) >= 0 )
 4531              	 .loc 1 2410 0
 4532 0044 2E1D     	 add r6,r5,#4
 4533 0046 381C     	 mov r0,r7
 4534 0048 311C     	 mov r1,r6
 4535 004a FFF7FEFF 	 bl mbedtls_mpi_cmp_mpi
 4536              	.LVL828:
2409:C:/Workspace/DAVE-4.4.2-64Bit/optiga-trust-m/externals/mbedtls/library\ecp.c ****         mbedtls_mpi_cmp_mpi( &pt->X, &grp->P ) >= 0 ||
 4537              	 .loc 1 2409 0
 4538 004e 0028     	 cmp r0,#0
 4539 0050 00DB     	 blt .LCB4882
 4540 0052 86E0     	 b .L394
 4541              	.LCB4882:
2411:C:/Workspace/DAVE-4.4.2-64Bit/optiga-trust-m/externals/mbedtls/library\ecp.c ****         return( MBEDTLS_ERR_ECP_INVALID_KEY );
 4542              	 .loc 1 2411 0
 4543 0054 201C     	 mov r0,r4
 4544 0056 311C     	 mov r1,r6
 4545 0058 FFF7FEFF 	 bl mbedtls_mpi_cmp_mpi
 4546              	.LVL829:
2410:C:/Workspace/DAVE-4.4.2-64Bit/optiga-trust-m/externals/mbedtls/library\ecp.c ****         mbedtls_mpi_cmp_mpi( &pt->Y, &grp->P ) >= 0 )
 4547              	 .loc 1 2410 0
 4548 005c 0028     	 cmp r0,#0
 4549 005e 00DB     	 blt .LCB4888
 4550 0060 7FE0     	 b .L394
 4551              	.LCB4888:
2414:C:/Workspace/DAVE-4.4.2-64Bit/optiga-trust-m/externals/mbedtls/library\ecp.c **** 
 4552              	 .loc 1 2414 0
 4553 0062 02A8     	 add r0,sp,#8
 4554 0064 FFF7FEFF 	 bl mbedtls_mpi_init
 4555              	.LVL830:
 4556 0068 05A8     	 add r0,sp,#20
 4557 006a FFF7FEFF 	 bl mbedtls_mpi_init
 4558              	.LVL831:
2420:C:/Workspace/DAVE-4.4.2-64Bit/optiga-trust-m/externals/mbedtls/library\ecp.c ****     MBEDTLS_MPI_CHK( mbedtls_mpi_mul_mpi( &RHS, &pt->X,   &pt->X  ) );  MOD_MUL( RHS );
 4559              	 .loc 1 2420 0
 4560 006e 211C     	 mov r1,r4
 4561 0070 221C     	 mov r2,r4
 4562 0072 02A8     	 add r0,sp,#8
 4563 0074 FFF7FEFF 	 bl mbedtls_mpi_mul_mpi
 4564              	.LVL832:
 4565 0078 041E     	 sub r4,r0,#0
 4566              	.LVL833:
 4567 007a 6AD1     	 bne .L383
 4568 007c 02A8     	 add r0,sp,#8
 4569              	.LVL834:
 4570 007e 291C     	 mov r1,r5
 4571 0080 FFF7FEFF 	 bl ecp_modp
 4572              	.LVL835:
 4573 0084 041E     	 sub r4,r0,#0
 4574              	.LVL836:
 4575 0086 64D1     	 bne .L383
2421:C:/Workspace/DAVE-4.4.2-64Bit/optiga-trust-m/externals/mbedtls/library\ecp.c **** 
 4576              	 .loc 1 2421 0
 4577 0088 05A8     	 add r0,sp,#20
 4578              	.LVL837:
 4579 008a 391C     	 mov r1,r7
 4580 008c 3A1C     	 mov r2,r7
 4581 008e FFF7FEFF 	 bl mbedtls_mpi_mul_mpi
 4582              	.LVL838:
 4583 0092 041E     	 sub r4,r0,#0
 4584              	.LVL839:
 4585 0094 5DD1     	 bne .L383
 4586 0096 05A8     	 add r0,sp,#20
 4587              	.LVL840:
 4588 0098 291C     	 mov r1,r5
 4589 009a FFF7FEFF 	 bl ecp_modp
 4590              	.LVL841:
 4591 009e 041E     	 sub r4,r0,#0
 4592              	.LVL842:
 4593 00a0 57D1     	 bne .L383
2424:C:/Workspace/DAVE-4.4.2-64Bit/optiga-trust-m/externals/mbedtls/library\ecp.c ****     {
 4594              	 .loc 1 2424 0
 4595 00a2 AB69     	 ldr r3,[r5,#24]
2426:C:/Workspace/DAVE-4.4.2-64Bit/optiga-trust-m/externals/mbedtls/library\ecp.c ****     }
 4596              	 .loc 1 2426 0
 4597 00a4 05A8     	 add r0,sp,#20
 4598              	.LVL843:
 4599 00a6 011C     	 mov r1,r0
2424:C:/Workspace/DAVE-4.4.2-64Bit/optiga-trust-m/externals/mbedtls/library\ecp.c ****     {
 4600              	 .loc 1 2424 0
 4601 00a8 002B     	 cmp r3,#0
 4602 00aa 1CD1     	 bne .L384
2426:C:/Workspace/DAVE-4.4.2-64Bit/optiga-trust-m/externals/mbedtls/library\ecp.c ****     }
 4603              	 .loc 1 2426 0
 4604 00ac 0322     	 mov r2,#3
 4605 00ae FFF7FEFF 	 bl mbedtls_mpi_sub_int
 4606              	.LVL844:
 4607              	.L402:
 4608 00b2 041E     	 sub r4,r0,#0
 4609              	.LVL845:
 4610 00b4 4DD1     	 bne .L383
 4611 00b6 059B     	 ldr r3,[sp,#20]
 4612 00b8 0193     	 str r3,[sp,#4]
 4613 00ba 002B     	 cmp r3,#0
 4614 00bc 07DB     	 blt .L386
 4615              	.LVL846:
 4616              	.L389:
2433:C:/Workspace/DAVE-4.4.2-64Bit/optiga-trust-m/externals/mbedtls/library\ecp.c ****     MBEDTLS_MPI_CHK( mbedtls_mpi_add_mpi( &RHS, &RHS,     &grp->B ) );  MOD_ADD( RHS );
 4617              	 .loc 1 2433 0
 4618 00be 05A8     	 add r0,sp,#20
 4619 00c0 011C     	 mov r1,r0
 4620 00c2 3A1C     	 mov r2,r7
 4621 00c4 FFF7FEFF 	 bl mbedtls_mpi_mul_mpi
 4622              	.LVL847:
 4623 00c8 041E     	 sub r4,r0,#0
 4624              	.LVL848:
 4625 00ca 42D1     	 bne .L383
 4626 00cc 1DE0     	 b .L405
 4627              	.L386:
2426:C:/Workspace/DAVE-4.4.2-64Bit/optiga-trust-m/externals/mbedtls/library\ecp.c ****     }
 4628              	 .loc 1 2426 0
 4629 00ce 05A8     	 add r0,sp,#20
 4630              	.LVL849:
 4631 00d0 0021     	 mov r1,#0
 4632 00d2 FFF7FEFF 	 bl mbedtls_mpi_cmp_int
 4633              	.LVL850:
 4634 00d6 0028     	 cmp r0,#0
 4635 00d8 F1D0     	 beq .L389
 4636 00da 05A8     	 add r0,sp,#20
 4637 00dc 011C     	 mov r1,r0
 4638 00de 321C     	 mov r2,r6
 4639 00e0 FFF7FEFF 	 bl mbedtls_mpi_add_mpi
 4640              	.LVL851:
 4641 00e4 E5E7     	 b .L402
 4642              	.L384:
2430:C:/Workspace/DAVE-4.4.2-64Bit/optiga-trust-m/externals/mbedtls/library\ecp.c ****     }
 4643              	 .loc 1 2430 0
 4644 00e6 2A1C     	 mov r2,r5
 4645 00e8 1032     	 add r2,r2,#16
 4646 00ea FFF7FEFF 	 bl mbedtls_mpi_add_mpi
 4647              	.LVL852:
 4648              	.L404:
 4649 00ee 041E     	 sub r4,r0,#0
 4650              	.LVL853:
 4651 00f0 2FD1     	 bne .L383
 4652 00f2 05A8     	 add r0,sp,#20
 4653              	.LVL854:
 4654 00f4 311C     	 mov r1,r6
 4655 00f6 FFF7FEFF 	 bl mbedtls_mpi_cmp_mpi
 4656              	.LVL855:
 4657 00fa 0028     	 cmp r0,#0
 4658 00fc DFDB     	 blt .L389
 4659 00fe 05A8     	 add r0,sp,#20
 4660 0100 011C     	 mov r1,r0
 4661 0102 321C     	 mov r2,r6
 4662 0104 FFF7FEFF 	 bl mbedtls_mpi_sub_abs
 4663              	.LVL856:
 4664 0108 F1E7     	 b .L404
 4665              	.LVL857:
 4666              	.L405:
2433:C:/Workspace/DAVE-4.4.2-64Bit/optiga-trust-m/externals/mbedtls/library\ecp.c ****     MBEDTLS_MPI_CHK( mbedtls_mpi_add_mpi( &RHS, &RHS,     &grp->B ) );  MOD_ADD( RHS );
 4667              	 .loc 1 2433 0
 4668 010a 05A8     	 add r0,sp,#20
 4669              	.LVL858:
 4670 010c 291C     	 mov r1,r5
 4671 010e FFF7FEFF 	 bl ecp_modp
 4672              	.LVL859:
 4673 0112 041E     	 sub r4,r0,#0
 4674              	.LVL860:
 4675 0114 1DD1     	 bne .L383
2434:C:/Workspace/DAVE-4.4.2-64Bit/optiga-trust-m/externals/mbedtls/library\ecp.c **** 
 4676              	 .loc 1 2434 0
 4677 0116 2A1C     	 mov r2,r5
 4678 0118 05A8     	 add r0,sp,#20
 4679              	.LVL861:
 4680 011a 1C32     	 add r2,r2,#28
 4681 011c 011C     	 mov r1,r0
 4682 011e FFF7FEFF 	 bl mbedtls_mpi_add_mpi
 4683              	.LVL862:
 4684 0122 041E     	 sub r4,r0,#0
 4685              	.LVL863:
 4686 0124 15D1     	 bne .L383
 4687              	.L392:
 4688              	.LVL864:
 4689 0126 05A8     	 add r0,sp,#20
 4690 0128 311C     	 mov r1,r6
 4691 012a FFF7FEFF 	 bl mbedtls_mpi_cmp_mpi
 4692              	.LVL865:
 4693 012e 0028     	 cmp r0,#0
 4694 0130 08DB     	 blt .L406
 4695 0132 05A8     	 add r0,sp,#20
 4696 0134 011C     	 mov r1,r0
 4697 0136 321C     	 mov r2,r6
 4698 0138 FFF7FEFF 	 bl mbedtls_mpi_sub_abs
 4699              	.LVL866:
 4700 013c 0028     	 cmp r0,#0
 4701 013e F2D0     	 beq .L392
 4702 0140 041C     	 mov r4,r0
 4703 0142 06E0     	 b .L383
 4704              	.LVL867:
 4705              	.L406:
2436:C:/Workspace/DAVE-4.4.2-64Bit/optiga-trust-m/externals/mbedtls/library\ecp.c ****         ret = MBEDTLS_ERR_ECP_INVALID_KEY;
 4706              	 .loc 1 2436 0
 4707 0144 02A8     	 add r0,sp,#8
 4708 0146 05A9     	 add r1,sp,#20
 4709 0148 FFF7FEFF 	 bl mbedtls_mpi_cmp_mpi
 4710              	.LVL868:
 4711 014c 0028     	 cmp r0,#0
 4712 014e 00D0     	 beq .L383
2437:C:/Workspace/DAVE-4.4.2-64Bit/optiga-trust-m/externals/mbedtls/library\ecp.c **** 
 4713              	 .loc 1 2437 0
 4714 0150 064C     	 ldr r4,.L407
 4715              	.LVL869:
 4716              	.L383:
2441:C:/Workspace/DAVE-4.4.2-64Bit/optiga-trust-m/externals/mbedtls/library\ecp.c **** 
 4717              	 .loc 1 2441 0
 4718 0152 02A8     	 add r0,sp,#8
 4719 0154 FFF7FEFF 	 bl mbedtls_mpi_free
 4720              	.LVL870:
 4721 0158 05A8     	 add r0,sp,#20
 4722 015a FFF7FEFF 	 bl mbedtls_mpi_free
 4723              	.LVL871:
2443:C:/Workspace/DAVE-4.4.2-64Bit/optiga-trust-m/externals/mbedtls/library\ecp.c **** }
 4724              	 .loc 1 2443 0
 4725 015e 201C     	 mov r0,r4
 4726              	.LBE59:
 4727              	.LBE58:
2628:C:/Workspace/DAVE-4.4.2-64Bit/optiga-trust-m/externals/mbedtls/library\ecp.c ****         return( ecp_check_pubkey_sw( grp, pt ) );
 4728              	 .loc 1 2628 0
 4729 0160 02E0     	 b .L379
 4730              	.LVL872:
 4731              	.L394:
2620:C:/Workspace/DAVE-4.4.2-64Bit/optiga-trust-m/externals/mbedtls/library\ecp.c **** 
 4732              	 .loc 1 2620 0
 4733 0162 0248     	 ldr r0,.L407
 4734 0164 00E0     	 b .L379
 4735              	.L395:
2629:C:/Workspace/DAVE-4.4.2-64Bit/optiga-trust-m/externals/mbedtls/library\ecp.c **** #endif
2630:C:/Workspace/DAVE-4.4.2-64Bit/optiga-trust-m/externals/mbedtls/library\ecp.c ****     return( MBEDTLS_ERR_ECP_BAD_INPUT_DATA );
 4736              	 .loc 1 2630 0
 4737 0166 0248     	 ldr r0,.L407+4
 4738              	.L379:
2631:C:/Workspace/DAVE-4.4.2-64Bit/optiga-trust-m/externals/mbedtls/library\ecp.c **** }
 4739              	 .loc 1 2631 0
 4740 0168 09B0     	 add sp,sp,#36
 4741              	 
 4742              	.LVL873:
 4743              	.LVL874:
 4744 016a F0BD     	 pop {r4,r5,r6,r7,pc}
 4745              	.L408:
 4746              	 .align 2
 4747              	.L407:
 4748 016c 80B3FFFF 	 .word -19584
 4749 0170 80B0FFFF 	 .word -20352
 4750              	 .cfi_endproc
 4751              	.LFE46:
 4753              	 .section .text.mbedtls_ecp_check_privkey,"ax",%progbits
 4754              	 .align 1
 4755              	 .global mbedtls_ecp_check_privkey
 4756              	 .code 16
 4757              	 .thumb_func
 4759              	mbedtls_ecp_check_privkey:
 4760              	.LFB47:
2632:C:/Workspace/DAVE-4.4.2-64Bit/optiga-trust-m/externals/mbedtls/library\ecp.c **** 
2633:C:/Workspace/DAVE-4.4.2-64Bit/optiga-trust-m/externals/mbedtls/library\ecp.c **** /*
2634:C:/Workspace/DAVE-4.4.2-64Bit/optiga-trust-m/externals/mbedtls/library\ecp.c ****  * Check that an mbedtls_mpi is valid as a private key
2635:C:/Workspace/DAVE-4.4.2-64Bit/optiga-trust-m/externals/mbedtls/library\ecp.c ****  */
2636:C:/Workspace/DAVE-4.4.2-64Bit/optiga-trust-m/externals/mbedtls/library\ecp.c **** int mbedtls_ecp_check_privkey( const mbedtls_ecp_group *grp,
2637:C:/Workspace/DAVE-4.4.2-64Bit/optiga-trust-m/externals/mbedtls/library\ecp.c ****                                const mbedtls_mpi *d )
2638:C:/Workspace/DAVE-4.4.2-64Bit/optiga-trust-m/externals/mbedtls/library\ecp.c **** {
 4761              	 .loc 1 2638 0
 4762              	 .cfi_startproc
 4763              	.LVL875:
 4764 0000 38B5     	 push {r3,r4,r5,lr}
 4765              	.LCFI37:
 4766              	 .cfi_def_cfa_offset 16
 4767              	 .cfi_offset 3,-16
 4768              	 .cfi_offset 4,-12
 4769              	 .cfi_offset 5,-8
 4770              	 .cfi_offset 14,-4
 4771              	 .loc 1 2638 0
 4772 0002 0D1C     	 mov r5,r1
 4773 0004 041C     	 mov r4,r0
2639:C:/Workspace/DAVE-4.4.2-64Bit/optiga-trust-m/externals/mbedtls/library\ecp.c ****     ECP_VALIDATE_RET( grp != NULL );
2640:C:/Workspace/DAVE-4.4.2-64Bit/optiga-trust-m/externals/mbedtls/library\ecp.c ****     ECP_VALIDATE_RET( d   != NULL );
2641:C:/Workspace/DAVE-4.4.2-64Bit/optiga-trust-m/externals/mbedtls/library\ecp.c **** 
2642:C:/Workspace/DAVE-4.4.2-64Bit/optiga-trust-m/externals/mbedtls/library\ecp.c **** #if defined(ECP_MONTGOMERY)
2643:C:/Workspace/DAVE-4.4.2-64Bit/optiga-trust-m/externals/mbedtls/library\ecp.c ****     if( ecp_get_type( grp ) == ECP_TYPE_MONTGOMERY )
2644:C:/Workspace/DAVE-4.4.2-64Bit/optiga-trust-m/externals/mbedtls/library\ecp.c ****     {
2645:C:/Workspace/DAVE-4.4.2-64Bit/optiga-trust-m/externals/mbedtls/library\ecp.c ****         /* see RFC 7748 sec. 5 para. 5 */
2646:C:/Workspace/DAVE-4.4.2-64Bit/optiga-trust-m/externals/mbedtls/library\ecp.c ****         if( mbedtls_mpi_get_bit( d, 0 ) != 0 ||
2647:C:/Workspace/DAVE-4.4.2-64Bit/optiga-trust-m/externals/mbedtls/library\ecp.c ****             mbedtls_mpi_get_bit( d, 1 ) != 0 ||
2648:C:/Workspace/DAVE-4.4.2-64Bit/optiga-trust-m/externals/mbedtls/library\ecp.c ****             mbedtls_mpi_bitlen( d ) - 1 != grp->nbits ) /* mbedtls_mpi_bitlen is one-based! */
2649:C:/Workspace/DAVE-4.4.2-64Bit/optiga-trust-m/externals/mbedtls/library\ecp.c ****             return( MBEDTLS_ERR_ECP_INVALID_KEY );
2650:C:/Workspace/DAVE-4.4.2-64Bit/optiga-trust-m/externals/mbedtls/library\ecp.c **** 
2651:C:/Workspace/DAVE-4.4.2-64Bit/optiga-trust-m/externals/mbedtls/library\ecp.c ****         /* see [Curve25519] page 5 */
2652:C:/Workspace/DAVE-4.4.2-64Bit/optiga-trust-m/externals/mbedtls/library\ecp.c ****         if( grp->nbits == 254 && mbedtls_mpi_get_bit( d, 2 ) != 0 )
2653:C:/Workspace/DAVE-4.4.2-64Bit/optiga-trust-m/externals/mbedtls/library\ecp.c ****             return( MBEDTLS_ERR_ECP_INVALID_KEY );
2654:C:/Workspace/DAVE-4.4.2-64Bit/optiga-trust-m/externals/mbedtls/library\ecp.c **** 
2655:C:/Workspace/DAVE-4.4.2-64Bit/optiga-trust-m/externals/mbedtls/library\ecp.c ****         return( 0 );
2656:C:/Workspace/DAVE-4.4.2-64Bit/optiga-trust-m/externals/mbedtls/library\ecp.c ****     }
2657:C:/Workspace/DAVE-4.4.2-64Bit/optiga-trust-m/externals/mbedtls/library\ecp.c **** #endif /* ECP_MONTGOMERY */
2658:C:/Workspace/DAVE-4.4.2-64Bit/optiga-trust-m/externals/mbedtls/library\ecp.c **** #if defined(ECP_SHORTWEIERSTRASS)
2659:C:/Workspace/DAVE-4.4.2-64Bit/optiga-trust-m/externals/mbedtls/library\ecp.c ****     if( ecp_get_type( grp ) == ECP_TYPE_SHORT_WEIERSTRASS )
 4774              	 .loc 1 2659 0
 4775 0006 FFF7FEFF 	 bl ecp_get_type
 4776              	.LVL876:
 4777 000a 011E     	 sub r1,r0,#0
 4778 000c 0129     	 cmp r1,#1
 4779 000e 0DD1     	 bne .L411
2660:C:/Workspace/DAVE-4.4.2-64Bit/optiga-trust-m/externals/mbedtls/library\ecp.c ****     {
2661:C:/Workspace/DAVE-4.4.2-64Bit/optiga-trust-m/externals/mbedtls/library\ecp.c ****         /* see SEC1 3.2 */
2662:C:/Workspace/DAVE-4.4.2-64Bit/optiga-trust-m/externals/mbedtls/library\ecp.c ****         if( mbedtls_mpi_cmp_int( d, 1 ) < 0 ||
 4780              	 .loc 1 2662 0
 4781 0010 281C     	 mov r0,r5
 4782 0012 FFF7FEFF 	 bl mbedtls_mpi_cmp_int
 4783              	.LVL877:
 4784 0016 0028     	 cmp r0,#0
 4785 0018 0ADB     	 blt .L412
2663:C:/Workspace/DAVE-4.4.2-64Bit/optiga-trust-m/externals/mbedtls/library\ecp.c ****             mbedtls_mpi_cmp_mpi( d, &grp->N ) >= 0 )
 4786              	 .loc 1 2663 0 discriminator 1
 4787 001a 211C     	 mov r1,r4
 4788 001c 281C     	 mov r0,r5
 4789 001e 4C31     	 add r1,r1,#76
 4790 0020 FFF7FEFF 	 bl mbedtls_mpi_cmp_mpi
 4791              	.LVL878:
2664:C:/Workspace/DAVE-4.4.2-64Bit/optiga-trust-m/externals/mbedtls/library\ecp.c ****             return( MBEDTLS_ERR_ECP_INVALID_KEY );
2665:C:/Workspace/DAVE-4.4.2-64Bit/optiga-trust-m/externals/mbedtls/library\ecp.c ****         else
2666:C:/Workspace/DAVE-4.4.2-64Bit/optiga-trust-m/externals/mbedtls/library\ecp.c ****             return( 0 );
 4792              	 .loc 1 2666 0 discriminator 1
 4793 0024 0023     	 mov r3,#0
2662:C:/Workspace/DAVE-4.4.2-64Bit/optiga-trust-m/externals/mbedtls/library\ecp.c ****             mbedtls_mpi_cmp_mpi( d, &grp->N ) >= 0 )
 4794              	 .loc 1 2662 0 discriminator 1
 4795 0026 9842     	 cmp r0,r3
 4796 0028 03DB     	 blt .L410
 4797 002a 01E0     	 b .L412
 4798              	.L411:
2667:C:/Workspace/DAVE-4.4.2-64Bit/optiga-trust-m/externals/mbedtls/library\ecp.c ****     }
2668:C:/Workspace/DAVE-4.4.2-64Bit/optiga-trust-m/externals/mbedtls/library\ecp.c **** #endif /* ECP_SHORTWEIERSTRASS */
2669:C:/Workspace/DAVE-4.4.2-64Bit/optiga-trust-m/externals/mbedtls/library\ecp.c **** 
2670:C:/Workspace/DAVE-4.4.2-64Bit/optiga-trust-m/externals/mbedtls/library\ecp.c ****     return( MBEDTLS_ERR_ECP_BAD_INPUT_DATA );
 4799              	 .loc 1 2670 0
 4800 002c 024B     	 ldr r3,.L414
 4801 002e 00E0     	 b .L410
 4802              	.L412:
2664:C:/Workspace/DAVE-4.4.2-64Bit/optiga-trust-m/externals/mbedtls/library\ecp.c ****         else
 4803              	 .loc 1 2664 0
 4804 0030 024B     	 ldr r3,.L414+4
 4805              	.L410:
2671:C:/Workspace/DAVE-4.4.2-64Bit/optiga-trust-m/externals/mbedtls/library\ecp.c **** }
 4806              	 .loc 1 2671 0
 4807 0032 181C     	 mov r0,r3
 4808              	 
 4809              	.LVL879:
 4810              	.LVL880:
 4811 0034 38BD     	 pop {r3,r4,r5,pc}
 4812              	.L415:
 4813 0036 C046     	 .align 2
 4814              	.L414:
 4815 0038 80B0FFFF 	 .word -20352
 4816 003c 80B3FFFF 	 .word -19584
 4817              	 .cfi_endproc
 4818              	.LFE47:
 4820              	 .global __aeabi_uidiv
 4821              	 .global __aeabi_uidivmod
 4822              	 .section .text.mbedtls_ecp_mul_restartable,"ax",%progbits
 4823              	 .align 1
 4824              	 .global mbedtls_ecp_mul_restartable
 4825              	 .code 16
 4826              	 .thumb_func
 4828              	mbedtls_ecp_mul_restartable:
 4829              	.LFB40:
2324:C:/Workspace/DAVE-4.4.2-64Bit/optiga-trust-m/externals/mbedtls/library\ecp.c ****     int ret = MBEDTLS_ERR_ECP_BAD_INPUT_DATA;
 4830              	 .loc 1 2324 0
 4831              	 .cfi_startproc
 4832              	.LVL881:
 4833 0000 F0B5     	 push {r4,r5,r6,r7,lr}
 4834              	.LCFI38:
 4835              	 .cfi_def_cfa_offset 20
 4836              	 .cfi_offset 4,-20
 4837              	 .cfi_offset 5,-16
 4838              	 .cfi_offset 6,-12
 4839              	 .cfi_offset 7,-8
 4840              	 .cfi_offset 14,-4
 4841 0002 B3B0     	 sub sp,sp,#204
 4842              	.LCFI39:
 4843              	 .cfi_def_cfa_offset 224
 4844              	.LVL882:
2324:C:/Workspace/DAVE-4.4.2-64Bit/optiga-trust-m/externals/mbedtls/library\ecp.c ****     int ret = MBEDTLS_ERR_ECP_BAD_INPUT_DATA;
 4845              	 .loc 1 2324 0
 4846 0004 0E91     	 str r1,[sp,#56]
2354:C:/Workspace/DAVE-4.4.2-64Bit/optiga-trust-m/externals/mbedtls/library\ecp.c ****         MBEDTLS_MPI_CHK( mbedtls_ecp_check_pubkey( grp, P ) );
 4847              	 .loc 1 2354 0
 4848 0006 111C     	 mov r1,r2
 4849              	.LVL883:
2324:C:/Workspace/DAVE-4.4.2-64Bit/optiga-trust-m/externals/mbedtls/library\ecp.c ****     int ret = MBEDTLS_ERR_ECP_BAD_INPUT_DATA;
 4850              	 .loc 1 2324 0
 4851 0008 071C     	 mov r7,r0
 4852 000a 0F92     	 str r2,[sp,#60]
 4853 000c 1D1C     	 mov r5,r3
2354:C:/Workspace/DAVE-4.4.2-64Bit/optiga-trust-m/externals/mbedtls/library\ecp.c ****         MBEDTLS_MPI_CHK( mbedtls_ecp_check_pubkey( grp, P ) );
 4854              	 .loc 1 2354 0
 4855 000e FFF7FEFF 	 bl mbedtls_ecp_check_privkey
 4856              	.LVL884:
 4857 0012 041E     	 sub r4,r0,#0
 4858              	.LVL885:
 4859 0014 00D0     	 beq .LCB5235
 4860 0016 19E1     	 b .L450
 4861              	.LCB5235:
2355:C:/Workspace/DAVE-4.4.2-64Bit/optiga-trust-m/externals/mbedtls/library\ecp.c ****     }
 4862              	 .loc 1 2355 0
 4863 0018 381C     	 mov r0,r7
 4864              	.LVL886:
 4865 001a 291C     	 mov r1,r5
 4866 001c FFF7FEFF 	 bl mbedtls_ecp_check_pubkey
 4867              	.LVL887:
 4868 0020 041E     	 sub r4,r0,#0
 4869              	.LVL888:
 4870 0022 00D0     	 beq .LCB5245
 4871 0024 12E1     	 b .L450
 4872              	.LCB5245:
 4873              	.LVL889:
 4874              	.LBB68:
 4875              	.LBB69:
2364:C:/Workspace/DAVE-4.4.2-64Bit/optiga-trust-m/externals/mbedtls/library\ecp.c ****         MBEDTLS_MPI_CHK( ecp_mul_comb( grp, R, m, P, f_rng, p_rng, rs_ctx ) );
 4876              	 .loc 1 2364 0
 4877 0026 381C     	 mov r0,r7
 4878              	.LVL890:
 4879 0028 FFF7FEFF 	 bl ecp_get_type
 4880              	.LVL891:
 4881 002c 0128     	 cmp r0,#1
 4882 002e 00D0     	 beq .LCB5261
 4883 0030 8AE0     	 b .L441
 4884              	.LCB5261:
 4885              	.LVL892:
 4886              	.LBB70:
 4887              	.LBB71:
2013:C:/Workspace/DAVE-4.4.2-64Bit/optiga-trust-m/externals/mbedtls/library\ecp.c ****                mbedtls_mpi_cmp_mpi( &P->X, &grp->G.X ) == 0 );
 4888              	 .loc 1 2013 0
 4889 0032 281C     	 mov r0,r5
 4890 0034 391C     	 mov r1,r7
 4891 0036 0C30     	 add r0,r0,#12
 4892 0038 3431     	 add r1,r1,#52
 4893 003a FFF7FEFF 	 bl mbedtls_mpi_cmp_mpi
 4894              	.LVL893:
 4895 003e 0B94     	 str r4,[sp,#44]
 4896 0040 0028     	 cmp r0,#0
 4897 0042 07D1     	 bne .L418
2014:C:/Workspace/DAVE-4.4.2-64Bit/optiga-trust-m/externals/mbedtls/library\ecp.c **** #else
 4898              	 .loc 1 2014 0
 4899 0044 391C     	 mov r1,r7
 4900 0046 281C     	 mov r0,r5
 4901 0048 2831     	 add r1,r1,#40
 4902 004a FFF7FEFF 	 bl mbedtls_mpi_cmp_mpi
 4903              	.LVL894:
2013:C:/Workspace/DAVE-4.4.2-64Bit/optiga-trust-m/externals/mbedtls/library\ecp.c ****                mbedtls_mpi_cmp_mpi( &P->X, &grp->G.X ) == 0 );
 4904              	 .loc 1 2013 0
 4905 004e 4342     	 neg r3,r0
 4906 0050 4341     	 adc r3,r3,r0
 4907 0052 0B93     	 str r3,[sp,#44]
 4908              	.L418:
 4909              	.LVL895:
 4910              	.LBB72:
 4911              	.LBB73:
1962:C:/Workspace/DAVE-4.4.2-64Bit/optiga-trust-m/externals/mbedtls/library\ecp.c **** 
 4912              	 .loc 1 1962 0
 4913 0054 8023     	 mov r3,#128
 4914 0056 F86D     	 ldr r0,[r7,#92]
 4915              	.LVL896:
 4916 0058 FF33     	 add r3,r3,#255
 4917 005a 8342     	 cmp r3,r0
 4918 005c 9B41     	 sbc r3,r3,r3
 4919 005e 5B42     	 neg r3,r3
 4920 0060 1A1D     	 add r2,r3,#4
 4921 0062 0892     	 str r2,[sp,#32]
 4922              	.LVL897:
1969:C:/Workspace/DAVE-4.4.2-64Bit/optiga-trust-m/externals/mbedtls/library\ecp.c ****         w++;
 4923              	 .loc 1 1969 0
 4924 0064 0B9A     	 ldr r2,[sp,#44]
 4925 0066 002A     	 cmp r2,#0
 4926 0068 02D0     	 beq .L420
1970:C:/Workspace/DAVE-4.4.2-64Bit/optiga-trust-m/externals/mbedtls/library\ecp.c **** 
 4927              	 .loc 1 1970 0
 4928 006a 0533     	 add r3,r3,#5
 4929 006c DBB2     	 uxtb r3,r3
 4930 006e 0893     	 str r3,[sp,#32]
 4931              	.LVL898:
 4932              	.L420:
1978:C:/Workspace/DAVE-4.4.2-64Bit/optiga-trust-m/externals/mbedtls/library\ecp.c ****         w = 2;
 4933              	 .loc 1 1978 0
 4934 0070 089B     	 ldr r3,[sp,#32]
 4935 0072 8342     	 cmp r3,r0
 4936 0074 01D3     	 bcc .L421
1979:C:/Workspace/DAVE-4.4.2-64Bit/optiga-trust-m/externals/mbedtls/library\ecp.c **** 
 4937              	 .loc 1 1979 0
 4938 0076 0223     	 mov r3,#2
 4939 0078 0893     	 str r3,[sp,#32]
 4940              	.LVL899:
 4941              	.L421:
 4942              	.LBE73:
 4943              	.LBE72:
2021:C:/Workspace/DAVE-4.4.2-64Bit/optiga-trust-m/externals/mbedtls/library\ecp.c ****     d = ( grp->nbits + w - 1 ) / w;
 4944              	 .loc 1 2021 0
 4945 007a 089B     	 ldr r3,[sp,#32]
 4946 007c 0138     	 sub r0,r0,#1
 4947 007e 013B     	 sub r3,r3,#1
 4948 0080 0A93     	 str r3,[sp,#40]
 4949 0082 0123     	 mov r3,#1
 4950 0084 0A9A     	 ldr r2,[sp,#40]
 4951 0086 9340     	 lsl r3,r3,r2
 4952 0088 3422     	 mov r2,#52
 4953 008a 0D93     	 str r3,[sp,#52]
 4954 008c 6B46     	 mov r3,sp
 4955 008e 9B18     	 add r3,r3,r2
 4956 0090 1B78     	 ldrb r3,[r3]
 4957 0092 0993     	 str r3,[sp,#36]
 4958              	.LVL900:
2022:C:/Workspace/DAVE-4.4.2-64Bit/optiga-trust-m/externals/mbedtls/library\ecp.c **** 
 4959              	 .loc 1 2022 0
 4960 0094 089B     	 ldr r3,[sp,#32]
 4961 0096 C018     	 add r0,r0,r3
 4962 0098 191C     	 mov r1,r3
 4963 009a FFF7FEFF 	 bl __aeabi_uidiv
 4964              	.LVL901:
2025:C:/Workspace/DAVE-4.4.2-64Bit/optiga-trust-m/externals/mbedtls/library\ecp.c ****     {
 4965              	 .loc 1 2025 0
 4966 009e 0B9B     	 ldr r3,[sp,#44]
2022:C:/Workspace/DAVE-4.4.2-64Bit/optiga-trust-m/externals/mbedtls/library\ecp.c **** 
 4967              	 .loc 1 2022 0
 4968 00a0 0C90     	 str r0,[sp,#48]
 4969              	.LVL902:
2025:C:/Workspace/DAVE-4.4.2-64Bit/optiga-trust-m/externals/mbedtls/library\ecp.c ****     {
 4970              	 .loc 1 2025 0
 4971 00a2 002B     	 cmp r3,#0
 4972 00a4 03D0     	 beq .L422
 4973 00a6 7B6F     	 ldr r3,[r7,#116]
 4974 00a8 0793     	 str r3,[sp,#28]
 4975 00aa 002B     	 cmp r3,#0
 4976 00ac 1ED1     	 bne .L423
 4977              	.L422:
2048:C:/Workspace/DAVE-4.4.2-64Bit/optiga-trust-m/externals/mbedtls/library\ecp.c ****         if( T == NULL )
 4978              	 .loc 1 2048 0
 4979 00ae 0D98     	 ldr r0,[sp,#52]
 4980              	.LVL903:
 4981 00b0 2421     	 mov r1,#36
 4982 00b2 FFF7FEFF 	 bl calloc
 4983              	.LVL904:
 4984 00b6 0790     	 str r0,[sp,#28]
 4985              	.LVL905:
2049:C:/Workspace/DAVE-4.4.2-64Bit/optiga-trust-m/externals/mbedtls/library\ecp.c ****         {
 4986              	 .loc 1 2049 0
 4987 00b8 0028     	 cmp r0,#0
 4988 00ba 29D0     	 beq .L444
 4989 00bc 061C     	 mov r6,r0
 4990 00be 0024     	 mov r4,#0
 4991              	.LVL906:
 4992              	.L425:
2056:C:/Workspace/DAVE-4.4.2-64Bit/optiga-trust-m/externals/mbedtls/library\ecp.c **** 
 4993              	 .loc 1 2056 0
 4994 00c0 301C     	 mov r0,r6
 4995 00c2 FFF7FEFF 	 bl mbedtls_ecp_point_init
 4996              	.LVL907:
2055:C:/Workspace/DAVE-4.4.2-64Bit/optiga-trust-m/externals/mbedtls/library\ecp.c ****             mbedtls_ecp_point_init( &T[i] );
 4997              	 .loc 1 2055 0
 4998 00c6 0134     	 add r4,r4,#1
 4999              	.LVL908:
 5000 00c8 099B     	 ldr r3,[sp,#36]
 5001 00ca E4B2     	 uxtb r4,r4
 5002              	.LVL909:
 5003 00cc 2436     	 add r6,r6,#36
 5004 00ce 9C42     	 cmp r4,r3
 5005 00d0 F6D3     	 bcc .L425
 5006 00d2 3BE0     	 b .L463
 5007              	.LVL910:
 5008              	.L466:
 5009              	.L428:
 5010 00d4 6A1E     	 sub r2,r5,#1
 5011              	.LBB74:
 5012              	.LBB75:
1727:C:/Workspace/DAVE-4.4.2-64Bit/optiga-trust-m/externals/mbedtls/library\ecp.c **** 
 5013              	 .loc 1 1727 0
 5014 00d6 381C     	 mov r0,r7
 5015 00d8 FFF7FEFF 	 bl ecp_normalize_jac_many
 5016              	.LVL911:
 5017 00dc 041E     	 sub r4,r0,#0
 5018              	.LBE75:
 5019              	.LBE74:
2064:C:/Workspace/DAVE-4.4.2-64Bit/optiga-trust-m/externals/mbedtls/library\ecp.c **** 
 5020              	 .loc 1 2064 0
 5021 00de 18D1     	 bne .L424
2066:C:/Workspace/DAVE-4.4.2-64Bit/optiga-trust-m/externals/mbedtls/library\ecp.c ****         {
 5022              	 .loc 1 2066 0
 5023 00e0 0B9B     	 ldr r3,[sp,#44]
 5024 00e2 002B     	 cmp r3,#0
 5025 00e4 02D0     	 beq .L423
2070:C:/Workspace/DAVE-4.4.2-64Bit/optiga-trust-m/externals/mbedtls/library\ecp.c ****             grp->T_size = T_size;
 5026              	 .loc 1 2070 0
 5027 00e6 079B     	 ldr r3,[sp,#28]
2071:C:/Workspace/DAVE-4.4.2-64Bit/optiga-trust-m/externals/mbedtls/library\ecp.c ****         }
 5028              	 .loc 1 2071 0
 5029 00e8 BD67     	 str r5,[r7,#120]
2070:C:/Workspace/DAVE-4.4.2-64Bit/optiga-trust-m/externals/mbedtls/library\ecp.c ****             grp->T_size = T_size;
 5030              	 .loc 1 2070 0
 5031 00ea 7B67     	 str r3,[r7,#116]
 5032              	.LVL912:
 5033              	.L423:
2076:C:/Workspace/DAVE-4.4.2-64Bit/optiga-trust-m/externals/mbedtls/library\ecp.c ****                                                  T, T_size, w, d,
 5034              	 .loc 1 2076 0
 5035 00ec 099B     	 ldr r3,[sp,#36]
 5036 00ee 381C     	 mov r0,r7
 5037 00f0 0093     	 str r3,[sp]
 5038 00f2 089B     	 ldr r3,[sp,#32]
 5039 00f4 0E99     	 ldr r1,[sp,#56]
 5040 00f6 0193     	 str r3,[sp,#4]
 5041 00f8 0C9B     	 ldr r3,[sp,#48]
 5042 00fa 0F9A     	 ldr r2,[sp,#60]
 5043 00fc 0293     	 str r3,[sp,#8]
 5044 00fe 389B     	 ldr r3,[sp,#224]
 5045 0100 0393     	 str r3,[sp,#12]
 5046 0102 399B     	 ldr r3,[sp,#228]
 5047 0104 0493     	 str r3,[sp,#16]
 5048 0106 079B     	 ldr r3,[sp,#28]
 5049 0108 FFF7FEFF 	 bl ecp_mul_comb_after_precomp.isra.6
 5050              	.LVL913:
 5051 010c 041C     	 mov r4,r0
 5052              	.LVL914:
 5053 010e 00E0     	 b .L424
 5054              	.LVL915:
 5055              	.L444:
2051:C:/Workspace/DAVE-4.4.2-64Bit/optiga-trust-m/externals/mbedtls/library\ecp.c ****             goto cleanup;
 5056              	 .loc 1 2051 0
 5057 0110 504C     	 ldr r4,.L467
 5058              	.LVL916:
 5059              	.L424:
2083:C:/Workspace/DAVE-4.4.2-64Bit/optiga-trust-m/externals/mbedtls/library\ecp.c ****         T = NULL;
 5060              	 .loc 1 2083 0
 5061 0112 7B6F     	 ldr r3,[r7,#116]
 5062 0114 079A     	 ldr r2,[sp,#28]
 5063 0116 9A42     	 cmp r2,r3
 5064 0118 0FD0     	 beq .L438
2098:C:/Workspace/DAVE-4.4.2-64Bit/optiga-trust-m/externals/mbedtls/library\ecp.c ****     {
 5065              	 .loc 1 2098 0
 5066 011a 002A     	 cmp r2,#0
 5067 011c 0DD0     	 beq .L438
 5068 011e 161C     	 mov r6,r2
 5069 0120 0025     	 mov r5,#0
 5070              	.L439:
 5071              	.LVL917:
2101:C:/Workspace/DAVE-4.4.2-64Bit/optiga-trust-m/externals/mbedtls/library\ecp.c ****         mbedtls_free( T );
 5072              	 .loc 1 2101 0
 5073 0122 301C     	 mov r0,r6
 5074 0124 FFF7FEFF 	 bl mbedtls_ecp_point_free
 5075              	.LVL918:
2100:C:/Workspace/DAVE-4.4.2-64Bit/optiga-trust-m/externals/mbedtls/library\ecp.c ****             mbedtls_ecp_point_free( &T[i] );
 5076              	 .loc 1 2100 0
 5077 0128 0135     	 add r5,r5,#1
 5078              	.LVL919:
 5079 012a 099B     	 ldr r3,[sp,#36]
 5080 012c EDB2     	 uxtb r5,r5
 5081              	.LVL920:
 5082 012e 2436     	 add r6,r6,#36
 5083 0130 9D42     	 cmp r5,r3
 5084 0132 F6D3     	 bcc .L439
2102:C:/Workspace/DAVE-4.4.2-64Bit/optiga-trust-m/externals/mbedtls/library\ecp.c ****     }
 5085              	 .loc 1 2102 0
 5086 0134 0798     	 ldr r0,[sp,#28]
 5087 0136 FFF7FEFF 	 bl free
 5088              	.LVL921:
 5089              	.L438:
2110:C:/Workspace/DAVE-4.4.2-64Bit/optiga-trust-m/externals/mbedtls/library\ecp.c ****         mbedtls_ecp_point_free( R );
 5090              	 .loc 1 2110 0
 5091 013a 002C     	 cmp r4,#0
 5092 013c 00D1     	 bne .LCB5527
 5093 013e 85E0     	 b .L450
 5094              	.LCB5527:
2111:C:/Workspace/DAVE-4.4.2-64Bit/optiga-trust-m/externals/mbedtls/library\ecp.c **** 
 5095              	 .loc 1 2111 0
 5096 0140 0E98     	 ldr r0,[sp,#56]
 5097 0142 FFF7FEFF 	 bl mbedtls_ecp_point_free
 5098              	.LVL922:
 5099 0146 81E0     	 b .L450
 5100              	.LVL923:
 5101              	.L441:
 5102              	.L417:
 5103              	.LBE71:
 5104              	.LBE70:
2358:C:/Workspace/DAVE-4.4.2-64Bit/optiga-trust-m/externals/mbedtls/library\ecp.c **** #if defined(ECP_MONTGOMERY)
 5105              	 .loc 1 2358 0
 5106 0148 434C     	 ldr r4,.L467+4
 5107              	.LVL924:
 5108 014a 7FE0     	 b .L450
 5109              	.LVL925:
 5110              	.L463:
 5111              	.LBB79:
 5112              	.LBB78:
 5113              	.LBB77:
 5114              	.LBB76:
1652:C:/Workspace/DAVE-4.4.2-64Bit/optiga-trust-m/externals/mbedtls/library\ecp.c **** 
 5115              	 .loc 1 1652 0
 5116 014c 0798     	 ldr r0,[sp,#28]
 5117 014e 291C     	 mov r1,r5
 5118 0150 FFF7FEFF 	 bl mbedtls_ecp_copy
 5119              	.LVL926:
 5120 0154 041E     	 sub r4,r0,#0
 5121              	.LVL927:
 5122 0156 DCD1     	 bne .L424
1661:C:/Workspace/DAVE-4.4.2-64Bit/optiga-trust-m/externals/mbedtls/library\ecp.c ****     {
 5123              	 .loc 1 1661 0
 5124 0158 0A9B     	 ldr r3,[sp,#40]
 5125 015a 0C9A     	 ldr r2,[sp,#48]
 5126 015c 0A90     	 str r0,[sp,#40]
 5127 015e 5343     	 mul r3,r2
 5128 0160 1093     	 str r3,[sp,#64]
 5129              	.LVL928:
 5130              	.L440:
 5131 0162 0A9B     	 ldr r3,[sp,#40]
 5132 0164 109A     	 ldr r2,[sp,#64]
 5133 0166 9342     	 cmp r3,r2
 5134 0168 26D0     	 beq .L464
1665:C:/Workspace/DAVE-4.4.2-64Bit/optiga-trust-m/externals/mbedtls/library\ecp.c ****         cur = T + i;
 5135              	 .loc 1 1665 0
 5136 016a 0C99     	 ldr r1,[sp,#48]
 5137 016c 0A98     	 ldr r0,[sp,#40]
 5138              	.LVL929:
 5139 016e FFF7FEFF 	 bl __aeabi_uidiv
 5140              	.LVL930:
 5141 0172 0124     	 mov r4,#1
 5142              	.LVL931:
 5143 0174 8440     	 lsl r4,r4,r0
 5144              	.LVL932:
1666:C:/Workspace/DAVE-4.4.2-64Bit/optiga-trust-m/externals/mbedtls/library\ecp.c **** 
 5145              	 .loc 1 1666 0
 5146 0176 2426     	 mov r6,#36
 5147 0178 E5B2     	 uxtb r5,r4
 5148 017a 7543     	 mul r5,r6
 5149 017c 079B     	 ldr r3,[sp,#28]
1668:C:/Workspace/DAVE-4.4.2-64Bit/optiga-trust-m/externals/mbedtls/library\ecp.c ****             MBEDTLS_MPI_CHK( mbedtls_ecp_copy( cur, T + ( i >> 1 ) ) );
 5150              	 .loc 1 1668 0
 5151 017e 0A98     	 ldr r0,[sp,#40]
 5152 0180 0C99     	 ldr r1,[sp,#48]
1666:C:/Workspace/DAVE-4.4.2-64Bit/optiga-trust-m/externals/mbedtls/library\ecp.c **** 
 5153              	 .loc 1 1666 0
 5154 0182 5D19     	 add r5,r3,r5
 5155              	.LVL933:
1668:C:/Workspace/DAVE-4.4.2-64Bit/optiga-trust-m/externals/mbedtls/library\ecp.c ****             MBEDTLS_MPI_CHK( mbedtls_ecp_copy( cur, T + ( i >> 1 ) ) );
 5156              	 .loc 1 1668 0
 5157 0184 FFF7FEFF 	 bl __aeabi_uidivmod
 5158              	.LVL934:
 5159 0188 0029     	 cmp r1,#0
 5160 018a 0AD0     	 beq .L427
 5161              	.LVL935:
 5162              	.L430:
1671:C:/Workspace/DAVE-4.4.2-64Bit/optiga-trust-m/externals/mbedtls/library\ecp.c ****     }
 5163              	 .loc 1 1671 0
 5164 018c 381C     	 mov r0,r7
 5165 018e 291C     	 mov r1,r5
 5166 0190 2A1C     	 mov r2,r5
 5167 0192 FFF7FEFF 	 bl ecp_double_jac
 5168              	.LVL936:
 5169 0196 041E     	 sub r4,r0,#0
 5170              	.LVL937:
 5171 0198 BBD1     	 bne .L424
1661:C:/Workspace/DAVE-4.4.2-64Bit/optiga-trust-m/externals/mbedtls/library\ecp.c ****     {
 5172              	 .loc 1 1661 0
 5173 019a 0A9B     	 ldr r3,[sp,#40]
 5174 019c 0133     	 add r3,r3,#1
 5175 019e 0A93     	 str r3,[sp,#40]
 5176              	.LVL938:
 5177 01a0 DFE7     	 b .L440
 5178              	.LVL939:
 5179              	.L427:
1669:C:/Workspace/DAVE-4.4.2-64Bit/optiga-trust-m/externals/mbedtls/library\ecp.c **** 
 5180              	 .loc 1 1669 0
 5181 01a2 E1B2     	 uxtb r1,r4
 5182 01a4 4908     	 lsr r1,r1,#1
 5183 01a6 4E43     	 mul r6,r1
 5184 01a8 079B     	 ldr r3,[sp,#28]
 5185 01aa 281C     	 mov r0,r5
 5186 01ac 9919     	 add r1,r3,r6
 5187 01ae FFF7FEFF 	 bl mbedtls_ecp_copy
 5188              	.LVL940:
 5189 01b2 041E     	 sub r4,r0,#0
 5190              	.LVL941:
 5191 01b4 EAD0     	 beq .L430
 5192 01b6 ACE7     	 b .L424
 5193              	.LVL942:
 5194              	.L464:
1661:C:/Workspace/DAVE-4.4.2-64Bit/optiga-trust-m/externals/mbedtls/library\ecp.c ****     {
 5195              	 .loc 1 1661 0
 5196 01b8 0123     	 mov r3,#1
 5197              	.LVL943:
 5198 01ba 0022     	 mov r2,#0
 5199              	.LVL944:
 5200              	.L432:
1686:C:/Workspace/DAVE-4.4.2-64Bit/optiga-trust-m/externals/mbedtls/library\ecp.c **** 
 5201              	 .loc 1 1686 0
 5202 01bc 2420     	 mov r0,#36
 5203 01be 5843     	 mul r0,r3
 5204 01c0 0132     	 add r2,r2,#1
 5205              	.LVL945:
 5206 01c2 079D     	 ldr r5,[sp,#28]
 5207 01c4 9400     	 lsl r4,r2,#2
 5208 01c6 2818     	 add r0,r5,r0
 5209 01c8 13A9     	 add r1,sp,#76
 5210 01ca 043C     	 sub r4,r4,#4
 5211 01cc 0851     	 str r0,[r1,r4]
1685:C:/Workspace/DAVE-4.4.2-64Bit/optiga-trust-m/externals/mbedtls/library\ecp.c ****         TT[j++] = T + i;
 5212              	 .loc 1 1685 0
 5213 01ce 5B00     	 lsl r3,r3,#1
 5214              	.LVL946:
 5215 01d0 0998     	 ldr r0,[sp,#36]
 5216 01d2 DBB2     	 uxtb r3,r3
 5217              	.LVL947:
 5218 01d4 8342     	 cmp r3,r0
 5219 01d6 F1D3     	 bcc .L432
1690:C:/Workspace/DAVE-4.4.2-64Bit/optiga-trust-m/externals/mbedtls/library\ecp.c **** 
 5220              	 .loc 1 1690 0
 5221 01d8 381C     	 mov r0,r7
 5222 01da FFF7FEFF 	 bl ecp_normalize_jac_many
 5223              	.LVL948:
 5224 01de 041E     	 sub r4,r0,#0
 5225              	.LVL949:
 5226 01e0 97D1     	 bne .L424
 5227 01e2 0125     	 mov r5,#1
 5228              	.L435:
 5229              	.LVL950:
1708:C:/Workspace/DAVE-4.4.2-64Bit/optiga-trust-m/externals/mbedtls/library\ecp.c ****     }
 5230              	 .loc 1 1708 0
 5231 01e4 2423     	 mov r3,#36
 5232 01e6 6B43     	 mul r3,r5
 5233 01e8 079A     	 ldr r2,[sp,#28]
 5234 01ea 4826     	 mov r6,#72
 5235 01ec D318     	 add r3,r2,r3
 5236 01ee 1193     	 str r3,[sp,#68]
 5237 01f0 2423     	 mov r3,#36
 5238 01f2 6E43     	 mul r6,r5
 5239 01f4 5B42     	 neg r3,r3
 5240 01f6 6B43     	 mul r3,r5
 5241 01f8 243E     	 sub r6,r6,#36
 5242 01fa 9619     	 add r6,r2,r6
 5243 01fc 1093     	 str r3,[sp,#64]
 5244 01fe 0A95     	 str r5,[sp,#40]
 5245              	.LVL951:
 5246              	.L433:
1707:C:/Workspace/DAVE-4.4.2-64Bit/optiga-trust-m/externals/mbedtls/library\ecp.c ****             MBEDTLS_MPI_CHK( ecp_add_mixed( grp, &T[i + j], &T[j], &T[i] ) );
 5247              	 .loc 1 1707 0
 5248 0200 0A9B     	 ldr r3,[sp,#40]
 5249 0202 002B     	 cmp r3,#0
 5250 0204 0ED0     	 beq .L465
 5251 0206 109B     	 ldr r3,[sp,#64]
1708:C:/Workspace/DAVE-4.4.2-64Bit/optiga-trust-m/externals/mbedtls/library\ecp.c ****     }
 5252              	 .loc 1 1708 0
 5253 0208 311C     	 mov r1,r6
 5254 020a F218     	 add r2,r6,r3
 5255 020c 381C     	 mov r0,r7
 5256              	.LVL952:
 5257 020e 119B     	 ldr r3,[sp,#68]
 5258 0210 FFF7FEFF 	 bl ecp_add_mixed
 5259              	.LVL953:
 5260 0214 0A9B     	 ldr r3,[sp,#40]
 5261 0216 041C     	 mov r4,r0
 5262              	.LVL954:
 5263 0218 013B     	 sub r3,r3,#1
 5264 021a 0A93     	 str r3,[sp,#40]
 5265              	.LVL955:
 5266 021c 243E     	 sub r6,r6,#36
 5267 021e 0028     	 cmp r0,#0
 5268 0220 EED0     	 beq .L433
 5269 0222 76E7     	 b .L424
 5270              	.LVL956:
 5271              	.L465:
1704:C:/Workspace/DAVE-4.4.2-64Bit/optiga-trust-m/externals/mbedtls/library\ecp.c ****     {
 5272              	 .loc 1 1704 0
 5273 0224 6B00     	 lsl r3,r5,#1
 5274              	.LVL957:
 5275 0226 DDB2     	 uxtb r5,r3
 5276              	.LVL958:
 5277 0228 099B     	 ldr r3,[sp,#36]
 5278 022a 9D42     	 cmp r5,r3
 5279 022c DAD3     	 bcc .L435
 5280 022e 0A9D     	 ldr r5,[sp,#40]
 5281              	.LVL959:
 5282              	.L436:
1722:C:/Workspace/DAVE-4.4.2-64Bit/optiga-trust-m/externals/mbedtls/library\ecp.c ****         TT[j] = T + j + 1;
 5283              	 .loc 1 1722 0
 5284 0230 0D9B     	 ldr r3,[sp,#52]
 5285 0232 0135     	 add r5,r5,#1
 5286              	.LVL960:
 5287 0234 13A9     	 add r1,sp,#76
 5288 0236 9D42     	 cmp r5,r3
 5289 0238 00D1     	 bne .LCB5818
 5290 023a 4BE7     	 b .L466
 5291              	.LCB5818:
 5292              	.LVL961:
 5293 023c 2423     	 mov r3,#36
 5294 023e 6B43     	 mul r3,r5
 5295 0240 0798     	 ldr r0,[sp,#28]
 5296 0242 AA00     	 lsl r2,r5,#2
 5297 0244 043A     	 sub r2,r2,#4
 5298 0246 C318     	 add r3,r0,r3
1723:C:/Workspace/DAVE-4.4.2-64Bit/optiga-trust-m/externals/mbedtls/library\ecp.c **** 
 5299              	 .loc 1 1723 0
 5300 0248 8B50     	 str r3,[r1,r2]
 5301 024a F1E7     	 b .L436
 5302              	.LVL962:
 5303              	.L450:
 5304              	.LBE76:
 5305              	.LBE77:
 5306              	.LBE78:
 5307              	.LBE79:
 5308              	.LBE69:
 5309              	.LBE68:
2381:C:/Workspace/DAVE-4.4.2-64Bit/optiga-trust-m/externals/mbedtls/library\ecp.c **** 
 5310              	 .loc 1 2381 0
 5311 024c 201C     	 mov r0,r4
 5312 024e 33B0     	 add sp,sp,#204
 5313              	 
 5314              	.LVL963:
 5315 0250 F0BD     	 pop {r4,r5,r6,r7,pc}
 5316              	.L468:
 5317 0252 C046     	 .align 2
 5318              	.L467:
 5319 0254 80B2FFFF 	 .word -19840
 5320 0258 80B0FFFF 	 .word -20352
 5321              	 .cfi_endproc
 5322              	.LFE40:
 5324              	 .section .text.mbedtls_ecp_mul,"ax",%progbits
 5325              	 .align 1
 5326              	 .global mbedtls_ecp_mul
 5327              	 .code 16
 5328              	 .thumb_func
 5330              	mbedtls_ecp_mul:
 5331              	.LFB41:
2389:C:/Workspace/DAVE-4.4.2-64Bit/optiga-trust-m/externals/mbedtls/library\ecp.c ****     ECP_VALIDATE_RET( grp != NULL );
 5332              	 .loc 1 2389 0
 5333              	 .cfi_startproc
 5334              	.LVL964:
 5335 0000 1FB5     	 push {r0,r1,r2,r3,r4,lr}
 5336              	.LCFI40:
 5337              	 .cfi_def_cfa_offset 24
 5338              	 .cfi_offset 0,-24
 5339              	 .cfi_offset 1,-20
 5340              	 .cfi_offset 2,-16
 5341              	 .cfi_offset 3,-12
 5342              	 .cfi_offset 4,-8
 5343              	 .cfi_offset 14,-4
2394:C:/Workspace/DAVE-4.4.2-64Bit/optiga-trust-m/externals/mbedtls/library\ecp.c **** }
 5344              	 .loc 1 2394 0
 5345 0002 069C     	 ldr r4,[sp,#24]
 5346 0004 0094     	 str r4,[sp]
 5347 0006 079C     	 ldr r4,[sp,#28]
 5348 0008 0194     	 str r4,[sp,#4]
 5349 000a 0024     	 mov r4,#0
 5350 000c 0294     	 str r4,[sp,#8]
 5351 000e FFF7FEFF 	 bl mbedtls_ecp_mul_restartable
 5352              	.LVL965:
2395:C:/Workspace/DAVE-4.4.2-64Bit/optiga-trust-m/externals/mbedtls/library\ecp.c **** 
 5353              	 .loc 1 2395 0
 5354 0012 04B0     	 add sp,sp,#16
 5355              	 
 5356 0014 10BD     	 pop {r4,pc}
 5357              	 .cfi_endproc
 5358              	.LFE41:
 5360              	 .section .text.mbedtls_ecp_mul_shortcuts,"ax",%progbits
 5361              	 .align 1
 5362              	 .code 16
 5363              	 .thumb_func
 5365              	mbedtls_ecp_mul_shortcuts:
 5366              	.LFB43:
2456:C:/Workspace/DAVE-4.4.2-64Bit/optiga-trust-m/externals/mbedtls/library\ecp.c ****     int ret;
 5367              	 .loc 1 2456 0
 5368              	 .cfi_startproc
 5369              	.LVL966:
 5370 0000 F0B5     	 push {r4,r5,r6,r7,lr}
 5371              	.LCFI41:
 5372              	 .cfi_def_cfa_offset 20
 5373              	 .cfi_offset 4,-20
 5374              	 .cfi_offset 5,-16
 5375              	 .cfi_offset 6,-12
 5376              	 .cfi_offset 7,-8
 5377              	 .cfi_offset 14,-4
 5378 0002 061C     	 mov r6,r0
 5379 0004 85B0     	 sub sp,sp,#20
 5380              	.LCFI42:
 5381              	 .cfi_def_cfa_offset 40
2456:C:/Workspace/DAVE-4.4.2-64Bit/optiga-trust-m/externals/mbedtls/library\ecp.c ****     int ret;
 5382              	 .loc 1 2456 0
 5383 0006 0C1C     	 mov r4,r1
2459:C:/Workspace/DAVE-4.4.2-64Bit/optiga-trust-m/externals/mbedtls/library\ecp.c ****     {
 5384              	 .loc 1 2459 0
 5385 0008 101C     	 mov r0,r2
 5386              	.LVL967:
 5387 000a 0121     	 mov r1,#1
 5388              	.LVL968:
2456:C:/Workspace/DAVE-4.4.2-64Bit/optiga-trust-m/externals/mbedtls/library\ecp.c ****     int ret;
 5389              	 .loc 1 2456 0
 5390 000c 171C     	 mov r7,r2
 5391 000e 1D1C     	 mov r5,r3
2459:C:/Workspace/DAVE-4.4.2-64Bit/optiga-trust-m/externals/mbedtls/library\ecp.c ****     {
 5392              	 .loc 1 2459 0
 5393 0010 FFF7FEFF 	 bl mbedtls_mpi_cmp_int
 5394              	.LVL969:
 5395 0014 0028     	 cmp r0,#0
 5396 0016 04D1     	 bne .L471
2461:C:/Workspace/DAVE-4.4.2-64Bit/optiga-trust-m/externals/mbedtls/library\ecp.c ****     }
 5397              	 .loc 1 2461 0
 5398 0018 201C     	 mov r0,r4
 5399 001a 291C     	 mov r1,r5
 5400 001c FFF7FEFF 	 bl mbedtls_ecp_copy
 5401              	.LVL970:
 5402 0020 24E0     	 b .L477
 5403              	.L471:
2463:C:/Workspace/DAVE-4.4.2-64Bit/optiga-trust-m/externals/mbedtls/library\ecp.c ****     {
 5404              	 .loc 1 2463 0
 5405 0022 0121     	 mov r1,#1
 5406 0024 381C     	 mov r0,r7
 5407 0026 4942     	 neg r1,r1
 5408 0028 FFF7FEFF 	 bl mbedtls_mpi_cmp_int
 5409              	.LVL971:
 5410 002c 0028     	 cmp r0,#0
 5411 002e 12D1     	 bne .L473
 5412              	.LVL972:
 5413              	.LBB82:
 5414              	.LBB83:
2465:C:/Workspace/DAVE-4.4.2-64Bit/optiga-trust-m/externals/mbedtls/library\ecp.c ****         if( mbedtls_mpi_cmp_int( &R->Y, 0 ) != 0 )
 5415              	 .loc 1 2465 0
 5416 0030 291C     	 mov r1,r5
 5417 0032 201C     	 mov r0,r4
 5418 0034 FFF7FEFF 	 bl mbedtls_ecp_copy
 5419              	.LVL973:
 5420 0038 051E     	 sub r5,r0,#0
 5421              	.LVL974:
 5422 003a 18D1     	 bne .L472
2466:C:/Workspace/DAVE-4.4.2-64Bit/optiga-trust-m/externals/mbedtls/library\ecp.c ****             MBEDTLS_MPI_CHK( mbedtls_mpi_sub_mpi( &R->Y, &grp->P, &R->Y ) );
 5423              	 .loc 1 2466 0
 5424 003c 0C34     	 add r4,r4,#12
 5425              	.LVL975:
 5426 003e 201C     	 mov r0,r4
 5427              	.LVL976:
 5428 0040 291C     	 mov r1,r5
 5429 0042 FFF7FEFF 	 bl mbedtls_mpi_cmp_int
 5430              	.LVL977:
 5431 0046 0028     	 cmp r0,#0
 5432 0048 11D0     	 beq .L472
2467:C:/Workspace/DAVE-4.4.2-64Bit/optiga-trust-m/externals/mbedtls/library\ecp.c ****     }
 5433              	 .loc 1 2467 0
 5434 004a 311D     	 add r1,r6,#4
 5435 004c 201C     	 mov r0,r4
 5436 004e 221C     	 mov r2,r4
 5437 0050 FFF7FEFF 	 bl mbedtls_mpi_sub_mpi
 5438              	.LVL978:
 5439 0054 0AE0     	 b .L477
 5440              	.LVL979:
 5441              	.L473:
 5442              	.LBE83:
 5443              	.LBE82:
2471:C:/Workspace/DAVE-4.4.2-64Bit/optiga-trust-m/externals/mbedtls/library\ecp.c ****                                                       NULL, NULL, rs_ctx ) );
 5444              	 .loc 1 2471 0
 5445 0056 0023     	 mov r3,#0
 5446 0058 0093     	 str r3,[sp]
 5447 005a 0193     	 str r3,[sp,#4]
 5448 005c 0A9B     	 ldr r3,[sp,#40]
 5449 005e 301C     	 mov r0,r6
 5450 0060 0293     	 str r3,[sp,#8]
 5451 0062 211C     	 mov r1,r4
 5452 0064 3A1C     	 mov r2,r7
 5453 0066 2B1C     	 mov r3,r5
 5454 0068 FFF7FEFF 	 bl mbedtls_ecp_mul_restartable
 5455              	.LVL980:
 5456              	.L477:
 5457 006c 051C     	 mov r5,r0
 5458              	.LVL981:
 5459              	.L472:
2477:C:/Workspace/DAVE-4.4.2-64Bit/optiga-trust-m/externals/mbedtls/library\ecp.c **** 
 5460              	 .loc 1 2477 0
 5461 006e 281C     	 mov r0,r5
 5462 0070 05B0     	 add sp,sp,#20
 5463              	 
 5464              	.LVL982:
 5465              	.LVL983:
 5466              	.LVL984:
 5467 0072 F0BD     	 pop {r4,r5,r6,r7,pc}
 5468              	 .cfi_endproc
 5469              	.LFE43:
 5471              	 .section .text.mbedtls_ecp_muladd_restartable,"ax",%progbits
 5472              	 .align 1
 5473              	 .global mbedtls_ecp_muladd_restartable
 5474              	 .code 16
 5475              	 .thumb_func
 5477              	mbedtls_ecp_muladd_restartable:
 5478              	.LFB44:
2488:C:/Workspace/DAVE-4.4.2-64Bit/optiga-trust-m/externals/mbedtls/library\ecp.c ****     int ret;
 5479              	 .loc 1 2488 0
 5480              	 .cfi_startproc
 5481              	.LVL985:
 5482 0000 F0B5     	 push {r4,r5,r6,r7,lr}
 5483              	.LCFI43:
 5484              	 .cfi_def_cfa_offset 20
 5485              	 .cfi_offset 4,-20
 5486              	 .cfi_offset 5,-16
 5487              	 .cfi_offset 6,-12
 5488              	 .cfi_offset 7,-8
 5489              	 .cfi_offset 14,-4
 5490 0002 8DB0     	 sub sp,sp,#52
 5491              	.LCFI44:
 5492              	 .cfi_def_cfa_offset 72
 5493              	.LVL986:
2488:C:/Workspace/DAVE-4.4.2-64Bit/optiga-trust-m/externals/mbedtls/library\ecp.c ****     int ret;
 5494              	 .loc 1 2488 0
 5495 0004 041C     	 mov r4,r0
 5496 0006 0D1C     	 mov r5,r1
 5497              	.LVL987:
 5498 0008 171C     	 mov r7,r2
 5499 000a 1E1C     	 mov r6,r3
2503:C:/Workspace/DAVE-4.4.2-64Bit/optiga-trust-m/externals/mbedtls/library\ecp.c ****         return( MBEDTLS_ERR_ECP_FEATURE_UNAVAILABLE );
 5500              	 .loc 1 2503 0
 5501 000c FFF7FEFF 	 bl ecp_get_type
 5502              	.LVL988:
 5503 0010 0128     	 cmp r0,#1
 5504 0012 28D1     	 bne .L481
2506:C:/Workspace/DAVE-4.4.2-64Bit/optiga-trust-m/externals/mbedtls/library\ecp.c **** 
 5505              	 .loc 1 2506 0
 5506 0014 03A8     	 add r0,sp,#12
 5507              	.LVL989:
 5508 0016 FFF7FEFF 	 bl mbedtls_ecp_point_init
 5509              	.LVL990:
2527:C:/Workspace/DAVE-4.4.2-64Bit/optiga-trust-m/externals/mbedtls/library\ecp.c **** #if defined(MBEDTLS_ECP_RESTARTABLE)
 5510              	 .loc 1 2527 0
 5511 001a 149B     	 ldr r3,[sp,#80]
 5512 001c 201C     	 mov r0,r4
 5513 001e 0093     	 str r3,[sp]
 5514 0020 03A9     	 add r1,sp,#12
 5515              	.LVL991:
 5516 0022 331C     	 mov r3,r6
 5517 0024 3A1C     	 mov r2,r7
 5518 0026 FFF7FEFF 	 bl mbedtls_ecp_mul_shortcuts
 5519              	.LVL992:
 5520 002a 061E     	 sub r6,r0,#0
 5521              	.LVL993:
 5522 002c 16D1     	 bne .L480
2534:C:/Workspace/DAVE-4.4.2-64Bit/optiga-trust-m/externals/mbedtls/library\ecp.c **** 
 5523              	 .loc 1 2534 0
 5524 002e 149B     	 ldr r3,[sp,#80]
 5525 0030 201C     	 mov r0,r4
 5526              	.LVL994:
 5527 0032 0093     	 str r3,[sp]
 5528 0034 291C     	 mov r1,r5
 5529 0036 129A     	 ldr r2,[sp,#72]
 5530 0038 139B     	 ldr r3,[sp,#76]
 5531 003a FFF7FEFF 	 bl mbedtls_ecp_mul_shortcuts
 5532              	.LVL995:
 5533 003e 061E     	 sub r6,r0,#0
 5534              	.LVL996:
 5535 0040 0CD1     	 bne .L480
2548:C:/Workspace/DAVE-4.4.2-64Bit/optiga-trust-m/externals/mbedtls/library\ecp.c **** #if defined(MBEDTLS_ECP_RESTARTABLE)
 5536              	 .loc 1 2548 0
 5537 0042 201C     	 mov r0,r4
 5538              	.LVL997:
 5539 0044 291C     	 mov r1,r5
 5540 0046 03AA     	 add r2,sp,#12
 5541              	.LVL998:
 5542 0048 2B1C     	 mov r3,r5
 5543 004a FFF7FEFF 	 bl ecp_add_mixed
 5544              	.LVL999:
 5545 004e 061E     	 sub r6,r0,#0
 5546              	.LVL1000:
 5547 0050 04D1     	 bne .L480
2556:C:/Workspace/DAVE-4.4.2-64Bit/optiga-trust-m/externals/mbedtls/library\ecp.c **** 
 5548              	 .loc 1 2556 0
 5549 0052 201C     	 mov r0,r4
 5550              	.LVL1001:
 5551 0054 291C     	 mov r1,r5
 5552 0056 FFF7FEFF 	 bl ecp_normalize_jac
 5553              	.LVL1002:
 5554 005a 061C     	 mov r6,r0
 5555              	.LVL1003:
 5556              	.L480:
2569:C:/Workspace/DAVE-4.4.2-64Bit/optiga-trust-m/externals/mbedtls/library\ecp.c **** 
 5557              	 .loc 1 2569 0
 5558 005c 03A8     	 add r0,sp,#12
 5559              	.LVL1004:
 5560 005e FFF7FEFF 	 bl mbedtls_ecp_point_free
 5561              	.LVL1005:
2573:C:/Workspace/DAVE-4.4.2-64Bit/optiga-trust-m/externals/mbedtls/library\ecp.c **** }
 5562              	 .loc 1 2573 0
 5563 0062 301C     	 mov r0,r6
 5564 0064 00E0     	 b .L479
 5565              	.LVL1006:
 5566              	.L481:
2504:C:/Workspace/DAVE-4.4.2-64Bit/optiga-trust-m/externals/mbedtls/library\ecp.c **** 
 5567              	 .loc 1 2504 0
 5568 0066 0148     	 ldr r0,.L482
 5569              	.LVL1007:
 5570              	.L479:
2574:C:/Workspace/DAVE-4.4.2-64Bit/optiga-trust-m/externals/mbedtls/library\ecp.c **** 
 5571              	 .loc 1 2574 0
 5572 0068 0DB0     	 add sp,sp,#52
 5573              	 
 5574              	.LVL1008:
 5575              	.LVL1009:
 5576              	.LVL1010:
 5577 006a F0BD     	 pop {r4,r5,r6,r7,pc}
 5578              	.L483:
 5579              	 .align 2
 5580              	.L482:
 5581 006c 80B1FFFF 	 .word -20096
 5582              	 .cfi_endproc
 5583              	.LFE44:
 5585              	 .section .text.mbedtls_ecp_muladd,"ax",%progbits
 5586              	 .align 1
 5587              	 .global mbedtls_ecp_muladd
 5588              	 .code 16
 5589              	 .thumb_func
 5591              	mbedtls_ecp_muladd:
 5592              	.LFB45:
2583:C:/Workspace/DAVE-4.4.2-64Bit/optiga-trust-m/externals/mbedtls/library\ecp.c ****     ECP_VALIDATE_RET( grp != NULL );
 5593              	 .loc 1 2583 0
 5594              	 .cfi_startproc
 5595              	.LVL1011:
 5596 0000 1FB5     	 push {r0,r1,r2,r3,r4,lr}
 5597              	.LCFI45:
 5598              	 .cfi_def_cfa_offset 24
 5599              	 .cfi_offset 0,-24
 5600              	 .cfi_offset 1,-20
 5601              	 .cfi_offset 2,-16
 5602              	 .cfi_offset 3,-12
 5603              	 .cfi_offset 4,-8
 5604              	 .cfi_offset 14,-4
2590:C:/Workspace/DAVE-4.4.2-64Bit/optiga-trust-m/externals/mbedtls/library\ecp.c **** }
 5605              	 .loc 1 2590 0
 5606 0002 069C     	 ldr r4,[sp,#24]
 5607 0004 0094     	 str r4,[sp]
 5608 0006 079C     	 ldr r4,[sp,#28]
 5609 0008 0194     	 str r4,[sp,#4]
 5610 000a 0024     	 mov r4,#0
 5611 000c 0294     	 str r4,[sp,#8]
 5612 000e FFF7FEFF 	 bl mbedtls_ecp_muladd_restartable
 5613              	.LVL1012:
2591:C:/Workspace/DAVE-4.4.2-64Bit/optiga-trust-m/externals/mbedtls/library\ecp.c **** 
 5614              	 .loc 1 2591 0
 5615 0012 04B0     	 add sp,sp,#16
 5616              	 
 5617 0014 10BD     	 pop {r4,pc}
 5618              	 .cfi_endproc
 5619              	.LFE45:
 5621              	 .section .text.mbedtls_ecp_gen_privkey,"ax",%progbits
 5622              	 .align 1
 5623              	 .global mbedtls_ecp_gen_privkey
 5624              	 .code 16
 5625              	 .thumb_func
 5627              	mbedtls_ecp_gen_privkey:
 5628              	.LFB48:
2672:C:/Workspace/DAVE-4.4.2-64Bit/optiga-trust-m/externals/mbedtls/library\ecp.c **** 
2673:C:/Workspace/DAVE-4.4.2-64Bit/optiga-trust-m/externals/mbedtls/library\ecp.c **** /*
2674:C:/Workspace/DAVE-4.4.2-64Bit/optiga-trust-m/externals/mbedtls/library\ecp.c ****  * Generate a private key
2675:C:/Workspace/DAVE-4.4.2-64Bit/optiga-trust-m/externals/mbedtls/library\ecp.c ****  */
2676:C:/Workspace/DAVE-4.4.2-64Bit/optiga-trust-m/externals/mbedtls/library\ecp.c **** int mbedtls_ecp_gen_privkey( const mbedtls_ecp_group *grp,
2677:C:/Workspace/DAVE-4.4.2-64Bit/optiga-trust-m/externals/mbedtls/library\ecp.c ****                      mbedtls_mpi *d,
2678:C:/Workspace/DAVE-4.4.2-64Bit/optiga-trust-m/externals/mbedtls/library\ecp.c ****                      int (*f_rng)(void *, unsigned char *, size_t),
2679:C:/Workspace/DAVE-4.4.2-64Bit/optiga-trust-m/externals/mbedtls/library\ecp.c ****                      void *p_rng )
2680:C:/Workspace/DAVE-4.4.2-64Bit/optiga-trust-m/externals/mbedtls/library\ecp.c **** {
 5629              	 .loc 1 2680 0
 5630              	 .cfi_startproc
 5631              	.LVL1013:
 5632 0000 F0B5     	 push {r4,r5,r6,r7,lr}
 5633              	.LCFI46:
 5634              	 .cfi_def_cfa_offset 20
 5635              	 .cfi_offset 4,-20
 5636              	 .cfi_offset 5,-16
 5637              	 .cfi_offset 6,-12
 5638              	 .cfi_offset 7,-8
 5639              	 .cfi_offset 14,-4
 5640 0002 85B0     	 sub sp,sp,#20
 5641              	.LCFI47:
 5642              	 .cfi_def_cfa_offset 40
 5643              	 .loc 1 2680 0
 5644 0004 061C     	 mov r6,r0
 5645 0006 0D1C     	 mov r5,r1
 5646 0008 0292     	 str r2,[sp,#8]
 5647 000a 0393     	 str r3,[sp,#12]
2681:C:/Workspace/DAVE-4.4.2-64Bit/optiga-trust-m/externals/mbedtls/library\ecp.c ****     int ret = MBEDTLS_ERR_ECP_BAD_INPUT_DATA;
2682:C:/Workspace/DAVE-4.4.2-64Bit/optiga-trust-m/externals/mbedtls/library\ecp.c ****     size_t n_size;
2683:C:/Workspace/DAVE-4.4.2-64Bit/optiga-trust-m/externals/mbedtls/library\ecp.c **** 
2684:C:/Workspace/DAVE-4.4.2-64Bit/optiga-trust-m/externals/mbedtls/library\ecp.c ****     ECP_VALIDATE_RET( grp   != NULL );
2685:C:/Workspace/DAVE-4.4.2-64Bit/optiga-trust-m/externals/mbedtls/library\ecp.c ****     ECP_VALIDATE_RET( d     != NULL );
2686:C:/Workspace/DAVE-4.4.2-64Bit/optiga-trust-m/externals/mbedtls/library\ecp.c ****     ECP_VALIDATE_RET( f_rng != NULL );
2687:C:/Workspace/DAVE-4.4.2-64Bit/optiga-trust-m/externals/mbedtls/library\ecp.c **** 
2688:C:/Workspace/DAVE-4.4.2-64Bit/optiga-trust-m/externals/mbedtls/library\ecp.c ****     n_size = ( grp->nbits + 7 ) / 8;
 5648              	 .loc 1 2688 0
 5649 000c C46D     	 ldr r4,[r0,#92]
 5650              	.LVL1014:
2689:C:/Workspace/DAVE-4.4.2-64Bit/optiga-trust-m/externals/mbedtls/library\ecp.c **** 
2690:C:/Workspace/DAVE-4.4.2-64Bit/optiga-trust-m/externals/mbedtls/library\ecp.c **** #if defined(ECP_MONTGOMERY)
2691:C:/Workspace/DAVE-4.4.2-64Bit/optiga-trust-m/externals/mbedtls/library\ecp.c ****     if( ecp_get_type( grp ) == ECP_TYPE_MONTGOMERY )
2692:C:/Workspace/DAVE-4.4.2-64Bit/optiga-trust-m/externals/mbedtls/library\ecp.c ****     {
2693:C:/Workspace/DAVE-4.4.2-64Bit/optiga-trust-m/externals/mbedtls/library\ecp.c ****         /* [M225] page 5 */
2694:C:/Workspace/DAVE-4.4.2-64Bit/optiga-trust-m/externals/mbedtls/library\ecp.c ****         size_t b;
2695:C:/Workspace/DAVE-4.4.2-64Bit/optiga-trust-m/externals/mbedtls/library\ecp.c **** 
2696:C:/Workspace/DAVE-4.4.2-64Bit/optiga-trust-m/externals/mbedtls/library\ecp.c ****         do {
2697:C:/Workspace/DAVE-4.4.2-64Bit/optiga-trust-m/externals/mbedtls/library\ecp.c ****             MBEDTLS_MPI_CHK( mbedtls_mpi_fill_random( d, n_size, f_rng, p_rng ) );
2698:C:/Workspace/DAVE-4.4.2-64Bit/optiga-trust-m/externals/mbedtls/library\ecp.c ****         } while( mbedtls_mpi_bitlen( d ) == 0);
2699:C:/Workspace/DAVE-4.4.2-64Bit/optiga-trust-m/externals/mbedtls/library\ecp.c **** 
2700:C:/Workspace/DAVE-4.4.2-64Bit/optiga-trust-m/externals/mbedtls/library\ecp.c ****         /* Make sure the most significant bit is nbits */
2701:C:/Workspace/DAVE-4.4.2-64Bit/optiga-trust-m/externals/mbedtls/library\ecp.c ****         b = mbedtls_mpi_bitlen( d ) - 1; /* mbedtls_mpi_bitlen is one-based */
2702:C:/Workspace/DAVE-4.4.2-64Bit/optiga-trust-m/externals/mbedtls/library\ecp.c ****         if( b > grp->nbits )
2703:C:/Workspace/DAVE-4.4.2-64Bit/optiga-trust-m/externals/mbedtls/library\ecp.c ****             MBEDTLS_MPI_CHK( mbedtls_mpi_shift_r( d, b - grp->nbits ) );
2704:C:/Workspace/DAVE-4.4.2-64Bit/optiga-trust-m/externals/mbedtls/library\ecp.c ****         else
2705:C:/Workspace/DAVE-4.4.2-64Bit/optiga-trust-m/externals/mbedtls/library\ecp.c ****             MBEDTLS_MPI_CHK( mbedtls_mpi_set_bit( d, grp->nbits, 1 ) );
2706:C:/Workspace/DAVE-4.4.2-64Bit/optiga-trust-m/externals/mbedtls/library\ecp.c **** 
2707:C:/Workspace/DAVE-4.4.2-64Bit/optiga-trust-m/externals/mbedtls/library\ecp.c ****         /* Make sure the last two bits are unset for Curve448, three bits for
2708:C:/Workspace/DAVE-4.4.2-64Bit/optiga-trust-m/externals/mbedtls/library\ecp.c ****            Curve25519 */
2709:C:/Workspace/DAVE-4.4.2-64Bit/optiga-trust-m/externals/mbedtls/library\ecp.c ****         MBEDTLS_MPI_CHK( mbedtls_mpi_set_bit( d, 0, 0 ) );
2710:C:/Workspace/DAVE-4.4.2-64Bit/optiga-trust-m/externals/mbedtls/library\ecp.c ****         MBEDTLS_MPI_CHK( mbedtls_mpi_set_bit( d, 1, 0 ) );
2711:C:/Workspace/DAVE-4.4.2-64Bit/optiga-trust-m/externals/mbedtls/library\ecp.c ****         if( grp->nbits == 254 )
2712:C:/Workspace/DAVE-4.4.2-64Bit/optiga-trust-m/externals/mbedtls/library\ecp.c ****         {
2713:C:/Workspace/DAVE-4.4.2-64Bit/optiga-trust-m/externals/mbedtls/library\ecp.c ****             MBEDTLS_MPI_CHK( mbedtls_mpi_set_bit( d, 2, 0 ) );
2714:C:/Workspace/DAVE-4.4.2-64Bit/optiga-trust-m/externals/mbedtls/library\ecp.c ****         }
2715:C:/Workspace/DAVE-4.4.2-64Bit/optiga-trust-m/externals/mbedtls/library\ecp.c ****     }
2716:C:/Workspace/DAVE-4.4.2-64Bit/optiga-trust-m/externals/mbedtls/library\ecp.c **** #endif /* ECP_MONTGOMERY */
2717:C:/Workspace/DAVE-4.4.2-64Bit/optiga-trust-m/externals/mbedtls/library\ecp.c **** 
2718:C:/Workspace/DAVE-4.4.2-64Bit/optiga-trust-m/externals/mbedtls/library\ecp.c **** #if defined(ECP_SHORTWEIERSTRASS)
2719:C:/Workspace/DAVE-4.4.2-64Bit/optiga-trust-m/externals/mbedtls/library\ecp.c ****     if( ecp_get_type( grp ) == ECP_TYPE_SHORT_WEIERSTRASS )
 5651              	 .loc 1 2719 0
 5652 000e FFF7FEFF 	 bl ecp_get_type
 5653              	.LVL1015:
 5654 0012 0128     	 cmp r0,#1
 5655 0014 26D1     	 bne .L489
 5656              	.LBB84:
2720:C:/Workspace/DAVE-4.4.2-64Bit/optiga-trust-m/externals/mbedtls/library\ecp.c ****     {
2721:C:/Workspace/DAVE-4.4.2-64Bit/optiga-trust-m/externals/mbedtls/library\ecp.c ****         /* SEC1 3.2.1: Generate d such that 1 <= n < N */
2722:C:/Workspace/DAVE-4.4.2-64Bit/optiga-trust-m/externals/mbedtls/library\ecp.c ****         int count = 0;
2723:C:/Workspace/DAVE-4.4.2-64Bit/optiga-trust-m/externals/mbedtls/library\ecp.c **** 
2724:C:/Workspace/DAVE-4.4.2-64Bit/optiga-trust-m/externals/mbedtls/library\ecp.c ****         /*
2725:C:/Workspace/DAVE-4.4.2-64Bit/optiga-trust-m/externals/mbedtls/library\ecp.c ****          * Match the procedure given in RFC 6979 (deterministic ECDSA):
2726:C:/Workspace/DAVE-4.4.2-64Bit/optiga-trust-m/externals/mbedtls/library\ecp.c ****          * - use the same byte ordering;
2727:C:/Workspace/DAVE-4.4.2-64Bit/optiga-trust-m/externals/mbedtls/library\ecp.c ****          * - keep the leftmost nbits bits of the generated octet string;
2728:C:/Workspace/DAVE-4.4.2-64Bit/optiga-trust-m/externals/mbedtls/library\ecp.c ****          * - try until result is in the desired range.
2729:C:/Workspace/DAVE-4.4.2-64Bit/optiga-trust-m/externals/mbedtls/library\ecp.c ****          * This also avoids any biais, which is especially important for ECDSA.
2730:C:/Workspace/DAVE-4.4.2-64Bit/optiga-trust-m/externals/mbedtls/library\ecp.c ****          */
2731:C:/Workspace/DAVE-4.4.2-64Bit/optiga-trust-m/externals/mbedtls/library\ecp.c ****         do
2732:C:/Workspace/DAVE-4.4.2-64Bit/optiga-trust-m/externals/mbedtls/library\ecp.c ****         {
2733:C:/Workspace/DAVE-4.4.2-64Bit/optiga-trust-m/externals/mbedtls/library\ecp.c ****             MBEDTLS_MPI_CHK( mbedtls_mpi_fill_random( d, n_size, f_rng, p_rng ) );
2734:C:/Workspace/DAVE-4.4.2-64Bit/optiga-trust-m/externals/mbedtls/library\ecp.c ****             MBEDTLS_MPI_CHK( mbedtls_mpi_shift_r( d, 8 * n_size - grp->nbits ) );
 5657              	 .loc 1 2734 0
 5658 0016 1F27     	 mov r7,#31
 5659              	.LBE84:
2688:C:/Workspace/DAVE-4.4.2-64Bit/optiga-trust-m/externals/mbedtls/library\ecp.c **** 
 5660              	 .loc 1 2688 0
 5661 0018 0734     	 add r4,r4,#7
 5662              	.LVL1016:
 5663 001a E308     	 lsr r3,r4,#3
 5664 001c 0093     	 str r3,[sp]
 5665              	.LBB85:
 5666              	 .loc 1 2734 0
 5667 001e DB00     	 lsl r3,r3,#3
 5668 0020 0193     	 str r3,[sp,#4]
 5669              	.LVL1017:
 5670              	.L487:
2733:C:/Workspace/DAVE-4.4.2-64Bit/optiga-trust-m/externals/mbedtls/library\ecp.c ****             MBEDTLS_MPI_CHK( mbedtls_mpi_shift_r( d, 8 * n_size - grp->nbits ) );
 5671              	 .loc 1 2733 0
 5672 0022 281C     	 mov r0,r5
 5673 0024 0099     	 ldr r1,[sp]
 5674 0026 029A     	 ldr r2,[sp,#8]
 5675 0028 039B     	 ldr r3,[sp,#12]
 5676 002a FFF7FEFF 	 bl mbedtls_mpi_fill_random
 5677              	.LVL1018:
 5678 002e 0028     	 cmp r0,#0
 5679 0030 1DD1     	 bne .L486
 5680              	 .loc 1 2734 0
 5681 0032 019B     	 ldr r3,[sp,#4]
 5682 0034 F26D     	 ldr r2,[r6,#92]
 5683 0036 281C     	 mov r0,r5
 5684              	.LVL1019:
 5685 0038 991A     	 sub r1,r3,r2
 5686 003a FFF7FEFF 	 bl mbedtls_mpi_shift_r
 5687              	.LVL1020:
 5688 003e 041E     	 sub r4,r0,#0
 5689              	.LVL1021:
 5690 0040 12D1     	 bne .L491
 5691              	.LVL1022:
 5692 0042 013F     	 sub r7,r7,#1
 5693              	.LVL1023:
2735:C:/Workspace/DAVE-4.4.2-64Bit/optiga-trust-m/externals/mbedtls/library\ecp.c **** 
2736:C:/Workspace/DAVE-4.4.2-64Bit/optiga-trust-m/externals/mbedtls/library\ecp.c ****             /*
2737:C:/Workspace/DAVE-4.4.2-64Bit/optiga-trust-m/externals/mbedtls/library\ecp.c ****              * Each try has at worst a probability 1/2 of failing (the msb has
2738:C:/Workspace/DAVE-4.4.2-64Bit/optiga-trust-m/externals/mbedtls/library\ecp.c ****              * a probability 1/2 of being 0, and then the result will be < N),
2739:C:/Workspace/DAVE-4.4.2-64Bit/optiga-trust-m/externals/mbedtls/library\ecp.c ****              * so after 30 tries failure probability is a most 2**(-30).
2740:C:/Workspace/DAVE-4.4.2-64Bit/optiga-trust-m/externals/mbedtls/library\ecp.c ****              *
2741:C:/Workspace/DAVE-4.4.2-64Bit/optiga-trust-m/externals/mbedtls/library\ecp.c ****              * For most curves, 1 try is enough with overwhelming probability,
2742:C:/Workspace/DAVE-4.4.2-64Bit/optiga-trust-m/externals/mbedtls/library\ecp.c ****              * since N starts with a lot of 1s in binary, but some curves
2743:C:/Workspace/DAVE-4.4.2-64Bit/optiga-trust-m/externals/mbedtls/library\ecp.c ****              * such as secp224k1 are actually very close to the worst case.
2744:C:/Workspace/DAVE-4.4.2-64Bit/optiga-trust-m/externals/mbedtls/library\ecp.c ****              */
2745:C:/Workspace/DAVE-4.4.2-64Bit/optiga-trust-m/externals/mbedtls/library\ecp.c ****             if( ++count > 30 )
 5694              	 .loc 1 2745 0
 5695 0044 002F     	 cmp r7,#0
 5696 0046 11D0     	 beq .L492
2746:C:/Workspace/DAVE-4.4.2-64Bit/optiga-trust-m/externals/mbedtls/library\ecp.c ****                 return( MBEDTLS_ERR_ECP_RANDOM_FAILED );
2747:C:/Workspace/DAVE-4.4.2-64Bit/optiga-trust-m/externals/mbedtls/library\ecp.c ****         }
2748:C:/Workspace/DAVE-4.4.2-64Bit/optiga-trust-m/externals/mbedtls/library\ecp.c ****         while( mbedtls_mpi_cmp_int( d, 1 ) < 0 ||
 5697              	 .loc 1 2748 0
 5698 0048 281C     	 mov r0,r5
 5699              	.LVL1024:
 5700 004a 0121     	 mov r1,#1
 5701 004c FFF7FEFF 	 bl mbedtls_mpi_cmp_int
 5702              	.LVL1025:
2749:C:/Workspace/DAVE-4.4.2-64Bit/optiga-trust-m/externals/mbedtls/library\ecp.c ****                mbedtls_mpi_cmp_mpi( d, &grp->N ) >= 0 );
 5703              	 .loc 1 2749 0
 5704 0050 0028     	 cmp r0,#0
 5705 0052 E6DB     	 blt .L487
 5706              	 .loc 1 2749 0 is_stmt 0 discriminator 1
 5707 0054 311C     	 mov r1,r6
 5708 0056 281C     	 mov r0,r5
 5709 0058 4C31     	 add r1,r1,#76
 5710 005a FFF7FEFF 	 bl mbedtls_mpi_cmp_mpi
 5711              	.LVL1026:
2748:C:/Workspace/DAVE-4.4.2-64Bit/optiga-trust-m/externals/mbedtls/library\ecp.c ****                mbedtls_mpi_cmp_mpi( d, &grp->N ) >= 0 );
 5712              	 .loc 1 2748 0 is_stmt 1 discriminator 1
 5713 005e 0028     	 cmp r0,#0
 5714 0060 DFDA     	 bge .L487
 5715 0062 01E0     	 b .L491
 5716              	.LVL1027:
 5717              	.L489:
 5718              	.LBE85:
2681:C:/Workspace/DAVE-4.4.2-64Bit/optiga-trust-m/externals/mbedtls/library\ecp.c ****     size_t n_size;
 5719              	 .loc 1 2681 0
 5720 0064 0348     	 ldr r0,.L493
 5721 0066 02E0     	 b .L486
 5722              	.LVL1028:
 5723              	.L491:
 5724 0068 201C     	 mov r0,r4
 5725 006a 00E0     	 b .L486
 5726              	.LVL1029:
 5727              	.L492:
 5728              	.LBB86:
2746:C:/Workspace/DAVE-4.4.2-64Bit/optiga-trust-m/externals/mbedtls/library\ecp.c ****         }
 5729              	 .loc 1 2746 0
 5730 006c 0248     	 ldr r0,.L493+4
 5731              	.LVL1030:
 5732              	.L486:
 5733              	.LBE86:
2750:C:/Workspace/DAVE-4.4.2-64Bit/optiga-trust-m/externals/mbedtls/library\ecp.c ****     }
2751:C:/Workspace/DAVE-4.4.2-64Bit/optiga-trust-m/externals/mbedtls/library\ecp.c **** #endif /* ECP_SHORTWEIERSTRASS */
2752:C:/Workspace/DAVE-4.4.2-64Bit/optiga-trust-m/externals/mbedtls/library\ecp.c **** 
2753:C:/Workspace/DAVE-4.4.2-64Bit/optiga-trust-m/externals/mbedtls/library\ecp.c **** cleanup:
2754:C:/Workspace/DAVE-4.4.2-64Bit/optiga-trust-m/externals/mbedtls/library\ecp.c ****     return( ret );
2755:C:/Workspace/DAVE-4.4.2-64Bit/optiga-trust-m/externals/mbedtls/library\ecp.c **** }
 5734              	 .loc 1 2755 0
 5735 006e 05B0     	 add sp,sp,#20
 5736              	 
 5737              	.LVL1031:
 5738              	.LVL1032:
 5739 0070 F0BD     	 pop {r4,r5,r6,r7,pc}
 5740              	.L494:
 5741 0072 C046     	 .align 2
 5742              	.L493:
 5743 0074 80B0FFFF 	 .word -20352
 5744 0078 00B3FFFF 	 .word -19712
 5745              	 .cfi_endproc
 5746              	.LFE48:
 5748              	 .section .text.mbedtls_ecp_gen_keypair_base,"ax",%progbits
 5749              	 .align 1
 5750              	 .global mbedtls_ecp_gen_keypair_base
 5751              	 .code 16
 5752              	 .thumb_func
 5754              	mbedtls_ecp_gen_keypair_base:
 5755              	.LFB49:
2756:C:/Workspace/DAVE-4.4.2-64Bit/optiga-trust-m/externals/mbedtls/library\ecp.c **** 
2757:C:/Workspace/DAVE-4.4.2-64Bit/optiga-trust-m/externals/mbedtls/library\ecp.c **** /*
2758:C:/Workspace/DAVE-4.4.2-64Bit/optiga-trust-m/externals/mbedtls/library\ecp.c ****  * Generate a keypair with configurable base point
2759:C:/Workspace/DAVE-4.4.2-64Bit/optiga-trust-m/externals/mbedtls/library\ecp.c ****  */
2760:C:/Workspace/DAVE-4.4.2-64Bit/optiga-trust-m/externals/mbedtls/library\ecp.c **** int mbedtls_ecp_gen_keypair_base( mbedtls_ecp_group *grp,
2761:C:/Workspace/DAVE-4.4.2-64Bit/optiga-trust-m/externals/mbedtls/library\ecp.c ****                      const mbedtls_ecp_point *G,
2762:C:/Workspace/DAVE-4.4.2-64Bit/optiga-trust-m/externals/mbedtls/library\ecp.c ****                      mbedtls_mpi *d, mbedtls_ecp_point *Q,
2763:C:/Workspace/DAVE-4.4.2-64Bit/optiga-trust-m/externals/mbedtls/library\ecp.c ****                      int (*f_rng)(void *, unsigned char *, size_t),
2764:C:/Workspace/DAVE-4.4.2-64Bit/optiga-trust-m/externals/mbedtls/library\ecp.c ****                      void *p_rng )
2765:C:/Workspace/DAVE-4.4.2-64Bit/optiga-trust-m/externals/mbedtls/library\ecp.c **** {
 5756              	 .loc 1 2765 0
 5757              	 .cfi_startproc
 5758              	.LVL1033:
 5759 0000 F7B5     	 push {r0,r1,r2,r4,r5,r6,r7,lr}
 5760              	.LCFI48:
 5761              	 .cfi_def_cfa_offset 32
 5762              	 .cfi_offset 0,-32
 5763              	 .cfi_offset 1,-28
 5764              	 .cfi_offset 2,-24
 5765              	 .cfi_offset 4,-20
 5766              	 .cfi_offset 5,-16
 5767              	 .cfi_offset 6,-12
 5768              	 .cfi_offset 7,-8
 5769              	 .cfi_offset 14,-4
 5770              	 .loc 1 2765 0
 5771 0002 0E1C     	 mov r6,r1
 5772 0004 141C     	 mov r4,r2
 5773 0006 1F1C     	 mov r7,r3
2766:C:/Workspace/DAVE-4.4.2-64Bit/optiga-trust-m/externals/mbedtls/library\ecp.c ****     int ret;
2767:C:/Workspace/DAVE-4.4.2-64Bit/optiga-trust-m/externals/mbedtls/library\ecp.c ****     ECP_VALIDATE_RET( grp   != NULL );
2768:C:/Workspace/DAVE-4.4.2-64Bit/optiga-trust-m/externals/mbedtls/library\ecp.c ****     ECP_VALIDATE_RET( d     != NULL );
2769:C:/Workspace/DAVE-4.4.2-64Bit/optiga-trust-m/externals/mbedtls/library\ecp.c ****     ECP_VALIDATE_RET( G     != NULL );
2770:C:/Workspace/DAVE-4.4.2-64Bit/optiga-trust-m/externals/mbedtls/library\ecp.c ****     ECP_VALIDATE_RET( Q     != NULL );
2771:C:/Workspace/DAVE-4.4.2-64Bit/optiga-trust-m/externals/mbedtls/library\ecp.c ****     ECP_VALIDATE_RET( f_rng != NULL );
2772:C:/Workspace/DAVE-4.4.2-64Bit/optiga-trust-m/externals/mbedtls/library\ecp.c **** 
2773:C:/Workspace/DAVE-4.4.2-64Bit/optiga-trust-m/externals/mbedtls/library\ecp.c ****     MBEDTLS_MPI_CHK( mbedtls_ecp_gen_privkey( grp, d, f_rng, p_rng ) );
 5774              	 .loc 1 2773 0
 5775 0008 111C     	 mov r1,r2
 5776              	.LVL1034:
 5777 000a 099B     	 ldr r3,[sp,#36]
 5778              	.LVL1035:
 5779 000c 089A     	 ldr r2,[sp,#32]
 5780              	.LVL1036:
2765:C:/Workspace/DAVE-4.4.2-64Bit/optiga-trust-m/externals/mbedtls/library\ecp.c ****     int ret;
 5781              	 .loc 1 2765 0
 5782 000e 051C     	 mov r5,r0
 5783              	 .loc 1 2773 0
 5784 0010 FFF7FEFF 	 bl mbedtls_ecp_gen_privkey
 5785              	.LVL1037:
 5786 0014 0028     	 cmp r0,#0
 5787 0016 09D1     	 bne .L496
2774:C:/Workspace/DAVE-4.4.2-64Bit/optiga-trust-m/externals/mbedtls/library\ecp.c ****     MBEDTLS_MPI_CHK( mbedtls_ecp_mul( grp, Q, d, G, f_rng, p_rng ) );
 5788              	 .loc 1 2774 0
 5789 0018 089B     	 ldr r3,[sp,#32]
 5790 001a 281C     	 mov r0,r5
 5791              	.LVL1038:
 5792 001c 0093     	 str r3,[sp]
 5793 001e 099B     	 ldr r3,[sp,#36]
 5794 0020 391C     	 mov r1,r7
 5795 0022 0193     	 str r3,[sp,#4]
 5796 0024 221C     	 mov r2,r4
 5797 0026 331C     	 mov r3,r6
 5798 0028 FFF7FEFF 	 bl mbedtls_ecp_mul
 5799              	.LVL1039:
 5800              	.L496:
2775:C:/Workspace/DAVE-4.4.2-64Bit/optiga-trust-m/externals/mbedtls/library\ecp.c **** 
2776:C:/Workspace/DAVE-4.4.2-64Bit/optiga-trust-m/externals/mbedtls/library\ecp.c **** cleanup:
2777:C:/Workspace/DAVE-4.4.2-64Bit/optiga-trust-m/externals/mbedtls/library\ecp.c ****     return( ret );
2778:C:/Workspace/DAVE-4.4.2-64Bit/optiga-trust-m/externals/mbedtls/library\ecp.c **** }
 5801              	 .loc 1 2778 0
 5802              	 
 5803              	.LVL1040:
 5804              	.LVL1041:
 5805              	.LVL1042:
 5806              	.LVL1043:
 5807 002c FEBD     	 pop {r1,r2,r3,r4,r5,r6,r7,pc}
 5808              	 .cfi_endproc
 5809              	.LFE49:
 5811              	 .section .text.mbedtls_ecp_gen_keypair,"ax",%progbits
 5812              	 .align 1
 5813              	 .global mbedtls_ecp_gen_keypair
 5814              	 .code 16
 5815              	 .thumb_func
 5817              	mbedtls_ecp_gen_keypair:
 5818              	.LFB50:
2779:C:/Workspace/DAVE-4.4.2-64Bit/optiga-trust-m/externals/mbedtls/library\ecp.c **** 
2780:C:/Workspace/DAVE-4.4.2-64Bit/optiga-trust-m/externals/mbedtls/library\ecp.c **** /*
2781:C:/Workspace/DAVE-4.4.2-64Bit/optiga-trust-m/externals/mbedtls/library\ecp.c ****  * Generate key pair, wrapper for conventional base point
2782:C:/Workspace/DAVE-4.4.2-64Bit/optiga-trust-m/externals/mbedtls/library\ecp.c ****  */
2783:C:/Workspace/DAVE-4.4.2-64Bit/optiga-trust-m/externals/mbedtls/library\ecp.c **** int mbedtls_ecp_gen_keypair( mbedtls_ecp_group *grp,
2784:C:/Workspace/DAVE-4.4.2-64Bit/optiga-trust-m/externals/mbedtls/library\ecp.c ****                              mbedtls_mpi *d, mbedtls_ecp_point *Q,
2785:C:/Workspace/DAVE-4.4.2-64Bit/optiga-trust-m/externals/mbedtls/library\ecp.c ****                              int (*f_rng)(void *, unsigned char *, size_t),
2786:C:/Workspace/DAVE-4.4.2-64Bit/optiga-trust-m/externals/mbedtls/library\ecp.c ****                              void *p_rng )
2787:C:/Workspace/DAVE-4.4.2-64Bit/optiga-trust-m/externals/mbedtls/library\ecp.c **** {
 5819              	 .loc 1 2787 0
 5820              	 .cfi_startproc
 5821              	.LVL1044:
 5822 0000 37B5     	 push {r0,r1,r2,r4,r5,lr}
 5823              	.LCFI49:
 5824              	 .cfi_def_cfa_offset 24
 5825              	 .cfi_offset 0,-24
 5826              	 .cfi_offset 1,-20
 5827              	 .cfi_offset 2,-16
 5828              	 .cfi_offset 4,-12
 5829              	 .cfi_offset 5,-8
 5830              	 .cfi_offset 14,-4
 5831              	 .loc 1 2787 0
 5832 0002 0D1C     	 mov r5,r1
 5833 0004 141C     	 mov r4,r2
2788:C:/Workspace/DAVE-4.4.2-64Bit/optiga-trust-m/externals/mbedtls/library\ecp.c ****     ECP_VALIDATE_RET( grp   != NULL );
2789:C:/Workspace/DAVE-4.4.2-64Bit/optiga-trust-m/externals/mbedtls/library\ecp.c ****     ECP_VALIDATE_RET( d     != NULL );
2790:C:/Workspace/DAVE-4.4.2-64Bit/optiga-trust-m/externals/mbedtls/library\ecp.c ****     ECP_VALIDATE_RET( Q     != NULL );
2791:C:/Workspace/DAVE-4.4.2-64Bit/optiga-trust-m/externals/mbedtls/library\ecp.c ****     ECP_VALIDATE_RET( f_rng != NULL );
2792:C:/Workspace/DAVE-4.4.2-64Bit/optiga-trust-m/externals/mbedtls/library\ecp.c **** 
2793:C:/Workspace/DAVE-4.4.2-64Bit/optiga-trust-m/externals/mbedtls/library\ecp.c ****     return( mbedtls_ecp_gen_keypair_base( grp, &grp->G, d, Q, f_rng, p_rng ) );
 5834              	 .loc 1 2793 0
 5835 0006 011C     	 mov r1,r0
 5836              	.LVL1045:
 5837 0008 0093     	 str r3,[sp]
 5838 000a 069B     	 ldr r3,[sp,#24]
 5839              	.LVL1046:
 5840 000c 2A1C     	 mov r2,r5
 5841              	.LVL1047:
 5842 000e 0193     	 str r3,[sp,#4]
 5843 0010 2831     	 add r1,r1,#40
 5844 0012 231C     	 mov r3,r4
 5845 0014 FFF7FEFF 	 bl mbedtls_ecp_gen_keypair_base
 5846              	.LVL1048:
2794:C:/Workspace/DAVE-4.4.2-64Bit/optiga-trust-m/externals/mbedtls/library\ecp.c **** }
 5847              	 .loc 1 2794 0
 5848              	 
 5849              	.LVL1049:
 5850              	.LVL1050:
 5851 0018 3EBD     	 pop {r1,r2,r3,r4,r5,pc}
 5852              	 .cfi_endproc
 5853              	.LFE50:
 5855              	 .section .text.mbedtls_ecp_gen_key,"ax",%progbits
 5856              	 .align 1
 5857              	 .global mbedtls_ecp_gen_key
 5858              	 .code 16
 5859              	 .thumb_func
 5861              	mbedtls_ecp_gen_key:
 5862              	.LFB51:
2795:C:/Workspace/DAVE-4.4.2-64Bit/optiga-trust-m/externals/mbedtls/library\ecp.c **** 
2796:C:/Workspace/DAVE-4.4.2-64Bit/optiga-trust-m/externals/mbedtls/library\ecp.c **** /*
2797:C:/Workspace/DAVE-4.4.2-64Bit/optiga-trust-m/externals/mbedtls/library\ecp.c ****  * Generate a keypair, prettier wrapper
2798:C:/Workspace/DAVE-4.4.2-64Bit/optiga-trust-m/externals/mbedtls/library\ecp.c ****  */
2799:C:/Workspace/DAVE-4.4.2-64Bit/optiga-trust-m/externals/mbedtls/library\ecp.c **** int mbedtls_ecp_gen_key( mbedtls_ecp_group_id grp_id, mbedtls_ecp_keypair *key,
2800:C:/Workspace/DAVE-4.4.2-64Bit/optiga-trust-m/externals/mbedtls/library\ecp.c ****                 int (*f_rng)(void *, unsigned char *, size_t), void *p_rng )
2801:C:/Workspace/DAVE-4.4.2-64Bit/optiga-trust-m/externals/mbedtls/library\ecp.c **** {
 5863              	 .loc 1 2801 0
 5864              	 .cfi_startproc
 5865              	.LVL1051:
 5866 0000 F7B5     	 push {r0,r1,r2,r4,r5,r6,r7,lr}
 5867              	.LCFI50:
 5868              	 .cfi_def_cfa_offset 32
 5869              	 .cfi_offset 0,-32
 5870              	 .cfi_offset 1,-28
 5871              	 .cfi_offset 2,-24
 5872              	 .cfi_offset 4,-20
 5873              	 .cfi_offset 5,-16
 5874              	 .cfi_offset 6,-12
 5875              	 .cfi_offset 7,-8
 5876              	 .cfi_offset 14,-4
 5877              	 .loc 1 2801 0
 5878 0002 071C     	 mov r7,r0
 5879 0004 0C1C     	 mov r4,r1
2802:C:/Workspace/DAVE-4.4.2-64Bit/optiga-trust-m/externals/mbedtls/library\ecp.c ****     int ret;
2803:C:/Workspace/DAVE-4.4.2-64Bit/optiga-trust-m/externals/mbedtls/library\ecp.c ****     ECP_VALIDATE_RET( key   != NULL );
2804:C:/Workspace/DAVE-4.4.2-64Bit/optiga-trust-m/externals/mbedtls/library\ecp.c ****     ECP_VALIDATE_RET( f_rng != NULL );
2805:C:/Workspace/DAVE-4.4.2-64Bit/optiga-trust-m/externals/mbedtls/library\ecp.c **** 
2806:C:/Workspace/DAVE-4.4.2-64Bit/optiga-trust-m/externals/mbedtls/library\ecp.c ****     if( ( ret = mbedtls_ecp_group_load( &key->grp, grp_id ) ) != 0 )
 5880              	 .loc 1 2806 0
 5881 0006 081C     	 mov r0,r1
 5882              	.LVL1052:
 5883 0008 391C     	 mov r1,r7
 5884              	.LVL1053:
2801:C:/Workspace/DAVE-4.4.2-64Bit/optiga-trust-m/externals/mbedtls/library\ecp.c ****     int ret;
 5885              	 .loc 1 2801 0
 5886 000a 151C     	 mov r5,r2
 5887 000c 1E1C     	 mov r6,r3
 5888              	 .loc 1 2806 0
 5889 000e FFF7FEFF 	 bl mbedtls_ecp_group_load
 5890              	.LVL1054:
 5891 0012 0028     	 cmp r0,#0
 5892 0014 08D1     	 bne .L499
2807:C:/Workspace/DAVE-4.4.2-64Bit/optiga-trust-m/externals/mbedtls/library\ecp.c ****         return( ret );
2808:C:/Workspace/DAVE-4.4.2-64Bit/optiga-trust-m/externals/mbedtls/library\ecp.c **** 
2809:C:/Workspace/DAVE-4.4.2-64Bit/optiga-trust-m/externals/mbedtls/library\ecp.c ****     return( mbedtls_ecp_gen_keypair( &key->grp, &key->d, &key->Q, f_rng, p_rng ) );
 5893              	 .loc 1 2809 0
 5894 0016 211C     	 mov r1,r4
 5895 0018 221C     	 mov r2,r4
 5896 001a 7C31     	 add r1,r1,#124
 5897 001c 8832     	 add r2,r2,#136
 5898 001e 0096     	 str r6,[sp]
 5899 0020 201C     	 mov r0,r4
 5900              	.LVL1055:
 5901 0022 2B1C     	 mov r3,r5
 5902 0024 FFF7FEFF 	 bl mbedtls_ecp_gen_keypair
 5903              	.LVL1056:
 5904              	.L499:
2810:C:/Workspace/DAVE-4.4.2-64Bit/optiga-trust-m/externals/mbedtls/library\ecp.c **** }
 5905              	 .loc 1 2810 0
 5906              	 
 5907              	.LVL1057:
 5908              	.LVL1058:
 5909              	.LVL1059:
 5910 0028 FEBD     	 pop {r1,r2,r3,r4,r5,r6,r7,pc}
 5911              	 .cfi_endproc
 5912              	.LFE51:
 5914              	 .section .text.mbedtls_ecp_check_pub_priv,"ax",%progbits
 5915              	 .align 1
 5916              	 .global mbedtls_ecp_check_pub_priv
 5917              	 .code 16
 5918              	 .thumb_func
 5920              	mbedtls_ecp_check_pub_priv:
 5921              	.LFB52:
2811:C:/Workspace/DAVE-4.4.2-64Bit/optiga-trust-m/externals/mbedtls/library\ecp.c **** 
2812:C:/Workspace/DAVE-4.4.2-64Bit/optiga-trust-m/externals/mbedtls/library\ecp.c **** /*
2813:C:/Workspace/DAVE-4.4.2-64Bit/optiga-trust-m/externals/mbedtls/library\ecp.c ****  * Check a public-private key pair
2814:C:/Workspace/DAVE-4.4.2-64Bit/optiga-trust-m/externals/mbedtls/library\ecp.c ****  */
2815:C:/Workspace/DAVE-4.4.2-64Bit/optiga-trust-m/externals/mbedtls/library\ecp.c **** int mbedtls_ecp_check_pub_priv( const mbedtls_ecp_keypair *pub, const mbedtls_ecp_keypair *prv )
2816:C:/Workspace/DAVE-4.4.2-64Bit/optiga-trust-m/externals/mbedtls/library\ecp.c **** {
 5922              	 .loc 1 2816 0
 5923              	 .cfi_startproc
 5924              	.LVL1060:
 5925 0000 F0B5     	 push {r4,r5,r6,r7,lr}
 5926              	.LCFI51:
 5927              	 .cfi_def_cfa_offset 20
 5928              	 .cfi_offset 4,-20
 5929              	 .cfi_offset 5,-16
 5930              	 .cfi_offset 6,-12
 5931              	 .cfi_offset 7,-8
 5932              	 .cfi_offset 14,-4
2817:C:/Workspace/DAVE-4.4.2-64Bit/optiga-trust-m/externals/mbedtls/library\ecp.c ****     int ret;
2818:C:/Workspace/DAVE-4.4.2-64Bit/optiga-trust-m/externals/mbedtls/library\ecp.c ****     mbedtls_ecp_point Q;
2819:C:/Workspace/DAVE-4.4.2-64Bit/optiga-trust-m/externals/mbedtls/library\ecp.c ****     mbedtls_ecp_group grp;
2820:C:/Workspace/DAVE-4.4.2-64Bit/optiga-trust-m/externals/mbedtls/library\ecp.c ****     ECP_VALIDATE_RET( pub != NULL );
2821:C:/Workspace/DAVE-4.4.2-64Bit/optiga-trust-m/externals/mbedtls/library\ecp.c ****     ECP_VALIDATE_RET( prv != NULL );
2822:C:/Workspace/DAVE-4.4.2-64Bit/optiga-trust-m/externals/mbedtls/library\ecp.c **** 
2823:C:/Workspace/DAVE-4.4.2-64Bit/optiga-trust-m/externals/mbedtls/library\ecp.c ****     if( pub->grp.id == MBEDTLS_ECP_DP_NONE ||
 5933              	 .loc 1 2823 0
 5934 0002 0378     	 ldrb r3,[r0]
2816:C:/Workspace/DAVE-4.4.2-64Bit/optiga-trust-m/externals/mbedtls/library\ecp.c ****     int ret;
 5935              	 .loc 1 2816 0
 5936 0004 ADB0     	 sub sp,sp,#180
 5937              	.LCFI52:
 5938              	 .cfi_def_cfa_offset 200
 5939              	 .loc 1 2823 0
 5940 0006 002B     	 cmp r3,#0
 5941 0008 01D1     	 bne .L502
 5942              	.LVL1061:
 5943              	.L504:
2824:C:/Workspace/DAVE-4.4.2-64Bit/optiga-trust-m/externals/mbedtls/library\ecp.c ****         pub->grp.id != prv->grp.id ||
2825:C:/Workspace/DAVE-4.4.2-64Bit/optiga-trust-m/externals/mbedtls/library\ecp.c ****         mbedtls_mpi_cmp_mpi( &pub->Q.X, &prv->Q.X ) ||
2826:C:/Workspace/DAVE-4.4.2-64Bit/optiga-trust-m/externals/mbedtls/library\ecp.c ****         mbedtls_mpi_cmp_mpi( &pub->Q.Y, &prv->Q.Y ) ||
2827:C:/Workspace/DAVE-4.4.2-64Bit/optiga-trust-m/externals/mbedtls/library\ecp.c ****         mbedtls_mpi_cmp_mpi( &pub->Q.Z, &prv->Q.Z ) )
2828:C:/Workspace/DAVE-4.4.2-64Bit/optiga-trust-m/externals/mbedtls/library\ecp.c ****     {
2829:C:/Workspace/DAVE-4.4.2-64Bit/optiga-trust-m/externals/mbedtls/library\ecp.c ****         return( MBEDTLS_ERR_ECP_BAD_INPUT_DATA );
 5944              	 .loc 1 2829 0
 5945 000a 2A48     	 ldr r0,.L512
 5946 000c 4FE0     	 b .L503
 5947              	.LVL1062:
 5948              	.L502:
2823:C:/Workspace/DAVE-4.4.2-64Bit/optiga-trust-m/externals/mbedtls/library\ecp.c ****         pub->grp.id != prv->grp.id ||
 5949              	 .loc 1 2823 0 discriminator 1
 5950 000e 0A78     	 ldrb r2,[r1]
 5951 0010 9A42     	 cmp r2,r3
 5952 0012 FAD1     	 bne .L504
2825:C:/Workspace/DAVE-4.4.2-64Bit/optiga-trust-m/externals/mbedtls/library\ecp.c ****         mbedtls_mpi_cmp_mpi( &pub->Q.Y, &prv->Q.Y ) ||
 5953              	 .loc 1 2825 0
 5954 0014 0F1C     	 mov r7,r1
 5955 0016 8837     	 add r7,r7,#136
 5956 0018 0C1C     	 mov r4,r1
 5957 001a 051C     	 mov r5,r0
 5958 001c 391C     	 mov r1,r7
 5959              	.LVL1063:
 5960 001e 8830     	 add r0,r0,#136
 5961              	.LVL1064:
 5962 0020 FFF7FEFF 	 bl mbedtls_mpi_cmp_mpi
 5963              	.LVL1065:
2824:C:/Workspace/DAVE-4.4.2-64Bit/optiga-trust-m/externals/mbedtls/library\ecp.c ****         pub->grp.id != prv->grp.id ||
 5964              	 .loc 1 2824 0
 5965 0024 0028     	 cmp r0,#0
 5966 0026 F0D1     	 bne .L504
2826:C:/Workspace/DAVE-4.4.2-64Bit/optiga-trust-m/externals/mbedtls/library\ecp.c ****         mbedtls_mpi_cmp_mpi( &pub->Q.Z, &prv->Q.Z ) )
 5967              	 .loc 1 2826 0
 5968 0028 261C     	 mov r6,r4
 5969 002a 281C     	 mov r0,r5
 5970 002c 9436     	 add r6,r6,#148
 5971 002e 9430     	 add r0,r0,#148
 5972 0030 311C     	 mov r1,r6
 5973 0032 FFF7FEFF 	 bl mbedtls_mpi_cmp_mpi
 5974              	.LVL1066:
2825:C:/Workspace/DAVE-4.4.2-64Bit/optiga-trust-m/externals/mbedtls/library\ecp.c ****         mbedtls_mpi_cmp_mpi( &pub->Q.Y, &prv->Q.Y ) ||
 5975              	 .loc 1 2825 0
 5976 0036 0028     	 cmp r0,#0
 5977 0038 E7D1     	 bne .L504
2827:C:/Workspace/DAVE-4.4.2-64Bit/optiga-trust-m/externals/mbedtls/library\ecp.c ****     {
 5978              	 .loc 1 2827 0
 5979 003a 231C     	 mov r3,r4
 5980 003c 281C     	 mov r0,r5
 5981 003e A033     	 add r3,r3,#160
 5982 0040 A030     	 add r0,r0,#160
 5983 0042 191C     	 mov r1,r3
 5984 0044 0393     	 str r3,[sp,#12]
 5985 0046 FFF7FEFF 	 bl mbedtls_mpi_cmp_mpi
 5986              	.LVL1067:
 5987 004a 051E     	 sub r5,r0,#0
 5988              	.LVL1068:
2826:C:/Workspace/DAVE-4.4.2-64Bit/optiga-trust-m/externals/mbedtls/library\ecp.c ****         mbedtls_mpi_cmp_mpi( &pub->Q.Z, &prv->Q.Z ) )
 5989              	 .loc 1 2826 0
 5990 004c DDD1     	 bne .L504
2830:C:/Workspace/DAVE-4.4.2-64Bit/optiga-trust-m/externals/mbedtls/library\ecp.c ****     }
2831:C:/Workspace/DAVE-4.4.2-64Bit/optiga-trust-m/externals/mbedtls/library\ecp.c **** 
2832:C:/Workspace/DAVE-4.4.2-64Bit/optiga-trust-m/externals/mbedtls/library\ecp.c ****     mbedtls_ecp_point_init( &Q );
 5991              	 .loc 1 2832 0
 5992 004e 04A8     	 add r0,sp,#16
 5993 0050 FFF7FEFF 	 bl mbedtls_ecp_point_init
 5994              	.LVL1069:
2833:C:/Workspace/DAVE-4.4.2-64Bit/optiga-trust-m/externals/mbedtls/library\ecp.c ****     mbedtls_ecp_group_init( &grp );
 5995              	 .loc 1 2833 0
 5996 0054 0DA8     	 add r0,sp,#52
 5997 0056 FFF7FEFF 	 bl mbedtls_ecp_group_init
 5998              	.LVL1070:
2834:C:/Workspace/DAVE-4.4.2-64Bit/optiga-trust-m/externals/mbedtls/library\ecp.c **** 
2835:C:/Workspace/DAVE-4.4.2-64Bit/optiga-trust-m/externals/mbedtls/library\ecp.c ****     /* mbedtls_ecp_mul() needs a non-const group... */
2836:C:/Workspace/DAVE-4.4.2-64Bit/optiga-trust-m/externals/mbedtls/library\ecp.c ****     mbedtls_ecp_group_copy( &grp, &prv->grp );
 5999              	 .loc 1 2836 0
 6000 005a 211C     	 mov r1,r4
 6001 005c 0DA8     	 add r0,sp,#52
 6002 005e FFF7FEFF 	 bl mbedtls_ecp_group_copy
 6003              	.LVL1071:
2837:C:/Workspace/DAVE-4.4.2-64Bit/optiga-trust-m/externals/mbedtls/library\ecp.c **** 
2838:C:/Workspace/DAVE-4.4.2-64Bit/optiga-trust-m/externals/mbedtls/library\ecp.c ****     /* Also checks d is valid */
2839:C:/Workspace/DAVE-4.4.2-64Bit/optiga-trust-m/externals/mbedtls/library\ecp.c ****     MBEDTLS_MPI_CHK( mbedtls_ecp_mul( &grp, &Q, &prv->d, &prv->grp.G, NULL, NULL ) );
 6004              	 .loc 1 2839 0
 6005 0062 221C     	 mov r2,r4
 6006 0064 231C     	 mov r3,r4
 6007 0066 7C32     	 add r2,r2,#124
 6008 0068 2833     	 add r3,r3,#40
 6009 006a 0095     	 str r5,[sp]
 6010 006c 0195     	 str r5,[sp,#4]
 6011 006e 0DA8     	 add r0,sp,#52
 6012 0070 04A9     	 add r1,sp,#16
 6013 0072 FFF7FEFF 	 bl mbedtls_ecp_mul
 6014              	.LVL1072:
 6015 0076 041E     	 sub r4,r0,#0
 6016              	.LVL1073:
 6017 0078 12D1     	 bne .L505
2840:C:/Workspace/DAVE-4.4.2-64Bit/optiga-trust-m/externals/mbedtls/library\ecp.c **** 
2841:C:/Workspace/DAVE-4.4.2-64Bit/optiga-trust-m/externals/mbedtls/library\ecp.c ****     if( mbedtls_mpi_cmp_mpi( &Q.X, &prv->Q.X ) ||
 6018              	 .loc 1 2841 0
 6019 007a 04A8     	 add r0,sp,#16
 6020              	.LVL1074:
 6021 007c 391C     	 mov r1,r7
 6022 007e FFF7FEFF 	 bl mbedtls_mpi_cmp_mpi
 6023              	.LVL1075:
 6024 0082 0028     	 cmp r0,#0
 6025 0084 0BD1     	 bne .L511
2842:C:/Workspace/DAVE-4.4.2-64Bit/optiga-trust-m/externals/mbedtls/library\ecp.c ****         mbedtls_mpi_cmp_mpi( &Q.Y, &prv->Q.Y ) ||
 6026              	 .loc 1 2842 0 discriminator 1
 6027 0086 07A8     	 add r0,sp,#28
 6028 0088 311C     	 mov r1,r6
 6029 008a FFF7FEFF 	 bl mbedtls_mpi_cmp_mpi
 6030              	.LVL1076:
2841:C:/Workspace/DAVE-4.4.2-64Bit/optiga-trust-m/externals/mbedtls/library\ecp.c ****         mbedtls_mpi_cmp_mpi( &Q.Y, &prv->Q.Y ) ||
 6031              	 .loc 1 2841 0 discriminator 1
 6032 008e 0028     	 cmp r0,#0
 6033 0090 05D1     	 bne .L511
2843:C:/Workspace/DAVE-4.4.2-64Bit/optiga-trust-m/externals/mbedtls/library\ecp.c ****         mbedtls_mpi_cmp_mpi( &Q.Z, &prv->Q.Z ) )
 6034              	 .loc 1 2843 0
 6035 0092 0AA8     	 add r0,sp,#40
 6036 0094 0399     	 ldr r1,[sp,#12]
 6037 0096 FFF7FEFF 	 bl mbedtls_mpi_cmp_mpi
 6038              	.LVL1077:
2842:C:/Workspace/DAVE-4.4.2-64Bit/optiga-trust-m/externals/mbedtls/library\ecp.c ****         mbedtls_mpi_cmp_mpi( &Q.Y, &prv->Q.Y ) ||
 6039              	 .loc 1 2842 0
 6040 009a 0028     	 cmp r0,#0
 6041 009c 00D0     	 beq .L505
 6042              	.L511:
2844:C:/Workspace/DAVE-4.4.2-64Bit/optiga-trust-m/externals/mbedtls/library\ecp.c ****     {
2845:C:/Workspace/DAVE-4.4.2-64Bit/optiga-trust-m/externals/mbedtls/library\ecp.c ****         ret = MBEDTLS_ERR_ECP_BAD_INPUT_DATA;
 6043              	 .loc 1 2845 0
 6044 009e 054C     	 ldr r4,.L512
 6045              	.LVL1078:
 6046              	.L505:
2846:C:/Workspace/DAVE-4.4.2-64Bit/optiga-trust-m/externals/mbedtls/library\ecp.c ****         goto cleanup;
2847:C:/Workspace/DAVE-4.4.2-64Bit/optiga-trust-m/externals/mbedtls/library\ecp.c ****     }
2848:C:/Workspace/DAVE-4.4.2-64Bit/optiga-trust-m/externals/mbedtls/library\ecp.c **** 
2849:C:/Workspace/DAVE-4.4.2-64Bit/optiga-trust-m/externals/mbedtls/library\ecp.c **** cleanup:
2850:C:/Workspace/DAVE-4.4.2-64Bit/optiga-trust-m/externals/mbedtls/library\ecp.c ****     mbedtls_ecp_point_free( &Q );
 6047              	 .loc 1 2850 0
 6048 00a0 04A8     	 add r0,sp,#16
 6049 00a2 FFF7FEFF 	 bl mbedtls_ecp_point_free
 6050              	.LVL1079:
2851:C:/Workspace/DAVE-4.4.2-64Bit/optiga-trust-m/externals/mbedtls/library\ecp.c ****     mbedtls_ecp_group_free( &grp );
 6051              	 .loc 1 2851 0
 6052 00a6 0DA8     	 add r0,sp,#52
 6053 00a8 FFF7FEFF 	 bl mbedtls_ecp_group_free
 6054              	.LVL1080:
2852:C:/Workspace/DAVE-4.4.2-64Bit/optiga-trust-m/externals/mbedtls/library\ecp.c **** 
2853:C:/Workspace/DAVE-4.4.2-64Bit/optiga-trust-m/externals/mbedtls/library\ecp.c ****     return( ret );
 6055              	 .loc 1 2853 0
 6056 00ac 201C     	 mov r0,r4
 6057              	.LVL1081:
 6058              	.L503:
2854:C:/Workspace/DAVE-4.4.2-64Bit/optiga-trust-m/externals/mbedtls/library\ecp.c **** }
 6059              	 .loc 1 2854 0
 6060 00ae 2DB0     	 add sp,sp,#180
 6061              	 
 6062 00b0 F0BD     	 pop {r4,r5,r6,r7,pc}
 6063              	.L513:
 6064 00b2 C046     	 .align 2
 6065              	.L512:
 6066 00b4 80B0FFFF 	 .word -20352
 6067              	 .cfi_endproc
 6068              	.LFE52:
 6070              	 .section .rodata.ecp_supported_curves,"a",%progbits
 6071              	 .align 2
 6072              	 .set .LANCHOR0,.+0
 6075              	ecp_supported_curves:
 6076 0000 03       	 .byte 3
 6077 0001 00       	 .space 1
 6078 0002 1700     	 .short 23
 6079 0004 0001     	 .short 256
 6080 0006 0000     	 .space 2
 6081 0008 00000000 	 .word .LC13
 6082 000c 00       	 .byte 0
 6083 000d 00       	 .space 1
 6084 000e 0000     	 .short 0
 6085 0010 0000     	 .short 0
 6086 0012 0000     	 .space 2
 6087 0014 00000000 	 .word 0
 6088              	 .section .rodata.str1.1,"aMS",%progbits,1
 6089              	.LC13:
 6090 0000 73656370 	 .ascii "secp256r1\000"
 6090      32353672 
 6090      3100
 6091              	 .section .bss.init_done.6062,"aw",%nobits
 6092              	 .align 2
 6093              	 .set .LANCHOR1,.+0
 6096              	init_done.6062:
 6097 0000 00000000 	 .space 4
 6098              	 .section .bss.ecp_supported_grp_id,"aw",%nobits
 6099              	 .set .LANCHOR2,.+0
 6102              	ecp_supported_grp_id:
 6103 0000 0000     	 .space 2
 6104              	 .text
 6105              	.Letext0:
 6106              	 .file 2 "c:\\dave_4-4-2_64bit\\dave-ide-4.4.2-64bit\\eclipse\\arm-gcc-49\\lib\\gcc\\arm-none-eabi\\4.9.3\\include\\stddef.h"
 6107              	 .file 3 "c:\\dave_4-4-2_64bit\\dave-ide-4.4.2-64bit\\eclipse\\arm-gcc-49\\arm-none-eabi\\include\\machine\\_default_types.h"
 6108              	 .file 4 "c:\\dave_4-4-2_64bit\\dave-ide-4.4.2-64bit\\eclipse\\arm-gcc-49\\arm-none-eabi\\include\\stdint.h"
 6109              	 .file 5 "C:/Workspace/DAVE-4.4.2-64Bit/optiga-trust-m/externals/mbedtls/include/mbedtls/bignum.h"
 6110              	 .file 6 "C:/Workspace/DAVE-4.4.2-64Bit/optiga-trust-m/externals/mbedtls/include/mbedtls/ecp.h"
 6111              	 .file 7 "c:\\dave_4-4-2_64bit\\dave-ide-4.4.2-64bit\\eclipse\\arm-gcc-49\\arm-none-eabi\\include\\stdlib.h"
 6112              	 .file 8 "c:\\dave_4-4-2_64bit\\dave-ide-4.4.2-64bit\\eclipse\\arm-gcc-49\\arm-none-eabi\\include\\string.h"
 6113              	 .file 9 "C:/Workspace/DAVE-4.4.2-64Bit/optiga-trust-m/externals/mbedtls/include/mbedtls/platform_util.h"
DEFINED SYMBOLS
                            *ABS*:00000000 ecp.c
    {standard input}:18     .text.ecp_get_type:00000000 $t
    {standard input}:22     .text.ecp_get_type:00000000 ecp_get_type
    {standard input}:51     .text.ecp_modp:00000000 $t
    {standard input}:55     .text.ecp_modp:00000000 ecp_modp
    {standard input}:173    .text.ecp_modp:00000084 $d
    {standard input}:178    .text.ecp_double_jac:00000000 $t
    {standard input}:182    .text.ecp_double_jac:00000000 ecp_double_jac
    {standard input}:972    .text.ecp_normalize_jac:00000000 $t
    {standard input}:976    .text.ecp_normalize_jac:00000000 ecp_normalize_jac
    {standard input}:1133   .text.ecp_normalize_jac_many:00000000 $t
    {standard input}:1137   .text.ecp_normalize_jac_many:00000000 ecp_normalize_jac_many
    {standard input}:1521   .text.ecp_normalize_jac_many:000001f0 $d
    {standard input}:1527   .text.ecp_safe_invert_jac:00000000 $t
    {standard input}:1531   .text.ecp_safe_invert_jac:00000000 ecp_safe_invert_jac
    {standard input}:1604   .text.ecp_select_comb:00000000 $t
    {standard input}:1608   .text.ecp_select_comb:00000000 ecp_select_comb
    {standard input}:1702   .text.mbedtls_ecp_curve_list:00000000 $t
    {standard input}:1707   .text.mbedtls_ecp_curve_list:00000000 mbedtls_ecp_curve_list
    {standard input}:1718   .text.mbedtls_ecp_curve_list:00000004 $d
    {standard input}:1723   .text.mbedtls_ecp_grp_id_list:00000000 $t
    {standard input}:1728   .text.mbedtls_ecp_grp_id_list:00000000 mbedtls_ecp_grp_id_list
    {standard input}:1778   .text.mbedtls_ecp_grp_id_list:00000028 $d
    {standard input}:1785   .text.mbedtls_ecp_curve_info_from_grp_id:00000000 $t
    {standard input}:1790   .text.mbedtls_ecp_curve_info_from_grp_id:00000000 mbedtls_ecp_curve_info_from_grp_id
    {standard input}:1827   .text.mbedtls_ecp_curve_info_from_grp_id:00000018 $d
    {standard input}:1832   .text.mbedtls_ecp_curve_info_from_tls_id:00000000 $t
    {standard input}:1837   .text.mbedtls_ecp_curve_info_from_tls_id:00000000 mbedtls_ecp_curve_info_from_tls_id
    {standard input}:1874   .text.mbedtls_ecp_curve_info_from_tls_id:0000001c $d
    {standard input}:1879   .text.mbedtls_ecp_curve_info_from_name:00000000 $t
    {standard input}:1884   .text.mbedtls_ecp_curve_info_from_name:00000000 mbedtls_ecp_curve_info_from_name
    {standard input}:1931   .text.mbedtls_ecp_curve_info_from_name:00000028 $d
    {standard input}:1936   .text.mbedtls_ecp_point_init:00000000 $t
    {standard input}:1941   .text.mbedtls_ecp_point_init:00000000 mbedtls_ecp_point_init
    {standard input}:1974   .text.mbedtls_ecp_group_init:00000000 $t
    {standard input}:1979   .text.mbedtls_ecp_group_init:00000000 mbedtls_ecp_group_init
    {standard input}:2049   .text.mbedtls_ecp_keypair_init:00000000 $t
    {standard input}:2054   .text.mbedtls_ecp_keypair_init:00000000 mbedtls_ecp_keypair_init
    {standard input}:2087   .text.mbedtls_ecp_point_free:00000000 $t
    {standard input}:2092   .text.mbedtls_ecp_point_free:00000000 mbedtls_ecp_point_free
    {standard input}:2127   .text.mbedtls_ecp_group_free:00000000 $t
    {standard input}:2132   .text.mbedtls_ecp_group_free:00000000 mbedtls_ecp_group_free
    {standard input}:2220   .text.mbedtls_ecp_keypair_free:00000000 $t
    {standard input}:2225   .text.mbedtls_ecp_keypair_free:00000000 mbedtls_ecp_keypair_free
    {standard input}:2260   .text.mbedtls_ecp_copy:00000000 $t
    {standard input}:2265   .text.mbedtls_ecp_copy:00000000 mbedtls_ecp_copy
    {standard input}:2318   .text.mbedtls_ecp_group_copy:00000000 $t
    {standard input}:2323   .text.mbedtls_ecp_group_copy:00000000 mbedtls_ecp_group_copy
    {standard input}:2345   .text.mbedtls_ecp_set_zero:00000000 $t
    {standard input}:2350   .text.mbedtls_ecp_set_zero:00000000 mbedtls_ecp_set_zero
    {standard input}:2405   .text.ecp_add_mixed:00000000 $t
    {standard input}:2409   .text.ecp_add_mixed:00000000 ecp_add_mixed
    {standard input}:3042   .text.ecp_add_mixed:00000344 $d
    {standard input}:3046   .text.ecp_add_mixed:00000348 $t
    {standard input}:3104   .text.ecp_mul_comb_after_precomp.isra.6:00000000 $t
    {standard input}:3108   .text.ecp_mul_comb_after_precomp.isra.6:00000000 ecp_mul_comb_after_precomp.isra.6
    {standard input}:3698   .text.ecp_mul_comb_after_precomp.isra.6:000002b4 $d
    {standard input}:3704   .text.mbedtls_ecp_is_zero:00000000 $t
    {standard input}:3709   .text.mbedtls_ecp_is_zero:00000000 mbedtls_ecp_is_zero
    {standard input}:3736   .text.mbedtls_ecp_point_cmp:00000000 $t
    {standard input}:3741   .text.mbedtls_ecp_point_cmp:00000000 mbedtls_ecp_point_cmp
    {standard input}:3793   .text.mbedtls_ecp_point_cmp:00000034 $d
    {standard input}:3798   .text.mbedtls_ecp_point_read_string:00000000 $t
    {standard input}:3803   .text.mbedtls_ecp_point_read_string:00000000 mbedtls_ecp_point_read_string
    {standard input}:3852   .text.mbedtls_ecp_point_write_binary:00000000 $t
    {standard input}:3857   .text.mbedtls_ecp_point_write_binary:00000000 mbedtls_ecp_point_write_binary
    {standard input}:4007   .text.mbedtls_ecp_point_write_binary:00000090 $d
    {standard input}:4012   .text.mbedtls_ecp_point_read_binary:00000000 $t
    {standard input}:4017   .text.mbedtls_ecp_point_read_binary:00000000 mbedtls_ecp_point_read_binary
    {standard input}:4122   .text.mbedtls_ecp_point_read_binary:00000068 $d
    {standard input}:4128   .text.mbedtls_ecp_tls_read_point:00000000 $t
    {standard input}:4133   .text.mbedtls_ecp_tls_read_point:00000000 mbedtls_ecp_tls_read_point
    {standard input}:4188   .text.mbedtls_ecp_tls_read_point:0000002c $d
    {standard input}:4193   .text.mbedtls_ecp_tls_write_point:00000000 $t
    {standard input}:4198   .text.mbedtls_ecp_tls_write_point:00000000 mbedtls_ecp_tls_write_point
    {standard input}:4251   .text.mbedtls_ecp_tls_write_point:00000030 $d
    {standard input}:4256   .text.mbedtls_ecp_tls_read_group_id:00000000 $t
    {standard input}:4261   .text.mbedtls_ecp_tls_read_group_id:00000000 mbedtls_ecp_tls_read_group_id
    {standard input}:4332   .text.mbedtls_ecp_tls_read_group_id:0000003c $d
    {standard input}:4338   .text.mbedtls_ecp_tls_read_group:00000000 $t
    {standard input}:4343   .text.mbedtls_ecp_tls_read_group:00000000 mbedtls_ecp_tls_read_group
    {standard input}:4384   .text.mbedtls_ecp_tls_write_group:00000000 $t
    {standard input}:4389   .text.mbedtls_ecp_tls_write_group:00000000 mbedtls_ecp_tls_write_group
    {standard input}:4455   .text.mbedtls_ecp_tls_write_group:00000034 $d
    {standard input}:4461   .text.mbedtls_ecp_check_pubkey:00000000 $t
    {standard input}:4466   .text.mbedtls_ecp_check_pubkey:00000000 mbedtls_ecp_check_pubkey
    {standard input}:4748   .text.mbedtls_ecp_check_pubkey:0000016c $d
    {standard input}:4754   .text.mbedtls_ecp_check_privkey:00000000 $t
    {standard input}:4759   .text.mbedtls_ecp_check_privkey:00000000 mbedtls_ecp_check_privkey
    {standard input}:4815   .text.mbedtls_ecp_check_privkey:00000038 $d
    {standard input}:4823   .text.mbedtls_ecp_mul_restartable:00000000 $t
    {standard input}:4828   .text.mbedtls_ecp_mul_restartable:00000000 mbedtls_ecp_mul_restartable
    {standard input}:5319   .text.mbedtls_ecp_mul_restartable:00000254 $d
    {standard input}:5325   .text.mbedtls_ecp_mul:00000000 $t
    {standard input}:5330   .text.mbedtls_ecp_mul:00000000 mbedtls_ecp_mul
    {standard input}:5361   .text.mbedtls_ecp_mul_shortcuts:00000000 $t
    {standard input}:5365   .text.mbedtls_ecp_mul_shortcuts:00000000 mbedtls_ecp_mul_shortcuts
    {standard input}:5472   .text.mbedtls_ecp_muladd_restartable:00000000 $t
    {standard input}:5477   .text.mbedtls_ecp_muladd_restartable:00000000 mbedtls_ecp_muladd_restartable
    {standard input}:5581   .text.mbedtls_ecp_muladd_restartable:0000006c $d
    {standard input}:5586   .text.mbedtls_ecp_muladd:00000000 $t
    {standard input}:5591   .text.mbedtls_ecp_muladd:00000000 mbedtls_ecp_muladd
    {standard input}:5622   .text.mbedtls_ecp_gen_privkey:00000000 $t
    {standard input}:5627   .text.mbedtls_ecp_gen_privkey:00000000 mbedtls_ecp_gen_privkey
    {standard input}:5743   .text.mbedtls_ecp_gen_privkey:00000074 $d
    {standard input}:5749   .text.mbedtls_ecp_gen_keypair_base:00000000 $t
    {standard input}:5754   .text.mbedtls_ecp_gen_keypair_base:00000000 mbedtls_ecp_gen_keypair_base
    {standard input}:5812   .text.mbedtls_ecp_gen_keypair:00000000 $t
    {standard input}:5817   .text.mbedtls_ecp_gen_keypair:00000000 mbedtls_ecp_gen_keypair
    {standard input}:5856   .text.mbedtls_ecp_gen_key:00000000 $t
    {standard input}:5861   .text.mbedtls_ecp_gen_key:00000000 mbedtls_ecp_gen_key
    {standard input}:5915   .text.mbedtls_ecp_check_pub_priv:00000000 $t
    {standard input}:5920   .text.mbedtls_ecp_check_pub_priv:00000000 mbedtls_ecp_check_pub_priv
    {standard input}:6066   .text.mbedtls_ecp_check_pub_priv:000000b4 $d
    {standard input}:6071   .rodata.ecp_supported_curves:00000000 $d
    {standard input}:6075   .rodata.ecp_supported_curves:00000000 ecp_supported_curves
    {standard input}:6092   .bss.init_done.6062:00000000 $d
    {standard input}:6096   .bss.init_done.6062:00000000 init_done.6062
    {standard input}:6102   .bss.ecp_supported_grp_id:00000000 ecp_supported_grp_id
    {standard input}:6103   .bss.ecp_supported_grp_id:00000000 $d
                     .debug_frame:00000010 $d

UNDEFINED SYMBOLS
mbedtls_mpi_mod_mpi
mbedtls_mpi_bitlen
mbedtls_mpi_cmp_int
mbedtls_mpi_add_mpi
mbedtls_mpi_sub_abs
mbedtls_mpi_cmp_mpi
mbedtls_mpi_init
mbedtls_mpi_mul_mpi
mbedtls_mpi_sub_mpi
mbedtls_mpi_mul_int
mbedtls_mpi_shift_l
mbedtls_mpi_copy
mbedtls_mpi_free
mbedtls_mpi_inv_mod
mbedtls_mpi_lset
calloc
mbedtls_mpi_shrink
free
mbedtls_mpi_safe_cond_assign
strcmp
mbedtls_platform_zeroize
mbedtls_ecp_group_load
mbedtls_mpi_get_bit
memset
mbedtls_mpi_fill_random
mbedtls_mpi_shift_r
mbedtls_mpi_read_string
mbedtls_mpi_size
mbedtls_mpi_write_binary
mbedtls_mpi_read_binary
mbedtls_mpi_sub_int
__aeabi_uidiv
__aeabi_uidivmod
