   1              	 .cpu cortex-m0
   2              	 .fpu softvfp
   3              	 .eabi_attribute 20,1
   4              	 .eabi_attribute 21,1
   5              	 .eabi_attribute 23,3
   6              	 .eabi_attribute 24,1
   7              	 .eabi_attribute 25,1
   8              	 .eabi_attribute 26,1
   9              	 .eabi_attribute 30,4
  10              	 .eabi_attribute 34,0
  11              	 .eabi_attribute 18,4
  12              	 .code 16
  13              	 .file "md.c"
  14              	 .text
  15              	.Ltext0:
  16              	 .cfi_sections .debug_frame
  17              	 .section .text.mbedtls_md_list,"ax",%progbits
  18              	 .align 1
  19              	 .global mbedtls_md_list
  20              	 .code 16
  21              	 .thumb_func
  23              	mbedtls_md_list:
  24              	.LFB0:
  25              	 .file 1 "C:/Workspace/DAVE-4.4.2-64Bit/optiga-trust-m/externals/mbedtls/library/md.c"
   1:C:/Workspace/DAVE-4.4.2-64Bit/optiga-trust-m/externals/mbedtls/library\md.c **** /**
   2:C:/Workspace/DAVE-4.4.2-64Bit/optiga-trust-m/externals/mbedtls/library\md.c ****  * \file mbedtls_md.c
   3:C:/Workspace/DAVE-4.4.2-64Bit/optiga-trust-m/externals/mbedtls/library\md.c ****  *
   4:C:/Workspace/DAVE-4.4.2-64Bit/optiga-trust-m/externals/mbedtls/library\md.c ****  * \brief Generic message digest wrapper for mbed TLS
   5:C:/Workspace/DAVE-4.4.2-64Bit/optiga-trust-m/externals/mbedtls/library\md.c ****  *
   6:C:/Workspace/DAVE-4.4.2-64Bit/optiga-trust-m/externals/mbedtls/library\md.c ****  * \author Adriaan de Jong <dejong@fox-it.com>
   7:C:/Workspace/DAVE-4.4.2-64Bit/optiga-trust-m/externals/mbedtls/library\md.c ****  *
   8:C:/Workspace/DAVE-4.4.2-64Bit/optiga-trust-m/externals/mbedtls/library\md.c ****  *  Copyright (C) 2006-2015, ARM Limited, All Rights Reserved
   9:C:/Workspace/DAVE-4.4.2-64Bit/optiga-trust-m/externals/mbedtls/library\md.c ****  *  SPDX-License-Identifier: Apache-2.0
  10:C:/Workspace/DAVE-4.4.2-64Bit/optiga-trust-m/externals/mbedtls/library\md.c ****  *
  11:C:/Workspace/DAVE-4.4.2-64Bit/optiga-trust-m/externals/mbedtls/library\md.c ****  *  Licensed under the Apache License, Version 2.0 (the "License"); you may
  12:C:/Workspace/DAVE-4.4.2-64Bit/optiga-trust-m/externals/mbedtls/library\md.c ****  *  not use this file except in compliance with the License.
  13:C:/Workspace/DAVE-4.4.2-64Bit/optiga-trust-m/externals/mbedtls/library\md.c ****  *  You may obtain a copy of the License at
  14:C:/Workspace/DAVE-4.4.2-64Bit/optiga-trust-m/externals/mbedtls/library\md.c ****  *
  15:C:/Workspace/DAVE-4.4.2-64Bit/optiga-trust-m/externals/mbedtls/library\md.c ****  *  http://www.apache.org/licenses/LICENSE-2.0
  16:C:/Workspace/DAVE-4.4.2-64Bit/optiga-trust-m/externals/mbedtls/library\md.c ****  *
  17:C:/Workspace/DAVE-4.4.2-64Bit/optiga-trust-m/externals/mbedtls/library\md.c ****  *  Unless required by applicable law or agreed to in writing, software
  18:C:/Workspace/DAVE-4.4.2-64Bit/optiga-trust-m/externals/mbedtls/library\md.c ****  *  distributed under the License is distributed on an "AS IS" BASIS, WITHOUT
  19:C:/Workspace/DAVE-4.4.2-64Bit/optiga-trust-m/externals/mbedtls/library\md.c ****  *  WARRANTIES OR CONDITIONS OF ANY KIND, either express or implied.
  20:C:/Workspace/DAVE-4.4.2-64Bit/optiga-trust-m/externals/mbedtls/library\md.c ****  *  See the License for the specific language governing permissions and
  21:C:/Workspace/DAVE-4.4.2-64Bit/optiga-trust-m/externals/mbedtls/library\md.c ****  *  limitations under the License.
  22:C:/Workspace/DAVE-4.4.2-64Bit/optiga-trust-m/externals/mbedtls/library\md.c ****  *
  23:C:/Workspace/DAVE-4.4.2-64Bit/optiga-trust-m/externals/mbedtls/library\md.c ****  *  This file is part of mbed TLS (https://tls.mbed.org)
  24:C:/Workspace/DAVE-4.4.2-64Bit/optiga-trust-m/externals/mbedtls/library\md.c ****  */
  25:C:/Workspace/DAVE-4.4.2-64Bit/optiga-trust-m/externals/mbedtls/library\md.c **** 
  26:C:/Workspace/DAVE-4.4.2-64Bit/optiga-trust-m/externals/mbedtls/library\md.c **** #if !defined(MBEDTLS_CONFIG_FILE)
  27:C:/Workspace/DAVE-4.4.2-64Bit/optiga-trust-m/externals/mbedtls/library\md.c **** #include "mbedtls/config.h"
  28:C:/Workspace/DAVE-4.4.2-64Bit/optiga-trust-m/externals/mbedtls/library\md.c **** #else
  29:C:/Workspace/DAVE-4.4.2-64Bit/optiga-trust-m/externals/mbedtls/library\md.c **** #include MBEDTLS_CONFIG_FILE
  30:C:/Workspace/DAVE-4.4.2-64Bit/optiga-trust-m/externals/mbedtls/library\md.c **** #endif
  31:C:/Workspace/DAVE-4.4.2-64Bit/optiga-trust-m/externals/mbedtls/library\md.c **** 
  32:C:/Workspace/DAVE-4.4.2-64Bit/optiga-trust-m/externals/mbedtls/library\md.c **** #if defined(MBEDTLS_MD_C)
  33:C:/Workspace/DAVE-4.4.2-64Bit/optiga-trust-m/externals/mbedtls/library\md.c **** 
  34:C:/Workspace/DAVE-4.4.2-64Bit/optiga-trust-m/externals/mbedtls/library\md.c **** #include "mbedtls/md.h"
  35:C:/Workspace/DAVE-4.4.2-64Bit/optiga-trust-m/externals/mbedtls/library\md.c **** #include "mbedtls/md_internal.h"
  36:C:/Workspace/DAVE-4.4.2-64Bit/optiga-trust-m/externals/mbedtls/library\md.c **** #include "mbedtls/platform_util.h"
  37:C:/Workspace/DAVE-4.4.2-64Bit/optiga-trust-m/externals/mbedtls/library\md.c **** 
  38:C:/Workspace/DAVE-4.4.2-64Bit/optiga-trust-m/externals/mbedtls/library\md.c **** #if defined(MBEDTLS_PLATFORM_C)
  39:C:/Workspace/DAVE-4.4.2-64Bit/optiga-trust-m/externals/mbedtls/library\md.c **** #include "mbedtls/platform.h"
  40:C:/Workspace/DAVE-4.4.2-64Bit/optiga-trust-m/externals/mbedtls/library\md.c **** #else
  41:C:/Workspace/DAVE-4.4.2-64Bit/optiga-trust-m/externals/mbedtls/library\md.c **** #include <stdlib.h>
  42:C:/Workspace/DAVE-4.4.2-64Bit/optiga-trust-m/externals/mbedtls/library\md.c **** #define mbedtls_calloc    calloc
  43:C:/Workspace/DAVE-4.4.2-64Bit/optiga-trust-m/externals/mbedtls/library\md.c **** #define mbedtls_free       free
  44:C:/Workspace/DAVE-4.4.2-64Bit/optiga-trust-m/externals/mbedtls/library\md.c **** #endif
  45:C:/Workspace/DAVE-4.4.2-64Bit/optiga-trust-m/externals/mbedtls/library\md.c **** 
  46:C:/Workspace/DAVE-4.4.2-64Bit/optiga-trust-m/externals/mbedtls/library\md.c **** #include <string.h>
  47:C:/Workspace/DAVE-4.4.2-64Bit/optiga-trust-m/externals/mbedtls/library\md.c **** 
  48:C:/Workspace/DAVE-4.4.2-64Bit/optiga-trust-m/externals/mbedtls/library\md.c **** #if defined(MBEDTLS_FS_IO)
  49:C:/Workspace/DAVE-4.4.2-64Bit/optiga-trust-m/externals/mbedtls/library\md.c **** #include <stdio.h>
  50:C:/Workspace/DAVE-4.4.2-64Bit/optiga-trust-m/externals/mbedtls/library\md.c **** #endif
  51:C:/Workspace/DAVE-4.4.2-64Bit/optiga-trust-m/externals/mbedtls/library\md.c **** 
  52:C:/Workspace/DAVE-4.4.2-64Bit/optiga-trust-m/externals/mbedtls/library\md.c **** /*
  53:C:/Workspace/DAVE-4.4.2-64Bit/optiga-trust-m/externals/mbedtls/library\md.c ****  * Reminder: update profiles in x509_crt.c when adding a new hash!
  54:C:/Workspace/DAVE-4.4.2-64Bit/optiga-trust-m/externals/mbedtls/library\md.c ****  */
  55:C:/Workspace/DAVE-4.4.2-64Bit/optiga-trust-m/externals/mbedtls/library\md.c **** static const int supported_digests[] = {
  56:C:/Workspace/DAVE-4.4.2-64Bit/optiga-trust-m/externals/mbedtls/library\md.c **** 
  57:C:/Workspace/DAVE-4.4.2-64Bit/optiga-trust-m/externals/mbedtls/library\md.c **** #if defined(MBEDTLS_SHA512_C)
  58:C:/Workspace/DAVE-4.4.2-64Bit/optiga-trust-m/externals/mbedtls/library\md.c ****         MBEDTLS_MD_SHA512,
  59:C:/Workspace/DAVE-4.4.2-64Bit/optiga-trust-m/externals/mbedtls/library\md.c ****         MBEDTLS_MD_SHA384,
  60:C:/Workspace/DAVE-4.4.2-64Bit/optiga-trust-m/externals/mbedtls/library\md.c **** #endif
  61:C:/Workspace/DAVE-4.4.2-64Bit/optiga-trust-m/externals/mbedtls/library\md.c **** 
  62:C:/Workspace/DAVE-4.4.2-64Bit/optiga-trust-m/externals/mbedtls/library\md.c **** #if defined(MBEDTLS_SHA256_C)
  63:C:/Workspace/DAVE-4.4.2-64Bit/optiga-trust-m/externals/mbedtls/library\md.c ****         MBEDTLS_MD_SHA256,
  64:C:/Workspace/DAVE-4.4.2-64Bit/optiga-trust-m/externals/mbedtls/library\md.c ****         MBEDTLS_MD_SHA224,
  65:C:/Workspace/DAVE-4.4.2-64Bit/optiga-trust-m/externals/mbedtls/library\md.c **** #endif
  66:C:/Workspace/DAVE-4.4.2-64Bit/optiga-trust-m/externals/mbedtls/library\md.c **** 
  67:C:/Workspace/DAVE-4.4.2-64Bit/optiga-trust-m/externals/mbedtls/library\md.c **** #if defined(MBEDTLS_SHA1_C)
  68:C:/Workspace/DAVE-4.4.2-64Bit/optiga-trust-m/externals/mbedtls/library\md.c ****         MBEDTLS_MD_SHA1,
  69:C:/Workspace/DAVE-4.4.2-64Bit/optiga-trust-m/externals/mbedtls/library\md.c **** #endif
  70:C:/Workspace/DAVE-4.4.2-64Bit/optiga-trust-m/externals/mbedtls/library\md.c **** 
  71:C:/Workspace/DAVE-4.4.2-64Bit/optiga-trust-m/externals/mbedtls/library\md.c **** #if defined(MBEDTLS_RIPEMD160_C)
  72:C:/Workspace/DAVE-4.4.2-64Bit/optiga-trust-m/externals/mbedtls/library\md.c ****         MBEDTLS_MD_RIPEMD160,
  73:C:/Workspace/DAVE-4.4.2-64Bit/optiga-trust-m/externals/mbedtls/library\md.c **** #endif
  74:C:/Workspace/DAVE-4.4.2-64Bit/optiga-trust-m/externals/mbedtls/library\md.c **** 
  75:C:/Workspace/DAVE-4.4.2-64Bit/optiga-trust-m/externals/mbedtls/library\md.c **** #if defined(MBEDTLS_MD5_C)
  76:C:/Workspace/DAVE-4.4.2-64Bit/optiga-trust-m/externals/mbedtls/library\md.c ****         MBEDTLS_MD_MD5,
  77:C:/Workspace/DAVE-4.4.2-64Bit/optiga-trust-m/externals/mbedtls/library\md.c **** #endif
  78:C:/Workspace/DAVE-4.4.2-64Bit/optiga-trust-m/externals/mbedtls/library\md.c **** 
  79:C:/Workspace/DAVE-4.4.2-64Bit/optiga-trust-m/externals/mbedtls/library\md.c **** #if defined(MBEDTLS_MD4_C)
  80:C:/Workspace/DAVE-4.4.2-64Bit/optiga-trust-m/externals/mbedtls/library\md.c ****         MBEDTLS_MD_MD4,
  81:C:/Workspace/DAVE-4.4.2-64Bit/optiga-trust-m/externals/mbedtls/library\md.c **** #endif
  82:C:/Workspace/DAVE-4.4.2-64Bit/optiga-trust-m/externals/mbedtls/library\md.c **** 
  83:C:/Workspace/DAVE-4.4.2-64Bit/optiga-trust-m/externals/mbedtls/library\md.c **** #if defined(MBEDTLS_MD2_C)
  84:C:/Workspace/DAVE-4.4.2-64Bit/optiga-trust-m/externals/mbedtls/library\md.c ****         MBEDTLS_MD_MD2,
  85:C:/Workspace/DAVE-4.4.2-64Bit/optiga-trust-m/externals/mbedtls/library\md.c **** #endif
  86:C:/Workspace/DAVE-4.4.2-64Bit/optiga-trust-m/externals/mbedtls/library\md.c **** 
  87:C:/Workspace/DAVE-4.4.2-64Bit/optiga-trust-m/externals/mbedtls/library\md.c ****         MBEDTLS_MD_NONE
  88:C:/Workspace/DAVE-4.4.2-64Bit/optiga-trust-m/externals/mbedtls/library\md.c **** };
  89:C:/Workspace/DAVE-4.4.2-64Bit/optiga-trust-m/externals/mbedtls/library\md.c **** 
  90:C:/Workspace/DAVE-4.4.2-64Bit/optiga-trust-m/externals/mbedtls/library\md.c **** const int *mbedtls_md_list( void )
  91:C:/Workspace/DAVE-4.4.2-64Bit/optiga-trust-m/externals/mbedtls/library\md.c **** {
  26              	 .loc 1 91 0
  27              	 .cfi_startproc
  92:C:/Workspace/DAVE-4.4.2-64Bit/optiga-trust-m/externals/mbedtls/library\md.c ****     return( supported_digests );
  93:C:/Workspace/DAVE-4.4.2-64Bit/optiga-trust-m/externals/mbedtls/library\md.c **** }
  28              	 .loc 1 93 0
  29 0000 0048     	 ldr r0,.L2
  30              	 
  31 0002 7047     	 bx lr
  32              	.L3:
  33              	 .align 2
  34              	.L2:
  35 0004 00000000 	 .word .LANCHOR0
  36              	 .cfi_endproc
  37              	.LFE0:
  39              	 .section .text.mbedtls_md_info_from_string,"ax",%progbits
  40              	 .align 1
  41              	 .global mbedtls_md_info_from_string
  42              	 .code 16
  43              	 .thumb_func
  45              	mbedtls_md_info_from_string:
  46              	.LFB1:
  94:C:/Workspace/DAVE-4.4.2-64Bit/optiga-trust-m/externals/mbedtls/library\md.c **** 
  95:C:/Workspace/DAVE-4.4.2-64Bit/optiga-trust-m/externals/mbedtls/library\md.c **** const mbedtls_md_info_t *mbedtls_md_info_from_string( const char *md_name )
  96:C:/Workspace/DAVE-4.4.2-64Bit/optiga-trust-m/externals/mbedtls/library\md.c **** {
  47              	 .loc 1 96 0
  48              	 .cfi_startproc
  49              	.LVL0:
  50 0000 10B5     	 push {r4,lr}
  51              	.LCFI0:
  52              	 .cfi_def_cfa_offset 8
  53              	 .cfi_offset 4,-8
  54              	 .cfi_offset 14,-4
  97:C:/Workspace/DAVE-4.4.2-64Bit/optiga-trust-m/externals/mbedtls/library\md.c ****     if( NULL == md_name )
  98:C:/Workspace/DAVE-4.4.2-64Bit/optiga-trust-m/externals/mbedtls/library\md.c ****         return( NULL );
  55              	 .loc 1 98 0
  56 0002 031E     	 sub r3,r0,#0
  97:C:/Workspace/DAVE-4.4.2-64Bit/optiga-trust-m/externals/mbedtls/library\md.c ****     if( NULL == md_name )
  57              	 .loc 1 97 0
  58 0004 0FD0     	 beq .L5
  99:C:/Workspace/DAVE-4.4.2-64Bit/optiga-trust-m/externals/mbedtls/library\md.c **** 
 100:C:/Workspace/DAVE-4.4.2-64Bit/optiga-trust-m/externals/mbedtls/library\md.c ****     /* Get the appropriate digest information */
 101:C:/Workspace/DAVE-4.4.2-64Bit/optiga-trust-m/externals/mbedtls/library\md.c **** #if defined(MBEDTLS_MD2_C)
 102:C:/Workspace/DAVE-4.4.2-64Bit/optiga-trust-m/externals/mbedtls/library\md.c ****     if( !strcmp( "MD2", md_name ) )
 103:C:/Workspace/DAVE-4.4.2-64Bit/optiga-trust-m/externals/mbedtls/library\md.c ****         return mbedtls_md_info_from_type( MBEDTLS_MD_MD2 );
 104:C:/Workspace/DAVE-4.4.2-64Bit/optiga-trust-m/externals/mbedtls/library\md.c **** #endif
 105:C:/Workspace/DAVE-4.4.2-64Bit/optiga-trust-m/externals/mbedtls/library\md.c **** #if defined(MBEDTLS_MD4_C)
 106:C:/Workspace/DAVE-4.4.2-64Bit/optiga-trust-m/externals/mbedtls/library\md.c ****     if( !strcmp( "MD4", md_name ) )
 107:C:/Workspace/DAVE-4.4.2-64Bit/optiga-trust-m/externals/mbedtls/library\md.c ****         return mbedtls_md_info_from_type( MBEDTLS_MD_MD4 );
 108:C:/Workspace/DAVE-4.4.2-64Bit/optiga-trust-m/externals/mbedtls/library\md.c **** #endif
 109:C:/Workspace/DAVE-4.4.2-64Bit/optiga-trust-m/externals/mbedtls/library\md.c **** #if defined(MBEDTLS_MD5_C)
 110:C:/Workspace/DAVE-4.4.2-64Bit/optiga-trust-m/externals/mbedtls/library\md.c ****     if( !strcmp( "MD5", md_name ) )
 111:C:/Workspace/DAVE-4.4.2-64Bit/optiga-trust-m/externals/mbedtls/library\md.c ****         return mbedtls_md_info_from_type( MBEDTLS_MD_MD5 );
 112:C:/Workspace/DAVE-4.4.2-64Bit/optiga-trust-m/externals/mbedtls/library\md.c **** #endif
 113:C:/Workspace/DAVE-4.4.2-64Bit/optiga-trust-m/externals/mbedtls/library\md.c **** #if defined(MBEDTLS_RIPEMD160_C)
 114:C:/Workspace/DAVE-4.4.2-64Bit/optiga-trust-m/externals/mbedtls/library\md.c ****     if( !strcmp( "RIPEMD160", md_name ) )
 115:C:/Workspace/DAVE-4.4.2-64Bit/optiga-trust-m/externals/mbedtls/library\md.c ****         return mbedtls_md_info_from_type( MBEDTLS_MD_RIPEMD160 );
 116:C:/Workspace/DAVE-4.4.2-64Bit/optiga-trust-m/externals/mbedtls/library\md.c **** #endif
 117:C:/Workspace/DAVE-4.4.2-64Bit/optiga-trust-m/externals/mbedtls/library\md.c **** #if defined(MBEDTLS_SHA1_C)
 118:C:/Workspace/DAVE-4.4.2-64Bit/optiga-trust-m/externals/mbedtls/library\md.c ****     if( !strcmp( "SHA1", md_name ) || !strcmp( "SHA", md_name ) )
 119:C:/Workspace/DAVE-4.4.2-64Bit/optiga-trust-m/externals/mbedtls/library\md.c ****         return mbedtls_md_info_from_type( MBEDTLS_MD_SHA1 );
 120:C:/Workspace/DAVE-4.4.2-64Bit/optiga-trust-m/externals/mbedtls/library\md.c **** #endif
 121:C:/Workspace/DAVE-4.4.2-64Bit/optiga-trust-m/externals/mbedtls/library\md.c **** #if defined(MBEDTLS_SHA256_C)
 122:C:/Workspace/DAVE-4.4.2-64Bit/optiga-trust-m/externals/mbedtls/library\md.c ****     if( !strcmp( "SHA224", md_name ) )
  59              	 .loc 1 122 0
  60 0006 191C     	 mov r1,r3
  61 0008 041C     	 mov r4,r0
  62 000a 0848     	 ldr r0,.L11
  63              	.LVL1:
  64 000c FFF7FEFF 	 bl strcmp
  65              	.LVL2:
 123:C:/Workspace/DAVE-4.4.2-64Bit/optiga-trust-m/externals/mbedtls/library\md.c ****         return mbedtls_md_info_from_type( MBEDTLS_MD_SHA224 );
  66              	 .loc 1 123 0
  67 0010 074B     	 ldr r3,.L11+4
 122:C:/Workspace/DAVE-4.4.2-64Bit/optiga-trust-m/externals/mbedtls/library\md.c ****         return mbedtls_md_info_from_type( MBEDTLS_MD_SHA224 );
  68              	 .loc 1 122 0
  69 0012 0028     	 cmp r0,#0
  70 0014 07D0     	 beq .L5
 124:C:/Workspace/DAVE-4.4.2-64Bit/optiga-trust-m/externals/mbedtls/library\md.c ****     if( !strcmp( "SHA256", md_name ) )
  71              	 .loc 1 124 0
  72 0016 0748     	 ldr r0,.L11+8
  73 0018 211C     	 mov r1,r4
  74 001a FFF7FEFF 	 bl strcmp
  75              	.LVL3:
  98:C:/Workspace/DAVE-4.4.2-64Bit/optiga-trust-m/externals/mbedtls/library\md.c **** 
  76              	 .loc 1 98 0
  77 001e 0023     	 mov r3,#0
  78              	 .loc 1 124 0
  79 0020 9842     	 cmp r0,r3
  80 0022 00D1     	 bne .L5
 125:C:/Workspace/DAVE-4.4.2-64Bit/optiga-trust-m/externals/mbedtls/library\md.c ****         return mbedtls_md_info_from_type( MBEDTLS_MD_SHA256 );
  81              	 .loc 1 125 0
  82 0024 044B     	 ldr r3,.L11+12
  83              	.LVL4:
  84              	.L5:
 126:C:/Workspace/DAVE-4.4.2-64Bit/optiga-trust-m/externals/mbedtls/library\md.c **** #endif
 127:C:/Workspace/DAVE-4.4.2-64Bit/optiga-trust-m/externals/mbedtls/library\md.c **** #if defined(MBEDTLS_SHA512_C)
 128:C:/Workspace/DAVE-4.4.2-64Bit/optiga-trust-m/externals/mbedtls/library\md.c ****     if( !strcmp( "SHA384", md_name ) )
 129:C:/Workspace/DAVE-4.4.2-64Bit/optiga-trust-m/externals/mbedtls/library\md.c ****         return mbedtls_md_info_from_type( MBEDTLS_MD_SHA384 );
 130:C:/Workspace/DAVE-4.4.2-64Bit/optiga-trust-m/externals/mbedtls/library\md.c ****     if( !strcmp( "SHA512", md_name ) )
 131:C:/Workspace/DAVE-4.4.2-64Bit/optiga-trust-m/externals/mbedtls/library\md.c ****         return mbedtls_md_info_from_type( MBEDTLS_MD_SHA512 );
 132:C:/Workspace/DAVE-4.4.2-64Bit/optiga-trust-m/externals/mbedtls/library\md.c **** #endif
 133:C:/Workspace/DAVE-4.4.2-64Bit/optiga-trust-m/externals/mbedtls/library\md.c ****     return( NULL );
 134:C:/Workspace/DAVE-4.4.2-64Bit/optiga-trust-m/externals/mbedtls/library\md.c **** }
  85              	 .loc 1 134 0
  86 0026 181C     	 mov r0,r3
  87              	 
  88 0028 10BD     	 pop {r4,pc}
  89              	.L12:
  90 002a C046     	 .align 2
  91              	.L11:
  92 002c 00000000 	 .word .LC3
  93 0030 00000000 	 .word mbedtls_sha224_info
  94 0034 07000000 	 .word .LC5
  95 0038 00000000 	 .word mbedtls_sha256_info
  96              	 .cfi_endproc
  97              	.LFE1:
  99              	 .section .text.mbedtls_md_info_from_type,"ax",%progbits
 100              	 .align 1
 101              	 .global mbedtls_md_info_from_type
 102              	 .code 16
 103              	 .thumb_func
 105              	mbedtls_md_info_from_type:
 106              	.LFB2:
 135:C:/Workspace/DAVE-4.4.2-64Bit/optiga-trust-m/externals/mbedtls/library\md.c **** 
 136:C:/Workspace/DAVE-4.4.2-64Bit/optiga-trust-m/externals/mbedtls/library\md.c **** const mbedtls_md_info_t *mbedtls_md_info_from_type( mbedtls_md_type_t md_type )
 137:C:/Workspace/DAVE-4.4.2-64Bit/optiga-trust-m/externals/mbedtls/library\md.c **** {
 107              	 .loc 1 137 0
 108              	 .cfi_startproc
 109              	.LVL5:
 138:C:/Workspace/DAVE-4.4.2-64Bit/optiga-trust-m/externals/mbedtls/library\md.c ****     switch( md_type )
 139:C:/Workspace/DAVE-4.4.2-64Bit/optiga-trust-m/externals/mbedtls/library\md.c ****     {
 140:C:/Workspace/DAVE-4.4.2-64Bit/optiga-trust-m/externals/mbedtls/library\md.c **** #if defined(MBEDTLS_MD2_C)
 141:C:/Workspace/DAVE-4.4.2-64Bit/optiga-trust-m/externals/mbedtls/library\md.c ****         case MBEDTLS_MD_MD2:
 142:C:/Workspace/DAVE-4.4.2-64Bit/optiga-trust-m/externals/mbedtls/library\md.c ****             return( &mbedtls_md2_info );
 143:C:/Workspace/DAVE-4.4.2-64Bit/optiga-trust-m/externals/mbedtls/library\md.c **** #endif
 144:C:/Workspace/DAVE-4.4.2-64Bit/optiga-trust-m/externals/mbedtls/library\md.c **** #if defined(MBEDTLS_MD4_C)
 145:C:/Workspace/DAVE-4.4.2-64Bit/optiga-trust-m/externals/mbedtls/library\md.c ****         case MBEDTLS_MD_MD4:
 146:C:/Workspace/DAVE-4.4.2-64Bit/optiga-trust-m/externals/mbedtls/library\md.c ****             return( &mbedtls_md4_info );
 147:C:/Workspace/DAVE-4.4.2-64Bit/optiga-trust-m/externals/mbedtls/library\md.c **** #endif
 148:C:/Workspace/DAVE-4.4.2-64Bit/optiga-trust-m/externals/mbedtls/library\md.c **** #if defined(MBEDTLS_MD5_C)
 149:C:/Workspace/DAVE-4.4.2-64Bit/optiga-trust-m/externals/mbedtls/library\md.c ****         case MBEDTLS_MD_MD5:
 150:C:/Workspace/DAVE-4.4.2-64Bit/optiga-trust-m/externals/mbedtls/library\md.c ****             return( &mbedtls_md5_info );
 151:C:/Workspace/DAVE-4.4.2-64Bit/optiga-trust-m/externals/mbedtls/library\md.c **** #endif
 152:C:/Workspace/DAVE-4.4.2-64Bit/optiga-trust-m/externals/mbedtls/library\md.c **** #if defined(MBEDTLS_RIPEMD160_C)
 153:C:/Workspace/DAVE-4.4.2-64Bit/optiga-trust-m/externals/mbedtls/library\md.c ****         case MBEDTLS_MD_RIPEMD160:
 154:C:/Workspace/DAVE-4.4.2-64Bit/optiga-trust-m/externals/mbedtls/library\md.c ****             return( &mbedtls_ripemd160_info );
 155:C:/Workspace/DAVE-4.4.2-64Bit/optiga-trust-m/externals/mbedtls/library\md.c **** #endif
 156:C:/Workspace/DAVE-4.4.2-64Bit/optiga-trust-m/externals/mbedtls/library\md.c **** #if defined(MBEDTLS_SHA1_C)
 157:C:/Workspace/DAVE-4.4.2-64Bit/optiga-trust-m/externals/mbedtls/library\md.c ****         case MBEDTLS_MD_SHA1:
 158:C:/Workspace/DAVE-4.4.2-64Bit/optiga-trust-m/externals/mbedtls/library\md.c ****             return( &mbedtls_sha1_info );
 159:C:/Workspace/DAVE-4.4.2-64Bit/optiga-trust-m/externals/mbedtls/library\md.c **** #endif
 160:C:/Workspace/DAVE-4.4.2-64Bit/optiga-trust-m/externals/mbedtls/library\md.c **** #if defined(MBEDTLS_SHA256_C)
 161:C:/Workspace/DAVE-4.4.2-64Bit/optiga-trust-m/externals/mbedtls/library\md.c ****         case MBEDTLS_MD_SHA224:
 162:C:/Workspace/DAVE-4.4.2-64Bit/optiga-trust-m/externals/mbedtls/library\md.c ****             return( &mbedtls_sha224_info );
 110              	 .loc 1 162 0
 111 0000 054A     	 ldr r2,.L18
 138:C:/Workspace/DAVE-4.4.2-64Bit/optiga-trust-m/externals/mbedtls/library\md.c ****     switch( md_type )
 112              	 .loc 1 138 0
 113 0002 0528     	 cmp r0,#5
 114 0004 05D0     	 beq .L15
 163:C:/Workspace/DAVE-4.4.2-64Bit/optiga-trust-m/externals/mbedtls/library\md.c ****         case MBEDTLS_MD_SHA256:
 164:C:/Workspace/DAVE-4.4.2-64Bit/optiga-trust-m/externals/mbedtls/library\md.c ****             return( &mbedtls_sha256_info );
 165:C:/Workspace/DAVE-4.4.2-64Bit/optiga-trust-m/externals/mbedtls/library\md.c **** #endif
 166:C:/Workspace/DAVE-4.4.2-64Bit/optiga-trust-m/externals/mbedtls/library\md.c **** #if defined(MBEDTLS_SHA512_C)
 167:C:/Workspace/DAVE-4.4.2-64Bit/optiga-trust-m/externals/mbedtls/library\md.c ****         case MBEDTLS_MD_SHA384:
 168:C:/Workspace/DAVE-4.4.2-64Bit/optiga-trust-m/externals/mbedtls/library\md.c ****             return( &mbedtls_sha384_info );
 169:C:/Workspace/DAVE-4.4.2-64Bit/optiga-trust-m/externals/mbedtls/library\md.c ****         case MBEDTLS_MD_SHA512:
 170:C:/Workspace/DAVE-4.4.2-64Bit/optiga-trust-m/externals/mbedtls/library\md.c ****             return( &mbedtls_sha512_info );
 171:C:/Workspace/DAVE-4.4.2-64Bit/optiga-trust-m/externals/mbedtls/library\md.c **** #endif
 172:C:/Workspace/DAVE-4.4.2-64Bit/optiga-trust-m/externals/mbedtls/library\md.c ****         default:
 173:C:/Workspace/DAVE-4.4.2-64Bit/optiga-trust-m/externals/mbedtls/library\md.c ****             return( NULL );
 115              	 .loc 1 173 0
 116 0006 831F     	 sub r3,r0,#6
 117 0008 5842     	 neg r0,r3
 118 000a 4341     	 adc r3,r3,r0
 119              	.LVL6:
 164:C:/Workspace/DAVE-4.4.2-64Bit/optiga-trust-m/externals/mbedtls/library\md.c **** #endif
 120              	 .loc 1 164 0
 121 000c 034A     	 ldr r2,.L18+4
 122              	 .loc 1 173 0
 123 000e 5B42     	 neg r3,r3
 124 0010 1A40     	 and r2,r3
 125              	.L15:
 174:C:/Workspace/DAVE-4.4.2-64Bit/optiga-trust-m/externals/mbedtls/library\md.c ****     }
 175:C:/Workspace/DAVE-4.4.2-64Bit/optiga-trust-m/externals/mbedtls/library\md.c **** }
 126              	 .loc 1 175 0
 127 0012 101C     	 mov r0,r2
 128              	 
 129 0014 7047     	 bx lr
 130              	.L19:
 131 0016 C046     	 .align 2
 132              	.L18:
 133 0018 00000000 	 .word mbedtls_sha224_info
 134 001c 00000000 	 .word mbedtls_sha256_info
 135              	 .cfi_endproc
 136              	.LFE2:
 138              	 .section .text.mbedtls_md_init,"ax",%progbits
 139              	 .align 1
 140              	 .global mbedtls_md_init
 141              	 .code 16
 142              	 .thumb_func
 144              	mbedtls_md_init:
 145              	.LFB3:
 176:C:/Workspace/DAVE-4.4.2-64Bit/optiga-trust-m/externals/mbedtls/library\md.c **** 
 177:C:/Workspace/DAVE-4.4.2-64Bit/optiga-trust-m/externals/mbedtls/library\md.c **** void mbedtls_md_init( mbedtls_md_context_t *ctx )
 178:C:/Workspace/DAVE-4.4.2-64Bit/optiga-trust-m/externals/mbedtls/library\md.c **** {
 146              	 .loc 1 178 0
 147              	 .cfi_startproc
 148              	.LVL7:
 149 0000 08B5     	 push {r3,lr}
 150              	.LCFI1:
 151              	 .cfi_def_cfa_offset 8
 152              	 .cfi_offset 3,-8
 153              	 .cfi_offset 14,-4
 179:C:/Workspace/DAVE-4.4.2-64Bit/optiga-trust-m/externals/mbedtls/library\md.c ****     memset( ctx, 0, sizeof( mbedtls_md_context_t ) );
 154              	 .loc 1 179 0
 155 0002 0021     	 mov r1,#0
 156 0004 0C22     	 mov r2,#12
 157 0006 FFF7FEFF 	 bl memset
 158              	.LVL8:
 180:C:/Workspace/DAVE-4.4.2-64Bit/optiga-trust-m/externals/mbedtls/library\md.c **** }
 159              	 .loc 1 180 0
 160              	 
 161 000a 08BD     	 pop {r3,pc}
 162              	 .cfi_endproc
 163              	.LFE3:
 165              	 .section .text.mbedtls_md_free,"ax",%progbits
 166              	 .align 1
 167              	 .global mbedtls_md_free
 168              	 .code 16
 169              	 .thumb_func
 171              	mbedtls_md_free:
 172              	.LFB4:
 181:C:/Workspace/DAVE-4.4.2-64Bit/optiga-trust-m/externals/mbedtls/library\md.c **** 
 182:C:/Workspace/DAVE-4.4.2-64Bit/optiga-trust-m/externals/mbedtls/library\md.c **** void mbedtls_md_free( mbedtls_md_context_t *ctx )
 183:C:/Workspace/DAVE-4.4.2-64Bit/optiga-trust-m/externals/mbedtls/library\md.c **** {
 173              	 .loc 1 183 0
 174              	 .cfi_startproc
 175              	.LVL9:
 176 0000 10B5     	 push {r4,lr}
 177              	.LCFI2:
 178              	 .cfi_def_cfa_offset 8
 179              	 .cfi_offset 4,-8
 180              	 .cfi_offset 14,-4
 184:C:/Workspace/DAVE-4.4.2-64Bit/optiga-trust-m/externals/mbedtls/library\md.c ****     if( ctx == NULL || ctx->md_info == NULL )
 181              	 .loc 1 184 0
 182 0002 0028     	 cmp r0,#0
 183 0004 17D0     	 beq .L21
 184              	 .loc 1 184 0 is_stmt 0 discriminator 1
 185 0006 0368     	 ldr r3,[r0]
 186 0008 002B     	 cmp r3,#0
 187 000a 14D0     	 beq .L21
 188 000c 041C     	 mov r4,r0
 185:C:/Workspace/DAVE-4.4.2-64Bit/optiga-trust-m/externals/mbedtls/library\md.c ****         return;
 186:C:/Workspace/DAVE-4.4.2-64Bit/optiga-trust-m/externals/mbedtls/library\md.c **** 
 187:C:/Workspace/DAVE-4.4.2-64Bit/optiga-trust-m/externals/mbedtls/library\md.c ****     if( ctx->md_ctx != NULL )
 189              	 .loc 1 187 0 is_stmt 1
 190 000e 4068     	 ldr r0,[r0,#4]
 191              	.LVL10:
 192 0010 0028     	 cmp r0,#0
 193 0012 01D0     	 beq .L23
 188:C:/Workspace/DAVE-4.4.2-64Bit/optiga-trust-m/externals/mbedtls/library\md.c ****         ctx->md_info->ctx_free_func( ctx->md_ctx );
 194              	 .loc 1 188 0
 195 0014 5B6A     	 ldr r3,[r3,#36]
 196 0016 9847     	 blx r3
 197              	.LVL11:
 198              	.L23:
 189:C:/Workspace/DAVE-4.4.2-64Bit/optiga-trust-m/externals/mbedtls/library\md.c **** 
 190:C:/Workspace/DAVE-4.4.2-64Bit/optiga-trust-m/externals/mbedtls/library\md.c ****     if( ctx->hmac_ctx != NULL )
 199              	 .loc 1 190 0
 200 0018 A068     	 ldr r0,[r4,#8]
 201 001a 0028     	 cmp r0,#0
 202 001c 07D0     	 beq .L24
 191:C:/Workspace/DAVE-4.4.2-64Bit/optiga-trust-m/externals/mbedtls/library\md.c ****     {
 192:C:/Workspace/DAVE-4.4.2-64Bit/optiga-trust-m/externals/mbedtls/library\md.c ****         mbedtls_platform_zeroize( ctx->hmac_ctx,
 193:C:/Workspace/DAVE-4.4.2-64Bit/optiga-trust-m/externals/mbedtls/library\md.c ****                                   2 * ctx->md_info->block_size );
 203              	 .loc 1 193 0
 204 001e 2368     	 ldr r3,[r4]
 205 0020 D968     	 ldr r1,[r3,#12]
 206 0022 4900     	 lsl r1,r1,#1
 192:C:/Workspace/DAVE-4.4.2-64Bit/optiga-trust-m/externals/mbedtls/library\md.c ****                                   2 * ctx->md_info->block_size );
 207              	 .loc 1 192 0
 208 0024 FFF7FEFF 	 bl mbedtls_platform_zeroize
 209              	.LVL12:
 194:C:/Workspace/DAVE-4.4.2-64Bit/optiga-trust-m/externals/mbedtls/library\md.c ****         mbedtls_free( ctx->hmac_ctx );
 210              	 .loc 1 194 0
 211 0028 A068     	 ldr r0,[r4,#8]
 212 002a FFF7FEFF 	 bl free
 213              	.LVL13:
 214              	.L24:
 195:C:/Workspace/DAVE-4.4.2-64Bit/optiga-trust-m/externals/mbedtls/library\md.c ****     }
 196:C:/Workspace/DAVE-4.4.2-64Bit/optiga-trust-m/externals/mbedtls/library\md.c **** 
 197:C:/Workspace/DAVE-4.4.2-64Bit/optiga-trust-m/externals/mbedtls/library\md.c ****     mbedtls_platform_zeroize( ctx, sizeof( mbedtls_md_context_t ) );
 215              	 .loc 1 197 0
 216 002e 201C     	 mov r0,r4
 217 0030 0C21     	 mov r1,#12
 218 0032 FFF7FEFF 	 bl mbedtls_platform_zeroize
 219              	.LVL14:
 220              	.L21:
 198:C:/Workspace/DAVE-4.4.2-64Bit/optiga-trust-m/externals/mbedtls/library\md.c **** }
 221              	 .loc 1 198 0
 222              	 
 223 0036 10BD     	 pop {r4,pc}
 224              	 .cfi_endproc
 225              	.LFE4:
 227              	 .section .text.mbedtls_md_clone,"ax",%progbits
 228              	 .align 1
 229              	 .global mbedtls_md_clone
 230              	 .code 16
 231              	 .thumb_func
 233              	mbedtls_md_clone:
 234              	.LFB5:
 199:C:/Workspace/DAVE-4.4.2-64Bit/optiga-trust-m/externals/mbedtls/library\md.c **** 
 200:C:/Workspace/DAVE-4.4.2-64Bit/optiga-trust-m/externals/mbedtls/library\md.c **** int mbedtls_md_clone( mbedtls_md_context_t *dst,
 201:C:/Workspace/DAVE-4.4.2-64Bit/optiga-trust-m/externals/mbedtls/library\md.c ****                       const mbedtls_md_context_t *src )
 202:C:/Workspace/DAVE-4.4.2-64Bit/optiga-trust-m/externals/mbedtls/library\md.c **** {
 235              	 .loc 1 202 0
 236              	 .cfi_startproc
 237              	.LVL15:
 238 0000 08B5     	 push {r3,lr}
 239              	.LCFI3:
 240              	 .cfi_def_cfa_offset 8
 241              	 .cfi_offset 3,-8
 242              	 .cfi_offset 14,-4
 203:C:/Workspace/DAVE-4.4.2-64Bit/optiga-trust-m/externals/mbedtls/library\md.c ****     if( dst == NULL || dst->md_info == NULL ||
 243              	 .loc 1 203 0
 244 0002 0028     	 cmp r0,#0
 245 0004 0FD0     	 beq .L43
 246              	 .loc 1 203 0 is_stmt 0 discriminator 1
 247 0006 0368     	 ldr r3,[r0]
 248 0008 002B     	 cmp r3,#0
 249 000a 0CD0     	 beq .L43
 250              	 .loc 1 203 0 discriminator 2
 251 000c 0029     	 cmp r1,#0
 252 000e 0AD0     	 beq .L43
 204:C:/Workspace/DAVE-4.4.2-64Bit/optiga-trust-m/externals/mbedtls/library\md.c ****         src == NULL || src->md_info == NULL ||
 253              	 .loc 1 204 0 is_stmt 1
 254 0010 0A68     	 ldr r2,[r1]
 255 0012 002A     	 cmp r2,#0
 256 0014 07D0     	 beq .L43
 257              	 .loc 1 204 0 is_stmt 0 discriminator 1
 258 0016 9342     	 cmp r3,r2
 259 0018 05D1     	 bne .L43
 205:C:/Workspace/DAVE-4.4.2-64Bit/optiga-trust-m/externals/mbedtls/library\md.c ****         dst->md_info != src->md_info )
 206:C:/Workspace/DAVE-4.4.2-64Bit/optiga-trust-m/externals/mbedtls/library\md.c ****     {
 207:C:/Workspace/DAVE-4.4.2-64Bit/optiga-trust-m/externals/mbedtls/library\md.c ****         return( MBEDTLS_ERR_MD_BAD_INPUT_DATA );
 208:C:/Workspace/DAVE-4.4.2-64Bit/optiga-trust-m/externals/mbedtls/library\md.c ****     }
 209:C:/Workspace/DAVE-4.4.2-64Bit/optiga-trust-m/externals/mbedtls/library\md.c **** 
 210:C:/Workspace/DAVE-4.4.2-64Bit/optiga-trust-m/externals/mbedtls/library\md.c ****     dst->md_info->clone_func( dst->md_ctx, src->md_ctx );
 260              	 .loc 1 210 0 is_stmt 1
 261 001a 4068     	 ldr r0,[r0,#4]
 262              	.LVL16:
 263 001c 9B6A     	 ldr r3,[r3,#40]
 264 001e 4968     	 ldr r1,[r1,#4]
 265              	.LVL17:
 266 0020 9847     	 blx r3
 267              	.LVL18:
 211:C:/Workspace/DAVE-4.4.2-64Bit/optiga-trust-m/externals/mbedtls/library\md.c **** 
 212:C:/Workspace/DAVE-4.4.2-64Bit/optiga-trust-m/externals/mbedtls/library\md.c ****     return( 0 );
 268              	 .loc 1 212 0
 269 0022 0020     	 mov r0,#0
 270 0024 00E0     	 b .L38
 271              	.LVL19:
 272              	.L43:
 207:C:/Workspace/DAVE-4.4.2-64Bit/optiga-trust-m/externals/mbedtls/library\md.c ****     }
 273              	 .loc 1 207 0
 274 0026 0148     	 ldr r0,.L44
 275              	.LVL20:
 276              	.L38:
 213:C:/Workspace/DAVE-4.4.2-64Bit/optiga-trust-m/externals/mbedtls/library\md.c **** }
 277              	 .loc 1 213 0
 278              	 
 279 0028 08BD     	 pop {r3,pc}
 280              	.L45:
 281 002a C046     	 .align 2
 282              	.L44:
 283 002c 00AFFFFF 	 .word -20736
 284              	 .cfi_endproc
 285              	.LFE5:
 287              	 .section .text.mbedtls_md_setup,"ax",%progbits
 288              	 .align 1
 289              	 .global mbedtls_md_setup
 290              	 .code 16
 291              	 .thumb_func
 293              	mbedtls_md_setup:
 294              	.LFB7:
 214:C:/Workspace/DAVE-4.4.2-64Bit/optiga-trust-m/externals/mbedtls/library\md.c **** 
 215:C:/Workspace/DAVE-4.4.2-64Bit/optiga-trust-m/externals/mbedtls/library\md.c **** #if ! defined(MBEDTLS_DEPRECATED_REMOVED)
 216:C:/Workspace/DAVE-4.4.2-64Bit/optiga-trust-m/externals/mbedtls/library\md.c **** int mbedtls_md_init_ctx( mbedtls_md_context_t *ctx, const mbedtls_md_info_t *md_info )
 217:C:/Workspace/DAVE-4.4.2-64Bit/optiga-trust-m/externals/mbedtls/library\md.c **** {
 218:C:/Workspace/DAVE-4.4.2-64Bit/optiga-trust-m/externals/mbedtls/library\md.c ****     return mbedtls_md_setup( ctx, md_info, 1 );
 219:C:/Workspace/DAVE-4.4.2-64Bit/optiga-trust-m/externals/mbedtls/library\md.c **** }
 220:C:/Workspace/DAVE-4.4.2-64Bit/optiga-trust-m/externals/mbedtls/library\md.c **** #endif
 221:C:/Workspace/DAVE-4.4.2-64Bit/optiga-trust-m/externals/mbedtls/library\md.c **** 
 222:C:/Workspace/DAVE-4.4.2-64Bit/optiga-trust-m/externals/mbedtls/library\md.c **** int mbedtls_md_setup( mbedtls_md_context_t *ctx, const mbedtls_md_info_t *md_info, int hmac )
 223:C:/Workspace/DAVE-4.4.2-64Bit/optiga-trust-m/externals/mbedtls/library\md.c **** {
 295              	 .loc 1 223 0
 296              	 .cfi_startproc
 297              	.LVL21:
 298 0000 F8B5     	 push {r3,r4,r5,r6,r7,lr}
 299              	.LCFI4:
 300              	 .cfi_def_cfa_offset 24
 301              	 .cfi_offset 3,-24
 302              	 .cfi_offset 4,-20
 303              	 .cfi_offset 5,-16
 304              	 .cfi_offset 6,-12
 305              	 .cfi_offset 7,-8
 306              	 .cfi_offset 14,-4
 224:C:/Workspace/DAVE-4.4.2-64Bit/optiga-trust-m/externals/mbedtls/library\md.c ****     if( md_info == NULL || ctx == NULL )
 307              	 .loc 1 224 0
 308 0002 0029     	 cmp r1,#0
 309 0004 19D0     	 beq .L50
 310              	 .loc 1 224 0 is_stmt 0 discriminator 1
 311 0006 0028     	 cmp r0,#0
 312 0008 17D0     	 beq .L50
 225:C:/Workspace/DAVE-4.4.2-64Bit/optiga-trust-m/externals/mbedtls/library\md.c ****         return( MBEDTLS_ERR_MD_BAD_INPUT_DATA );
 226:C:/Workspace/DAVE-4.4.2-64Bit/optiga-trust-m/externals/mbedtls/library\md.c **** 
 227:C:/Workspace/DAVE-4.4.2-64Bit/optiga-trust-m/externals/mbedtls/library\md.c ****     if( ( ctx->md_ctx = md_info->ctx_alloc_func() ) == NULL )
 313              	 .loc 1 227 0 is_stmt 1
 314 000a 0B6A     	 ldr r3,[r1,#32]
 315 000c 051C     	 mov r5,r0
 316 000e 171C     	 mov r7,r2
 317 0010 0C1C     	 mov r4,r1
 318 0012 9847     	 blx r3
 319              	.LVL22:
 320 0014 061E     	 sub r6,r0,#0
 321 0016 6860     	 str r0,[r5,#4]
 322 0018 11D0     	 beq .L51
 228:C:/Workspace/DAVE-4.4.2-64Bit/optiga-trust-m/externals/mbedtls/library\md.c ****         return( MBEDTLS_ERR_MD_ALLOC_FAILED );
 229:C:/Workspace/DAVE-4.4.2-64Bit/optiga-trust-m/externals/mbedtls/library\md.c **** 
 230:C:/Workspace/DAVE-4.4.2-64Bit/optiga-trust-m/externals/mbedtls/library\md.c ****     if( hmac != 0 )
 323              	 .loc 1 230 0
 324 001a 002F     	 cmp r7,#0
 325 001c 0AD0     	 beq .L48
 231:C:/Workspace/DAVE-4.4.2-64Bit/optiga-trust-m/externals/mbedtls/library\md.c ****     {
 232:C:/Workspace/DAVE-4.4.2-64Bit/optiga-trust-m/externals/mbedtls/library\md.c ****         ctx->hmac_ctx = mbedtls_calloc( 2, md_info->block_size );
 326              	 .loc 1 232 0
 327 001e 0220     	 mov r0,#2
 328 0020 E168     	 ldr r1,[r4,#12]
 329 0022 FFF7FEFF 	 bl calloc
 330              	.LVL23:
 331 0026 A860     	 str r0,[r5,#8]
 233:C:/Workspace/DAVE-4.4.2-64Bit/optiga-trust-m/externals/mbedtls/library\md.c ****         if( ctx->hmac_ctx == NULL )
 332              	 .loc 1 233 0
 333 0028 0028     	 cmp r0,#0
 334 002a 03D1     	 bne .L48
 234:C:/Workspace/DAVE-4.4.2-64Bit/optiga-trust-m/externals/mbedtls/library\md.c ****         {
 235:C:/Workspace/DAVE-4.4.2-64Bit/optiga-trust-m/externals/mbedtls/library\md.c ****             md_info->ctx_free_func( ctx->md_ctx );
 335              	 .loc 1 235 0
 336 002c 636A     	 ldr r3,[r4,#36]
 337 002e 301C     	 mov r0,r6
 338 0030 9847     	 blx r3
 339              	.LVL24:
 340 0032 04E0     	 b .L51
 341              	.L48:
 236:C:/Workspace/DAVE-4.4.2-64Bit/optiga-trust-m/externals/mbedtls/library\md.c ****             return( MBEDTLS_ERR_MD_ALLOC_FAILED );
 237:C:/Workspace/DAVE-4.4.2-64Bit/optiga-trust-m/externals/mbedtls/library\md.c ****         }
 238:C:/Workspace/DAVE-4.4.2-64Bit/optiga-trust-m/externals/mbedtls/library\md.c ****     }
 239:C:/Workspace/DAVE-4.4.2-64Bit/optiga-trust-m/externals/mbedtls/library\md.c **** 
 240:C:/Workspace/DAVE-4.4.2-64Bit/optiga-trust-m/externals/mbedtls/library\md.c ****     ctx->md_info = md_info;
 342              	 .loc 1 240 0
 343 0034 2C60     	 str r4,[r5]
 241:C:/Workspace/DAVE-4.4.2-64Bit/optiga-trust-m/externals/mbedtls/library\md.c **** 
 242:C:/Workspace/DAVE-4.4.2-64Bit/optiga-trust-m/externals/mbedtls/library\md.c ****     return( 0 );
 344              	 .loc 1 242 0
 345 0036 0020     	 mov r0,#0
 346 0038 02E0     	 b .L47
 347              	.LVL25:
 348              	.L50:
 225:C:/Workspace/DAVE-4.4.2-64Bit/optiga-trust-m/externals/mbedtls/library\md.c **** 
 349              	 .loc 1 225 0
 350 003a 0248     	 ldr r0,.L55
 351              	.LVL26:
 352 003c 00E0     	 b .L47
 353              	.LVL27:
 354              	.L51:
 228:C:/Workspace/DAVE-4.4.2-64Bit/optiga-trust-m/externals/mbedtls/library\md.c **** 
 355              	 .loc 1 228 0
 356 003e 0248     	 ldr r0,.L55+4
 357              	.LVL28:
 358              	.L47:
 243:C:/Workspace/DAVE-4.4.2-64Bit/optiga-trust-m/externals/mbedtls/library\md.c **** }
 359              	 .loc 1 243 0
 360              	 
 361 0040 F8BD     	 pop {r3,r4,r5,r6,r7,pc}
 362              	.L56:
 363 0042 C046     	 .align 2
 364              	.L55:
 365 0044 00AFFFFF 	 .word -20736
 366 0048 80AEFFFF 	 .word -20864
 367              	 .cfi_endproc
 368              	.LFE7:
 370              	 .section .text.mbedtls_md_init_ctx,"ax",%progbits
 371              	 .align 1
 372              	 .global mbedtls_md_init_ctx
 373              	 .code 16
 374              	 .thumb_func
 376              	mbedtls_md_init_ctx:
 377              	.LFB6:
 217:C:/Workspace/DAVE-4.4.2-64Bit/optiga-trust-m/externals/mbedtls/library\md.c ****     return mbedtls_md_setup( ctx, md_info, 1 );
 378              	 .loc 1 217 0
 379              	 .cfi_startproc
 380              	.LVL29:
 381 0000 08B5     	 push {r3,lr}
 382              	.LCFI5:
 383              	 .cfi_def_cfa_offset 8
 384              	 .cfi_offset 3,-8
 385              	 .cfi_offset 14,-4
 218:C:/Workspace/DAVE-4.4.2-64Bit/optiga-trust-m/externals/mbedtls/library\md.c **** }
 386              	 .loc 1 218 0
 387 0002 0122     	 mov r2,#1
 388 0004 FFF7FEFF 	 bl mbedtls_md_setup
 389              	.LVL30:
 219:C:/Workspace/DAVE-4.4.2-64Bit/optiga-trust-m/externals/mbedtls/library\md.c **** #endif
 390              	 .loc 1 219 0
 391              	 
 392 0008 08BD     	 pop {r3,pc}
 393              	 .cfi_endproc
 394              	.LFE6:
 396              	 .section .text.mbedtls_md_starts,"ax",%progbits
 397              	 .align 1
 398              	 .global mbedtls_md_starts
 399              	 .code 16
 400              	 .thumb_func
 402              	mbedtls_md_starts:
 403              	.LFB8:
 244:C:/Workspace/DAVE-4.4.2-64Bit/optiga-trust-m/externals/mbedtls/library\md.c **** 
 245:C:/Workspace/DAVE-4.4.2-64Bit/optiga-trust-m/externals/mbedtls/library\md.c **** int mbedtls_md_starts( mbedtls_md_context_t *ctx )
 246:C:/Workspace/DAVE-4.4.2-64Bit/optiga-trust-m/externals/mbedtls/library\md.c **** {
 404              	 .loc 1 246 0
 405              	 .cfi_startproc
 406              	.LVL31:
 407 0000 08B5     	 push {r3,lr}
 408              	.LCFI6:
 409              	 .cfi_def_cfa_offset 8
 410              	 .cfi_offset 3,-8
 411              	 .cfi_offset 14,-4
 247:C:/Workspace/DAVE-4.4.2-64Bit/optiga-trust-m/externals/mbedtls/library\md.c ****     if( ctx == NULL || ctx->md_info == NULL )
 412              	 .loc 1 247 0
 413 0002 0028     	 cmp r0,#0
 414 0004 06D0     	 beq .L61
 415              	 .loc 1 247 0 is_stmt 0 discriminator 1
 416 0006 0368     	 ldr r3,[r0]
 417 0008 002B     	 cmp r3,#0
 418 000a 03D0     	 beq .L61
 248:C:/Workspace/DAVE-4.4.2-64Bit/optiga-trust-m/externals/mbedtls/library\md.c ****         return( MBEDTLS_ERR_MD_BAD_INPUT_DATA );
 249:C:/Workspace/DAVE-4.4.2-64Bit/optiga-trust-m/externals/mbedtls/library\md.c **** 
 250:C:/Workspace/DAVE-4.4.2-64Bit/optiga-trust-m/externals/mbedtls/library\md.c ****     return( ctx->md_info->starts_func( ctx->md_ctx ) );
 419              	 .loc 1 250 0 is_stmt 1
 420 000c 1B69     	 ldr r3,[r3,#16]
 421 000e 4068     	 ldr r0,[r0,#4]
 422              	.LVL32:
 423 0010 9847     	 blx r3
 424              	.LVL33:
 425 0012 00E0     	 b .L59
 426              	.LVL34:
 427              	.L61:
 248:C:/Workspace/DAVE-4.4.2-64Bit/optiga-trust-m/externals/mbedtls/library\md.c ****         return( MBEDTLS_ERR_MD_BAD_INPUT_DATA );
 428              	 .loc 1 248 0
 429 0014 0048     	 ldr r0,.L62
 430              	.LVL35:
 431              	.L59:
 251:C:/Workspace/DAVE-4.4.2-64Bit/optiga-trust-m/externals/mbedtls/library\md.c **** }
 432              	 .loc 1 251 0
 433              	 
 434 0016 08BD     	 pop {r3,pc}
 435              	.L63:
 436              	 .align 2
 437              	.L62:
 438 0018 00AFFFFF 	 .word -20736
 439              	 .cfi_endproc
 440              	.LFE8:
 442              	 .section .text.mbedtls_md_update,"ax",%progbits
 443              	 .align 1
 444              	 .global mbedtls_md_update
 445              	 .code 16
 446              	 .thumb_func
 448              	mbedtls_md_update:
 449              	.LFB9:
 252:C:/Workspace/DAVE-4.4.2-64Bit/optiga-trust-m/externals/mbedtls/library\md.c **** 
 253:C:/Workspace/DAVE-4.4.2-64Bit/optiga-trust-m/externals/mbedtls/library\md.c **** int mbedtls_md_update( mbedtls_md_context_t *ctx, const unsigned char *input, size_t ilen )
 254:C:/Workspace/DAVE-4.4.2-64Bit/optiga-trust-m/externals/mbedtls/library\md.c **** {
 450              	 .loc 1 254 0
 451              	 .cfi_startproc
 452              	.LVL36:
 453 0000 08B5     	 push {r3,lr}
 454              	.LCFI7:
 455              	 .cfi_def_cfa_offset 8
 456              	 .cfi_offset 3,-8
 457              	 .cfi_offset 14,-4
 255:C:/Workspace/DAVE-4.4.2-64Bit/optiga-trust-m/externals/mbedtls/library\md.c ****     if( ctx == NULL || ctx->md_info == NULL )
 458              	 .loc 1 255 0
 459 0002 0028     	 cmp r0,#0
 460 0004 06D0     	 beq .L67
 461              	 .loc 1 255 0 is_stmt 0 discriminator 1
 462 0006 0368     	 ldr r3,[r0]
 463 0008 002B     	 cmp r3,#0
 464 000a 03D0     	 beq .L67
 256:C:/Workspace/DAVE-4.4.2-64Bit/optiga-trust-m/externals/mbedtls/library\md.c ****         return( MBEDTLS_ERR_MD_BAD_INPUT_DATA );
 257:C:/Workspace/DAVE-4.4.2-64Bit/optiga-trust-m/externals/mbedtls/library\md.c **** 
 258:C:/Workspace/DAVE-4.4.2-64Bit/optiga-trust-m/externals/mbedtls/library\md.c ****     return( ctx->md_info->update_func( ctx->md_ctx, input, ilen ) );
 465              	 .loc 1 258 0 is_stmt 1
 466 000c 5B69     	 ldr r3,[r3,#20]
 467 000e 4068     	 ldr r0,[r0,#4]
 468              	.LVL37:
 469 0010 9847     	 blx r3
 470              	.LVL38:
 471 0012 00E0     	 b .L65
 472              	.LVL39:
 473              	.L67:
 256:C:/Workspace/DAVE-4.4.2-64Bit/optiga-trust-m/externals/mbedtls/library\md.c ****         return( MBEDTLS_ERR_MD_BAD_INPUT_DATA );
 474              	 .loc 1 256 0
 475 0014 0048     	 ldr r0,.L68
 476              	.LVL40:
 477              	.L65:
 259:C:/Workspace/DAVE-4.4.2-64Bit/optiga-trust-m/externals/mbedtls/library\md.c **** }
 478              	 .loc 1 259 0
 479              	 
 480 0016 08BD     	 pop {r3,pc}
 481              	.L69:
 482              	 .align 2
 483              	.L68:
 484 0018 00AFFFFF 	 .word -20736
 485              	 .cfi_endproc
 486              	.LFE9:
 488              	 .section .text.mbedtls_md_finish,"ax",%progbits
 489              	 .align 1
 490              	 .global mbedtls_md_finish
 491              	 .code 16
 492              	 .thumb_func
 494              	mbedtls_md_finish:
 495              	.LFB10:
 260:C:/Workspace/DAVE-4.4.2-64Bit/optiga-trust-m/externals/mbedtls/library\md.c **** 
 261:C:/Workspace/DAVE-4.4.2-64Bit/optiga-trust-m/externals/mbedtls/library\md.c **** int mbedtls_md_finish( mbedtls_md_context_t *ctx, unsigned char *output )
 262:C:/Workspace/DAVE-4.4.2-64Bit/optiga-trust-m/externals/mbedtls/library\md.c **** {
 496              	 .loc 1 262 0
 497              	 .cfi_startproc
 498              	.LVL41:
 499 0000 08B5     	 push {r3,lr}
 500              	.LCFI8:
 501              	 .cfi_def_cfa_offset 8
 502              	 .cfi_offset 3,-8
 503              	 .cfi_offset 14,-4
 263:C:/Workspace/DAVE-4.4.2-64Bit/optiga-trust-m/externals/mbedtls/library\md.c ****     if( ctx == NULL || ctx->md_info == NULL )
 504              	 .loc 1 263 0
 505 0002 0028     	 cmp r0,#0
 506 0004 06D0     	 beq .L73
 507              	 .loc 1 263 0 is_stmt 0 discriminator 1
 508 0006 0368     	 ldr r3,[r0]
 509 0008 002B     	 cmp r3,#0
 510 000a 03D0     	 beq .L73
 264:C:/Workspace/DAVE-4.4.2-64Bit/optiga-trust-m/externals/mbedtls/library\md.c ****         return( MBEDTLS_ERR_MD_BAD_INPUT_DATA );
 265:C:/Workspace/DAVE-4.4.2-64Bit/optiga-trust-m/externals/mbedtls/library\md.c **** 
 266:C:/Workspace/DAVE-4.4.2-64Bit/optiga-trust-m/externals/mbedtls/library\md.c ****     return( ctx->md_info->finish_func( ctx->md_ctx, output ) );
 511              	 .loc 1 266 0 is_stmt 1
 512 000c 9B69     	 ldr r3,[r3,#24]
 513 000e 4068     	 ldr r0,[r0,#4]
 514              	.LVL42:
 515 0010 9847     	 blx r3
 516              	.LVL43:
 517 0012 00E0     	 b .L71
 518              	.LVL44:
 519              	.L73:
 264:C:/Workspace/DAVE-4.4.2-64Bit/optiga-trust-m/externals/mbedtls/library\md.c ****         return( MBEDTLS_ERR_MD_BAD_INPUT_DATA );
 520              	 .loc 1 264 0
 521 0014 0048     	 ldr r0,.L74
 522              	.LVL45:
 523              	.L71:
 267:C:/Workspace/DAVE-4.4.2-64Bit/optiga-trust-m/externals/mbedtls/library\md.c **** }
 524              	 .loc 1 267 0
 525              	 
 526 0016 08BD     	 pop {r3,pc}
 527              	.L75:
 528              	 .align 2
 529              	.L74:
 530 0018 00AFFFFF 	 .word -20736
 531              	 .cfi_endproc
 532              	.LFE10:
 534              	 .section .text.mbedtls_md,"ax",%progbits
 535              	 .align 1
 536              	 .global mbedtls_md
 537              	 .code 16
 538              	 .thumb_func
 540              	mbedtls_md:
 541              	.LFB11:
 268:C:/Workspace/DAVE-4.4.2-64Bit/optiga-trust-m/externals/mbedtls/library\md.c **** 
 269:C:/Workspace/DAVE-4.4.2-64Bit/optiga-trust-m/externals/mbedtls/library\md.c **** int mbedtls_md( const mbedtls_md_info_t *md_info, const unsigned char *input, size_t ilen,
 270:C:/Workspace/DAVE-4.4.2-64Bit/optiga-trust-m/externals/mbedtls/library\md.c ****             unsigned char *output )
 271:C:/Workspace/DAVE-4.4.2-64Bit/optiga-trust-m/externals/mbedtls/library\md.c **** {
 542              	 .loc 1 271 0
 543              	 .cfi_startproc
 544              	.LVL46:
 545 0000 10B5     	 push {r4,lr}
 546              	.LCFI9:
 547              	 .cfi_def_cfa_offset 8
 548              	 .cfi_offset 4,-8
 549              	 .cfi_offset 14,-4
 550              	 .loc 1 271 0
 551 0002 041E     	 sub r4,r0,#0
 272:C:/Workspace/DAVE-4.4.2-64Bit/optiga-trust-m/externals/mbedtls/library\md.c ****     if( md_info == NULL )
 552              	 .loc 1 272 0
 553 0004 05D0     	 beq .L78
 554 0006 081C     	 mov r0,r1
 555              	.LVL47:
 273:C:/Workspace/DAVE-4.4.2-64Bit/optiga-trust-m/externals/mbedtls/library\md.c ****         return( MBEDTLS_ERR_MD_BAD_INPUT_DATA );
 274:C:/Workspace/DAVE-4.4.2-64Bit/optiga-trust-m/externals/mbedtls/library\md.c **** 
 275:C:/Workspace/DAVE-4.4.2-64Bit/optiga-trust-m/externals/mbedtls/library\md.c ****     return( md_info->digest_func( input, ilen, output ) );
 556              	 .loc 1 275 0
 557 0008 E469     	 ldr r4,[r4,#28]
 558              	.LVL48:
 559 000a 111C     	 mov r1,r2
 560              	.LVL49:
 561 000c 1A1C     	 mov r2,r3
 562              	.LVL50:
 563 000e A047     	 blx r4
 564              	.LVL51:
 565 0010 00E0     	 b .L77
 566              	.LVL52:
 567              	.L78:
 273:C:/Workspace/DAVE-4.4.2-64Bit/optiga-trust-m/externals/mbedtls/library\md.c ****         return( MBEDTLS_ERR_MD_BAD_INPUT_DATA );
 568              	 .loc 1 273 0
 569 0012 0148     	 ldr r0,.L79
 570              	.LVL53:
 571              	.L77:
 276:C:/Workspace/DAVE-4.4.2-64Bit/optiga-trust-m/externals/mbedtls/library\md.c **** }
 572              	 .loc 1 276 0
 573              	 
 574 0014 10BD     	 pop {r4,pc}
 575              	.L80:
 576 0016 C046     	 .align 2
 577              	.L79:
 578 0018 00AFFFFF 	 .word -20736
 579              	 .cfi_endproc
 580              	.LFE11:
 582              	 .section .text.mbedtls_md_hmac_starts,"ax",%progbits
 583              	 .align 1
 584              	 .global mbedtls_md_hmac_starts
 585              	 .code 16
 586              	 .thumb_func
 588              	mbedtls_md_hmac_starts:
 589              	.LFB12:
 277:C:/Workspace/DAVE-4.4.2-64Bit/optiga-trust-m/externals/mbedtls/library\md.c **** 
 278:C:/Workspace/DAVE-4.4.2-64Bit/optiga-trust-m/externals/mbedtls/library\md.c **** #if defined(MBEDTLS_FS_IO)
 279:C:/Workspace/DAVE-4.4.2-64Bit/optiga-trust-m/externals/mbedtls/library\md.c **** int mbedtls_md_file( const mbedtls_md_info_t *md_info, const char *path, unsigned char *output )
 280:C:/Workspace/DAVE-4.4.2-64Bit/optiga-trust-m/externals/mbedtls/library\md.c **** {
 281:C:/Workspace/DAVE-4.4.2-64Bit/optiga-trust-m/externals/mbedtls/library\md.c ****     int ret;
 282:C:/Workspace/DAVE-4.4.2-64Bit/optiga-trust-m/externals/mbedtls/library\md.c ****     FILE *f;
 283:C:/Workspace/DAVE-4.4.2-64Bit/optiga-trust-m/externals/mbedtls/library\md.c ****     size_t n;
 284:C:/Workspace/DAVE-4.4.2-64Bit/optiga-trust-m/externals/mbedtls/library\md.c ****     mbedtls_md_context_t ctx;
 285:C:/Workspace/DAVE-4.4.2-64Bit/optiga-trust-m/externals/mbedtls/library\md.c ****     unsigned char buf[1024];
 286:C:/Workspace/DAVE-4.4.2-64Bit/optiga-trust-m/externals/mbedtls/library\md.c **** 
 287:C:/Workspace/DAVE-4.4.2-64Bit/optiga-trust-m/externals/mbedtls/library\md.c ****     if( md_info == NULL )
 288:C:/Workspace/DAVE-4.4.2-64Bit/optiga-trust-m/externals/mbedtls/library\md.c ****         return( MBEDTLS_ERR_MD_BAD_INPUT_DATA );
 289:C:/Workspace/DAVE-4.4.2-64Bit/optiga-trust-m/externals/mbedtls/library\md.c **** 
 290:C:/Workspace/DAVE-4.4.2-64Bit/optiga-trust-m/externals/mbedtls/library\md.c ****     if( ( f = fopen( path, "rb" ) ) == NULL )
 291:C:/Workspace/DAVE-4.4.2-64Bit/optiga-trust-m/externals/mbedtls/library\md.c ****         return( MBEDTLS_ERR_MD_FILE_IO_ERROR );
 292:C:/Workspace/DAVE-4.4.2-64Bit/optiga-trust-m/externals/mbedtls/library\md.c **** 
 293:C:/Workspace/DAVE-4.4.2-64Bit/optiga-trust-m/externals/mbedtls/library\md.c ****     mbedtls_md_init( &ctx );
 294:C:/Workspace/DAVE-4.4.2-64Bit/optiga-trust-m/externals/mbedtls/library\md.c **** 
 295:C:/Workspace/DAVE-4.4.2-64Bit/optiga-trust-m/externals/mbedtls/library\md.c ****     if( ( ret = mbedtls_md_setup( &ctx, md_info, 0 ) ) != 0 )
 296:C:/Workspace/DAVE-4.4.2-64Bit/optiga-trust-m/externals/mbedtls/library\md.c ****         goto cleanup;
 297:C:/Workspace/DAVE-4.4.2-64Bit/optiga-trust-m/externals/mbedtls/library\md.c **** 
 298:C:/Workspace/DAVE-4.4.2-64Bit/optiga-trust-m/externals/mbedtls/library\md.c ****     if( ( ret = md_info->starts_func( ctx.md_ctx ) ) != 0 )
 299:C:/Workspace/DAVE-4.4.2-64Bit/optiga-trust-m/externals/mbedtls/library\md.c ****         goto cleanup;
 300:C:/Workspace/DAVE-4.4.2-64Bit/optiga-trust-m/externals/mbedtls/library\md.c **** 
 301:C:/Workspace/DAVE-4.4.2-64Bit/optiga-trust-m/externals/mbedtls/library\md.c ****     while( ( n = fread( buf, 1, sizeof( buf ), f ) ) > 0 )
 302:C:/Workspace/DAVE-4.4.2-64Bit/optiga-trust-m/externals/mbedtls/library\md.c ****         if( ( ret = md_info->update_func( ctx.md_ctx, buf, n ) ) != 0 )
 303:C:/Workspace/DAVE-4.4.2-64Bit/optiga-trust-m/externals/mbedtls/library\md.c ****             goto cleanup;
 304:C:/Workspace/DAVE-4.4.2-64Bit/optiga-trust-m/externals/mbedtls/library\md.c **** 
 305:C:/Workspace/DAVE-4.4.2-64Bit/optiga-trust-m/externals/mbedtls/library\md.c ****     if( ferror( f ) != 0 )
 306:C:/Workspace/DAVE-4.4.2-64Bit/optiga-trust-m/externals/mbedtls/library\md.c ****         ret = MBEDTLS_ERR_MD_FILE_IO_ERROR;
 307:C:/Workspace/DAVE-4.4.2-64Bit/optiga-trust-m/externals/mbedtls/library\md.c ****     else
 308:C:/Workspace/DAVE-4.4.2-64Bit/optiga-trust-m/externals/mbedtls/library\md.c ****         ret = md_info->finish_func( ctx.md_ctx, output );
 309:C:/Workspace/DAVE-4.4.2-64Bit/optiga-trust-m/externals/mbedtls/library\md.c **** 
 310:C:/Workspace/DAVE-4.4.2-64Bit/optiga-trust-m/externals/mbedtls/library\md.c **** cleanup:
 311:C:/Workspace/DAVE-4.4.2-64Bit/optiga-trust-m/externals/mbedtls/library\md.c ****     mbedtls_platform_zeroize( buf, sizeof( buf ) );
 312:C:/Workspace/DAVE-4.4.2-64Bit/optiga-trust-m/externals/mbedtls/library\md.c ****     fclose( f );
 313:C:/Workspace/DAVE-4.4.2-64Bit/optiga-trust-m/externals/mbedtls/library\md.c ****     mbedtls_md_free( &ctx );
 314:C:/Workspace/DAVE-4.4.2-64Bit/optiga-trust-m/externals/mbedtls/library\md.c **** 
 315:C:/Workspace/DAVE-4.4.2-64Bit/optiga-trust-m/externals/mbedtls/library\md.c ****     return( ret );
 316:C:/Workspace/DAVE-4.4.2-64Bit/optiga-trust-m/externals/mbedtls/library\md.c **** }
 317:C:/Workspace/DAVE-4.4.2-64Bit/optiga-trust-m/externals/mbedtls/library\md.c **** #endif /* MBEDTLS_FS_IO */
 318:C:/Workspace/DAVE-4.4.2-64Bit/optiga-trust-m/externals/mbedtls/library\md.c **** 
 319:C:/Workspace/DAVE-4.4.2-64Bit/optiga-trust-m/externals/mbedtls/library\md.c **** int mbedtls_md_hmac_starts( mbedtls_md_context_t *ctx, const unsigned char *key, size_t keylen )
 320:C:/Workspace/DAVE-4.4.2-64Bit/optiga-trust-m/externals/mbedtls/library\md.c **** {
 590              	 .loc 1 320 0
 591              	 .cfi_startproc
 592              	.LVL54:
 593 0000 F0B5     	 push {r4,r5,r6,r7,lr}
 594              	.LCFI10:
 595              	 .cfi_def_cfa_offset 20
 596              	 .cfi_offset 4,-20
 597              	 .cfi_offset 5,-16
 598              	 .cfi_offset 6,-12
 599              	 .cfi_offset 7,-8
 600              	 .cfi_offset 14,-4
 601 0002 8BB0     	 sub sp,sp,#44
 602              	.LCFI11:
 603              	 .cfi_def_cfa_offset 64
 604              	 .loc 1 320 0
 605 0004 041C     	 mov r4,r0
 606 0006 0191     	 str r1,[sp,#4]
 607 0008 171C     	 mov r7,r2
 321:C:/Workspace/DAVE-4.4.2-64Bit/optiga-trust-m/externals/mbedtls/library\md.c ****     int ret;
 322:C:/Workspace/DAVE-4.4.2-64Bit/optiga-trust-m/externals/mbedtls/library\md.c ****     unsigned char sum[MBEDTLS_MD_MAX_SIZE];
 323:C:/Workspace/DAVE-4.4.2-64Bit/optiga-trust-m/externals/mbedtls/library\md.c ****     unsigned char *ipad, *opad;
 324:C:/Workspace/DAVE-4.4.2-64Bit/optiga-trust-m/externals/mbedtls/library\md.c ****     size_t i;
 325:C:/Workspace/DAVE-4.4.2-64Bit/optiga-trust-m/externals/mbedtls/library\md.c **** 
 326:C:/Workspace/DAVE-4.4.2-64Bit/optiga-trust-m/externals/mbedtls/library\md.c ****     if( ctx == NULL || ctx->md_info == NULL || ctx->hmac_ctx == NULL )
 608              	 .loc 1 326 0
 609 000a 0028     	 cmp r0,#0
 610 000c 50D0     	 beq .L89
 611              	 .loc 1 326 0 is_stmt 0 discriminator 1
 612 000e 0368     	 ldr r3,[r0]
 613 0010 002B     	 cmp r3,#0
 614 0012 4DD0     	 beq .L89
 615              	 .loc 1 326 0 discriminator 2
 616 0014 8268     	 ldr r2,[r0,#8]
 617              	.LVL55:
 618 0016 002A     	 cmp r2,#0
 619 0018 4AD0     	 beq .L89
 327:C:/Workspace/DAVE-4.4.2-64Bit/optiga-trust-m/externals/mbedtls/library\md.c ****         return( MBEDTLS_ERR_MD_BAD_INPUT_DATA );
 328:C:/Workspace/DAVE-4.4.2-64Bit/optiga-trust-m/externals/mbedtls/library\md.c **** 
 329:C:/Workspace/DAVE-4.4.2-64Bit/optiga-trust-m/externals/mbedtls/library\md.c ****     if( keylen > (size_t) ctx->md_info->block_size )
 620              	 .loc 1 329 0 is_stmt 1
 621 001a DA68     	 ldr r2,[r3,#12]
 622 001c 9742     	 cmp r7,r2
 623 001e 17D9     	 bls .L83
 330:C:/Workspace/DAVE-4.4.2-64Bit/optiga-trust-m/externals/mbedtls/library\md.c ****     {
 331:C:/Workspace/DAVE-4.4.2-64Bit/optiga-trust-m/externals/mbedtls/library\md.c ****         if( ( ret = ctx->md_info->starts_func( ctx->md_ctx ) ) != 0 )
 624              	 .loc 1 331 0
 625 0020 1B69     	 ldr r3,[r3,#16]
 626 0022 4068     	 ldr r0,[r0,#4]
 627              	.LVL56:
 628 0024 9847     	 blx r3
 629              	.LVL57:
 630 0026 051E     	 sub r5,r0,#0
 631              	.LVL58:
 632 0028 3CD1     	 bne .L84
 332:C:/Workspace/DAVE-4.4.2-64Bit/optiga-trust-m/externals/mbedtls/library\md.c ****             goto cleanup;
 333:C:/Workspace/DAVE-4.4.2-64Bit/optiga-trust-m/externals/mbedtls/library\md.c ****         if( ( ret = ctx->md_info->update_func( ctx->md_ctx, key, keylen ) ) != 0 )
 633              	 .loc 1 333 0
 634 002a 2368     	 ldr r3,[r4]
 635 002c 6068     	 ldr r0,[r4,#4]
 636              	.LVL59:
 637 002e 5B69     	 ldr r3,[r3,#20]
 638 0030 0199     	 ldr r1,[sp,#4]
 639 0032 3A1C     	 mov r2,r7
 640 0034 9847     	 blx r3
 641              	.LVL60:
 642 0036 051E     	 sub r5,r0,#0
 643              	.LVL61:
 644 0038 34D1     	 bne .L84
 334:C:/Workspace/DAVE-4.4.2-64Bit/optiga-trust-m/externals/mbedtls/library\md.c ****             goto cleanup;
 335:C:/Workspace/DAVE-4.4.2-64Bit/optiga-trust-m/externals/mbedtls/library\md.c ****         if( ( ret = ctx->md_info->finish_func( ctx->md_ctx, sum ) ) != 0 )
 645              	 .loc 1 335 0
 646 003a 2368     	 ldr r3,[r4]
 647 003c 6068     	 ldr r0,[r4,#4]
 648              	.LVL62:
 649 003e 9B69     	 ldr r3,[r3,#24]
 650 0040 02A9     	 add r1,sp,#8
 651 0042 9847     	 blx r3
 652              	.LVL63:
 653 0044 051E     	 sub r5,r0,#0
 654              	.LVL64:
 655 0046 2DD1     	 bne .L84
 336:C:/Workspace/DAVE-4.4.2-64Bit/optiga-trust-m/externals/mbedtls/library\md.c ****             goto cleanup;
 337:C:/Workspace/DAVE-4.4.2-64Bit/optiga-trust-m/externals/mbedtls/library\md.c **** 
 338:C:/Workspace/DAVE-4.4.2-64Bit/optiga-trust-m/externals/mbedtls/library\md.c ****         keylen = ctx->md_info->size;
 656              	 .loc 1 338 0
 657 0048 2368     	 ldr r3,[r4]
 658 004a 9F68     	 ldr r7,[r3,#8]
 659              	.LVL65:
 339:C:/Workspace/DAVE-4.4.2-64Bit/optiga-trust-m/externals/mbedtls/library\md.c ****         key = sum;
 660              	 .loc 1 339 0
 661 004c 02AB     	 add r3,sp,#8
 662              	.LVL66:
 663 004e 0193     	 str r3,[sp,#4]
 664              	.LVL67:
 665              	.L83:
 340:C:/Workspace/DAVE-4.4.2-64Bit/optiga-trust-m/externals/mbedtls/library\md.c ****     }
 341:C:/Workspace/DAVE-4.4.2-64Bit/optiga-trust-m/externals/mbedtls/library\md.c **** 
 342:C:/Workspace/DAVE-4.4.2-64Bit/optiga-trust-m/externals/mbedtls/library\md.c ****     ipad = (unsigned char *) ctx->hmac_ctx;
 343:C:/Workspace/DAVE-4.4.2-64Bit/optiga-trust-m/externals/mbedtls/library\md.c ****     opad = (unsigned char *) ctx->hmac_ctx + ctx->md_info->block_size;
 666              	 .loc 1 343 0
 667 0050 2368     	 ldr r3,[r4]
 342:C:/Workspace/DAVE-4.4.2-64Bit/optiga-trust-m/externals/mbedtls/library\md.c ****     opad = (unsigned char *) ctx->hmac_ctx + ctx->md_info->block_size;
 668              	 .loc 1 342 0
 669 0052 A668     	 ldr r6,[r4,#8]
 670              	.LVL68:
 671              	 .loc 1 343 0
 672 0054 DA68     	 ldr r2,[r3,#12]
 344:C:/Workspace/DAVE-4.4.2-64Bit/optiga-trust-m/externals/mbedtls/library\md.c **** 
 345:C:/Workspace/DAVE-4.4.2-64Bit/optiga-trust-m/externals/mbedtls/library\md.c ****     memset( ipad, 0x36, ctx->md_info->block_size );
 673              	 .loc 1 345 0
 674 0056 3621     	 mov r1,#54
 675 0058 301C     	 mov r0,r6
 343:C:/Workspace/DAVE-4.4.2-64Bit/optiga-trust-m/externals/mbedtls/library\md.c **** 
 676              	 .loc 1 343 0
 677 005a B518     	 add r5,r6,r2
 678              	.LVL69:
 679              	 .loc 1 345 0
 680 005c FFF7FEFF 	 bl memset
 681              	.LVL70:
 346:C:/Workspace/DAVE-4.4.2-64Bit/optiga-trust-m/externals/mbedtls/library\md.c ****     memset( opad, 0x5C, ctx->md_info->block_size );
 682              	 .loc 1 346 0
 683 0060 2368     	 ldr r3,[r4]
 684 0062 281C     	 mov r0,r5
 685 0064 DA68     	 ldr r2,[r3,#12]
 686 0066 5C21     	 mov r1,#92
 687 0068 FFF7FEFF 	 bl memset
 688              	.LVL71:
 347:C:/Workspace/DAVE-4.4.2-64Bit/optiga-trust-m/externals/mbedtls/library\md.c **** 
 348:C:/Workspace/DAVE-4.4.2-64Bit/optiga-trust-m/externals/mbedtls/library\md.c ****     for( i = 0; i < keylen; i++ )
 689              	 .loc 1 348 0
 690 006c 0023     	 mov r3,#0
 691              	.LVL72:
 692              	.L85:
 693              	 .loc 1 348 0 is_stmt 0 discriminator 1
 694 006e BB42     	 cmp r3,r7
 695 0070 0BD0     	 beq .L90
 349:C:/Workspace/DAVE-4.4.2-64Bit/optiga-trust-m/externals/mbedtls/library\md.c ****     {
 350:C:/Workspace/DAVE-4.4.2-64Bit/optiga-trust-m/externals/mbedtls/library\md.c ****         ipad[i] = (unsigned char)( ipad[i] ^ key[i] );
 696              	 .loc 1 350 0 is_stmt 1 discriminator 3
 697 0072 019A     	 ldr r2,[sp,#4]
 698 0074 D15C     	 ldrb r1,[r2,r3]
 699 0076 F25C     	 ldrb r2,[r6,r3]
 700 0078 4A40     	 eor r2,r1
 701 007a F254     	 strb r2,[r6,r3]
 351:C:/Workspace/DAVE-4.4.2-64Bit/optiga-trust-m/externals/mbedtls/library\md.c ****         opad[i] = (unsigned char)( opad[i] ^ key[i] );
 702              	 .loc 1 351 0 discriminator 3
 703 007c 019A     	 ldr r2,[sp,#4]
 704 007e D15C     	 ldrb r1,[r2,r3]
 705 0080 EA5C     	 ldrb r2,[r5,r3]
 706 0082 4A40     	 eor r2,r1
 707 0084 EA54     	 strb r2,[r5,r3]
 348:C:/Workspace/DAVE-4.4.2-64Bit/optiga-trust-m/externals/mbedtls/library\md.c ****     {
 708              	 .loc 1 348 0 discriminator 3
 709 0086 0133     	 add r3,r3,#1
 710              	.LVL73:
 711 0088 F1E7     	 b .L85
 712              	.L90:
 352:C:/Workspace/DAVE-4.4.2-64Bit/optiga-trust-m/externals/mbedtls/library\md.c ****     }
 353:C:/Workspace/DAVE-4.4.2-64Bit/optiga-trust-m/externals/mbedtls/library\md.c **** 
 354:C:/Workspace/DAVE-4.4.2-64Bit/optiga-trust-m/externals/mbedtls/library\md.c ****     if( ( ret = ctx->md_info->starts_func( ctx->md_ctx ) ) != 0 )
 713              	 .loc 1 354 0
 714 008a 2368     	 ldr r3,[r4]
 715              	.LVL74:
 716 008c 6068     	 ldr r0,[r4,#4]
 717 008e 1B69     	 ldr r3,[r3,#16]
 718 0090 9847     	 blx r3
 719              	.LVL75:
 720 0092 051E     	 sub r5,r0,#0
 721              	.LVL76:
 722 0094 06D1     	 bne .L84
 355:C:/Workspace/DAVE-4.4.2-64Bit/optiga-trust-m/externals/mbedtls/library\md.c ****         goto cleanup;
 356:C:/Workspace/DAVE-4.4.2-64Bit/optiga-trust-m/externals/mbedtls/library\md.c ****     if( ( ret = ctx->md_info->update_func( ctx->md_ctx, ipad,
 723              	 .loc 1 356 0
 724 0096 2368     	 ldr r3,[r4]
 725 0098 6068     	 ldr r0,[r4,#4]
 726              	.LVL77:
 727 009a 5D69     	 ldr r5,[r3,#20]
 728              	.LVL78:
 729 009c 311C     	 mov r1,r6
 730 009e DA68     	 ldr r2,[r3,#12]
 731 00a0 A847     	 blx r5
 732              	.LVL79:
 733 00a2 051C     	 mov r5,r0
 734              	.LVL80:
 735              	.L84:
 357:C:/Workspace/DAVE-4.4.2-64Bit/optiga-trust-m/externals/mbedtls/library\md.c ****                                            ctx->md_info->block_size ) ) != 0 )
 358:C:/Workspace/DAVE-4.4.2-64Bit/optiga-trust-m/externals/mbedtls/library\md.c ****         goto cleanup;
 359:C:/Workspace/DAVE-4.4.2-64Bit/optiga-trust-m/externals/mbedtls/library\md.c **** 
 360:C:/Workspace/DAVE-4.4.2-64Bit/optiga-trust-m/externals/mbedtls/library\md.c **** cleanup:
 361:C:/Workspace/DAVE-4.4.2-64Bit/optiga-trust-m/externals/mbedtls/library\md.c ****     mbedtls_platform_zeroize( sum, sizeof( sum ) );
 736              	 .loc 1 361 0
 737 00a4 02A8     	 add r0,sp,#8
 738              	.LVL81:
 739 00a6 2021     	 mov r1,#32
 740 00a8 FFF7FEFF 	 bl mbedtls_platform_zeroize
 741              	.LVL82:
 362:C:/Workspace/DAVE-4.4.2-64Bit/optiga-trust-m/externals/mbedtls/library\md.c **** 
 363:C:/Workspace/DAVE-4.4.2-64Bit/optiga-trust-m/externals/mbedtls/library\md.c ****     return( ret );
 742              	 .loc 1 363 0
 743 00ac 281C     	 mov r0,r5
 744 00ae 00E0     	 b .L82
 745              	.LVL83:
 746              	.L89:
 327:C:/Workspace/DAVE-4.4.2-64Bit/optiga-trust-m/externals/mbedtls/library\md.c **** 
 747              	 .loc 1 327 0
 748 00b0 0148     	 ldr r0,.L91
 749              	.LVL84:
 750              	.L82:
 364:C:/Workspace/DAVE-4.4.2-64Bit/optiga-trust-m/externals/mbedtls/library\md.c **** }
 751              	 .loc 1 364 0
 752 00b2 0BB0     	 add sp,sp,#44
 753              	 
 754              	.LVL85:
 755              	.LVL86:
 756 00b4 F0BD     	 pop {r4,r5,r6,r7,pc}
 757              	.L92:
 758 00b6 C046     	 .align 2
 759              	.L91:
 760 00b8 00AFFFFF 	 .word -20736
 761              	 .cfi_endproc
 762              	.LFE12:
 764              	 .section .text.mbedtls_md_hmac_update,"ax",%progbits
 765              	 .align 1
 766              	 .global mbedtls_md_hmac_update
 767              	 .code 16
 768              	 .thumb_func
 770              	mbedtls_md_hmac_update:
 771              	.LFB13:
 365:C:/Workspace/DAVE-4.4.2-64Bit/optiga-trust-m/externals/mbedtls/library\md.c **** 
 366:C:/Workspace/DAVE-4.4.2-64Bit/optiga-trust-m/externals/mbedtls/library\md.c **** int mbedtls_md_hmac_update( mbedtls_md_context_t *ctx, const unsigned char *input, size_t ilen )
 367:C:/Workspace/DAVE-4.4.2-64Bit/optiga-trust-m/externals/mbedtls/library\md.c **** {
 772              	 .loc 1 367 0
 773              	 .cfi_startproc
 774              	.LVL87:
 775 0000 10B5     	 push {r4,lr}
 776              	.LCFI12:
 777              	 .cfi_def_cfa_offset 8
 778              	 .cfi_offset 4,-8
 779              	 .cfi_offset 14,-4
 368:C:/Workspace/DAVE-4.4.2-64Bit/optiga-trust-m/externals/mbedtls/library\md.c ****     if( ctx == NULL || ctx->md_info == NULL || ctx->hmac_ctx == NULL )
 780              	 .loc 1 368 0
 781 0002 0028     	 cmp r0,#0
 782 0004 09D0     	 beq .L97
 783              	 .loc 1 368 0 is_stmt 0 discriminator 1
 784 0006 0368     	 ldr r3,[r0]
 785 0008 002B     	 cmp r3,#0
 786 000a 06D0     	 beq .L97
 787              	 .loc 1 368 0 discriminator 2
 788 000c 8468     	 ldr r4,[r0,#8]
 789 000e 002C     	 cmp r4,#0
 790 0010 03D0     	 beq .L97
 369:C:/Workspace/DAVE-4.4.2-64Bit/optiga-trust-m/externals/mbedtls/library\md.c ****         return( MBEDTLS_ERR_MD_BAD_INPUT_DATA );
 370:C:/Workspace/DAVE-4.4.2-64Bit/optiga-trust-m/externals/mbedtls/library\md.c **** 
 371:C:/Workspace/DAVE-4.4.2-64Bit/optiga-trust-m/externals/mbedtls/library\md.c ****     return( ctx->md_info->update_func( ctx->md_ctx, input, ilen ) );
 791              	 .loc 1 371 0 is_stmt 1
 792 0012 5B69     	 ldr r3,[r3,#20]
 793 0014 4068     	 ldr r0,[r0,#4]
 794              	.LVL88:
 795 0016 9847     	 blx r3
 796              	.LVL89:
 797 0018 00E0     	 b .L94
 798              	.LVL90:
 799              	.L97:
 369:C:/Workspace/DAVE-4.4.2-64Bit/optiga-trust-m/externals/mbedtls/library\md.c ****         return( MBEDTLS_ERR_MD_BAD_INPUT_DATA );
 800              	 .loc 1 369 0
 801 001a 0148     	 ldr r0,.L98
 802              	.LVL91:
 803              	.L94:
 372:C:/Workspace/DAVE-4.4.2-64Bit/optiga-trust-m/externals/mbedtls/library\md.c **** }
 804              	 .loc 1 372 0
 805              	 
 806 001c 10BD     	 pop {r4,pc}
 807              	.L99:
 808 001e C046     	 .align 2
 809              	.L98:
 810 0020 00AFFFFF 	 .word -20736
 811              	 .cfi_endproc
 812              	.LFE13:
 814              	 .section .text.mbedtls_md_hmac_finish,"ax",%progbits
 815              	 .align 1
 816              	 .global mbedtls_md_hmac_finish
 817              	 .code 16
 818              	 .thumb_func
 820              	mbedtls_md_hmac_finish:
 821              	.LFB14:
 373:C:/Workspace/DAVE-4.4.2-64Bit/optiga-trust-m/externals/mbedtls/library\md.c **** 
 374:C:/Workspace/DAVE-4.4.2-64Bit/optiga-trust-m/externals/mbedtls/library\md.c **** int mbedtls_md_hmac_finish( mbedtls_md_context_t *ctx, unsigned char *output )
 375:C:/Workspace/DAVE-4.4.2-64Bit/optiga-trust-m/externals/mbedtls/library\md.c **** {
 822              	 .loc 1 375 0
 823              	 .cfi_startproc
 824              	.LVL92:
 825 0000 F0B5     	 push {r4,r5,r6,r7,lr}
 826              	.LCFI13:
 827              	 .cfi_def_cfa_offset 20
 828              	 .cfi_offset 4,-20
 829              	 .cfi_offset 5,-16
 830              	 .cfi_offset 6,-12
 831              	 .cfi_offset 7,-8
 832              	 .cfi_offset 14,-4
 833 0002 89B0     	 sub sp,sp,#36
 834              	.LCFI14:
 835              	 .cfi_def_cfa_offset 56
 376:C:/Workspace/DAVE-4.4.2-64Bit/optiga-trust-m/externals/mbedtls/library\md.c ****     int ret;
 377:C:/Workspace/DAVE-4.4.2-64Bit/optiga-trust-m/externals/mbedtls/library\md.c ****     unsigned char tmp[MBEDTLS_MD_MAX_SIZE];
 378:C:/Workspace/DAVE-4.4.2-64Bit/optiga-trust-m/externals/mbedtls/library\md.c ****     unsigned char *opad;
 379:C:/Workspace/DAVE-4.4.2-64Bit/optiga-trust-m/externals/mbedtls/library\md.c **** 
 380:C:/Workspace/DAVE-4.4.2-64Bit/optiga-trust-m/externals/mbedtls/library\md.c ****     if( ctx == NULL || ctx->md_info == NULL || ctx->hmac_ctx == NULL )
 836              	 .loc 1 380 0
 837 0004 0028     	 cmp r0,#0
 838 0006 2AD0     	 beq .L104
 839              	 .loc 1 380 0 is_stmt 0 discriminator 1
 840 0008 0368     	 ldr r3,[r0]
 841 000a 002B     	 cmp r3,#0
 842 000c 27D0     	 beq .L104
 843              	 .loc 1 380 0 discriminator 2
 844 000e 8768     	 ldr r7,[r0,#8]
 845 0010 002F     	 cmp r7,#0
 846 0012 24D0     	 beq .L104
 847 0014 0D1C     	 mov r5,r1
 848 0016 041C     	 mov r4,r0
 381:C:/Workspace/DAVE-4.4.2-64Bit/optiga-trust-m/externals/mbedtls/library\md.c ****         return( MBEDTLS_ERR_MD_BAD_INPUT_DATA );
 382:C:/Workspace/DAVE-4.4.2-64Bit/optiga-trust-m/externals/mbedtls/library\md.c **** 
 383:C:/Workspace/DAVE-4.4.2-64Bit/optiga-trust-m/externals/mbedtls/library\md.c ****     opad = (unsigned char *) ctx->hmac_ctx + ctx->md_info->block_size;
 849              	 .loc 1 383 0 is_stmt 1
 850 0018 DE68     	 ldr r6,[r3,#12]
 851              	.LVL93:
 384:C:/Workspace/DAVE-4.4.2-64Bit/optiga-trust-m/externals/mbedtls/library\md.c **** 
 385:C:/Workspace/DAVE-4.4.2-64Bit/optiga-trust-m/externals/mbedtls/library\md.c ****     if( ( ret = ctx->md_info->finish_func( ctx->md_ctx, tmp ) ) != 0 )
 852              	 .loc 1 385 0
 853 001a 4068     	 ldr r0,[r0,#4]
 854              	.LVL94:
 855 001c 9B69     	 ldr r3,[r3,#24]
 856 001e 6946     	 mov r1,sp
 857              	.LVL95:
 858 0020 9847     	 blx r3
 859              	.LVL96:
 860 0022 0028     	 cmp r0,#0
 861 0024 1CD1     	 bne .L101
 386:C:/Workspace/DAVE-4.4.2-64Bit/optiga-trust-m/externals/mbedtls/library\md.c ****         return( ret );
 387:C:/Workspace/DAVE-4.4.2-64Bit/optiga-trust-m/externals/mbedtls/library\md.c ****     if( ( ret = ctx->md_info->starts_func( ctx->md_ctx ) ) != 0 )
 862              	 .loc 1 387 0
 863 0026 2368     	 ldr r3,[r4]
 864 0028 6068     	 ldr r0,[r4,#4]
 865              	.LVL97:
 866 002a 1B69     	 ldr r3,[r3,#16]
 867 002c 9847     	 blx r3
 868              	.LVL98:
 869 002e 0028     	 cmp r0,#0
 870 0030 16D1     	 bne .L101
 388:C:/Workspace/DAVE-4.4.2-64Bit/optiga-trust-m/externals/mbedtls/library\md.c ****         return( ret );
 389:C:/Workspace/DAVE-4.4.2-64Bit/optiga-trust-m/externals/mbedtls/library\md.c ****     if( ( ret = ctx->md_info->update_func( ctx->md_ctx, opad,
 871              	 .loc 1 389 0
 872 0032 2368     	 ldr r3,[r4]
 383:C:/Workspace/DAVE-4.4.2-64Bit/optiga-trust-m/externals/mbedtls/library\md.c **** 
 873              	 .loc 1 383 0
 874 0034 B919     	 add r1,r7,r6
 875              	 .loc 1 389 0
 876 0036 6068     	 ldr r0,[r4,#4]
 877              	.LVL99:
 878 0038 5E69     	 ldr r6,[r3,#20]
 879              	.LVL100:
 880 003a DA68     	 ldr r2,[r3,#12]
 881 003c B047     	 blx r6
 882              	.LVL101:
 883 003e 0028     	 cmp r0,#0
 884 0040 0ED1     	 bne .L101
 390:C:/Workspace/DAVE-4.4.2-64Bit/optiga-trust-m/externals/mbedtls/library\md.c ****                                            ctx->md_info->block_size ) ) != 0 )
 391:C:/Workspace/DAVE-4.4.2-64Bit/optiga-trust-m/externals/mbedtls/library\md.c ****         return( ret );
 392:C:/Workspace/DAVE-4.4.2-64Bit/optiga-trust-m/externals/mbedtls/library\md.c ****     if( ( ret = ctx->md_info->update_func( ctx->md_ctx, tmp,
 885              	 .loc 1 392 0
 886 0042 2368     	 ldr r3,[r4]
 887 0044 6068     	 ldr r0,[r4,#4]
 888              	.LVL102:
 889 0046 5E69     	 ldr r6,[r3,#20]
 890 0048 6946     	 mov r1,sp
 891 004a 9A68     	 ldr r2,[r3,#8]
 892 004c B047     	 blx r6
 893              	.LVL103:
 894 004e 0028     	 cmp r0,#0
 895 0050 06D1     	 bne .L101
 393:C:/Workspace/DAVE-4.4.2-64Bit/optiga-trust-m/externals/mbedtls/library\md.c ****                                            ctx->md_info->size ) ) != 0 )
 394:C:/Workspace/DAVE-4.4.2-64Bit/optiga-trust-m/externals/mbedtls/library\md.c ****         return( ret );
 395:C:/Workspace/DAVE-4.4.2-64Bit/optiga-trust-m/externals/mbedtls/library\md.c ****     return( ctx->md_info->finish_func( ctx->md_ctx, output ) );
 896              	 .loc 1 395 0
 897 0052 2368     	 ldr r3,[r4]
 898 0054 6068     	 ldr r0,[r4,#4]
 899              	.LVL104:
 900 0056 9B69     	 ldr r3,[r3,#24]
 901 0058 291C     	 mov r1,r5
 902 005a 9847     	 blx r3
 903              	.LVL105:
 904 005c 00E0     	 b .L101
 905              	.LVL106:
 906              	.L104:
 381:C:/Workspace/DAVE-4.4.2-64Bit/optiga-trust-m/externals/mbedtls/library\md.c **** 
 907              	 .loc 1 381 0
 908 005e 0148     	 ldr r0,.L109
 909              	.LVL107:
 910              	.L101:
 396:C:/Workspace/DAVE-4.4.2-64Bit/optiga-trust-m/externals/mbedtls/library\md.c **** }
 911              	 .loc 1 396 0
 912 0060 09B0     	 add sp,sp,#36
 913              	 
 914 0062 F0BD     	 pop {r4,r5,r6,r7,pc}
 915              	.L110:
 916              	 .align 2
 917              	.L109:
 918 0064 00AFFFFF 	 .word -20736
 919              	 .cfi_endproc
 920              	.LFE14:
 922              	 .section .text.mbedtls_md_hmac_reset,"ax",%progbits
 923              	 .align 1
 924              	 .global mbedtls_md_hmac_reset
 925              	 .code 16
 926              	 .thumb_func
 928              	mbedtls_md_hmac_reset:
 929              	.LFB15:
 397:C:/Workspace/DAVE-4.4.2-64Bit/optiga-trust-m/externals/mbedtls/library\md.c **** 
 398:C:/Workspace/DAVE-4.4.2-64Bit/optiga-trust-m/externals/mbedtls/library\md.c **** int mbedtls_md_hmac_reset( mbedtls_md_context_t *ctx )
 399:C:/Workspace/DAVE-4.4.2-64Bit/optiga-trust-m/externals/mbedtls/library\md.c **** {
 930              	 .loc 1 399 0
 931              	 .cfi_startproc
 932              	.LVL108:
 933 0000 70B5     	 push {r4,r5,r6,lr}
 934              	.LCFI15:
 935              	 .cfi_def_cfa_offset 16
 936              	 .cfi_offset 4,-16
 937              	 .cfi_offset 5,-12
 938              	 .cfi_offset 6,-8
 939              	 .cfi_offset 14,-4
 400:C:/Workspace/DAVE-4.4.2-64Bit/optiga-trust-m/externals/mbedtls/library\md.c ****     int ret;
 401:C:/Workspace/DAVE-4.4.2-64Bit/optiga-trust-m/externals/mbedtls/library\md.c ****     unsigned char *ipad;
 402:C:/Workspace/DAVE-4.4.2-64Bit/optiga-trust-m/externals/mbedtls/library\md.c **** 
 403:C:/Workspace/DAVE-4.4.2-64Bit/optiga-trust-m/externals/mbedtls/library\md.c ****     if( ctx == NULL || ctx->md_info == NULL || ctx->hmac_ctx == NULL )
 940              	 .loc 1 403 0
 941 0002 0028     	 cmp r0,#0
 942 0004 12D0     	 beq .L115
 943              	 .loc 1 403 0 is_stmt 0 discriminator 1
 944 0006 0368     	 ldr r3,[r0]
 945 0008 002B     	 cmp r3,#0
 946 000a 0FD0     	 beq .L115
 947              	 .loc 1 403 0 discriminator 2
 948 000c 8568     	 ldr r5,[r0,#8]
 949 000e 002D     	 cmp r5,#0
 950 0010 0CD0     	 beq .L115
 951 0012 041C     	 mov r4,r0
 952              	.LVL109:
 404:C:/Workspace/DAVE-4.4.2-64Bit/optiga-trust-m/externals/mbedtls/library\md.c ****         return( MBEDTLS_ERR_MD_BAD_INPUT_DATA );
 405:C:/Workspace/DAVE-4.4.2-64Bit/optiga-trust-m/externals/mbedtls/library\md.c **** 
 406:C:/Workspace/DAVE-4.4.2-64Bit/optiga-trust-m/externals/mbedtls/library\md.c ****     ipad = (unsigned char *) ctx->hmac_ctx;
 407:C:/Workspace/DAVE-4.4.2-64Bit/optiga-trust-m/externals/mbedtls/library\md.c **** 
 408:C:/Workspace/DAVE-4.4.2-64Bit/optiga-trust-m/externals/mbedtls/library\md.c ****     if( ( ret = ctx->md_info->starts_func( ctx->md_ctx ) ) != 0 )
 953              	 .loc 1 408 0 is_stmt 1
 954 0014 1B69     	 ldr r3,[r3,#16]
 955 0016 4068     	 ldr r0,[r0,#4]
 956              	.LVL110:
 957 0018 9847     	 blx r3
 958              	.LVL111:
 959 001a 0028     	 cmp r0,#0
 960 001c 07D1     	 bne .L112
 409:C:/Workspace/DAVE-4.4.2-64Bit/optiga-trust-m/externals/mbedtls/library\md.c ****         return( ret );
 410:C:/Workspace/DAVE-4.4.2-64Bit/optiga-trust-m/externals/mbedtls/library\md.c ****     return( ctx->md_info->update_func( ctx->md_ctx, ipad,
 961              	 .loc 1 410 0
 962 001e 2368     	 ldr r3,[r4]
 963 0020 6068     	 ldr r0,[r4,#4]
 964              	.LVL112:
 965 0022 5E69     	 ldr r6,[r3,#20]
 966 0024 291C     	 mov r1,r5
 967 0026 DA68     	 ldr r2,[r3,#12]
 968 0028 B047     	 blx r6
 969              	.LVL113:
 970 002a 00E0     	 b .L112
 971              	.LVL114:
 972              	.L115:
 404:C:/Workspace/DAVE-4.4.2-64Bit/optiga-trust-m/externals/mbedtls/library\md.c ****         return( MBEDTLS_ERR_MD_BAD_INPUT_DATA );
 973              	 .loc 1 404 0
 974 002c 0048     	 ldr r0,.L117
 975              	.LVL115:
 976              	.L112:
 411:C:/Workspace/DAVE-4.4.2-64Bit/optiga-trust-m/externals/mbedtls/library\md.c ****                                        ctx->md_info->block_size ) );
 412:C:/Workspace/DAVE-4.4.2-64Bit/optiga-trust-m/externals/mbedtls/library\md.c **** }
 977              	 .loc 1 412 0
 978              	 
 979 002e 70BD     	 pop {r4,r5,r6,pc}
 980              	.L118:
 981              	 .align 2
 982              	.L117:
 983 0030 00AFFFFF 	 .word -20736
 984              	 .cfi_endproc
 985              	.LFE15:
 987              	 .section .text.mbedtls_md_hmac,"ax",%progbits
 988              	 .align 1
 989              	 .global mbedtls_md_hmac
 990              	 .code 16
 991              	 .thumb_func
 993              	mbedtls_md_hmac:
 994              	.LFB16:
 413:C:/Workspace/DAVE-4.4.2-64Bit/optiga-trust-m/externals/mbedtls/library\md.c **** 
 414:C:/Workspace/DAVE-4.4.2-64Bit/optiga-trust-m/externals/mbedtls/library\md.c **** int mbedtls_md_hmac( const mbedtls_md_info_t *md_info,
 415:C:/Workspace/DAVE-4.4.2-64Bit/optiga-trust-m/externals/mbedtls/library\md.c ****                      const unsigned char *key, size_t keylen,
 416:C:/Workspace/DAVE-4.4.2-64Bit/optiga-trust-m/externals/mbedtls/library\md.c ****                      const unsigned char *input, size_t ilen,
 417:C:/Workspace/DAVE-4.4.2-64Bit/optiga-trust-m/externals/mbedtls/library\md.c ****                      unsigned char *output )
 418:C:/Workspace/DAVE-4.4.2-64Bit/optiga-trust-m/externals/mbedtls/library\md.c **** {
 995              	 .loc 1 418 0
 996              	 .cfi_startproc
 997              	.LVL116:
 998 0000 F0B5     	 push {r4,r5,r6,r7,lr}
 999              	.LCFI16:
 1000              	 .cfi_def_cfa_offset 20
 1001              	 .cfi_offset 4,-20
 1002              	 .cfi_offset 5,-16
 1003              	 .cfi_offset 6,-12
 1004              	 .cfi_offset 7,-8
 1005              	 .cfi_offset 14,-4
 1006 0002 85B0     	 sub sp,sp,#20
 1007              	.LCFI17:
 1008              	 .cfi_def_cfa_offset 40
 419:C:/Workspace/DAVE-4.4.2-64Bit/optiga-trust-m/externals/mbedtls/library\md.c ****     mbedtls_md_context_t ctx;
 420:C:/Workspace/DAVE-4.4.2-64Bit/optiga-trust-m/externals/mbedtls/library\md.c ****     int ret;
 421:C:/Workspace/DAVE-4.4.2-64Bit/optiga-trust-m/externals/mbedtls/library\md.c **** 
 422:C:/Workspace/DAVE-4.4.2-64Bit/optiga-trust-m/externals/mbedtls/library\md.c ****     if( md_info == NULL )
 1009              	 .loc 1 422 0
 1010 0004 0028     	 cmp r0,#0
 1011 0006 25D0     	 beq .L122
 1012 0008 041C     	 mov r4,r0
 423:C:/Workspace/DAVE-4.4.2-64Bit/optiga-trust-m/externals/mbedtls/library\md.c ****         return( MBEDTLS_ERR_MD_BAD_INPUT_DATA );
 424:C:/Workspace/DAVE-4.4.2-64Bit/optiga-trust-m/externals/mbedtls/library\md.c **** 
 425:C:/Workspace/DAVE-4.4.2-64Bit/optiga-trust-m/externals/mbedtls/library\md.c ****     mbedtls_md_init( &ctx );
 1013              	 .loc 1 425 0
 1014 000a 01A8     	 add r0,sp,#4
 1015              	.LVL117:
 1016 000c 1D1C     	 mov r5,r3
 1017 000e 161C     	 mov r6,r2
 1018 0010 0F1C     	 mov r7,r1
 1019 0012 FFF7FEFF 	 bl mbedtls_md_init
 1020              	.LVL118:
 426:C:/Workspace/DAVE-4.4.2-64Bit/optiga-trust-m/externals/mbedtls/library\md.c **** 
 427:C:/Workspace/DAVE-4.4.2-64Bit/optiga-trust-m/externals/mbedtls/library\md.c ****     if( ( ret = mbedtls_md_setup( &ctx, md_info, 1 ) ) != 0 )
 1021              	 .loc 1 427 0
 1022 0016 211C     	 mov r1,r4
 1023 0018 01A8     	 add r0,sp,#4
 1024 001a 0122     	 mov r2,#1
 1025 001c FFF7FEFF 	 bl mbedtls_md_setup
 1026              	.LVL119:
 1027 0020 041E     	 sub r4,r0,#0
 1028              	.LVL120:
 1029 0022 12D1     	 bne .L121
 428:C:/Workspace/DAVE-4.4.2-64Bit/optiga-trust-m/externals/mbedtls/library\md.c ****         goto cleanup;
 429:C:/Workspace/DAVE-4.4.2-64Bit/optiga-trust-m/externals/mbedtls/library\md.c **** 
 430:C:/Workspace/DAVE-4.4.2-64Bit/optiga-trust-m/externals/mbedtls/library\md.c ****     if( ( ret = mbedtls_md_hmac_starts( &ctx, key, keylen ) ) != 0 )
 1030              	 .loc 1 430 0
 1031 0024 01A8     	 add r0,sp,#4
 1032              	.LVL121:
 1033 0026 391C     	 mov r1,r7
 1034 0028 321C     	 mov r2,r6
 1035 002a FFF7FEFF 	 bl mbedtls_md_hmac_starts
 1036              	.LVL122:
 1037 002e 041E     	 sub r4,r0,#0
 1038              	.LVL123:
 1039 0030 0BD1     	 bne .L121
 431:C:/Workspace/DAVE-4.4.2-64Bit/optiga-trust-m/externals/mbedtls/library\md.c ****         goto cleanup;
 432:C:/Workspace/DAVE-4.4.2-64Bit/optiga-trust-m/externals/mbedtls/library\md.c ****     if( ( ret = mbedtls_md_hmac_update( &ctx, input, ilen ) ) != 0 )
 1040              	 .loc 1 432 0
 1041 0032 01A8     	 add r0,sp,#4
 1042              	.LVL124:
 1043 0034 291C     	 mov r1,r5
 1044 0036 0A9A     	 ldr r2,[sp,#40]
 1045 0038 FFF7FEFF 	 bl mbedtls_md_hmac_update
 1046              	.LVL125:
 1047 003c 041E     	 sub r4,r0,#0
 1048              	.LVL126:
 1049 003e 04D1     	 bne .L121
 433:C:/Workspace/DAVE-4.4.2-64Bit/optiga-trust-m/externals/mbedtls/library\md.c ****         goto cleanup;
 434:C:/Workspace/DAVE-4.4.2-64Bit/optiga-trust-m/externals/mbedtls/library\md.c ****     if( ( ret = mbedtls_md_hmac_finish( &ctx, output ) ) != 0 )
 1050              	 .loc 1 434 0
 1051 0040 01A8     	 add r0,sp,#4
 1052              	.LVL127:
 1053 0042 0B99     	 ldr r1,[sp,#44]
 1054 0044 FFF7FEFF 	 bl mbedtls_md_hmac_finish
 1055              	.LVL128:
 1056 0048 041C     	 mov r4,r0
 1057              	.LVL129:
 1058              	.L121:
 435:C:/Workspace/DAVE-4.4.2-64Bit/optiga-trust-m/externals/mbedtls/library\md.c ****         goto cleanup;
 436:C:/Workspace/DAVE-4.4.2-64Bit/optiga-trust-m/externals/mbedtls/library\md.c **** 
 437:C:/Workspace/DAVE-4.4.2-64Bit/optiga-trust-m/externals/mbedtls/library\md.c **** cleanup:
 438:C:/Workspace/DAVE-4.4.2-64Bit/optiga-trust-m/externals/mbedtls/library\md.c ****     mbedtls_md_free( &ctx );
 1059              	 .loc 1 438 0
 1060 004a 01A8     	 add r0,sp,#4
 1061              	.LVL130:
 1062 004c FFF7FEFF 	 bl mbedtls_md_free
 1063              	.LVL131:
 439:C:/Workspace/DAVE-4.4.2-64Bit/optiga-trust-m/externals/mbedtls/library\md.c **** 
 440:C:/Workspace/DAVE-4.4.2-64Bit/optiga-trust-m/externals/mbedtls/library\md.c ****     return( ret );
 1064              	 .loc 1 440 0
 1065 0050 201C     	 mov r0,r4
 1066 0052 00E0     	 b .L120
 1067              	.LVL132:
 1068              	.L122:
 423:C:/Workspace/DAVE-4.4.2-64Bit/optiga-trust-m/externals/mbedtls/library\md.c **** 
 1069              	 .loc 1 423 0
 1070 0054 0148     	 ldr r0,.L123
 1071              	.LVL133:
 1072              	.L120:
 441:C:/Workspace/DAVE-4.4.2-64Bit/optiga-trust-m/externals/mbedtls/library\md.c **** }
 1073              	 .loc 1 441 0
 1074 0056 05B0     	 add sp,sp,#20
 1075              	 
 1076 0058 F0BD     	 pop {r4,r5,r6,r7,pc}
 1077              	.L124:
 1078 005a C046     	 .align 2
 1079              	.L123:
 1080 005c 00AFFFFF 	 .word -20736
 1081              	 .cfi_endproc
 1082              	.LFE16:
 1084              	 .section .text.mbedtls_md_process,"ax",%progbits
 1085              	 .align 1
 1086              	 .global mbedtls_md_process
 1087              	 .code 16
 1088              	 .thumb_func
 1090              	mbedtls_md_process:
 1091              	.LFB17:
 442:C:/Workspace/DAVE-4.4.2-64Bit/optiga-trust-m/externals/mbedtls/library\md.c **** 
 443:C:/Workspace/DAVE-4.4.2-64Bit/optiga-trust-m/externals/mbedtls/library\md.c **** int mbedtls_md_process( mbedtls_md_context_t *ctx, const unsigned char *data )
 444:C:/Workspace/DAVE-4.4.2-64Bit/optiga-trust-m/externals/mbedtls/library\md.c **** {
 1092              	 .loc 1 444 0
 1093              	 .cfi_startproc
 1094              	.LVL134:
 1095 0000 08B5     	 push {r3,lr}
 1096              	.LCFI18:
 1097              	 .cfi_def_cfa_offset 8
 1098              	 .cfi_offset 3,-8
 1099              	 .cfi_offset 14,-4
 445:C:/Workspace/DAVE-4.4.2-64Bit/optiga-trust-m/externals/mbedtls/library\md.c ****     if( ctx == NULL || ctx->md_info == NULL )
 1100              	 .loc 1 445 0
 1101 0002 0028     	 cmp r0,#0
 1102 0004 06D0     	 beq .L128
 1103              	 .loc 1 445 0 is_stmt 0 discriminator 1
 1104 0006 0368     	 ldr r3,[r0]
 1105 0008 002B     	 cmp r3,#0
 1106 000a 03D0     	 beq .L128
 446:C:/Workspace/DAVE-4.4.2-64Bit/optiga-trust-m/externals/mbedtls/library\md.c ****         return( MBEDTLS_ERR_MD_BAD_INPUT_DATA );
 447:C:/Workspace/DAVE-4.4.2-64Bit/optiga-trust-m/externals/mbedtls/library\md.c **** 
 448:C:/Workspace/DAVE-4.4.2-64Bit/optiga-trust-m/externals/mbedtls/library\md.c ****     return( ctx->md_info->process_func( ctx->md_ctx, data ) );
 1107              	 .loc 1 448 0 is_stmt 1
 1108 000c DB6A     	 ldr r3,[r3,#44]
 1109 000e 4068     	 ldr r0,[r0,#4]
 1110              	.LVL135:
 1111 0010 9847     	 blx r3
 1112              	.LVL136:
 1113 0012 00E0     	 b .L126
 1114              	.LVL137:
 1115              	.L128:
 446:C:/Workspace/DAVE-4.4.2-64Bit/optiga-trust-m/externals/mbedtls/library\md.c ****         return( MBEDTLS_ERR_MD_BAD_INPUT_DATA );
 1116              	 .loc 1 446 0
 1117 0014 0048     	 ldr r0,.L129
 1118              	.LVL138:
 1119              	.L126:
 449:C:/Workspace/DAVE-4.4.2-64Bit/optiga-trust-m/externals/mbedtls/library\md.c **** }
 1120              	 .loc 1 449 0
 1121              	 
 1122 0016 08BD     	 pop {r3,pc}
 1123              	.L130:
 1124              	 .align 2
 1125              	.L129:
 1126 0018 00AFFFFF 	 .word -20736
 1127              	 .cfi_endproc
 1128              	.LFE17:
 1130              	 .section .text.mbedtls_md_get_size,"ax",%progbits
 1131              	 .align 1
 1132              	 .global mbedtls_md_get_size
 1133              	 .code 16
 1134              	 .thumb_func
 1136              	mbedtls_md_get_size:
 1137              	.LFB18:
 450:C:/Workspace/DAVE-4.4.2-64Bit/optiga-trust-m/externals/mbedtls/library\md.c **** 
 451:C:/Workspace/DAVE-4.4.2-64Bit/optiga-trust-m/externals/mbedtls/library\md.c **** unsigned char mbedtls_md_get_size( const mbedtls_md_info_t *md_info )
 452:C:/Workspace/DAVE-4.4.2-64Bit/optiga-trust-m/externals/mbedtls/library\md.c **** {
 1138              	 .loc 1 452 0
 1139              	 .cfi_startproc
 1140              	.LVL139:
 1141              	 .loc 1 452 0
 1142 0000 031E     	 sub r3,r0,#0
 453:C:/Workspace/DAVE-4.4.2-64Bit/optiga-trust-m/externals/mbedtls/library\md.c ****     if( md_info == NULL )
 1143              	 .loc 1 453 0
 1144 0002 01D0     	 beq .L132
 454:C:/Workspace/DAVE-4.4.2-64Bit/optiga-trust-m/externals/mbedtls/library\md.c ****         return( 0 );
 455:C:/Workspace/DAVE-4.4.2-64Bit/optiga-trust-m/externals/mbedtls/library\md.c **** 
 456:C:/Workspace/DAVE-4.4.2-64Bit/optiga-trust-m/externals/mbedtls/library\md.c ****     return md_info->size;
 1145              	 .loc 1 456 0
 1146 0004 9868     	 ldr r0,[r3,#8]
 1147              	.LVL140:
 1148 0006 C0B2     	 uxtb r0,r0
 1149              	.L132:
 457:C:/Workspace/DAVE-4.4.2-64Bit/optiga-trust-m/externals/mbedtls/library\md.c **** }
 1150              	 .loc 1 457 0
 1151              	 
 1152 0008 7047     	 bx lr
 1153              	 .cfi_endproc
 1154              	.LFE18:
 1156              	 .section .text.mbedtls_md_get_type,"ax",%progbits
 1157              	 .align 1
 1158              	 .global mbedtls_md_get_type
 1159              	 .code 16
 1160              	 .thumb_func
 1162              	mbedtls_md_get_type:
 1163              	.LFB19:
 458:C:/Workspace/DAVE-4.4.2-64Bit/optiga-trust-m/externals/mbedtls/library\md.c **** 
 459:C:/Workspace/DAVE-4.4.2-64Bit/optiga-trust-m/externals/mbedtls/library\md.c **** mbedtls_md_type_t mbedtls_md_get_type( const mbedtls_md_info_t *md_info )
 460:C:/Workspace/DAVE-4.4.2-64Bit/optiga-trust-m/externals/mbedtls/library\md.c **** {
 1164              	 .loc 1 460 0
 1165              	 .cfi_startproc
 1166              	.LVL141:
 1167              	 .loc 1 460 0
 1168 0000 031E     	 sub r3,r0,#0
 461:C:/Workspace/DAVE-4.4.2-64Bit/optiga-trust-m/externals/mbedtls/library\md.c ****     if( md_info == NULL )
 1169              	 .loc 1 461 0
 1170 0002 00D0     	 beq .L135
 462:C:/Workspace/DAVE-4.4.2-64Bit/optiga-trust-m/externals/mbedtls/library\md.c ****         return( MBEDTLS_MD_NONE );
 463:C:/Workspace/DAVE-4.4.2-64Bit/optiga-trust-m/externals/mbedtls/library\md.c **** 
 464:C:/Workspace/DAVE-4.4.2-64Bit/optiga-trust-m/externals/mbedtls/library\md.c ****     return md_info->type;
 1171              	 .loc 1 464 0
 1172 0004 1878     	 ldrb r0,[r3]
 1173              	.LVL142:
 1174              	.L135:
 465:C:/Workspace/DAVE-4.4.2-64Bit/optiga-trust-m/externals/mbedtls/library\md.c **** }
 1175              	 .loc 1 465 0
 1176              	 
 1177 0006 7047     	 bx lr
 1178              	 .cfi_endproc
 1179              	.LFE19:
 1181              	 .section .text.mbedtls_md_get_name,"ax",%progbits
 1182              	 .align 1
 1183              	 .global mbedtls_md_get_name
 1184              	 .code 16
 1185              	 .thumb_func
 1187              	mbedtls_md_get_name:
 1188              	.LFB20:
 466:C:/Workspace/DAVE-4.4.2-64Bit/optiga-trust-m/externals/mbedtls/library\md.c **** 
 467:C:/Workspace/DAVE-4.4.2-64Bit/optiga-trust-m/externals/mbedtls/library\md.c **** const char *mbedtls_md_get_name( const mbedtls_md_info_t *md_info )
 468:C:/Workspace/DAVE-4.4.2-64Bit/optiga-trust-m/externals/mbedtls/library\md.c **** {
 1189              	 .loc 1 468 0
 1190              	 .cfi_startproc
 1191              	.LVL143:
 1192              	 .loc 1 468 0
 1193 0000 031E     	 sub r3,r0,#0
 469:C:/Workspace/DAVE-4.4.2-64Bit/optiga-trust-m/externals/mbedtls/library\md.c ****     if( md_info == NULL )
 1194              	 .loc 1 469 0
 1195 0002 00D0     	 beq .L138
 470:C:/Workspace/DAVE-4.4.2-64Bit/optiga-trust-m/externals/mbedtls/library\md.c ****         return( NULL );
 471:C:/Workspace/DAVE-4.4.2-64Bit/optiga-trust-m/externals/mbedtls/library\md.c **** 
 472:C:/Workspace/DAVE-4.4.2-64Bit/optiga-trust-m/externals/mbedtls/library\md.c ****     return md_info->name;
 1196              	 .loc 1 472 0
 1197 0004 5868     	 ldr r0,[r3,#4]
 1198              	.LVL144:
 1199              	.L138:
 473:C:/Workspace/DAVE-4.4.2-64Bit/optiga-trust-m/externals/mbedtls/library\md.c **** }
 1200              	 .loc 1 473 0
 1201              	 
 1202 0006 7047     	 bx lr
 1203              	 .cfi_endproc
 1204              	.LFE20:
 1206              	 .section .rodata.supported_digests,"a",%progbits
 1207              	 .align 2
 1208              	 .set .LANCHOR0,.+0
 1211              	supported_digests:
 1212 0000 06000000 	 .word 6
 1213 0004 05000000 	 .word 5
 1214 0008 00000000 	 .word 0
 1215              	 .section .rodata.str1.1,"aMS",%progbits,1
 1216              	.LC3:
 1217 0000 53484132 	 .ascii "SHA224\000"
 1217      323400
 1218              	.LC5:
 1219 0007 53484132 	 .ascii "SHA256\000"
 1219      353600
 1220              	 .text
 1221              	.Letext0:
 1222              	 .file 2 "c:\\dave_4-4-2_64bit\\dave-ide-4.4.2-64bit\\eclipse\\arm-gcc-49\\lib\\gcc\\arm-none-eabi\\4.9.3\\include\\stddef.h"
 1223              	 .file 3 "C:/Workspace/DAVE-4.4.2-64Bit/optiga-trust-m/externals/mbedtls/include/mbedtls/md.h"
 1224              	 .file 4 "C:/Workspace/DAVE-4.4.2-64Bit/optiga-trust-m/externals/mbedtls/include/mbedtls/md_internal.h"
 1225              	 .file 5 "c:\\dave_4-4-2_64bit\\dave-ide-4.4.2-64bit\\eclipse\\arm-gcc-49\\arm-none-eabi\\include\\string.h"
 1226              	 .file 6 "C:/Workspace/DAVE-4.4.2-64Bit/optiga-trust-m/externals/mbedtls/include/mbedtls/platform_util.h"
 1227              	 .file 7 "c:\\dave_4-4-2_64bit\\dave-ide-4.4.2-64bit\\eclipse\\arm-gcc-49\\arm-none-eabi\\include\\stdlib.h"