   1              	 .cpu cortex-m0
   2              	 .fpu softvfp
   3              	 .eabi_attribute 20,1
   4              	 .eabi_attribute 21,1
   5              	 .eabi_attribute 23,3
   6              	 .eabi_attribute 24,1
   7              	 .eabi_attribute 25,1
   8              	 .eabi_attribute 26,1
   9              	 .eabi_attribute 30,4
  10              	 .eabi_attribute 34,0
  11              	 .eabi_attribute 18,4
  12              	 .code 16
  13              	 .file "oid.c"
  14              	 .text
  15              	.Ltext0:
  16              	 .cfi_sections .debug_frame
  17              	 .section .text.mbedtls_oid_get_attr_short_name,"ax",%progbits
  18              	 .align 1
  19              	 .global mbedtls_oid_get_attr_short_name
  20              	 .code 16
  21              	 .thumb_func
  23              	mbedtls_oid_get_attr_short_name:
  24              	.LFB10:
  25              	 .file 1 "C:/Workspace/DAVE-4.4.2-64Bit/optiga-trust-m/externals/mbedtls/library/oid.c"
   1:C:/Workspace/DAVE-4.4.2-64Bit/optiga-trust-m/externals/mbedtls/library\oid.c **** /**
   2:C:/Workspace/DAVE-4.4.2-64Bit/optiga-trust-m/externals/mbedtls/library\oid.c ****  * \file oid.c
   3:C:/Workspace/DAVE-4.4.2-64Bit/optiga-trust-m/externals/mbedtls/library\oid.c ****  *
   4:C:/Workspace/DAVE-4.4.2-64Bit/optiga-trust-m/externals/mbedtls/library\oid.c ****  * \brief Object Identifier (OID) database
   5:C:/Workspace/DAVE-4.4.2-64Bit/optiga-trust-m/externals/mbedtls/library\oid.c ****  *
   6:C:/Workspace/DAVE-4.4.2-64Bit/optiga-trust-m/externals/mbedtls/library\oid.c ****  *  Copyright (C) 2006-2015, ARM Limited, All Rights Reserved
   7:C:/Workspace/DAVE-4.4.2-64Bit/optiga-trust-m/externals/mbedtls/library\oid.c ****  *  SPDX-License-Identifier: Apache-2.0
   8:C:/Workspace/DAVE-4.4.2-64Bit/optiga-trust-m/externals/mbedtls/library\oid.c ****  *
   9:C:/Workspace/DAVE-4.4.2-64Bit/optiga-trust-m/externals/mbedtls/library\oid.c ****  *  Licensed under the Apache License, Version 2.0 (the "License"); you may
  10:C:/Workspace/DAVE-4.4.2-64Bit/optiga-trust-m/externals/mbedtls/library\oid.c ****  *  not use this file except in compliance with the License.
  11:C:/Workspace/DAVE-4.4.2-64Bit/optiga-trust-m/externals/mbedtls/library\oid.c ****  *  You may obtain a copy of the License at
  12:C:/Workspace/DAVE-4.4.2-64Bit/optiga-trust-m/externals/mbedtls/library\oid.c ****  *
  13:C:/Workspace/DAVE-4.4.2-64Bit/optiga-trust-m/externals/mbedtls/library\oid.c ****  *  http://www.apache.org/licenses/LICENSE-2.0
  14:C:/Workspace/DAVE-4.4.2-64Bit/optiga-trust-m/externals/mbedtls/library\oid.c ****  *
  15:C:/Workspace/DAVE-4.4.2-64Bit/optiga-trust-m/externals/mbedtls/library\oid.c ****  *  Unless required by applicable law or agreed to in writing, software
  16:C:/Workspace/DAVE-4.4.2-64Bit/optiga-trust-m/externals/mbedtls/library\oid.c ****  *  distributed under the License is distributed on an "AS IS" BASIS, WITHOUT
  17:C:/Workspace/DAVE-4.4.2-64Bit/optiga-trust-m/externals/mbedtls/library\oid.c ****  *  WARRANTIES OR CONDITIONS OF ANY KIND, either express or implied.
  18:C:/Workspace/DAVE-4.4.2-64Bit/optiga-trust-m/externals/mbedtls/library\oid.c ****  *  See the License for the specific language governing permissions and
  19:C:/Workspace/DAVE-4.4.2-64Bit/optiga-trust-m/externals/mbedtls/library\oid.c ****  *  limitations under the License.
  20:C:/Workspace/DAVE-4.4.2-64Bit/optiga-trust-m/externals/mbedtls/library\oid.c ****  *
  21:C:/Workspace/DAVE-4.4.2-64Bit/optiga-trust-m/externals/mbedtls/library\oid.c ****  *  This file is part of mbed TLS (https://tls.mbed.org)
  22:C:/Workspace/DAVE-4.4.2-64Bit/optiga-trust-m/externals/mbedtls/library\oid.c ****  */
  23:C:/Workspace/DAVE-4.4.2-64Bit/optiga-trust-m/externals/mbedtls/library\oid.c **** 
  24:C:/Workspace/DAVE-4.4.2-64Bit/optiga-trust-m/externals/mbedtls/library\oid.c **** #if !defined(MBEDTLS_CONFIG_FILE)
  25:C:/Workspace/DAVE-4.4.2-64Bit/optiga-trust-m/externals/mbedtls/library\oid.c **** #include "mbedtls/config.h"
  26:C:/Workspace/DAVE-4.4.2-64Bit/optiga-trust-m/externals/mbedtls/library\oid.c **** #else
  27:C:/Workspace/DAVE-4.4.2-64Bit/optiga-trust-m/externals/mbedtls/library\oid.c **** #include MBEDTLS_CONFIG_FILE
  28:C:/Workspace/DAVE-4.4.2-64Bit/optiga-trust-m/externals/mbedtls/library\oid.c **** #endif
  29:C:/Workspace/DAVE-4.4.2-64Bit/optiga-trust-m/externals/mbedtls/library\oid.c **** 
  30:C:/Workspace/DAVE-4.4.2-64Bit/optiga-trust-m/externals/mbedtls/library\oid.c **** #if defined(MBEDTLS_OID_C)
  31:C:/Workspace/DAVE-4.4.2-64Bit/optiga-trust-m/externals/mbedtls/library\oid.c **** 
  32:C:/Workspace/DAVE-4.4.2-64Bit/optiga-trust-m/externals/mbedtls/library\oid.c **** #include "mbedtls/oid.h"
  33:C:/Workspace/DAVE-4.4.2-64Bit/optiga-trust-m/externals/mbedtls/library\oid.c **** #include "mbedtls/rsa.h"
  34:C:/Workspace/DAVE-4.4.2-64Bit/optiga-trust-m/externals/mbedtls/library\oid.c **** 
  35:C:/Workspace/DAVE-4.4.2-64Bit/optiga-trust-m/externals/mbedtls/library\oid.c **** #include <stdio.h>
  36:C:/Workspace/DAVE-4.4.2-64Bit/optiga-trust-m/externals/mbedtls/library\oid.c **** #include <string.h>
  37:C:/Workspace/DAVE-4.4.2-64Bit/optiga-trust-m/externals/mbedtls/library\oid.c **** 
  38:C:/Workspace/DAVE-4.4.2-64Bit/optiga-trust-m/externals/mbedtls/library\oid.c **** #if defined(MBEDTLS_PLATFORM_C)
  39:C:/Workspace/DAVE-4.4.2-64Bit/optiga-trust-m/externals/mbedtls/library\oid.c **** #include "mbedtls/platform.h"
  40:C:/Workspace/DAVE-4.4.2-64Bit/optiga-trust-m/externals/mbedtls/library\oid.c **** #else
  41:C:/Workspace/DAVE-4.4.2-64Bit/optiga-trust-m/externals/mbedtls/library\oid.c **** #define mbedtls_snprintf snprintf
  42:C:/Workspace/DAVE-4.4.2-64Bit/optiga-trust-m/externals/mbedtls/library\oid.c **** #endif
  43:C:/Workspace/DAVE-4.4.2-64Bit/optiga-trust-m/externals/mbedtls/library\oid.c **** 
  44:C:/Workspace/DAVE-4.4.2-64Bit/optiga-trust-m/externals/mbedtls/library\oid.c **** #if defined(MBEDTLS_X509_USE_C) || defined(MBEDTLS_X509_CREATE_C)
  45:C:/Workspace/DAVE-4.4.2-64Bit/optiga-trust-m/externals/mbedtls/library\oid.c **** #include "mbedtls/x509.h"
  46:C:/Workspace/DAVE-4.4.2-64Bit/optiga-trust-m/externals/mbedtls/library\oid.c **** #endif
  47:C:/Workspace/DAVE-4.4.2-64Bit/optiga-trust-m/externals/mbedtls/library\oid.c **** 
  48:C:/Workspace/DAVE-4.4.2-64Bit/optiga-trust-m/externals/mbedtls/library\oid.c **** /*
  49:C:/Workspace/DAVE-4.4.2-64Bit/optiga-trust-m/externals/mbedtls/library\oid.c ****  * Macro to automatically add the size of #define'd OIDs
  50:C:/Workspace/DAVE-4.4.2-64Bit/optiga-trust-m/externals/mbedtls/library\oid.c ****  */
  51:C:/Workspace/DAVE-4.4.2-64Bit/optiga-trust-m/externals/mbedtls/library\oid.c **** #define ADD_LEN(s)      s, MBEDTLS_OID_SIZE(s)
  52:C:/Workspace/DAVE-4.4.2-64Bit/optiga-trust-m/externals/mbedtls/library\oid.c **** 
  53:C:/Workspace/DAVE-4.4.2-64Bit/optiga-trust-m/externals/mbedtls/library\oid.c **** /*
  54:C:/Workspace/DAVE-4.4.2-64Bit/optiga-trust-m/externals/mbedtls/library\oid.c ****  * Macro to generate an internal function for oid_XXX_from_asn1() (used by
  55:C:/Workspace/DAVE-4.4.2-64Bit/optiga-trust-m/externals/mbedtls/library\oid.c ****  * the other functions)
  56:C:/Workspace/DAVE-4.4.2-64Bit/optiga-trust-m/externals/mbedtls/library\oid.c ****  */
  57:C:/Workspace/DAVE-4.4.2-64Bit/optiga-trust-m/externals/mbedtls/library\oid.c **** #define FN_OID_TYPED_FROM_ASN1( TYPE_T, NAME, LIST )                        \
  58:C:/Workspace/DAVE-4.4.2-64Bit/optiga-trust-m/externals/mbedtls/library\oid.c **** static const TYPE_T * oid_ ## NAME ## _from_asn1( const mbedtls_asn1_buf *oid )     \
  59:C:/Workspace/DAVE-4.4.2-64Bit/optiga-trust-m/externals/mbedtls/library\oid.c **** {                                                                           \
  60:C:/Workspace/DAVE-4.4.2-64Bit/optiga-trust-m/externals/mbedtls/library\oid.c ****     const TYPE_T *p = LIST;                                                 \
  61:C:/Workspace/DAVE-4.4.2-64Bit/optiga-trust-m/externals/mbedtls/library\oid.c ****     const mbedtls_oid_descriptor_t *cur = (const mbedtls_oid_descriptor_t *) p;             \
  62:C:/Workspace/DAVE-4.4.2-64Bit/optiga-trust-m/externals/mbedtls/library\oid.c ****     if( p == NULL || oid == NULL ) return( NULL );                          \
  63:C:/Workspace/DAVE-4.4.2-64Bit/optiga-trust-m/externals/mbedtls/library\oid.c ****     while( cur->asn1 != NULL ) {                                            \
  64:C:/Workspace/DAVE-4.4.2-64Bit/optiga-trust-m/externals/mbedtls/library\oid.c ****         if( cur->asn1_len == oid->len &&                                    \
  65:C:/Workspace/DAVE-4.4.2-64Bit/optiga-trust-m/externals/mbedtls/library\oid.c ****             memcmp( cur->asn1, oid->p, oid->len ) == 0 ) {                  \
  66:C:/Workspace/DAVE-4.4.2-64Bit/optiga-trust-m/externals/mbedtls/library\oid.c ****             return( p );                                                    \
  67:C:/Workspace/DAVE-4.4.2-64Bit/optiga-trust-m/externals/mbedtls/library\oid.c ****         }                                                                   \
  68:C:/Workspace/DAVE-4.4.2-64Bit/optiga-trust-m/externals/mbedtls/library\oid.c ****         p++;                                                                \
  69:C:/Workspace/DAVE-4.4.2-64Bit/optiga-trust-m/externals/mbedtls/library\oid.c ****         cur = (const mbedtls_oid_descriptor_t *) p;                                 \
  70:C:/Workspace/DAVE-4.4.2-64Bit/optiga-trust-m/externals/mbedtls/library\oid.c ****     }                                                                       \
  71:C:/Workspace/DAVE-4.4.2-64Bit/optiga-trust-m/externals/mbedtls/library\oid.c ****     return( NULL );                                                         \
  72:C:/Workspace/DAVE-4.4.2-64Bit/optiga-trust-m/externals/mbedtls/library\oid.c **** }
  73:C:/Workspace/DAVE-4.4.2-64Bit/optiga-trust-m/externals/mbedtls/library\oid.c **** 
  74:C:/Workspace/DAVE-4.4.2-64Bit/optiga-trust-m/externals/mbedtls/library\oid.c **** /*
  75:C:/Workspace/DAVE-4.4.2-64Bit/optiga-trust-m/externals/mbedtls/library\oid.c ****  * Macro to generate a function for retrieving a single attribute from the
  76:C:/Workspace/DAVE-4.4.2-64Bit/optiga-trust-m/externals/mbedtls/library\oid.c ****  * descriptor of an mbedtls_oid_descriptor_t wrapper.
  77:C:/Workspace/DAVE-4.4.2-64Bit/optiga-trust-m/externals/mbedtls/library\oid.c ****  */
  78:C:/Workspace/DAVE-4.4.2-64Bit/optiga-trust-m/externals/mbedtls/library\oid.c **** #define FN_OID_GET_DESCRIPTOR_ATTR1(FN_NAME, TYPE_T, TYPE_NAME, ATTR1_TYPE, ATTR1) \
  79:C:/Workspace/DAVE-4.4.2-64Bit/optiga-trust-m/externals/mbedtls/library\oid.c **** int FN_NAME( const mbedtls_asn1_buf *oid, ATTR1_TYPE * ATTR1 )                  \
  80:C:/Workspace/DAVE-4.4.2-64Bit/optiga-trust-m/externals/mbedtls/library\oid.c **** {                                                                       \
  81:C:/Workspace/DAVE-4.4.2-64Bit/optiga-trust-m/externals/mbedtls/library\oid.c ****     const TYPE_T *data = oid_ ## TYPE_NAME ## _from_asn1( oid );        \
  82:C:/Workspace/DAVE-4.4.2-64Bit/optiga-trust-m/externals/mbedtls/library\oid.c ****     if( data == NULL ) return( MBEDTLS_ERR_OID_NOT_FOUND );            \
  83:C:/Workspace/DAVE-4.4.2-64Bit/optiga-trust-m/externals/mbedtls/library\oid.c ****     *ATTR1 = data->descriptor.ATTR1;                                    \
  84:C:/Workspace/DAVE-4.4.2-64Bit/optiga-trust-m/externals/mbedtls/library\oid.c ****     return( 0 );                                                        \
  85:C:/Workspace/DAVE-4.4.2-64Bit/optiga-trust-m/externals/mbedtls/library\oid.c **** }
  86:C:/Workspace/DAVE-4.4.2-64Bit/optiga-trust-m/externals/mbedtls/library\oid.c **** 
  87:C:/Workspace/DAVE-4.4.2-64Bit/optiga-trust-m/externals/mbedtls/library\oid.c **** /*
  88:C:/Workspace/DAVE-4.4.2-64Bit/optiga-trust-m/externals/mbedtls/library\oid.c ****  * Macro to generate a function for retrieving a single attribute from an
  89:C:/Workspace/DAVE-4.4.2-64Bit/optiga-trust-m/externals/mbedtls/library\oid.c ****  * mbedtls_oid_descriptor_t wrapper.
  90:C:/Workspace/DAVE-4.4.2-64Bit/optiga-trust-m/externals/mbedtls/library\oid.c ****  */
  91:C:/Workspace/DAVE-4.4.2-64Bit/optiga-trust-m/externals/mbedtls/library\oid.c **** #define FN_OID_GET_ATTR1(FN_NAME, TYPE_T, TYPE_NAME, ATTR1_TYPE, ATTR1) \
  92:C:/Workspace/DAVE-4.4.2-64Bit/optiga-trust-m/externals/mbedtls/library\oid.c **** int FN_NAME( const mbedtls_asn1_buf *oid, ATTR1_TYPE * ATTR1 )                  \
  93:C:/Workspace/DAVE-4.4.2-64Bit/optiga-trust-m/externals/mbedtls/library\oid.c **** {                                                                       \
  94:C:/Workspace/DAVE-4.4.2-64Bit/optiga-trust-m/externals/mbedtls/library\oid.c ****     const TYPE_T *data = oid_ ## TYPE_NAME ## _from_asn1( oid );        \
  95:C:/Workspace/DAVE-4.4.2-64Bit/optiga-trust-m/externals/mbedtls/library\oid.c ****     if( data == NULL ) return( MBEDTLS_ERR_OID_NOT_FOUND );            \
  96:C:/Workspace/DAVE-4.4.2-64Bit/optiga-trust-m/externals/mbedtls/library\oid.c ****     *ATTR1 = data->ATTR1;                                               \
  97:C:/Workspace/DAVE-4.4.2-64Bit/optiga-trust-m/externals/mbedtls/library\oid.c ****     return( 0 );                                                        \
  98:C:/Workspace/DAVE-4.4.2-64Bit/optiga-trust-m/externals/mbedtls/library\oid.c **** }
  99:C:/Workspace/DAVE-4.4.2-64Bit/optiga-trust-m/externals/mbedtls/library\oid.c **** 
 100:C:/Workspace/DAVE-4.4.2-64Bit/optiga-trust-m/externals/mbedtls/library\oid.c **** /*
 101:C:/Workspace/DAVE-4.4.2-64Bit/optiga-trust-m/externals/mbedtls/library\oid.c ****  * Macro to generate a function for retrieving two attributes from an
 102:C:/Workspace/DAVE-4.4.2-64Bit/optiga-trust-m/externals/mbedtls/library\oid.c ****  * mbedtls_oid_descriptor_t wrapper.
 103:C:/Workspace/DAVE-4.4.2-64Bit/optiga-trust-m/externals/mbedtls/library\oid.c ****  */
 104:C:/Workspace/DAVE-4.4.2-64Bit/optiga-trust-m/externals/mbedtls/library\oid.c **** #define FN_OID_GET_ATTR2(FN_NAME, TYPE_T, TYPE_NAME, ATTR1_TYPE, ATTR1,     \
 105:C:/Workspace/DAVE-4.4.2-64Bit/optiga-trust-m/externals/mbedtls/library\oid.c ****                          ATTR2_TYPE, ATTR2)                                 \
 106:C:/Workspace/DAVE-4.4.2-64Bit/optiga-trust-m/externals/mbedtls/library\oid.c **** int FN_NAME( const mbedtls_asn1_buf *oid, ATTR1_TYPE * ATTR1, ATTR2_TYPE * ATTR2 )  \
 107:C:/Workspace/DAVE-4.4.2-64Bit/optiga-trust-m/externals/mbedtls/library\oid.c **** {                                                                           \
 108:C:/Workspace/DAVE-4.4.2-64Bit/optiga-trust-m/externals/mbedtls/library\oid.c ****     const TYPE_T *data = oid_ ## TYPE_NAME ## _from_asn1( oid );            \
 109:C:/Workspace/DAVE-4.4.2-64Bit/optiga-trust-m/externals/mbedtls/library\oid.c ****     if( data == NULL ) return( MBEDTLS_ERR_OID_NOT_FOUND );                \
 110:C:/Workspace/DAVE-4.4.2-64Bit/optiga-trust-m/externals/mbedtls/library\oid.c ****     *ATTR1 = data->ATTR1;                                                   \
 111:C:/Workspace/DAVE-4.4.2-64Bit/optiga-trust-m/externals/mbedtls/library\oid.c ****     *ATTR2 = data->ATTR2;                                                   \
 112:C:/Workspace/DAVE-4.4.2-64Bit/optiga-trust-m/externals/mbedtls/library\oid.c ****     return( 0 );                                                            \
 113:C:/Workspace/DAVE-4.4.2-64Bit/optiga-trust-m/externals/mbedtls/library\oid.c **** }
 114:C:/Workspace/DAVE-4.4.2-64Bit/optiga-trust-m/externals/mbedtls/library\oid.c **** 
 115:C:/Workspace/DAVE-4.4.2-64Bit/optiga-trust-m/externals/mbedtls/library\oid.c **** /*
 116:C:/Workspace/DAVE-4.4.2-64Bit/optiga-trust-m/externals/mbedtls/library\oid.c ****  * Macro to generate a function for retrieving the OID based on a single
 117:C:/Workspace/DAVE-4.4.2-64Bit/optiga-trust-m/externals/mbedtls/library\oid.c ****  * attribute from a mbedtls_oid_descriptor_t wrapper.
 118:C:/Workspace/DAVE-4.4.2-64Bit/optiga-trust-m/externals/mbedtls/library\oid.c ****  */
 119:C:/Workspace/DAVE-4.4.2-64Bit/optiga-trust-m/externals/mbedtls/library\oid.c **** #define FN_OID_GET_OID_BY_ATTR1(FN_NAME, TYPE_T, LIST, ATTR1_TYPE, ATTR1)   \
 120:C:/Workspace/DAVE-4.4.2-64Bit/optiga-trust-m/externals/mbedtls/library\oid.c **** int FN_NAME( ATTR1_TYPE ATTR1, const char **oid, size_t *olen )             \
 121:C:/Workspace/DAVE-4.4.2-64Bit/optiga-trust-m/externals/mbedtls/library\oid.c **** {                                                                           \
 122:C:/Workspace/DAVE-4.4.2-64Bit/optiga-trust-m/externals/mbedtls/library\oid.c ****     const TYPE_T *cur = LIST;                                               \
 123:C:/Workspace/DAVE-4.4.2-64Bit/optiga-trust-m/externals/mbedtls/library\oid.c ****     while( cur->descriptor.asn1 != NULL ) {                                 \
 124:C:/Workspace/DAVE-4.4.2-64Bit/optiga-trust-m/externals/mbedtls/library\oid.c ****         if( cur->ATTR1 == ATTR1 ) {                                         \
 125:C:/Workspace/DAVE-4.4.2-64Bit/optiga-trust-m/externals/mbedtls/library\oid.c ****             *oid = cur->descriptor.asn1;                                    \
 126:C:/Workspace/DAVE-4.4.2-64Bit/optiga-trust-m/externals/mbedtls/library\oid.c ****             *olen = cur->descriptor.asn1_len;                               \
 127:C:/Workspace/DAVE-4.4.2-64Bit/optiga-trust-m/externals/mbedtls/library\oid.c ****             return( 0 );                                                    \
 128:C:/Workspace/DAVE-4.4.2-64Bit/optiga-trust-m/externals/mbedtls/library\oid.c ****         }                                                                   \
 129:C:/Workspace/DAVE-4.4.2-64Bit/optiga-trust-m/externals/mbedtls/library\oid.c ****         cur++;                                                              \
 130:C:/Workspace/DAVE-4.4.2-64Bit/optiga-trust-m/externals/mbedtls/library\oid.c ****     }                                                                       \
 131:C:/Workspace/DAVE-4.4.2-64Bit/optiga-trust-m/externals/mbedtls/library\oid.c ****     return( MBEDTLS_ERR_OID_NOT_FOUND );                                   \
 132:C:/Workspace/DAVE-4.4.2-64Bit/optiga-trust-m/externals/mbedtls/library\oid.c **** }
 133:C:/Workspace/DAVE-4.4.2-64Bit/optiga-trust-m/externals/mbedtls/library\oid.c **** 
 134:C:/Workspace/DAVE-4.4.2-64Bit/optiga-trust-m/externals/mbedtls/library\oid.c **** /*
 135:C:/Workspace/DAVE-4.4.2-64Bit/optiga-trust-m/externals/mbedtls/library\oid.c ****  * Macro to generate a function for retrieving the OID based on two
 136:C:/Workspace/DAVE-4.4.2-64Bit/optiga-trust-m/externals/mbedtls/library\oid.c ****  * attributes from a mbedtls_oid_descriptor_t wrapper.
 137:C:/Workspace/DAVE-4.4.2-64Bit/optiga-trust-m/externals/mbedtls/library\oid.c ****  */
 138:C:/Workspace/DAVE-4.4.2-64Bit/optiga-trust-m/externals/mbedtls/library\oid.c **** #define FN_OID_GET_OID_BY_ATTR2(FN_NAME, TYPE_T, LIST, ATTR1_TYPE, ATTR1,   \
 139:C:/Workspace/DAVE-4.4.2-64Bit/optiga-trust-m/externals/mbedtls/library\oid.c ****                                 ATTR2_TYPE, ATTR2)                          \
 140:C:/Workspace/DAVE-4.4.2-64Bit/optiga-trust-m/externals/mbedtls/library\oid.c **** int FN_NAME( ATTR1_TYPE ATTR1, ATTR2_TYPE ATTR2, const char **oid ,         \
 141:C:/Workspace/DAVE-4.4.2-64Bit/optiga-trust-m/externals/mbedtls/library\oid.c ****              size_t *olen )                                                 \
 142:C:/Workspace/DAVE-4.4.2-64Bit/optiga-trust-m/externals/mbedtls/library\oid.c **** {                                                                           \
 143:C:/Workspace/DAVE-4.4.2-64Bit/optiga-trust-m/externals/mbedtls/library\oid.c ****     const TYPE_T *cur = LIST;                                               \
 144:C:/Workspace/DAVE-4.4.2-64Bit/optiga-trust-m/externals/mbedtls/library\oid.c ****     while( cur->descriptor.asn1 != NULL ) {                                 \
 145:C:/Workspace/DAVE-4.4.2-64Bit/optiga-trust-m/externals/mbedtls/library\oid.c ****         if( cur->ATTR1 == ATTR1 && cur->ATTR2 == ATTR2 ) {                  \
 146:C:/Workspace/DAVE-4.4.2-64Bit/optiga-trust-m/externals/mbedtls/library\oid.c ****             *oid = cur->descriptor.asn1;                                    \
 147:C:/Workspace/DAVE-4.4.2-64Bit/optiga-trust-m/externals/mbedtls/library\oid.c ****             *olen = cur->descriptor.asn1_len;                               \
 148:C:/Workspace/DAVE-4.4.2-64Bit/optiga-trust-m/externals/mbedtls/library\oid.c ****             return( 0 );                                                    \
 149:C:/Workspace/DAVE-4.4.2-64Bit/optiga-trust-m/externals/mbedtls/library\oid.c ****         }                                                                   \
 150:C:/Workspace/DAVE-4.4.2-64Bit/optiga-trust-m/externals/mbedtls/library\oid.c ****         cur++;                                                              \
 151:C:/Workspace/DAVE-4.4.2-64Bit/optiga-trust-m/externals/mbedtls/library\oid.c ****     }                                                                       \
 152:C:/Workspace/DAVE-4.4.2-64Bit/optiga-trust-m/externals/mbedtls/library\oid.c ****     return( MBEDTLS_ERR_OID_NOT_FOUND );                                   \
 153:C:/Workspace/DAVE-4.4.2-64Bit/optiga-trust-m/externals/mbedtls/library\oid.c **** }
 154:C:/Workspace/DAVE-4.4.2-64Bit/optiga-trust-m/externals/mbedtls/library\oid.c **** 
 155:C:/Workspace/DAVE-4.4.2-64Bit/optiga-trust-m/externals/mbedtls/library\oid.c **** #if defined(MBEDTLS_X509_USE_C) || defined(MBEDTLS_X509_CREATE_C)
 156:C:/Workspace/DAVE-4.4.2-64Bit/optiga-trust-m/externals/mbedtls/library\oid.c **** /*
 157:C:/Workspace/DAVE-4.4.2-64Bit/optiga-trust-m/externals/mbedtls/library\oid.c ****  * For X520 attribute types
 158:C:/Workspace/DAVE-4.4.2-64Bit/optiga-trust-m/externals/mbedtls/library\oid.c ****  */
 159:C:/Workspace/DAVE-4.4.2-64Bit/optiga-trust-m/externals/mbedtls/library\oid.c **** typedef struct {
 160:C:/Workspace/DAVE-4.4.2-64Bit/optiga-trust-m/externals/mbedtls/library\oid.c ****     mbedtls_oid_descriptor_t    descriptor;
 161:C:/Workspace/DAVE-4.4.2-64Bit/optiga-trust-m/externals/mbedtls/library\oid.c ****     const char          *short_name;
 162:C:/Workspace/DAVE-4.4.2-64Bit/optiga-trust-m/externals/mbedtls/library\oid.c **** } oid_x520_attr_t;
 163:C:/Workspace/DAVE-4.4.2-64Bit/optiga-trust-m/externals/mbedtls/library\oid.c **** 
 164:C:/Workspace/DAVE-4.4.2-64Bit/optiga-trust-m/externals/mbedtls/library\oid.c **** static const oid_x520_attr_t oid_x520_attr_type[] =
 165:C:/Workspace/DAVE-4.4.2-64Bit/optiga-trust-m/externals/mbedtls/library\oid.c **** {
 166:C:/Workspace/DAVE-4.4.2-64Bit/optiga-trust-m/externals/mbedtls/library\oid.c ****     {
 167:C:/Workspace/DAVE-4.4.2-64Bit/optiga-trust-m/externals/mbedtls/library\oid.c ****         { ADD_LEN( MBEDTLS_OID_AT_CN ),          "id-at-commonName",               "Common Name" },
 168:C:/Workspace/DAVE-4.4.2-64Bit/optiga-trust-m/externals/mbedtls/library\oid.c ****         "CN",
 169:C:/Workspace/DAVE-4.4.2-64Bit/optiga-trust-m/externals/mbedtls/library\oid.c ****     },
 170:C:/Workspace/DAVE-4.4.2-64Bit/optiga-trust-m/externals/mbedtls/library\oid.c ****     {
 171:C:/Workspace/DAVE-4.4.2-64Bit/optiga-trust-m/externals/mbedtls/library\oid.c ****         { ADD_LEN( MBEDTLS_OID_AT_COUNTRY ),     "id-at-countryName",              "Country" },
 172:C:/Workspace/DAVE-4.4.2-64Bit/optiga-trust-m/externals/mbedtls/library\oid.c ****         "C",
 173:C:/Workspace/DAVE-4.4.2-64Bit/optiga-trust-m/externals/mbedtls/library\oid.c ****     },
 174:C:/Workspace/DAVE-4.4.2-64Bit/optiga-trust-m/externals/mbedtls/library\oid.c ****     {
 175:C:/Workspace/DAVE-4.4.2-64Bit/optiga-trust-m/externals/mbedtls/library\oid.c ****         { ADD_LEN( MBEDTLS_OID_AT_LOCALITY ),    "id-at-locality",                 "Locality" },
 176:C:/Workspace/DAVE-4.4.2-64Bit/optiga-trust-m/externals/mbedtls/library\oid.c ****         "L",
 177:C:/Workspace/DAVE-4.4.2-64Bit/optiga-trust-m/externals/mbedtls/library\oid.c ****     },
 178:C:/Workspace/DAVE-4.4.2-64Bit/optiga-trust-m/externals/mbedtls/library\oid.c ****     {
 179:C:/Workspace/DAVE-4.4.2-64Bit/optiga-trust-m/externals/mbedtls/library\oid.c ****         { ADD_LEN( MBEDTLS_OID_AT_STATE ),       "id-at-state",                    "State" },
 180:C:/Workspace/DAVE-4.4.2-64Bit/optiga-trust-m/externals/mbedtls/library\oid.c ****         "ST",
 181:C:/Workspace/DAVE-4.4.2-64Bit/optiga-trust-m/externals/mbedtls/library\oid.c ****     },
 182:C:/Workspace/DAVE-4.4.2-64Bit/optiga-trust-m/externals/mbedtls/library\oid.c ****     {
 183:C:/Workspace/DAVE-4.4.2-64Bit/optiga-trust-m/externals/mbedtls/library\oid.c ****         { ADD_LEN( MBEDTLS_OID_AT_ORGANIZATION ),"id-at-organizationName",         "Organization" }
 184:C:/Workspace/DAVE-4.4.2-64Bit/optiga-trust-m/externals/mbedtls/library\oid.c ****         "O",
 185:C:/Workspace/DAVE-4.4.2-64Bit/optiga-trust-m/externals/mbedtls/library\oid.c ****     },
 186:C:/Workspace/DAVE-4.4.2-64Bit/optiga-trust-m/externals/mbedtls/library\oid.c ****     {
 187:C:/Workspace/DAVE-4.4.2-64Bit/optiga-trust-m/externals/mbedtls/library\oid.c ****         { ADD_LEN( MBEDTLS_OID_AT_ORG_UNIT ),    "id-at-organizationalUnitName",   "Org Unit" },
 188:C:/Workspace/DAVE-4.4.2-64Bit/optiga-trust-m/externals/mbedtls/library\oid.c ****         "OU",
 189:C:/Workspace/DAVE-4.4.2-64Bit/optiga-trust-m/externals/mbedtls/library\oid.c ****     },
 190:C:/Workspace/DAVE-4.4.2-64Bit/optiga-trust-m/externals/mbedtls/library\oid.c ****     {
 191:C:/Workspace/DAVE-4.4.2-64Bit/optiga-trust-m/externals/mbedtls/library\oid.c ****         { ADD_LEN( MBEDTLS_OID_PKCS9_EMAIL ),    "emailAddress",                   "E-mail address"
 192:C:/Workspace/DAVE-4.4.2-64Bit/optiga-trust-m/externals/mbedtls/library\oid.c ****         "emailAddress",
 193:C:/Workspace/DAVE-4.4.2-64Bit/optiga-trust-m/externals/mbedtls/library\oid.c ****     },
 194:C:/Workspace/DAVE-4.4.2-64Bit/optiga-trust-m/externals/mbedtls/library\oid.c ****     {
 195:C:/Workspace/DAVE-4.4.2-64Bit/optiga-trust-m/externals/mbedtls/library\oid.c ****         { ADD_LEN( MBEDTLS_OID_AT_SERIAL_NUMBER ),"id-at-serialNumber",            "Serial number" 
 196:C:/Workspace/DAVE-4.4.2-64Bit/optiga-trust-m/externals/mbedtls/library\oid.c ****         "serialNumber",
 197:C:/Workspace/DAVE-4.4.2-64Bit/optiga-trust-m/externals/mbedtls/library\oid.c ****     },
 198:C:/Workspace/DAVE-4.4.2-64Bit/optiga-trust-m/externals/mbedtls/library\oid.c ****     {
 199:C:/Workspace/DAVE-4.4.2-64Bit/optiga-trust-m/externals/mbedtls/library\oid.c ****         { ADD_LEN( MBEDTLS_OID_AT_POSTAL_ADDRESS ),"id-at-postalAddress",          "Postal address"
 200:C:/Workspace/DAVE-4.4.2-64Bit/optiga-trust-m/externals/mbedtls/library\oid.c ****         "postalAddress",
 201:C:/Workspace/DAVE-4.4.2-64Bit/optiga-trust-m/externals/mbedtls/library\oid.c ****     },
 202:C:/Workspace/DAVE-4.4.2-64Bit/optiga-trust-m/externals/mbedtls/library\oid.c ****     {
 203:C:/Workspace/DAVE-4.4.2-64Bit/optiga-trust-m/externals/mbedtls/library\oid.c ****         { ADD_LEN( MBEDTLS_OID_AT_POSTAL_CODE ), "id-at-postalCode",               "Postal code" },
 204:C:/Workspace/DAVE-4.4.2-64Bit/optiga-trust-m/externals/mbedtls/library\oid.c ****         "postalCode",
 205:C:/Workspace/DAVE-4.4.2-64Bit/optiga-trust-m/externals/mbedtls/library\oid.c ****     },
 206:C:/Workspace/DAVE-4.4.2-64Bit/optiga-trust-m/externals/mbedtls/library\oid.c ****     {
 207:C:/Workspace/DAVE-4.4.2-64Bit/optiga-trust-m/externals/mbedtls/library\oid.c ****         { ADD_LEN( MBEDTLS_OID_AT_SUR_NAME ),    "id-at-surName",                  "Surname" },
 208:C:/Workspace/DAVE-4.4.2-64Bit/optiga-trust-m/externals/mbedtls/library\oid.c ****         "SN",
 209:C:/Workspace/DAVE-4.4.2-64Bit/optiga-trust-m/externals/mbedtls/library\oid.c ****     },
 210:C:/Workspace/DAVE-4.4.2-64Bit/optiga-trust-m/externals/mbedtls/library\oid.c ****     {
 211:C:/Workspace/DAVE-4.4.2-64Bit/optiga-trust-m/externals/mbedtls/library\oid.c ****         { ADD_LEN( MBEDTLS_OID_AT_GIVEN_NAME ),  "id-at-givenName",                "Given name" },
 212:C:/Workspace/DAVE-4.4.2-64Bit/optiga-trust-m/externals/mbedtls/library\oid.c ****         "GN",
 213:C:/Workspace/DAVE-4.4.2-64Bit/optiga-trust-m/externals/mbedtls/library\oid.c ****     },
 214:C:/Workspace/DAVE-4.4.2-64Bit/optiga-trust-m/externals/mbedtls/library\oid.c ****     {
 215:C:/Workspace/DAVE-4.4.2-64Bit/optiga-trust-m/externals/mbedtls/library\oid.c ****         { ADD_LEN( MBEDTLS_OID_AT_INITIALS ),    "id-at-initials",                 "Initials" },
 216:C:/Workspace/DAVE-4.4.2-64Bit/optiga-trust-m/externals/mbedtls/library\oid.c ****         "initials",
 217:C:/Workspace/DAVE-4.4.2-64Bit/optiga-trust-m/externals/mbedtls/library\oid.c ****     },
 218:C:/Workspace/DAVE-4.4.2-64Bit/optiga-trust-m/externals/mbedtls/library\oid.c ****     {
 219:C:/Workspace/DAVE-4.4.2-64Bit/optiga-trust-m/externals/mbedtls/library\oid.c ****         { ADD_LEN( MBEDTLS_OID_AT_GENERATION_QUALIFIER ), "id-at-generationQualifier", "Generation 
 220:C:/Workspace/DAVE-4.4.2-64Bit/optiga-trust-m/externals/mbedtls/library\oid.c ****         "generationQualifier",
 221:C:/Workspace/DAVE-4.4.2-64Bit/optiga-trust-m/externals/mbedtls/library\oid.c ****     },
 222:C:/Workspace/DAVE-4.4.2-64Bit/optiga-trust-m/externals/mbedtls/library\oid.c ****     {
 223:C:/Workspace/DAVE-4.4.2-64Bit/optiga-trust-m/externals/mbedtls/library\oid.c ****         { ADD_LEN( MBEDTLS_OID_AT_TITLE ),       "id-at-title",                    "Title" },
 224:C:/Workspace/DAVE-4.4.2-64Bit/optiga-trust-m/externals/mbedtls/library\oid.c ****         "title",
 225:C:/Workspace/DAVE-4.4.2-64Bit/optiga-trust-m/externals/mbedtls/library\oid.c ****     },
 226:C:/Workspace/DAVE-4.4.2-64Bit/optiga-trust-m/externals/mbedtls/library\oid.c ****     {
 227:C:/Workspace/DAVE-4.4.2-64Bit/optiga-trust-m/externals/mbedtls/library\oid.c ****         { ADD_LEN( MBEDTLS_OID_AT_DN_QUALIFIER ),"id-at-dnQualifier",              "Distinguished N
 228:C:/Workspace/DAVE-4.4.2-64Bit/optiga-trust-m/externals/mbedtls/library\oid.c ****         "dnQualifier",
 229:C:/Workspace/DAVE-4.4.2-64Bit/optiga-trust-m/externals/mbedtls/library\oid.c ****     },
 230:C:/Workspace/DAVE-4.4.2-64Bit/optiga-trust-m/externals/mbedtls/library\oid.c ****     {
 231:C:/Workspace/DAVE-4.4.2-64Bit/optiga-trust-m/externals/mbedtls/library\oid.c ****         { ADD_LEN( MBEDTLS_OID_AT_PSEUDONYM ),   "id-at-pseudonym",                "Pseudonym" },
 232:C:/Workspace/DAVE-4.4.2-64Bit/optiga-trust-m/externals/mbedtls/library\oid.c ****         "pseudonym",
 233:C:/Workspace/DAVE-4.4.2-64Bit/optiga-trust-m/externals/mbedtls/library\oid.c ****     },
 234:C:/Workspace/DAVE-4.4.2-64Bit/optiga-trust-m/externals/mbedtls/library\oid.c ****     {
 235:C:/Workspace/DAVE-4.4.2-64Bit/optiga-trust-m/externals/mbedtls/library\oid.c ****         { ADD_LEN( MBEDTLS_OID_DOMAIN_COMPONENT ), "id-domainComponent",           "Domain componen
 236:C:/Workspace/DAVE-4.4.2-64Bit/optiga-trust-m/externals/mbedtls/library\oid.c ****         "DC",
 237:C:/Workspace/DAVE-4.4.2-64Bit/optiga-trust-m/externals/mbedtls/library\oid.c ****     },
 238:C:/Workspace/DAVE-4.4.2-64Bit/optiga-trust-m/externals/mbedtls/library\oid.c ****     {
 239:C:/Workspace/DAVE-4.4.2-64Bit/optiga-trust-m/externals/mbedtls/library\oid.c ****         { ADD_LEN( MBEDTLS_OID_AT_UNIQUE_IDENTIFIER ), "id-at-uniqueIdentifier",    "Unique Identif
 240:C:/Workspace/DAVE-4.4.2-64Bit/optiga-trust-m/externals/mbedtls/library\oid.c ****         "uniqueIdentifier",
 241:C:/Workspace/DAVE-4.4.2-64Bit/optiga-trust-m/externals/mbedtls/library\oid.c ****     },
 242:C:/Workspace/DAVE-4.4.2-64Bit/optiga-trust-m/externals/mbedtls/library\oid.c ****     {
 243:C:/Workspace/DAVE-4.4.2-64Bit/optiga-trust-m/externals/mbedtls/library\oid.c ****         { NULL, 0, NULL, NULL },
 244:C:/Workspace/DAVE-4.4.2-64Bit/optiga-trust-m/externals/mbedtls/library\oid.c ****         NULL,
 245:C:/Workspace/DAVE-4.4.2-64Bit/optiga-trust-m/externals/mbedtls/library\oid.c ****     }
 246:C:/Workspace/DAVE-4.4.2-64Bit/optiga-trust-m/externals/mbedtls/library\oid.c **** };
 247:C:/Workspace/DAVE-4.4.2-64Bit/optiga-trust-m/externals/mbedtls/library\oid.c **** 
 248:C:/Workspace/DAVE-4.4.2-64Bit/optiga-trust-m/externals/mbedtls/library\oid.c **** FN_OID_TYPED_FROM_ASN1(oid_x520_attr_t, x520_attr, oid_x520_attr_type)
 249:C:/Workspace/DAVE-4.4.2-64Bit/optiga-trust-m/externals/mbedtls/library\oid.c **** FN_OID_GET_ATTR1(mbedtls_oid_get_attr_short_name, oid_x520_attr_t, x520_attr, const char *, short_n
  26              	 .loc 1 249 0
  27              	 .cfi_startproc
  28              	.LVL0:
  29 0000 70B5     	 push {r4,r5,r6,lr}
  30              	.LCFI0:
  31              	 .cfi_def_cfa_offset 16
  32              	 .cfi_offset 4,-16
  33              	 .cfi_offset 5,-12
  34              	 .cfi_offset 6,-8
  35              	 .cfi_offset 14,-4
  36              	.LBB8:
  37              	.LBB9:
 248:C:/Workspace/DAVE-4.4.2-64Bit/optiga-trust-m/externals/mbedtls/library\oid.c **** FN_OID_GET_ATTR1(mbedtls_oid_get_attr_short_name, oid_x520_attr_t, x520_attr, const char *, short_n
  38              	 .loc 1 248 0
  39 0002 0028     	 cmp r0,#0
  40 0004 15D0     	 beq .L6
  41 0006 0E1C     	 mov r6,r1
  42 0008 051C     	 mov r5,r0
  43 000a 0B4C     	 ldr r4,.L9
  44              	.LVL1:
  45              	.L3:
  46 000c 2068     	 ldr r0,[r4]
  47 000e 0028     	 cmp r0,#0
  48 0010 0DD0     	 beq .L8
  49 0012 6268     	 ldr r2,[r4,#4]
  50 0014 6B68     	 ldr r3,[r5,#4]
  51 0016 9A42     	 cmp r2,r3
  52 0018 07D1     	 bne .L4
  53 001a A968     	 ldr r1,[r5,#8]
  54 001c FFF7FEFF 	 bl memcmp
  55              	.LVL2:
  56 0020 0028     	 cmp r0,#0
  57 0022 02D1     	 bne .L4
  58              	.LBE9:
  59              	.LBE8:
  60              	 .loc 1 249 0
  61 0024 2369     	 ldr r3,[r4,#16]
  62 0026 3360     	 str r3,[r6]
  63 0028 05E0     	 b .L2
  64              	.L4:
  65              	.LBB11:
  66              	.LBB10:
 248:C:/Workspace/DAVE-4.4.2-64Bit/optiga-trust-m/externals/mbedtls/library\oid.c **** FN_OID_GET_ATTR1(mbedtls_oid_get_attr_short_name, oid_x520_attr_t, x520_attr, const char *, short_n
  67              	 .loc 1 248 0
  68 002a 1434     	 add r4,r4,#20
  69              	.LVL3:
  70 002c EEE7     	 b .L3
  71              	.L8:
  72              	.LBE10:
  73              	.LBE11:
  74              	 .loc 1 249 0
  75 002e 2E38     	 sub r0,r0,#46
  76 0030 01E0     	 b .L2
  77              	.LVL4:
  78              	.L6:
  79 0032 2E20     	 mov r0,#46
  80              	.LVL5:
  81 0034 4042     	 neg r0,r0
  82              	.LVL6:
  83              	.L2:
  84              	 
  85 0036 70BD     	 pop {r4,r5,r6,pc}
  86              	.L10:
  87              	 .align 2
  88              	.L9:
  89 0038 00000000 	 .word .LANCHOR0
  90              	 .cfi_endproc
  91              	.LFE10:
  93              	 .section .text.mbedtls_oid_get_x509_ext_type,"ax",%progbits
  94              	 .align 1
  95              	 .global mbedtls_oid_get_x509_ext_type
  96              	 .code 16
  97              	 .thumb_func
  99              	mbedtls_oid_get_x509_ext_type:
 100              	.LFB12:
 250:C:/Workspace/DAVE-4.4.2-64Bit/optiga-trust-m/externals/mbedtls/library\oid.c **** 
 251:C:/Workspace/DAVE-4.4.2-64Bit/optiga-trust-m/externals/mbedtls/library\oid.c **** /*
 252:C:/Workspace/DAVE-4.4.2-64Bit/optiga-trust-m/externals/mbedtls/library\oid.c ****  * For X509 extensions
 253:C:/Workspace/DAVE-4.4.2-64Bit/optiga-trust-m/externals/mbedtls/library\oid.c ****  */
 254:C:/Workspace/DAVE-4.4.2-64Bit/optiga-trust-m/externals/mbedtls/library\oid.c **** typedef struct {
 255:C:/Workspace/DAVE-4.4.2-64Bit/optiga-trust-m/externals/mbedtls/library\oid.c ****     mbedtls_oid_descriptor_t    descriptor;
 256:C:/Workspace/DAVE-4.4.2-64Bit/optiga-trust-m/externals/mbedtls/library\oid.c ****     int                 ext_type;
 257:C:/Workspace/DAVE-4.4.2-64Bit/optiga-trust-m/externals/mbedtls/library\oid.c **** } oid_x509_ext_t;
 258:C:/Workspace/DAVE-4.4.2-64Bit/optiga-trust-m/externals/mbedtls/library\oid.c **** 
 259:C:/Workspace/DAVE-4.4.2-64Bit/optiga-trust-m/externals/mbedtls/library\oid.c **** static const oid_x509_ext_t oid_x509_ext[] =
 260:C:/Workspace/DAVE-4.4.2-64Bit/optiga-trust-m/externals/mbedtls/library\oid.c **** {
 261:C:/Workspace/DAVE-4.4.2-64Bit/optiga-trust-m/externals/mbedtls/library\oid.c ****     {
 262:C:/Workspace/DAVE-4.4.2-64Bit/optiga-trust-m/externals/mbedtls/library\oid.c ****         { ADD_LEN( MBEDTLS_OID_BASIC_CONSTRAINTS ),    "id-ce-basicConstraints",   "Basic Constrain
 263:C:/Workspace/DAVE-4.4.2-64Bit/optiga-trust-m/externals/mbedtls/library\oid.c ****         MBEDTLS_X509_EXT_BASIC_CONSTRAINTS,
 264:C:/Workspace/DAVE-4.4.2-64Bit/optiga-trust-m/externals/mbedtls/library\oid.c ****     },
 265:C:/Workspace/DAVE-4.4.2-64Bit/optiga-trust-m/externals/mbedtls/library\oid.c ****     {
 266:C:/Workspace/DAVE-4.4.2-64Bit/optiga-trust-m/externals/mbedtls/library\oid.c ****         { ADD_LEN( MBEDTLS_OID_KEY_USAGE ),            "id-ce-keyUsage",           "Key Usage" },
 267:C:/Workspace/DAVE-4.4.2-64Bit/optiga-trust-m/externals/mbedtls/library\oid.c ****         MBEDTLS_X509_EXT_KEY_USAGE,
 268:C:/Workspace/DAVE-4.4.2-64Bit/optiga-trust-m/externals/mbedtls/library\oid.c ****     },
 269:C:/Workspace/DAVE-4.4.2-64Bit/optiga-trust-m/externals/mbedtls/library\oid.c ****     {
 270:C:/Workspace/DAVE-4.4.2-64Bit/optiga-trust-m/externals/mbedtls/library\oid.c ****         { ADD_LEN( MBEDTLS_OID_EXTENDED_KEY_USAGE ),   "id-ce-extKeyUsage",        "Extended Key Us
 271:C:/Workspace/DAVE-4.4.2-64Bit/optiga-trust-m/externals/mbedtls/library\oid.c ****         MBEDTLS_X509_EXT_EXTENDED_KEY_USAGE,
 272:C:/Workspace/DAVE-4.4.2-64Bit/optiga-trust-m/externals/mbedtls/library\oid.c ****     },
 273:C:/Workspace/DAVE-4.4.2-64Bit/optiga-trust-m/externals/mbedtls/library\oid.c ****     {
 274:C:/Workspace/DAVE-4.4.2-64Bit/optiga-trust-m/externals/mbedtls/library\oid.c ****         { ADD_LEN( MBEDTLS_OID_SUBJECT_ALT_NAME ),     "id-ce-subjectAltName",     "Subject Alt Nam
 275:C:/Workspace/DAVE-4.4.2-64Bit/optiga-trust-m/externals/mbedtls/library\oid.c ****         MBEDTLS_X509_EXT_SUBJECT_ALT_NAME,
 276:C:/Workspace/DAVE-4.4.2-64Bit/optiga-trust-m/externals/mbedtls/library\oid.c ****     },
 277:C:/Workspace/DAVE-4.4.2-64Bit/optiga-trust-m/externals/mbedtls/library\oid.c ****     {
 278:C:/Workspace/DAVE-4.4.2-64Bit/optiga-trust-m/externals/mbedtls/library\oid.c ****         { ADD_LEN( MBEDTLS_OID_NS_CERT_TYPE ),         "id-netscape-certtype",     "Netscape Certif
 279:C:/Workspace/DAVE-4.4.2-64Bit/optiga-trust-m/externals/mbedtls/library\oid.c ****         MBEDTLS_X509_EXT_NS_CERT_TYPE,
 280:C:/Workspace/DAVE-4.4.2-64Bit/optiga-trust-m/externals/mbedtls/library\oid.c ****     },
 281:C:/Workspace/DAVE-4.4.2-64Bit/optiga-trust-m/externals/mbedtls/library\oid.c ****     {
 282:C:/Workspace/DAVE-4.4.2-64Bit/optiga-trust-m/externals/mbedtls/library\oid.c ****         { NULL, 0, NULL, NULL },
 283:C:/Workspace/DAVE-4.4.2-64Bit/optiga-trust-m/externals/mbedtls/library\oid.c ****         0,
 284:C:/Workspace/DAVE-4.4.2-64Bit/optiga-trust-m/externals/mbedtls/library\oid.c ****     },
 285:C:/Workspace/DAVE-4.4.2-64Bit/optiga-trust-m/externals/mbedtls/library\oid.c **** };
 286:C:/Workspace/DAVE-4.4.2-64Bit/optiga-trust-m/externals/mbedtls/library\oid.c **** 
 287:C:/Workspace/DAVE-4.4.2-64Bit/optiga-trust-m/externals/mbedtls/library\oid.c **** FN_OID_TYPED_FROM_ASN1(oid_x509_ext_t, x509_ext, oid_x509_ext)
 288:C:/Workspace/DAVE-4.4.2-64Bit/optiga-trust-m/externals/mbedtls/library\oid.c **** FN_OID_GET_ATTR1(mbedtls_oid_get_x509_ext_type, oid_x509_ext_t, x509_ext, int, ext_type)
 101              	 .loc 1 288 0
 102              	 .cfi_startproc
 103              	.LVL7:
 104 0000 70B5     	 push {r4,r5,r6,lr}
 105              	.LCFI1:
 106              	 .cfi_def_cfa_offset 16
 107              	 .cfi_offset 4,-16
 108              	 .cfi_offset 5,-12
 109              	 .cfi_offset 6,-8
 110              	 .cfi_offset 14,-4
 111              	.LBB14:
 112              	.LBB15:
 287:C:/Workspace/DAVE-4.4.2-64Bit/optiga-trust-m/externals/mbedtls/library\oid.c **** FN_OID_GET_ATTR1(mbedtls_oid_get_x509_ext_type, oid_x509_ext_t, x509_ext, int, ext_type)
 113              	 .loc 1 287 0
 114 0002 0028     	 cmp r0,#0
 115 0004 15D0     	 beq .L16
 116 0006 0E1C     	 mov r6,r1
 117 0008 051C     	 mov r5,r0
 118 000a 0B4C     	 ldr r4,.L18
 119              	.LVL8:
 120              	.L13:
 121 000c 2068     	 ldr r0,[r4]
 122 000e 0028     	 cmp r0,#0
 123 0010 0DD0     	 beq .L17
 124 0012 6268     	 ldr r2,[r4,#4]
 125 0014 6B68     	 ldr r3,[r5,#4]
 126 0016 9A42     	 cmp r2,r3
 127 0018 07D1     	 bne .L14
 128 001a A968     	 ldr r1,[r5,#8]
 129 001c FFF7FEFF 	 bl memcmp
 130              	.LVL9:
 131 0020 0028     	 cmp r0,#0
 132 0022 02D1     	 bne .L14
 133              	.LBE15:
 134              	.LBE14:
 135              	 .loc 1 288 0
 136 0024 2369     	 ldr r3,[r4,#16]
 137 0026 3360     	 str r3,[r6]
 138 0028 05E0     	 b .L12
 139              	.L14:
 140              	.LBB17:
 141              	.LBB16:
 287:C:/Workspace/DAVE-4.4.2-64Bit/optiga-trust-m/externals/mbedtls/library\oid.c **** FN_OID_GET_ATTR1(mbedtls_oid_get_x509_ext_type, oid_x509_ext_t, x509_ext, int, ext_type)
 142              	 .loc 1 287 0
 143 002a 1434     	 add r4,r4,#20
 144              	.LVL10:
 145 002c EEE7     	 b .L13
 146              	.L17:
 147              	.LBE16:
 148              	.LBE17:
 149              	 .loc 1 288 0
 150 002e 2E38     	 sub r0,r0,#46
 151 0030 01E0     	 b .L12
 152              	.LVL11:
 153              	.L16:
 154 0032 2E20     	 mov r0,#46
 155              	.LVL12:
 156 0034 4042     	 neg r0,r0
 157              	.LVL13:
 158              	.L12:
 159              	 
 160 0036 70BD     	 pop {r4,r5,r6,pc}
 161              	.L19:
 162              	 .align 2
 163              	.L18:
 164 0038 00000000 	 .word .LANCHOR1
 165              	 .cfi_endproc
 166              	.LFE12:
 168              	 .section .text.mbedtls_oid_get_extended_key_usage,"ax",%progbits
 169              	 .align 1
 170              	 .global mbedtls_oid_get_extended_key_usage
 171              	 .code 16
 172              	 .thumb_func
 174              	mbedtls_oid_get_extended_key_usage:
 175              	.LFB14:
 289:C:/Workspace/DAVE-4.4.2-64Bit/optiga-trust-m/externals/mbedtls/library\oid.c **** 
 290:C:/Workspace/DAVE-4.4.2-64Bit/optiga-trust-m/externals/mbedtls/library\oid.c **** static const mbedtls_oid_descriptor_t oid_ext_key_usage[] =
 291:C:/Workspace/DAVE-4.4.2-64Bit/optiga-trust-m/externals/mbedtls/library\oid.c **** {
 292:C:/Workspace/DAVE-4.4.2-64Bit/optiga-trust-m/externals/mbedtls/library\oid.c ****     { ADD_LEN( MBEDTLS_OID_SERVER_AUTH ),      "id-kp-serverAuth",      "TLS Web Server Authenticat
 293:C:/Workspace/DAVE-4.4.2-64Bit/optiga-trust-m/externals/mbedtls/library\oid.c ****     { ADD_LEN( MBEDTLS_OID_CLIENT_AUTH ),      "id-kp-clientAuth",      "TLS Web Client Authenticat
 294:C:/Workspace/DAVE-4.4.2-64Bit/optiga-trust-m/externals/mbedtls/library\oid.c ****     { ADD_LEN( MBEDTLS_OID_CODE_SIGNING ),     "id-kp-codeSigning",     "Code Signing" },
 295:C:/Workspace/DAVE-4.4.2-64Bit/optiga-trust-m/externals/mbedtls/library\oid.c ****     { ADD_LEN( MBEDTLS_OID_EMAIL_PROTECTION ), "id-kp-emailProtection", "E-mail Protection" },
 296:C:/Workspace/DAVE-4.4.2-64Bit/optiga-trust-m/externals/mbedtls/library\oid.c ****     { ADD_LEN( MBEDTLS_OID_TIME_STAMPING ),    "id-kp-timeStamping",    "Time Stamping" },
 297:C:/Workspace/DAVE-4.4.2-64Bit/optiga-trust-m/externals/mbedtls/library\oid.c ****     { ADD_LEN( MBEDTLS_OID_OCSP_SIGNING ),     "id-kp-OCSPSigning",     "OCSP Signing" },
 298:C:/Workspace/DAVE-4.4.2-64Bit/optiga-trust-m/externals/mbedtls/library\oid.c ****     { NULL, 0, NULL, NULL },
 299:C:/Workspace/DAVE-4.4.2-64Bit/optiga-trust-m/externals/mbedtls/library\oid.c **** };
 300:C:/Workspace/DAVE-4.4.2-64Bit/optiga-trust-m/externals/mbedtls/library\oid.c **** 
 301:C:/Workspace/DAVE-4.4.2-64Bit/optiga-trust-m/externals/mbedtls/library\oid.c **** FN_OID_TYPED_FROM_ASN1(mbedtls_oid_descriptor_t, ext_key_usage, oid_ext_key_usage)
 302:C:/Workspace/DAVE-4.4.2-64Bit/optiga-trust-m/externals/mbedtls/library\oid.c **** FN_OID_GET_ATTR1(mbedtls_oid_get_extended_key_usage, mbedtls_oid_descriptor_t, ext_key_usage, const
 176              	 .loc 1 302 0
 177              	 .cfi_startproc
 178              	.LVL14:
 179 0000 70B5     	 push {r4,r5,r6,lr}
 180              	.LCFI2:
 181              	 .cfi_def_cfa_offset 16
 182              	 .cfi_offset 4,-16
 183              	 .cfi_offset 5,-12
 184              	 .cfi_offset 6,-8
 185              	 .cfi_offset 14,-4
 186              	.LBB20:
 187              	.LBB21:
 301:C:/Workspace/DAVE-4.4.2-64Bit/optiga-trust-m/externals/mbedtls/library\oid.c **** FN_OID_GET_ATTR1(mbedtls_oid_get_extended_key_usage, mbedtls_oid_descriptor_t, ext_key_usage, const
 188              	 .loc 1 301 0
 189 0002 0028     	 cmp r0,#0
 190 0004 15D0     	 beq .L25
 191 0006 0E1C     	 mov r6,r1
 192 0008 051C     	 mov r5,r0
 193 000a 0B4C     	 ldr r4,.L27
 194              	.LVL15:
 195              	.L22:
 196 000c 2068     	 ldr r0,[r4]
 197 000e 0028     	 cmp r0,#0
 198 0010 0DD0     	 beq .L26
 199 0012 6268     	 ldr r2,[r4,#4]
 200 0014 6B68     	 ldr r3,[r5,#4]
 201 0016 9A42     	 cmp r2,r3
 202 0018 07D1     	 bne .L23
 203 001a A968     	 ldr r1,[r5,#8]
 204 001c FFF7FEFF 	 bl memcmp
 205              	.LVL16:
 206 0020 0028     	 cmp r0,#0
 207 0022 02D1     	 bne .L23
 208              	.LBE21:
 209              	.LBE20:
 210              	 .loc 1 302 0
 211 0024 E368     	 ldr r3,[r4,#12]
 212 0026 3360     	 str r3,[r6]
 213 0028 05E0     	 b .L21
 214              	.L23:
 215              	.LBB23:
 216              	.LBB22:
 301:C:/Workspace/DAVE-4.4.2-64Bit/optiga-trust-m/externals/mbedtls/library\oid.c **** FN_OID_GET_ATTR1(mbedtls_oid_get_extended_key_usage, mbedtls_oid_descriptor_t, ext_key_usage, const
 217              	 .loc 1 301 0
 218 002a 1034     	 add r4,r4,#16
 219              	.LVL17:
 220 002c EEE7     	 b .L22
 221              	.L26:
 222              	.LBE22:
 223              	.LBE23:
 224              	 .loc 1 302 0
 225 002e 2E38     	 sub r0,r0,#46
 226 0030 01E0     	 b .L21
 227              	.LVL18:
 228              	.L25:
 229 0032 2E20     	 mov r0,#46
 230              	.LVL19:
 231 0034 4042     	 neg r0,r0
 232              	.LVL20:
 233              	.L21:
 234              	 
 235 0036 70BD     	 pop {r4,r5,r6,pc}
 236              	.L28:
 237              	 .align 2
 238              	.L27:
 239 0038 00000000 	 .word .LANCHOR2
 240              	 .cfi_endproc
 241              	.LFE14:
 243              	 .section .text.mbedtls_oid_get_sig_alg_desc,"ax",%progbits
 244              	 .align 1
 245              	 .global mbedtls_oid_get_sig_alg_desc
 246              	 .code 16
 247              	 .thumb_func
 249              	mbedtls_oid_get_sig_alg_desc:
 250              	.LFB16:
 303:C:/Workspace/DAVE-4.4.2-64Bit/optiga-trust-m/externals/mbedtls/library\oid.c **** #endif /* MBEDTLS_X509_USE_C || MBEDTLS_X509_CREATE_C */
 304:C:/Workspace/DAVE-4.4.2-64Bit/optiga-trust-m/externals/mbedtls/library\oid.c **** 
 305:C:/Workspace/DAVE-4.4.2-64Bit/optiga-trust-m/externals/mbedtls/library\oid.c **** #if defined(MBEDTLS_MD_C)
 306:C:/Workspace/DAVE-4.4.2-64Bit/optiga-trust-m/externals/mbedtls/library\oid.c **** /*
 307:C:/Workspace/DAVE-4.4.2-64Bit/optiga-trust-m/externals/mbedtls/library\oid.c ****  * For SignatureAlgorithmIdentifier
 308:C:/Workspace/DAVE-4.4.2-64Bit/optiga-trust-m/externals/mbedtls/library\oid.c ****  */
 309:C:/Workspace/DAVE-4.4.2-64Bit/optiga-trust-m/externals/mbedtls/library\oid.c **** typedef struct {
 310:C:/Workspace/DAVE-4.4.2-64Bit/optiga-trust-m/externals/mbedtls/library\oid.c ****     mbedtls_oid_descriptor_t    descriptor;
 311:C:/Workspace/DAVE-4.4.2-64Bit/optiga-trust-m/externals/mbedtls/library\oid.c ****     mbedtls_md_type_t           md_alg;
 312:C:/Workspace/DAVE-4.4.2-64Bit/optiga-trust-m/externals/mbedtls/library\oid.c ****     mbedtls_pk_type_t           pk_alg;
 313:C:/Workspace/DAVE-4.4.2-64Bit/optiga-trust-m/externals/mbedtls/library\oid.c **** } oid_sig_alg_t;
 314:C:/Workspace/DAVE-4.4.2-64Bit/optiga-trust-m/externals/mbedtls/library\oid.c **** 
 315:C:/Workspace/DAVE-4.4.2-64Bit/optiga-trust-m/externals/mbedtls/library\oid.c **** static const oid_sig_alg_t oid_sig_alg[] =
 316:C:/Workspace/DAVE-4.4.2-64Bit/optiga-trust-m/externals/mbedtls/library\oid.c **** {
 317:C:/Workspace/DAVE-4.4.2-64Bit/optiga-trust-m/externals/mbedtls/library\oid.c **** #if defined(MBEDTLS_RSA_C)
 318:C:/Workspace/DAVE-4.4.2-64Bit/optiga-trust-m/externals/mbedtls/library\oid.c **** #if defined(MBEDTLS_MD2_C)
 319:C:/Workspace/DAVE-4.4.2-64Bit/optiga-trust-m/externals/mbedtls/library\oid.c ****     {
 320:C:/Workspace/DAVE-4.4.2-64Bit/optiga-trust-m/externals/mbedtls/library\oid.c ****         { ADD_LEN( MBEDTLS_OID_PKCS1_MD2 ),        "md2WithRSAEncryption",     "RSA with MD2" },
 321:C:/Workspace/DAVE-4.4.2-64Bit/optiga-trust-m/externals/mbedtls/library\oid.c ****         MBEDTLS_MD_MD2,      MBEDTLS_PK_RSA,
 322:C:/Workspace/DAVE-4.4.2-64Bit/optiga-trust-m/externals/mbedtls/library\oid.c ****     },
 323:C:/Workspace/DAVE-4.4.2-64Bit/optiga-trust-m/externals/mbedtls/library\oid.c **** #endif /* MBEDTLS_MD2_C */
 324:C:/Workspace/DAVE-4.4.2-64Bit/optiga-trust-m/externals/mbedtls/library\oid.c **** #if defined(MBEDTLS_MD4_C)
 325:C:/Workspace/DAVE-4.4.2-64Bit/optiga-trust-m/externals/mbedtls/library\oid.c ****     {
 326:C:/Workspace/DAVE-4.4.2-64Bit/optiga-trust-m/externals/mbedtls/library\oid.c ****         { ADD_LEN( MBEDTLS_OID_PKCS1_MD4 ),        "md4WithRSAEncryption",     "RSA with MD4" },
 327:C:/Workspace/DAVE-4.4.2-64Bit/optiga-trust-m/externals/mbedtls/library\oid.c ****         MBEDTLS_MD_MD4,      MBEDTLS_PK_RSA,
 328:C:/Workspace/DAVE-4.4.2-64Bit/optiga-trust-m/externals/mbedtls/library\oid.c ****     },
 329:C:/Workspace/DAVE-4.4.2-64Bit/optiga-trust-m/externals/mbedtls/library\oid.c **** #endif /* MBEDTLS_MD4_C */
 330:C:/Workspace/DAVE-4.4.2-64Bit/optiga-trust-m/externals/mbedtls/library\oid.c **** #if defined(MBEDTLS_MD5_C)
 331:C:/Workspace/DAVE-4.4.2-64Bit/optiga-trust-m/externals/mbedtls/library\oid.c ****     {
 332:C:/Workspace/DAVE-4.4.2-64Bit/optiga-trust-m/externals/mbedtls/library\oid.c ****         { ADD_LEN( MBEDTLS_OID_PKCS1_MD5 ),        "md5WithRSAEncryption",     "RSA with MD5" },
 333:C:/Workspace/DAVE-4.4.2-64Bit/optiga-trust-m/externals/mbedtls/library\oid.c ****         MBEDTLS_MD_MD5,      MBEDTLS_PK_RSA,
 334:C:/Workspace/DAVE-4.4.2-64Bit/optiga-trust-m/externals/mbedtls/library\oid.c ****     },
 335:C:/Workspace/DAVE-4.4.2-64Bit/optiga-trust-m/externals/mbedtls/library\oid.c **** #endif /* MBEDTLS_MD5_C */
 336:C:/Workspace/DAVE-4.4.2-64Bit/optiga-trust-m/externals/mbedtls/library\oid.c **** #if defined(MBEDTLS_SHA1_C)
 337:C:/Workspace/DAVE-4.4.2-64Bit/optiga-trust-m/externals/mbedtls/library\oid.c ****     {
 338:C:/Workspace/DAVE-4.4.2-64Bit/optiga-trust-m/externals/mbedtls/library\oid.c ****         { ADD_LEN( MBEDTLS_OID_PKCS1_SHA1 ),       "sha-1WithRSAEncryption",   "RSA with SHA1" },
 339:C:/Workspace/DAVE-4.4.2-64Bit/optiga-trust-m/externals/mbedtls/library\oid.c ****         MBEDTLS_MD_SHA1,     MBEDTLS_PK_RSA,
 340:C:/Workspace/DAVE-4.4.2-64Bit/optiga-trust-m/externals/mbedtls/library\oid.c ****     },
 341:C:/Workspace/DAVE-4.4.2-64Bit/optiga-trust-m/externals/mbedtls/library\oid.c **** #endif /* MBEDTLS_SHA1_C */
 342:C:/Workspace/DAVE-4.4.2-64Bit/optiga-trust-m/externals/mbedtls/library\oid.c **** #if defined(MBEDTLS_SHA256_C)
 343:C:/Workspace/DAVE-4.4.2-64Bit/optiga-trust-m/externals/mbedtls/library\oid.c ****     {
 344:C:/Workspace/DAVE-4.4.2-64Bit/optiga-trust-m/externals/mbedtls/library\oid.c ****         { ADD_LEN( MBEDTLS_OID_PKCS1_SHA224 ),     "sha224WithRSAEncryption",  "RSA with SHA-224" }
 345:C:/Workspace/DAVE-4.4.2-64Bit/optiga-trust-m/externals/mbedtls/library\oid.c ****         MBEDTLS_MD_SHA224,   MBEDTLS_PK_RSA,
 346:C:/Workspace/DAVE-4.4.2-64Bit/optiga-trust-m/externals/mbedtls/library\oid.c ****     },
 347:C:/Workspace/DAVE-4.4.2-64Bit/optiga-trust-m/externals/mbedtls/library\oid.c ****     {
 348:C:/Workspace/DAVE-4.4.2-64Bit/optiga-trust-m/externals/mbedtls/library\oid.c ****         { ADD_LEN( MBEDTLS_OID_PKCS1_SHA256 ),     "sha256WithRSAEncryption",  "RSA with SHA-256" }
 349:C:/Workspace/DAVE-4.4.2-64Bit/optiga-trust-m/externals/mbedtls/library\oid.c ****         MBEDTLS_MD_SHA256,   MBEDTLS_PK_RSA,
 350:C:/Workspace/DAVE-4.4.2-64Bit/optiga-trust-m/externals/mbedtls/library\oid.c ****     },
 351:C:/Workspace/DAVE-4.4.2-64Bit/optiga-trust-m/externals/mbedtls/library\oid.c **** #endif /* MBEDTLS_SHA256_C */
 352:C:/Workspace/DAVE-4.4.2-64Bit/optiga-trust-m/externals/mbedtls/library\oid.c **** #if defined(MBEDTLS_SHA512_C)
 353:C:/Workspace/DAVE-4.4.2-64Bit/optiga-trust-m/externals/mbedtls/library\oid.c ****     {
 354:C:/Workspace/DAVE-4.4.2-64Bit/optiga-trust-m/externals/mbedtls/library\oid.c ****         { ADD_LEN( MBEDTLS_OID_PKCS1_SHA384 ),     "sha384WithRSAEncryption",  "RSA with SHA-384" }
 355:C:/Workspace/DAVE-4.4.2-64Bit/optiga-trust-m/externals/mbedtls/library\oid.c ****         MBEDTLS_MD_SHA384,   MBEDTLS_PK_RSA,
 356:C:/Workspace/DAVE-4.4.2-64Bit/optiga-trust-m/externals/mbedtls/library\oid.c ****     },
 357:C:/Workspace/DAVE-4.4.2-64Bit/optiga-trust-m/externals/mbedtls/library\oid.c ****     {
 358:C:/Workspace/DAVE-4.4.2-64Bit/optiga-trust-m/externals/mbedtls/library\oid.c ****         { ADD_LEN( MBEDTLS_OID_PKCS1_SHA512 ),     "sha512WithRSAEncryption",  "RSA with SHA-512" }
 359:C:/Workspace/DAVE-4.4.2-64Bit/optiga-trust-m/externals/mbedtls/library\oid.c ****         MBEDTLS_MD_SHA512,   MBEDTLS_PK_RSA,
 360:C:/Workspace/DAVE-4.4.2-64Bit/optiga-trust-m/externals/mbedtls/library\oid.c ****     },
 361:C:/Workspace/DAVE-4.4.2-64Bit/optiga-trust-m/externals/mbedtls/library\oid.c **** #endif /* MBEDTLS_SHA512_C */
 362:C:/Workspace/DAVE-4.4.2-64Bit/optiga-trust-m/externals/mbedtls/library\oid.c **** #if defined(MBEDTLS_SHA1_C)
 363:C:/Workspace/DAVE-4.4.2-64Bit/optiga-trust-m/externals/mbedtls/library\oid.c ****     {
 364:C:/Workspace/DAVE-4.4.2-64Bit/optiga-trust-m/externals/mbedtls/library\oid.c ****         { ADD_LEN( MBEDTLS_OID_RSA_SHA_OBS ),      "sha-1WithRSAEncryption",   "RSA with SHA1" },
 365:C:/Workspace/DAVE-4.4.2-64Bit/optiga-trust-m/externals/mbedtls/library\oid.c ****         MBEDTLS_MD_SHA1,     MBEDTLS_PK_RSA,
 366:C:/Workspace/DAVE-4.4.2-64Bit/optiga-trust-m/externals/mbedtls/library\oid.c ****     },
 367:C:/Workspace/DAVE-4.4.2-64Bit/optiga-trust-m/externals/mbedtls/library\oid.c **** #endif /* MBEDTLS_SHA1_C */
 368:C:/Workspace/DAVE-4.4.2-64Bit/optiga-trust-m/externals/mbedtls/library\oid.c **** #endif /* MBEDTLS_RSA_C */
 369:C:/Workspace/DAVE-4.4.2-64Bit/optiga-trust-m/externals/mbedtls/library\oid.c **** #if defined(MBEDTLS_ECDSA_C)
 370:C:/Workspace/DAVE-4.4.2-64Bit/optiga-trust-m/externals/mbedtls/library\oid.c **** #if defined(MBEDTLS_SHA1_C)
 371:C:/Workspace/DAVE-4.4.2-64Bit/optiga-trust-m/externals/mbedtls/library\oid.c ****     {
 372:C:/Workspace/DAVE-4.4.2-64Bit/optiga-trust-m/externals/mbedtls/library\oid.c ****         { ADD_LEN( MBEDTLS_OID_ECDSA_SHA1 ),       "ecdsa-with-SHA1",      "ECDSA with SHA1" },
 373:C:/Workspace/DAVE-4.4.2-64Bit/optiga-trust-m/externals/mbedtls/library\oid.c ****         MBEDTLS_MD_SHA1,     MBEDTLS_PK_ECDSA,
 374:C:/Workspace/DAVE-4.4.2-64Bit/optiga-trust-m/externals/mbedtls/library\oid.c ****     },
 375:C:/Workspace/DAVE-4.4.2-64Bit/optiga-trust-m/externals/mbedtls/library\oid.c **** #endif /* MBEDTLS_SHA1_C */
 376:C:/Workspace/DAVE-4.4.2-64Bit/optiga-trust-m/externals/mbedtls/library\oid.c **** #if defined(MBEDTLS_SHA256_C)
 377:C:/Workspace/DAVE-4.4.2-64Bit/optiga-trust-m/externals/mbedtls/library\oid.c ****     {
 378:C:/Workspace/DAVE-4.4.2-64Bit/optiga-trust-m/externals/mbedtls/library\oid.c ****         { ADD_LEN( MBEDTLS_OID_ECDSA_SHA224 ),     "ecdsa-with-SHA224",    "ECDSA with SHA224" },
 379:C:/Workspace/DAVE-4.4.2-64Bit/optiga-trust-m/externals/mbedtls/library\oid.c ****         MBEDTLS_MD_SHA224,   MBEDTLS_PK_ECDSA,
 380:C:/Workspace/DAVE-4.4.2-64Bit/optiga-trust-m/externals/mbedtls/library\oid.c ****     },
 381:C:/Workspace/DAVE-4.4.2-64Bit/optiga-trust-m/externals/mbedtls/library\oid.c ****     {
 382:C:/Workspace/DAVE-4.4.2-64Bit/optiga-trust-m/externals/mbedtls/library\oid.c ****         { ADD_LEN( MBEDTLS_OID_ECDSA_SHA256 ),     "ecdsa-with-SHA256",    "ECDSA with SHA256" },
 383:C:/Workspace/DAVE-4.4.2-64Bit/optiga-trust-m/externals/mbedtls/library\oid.c ****         MBEDTLS_MD_SHA256,   MBEDTLS_PK_ECDSA,
 384:C:/Workspace/DAVE-4.4.2-64Bit/optiga-trust-m/externals/mbedtls/library\oid.c ****     },
 385:C:/Workspace/DAVE-4.4.2-64Bit/optiga-trust-m/externals/mbedtls/library\oid.c **** #endif /* MBEDTLS_SHA256_C */
 386:C:/Workspace/DAVE-4.4.2-64Bit/optiga-trust-m/externals/mbedtls/library\oid.c **** #if defined(MBEDTLS_SHA512_C)
 387:C:/Workspace/DAVE-4.4.2-64Bit/optiga-trust-m/externals/mbedtls/library\oid.c ****     {
 388:C:/Workspace/DAVE-4.4.2-64Bit/optiga-trust-m/externals/mbedtls/library\oid.c ****         { ADD_LEN( MBEDTLS_OID_ECDSA_SHA384 ),     "ecdsa-with-SHA384",    "ECDSA with SHA384" },
 389:C:/Workspace/DAVE-4.4.2-64Bit/optiga-trust-m/externals/mbedtls/library\oid.c ****         MBEDTLS_MD_SHA384,   MBEDTLS_PK_ECDSA,
 390:C:/Workspace/DAVE-4.4.2-64Bit/optiga-trust-m/externals/mbedtls/library\oid.c ****     },
 391:C:/Workspace/DAVE-4.4.2-64Bit/optiga-trust-m/externals/mbedtls/library\oid.c ****     {
 392:C:/Workspace/DAVE-4.4.2-64Bit/optiga-trust-m/externals/mbedtls/library\oid.c ****         { ADD_LEN( MBEDTLS_OID_ECDSA_SHA512 ),     "ecdsa-with-SHA512",    "ECDSA with SHA512" },
 393:C:/Workspace/DAVE-4.4.2-64Bit/optiga-trust-m/externals/mbedtls/library\oid.c ****         MBEDTLS_MD_SHA512,   MBEDTLS_PK_ECDSA,
 394:C:/Workspace/DAVE-4.4.2-64Bit/optiga-trust-m/externals/mbedtls/library\oid.c ****     },
 395:C:/Workspace/DAVE-4.4.2-64Bit/optiga-trust-m/externals/mbedtls/library\oid.c **** #endif /* MBEDTLS_SHA512_C */
 396:C:/Workspace/DAVE-4.4.2-64Bit/optiga-trust-m/externals/mbedtls/library\oid.c **** #endif /* MBEDTLS_ECDSA_C */
 397:C:/Workspace/DAVE-4.4.2-64Bit/optiga-trust-m/externals/mbedtls/library\oid.c **** #if defined(MBEDTLS_RSA_C)
 398:C:/Workspace/DAVE-4.4.2-64Bit/optiga-trust-m/externals/mbedtls/library\oid.c ****     {
 399:C:/Workspace/DAVE-4.4.2-64Bit/optiga-trust-m/externals/mbedtls/library\oid.c ****         { ADD_LEN( MBEDTLS_OID_RSASSA_PSS ),        "RSASSA-PSS",           "RSASSA-PSS" },
 400:C:/Workspace/DAVE-4.4.2-64Bit/optiga-trust-m/externals/mbedtls/library\oid.c ****         MBEDTLS_MD_NONE,     MBEDTLS_PK_RSASSA_PSS,
 401:C:/Workspace/DAVE-4.4.2-64Bit/optiga-trust-m/externals/mbedtls/library\oid.c ****     },
 402:C:/Workspace/DAVE-4.4.2-64Bit/optiga-trust-m/externals/mbedtls/library\oid.c **** #endif /* MBEDTLS_RSA_C */
 403:C:/Workspace/DAVE-4.4.2-64Bit/optiga-trust-m/externals/mbedtls/library\oid.c ****     {
 404:C:/Workspace/DAVE-4.4.2-64Bit/optiga-trust-m/externals/mbedtls/library\oid.c ****         { NULL, 0, NULL, NULL },
 405:C:/Workspace/DAVE-4.4.2-64Bit/optiga-trust-m/externals/mbedtls/library\oid.c ****         MBEDTLS_MD_NONE, MBEDTLS_PK_NONE,
 406:C:/Workspace/DAVE-4.4.2-64Bit/optiga-trust-m/externals/mbedtls/library\oid.c ****     },
 407:C:/Workspace/DAVE-4.4.2-64Bit/optiga-trust-m/externals/mbedtls/library\oid.c **** };
 408:C:/Workspace/DAVE-4.4.2-64Bit/optiga-trust-m/externals/mbedtls/library\oid.c **** 
 409:C:/Workspace/DAVE-4.4.2-64Bit/optiga-trust-m/externals/mbedtls/library\oid.c **** FN_OID_TYPED_FROM_ASN1(oid_sig_alg_t, sig_alg, oid_sig_alg)
 410:C:/Workspace/DAVE-4.4.2-64Bit/optiga-trust-m/externals/mbedtls/library\oid.c **** FN_OID_GET_DESCRIPTOR_ATTR1(mbedtls_oid_get_sig_alg_desc, oid_sig_alg_t, sig_alg, const char *, des
 251              	 .loc 1 410 0
 252              	 .cfi_startproc
 253              	.LVL21:
 254              	 .loc 1 410 0
 255 0000 2E20     	 mov r0,#46
 256              	.LVL22:
 257              	 
 258 0002 4042     	 neg r0,r0
 259 0004 7047     	 bx lr
 260              	 .cfi_endproc
 261              	.LFE16:
 263              	 .section .text.mbedtls_oid_get_sig_alg,"ax",%progbits
 264              	 .align 1
 265              	 .global mbedtls_oid_get_sig_alg
 266              	 .code 16
 267              	 .thumb_func
 269              	mbedtls_oid_get_sig_alg:
 270              	.LFB17:
 411:C:/Workspace/DAVE-4.4.2-64Bit/optiga-trust-m/externals/mbedtls/library\oid.c **** FN_OID_GET_ATTR2(mbedtls_oid_get_sig_alg, oid_sig_alg_t, sig_alg, mbedtls_md_type_t, md_alg, mbedtl
 271              	 .loc 1 411 0
 272              	 .cfi_startproc
 273              	.LVL23:
 274              	 .loc 1 411 0
 275 0000 2E20     	 mov r0,#46
 276              	.LVL24:
 277              	 
 278 0002 4042     	 neg r0,r0
 279 0004 7047     	 bx lr
 280              	 .cfi_endproc
 281              	.LFE17:
 283              	 .section .text.mbedtls_oid_get_oid_by_sig_alg,"ax",%progbits
 284              	 .align 1
 285              	 .global mbedtls_oid_get_oid_by_sig_alg
 286              	 .code 16
 287              	 .thumb_func
 289              	mbedtls_oid_get_oid_by_sig_alg:
 290              	.LFB18:
 412:C:/Workspace/DAVE-4.4.2-64Bit/optiga-trust-m/externals/mbedtls/library\oid.c **** FN_OID_GET_OID_BY_ATTR2(mbedtls_oid_get_oid_by_sig_alg, oid_sig_alg_t, oid_sig_alg, mbedtls_pk_type
 291              	 .loc 1 412 0
 292              	 .cfi_startproc
 293              	.LVL25:
 294              	 .loc 1 412 0
 295 0000 2E20     	 mov r0,#46
 296              	.LVL26:
 297              	 
 298 0002 4042     	 neg r0,r0
 299 0004 7047     	 bx lr
 300              	 .cfi_endproc
 301              	.LFE18:
 303              	 .section .text.mbedtls_oid_get_pk_alg,"ax",%progbits
 304              	 .align 1
 305              	 .global mbedtls_oid_get_pk_alg
 306              	 .code 16
 307              	 .thumb_func
 309              	mbedtls_oid_get_pk_alg:
 310              	.LFB20:
 413:C:/Workspace/DAVE-4.4.2-64Bit/optiga-trust-m/externals/mbedtls/library\oid.c **** #endif /* MBEDTLS_MD_C */
 414:C:/Workspace/DAVE-4.4.2-64Bit/optiga-trust-m/externals/mbedtls/library\oid.c **** 
 415:C:/Workspace/DAVE-4.4.2-64Bit/optiga-trust-m/externals/mbedtls/library\oid.c **** /*
 416:C:/Workspace/DAVE-4.4.2-64Bit/optiga-trust-m/externals/mbedtls/library\oid.c ****  * For PublicKeyInfo (PKCS1, RFC 5480)
 417:C:/Workspace/DAVE-4.4.2-64Bit/optiga-trust-m/externals/mbedtls/library\oid.c ****  */
 418:C:/Workspace/DAVE-4.4.2-64Bit/optiga-trust-m/externals/mbedtls/library\oid.c **** typedef struct {
 419:C:/Workspace/DAVE-4.4.2-64Bit/optiga-trust-m/externals/mbedtls/library\oid.c ****     mbedtls_oid_descriptor_t    descriptor;
 420:C:/Workspace/DAVE-4.4.2-64Bit/optiga-trust-m/externals/mbedtls/library\oid.c ****     mbedtls_pk_type_t           pk_alg;
 421:C:/Workspace/DAVE-4.4.2-64Bit/optiga-trust-m/externals/mbedtls/library\oid.c **** } oid_pk_alg_t;
 422:C:/Workspace/DAVE-4.4.2-64Bit/optiga-trust-m/externals/mbedtls/library\oid.c **** 
 423:C:/Workspace/DAVE-4.4.2-64Bit/optiga-trust-m/externals/mbedtls/library\oid.c **** static const oid_pk_alg_t oid_pk_alg[] =
 424:C:/Workspace/DAVE-4.4.2-64Bit/optiga-trust-m/externals/mbedtls/library\oid.c **** {
 425:C:/Workspace/DAVE-4.4.2-64Bit/optiga-trust-m/externals/mbedtls/library\oid.c ****     {
 426:C:/Workspace/DAVE-4.4.2-64Bit/optiga-trust-m/externals/mbedtls/library\oid.c ****         { ADD_LEN( MBEDTLS_OID_PKCS1_RSA ),      "rsaEncryption",   "RSA" },
 427:C:/Workspace/DAVE-4.4.2-64Bit/optiga-trust-m/externals/mbedtls/library\oid.c ****         MBEDTLS_PK_RSA,
 428:C:/Workspace/DAVE-4.4.2-64Bit/optiga-trust-m/externals/mbedtls/library\oid.c ****     },
 429:C:/Workspace/DAVE-4.4.2-64Bit/optiga-trust-m/externals/mbedtls/library\oid.c ****     {
 430:C:/Workspace/DAVE-4.4.2-64Bit/optiga-trust-m/externals/mbedtls/library\oid.c ****         { ADD_LEN( MBEDTLS_OID_EC_ALG_UNRESTRICTED ),  "id-ecPublicKey",   "Generic EC key" },
 431:C:/Workspace/DAVE-4.4.2-64Bit/optiga-trust-m/externals/mbedtls/library\oid.c ****         MBEDTLS_PK_ECKEY,
 432:C:/Workspace/DAVE-4.4.2-64Bit/optiga-trust-m/externals/mbedtls/library\oid.c ****     },
 433:C:/Workspace/DAVE-4.4.2-64Bit/optiga-trust-m/externals/mbedtls/library\oid.c ****     {
 434:C:/Workspace/DAVE-4.4.2-64Bit/optiga-trust-m/externals/mbedtls/library\oid.c ****         { ADD_LEN( MBEDTLS_OID_EC_ALG_ECDH ),          "id-ecDH",          "EC key for ECDH" },
 435:C:/Workspace/DAVE-4.4.2-64Bit/optiga-trust-m/externals/mbedtls/library\oid.c ****         MBEDTLS_PK_ECKEY_DH,
 436:C:/Workspace/DAVE-4.4.2-64Bit/optiga-trust-m/externals/mbedtls/library\oid.c ****     },
 437:C:/Workspace/DAVE-4.4.2-64Bit/optiga-trust-m/externals/mbedtls/library\oid.c ****     {
 438:C:/Workspace/DAVE-4.4.2-64Bit/optiga-trust-m/externals/mbedtls/library\oid.c ****         { NULL, 0, NULL, NULL },
 439:C:/Workspace/DAVE-4.4.2-64Bit/optiga-trust-m/externals/mbedtls/library\oid.c ****         MBEDTLS_PK_NONE,
 440:C:/Workspace/DAVE-4.4.2-64Bit/optiga-trust-m/externals/mbedtls/library\oid.c ****     },
 441:C:/Workspace/DAVE-4.4.2-64Bit/optiga-trust-m/externals/mbedtls/library\oid.c **** };
 442:C:/Workspace/DAVE-4.4.2-64Bit/optiga-trust-m/externals/mbedtls/library\oid.c **** 
 443:C:/Workspace/DAVE-4.4.2-64Bit/optiga-trust-m/externals/mbedtls/library\oid.c **** FN_OID_TYPED_FROM_ASN1(oid_pk_alg_t, pk_alg, oid_pk_alg)
 444:C:/Workspace/DAVE-4.4.2-64Bit/optiga-trust-m/externals/mbedtls/library\oid.c **** FN_OID_GET_ATTR1(mbedtls_oid_get_pk_alg, oid_pk_alg_t, pk_alg, mbedtls_pk_type_t, pk_alg)
 311              	 .loc 1 444 0
 312              	 .cfi_startproc
 313              	.LVL27:
 314 0000 70B5     	 push {r4,r5,r6,lr}
 315              	.LCFI3:
 316              	 .cfi_def_cfa_offset 16
 317              	 .cfi_offset 4,-16
 318              	 .cfi_offset 5,-12
 319              	 .cfi_offset 6,-8
 320              	 .cfi_offset 14,-4
 321              	.LBB26:
 322              	.LBB27:
 443:C:/Workspace/DAVE-4.4.2-64Bit/optiga-trust-m/externals/mbedtls/library\oid.c **** FN_OID_GET_ATTR1(mbedtls_oid_get_pk_alg, oid_pk_alg_t, pk_alg, mbedtls_pk_type_t, pk_alg)
 323              	 .loc 1 443 0
 324 0002 0028     	 cmp r0,#0
 325 0004 15D0     	 beq .L37
 326 0006 0E1C     	 mov r6,r1
 327 0008 051C     	 mov r5,r0
 328 000a 0B4C     	 ldr r4,.L39
 329              	.LVL28:
 330              	.L34:
 331 000c 2068     	 ldr r0,[r4]
 332 000e 0028     	 cmp r0,#0
 333 0010 0DD0     	 beq .L38
 334 0012 6268     	 ldr r2,[r4,#4]
 335 0014 6B68     	 ldr r3,[r5,#4]
 336 0016 9A42     	 cmp r2,r3
 337 0018 07D1     	 bne .L35
 338 001a A968     	 ldr r1,[r5,#8]
 339 001c FFF7FEFF 	 bl memcmp
 340              	.LVL29:
 341 0020 0028     	 cmp r0,#0
 342 0022 02D1     	 bne .L35
 343              	.LBE27:
 344              	.LBE26:
 345              	 .loc 1 444 0
 346 0024 237C     	 ldrb r3,[r4,#16]
 347 0026 3370     	 strb r3,[r6]
 348 0028 05E0     	 b .L33
 349              	.L35:
 350              	.LBB29:
 351              	.LBB28:
 443:C:/Workspace/DAVE-4.4.2-64Bit/optiga-trust-m/externals/mbedtls/library\oid.c **** FN_OID_GET_ATTR1(mbedtls_oid_get_pk_alg, oid_pk_alg_t, pk_alg, mbedtls_pk_type_t, pk_alg)
 352              	 .loc 1 443 0
 353 002a 1434     	 add r4,r4,#20
 354              	.LVL30:
 355 002c EEE7     	 b .L34
 356              	.L38:
 357              	.LBE28:
 358              	.LBE29:
 359              	 .loc 1 444 0
 360 002e 2E38     	 sub r0,r0,#46
 361 0030 01E0     	 b .L33
 362              	.LVL31:
 363              	.L37:
 364 0032 2E20     	 mov r0,#46
 365              	.LVL32:
 366 0034 4042     	 neg r0,r0
 367              	.LVL33:
 368              	.L33:
 369              	 
 370 0036 70BD     	 pop {r4,r5,r6,pc}
 371              	.L40:
 372              	 .align 2
 373              	.L39:
 374 0038 00000000 	 .word .LANCHOR3
 375              	 .cfi_endproc
 376              	.LFE20:
 378              	 .section .text.mbedtls_oid_get_oid_by_pk_alg,"ax",%progbits
 379              	 .align 1
 380              	 .global mbedtls_oid_get_oid_by_pk_alg
 381              	 .code 16
 382              	 .thumb_func
 384              	mbedtls_oid_get_oid_by_pk_alg:
 385              	.LFB21:
 445:C:/Workspace/DAVE-4.4.2-64Bit/optiga-trust-m/externals/mbedtls/library\oid.c **** FN_OID_GET_OID_BY_ATTR1(mbedtls_oid_get_oid_by_pk_alg, oid_pk_alg_t, oid_pk_alg, mbedtls_pk_type_t,
 386              	 .loc 1 445 0
 387              	 .cfi_startproc
 388              	.LVL34:
 389 0000 30B5     	 push {r4,r5,lr}
 390              	.LCFI4:
 391              	 .cfi_def_cfa_offset 12
 392              	 .cfi_offset 4,-12
 393              	 .cfi_offset 5,-8
 394              	 .cfi_offset 14,-4
 395              	 .loc 1 445 0
 396 0002 084B     	 ldr r3,.L47
 397              	.LVL35:
 398              	.L42:
 399              	 .loc 1 445 0 is_stmt 0 discriminator 4
 400 0004 1C68     	 ldr r4,[r3]
 401 0006 002C     	 cmp r4,#0
 402 0008 09D0     	 beq .L46
 403              	 .loc 1 445 0 discriminator 5
 404 000a 1D7C     	 ldrb r5,[r3,#16]
 405 000c 8542     	 cmp r5,r0
 406 000e 04D1     	 bne .L43
 407              	 .loc 1 445 0
 408 0010 5B68     	 ldr r3,[r3,#4]
 409              	.LVL36:
 410 0012 0C60     	 str r4,[r1]
 411 0014 0020     	 mov r0,#0
 412              	.LVL37:
 413 0016 1360     	 str r3,[r2]
 414 0018 03E0     	 b .L44
 415              	.LVL38:
 416              	.L43:
 417              	 .loc 1 445 0 discriminator 3
 418 001a 1433     	 add r3,r3,#20
 419              	.LVL39:
 420 001c F2E7     	 b .L42
 421              	.L46:
 422              	 .loc 1 445 0
 423 001e 2E20     	 mov r0,#46
 424              	.LVL40:
 425 0020 4042     	 neg r0,r0
 426              	.LVL41:
 427              	.L44:
 428              	 
 429 0022 30BD     	 pop {r4,r5,pc}
 430              	.L48:
 431              	 .align 2
 432              	.L47:
 433 0024 00000000 	 .word .LANCHOR3
 434              	 .cfi_endproc
 435              	.LFE21:
 437              	 .section .text.mbedtls_oid_get_ec_grp,"ax",%progbits
 438              	 .align 1
 439              	 .global mbedtls_oid_get_ec_grp
 440              	 .code 16
 441              	 .thumb_func
 443              	mbedtls_oid_get_ec_grp:
 444              	.LFB23:
 446:C:/Workspace/DAVE-4.4.2-64Bit/optiga-trust-m/externals/mbedtls/library\oid.c **** 
 447:C:/Workspace/DAVE-4.4.2-64Bit/optiga-trust-m/externals/mbedtls/library\oid.c **** #if defined(MBEDTLS_ECP_C)
 448:C:/Workspace/DAVE-4.4.2-64Bit/optiga-trust-m/externals/mbedtls/library\oid.c **** /*
 449:C:/Workspace/DAVE-4.4.2-64Bit/optiga-trust-m/externals/mbedtls/library\oid.c ****  * For namedCurve (RFC 5480)
 450:C:/Workspace/DAVE-4.4.2-64Bit/optiga-trust-m/externals/mbedtls/library\oid.c ****  */
 451:C:/Workspace/DAVE-4.4.2-64Bit/optiga-trust-m/externals/mbedtls/library\oid.c **** typedef struct {
 452:C:/Workspace/DAVE-4.4.2-64Bit/optiga-trust-m/externals/mbedtls/library\oid.c ****     mbedtls_oid_descriptor_t    descriptor;
 453:C:/Workspace/DAVE-4.4.2-64Bit/optiga-trust-m/externals/mbedtls/library\oid.c ****     mbedtls_ecp_group_id        grp_id;
 454:C:/Workspace/DAVE-4.4.2-64Bit/optiga-trust-m/externals/mbedtls/library\oid.c **** } oid_ecp_grp_t;
 455:C:/Workspace/DAVE-4.4.2-64Bit/optiga-trust-m/externals/mbedtls/library\oid.c **** 
 456:C:/Workspace/DAVE-4.4.2-64Bit/optiga-trust-m/externals/mbedtls/library\oid.c **** static const oid_ecp_grp_t oid_ecp_grp[] =
 457:C:/Workspace/DAVE-4.4.2-64Bit/optiga-trust-m/externals/mbedtls/library\oid.c **** {
 458:C:/Workspace/DAVE-4.4.2-64Bit/optiga-trust-m/externals/mbedtls/library\oid.c **** #if defined(MBEDTLS_ECP_DP_SECP192R1_ENABLED)
 459:C:/Workspace/DAVE-4.4.2-64Bit/optiga-trust-m/externals/mbedtls/library\oid.c ****     {
 460:C:/Workspace/DAVE-4.4.2-64Bit/optiga-trust-m/externals/mbedtls/library\oid.c ****         { ADD_LEN( MBEDTLS_OID_EC_GRP_SECP192R1 ), "secp192r1",    "secp192r1" },
 461:C:/Workspace/DAVE-4.4.2-64Bit/optiga-trust-m/externals/mbedtls/library\oid.c ****         MBEDTLS_ECP_DP_SECP192R1,
 462:C:/Workspace/DAVE-4.4.2-64Bit/optiga-trust-m/externals/mbedtls/library\oid.c ****     },
 463:C:/Workspace/DAVE-4.4.2-64Bit/optiga-trust-m/externals/mbedtls/library\oid.c **** #endif /* MBEDTLS_ECP_DP_SECP192R1_ENABLED */
 464:C:/Workspace/DAVE-4.4.2-64Bit/optiga-trust-m/externals/mbedtls/library\oid.c **** #if defined(MBEDTLS_ECP_DP_SECP224R1_ENABLED)
 465:C:/Workspace/DAVE-4.4.2-64Bit/optiga-trust-m/externals/mbedtls/library\oid.c ****     {
 466:C:/Workspace/DAVE-4.4.2-64Bit/optiga-trust-m/externals/mbedtls/library\oid.c ****         { ADD_LEN( MBEDTLS_OID_EC_GRP_SECP224R1 ), "secp224r1",    "secp224r1" },
 467:C:/Workspace/DAVE-4.4.2-64Bit/optiga-trust-m/externals/mbedtls/library\oid.c ****         MBEDTLS_ECP_DP_SECP224R1,
 468:C:/Workspace/DAVE-4.4.2-64Bit/optiga-trust-m/externals/mbedtls/library\oid.c ****     },
 469:C:/Workspace/DAVE-4.4.2-64Bit/optiga-trust-m/externals/mbedtls/library\oid.c **** #endif /* MBEDTLS_ECP_DP_SECP224R1_ENABLED */
 470:C:/Workspace/DAVE-4.4.2-64Bit/optiga-trust-m/externals/mbedtls/library\oid.c **** #if defined(MBEDTLS_ECP_DP_SECP256R1_ENABLED)
 471:C:/Workspace/DAVE-4.4.2-64Bit/optiga-trust-m/externals/mbedtls/library\oid.c ****     {
 472:C:/Workspace/DAVE-4.4.2-64Bit/optiga-trust-m/externals/mbedtls/library\oid.c ****         { ADD_LEN( MBEDTLS_OID_EC_GRP_SECP256R1 ), "secp256r1",    "secp256r1" },
 473:C:/Workspace/DAVE-4.4.2-64Bit/optiga-trust-m/externals/mbedtls/library\oid.c ****         MBEDTLS_ECP_DP_SECP256R1,
 474:C:/Workspace/DAVE-4.4.2-64Bit/optiga-trust-m/externals/mbedtls/library\oid.c ****     },
 475:C:/Workspace/DAVE-4.4.2-64Bit/optiga-trust-m/externals/mbedtls/library\oid.c **** #endif /* MBEDTLS_ECP_DP_SECP256R1_ENABLED */
 476:C:/Workspace/DAVE-4.4.2-64Bit/optiga-trust-m/externals/mbedtls/library\oid.c **** #if defined(MBEDTLS_ECP_DP_SECP384R1_ENABLED)
 477:C:/Workspace/DAVE-4.4.2-64Bit/optiga-trust-m/externals/mbedtls/library\oid.c ****     {
 478:C:/Workspace/DAVE-4.4.2-64Bit/optiga-trust-m/externals/mbedtls/library\oid.c ****         { ADD_LEN( MBEDTLS_OID_EC_GRP_SECP384R1 ), "secp384r1",    "secp384r1" },
 479:C:/Workspace/DAVE-4.4.2-64Bit/optiga-trust-m/externals/mbedtls/library\oid.c ****         MBEDTLS_ECP_DP_SECP384R1,
 480:C:/Workspace/DAVE-4.4.2-64Bit/optiga-trust-m/externals/mbedtls/library\oid.c ****     },
 481:C:/Workspace/DAVE-4.4.2-64Bit/optiga-trust-m/externals/mbedtls/library\oid.c **** #endif /* MBEDTLS_ECP_DP_SECP384R1_ENABLED */
 482:C:/Workspace/DAVE-4.4.2-64Bit/optiga-trust-m/externals/mbedtls/library\oid.c **** #if defined(MBEDTLS_ECP_DP_SECP521R1_ENABLED)
 483:C:/Workspace/DAVE-4.4.2-64Bit/optiga-trust-m/externals/mbedtls/library\oid.c ****     {
 484:C:/Workspace/DAVE-4.4.2-64Bit/optiga-trust-m/externals/mbedtls/library\oid.c ****         { ADD_LEN( MBEDTLS_OID_EC_GRP_SECP521R1 ), "secp521r1",    "secp521r1" },
 485:C:/Workspace/DAVE-4.4.2-64Bit/optiga-trust-m/externals/mbedtls/library\oid.c ****         MBEDTLS_ECP_DP_SECP521R1,
 486:C:/Workspace/DAVE-4.4.2-64Bit/optiga-trust-m/externals/mbedtls/library\oid.c ****     },
 487:C:/Workspace/DAVE-4.4.2-64Bit/optiga-trust-m/externals/mbedtls/library\oid.c **** #endif /* MBEDTLS_ECP_DP_SECP521R1_ENABLED */
 488:C:/Workspace/DAVE-4.4.2-64Bit/optiga-trust-m/externals/mbedtls/library\oid.c **** #if defined(MBEDTLS_ECP_DP_SECP192K1_ENABLED)
 489:C:/Workspace/DAVE-4.4.2-64Bit/optiga-trust-m/externals/mbedtls/library\oid.c ****     {
 490:C:/Workspace/DAVE-4.4.2-64Bit/optiga-trust-m/externals/mbedtls/library\oid.c ****         { ADD_LEN( MBEDTLS_OID_EC_GRP_SECP192K1 ), "secp192k1",    "secp192k1" },
 491:C:/Workspace/DAVE-4.4.2-64Bit/optiga-trust-m/externals/mbedtls/library\oid.c ****         MBEDTLS_ECP_DP_SECP192K1,
 492:C:/Workspace/DAVE-4.4.2-64Bit/optiga-trust-m/externals/mbedtls/library\oid.c ****     },
 493:C:/Workspace/DAVE-4.4.2-64Bit/optiga-trust-m/externals/mbedtls/library\oid.c **** #endif /* MBEDTLS_ECP_DP_SECP192K1_ENABLED */
 494:C:/Workspace/DAVE-4.4.2-64Bit/optiga-trust-m/externals/mbedtls/library\oid.c **** #if defined(MBEDTLS_ECP_DP_SECP224K1_ENABLED)
 495:C:/Workspace/DAVE-4.4.2-64Bit/optiga-trust-m/externals/mbedtls/library\oid.c ****     {
 496:C:/Workspace/DAVE-4.4.2-64Bit/optiga-trust-m/externals/mbedtls/library\oid.c ****         { ADD_LEN( MBEDTLS_OID_EC_GRP_SECP224K1 ), "secp224k1",    "secp224k1" },
 497:C:/Workspace/DAVE-4.4.2-64Bit/optiga-trust-m/externals/mbedtls/library\oid.c ****         MBEDTLS_ECP_DP_SECP224K1,
 498:C:/Workspace/DAVE-4.4.2-64Bit/optiga-trust-m/externals/mbedtls/library\oid.c ****     },
 499:C:/Workspace/DAVE-4.4.2-64Bit/optiga-trust-m/externals/mbedtls/library\oid.c **** #endif /* MBEDTLS_ECP_DP_SECP224K1_ENABLED */
 500:C:/Workspace/DAVE-4.4.2-64Bit/optiga-trust-m/externals/mbedtls/library\oid.c **** #if defined(MBEDTLS_ECP_DP_SECP256K1_ENABLED)
 501:C:/Workspace/DAVE-4.4.2-64Bit/optiga-trust-m/externals/mbedtls/library\oid.c ****     {
 502:C:/Workspace/DAVE-4.4.2-64Bit/optiga-trust-m/externals/mbedtls/library\oid.c ****         { ADD_LEN( MBEDTLS_OID_EC_GRP_SECP256K1 ), "secp256k1",    "secp256k1" },
 503:C:/Workspace/DAVE-4.4.2-64Bit/optiga-trust-m/externals/mbedtls/library\oid.c ****         MBEDTLS_ECP_DP_SECP256K1,
 504:C:/Workspace/DAVE-4.4.2-64Bit/optiga-trust-m/externals/mbedtls/library\oid.c ****     },
 505:C:/Workspace/DAVE-4.4.2-64Bit/optiga-trust-m/externals/mbedtls/library\oid.c **** #endif /* MBEDTLS_ECP_DP_SECP256K1_ENABLED */
 506:C:/Workspace/DAVE-4.4.2-64Bit/optiga-trust-m/externals/mbedtls/library\oid.c **** #if defined(MBEDTLS_ECP_DP_BP256R1_ENABLED)
 507:C:/Workspace/DAVE-4.4.2-64Bit/optiga-trust-m/externals/mbedtls/library\oid.c ****     {
 508:C:/Workspace/DAVE-4.4.2-64Bit/optiga-trust-m/externals/mbedtls/library\oid.c ****         { ADD_LEN( MBEDTLS_OID_EC_GRP_BP256R1 ),   "brainpoolP256r1","brainpool256r1" },
 509:C:/Workspace/DAVE-4.4.2-64Bit/optiga-trust-m/externals/mbedtls/library\oid.c ****         MBEDTLS_ECP_DP_BP256R1,
 510:C:/Workspace/DAVE-4.4.2-64Bit/optiga-trust-m/externals/mbedtls/library\oid.c ****     },
 511:C:/Workspace/DAVE-4.4.2-64Bit/optiga-trust-m/externals/mbedtls/library\oid.c **** #endif /* MBEDTLS_ECP_DP_BP256R1_ENABLED */
 512:C:/Workspace/DAVE-4.4.2-64Bit/optiga-trust-m/externals/mbedtls/library\oid.c **** #if defined(MBEDTLS_ECP_DP_BP384R1_ENABLED)
 513:C:/Workspace/DAVE-4.4.2-64Bit/optiga-trust-m/externals/mbedtls/library\oid.c ****     {
 514:C:/Workspace/DAVE-4.4.2-64Bit/optiga-trust-m/externals/mbedtls/library\oid.c ****         { ADD_LEN( MBEDTLS_OID_EC_GRP_BP384R1 ),   "brainpoolP384r1","brainpool384r1" },
 515:C:/Workspace/DAVE-4.4.2-64Bit/optiga-trust-m/externals/mbedtls/library\oid.c ****         MBEDTLS_ECP_DP_BP384R1,
 516:C:/Workspace/DAVE-4.4.2-64Bit/optiga-trust-m/externals/mbedtls/library\oid.c ****     },
 517:C:/Workspace/DAVE-4.4.2-64Bit/optiga-trust-m/externals/mbedtls/library\oid.c **** #endif /* MBEDTLS_ECP_DP_BP384R1_ENABLED */
 518:C:/Workspace/DAVE-4.4.2-64Bit/optiga-trust-m/externals/mbedtls/library\oid.c **** #if defined(MBEDTLS_ECP_DP_BP512R1_ENABLED)
 519:C:/Workspace/DAVE-4.4.2-64Bit/optiga-trust-m/externals/mbedtls/library\oid.c ****     {
 520:C:/Workspace/DAVE-4.4.2-64Bit/optiga-trust-m/externals/mbedtls/library\oid.c ****         { ADD_LEN( MBEDTLS_OID_EC_GRP_BP512R1 ),   "brainpoolP512r1","brainpool512r1" },
 521:C:/Workspace/DAVE-4.4.2-64Bit/optiga-trust-m/externals/mbedtls/library\oid.c ****         MBEDTLS_ECP_DP_BP512R1,
 522:C:/Workspace/DAVE-4.4.2-64Bit/optiga-trust-m/externals/mbedtls/library\oid.c ****     },
 523:C:/Workspace/DAVE-4.4.2-64Bit/optiga-trust-m/externals/mbedtls/library\oid.c **** #endif /* MBEDTLS_ECP_DP_BP512R1_ENABLED */
 524:C:/Workspace/DAVE-4.4.2-64Bit/optiga-trust-m/externals/mbedtls/library\oid.c ****     {
 525:C:/Workspace/DAVE-4.4.2-64Bit/optiga-trust-m/externals/mbedtls/library\oid.c ****         { NULL, 0, NULL, NULL },
 526:C:/Workspace/DAVE-4.4.2-64Bit/optiga-trust-m/externals/mbedtls/library\oid.c ****         MBEDTLS_ECP_DP_NONE,
 527:C:/Workspace/DAVE-4.4.2-64Bit/optiga-trust-m/externals/mbedtls/library\oid.c ****     },
 528:C:/Workspace/DAVE-4.4.2-64Bit/optiga-trust-m/externals/mbedtls/library\oid.c **** };
 529:C:/Workspace/DAVE-4.4.2-64Bit/optiga-trust-m/externals/mbedtls/library\oid.c **** 
 530:C:/Workspace/DAVE-4.4.2-64Bit/optiga-trust-m/externals/mbedtls/library\oid.c **** FN_OID_TYPED_FROM_ASN1(oid_ecp_grp_t, grp_id, oid_ecp_grp)
 531:C:/Workspace/DAVE-4.4.2-64Bit/optiga-trust-m/externals/mbedtls/library\oid.c **** FN_OID_GET_ATTR1(mbedtls_oid_get_ec_grp, oid_ecp_grp_t, grp_id, mbedtls_ecp_group_id, grp_id)
 445              	 .loc 1 531 0 is_stmt 1
 446              	 .cfi_startproc
 447              	.LVL42:
 448 0000 70B5     	 push {r4,r5,r6,lr}
 449              	.LCFI5:
 450              	 .cfi_def_cfa_offset 16
 451              	 .cfi_offset 4,-16
 452              	 .cfi_offset 5,-12
 453              	 .cfi_offset 6,-8
 454              	 .cfi_offset 14,-4
 455              	.LBB32:
 456              	.LBB33:
 530:C:/Workspace/DAVE-4.4.2-64Bit/optiga-trust-m/externals/mbedtls/library\oid.c **** FN_OID_GET_ATTR1(mbedtls_oid_get_ec_grp, oid_ecp_grp_t, grp_id, mbedtls_ecp_group_id, grp_id)
 457              	 .loc 1 530 0
 458 0002 0028     	 cmp r0,#0
 459 0004 15D0     	 beq .L54
 460 0006 0E1C     	 mov r6,r1
 461 0008 051C     	 mov r5,r0
 462 000a 0B4C     	 ldr r4,.L56
 463              	.LVL43:
 464              	.L51:
 465 000c 2068     	 ldr r0,[r4]
 466 000e 0028     	 cmp r0,#0
 467 0010 0DD0     	 beq .L55
 468 0012 6268     	 ldr r2,[r4,#4]
 469 0014 6B68     	 ldr r3,[r5,#4]
 470 0016 9A42     	 cmp r2,r3
 471 0018 07D1     	 bne .L52
 472 001a A968     	 ldr r1,[r5,#8]
 473 001c FFF7FEFF 	 bl memcmp
 474              	.LVL44:
 475 0020 0028     	 cmp r0,#0
 476 0022 02D1     	 bne .L52
 477              	.LBE33:
 478              	.LBE32:
 479              	 .loc 1 531 0
 480 0024 237C     	 ldrb r3,[r4,#16]
 481 0026 3370     	 strb r3,[r6]
 482 0028 05E0     	 b .L50
 483              	.L52:
 484              	.LBB35:
 485              	.LBB34:
 530:C:/Workspace/DAVE-4.4.2-64Bit/optiga-trust-m/externals/mbedtls/library\oid.c **** FN_OID_GET_ATTR1(mbedtls_oid_get_ec_grp, oid_ecp_grp_t, grp_id, mbedtls_ecp_group_id, grp_id)
 486              	 .loc 1 530 0
 487 002a 1434     	 add r4,r4,#20
 488              	.LVL45:
 489 002c EEE7     	 b .L51
 490              	.L55:
 491              	.LBE34:
 492              	.LBE35:
 493              	 .loc 1 531 0
 494 002e 2E38     	 sub r0,r0,#46
 495 0030 01E0     	 b .L50
 496              	.LVL46:
 497              	.L54:
 498 0032 2E20     	 mov r0,#46
 499              	.LVL47:
 500 0034 4042     	 neg r0,r0
 501              	.LVL48:
 502              	.L50:
 503              	 
 504 0036 70BD     	 pop {r4,r5,r6,pc}
 505              	.L57:
 506              	 .align 2
 507              	.L56:
 508 0038 00000000 	 .word .LANCHOR4
 509              	 .cfi_endproc
 510              	.LFE23:
 512              	 .section .text.mbedtls_oid_get_oid_by_ec_grp,"ax",%progbits
 513              	 .align 1
 514              	 .global mbedtls_oid_get_oid_by_ec_grp
 515              	 .code 16
 516              	 .thumb_func
 518              	mbedtls_oid_get_oid_by_ec_grp:
 519              	.LFB24:
 532:C:/Workspace/DAVE-4.4.2-64Bit/optiga-trust-m/externals/mbedtls/library\oid.c **** FN_OID_GET_OID_BY_ATTR1(mbedtls_oid_get_oid_by_ec_grp, oid_ecp_grp_t, oid_ecp_grp, mbedtls_ecp_grou
 520              	 .loc 1 532 0
 521              	 .cfi_startproc
 522              	.LVL49:
 523 0000 30B5     	 push {r4,r5,lr}
 524              	.LCFI6:
 525              	 .cfi_def_cfa_offset 12
 526              	 .cfi_offset 4,-12
 527              	 .cfi_offset 5,-8
 528              	 .cfi_offset 14,-4
 529              	 .loc 1 532 0
 530 0002 084B     	 ldr r3,.L64
 531              	.LVL50:
 532              	.L59:
 533              	 .loc 1 532 0 is_stmt 0 discriminator 4
 534 0004 1C68     	 ldr r4,[r3]
 535 0006 002C     	 cmp r4,#0
 536 0008 09D0     	 beq .L63
 537              	 .loc 1 532 0 discriminator 5
 538 000a 1D7C     	 ldrb r5,[r3,#16]
 539 000c 8542     	 cmp r5,r0
 540 000e 04D1     	 bne .L60
 541              	 .loc 1 532 0
 542 0010 5B68     	 ldr r3,[r3,#4]
 543              	.LVL51:
 544 0012 0C60     	 str r4,[r1]
 545 0014 0020     	 mov r0,#0
 546              	.LVL52:
 547 0016 1360     	 str r3,[r2]
 548 0018 03E0     	 b .L61
 549              	.LVL53:
 550              	.L60:
 551              	 .loc 1 532 0 discriminator 3
 552 001a 1433     	 add r3,r3,#20
 553              	.LVL54:
 554 001c F2E7     	 b .L59
 555              	.L63:
 556              	 .loc 1 532 0
 557 001e 2E20     	 mov r0,#46
 558              	.LVL55:
 559 0020 4042     	 neg r0,r0
 560              	.LVL56:
 561              	.L61:
 562              	 
 563 0022 30BD     	 pop {r4,r5,pc}
 564              	.L65:
 565              	 .align 2
 566              	.L64:
 567 0024 00000000 	 .word .LANCHOR4
 568              	 .cfi_endproc
 569              	.LFE24:
 571              	 .section .text.mbedtls_oid_get_cipher_alg,"ax",%progbits
 572              	 .align 1
 573              	 .global mbedtls_oid_get_cipher_alg
 574              	 .code 16
 575              	 .thumb_func
 577              	mbedtls_oid_get_cipher_alg:
 578              	.LFB26:
 533:C:/Workspace/DAVE-4.4.2-64Bit/optiga-trust-m/externals/mbedtls/library\oid.c **** #endif /* MBEDTLS_ECP_C */
 534:C:/Workspace/DAVE-4.4.2-64Bit/optiga-trust-m/externals/mbedtls/library\oid.c **** 
 535:C:/Workspace/DAVE-4.4.2-64Bit/optiga-trust-m/externals/mbedtls/library\oid.c **** #if defined(MBEDTLS_CIPHER_C)
 536:C:/Workspace/DAVE-4.4.2-64Bit/optiga-trust-m/externals/mbedtls/library\oid.c **** /*
 537:C:/Workspace/DAVE-4.4.2-64Bit/optiga-trust-m/externals/mbedtls/library\oid.c ****  * For PKCS#5 PBES2 encryption algorithm
 538:C:/Workspace/DAVE-4.4.2-64Bit/optiga-trust-m/externals/mbedtls/library\oid.c ****  */
 539:C:/Workspace/DAVE-4.4.2-64Bit/optiga-trust-m/externals/mbedtls/library\oid.c **** typedef struct {
 540:C:/Workspace/DAVE-4.4.2-64Bit/optiga-trust-m/externals/mbedtls/library\oid.c ****     mbedtls_oid_descriptor_t    descriptor;
 541:C:/Workspace/DAVE-4.4.2-64Bit/optiga-trust-m/externals/mbedtls/library\oid.c ****     mbedtls_cipher_type_t       cipher_alg;
 542:C:/Workspace/DAVE-4.4.2-64Bit/optiga-trust-m/externals/mbedtls/library\oid.c **** } oid_cipher_alg_t;
 543:C:/Workspace/DAVE-4.4.2-64Bit/optiga-trust-m/externals/mbedtls/library\oid.c **** 
 544:C:/Workspace/DAVE-4.4.2-64Bit/optiga-trust-m/externals/mbedtls/library\oid.c **** static const oid_cipher_alg_t oid_cipher_alg[] =
 545:C:/Workspace/DAVE-4.4.2-64Bit/optiga-trust-m/externals/mbedtls/library\oid.c **** {
 546:C:/Workspace/DAVE-4.4.2-64Bit/optiga-trust-m/externals/mbedtls/library\oid.c ****     {
 547:C:/Workspace/DAVE-4.4.2-64Bit/optiga-trust-m/externals/mbedtls/library\oid.c ****         { ADD_LEN( MBEDTLS_OID_DES_CBC ),              "desCBC",       "DES-CBC" },
 548:C:/Workspace/DAVE-4.4.2-64Bit/optiga-trust-m/externals/mbedtls/library\oid.c ****         MBEDTLS_CIPHER_DES_CBC,
 549:C:/Workspace/DAVE-4.4.2-64Bit/optiga-trust-m/externals/mbedtls/library\oid.c ****     },
 550:C:/Workspace/DAVE-4.4.2-64Bit/optiga-trust-m/externals/mbedtls/library\oid.c ****     {
 551:C:/Workspace/DAVE-4.4.2-64Bit/optiga-trust-m/externals/mbedtls/library\oid.c ****         { ADD_LEN( MBEDTLS_OID_DES_EDE3_CBC ),         "des-ede3-cbc", "DES-EDE3-CBC" },
 552:C:/Workspace/DAVE-4.4.2-64Bit/optiga-trust-m/externals/mbedtls/library\oid.c ****         MBEDTLS_CIPHER_DES_EDE3_CBC,
 553:C:/Workspace/DAVE-4.4.2-64Bit/optiga-trust-m/externals/mbedtls/library\oid.c ****     },
 554:C:/Workspace/DAVE-4.4.2-64Bit/optiga-trust-m/externals/mbedtls/library\oid.c ****     {
 555:C:/Workspace/DAVE-4.4.2-64Bit/optiga-trust-m/externals/mbedtls/library\oid.c ****         { NULL, 0, NULL, NULL },
 556:C:/Workspace/DAVE-4.4.2-64Bit/optiga-trust-m/externals/mbedtls/library\oid.c ****         MBEDTLS_CIPHER_NONE,
 557:C:/Workspace/DAVE-4.4.2-64Bit/optiga-trust-m/externals/mbedtls/library\oid.c ****     },
 558:C:/Workspace/DAVE-4.4.2-64Bit/optiga-trust-m/externals/mbedtls/library\oid.c **** };
 559:C:/Workspace/DAVE-4.4.2-64Bit/optiga-trust-m/externals/mbedtls/library\oid.c **** 
 560:C:/Workspace/DAVE-4.4.2-64Bit/optiga-trust-m/externals/mbedtls/library\oid.c **** FN_OID_TYPED_FROM_ASN1(oid_cipher_alg_t, cipher_alg, oid_cipher_alg)
 561:C:/Workspace/DAVE-4.4.2-64Bit/optiga-trust-m/externals/mbedtls/library\oid.c **** FN_OID_GET_ATTR1(mbedtls_oid_get_cipher_alg, oid_cipher_alg_t, cipher_alg, mbedtls_cipher_type_t, c
 579              	 .loc 1 561 0 is_stmt 1
 580              	 .cfi_startproc
 581              	.LVL57:
 582 0000 70B5     	 push {r4,r5,r6,lr}
 583              	.LCFI7:
 584              	 .cfi_def_cfa_offset 16
 585              	 .cfi_offset 4,-16
 586              	 .cfi_offset 5,-12
 587              	 .cfi_offset 6,-8
 588              	 .cfi_offset 14,-4
 589              	.LBB38:
 590              	.LBB39:
 560:C:/Workspace/DAVE-4.4.2-64Bit/optiga-trust-m/externals/mbedtls/library\oid.c **** FN_OID_GET_ATTR1(mbedtls_oid_get_cipher_alg, oid_cipher_alg_t, cipher_alg, mbedtls_cipher_type_t, c
 591              	 .loc 1 560 0
 592 0002 0028     	 cmp r0,#0
 593 0004 15D0     	 beq .L71
 594 0006 0E1C     	 mov r6,r1
 595 0008 051C     	 mov r5,r0
 596 000a 0B4C     	 ldr r4,.L73
 597              	.LVL58:
 598              	.L68:
 599 000c 2068     	 ldr r0,[r4]
 600 000e 0028     	 cmp r0,#0
 601 0010 0DD0     	 beq .L72
 602 0012 6268     	 ldr r2,[r4,#4]
 603 0014 6B68     	 ldr r3,[r5,#4]
 604 0016 9A42     	 cmp r2,r3
 605 0018 07D1     	 bne .L69
 606 001a A968     	 ldr r1,[r5,#8]
 607 001c FFF7FEFF 	 bl memcmp
 608              	.LVL59:
 609 0020 0028     	 cmp r0,#0
 610 0022 02D1     	 bne .L69
 611              	.LBE39:
 612              	.LBE38:
 613              	 .loc 1 561 0
 614 0024 237C     	 ldrb r3,[r4,#16]
 615 0026 3370     	 strb r3,[r6]
 616 0028 05E0     	 b .L67
 617              	.L69:
 618              	.LBB41:
 619              	.LBB40:
 560:C:/Workspace/DAVE-4.4.2-64Bit/optiga-trust-m/externals/mbedtls/library\oid.c **** FN_OID_GET_ATTR1(mbedtls_oid_get_cipher_alg, oid_cipher_alg_t, cipher_alg, mbedtls_cipher_type_t, c
 620              	 .loc 1 560 0
 621 002a 1434     	 add r4,r4,#20
 622              	.LVL60:
 623 002c EEE7     	 b .L68
 624              	.L72:
 625              	.LBE40:
 626              	.LBE41:
 627              	 .loc 1 561 0
 628 002e 2E38     	 sub r0,r0,#46
 629 0030 01E0     	 b .L67
 630              	.LVL61:
 631              	.L71:
 632 0032 2E20     	 mov r0,#46
 633              	.LVL62:
 634 0034 4042     	 neg r0,r0
 635              	.LVL63:
 636              	.L67:
 637              	 
 638 0036 70BD     	 pop {r4,r5,r6,pc}
 639              	.L74:
 640              	 .align 2
 641              	.L73:
 642 0038 00000000 	 .word .LANCHOR5
 643              	 .cfi_endproc
 644              	.LFE26:
 646              	 .section .text.mbedtls_oid_get_md_alg,"ax",%progbits
 647              	 .align 1
 648              	 .global mbedtls_oid_get_md_alg
 649              	 .code 16
 650              	 .thumb_func
 652              	mbedtls_oid_get_md_alg:
 653              	.LFB28:
 562:C:/Workspace/DAVE-4.4.2-64Bit/optiga-trust-m/externals/mbedtls/library\oid.c **** #endif /* MBEDTLS_CIPHER_C */
 563:C:/Workspace/DAVE-4.4.2-64Bit/optiga-trust-m/externals/mbedtls/library\oid.c **** 
 564:C:/Workspace/DAVE-4.4.2-64Bit/optiga-trust-m/externals/mbedtls/library\oid.c **** #if defined(MBEDTLS_MD_C)
 565:C:/Workspace/DAVE-4.4.2-64Bit/optiga-trust-m/externals/mbedtls/library\oid.c **** /*
 566:C:/Workspace/DAVE-4.4.2-64Bit/optiga-trust-m/externals/mbedtls/library\oid.c ****  * For digestAlgorithm
 567:C:/Workspace/DAVE-4.4.2-64Bit/optiga-trust-m/externals/mbedtls/library\oid.c ****  */
 568:C:/Workspace/DAVE-4.4.2-64Bit/optiga-trust-m/externals/mbedtls/library\oid.c **** typedef struct {
 569:C:/Workspace/DAVE-4.4.2-64Bit/optiga-trust-m/externals/mbedtls/library\oid.c ****     mbedtls_oid_descriptor_t    descriptor;
 570:C:/Workspace/DAVE-4.4.2-64Bit/optiga-trust-m/externals/mbedtls/library\oid.c ****     mbedtls_md_type_t           md_alg;
 571:C:/Workspace/DAVE-4.4.2-64Bit/optiga-trust-m/externals/mbedtls/library\oid.c **** } oid_md_alg_t;
 572:C:/Workspace/DAVE-4.4.2-64Bit/optiga-trust-m/externals/mbedtls/library\oid.c **** 
 573:C:/Workspace/DAVE-4.4.2-64Bit/optiga-trust-m/externals/mbedtls/library\oid.c **** static const oid_md_alg_t oid_md_alg[] =
 574:C:/Workspace/DAVE-4.4.2-64Bit/optiga-trust-m/externals/mbedtls/library\oid.c **** {
 575:C:/Workspace/DAVE-4.4.2-64Bit/optiga-trust-m/externals/mbedtls/library\oid.c **** #if defined(MBEDTLS_MD2_C)
 576:C:/Workspace/DAVE-4.4.2-64Bit/optiga-trust-m/externals/mbedtls/library\oid.c ****     {
 577:C:/Workspace/DAVE-4.4.2-64Bit/optiga-trust-m/externals/mbedtls/library\oid.c ****         { ADD_LEN( MBEDTLS_OID_DIGEST_ALG_MD2 ),       "id-md2",       "MD2" },
 578:C:/Workspace/DAVE-4.4.2-64Bit/optiga-trust-m/externals/mbedtls/library\oid.c ****         MBEDTLS_MD_MD2,
 579:C:/Workspace/DAVE-4.4.2-64Bit/optiga-trust-m/externals/mbedtls/library\oid.c ****     },
 580:C:/Workspace/DAVE-4.4.2-64Bit/optiga-trust-m/externals/mbedtls/library\oid.c **** #endif /* MBEDTLS_MD2_C */
 581:C:/Workspace/DAVE-4.4.2-64Bit/optiga-trust-m/externals/mbedtls/library\oid.c **** #if defined(MBEDTLS_MD4_C)
 582:C:/Workspace/DAVE-4.4.2-64Bit/optiga-trust-m/externals/mbedtls/library\oid.c ****     {
 583:C:/Workspace/DAVE-4.4.2-64Bit/optiga-trust-m/externals/mbedtls/library\oid.c ****         { ADD_LEN( MBEDTLS_OID_DIGEST_ALG_MD4 ),       "id-md4",       "MD4" },
 584:C:/Workspace/DAVE-4.4.2-64Bit/optiga-trust-m/externals/mbedtls/library\oid.c ****         MBEDTLS_MD_MD4,
 585:C:/Workspace/DAVE-4.4.2-64Bit/optiga-trust-m/externals/mbedtls/library\oid.c ****     },
 586:C:/Workspace/DAVE-4.4.2-64Bit/optiga-trust-m/externals/mbedtls/library\oid.c **** #endif /* MBEDTLS_MD4_C */
 587:C:/Workspace/DAVE-4.4.2-64Bit/optiga-trust-m/externals/mbedtls/library\oid.c **** #if defined(MBEDTLS_MD5_C)
 588:C:/Workspace/DAVE-4.4.2-64Bit/optiga-trust-m/externals/mbedtls/library\oid.c ****     {
 589:C:/Workspace/DAVE-4.4.2-64Bit/optiga-trust-m/externals/mbedtls/library\oid.c ****         { ADD_LEN( MBEDTLS_OID_DIGEST_ALG_MD5 ),       "id-md5",       "MD5" },
 590:C:/Workspace/DAVE-4.4.2-64Bit/optiga-trust-m/externals/mbedtls/library\oid.c ****         MBEDTLS_MD_MD5,
 591:C:/Workspace/DAVE-4.4.2-64Bit/optiga-trust-m/externals/mbedtls/library\oid.c ****     },
 592:C:/Workspace/DAVE-4.4.2-64Bit/optiga-trust-m/externals/mbedtls/library\oid.c **** #endif /* MBEDTLS_MD5_C */
 593:C:/Workspace/DAVE-4.4.2-64Bit/optiga-trust-m/externals/mbedtls/library\oid.c **** #if defined(MBEDTLS_SHA1_C)
 594:C:/Workspace/DAVE-4.4.2-64Bit/optiga-trust-m/externals/mbedtls/library\oid.c ****     {
 595:C:/Workspace/DAVE-4.4.2-64Bit/optiga-trust-m/externals/mbedtls/library\oid.c ****         { ADD_LEN( MBEDTLS_OID_DIGEST_ALG_SHA1 ),      "id-sha1",      "SHA-1" },
 596:C:/Workspace/DAVE-4.4.2-64Bit/optiga-trust-m/externals/mbedtls/library\oid.c ****         MBEDTLS_MD_SHA1,
 597:C:/Workspace/DAVE-4.4.2-64Bit/optiga-trust-m/externals/mbedtls/library\oid.c ****     },
 598:C:/Workspace/DAVE-4.4.2-64Bit/optiga-trust-m/externals/mbedtls/library\oid.c **** #endif /* MBEDTLS_SHA1_C */
 599:C:/Workspace/DAVE-4.4.2-64Bit/optiga-trust-m/externals/mbedtls/library\oid.c **** #if defined(MBEDTLS_SHA256_C)
 600:C:/Workspace/DAVE-4.4.2-64Bit/optiga-trust-m/externals/mbedtls/library\oid.c ****     {
 601:C:/Workspace/DAVE-4.4.2-64Bit/optiga-trust-m/externals/mbedtls/library\oid.c ****         { ADD_LEN( MBEDTLS_OID_DIGEST_ALG_SHA224 ),    "id-sha224",    "SHA-224" },
 602:C:/Workspace/DAVE-4.4.2-64Bit/optiga-trust-m/externals/mbedtls/library\oid.c ****         MBEDTLS_MD_SHA224,
 603:C:/Workspace/DAVE-4.4.2-64Bit/optiga-trust-m/externals/mbedtls/library\oid.c ****     },
 604:C:/Workspace/DAVE-4.4.2-64Bit/optiga-trust-m/externals/mbedtls/library\oid.c ****     {
 605:C:/Workspace/DAVE-4.4.2-64Bit/optiga-trust-m/externals/mbedtls/library\oid.c ****         { ADD_LEN( MBEDTLS_OID_DIGEST_ALG_SHA256 ),    "id-sha256",    "SHA-256" },
 606:C:/Workspace/DAVE-4.4.2-64Bit/optiga-trust-m/externals/mbedtls/library\oid.c ****         MBEDTLS_MD_SHA256,
 607:C:/Workspace/DAVE-4.4.2-64Bit/optiga-trust-m/externals/mbedtls/library\oid.c ****     },
 608:C:/Workspace/DAVE-4.4.2-64Bit/optiga-trust-m/externals/mbedtls/library\oid.c **** #endif /* MBEDTLS_SHA256_C */
 609:C:/Workspace/DAVE-4.4.2-64Bit/optiga-trust-m/externals/mbedtls/library\oid.c **** #if defined(MBEDTLS_SHA512_C)
 610:C:/Workspace/DAVE-4.4.2-64Bit/optiga-trust-m/externals/mbedtls/library\oid.c ****     {
 611:C:/Workspace/DAVE-4.4.2-64Bit/optiga-trust-m/externals/mbedtls/library\oid.c ****         { ADD_LEN( MBEDTLS_OID_DIGEST_ALG_SHA384 ),    "id-sha384",    "SHA-384" },
 612:C:/Workspace/DAVE-4.4.2-64Bit/optiga-trust-m/externals/mbedtls/library\oid.c ****         MBEDTLS_MD_SHA384,
 613:C:/Workspace/DAVE-4.4.2-64Bit/optiga-trust-m/externals/mbedtls/library\oid.c ****     },
 614:C:/Workspace/DAVE-4.4.2-64Bit/optiga-trust-m/externals/mbedtls/library\oid.c ****     {
 615:C:/Workspace/DAVE-4.4.2-64Bit/optiga-trust-m/externals/mbedtls/library\oid.c ****         { ADD_LEN( MBEDTLS_OID_DIGEST_ALG_SHA512 ),    "id-sha512",    "SHA-512" },
 616:C:/Workspace/DAVE-4.4.2-64Bit/optiga-trust-m/externals/mbedtls/library\oid.c ****         MBEDTLS_MD_SHA512,
 617:C:/Workspace/DAVE-4.4.2-64Bit/optiga-trust-m/externals/mbedtls/library\oid.c ****     },
 618:C:/Workspace/DAVE-4.4.2-64Bit/optiga-trust-m/externals/mbedtls/library\oid.c **** #endif /* MBEDTLS_SHA512_C */
 619:C:/Workspace/DAVE-4.4.2-64Bit/optiga-trust-m/externals/mbedtls/library\oid.c ****     {
 620:C:/Workspace/DAVE-4.4.2-64Bit/optiga-trust-m/externals/mbedtls/library\oid.c ****         { NULL, 0, NULL, NULL },
 621:C:/Workspace/DAVE-4.4.2-64Bit/optiga-trust-m/externals/mbedtls/library\oid.c ****         MBEDTLS_MD_NONE,
 622:C:/Workspace/DAVE-4.4.2-64Bit/optiga-trust-m/externals/mbedtls/library\oid.c ****     },
 623:C:/Workspace/DAVE-4.4.2-64Bit/optiga-trust-m/externals/mbedtls/library\oid.c **** };
 624:C:/Workspace/DAVE-4.4.2-64Bit/optiga-trust-m/externals/mbedtls/library\oid.c **** 
 625:C:/Workspace/DAVE-4.4.2-64Bit/optiga-trust-m/externals/mbedtls/library\oid.c **** FN_OID_TYPED_FROM_ASN1(oid_md_alg_t, md_alg, oid_md_alg)
 626:C:/Workspace/DAVE-4.4.2-64Bit/optiga-trust-m/externals/mbedtls/library\oid.c **** FN_OID_GET_ATTR1(mbedtls_oid_get_md_alg, oid_md_alg_t, md_alg, mbedtls_md_type_t, md_alg)
 654              	 .loc 1 626 0
 655              	 .cfi_startproc
 656              	.LVL64:
 657 0000 70B5     	 push {r4,r5,r6,lr}
 658              	.LCFI8:
 659              	 .cfi_def_cfa_offset 16
 660              	 .cfi_offset 4,-16
 661              	 .cfi_offset 5,-12
 662              	 .cfi_offset 6,-8
 663              	 .cfi_offset 14,-4
 664              	.LBB44:
 665              	.LBB45:
 625:C:/Workspace/DAVE-4.4.2-64Bit/optiga-trust-m/externals/mbedtls/library\oid.c **** FN_OID_GET_ATTR1(mbedtls_oid_get_md_alg, oid_md_alg_t, md_alg, mbedtls_md_type_t, md_alg)
 666              	 .loc 1 625 0
 667 0002 0028     	 cmp r0,#0
 668 0004 15D0     	 beq .L80
 669 0006 0E1C     	 mov r6,r1
 670 0008 051C     	 mov r5,r0
 671 000a 0B4C     	 ldr r4,.L82
 672              	.LVL65:
 673              	.L77:
 674 000c 2068     	 ldr r0,[r4]
 675 000e 0028     	 cmp r0,#0
 676 0010 0DD0     	 beq .L81
 677 0012 6268     	 ldr r2,[r4,#4]
 678 0014 6B68     	 ldr r3,[r5,#4]
 679 0016 9A42     	 cmp r2,r3
 680 0018 07D1     	 bne .L78
 681 001a A968     	 ldr r1,[r5,#8]
 682 001c FFF7FEFF 	 bl memcmp
 683              	.LVL66:
 684 0020 0028     	 cmp r0,#0
 685 0022 02D1     	 bne .L78
 686              	.LBE45:
 687              	.LBE44:
 688              	 .loc 1 626 0
 689 0024 237C     	 ldrb r3,[r4,#16]
 690 0026 3370     	 strb r3,[r6]
 691 0028 05E0     	 b .L76
 692              	.L78:
 693              	.LBB47:
 694              	.LBB46:
 625:C:/Workspace/DAVE-4.4.2-64Bit/optiga-trust-m/externals/mbedtls/library\oid.c **** FN_OID_GET_ATTR1(mbedtls_oid_get_md_alg, oid_md_alg_t, md_alg, mbedtls_md_type_t, md_alg)
 695              	 .loc 1 625 0
 696 002a 1434     	 add r4,r4,#20
 697              	.LVL67:
 698 002c EEE7     	 b .L77
 699              	.L81:
 700              	.LBE46:
 701              	.LBE47:
 702              	 .loc 1 626 0
 703 002e 2E38     	 sub r0,r0,#46
 704 0030 01E0     	 b .L76
 705              	.LVL68:
 706              	.L80:
 707 0032 2E20     	 mov r0,#46
 708              	.LVL69:
 709 0034 4042     	 neg r0,r0
 710              	.LVL70:
 711              	.L76:
 712              	 
 713 0036 70BD     	 pop {r4,r5,r6,pc}
 714              	.L83:
 715              	 .align 2
 716              	.L82:
 717 0038 00000000 	 .word .LANCHOR6
 718              	 .cfi_endproc
 719              	.LFE28:
 721              	 .section .text.mbedtls_oid_get_oid_by_md,"ax",%progbits
 722              	 .align 1
 723              	 .global mbedtls_oid_get_oid_by_md
 724              	 .code 16
 725              	 .thumb_func
 727              	mbedtls_oid_get_oid_by_md:
 728              	.LFB29:
 627:C:/Workspace/DAVE-4.4.2-64Bit/optiga-trust-m/externals/mbedtls/library\oid.c **** FN_OID_GET_OID_BY_ATTR1(mbedtls_oid_get_oid_by_md, oid_md_alg_t, oid_md_alg, mbedtls_md_type_t, md_
 729              	 .loc 1 627 0
 730              	 .cfi_startproc
 731              	.LVL71:
 732 0000 30B5     	 push {r4,r5,lr}
 733              	.LCFI9:
 734              	 .cfi_def_cfa_offset 12
 735              	 .cfi_offset 4,-12
 736              	 .cfi_offset 5,-8
 737              	 .cfi_offset 14,-4
 738              	 .loc 1 627 0
 739 0002 084B     	 ldr r3,.L90
 740              	.LVL72:
 741              	.L85:
 742              	 .loc 1 627 0 is_stmt 0 discriminator 4
 743 0004 1C68     	 ldr r4,[r3]
 744 0006 002C     	 cmp r4,#0
 745 0008 09D0     	 beq .L89
 746              	 .loc 1 627 0 discriminator 5
 747 000a 1D7C     	 ldrb r5,[r3,#16]
 748 000c 8542     	 cmp r5,r0
 749 000e 04D1     	 bne .L86
 750              	 .loc 1 627 0
 751 0010 5B68     	 ldr r3,[r3,#4]
 752              	.LVL73:
 753 0012 0C60     	 str r4,[r1]
 754 0014 0020     	 mov r0,#0
 755              	.LVL74:
 756 0016 1360     	 str r3,[r2]
 757 0018 03E0     	 b .L87
 758              	.LVL75:
 759              	.L86:
 760              	 .loc 1 627 0 discriminator 3
 761 001a 1433     	 add r3,r3,#20
 762              	.LVL76:
 763 001c F2E7     	 b .L85
 764              	.L89:
 765              	 .loc 1 627 0
 766 001e 2E20     	 mov r0,#46
 767              	.LVL77:
 768 0020 4042     	 neg r0,r0
 769              	.LVL78:
 770              	.L87:
 771              	 
 772 0022 30BD     	 pop {r4,r5,pc}
 773              	.L91:
 774              	 .align 2
 775              	.L90:
 776 0024 00000000 	 .word .LANCHOR6
 777              	 .cfi_endproc
 778              	.LFE29:
 780              	 .section .text.mbedtls_oid_get_md_hmac,"ax",%progbits
 781              	 .align 1
 782              	 .global mbedtls_oid_get_md_hmac
 783              	 .code 16
 784              	 .thumb_func
 786              	mbedtls_oid_get_md_hmac:
 787              	.LFB31:
 628:C:/Workspace/DAVE-4.4.2-64Bit/optiga-trust-m/externals/mbedtls/library\oid.c **** 
 629:C:/Workspace/DAVE-4.4.2-64Bit/optiga-trust-m/externals/mbedtls/library\oid.c **** /*
 630:C:/Workspace/DAVE-4.4.2-64Bit/optiga-trust-m/externals/mbedtls/library\oid.c ****  * For HMAC digestAlgorithm
 631:C:/Workspace/DAVE-4.4.2-64Bit/optiga-trust-m/externals/mbedtls/library\oid.c ****  */
 632:C:/Workspace/DAVE-4.4.2-64Bit/optiga-trust-m/externals/mbedtls/library\oid.c **** typedef struct {
 633:C:/Workspace/DAVE-4.4.2-64Bit/optiga-trust-m/externals/mbedtls/library\oid.c ****     mbedtls_oid_descriptor_t    descriptor;
 634:C:/Workspace/DAVE-4.4.2-64Bit/optiga-trust-m/externals/mbedtls/library\oid.c ****     mbedtls_md_type_t           md_hmac;
 635:C:/Workspace/DAVE-4.4.2-64Bit/optiga-trust-m/externals/mbedtls/library\oid.c **** } oid_md_hmac_t;
 636:C:/Workspace/DAVE-4.4.2-64Bit/optiga-trust-m/externals/mbedtls/library\oid.c **** 
 637:C:/Workspace/DAVE-4.4.2-64Bit/optiga-trust-m/externals/mbedtls/library\oid.c **** static const oid_md_hmac_t oid_md_hmac[] =
 638:C:/Workspace/DAVE-4.4.2-64Bit/optiga-trust-m/externals/mbedtls/library\oid.c **** {
 639:C:/Workspace/DAVE-4.4.2-64Bit/optiga-trust-m/externals/mbedtls/library\oid.c **** #if defined(MBEDTLS_SHA1_C)
 640:C:/Workspace/DAVE-4.4.2-64Bit/optiga-trust-m/externals/mbedtls/library\oid.c ****     {
 641:C:/Workspace/DAVE-4.4.2-64Bit/optiga-trust-m/externals/mbedtls/library\oid.c ****         { ADD_LEN( MBEDTLS_OID_HMAC_SHA1 ),      "hmacSHA1",      "HMAC-SHA-1" },
 642:C:/Workspace/DAVE-4.4.2-64Bit/optiga-trust-m/externals/mbedtls/library\oid.c ****         MBEDTLS_MD_SHA1,
 643:C:/Workspace/DAVE-4.4.2-64Bit/optiga-trust-m/externals/mbedtls/library\oid.c ****     },
 644:C:/Workspace/DAVE-4.4.2-64Bit/optiga-trust-m/externals/mbedtls/library\oid.c **** #endif /* MBEDTLS_SHA1_C */
 645:C:/Workspace/DAVE-4.4.2-64Bit/optiga-trust-m/externals/mbedtls/library\oid.c **** #if defined(MBEDTLS_SHA256_C)
 646:C:/Workspace/DAVE-4.4.2-64Bit/optiga-trust-m/externals/mbedtls/library\oid.c ****     {
 647:C:/Workspace/DAVE-4.4.2-64Bit/optiga-trust-m/externals/mbedtls/library\oid.c ****         { ADD_LEN( MBEDTLS_OID_HMAC_SHA224 ),    "hmacSHA224",    "HMAC-SHA-224" },
 648:C:/Workspace/DAVE-4.4.2-64Bit/optiga-trust-m/externals/mbedtls/library\oid.c ****         MBEDTLS_MD_SHA224,
 649:C:/Workspace/DAVE-4.4.2-64Bit/optiga-trust-m/externals/mbedtls/library\oid.c ****     },
 650:C:/Workspace/DAVE-4.4.2-64Bit/optiga-trust-m/externals/mbedtls/library\oid.c ****     {
 651:C:/Workspace/DAVE-4.4.2-64Bit/optiga-trust-m/externals/mbedtls/library\oid.c ****         { ADD_LEN( MBEDTLS_OID_HMAC_SHA256 ),    "hmacSHA256",    "HMAC-SHA-256" },
 652:C:/Workspace/DAVE-4.4.2-64Bit/optiga-trust-m/externals/mbedtls/library\oid.c ****         MBEDTLS_MD_SHA256,
 653:C:/Workspace/DAVE-4.4.2-64Bit/optiga-trust-m/externals/mbedtls/library\oid.c ****     },
 654:C:/Workspace/DAVE-4.4.2-64Bit/optiga-trust-m/externals/mbedtls/library\oid.c **** #endif /* MBEDTLS_SHA256_C */
 655:C:/Workspace/DAVE-4.4.2-64Bit/optiga-trust-m/externals/mbedtls/library\oid.c **** #if defined(MBEDTLS_SHA512_C)
 656:C:/Workspace/DAVE-4.4.2-64Bit/optiga-trust-m/externals/mbedtls/library\oid.c ****     {
 657:C:/Workspace/DAVE-4.4.2-64Bit/optiga-trust-m/externals/mbedtls/library\oid.c ****         { ADD_LEN( MBEDTLS_OID_HMAC_SHA384 ),    "hmacSHA384",    "HMAC-SHA-384" },
 658:C:/Workspace/DAVE-4.4.2-64Bit/optiga-trust-m/externals/mbedtls/library\oid.c ****         MBEDTLS_MD_SHA384,
 659:C:/Workspace/DAVE-4.4.2-64Bit/optiga-trust-m/externals/mbedtls/library\oid.c ****     },
 660:C:/Workspace/DAVE-4.4.2-64Bit/optiga-trust-m/externals/mbedtls/library\oid.c ****     {
 661:C:/Workspace/DAVE-4.4.2-64Bit/optiga-trust-m/externals/mbedtls/library\oid.c ****         { ADD_LEN( MBEDTLS_OID_HMAC_SHA512 ),    "hmacSHA512",    "HMAC-SHA-512" },
 662:C:/Workspace/DAVE-4.4.2-64Bit/optiga-trust-m/externals/mbedtls/library\oid.c ****         MBEDTLS_MD_SHA512,
 663:C:/Workspace/DAVE-4.4.2-64Bit/optiga-trust-m/externals/mbedtls/library\oid.c ****     },
 664:C:/Workspace/DAVE-4.4.2-64Bit/optiga-trust-m/externals/mbedtls/library\oid.c **** #endif /* MBEDTLS_SHA512_C */
 665:C:/Workspace/DAVE-4.4.2-64Bit/optiga-trust-m/externals/mbedtls/library\oid.c ****     {
 666:C:/Workspace/DAVE-4.4.2-64Bit/optiga-trust-m/externals/mbedtls/library\oid.c ****         { NULL, 0, NULL, NULL },
 667:C:/Workspace/DAVE-4.4.2-64Bit/optiga-trust-m/externals/mbedtls/library\oid.c ****         MBEDTLS_MD_NONE,
 668:C:/Workspace/DAVE-4.4.2-64Bit/optiga-trust-m/externals/mbedtls/library\oid.c ****     },
 669:C:/Workspace/DAVE-4.4.2-64Bit/optiga-trust-m/externals/mbedtls/library\oid.c **** };
 670:C:/Workspace/DAVE-4.4.2-64Bit/optiga-trust-m/externals/mbedtls/library\oid.c **** 
 671:C:/Workspace/DAVE-4.4.2-64Bit/optiga-trust-m/externals/mbedtls/library\oid.c **** FN_OID_TYPED_FROM_ASN1(oid_md_hmac_t, md_hmac, oid_md_hmac)
 672:C:/Workspace/DAVE-4.4.2-64Bit/optiga-trust-m/externals/mbedtls/library\oid.c **** FN_OID_GET_ATTR1(mbedtls_oid_get_md_hmac, oid_md_hmac_t, md_hmac, mbedtls_md_type_t, md_hmac)
 788              	 .loc 1 672 0 is_stmt 1
 789              	 .cfi_startproc
 790              	.LVL79:
 791 0000 70B5     	 push {r4,r5,r6,lr}
 792              	.LCFI10:
 793              	 .cfi_def_cfa_offset 16
 794              	 .cfi_offset 4,-16
 795              	 .cfi_offset 5,-12
 796              	 .cfi_offset 6,-8
 797              	 .cfi_offset 14,-4
 798              	.LBB50:
 799              	.LBB51:
 671:C:/Workspace/DAVE-4.4.2-64Bit/optiga-trust-m/externals/mbedtls/library\oid.c **** FN_OID_GET_ATTR1(mbedtls_oid_get_md_hmac, oid_md_hmac_t, md_hmac, mbedtls_md_type_t, md_hmac)
 800              	 .loc 1 671 0
 801 0002 0028     	 cmp r0,#0
 802 0004 15D0     	 beq .L97
 803 0006 0E1C     	 mov r6,r1
 804 0008 051C     	 mov r5,r0
 805 000a 0B4C     	 ldr r4,.L99
 806              	.LVL80:
 807              	.L94:
 808 000c 2068     	 ldr r0,[r4]
 809 000e 0028     	 cmp r0,#0
 810 0010 0DD0     	 beq .L98
 811 0012 6268     	 ldr r2,[r4,#4]
 812 0014 6B68     	 ldr r3,[r5,#4]
 813 0016 9A42     	 cmp r2,r3
 814 0018 07D1     	 bne .L95
 815 001a A968     	 ldr r1,[r5,#8]
 816 001c FFF7FEFF 	 bl memcmp
 817              	.LVL81:
 818 0020 0028     	 cmp r0,#0
 819 0022 02D1     	 bne .L95
 820              	.LBE51:
 821              	.LBE50:
 822              	 .loc 1 672 0
 823 0024 237C     	 ldrb r3,[r4,#16]
 824 0026 3370     	 strb r3,[r6]
 825 0028 05E0     	 b .L93
 826              	.L95:
 827              	.LBB53:
 828              	.LBB52:
 671:C:/Workspace/DAVE-4.4.2-64Bit/optiga-trust-m/externals/mbedtls/library\oid.c **** FN_OID_GET_ATTR1(mbedtls_oid_get_md_hmac, oid_md_hmac_t, md_hmac, mbedtls_md_type_t, md_hmac)
 829              	 .loc 1 671 0
 830 002a 1434     	 add r4,r4,#20
 831              	.LVL82:
 832 002c EEE7     	 b .L94
 833              	.L98:
 834              	.LBE52:
 835              	.LBE53:
 836              	 .loc 1 672 0
 837 002e 2E38     	 sub r0,r0,#46
 838 0030 01E0     	 b .L93
 839              	.LVL83:
 840              	.L97:
 841 0032 2E20     	 mov r0,#46
 842              	.LVL84:
 843 0034 4042     	 neg r0,r0
 844              	.LVL85:
 845              	.L93:
 846              	 
 847 0036 70BD     	 pop {r4,r5,r6,pc}
 848              	.L100:
 849              	 .align 2
 850              	.L99:
 851 0038 00000000 	 .word .LANCHOR7
 852              	 .cfi_endproc
 853              	.LFE31:
 855              	 .global __aeabi_uidiv
 856              	 .global __aeabi_uidivmod
 857              	 .section .text.mbedtls_oid_get_numeric_string,"ax",%progbits
 858              	 .align 1
 859              	 .global mbedtls_oid_get_numeric_string
 860              	 .code 16
 861              	 .thumb_func
 863              	mbedtls_oid_get_numeric_string:
 864              	.LFB32:
 673:C:/Workspace/DAVE-4.4.2-64Bit/optiga-trust-m/externals/mbedtls/library\oid.c **** #endif /* MBEDTLS_MD_C */
 674:C:/Workspace/DAVE-4.4.2-64Bit/optiga-trust-m/externals/mbedtls/library\oid.c **** 
 675:C:/Workspace/DAVE-4.4.2-64Bit/optiga-trust-m/externals/mbedtls/library\oid.c **** #if defined(MBEDTLS_PKCS12_C)
 676:C:/Workspace/DAVE-4.4.2-64Bit/optiga-trust-m/externals/mbedtls/library\oid.c **** /*
 677:C:/Workspace/DAVE-4.4.2-64Bit/optiga-trust-m/externals/mbedtls/library\oid.c ****  * For PKCS#12 PBEs
 678:C:/Workspace/DAVE-4.4.2-64Bit/optiga-trust-m/externals/mbedtls/library\oid.c ****  */
 679:C:/Workspace/DAVE-4.4.2-64Bit/optiga-trust-m/externals/mbedtls/library\oid.c **** typedef struct {
 680:C:/Workspace/DAVE-4.4.2-64Bit/optiga-trust-m/externals/mbedtls/library\oid.c ****     mbedtls_oid_descriptor_t    descriptor;
 681:C:/Workspace/DAVE-4.4.2-64Bit/optiga-trust-m/externals/mbedtls/library\oid.c ****     mbedtls_md_type_t           md_alg;
 682:C:/Workspace/DAVE-4.4.2-64Bit/optiga-trust-m/externals/mbedtls/library\oid.c ****     mbedtls_cipher_type_t       cipher_alg;
 683:C:/Workspace/DAVE-4.4.2-64Bit/optiga-trust-m/externals/mbedtls/library\oid.c **** } oid_pkcs12_pbe_alg_t;
 684:C:/Workspace/DAVE-4.4.2-64Bit/optiga-trust-m/externals/mbedtls/library\oid.c **** 
 685:C:/Workspace/DAVE-4.4.2-64Bit/optiga-trust-m/externals/mbedtls/library\oid.c **** static const oid_pkcs12_pbe_alg_t oid_pkcs12_pbe_alg[] =
 686:C:/Workspace/DAVE-4.4.2-64Bit/optiga-trust-m/externals/mbedtls/library\oid.c **** {
 687:C:/Workspace/DAVE-4.4.2-64Bit/optiga-trust-m/externals/mbedtls/library\oid.c ****     {
 688:C:/Workspace/DAVE-4.4.2-64Bit/optiga-trust-m/externals/mbedtls/library\oid.c ****         { ADD_LEN( MBEDTLS_OID_PKCS12_PBE_SHA1_DES3_EDE_CBC ), "pbeWithSHAAnd3-KeyTripleDES-CBC", "
 689:C:/Workspace/DAVE-4.4.2-64Bit/optiga-trust-m/externals/mbedtls/library\oid.c ****         MBEDTLS_MD_SHA1,      MBEDTLS_CIPHER_DES_EDE3_CBC,
 690:C:/Workspace/DAVE-4.4.2-64Bit/optiga-trust-m/externals/mbedtls/library\oid.c ****     },
 691:C:/Workspace/DAVE-4.4.2-64Bit/optiga-trust-m/externals/mbedtls/library\oid.c ****     {
 692:C:/Workspace/DAVE-4.4.2-64Bit/optiga-trust-m/externals/mbedtls/library\oid.c ****         { ADD_LEN( MBEDTLS_OID_PKCS12_PBE_SHA1_DES2_EDE_CBC ), "pbeWithSHAAnd2-KeyTripleDES-CBC", "
 693:C:/Workspace/DAVE-4.4.2-64Bit/optiga-trust-m/externals/mbedtls/library\oid.c ****         MBEDTLS_MD_SHA1,      MBEDTLS_CIPHER_DES_EDE_CBC,
 694:C:/Workspace/DAVE-4.4.2-64Bit/optiga-trust-m/externals/mbedtls/library\oid.c ****     },
 695:C:/Workspace/DAVE-4.4.2-64Bit/optiga-trust-m/externals/mbedtls/library\oid.c ****     {
 696:C:/Workspace/DAVE-4.4.2-64Bit/optiga-trust-m/externals/mbedtls/library\oid.c ****         { NULL, 0, NULL, NULL },
 697:C:/Workspace/DAVE-4.4.2-64Bit/optiga-trust-m/externals/mbedtls/library\oid.c ****         MBEDTLS_MD_NONE, MBEDTLS_CIPHER_NONE,
 698:C:/Workspace/DAVE-4.4.2-64Bit/optiga-trust-m/externals/mbedtls/library\oid.c ****     },
 699:C:/Workspace/DAVE-4.4.2-64Bit/optiga-trust-m/externals/mbedtls/library\oid.c **** };
 700:C:/Workspace/DAVE-4.4.2-64Bit/optiga-trust-m/externals/mbedtls/library\oid.c **** 
 701:C:/Workspace/DAVE-4.4.2-64Bit/optiga-trust-m/externals/mbedtls/library\oid.c **** FN_OID_TYPED_FROM_ASN1(oid_pkcs12_pbe_alg_t, pkcs12_pbe_alg, oid_pkcs12_pbe_alg)
 702:C:/Workspace/DAVE-4.4.2-64Bit/optiga-trust-m/externals/mbedtls/library\oid.c **** FN_OID_GET_ATTR2(mbedtls_oid_get_pkcs12_pbe_alg, oid_pkcs12_pbe_alg_t, pkcs12_pbe_alg, mbedtls_md_t
 703:C:/Workspace/DAVE-4.4.2-64Bit/optiga-trust-m/externals/mbedtls/library\oid.c **** #endif /* MBEDTLS_PKCS12_C */
 704:C:/Workspace/DAVE-4.4.2-64Bit/optiga-trust-m/externals/mbedtls/library\oid.c **** 
 705:C:/Workspace/DAVE-4.4.2-64Bit/optiga-trust-m/externals/mbedtls/library\oid.c **** #define OID_SAFE_SNPRINTF                               \
 706:C:/Workspace/DAVE-4.4.2-64Bit/optiga-trust-m/externals/mbedtls/library\oid.c ****     do {                                                \
 707:C:/Workspace/DAVE-4.4.2-64Bit/optiga-trust-m/externals/mbedtls/library\oid.c ****         if( ret < 0 || (size_t) ret >= n )              \
 708:C:/Workspace/DAVE-4.4.2-64Bit/optiga-trust-m/externals/mbedtls/library\oid.c ****             return( MBEDTLS_ERR_OID_BUF_TOO_SMALL );    \
 709:C:/Workspace/DAVE-4.4.2-64Bit/optiga-trust-m/externals/mbedtls/library\oid.c ****                                                         \
 710:C:/Workspace/DAVE-4.4.2-64Bit/optiga-trust-m/externals/mbedtls/library\oid.c ****         n -= (size_t) ret;                              \
 711:C:/Workspace/DAVE-4.4.2-64Bit/optiga-trust-m/externals/mbedtls/library\oid.c ****         p += (size_t) ret;                              \
 712:C:/Workspace/DAVE-4.4.2-64Bit/optiga-trust-m/externals/mbedtls/library\oid.c ****     } while( 0 )
 713:C:/Workspace/DAVE-4.4.2-64Bit/optiga-trust-m/externals/mbedtls/library\oid.c **** 
 714:C:/Workspace/DAVE-4.4.2-64Bit/optiga-trust-m/externals/mbedtls/library\oid.c **** /* Return the x.y.z.... style numeric string for the given OID */
 715:C:/Workspace/DAVE-4.4.2-64Bit/optiga-trust-m/externals/mbedtls/library\oid.c **** int mbedtls_oid_get_numeric_string( char *buf, size_t size,
 716:C:/Workspace/DAVE-4.4.2-64Bit/optiga-trust-m/externals/mbedtls/library\oid.c ****                             const mbedtls_asn1_buf *oid )
 717:C:/Workspace/DAVE-4.4.2-64Bit/optiga-trust-m/externals/mbedtls/library\oid.c **** {
 865              	 .loc 1 717 0
 866              	 .cfi_startproc
 867              	.LVL86:
 868 0000 F0B5     	 push {r4,r5,r6,r7,lr}
 869              	.LCFI11:
 870              	 .cfi_def_cfa_offset 20
 871              	 .cfi_offset 4,-20
 872              	 .cfi_offset 5,-16
 873              	 .cfi_offset 6,-12
 874              	 .cfi_offset 7,-8
 875              	 .cfi_offset 14,-4
 718:C:/Workspace/DAVE-4.4.2-64Bit/optiga-trust-m/externals/mbedtls/library\oid.c ****     int ret;
 719:C:/Workspace/DAVE-4.4.2-64Bit/optiga-trust-m/externals/mbedtls/library\oid.c ****     size_t i, n;
 720:C:/Workspace/DAVE-4.4.2-64Bit/optiga-trust-m/externals/mbedtls/library\oid.c ****     unsigned int value;
 721:C:/Workspace/DAVE-4.4.2-64Bit/optiga-trust-m/externals/mbedtls/library\oid.c ****     char *p;
 722:C:/Workspace/DAVE-4.4.2-64Bit/optiga-trust-m/externals/mbedtls/library\oid.c **** 
 723:C:/Workspace/DAVE-4.4.2-64Bit/optiga-trust-m/externals/mbedtls/library\oid.c ****     p = buf;
 724:C:/Workspace/DAVE-4.4.2-64Bit/optiga-trust-m/externals/mbedtls/library\oid.c ****     n = size;
 725:C:/Workspace/DAVE-4.4.2-64Bit/optiga-trust-m/externals/mbedtls/library\oid.c **** 
 726:C:/Workspace/DAVE-4.4.2-64Bit/optiga-trust-m/externals/mbedtls/library\oid.c ****     /* First byte contains first two dots */
 727:C:/Workspace/DAVE-4.4.2-64Bit/optiga-trust-m/externals/mbedtls/library\oid.c ****     if( oid->len > 0 )
 876              	 .loc 1 727 0
 877 0002 5368     	 ldr r3,[r2,#4]
 717:C:/Workspace/DAVE-4.4.2-64Bit/optiga-trust-m/externals/mbedtls/library\oid.c ****     int ret;
 878              	 .loc 1 717 0
 879 0004 85B0     	 sub sp,sp,#20
 880              	.LCFI12:
 881              	 .cfi_def_cfa_offset 40
 717:C:/Workspace/DAVE-4.4.2-64Bit/optiga-trust-m/externals/mbedtls/library\oid.c ****     int ret;
 882              	 .loc 1 717 0
 883 0006 061C     	 mov r6,r0
 884              	.LVL87:
 885 0008 0C1C     	 mov r4,r1
 886 000a 171C     	 mov r7,r2
 887 000c 0D1C     	 mov r5,r1
 888              	 .loc 1 727 0
 889 000e 002B     	 cmp r3,#0
 890 0010 1CD0     	 beq .L102
 728:C:/Workspace/DAVE-4.4.2-64Bit/optiga-trust-m/externals/mbedtls/library\oid.c ****     {
 729:C:/Workspace/DAVE-4.4.2-64Bit/optiga-trust-m/externals/mbedtls/library\oid.c ****         ret = mbedtls_snprintf( p, n, "%d.%d", oid->p[0] / 40, oid->p[0] % 40 );
 891              	 .loc 1 729 0
 892 0012 9368     	 ldr r3,[r2,#8]
 893 0014 2821     	 mov r1,#40
 894              	.LVL88:
 895 0016 1D78     	 ldrb r5,[r3]
 896 0018 281C     	 mov r0,r5
 897              	.LVL89:
 898 001a FFF7FEFF 	 bl __aeabi_uidiv
 899              	.LVL90:
 900 001e 2821     	 mov r1,#40
 901 0020 C3B2     	 uxtb r3,r0
 902 0022 281C     	 mov r0,r5
 903 0024 0393     	 str r3,[sp,#12]
 904 0026 FFF7FEFF 	 bl __aeabi_uidivmod
 905              	.LVL91:
 906 002a C9B2     	 uxtb r1,r1
 907 002c 0091     	 str r1,[sp]
 908 002e 301C     	 mov r0,r6
 909 0030 211C     	 mov r1,r4
 910 0032 194A     	 ldr r2,.L113
 911 0034 039B     	 ldr r3,[sp,#12]
 912 0036 FFF7FEFF 	 bl snprintf
 913              	.LVL92:
 730:C:/Workspace/DAVE-4.4.2-64Bit/optiga-trust-m/externals/mbedtls/library\oid.c ****         OID_SAFE_SNPRINTF;
 914              	 .loc 1 730 0
 915 003a 0028     	 cmp r0,#0
 916 003c 02DA     	 bge .L103
 917              	.LVL93:
 918              	.L105:
 919 003e 0B20     	 mov r0,#11
 920 0040 4042     	 neg r0,r0
 921 0042 27E0     	 b .L104
 922              	.LVL94:
 923              	.L103:
 924              	 .loc 1 730 0 is_stmt 0 discriminator 2
 925 0044 A042     	 cmp r0,r4
 926 0046 FAD2     	 bcs .L105
 927              	 .loc 1 730 0 discriminator 4
 928 0048 251A     	 sub r5,r4,r0
 929              	.LVL95:
 930 004a 3618     	 add r6,r6,r0
 931              	.LVL96:
 932              	.L102:
 731:C:/Workspace/DAVE-4.4.2-64Bit/optiga-trust-m/externals/mbedtls/library\oid.c ****     }
 732:C:/Workspace/DAVE-4.4.2-64Bit/optiga-trust-m/externals/mbedtls/library\oid.c **** 
 733:C:/Workspace/DAVE-4.4.2-64Bit/optiga-trust-m/externals/mbedtls/library\oid.c ****     value = 0;
 734:C:/Workspace/DAVE-4.4.2-64Bit/optiga-trust-m/externals/mbedtls/library\oid.c ****     for( i = 1; i < oid->len; i++ )
 735:C:/Workspace/DAVE-4.4.2-64Bit/optiga-trust-m/externals/mbedtls/library\oid.c ****     {
 736:C:/Workspace/DAVE-4.4.2-64Bit/optiga-trust-m/externals/mbedtls/library\oid.c ****         /* Prevent overflow in value. */
 737:C:/Workspace/DAVE-4.4.2-64Bit/optiga-trust-m/externals/mbedtls/library\oid.c ****         if( ( ( value << 7 ) >> 7 ) != value )
 738:C:/Workspace/DAVE-4.4.2-64Bit/optiga-trust-m/externals/mbedtls/library\oid.c ****             return( MBEDTLS_ERR_OID_BUF_TOO_SMALL );
 739:C:/Workspace/DAVE-4.4.2-64Bit/optiga-trust-m/externals/mbedtls/library\oid.c **** 
 740:C:/Workspace/DAVE-4.4.2-64Bit/optiga-trust-m/externals/mbedtls/library\oid.c ****         value <<= 7;
 741:C:/Workspace/DAVE-4.4.2-64Bit/optiga-trust-m/externals/mbedtls/library\oid.c ****         value += oid->p[i] & 0x7F;
 742:C:/Workspace/DAVE-4.4.2-64Bit/optiga-trust-m/externals/mbedtls/library\oid.c **** 
 743:C:/Workspace/DAVE-4.4.2-64Bit/optiga-trust-m/externals/mbedtls/library\oid.c ****         if( !( oid->p[i] & 0x80 ) )
 744:C:/Workspace/DAVE-4.4.2-64Bit/optiga-trust-m/externals/mbedtls/library\oid.c ****         {
 745:C:/Workspace/DAVE-4.4.2-64Bit/optiga-trust-m/externals/mbedtls/library\oid.c ****             /* Last byte */
 746:C:/Workspace/DAVE-4.4.2-64Bit/optiga-trust-m/externals/mbedtls/library\oid.c ****             ret = mbedtls_snprintf( p, n, ".%d", value );
 747:C:/Workspace/DAVE-4.4.2-64Bit/optiga-trust-m/externals/mbedtls/library\oid.c ****             OID_SAFE_SNPRINTF;
 748:C:/Workspace/DAVE-4.4.2-64Bit/optiga-trust-m/externals/mbedtls/library\oid.c ****             value = 0;
 933              	 .loc 1 748 0 is_stmt 1 discriminator 1
 934 004c 0023     	 mov r3,#0
 935 004e 0122     	 mov r2,#1
 936              	.L111:
 734:C:/Workspace/DAVE-4.4.2-64Bit/optiga-trust-m/externals/mbedtls/library\oid.c ****     {
 937              	 .loc 1 734 0 discriminator 2
 938 0050 0392     	 str r2,[sp,#12]
 939              	.LVL97:
 940 0052 039A     	 ldr r2,[sp,#12]
 941 0054 7968     	 ldr r1,[r7,#4]
 942 0056 8A42     	 cmp r2,r1
 943 0058 1BD2     	 bcs .L112
 737:C:/Workspace/DAVE-4.4.2-64Bit/optiga-trust-m/externals/mbedtls/library\oid.c ****             return( MBEDTLS_ERR_OID_BUF_TOO_SMALL );
 944              	 .loc 1 737 0
 945 005a D901     	 lsl r1,r3,#7
 946 005c CA09     	 lsr r2,r1,#7
 947              	.LVL98:
 948 005e 9A42     	 cmp r2,r3
 949 0060 EDD1     	 bne .L105
 950              	.LVL99:
 741:C:/Workspace/DAVE-4.4.2-64Bit/optiga-trust-m/externals/mbedtls/library\oid.c **** 
 951              	 .loc 1 741 0
 952 0062 BB68     	 ldr r3,[r7,#8]
 953 0064 039A     	 ldr r2,[sp,#12]
 954 0066 9A5C     	 ldrb r2,[r3,r2]
 955 0068 7F23     	 mov r3,#127
 956 006a 1340     	 and r3,r2
 743:C:/Workspace/DAVE-4.4.2-64Bit/optiga-trust-m/externals/mbedtls/library\oid.c ****         {
 957              	 .loc 1 743 0
 958 006c 52B2     	 sxtb r2,r2
 741:C:/Workspace/DAVE-4.4.2-64Bit/optiga-trust-m/externals/mbedtls/library\oid.c **** 
 959              	 .loc 1 741 0
 960 006e 5B18     	 add r3,r3,r1
 961              	.LVL100:
 743:C:/Workspace/DAVE-4.4.2-64Bit/optiga-trust-m/externals/mbedtls/library\oid.c ****         {
 962              	 .loc 1 743 0
 963 0070 002A     	 cmp r2,#0
 964 0072 0BDB     	 blt .L107
 746:C:/Workspace/DAVE-4.4.2-64Bit/optiga-trust-m/externals/mbedtls/library\oid.c ****             OID_SAFE_SNPRINTF;
 965              	 .loc 1 746 0
 966 0074 301C     	 mov r0,r6
 967 0076 291C     	 mov r1,r5
 968 0078 084A     	 ldr r2,.L113+4
 969 007a FFF7FEFF 	 bl snprintf
 970              	.LVL101:
 747:C:/Workspace/DAVE-4.4.2-64Bit/optiga-trust-m/externals/mbedtls/library\oid.c ****             value = 0;
 971              	 .loc 1 747 0
 972 007e 0028     	 cmp r0,#0
 973 0080 DDDB     	 blt .L105
 747:C:/Workspace/DAVE-4.4.2-64Bit/optiga-trust-m/externals/mbedtls/library\oid.c ****             value = 0;
 974              	 .loc 1 747 0 is_stmt 0 discriminator 2
 975 0082 A842     	 cmp r0,r5
 976 0084 DBD2     	 bcs .L105
 977              	 .loc 1 748 0 is_stmt 1 discriminator 4
 978 0086 0023     	 mov r3,#0
 747:C:/Workspace/DAVE-4.4.2-64Bit/optiga-trust-m/externals/mbedtls/library\oid.c ****             value = 0;
 979              	 .loc 1 747 0 discriminator 4
 980 0088 2D1A     	 sub r5,r5,r0
 981              	.LVL102:
 982 008a 3618     	 add r6,r6,r0
 983              	.LVL103:
 984              	.L107:
 734:C:/Workspace/DAVE-4.4.2-64Bit/optiga-trust-m/externals/mbedtls/library\oid.c ****     {
 985              	 .loc 1 734 0 discriminator 2
 986 008c 039A     	 ldr r2,[sp,#12]
 987 008e 0132     	 add r2,r2,#1
 988 0090 DEE7     	 b .L111
 989              	.LVL104:
 990              	.L112:
 749:C:/Workspace/DAVE-4.4.2-64Bit/optiga-trust-m/externals/mbedtls/library\oid.c ****         }
 750:C:/Workspace/DAVE-4.4.2-64Bit/optiga-trust-m/externals/mbedtls/library\oid.c ****     }
 751:C:/Workspace/DAVE-4.4.2-64Bit/optiga-trust-m/externals/mbedtls/library\oid.c **** 
 752:C:/Workspace/DAVE-4.4.2-64Bit/optiga-trust-m/externals/mbedtls/library\oid.c ****     return( (int) ( size - n ) );
 991              	 .loc 1 752 0
 992 0092 601B     	 sub r0,r4,r5
 993              	.LVL105:
 994              	.L104:
 753:C:/Workspace/DAVE-4.4.2-64Bit/optiga-trust-m/externals/mbedtls/library\oid.c **** }
 995              	 .loc 1 753 0
 996 0094 05B0     	 add sp,sp,#20
 997              	 
 998              	.LVL106:
 999              	.LVL107:
 1000              	.LVL108:
 1001 0096 F0BD     	 pop {r4,r5,r6,r7,pc}
 1002              	.L114:
 1003              	 .align 2
 1004              	.L113:
 1005 0098 00000000 	 .word .LC15
 1006 009c 06000000 	 .word .LC17
 1007              	 .cfi_endproc
 1008              	.LFE32:
 1010              	 .section .rodata.oid_md_hmac,"a",%progbits
 1011              	 .align 2
 1012              	 .set .LANCHOR7,.+0
 1015              	oid_md_hmac:
 1016 0000 0A000000 	 .word .LC19
 1017 0004 08000000 	 .word 8
 1018 0008 13000000 	 .word .LC20
 1019 000c 1E000000 	 .word .LC21
 1020 0010 05       	 .byte 5
 1021 0011 000000   	 .space 3
 1022 0014 2B000000 	 .word .LC22
 1023 0018 08000000 	 .word 8
 1024 001c 34000000 	 .word .LC23
 1025 0020 3F000000 	 .word .LC24
 1026 0024 06       	 .byte 6
 1027 0025 000000   	 .space 3
 1028 0028 00000000 	 .word 0
 1029 002c 00000000 	 .word 0
 1030 0030 00000000 	 .word 0
 1031 0034 00000000 	 .word 0
 1032 0038 00       	 .byte 0
 1033 0039 000000   	 .space 3
 1034              	 .section .rodata.oid_pk_alg,"a",%progbits
 1035              	 .align 2
 1036              	 .set .LANCHOR3,.+0
 1039              	oid_pk_alg:
 1040 0000 CF000000 	 .word .LC39
 1041 0004 09000000 	 .word 9
 1042 0008 D9000000 	 .word .LC40
 1043 000c E7000000 	 .word .LC41
 1044 0010 01       	 .byte 1
 1045 0011 000000   	 .space 3
 1046 0014 EB000000 	 .word .LC42
 1047 0018 07000000 	 .word 7
 1048 001c F3000000 	 .word .LC43
 1049 0020 02010000 	 .word .LC44
 1050 0024 02       	 .byte 2
 1051 0025 000000   	 .space 3
 1052 0028 11010000 	 .word .LC45
 1053 002c 05000000 	 .word 5
 1054 0030 17010000 	 .word .LC46
 1055 0034 1F010000 	 .word .LC47
 1056 0038 03       	 .byte 3
 1057 0039 000000   	 .space 3
 1058 003c 00000000 	 .word 0
 1059 0040 00000000 	 .word 0
 1060 0044 00000000 	 .word 0
 1061 0048 00000000 	 .word 0
 1062 004c 00       	 .byte 0
 1063 004d 000000   	 .space 3
 1064              	 .section .rodata.oid_cipher_alg,"a",%progbits
 1065              	 .align 2
 1066              	 .set .LANCHOR5,.+0
 1069              	oid_cipher_alg:
 1070 0000 84000000 	 .word .LC31
 1071 0004 05000000 	 .word 5
 1072 0008 8A000000 	 .word .LC32
 1073 000c 91000000 	 .word .LC33
 1074 0010 21       	 .byte 33
 1075 0011 000000   	 .space 3
 1076 0014 99000000 	 .word .LC34
 1077 0018 08000000 	 .word 8
 1078 001c A2000000 	 .word .LC35
 1079 0020 AF000000 	 .word .LC36
 1080 0024 25       	 .byte 37
 1081 0025 000000   	 .space 3
 1082 0028 00000000 	 .word 0
 1083 002c 00000000 	 .word 0
 1084 0030 00000000 	 .word 0
 1085 0034 00000000 	 .word 0
 1086 0038 00       	 .byte 0
 1087 0039 000000   	 .space 3
 1088              	 .section .rodata.str1.1,"aMS",%progbits,1
 1089              	.LC15:
 1090 0000 25642E25 	 .ascii "%d.%d\000"
 1090      6400
 1091              	.LC17:
 1092 0006 2E256400 	 .ascii ".%d\000"
 1093              	.LC19:
 1094 000a 2A864886 	 .ascii "*\206H\206\367\015\002\010\000"
 1094      F70D0208 
 1094      00
 1095              	.LC20:
 1096 0013 686D6163 	 .ascii "hmacSHA224\000"
 1096      53484132 
 1096      323400
 1097              	.LC21:
 1098 001e 484D4143 	 .ascii "HMAC-SHA-224\000"
 1098      2D534841 
 1098      2D323234 
 1098      00
 1099              	.LC22:
 1100 002b 2A864886 	 .ascii "*\206H\206\367\015\002\011\000"
 1100      F70D0209 
 1100      00
 1101              	.LC23:
 1102 0034 686D6163 	 .ascii "hmacSHA256\000"
 1102      53484132 
 1102      353600
 1103              	.LC24:
 1104 003f 484D4143 	 .ascii "HMAC-SHA-256\000"
 1104      2D534841 
 1104      2D323536 
 1104      00
 1105              	.LC25:
 1106 004c 60864801 	 .ascii "`\206H\001e\003\004\002\004\000"
 1106      65030402 
 1106      0400
 1107              	.LC26:
 1108 0056 69642D73 	 .ascii "id-sha224\000"
 1108      68613232 
 1108      3400
 1109              	.LC27:
 1110 0060 5348412D 	 .ascii "SHA-224\000"
 1110      32323400 
 1111              	.LC28:
 1112 0068 60864801 	 .ascii "`\206H\001e\003\004\002\001\000"
 1112      65030402 
 1112      0100
 1113              	.LC29:
 1114 0072 69642D73 	 .ascii "id-sha256\000"
 1114      68613235 
 1114      3600
 1115              	.LC30:
 1116 007c 5348412D 	 .ascii "SHA-256\000"
 1116      32353600 
 1117              	.LC31:
 1118 0084 2B0E0302 	 .ascii "+\016\003\002\007\000"
 1118      0700
 1119              	.LC32:
 1120 008a 64657343 	 .ascii "desCBC\000"
 1120      424300
 1121              	.LC33:
 1122 0091 4445532D 	 .ascii "DES-CBC\000"
 1122      43424300 
 1123              	.LC34:
 1124 0099 2A864886 	 .ascii "*\206H\206\367\015\003\007\000"
 1124      F70D0307 
 1124      00
 1125              	.LC35:
 1126 00a2 6465732D 	 .ascii "des-ede3-cbc\000"
 1126      65646533 
 1126      2D636263 
 1126      00
 1127              	.LC36:
 1128 00af 4445532D 	 .ascii "DES-EDE3-CBC\000"
 1128      45444533 
 1128      2D434243 
 1128      00
 1129              	.LC37:
 1130 00bc 2A8648CE 	 .ascii "*\206H\316=\003\001\007\000"
 1130      3D030107 
 1130      00
 1131              	.LC38:
 1132 00c5 73656370 	 .ascii "secp256r1\000"
 1132      32353672 
 1132      3100
 1133              	.LC39:
 1134 00cf 2A864886 	 .ascii "*\206H\206\367\015\001\001\001\000"
 1134      F70D0101 
 1134      0100
 1135              	.LC40:
 1136 00d9 72736145 	 .ascii "rsaEncryption\000"
 1136      6E637279 
 1136      7074696F 
 1136      6E00
 1137              	.LC41:
 1138 00e7 52534100 	 .ascii "RSA\000"
 1139              	.LC42:
 1140 00eb 2A8648CE 	 .ascii "*\206H\316=\002\001\000"
 1140      3D020100 
 1141              	.LC43:
 1142 00f3 69642D65 	 .ascii "id-ecPublicKey\000"
 1142      63507562 
 1142      6C69634B 
 1142      657900
 1143              	.LC44:
 1144 0102 47656E65 	 .ascii "Generic EC key\000"
 1144      72696320 
 1144      4543206B 
 1144      657900
 1145              	.LC45:
 1146 0111 2B810401 	 .ascii "+\201\004\001\014\000"
 1146      0C00
 1147              	.LC46:
 1148 0117 69642D65 	 .ascii "id-ecDH\000"
 1148      63444800 
 1149              	.LC47:
 1150 011f 4543206B 	 .ascii "EC key for ECDH\000"
 1150      65792066 
 1150      6F722045 
 1150      43444800 
 1151              	.LC48:
 1152 012f 2B060105 	 .ascii "+\006\001\005\005\007\003\001\000"
 1152      05070301 
 1152      00
 1153              	.LC49:
 1154 0138 69642D6B 	 .ascii "id-kp-serverAuth\000"
 1154      702D7365 
 1154      72766572 
 1154      41757468 
 1154      00
 1155              	.LC50:
 1156 0149 544C5320 	 .ascii "TLS Web Server Authentication\000"
 1156      57656220 
 1156      53657276 
 1156      65722041 
 1156      75746865 
 1157              	.LC51:
 1158 0167 2B060105 	 .ascii "+\006\001\005\005\007\003\002\000"
 1158      05070302 
 1158      00
 1159              	.LC52:
 1160 0170 69642D6B 	 .ascii "id-kp-clientAuth\000"
 1160      702D636C 
 1160      69656E74 
 1160      41757468 
 1160      00
 1161              	.LC53:
 1162 0181 544C5320 	 .ascii "TLS Web Client Authentication\000"
 1162      57656220 
 1162      436C6965 
 1162      6E742041 
 1162      75746865 
 1163              	.LC54:
 1164 019f 2B060105 	 .ascii "+\006\001\005\005\007\003\003\000"
 1164      05070303 
 1164      00
 1165              	.LC55:
 1166 01a8 69642D6B 	 .ascii "id-kp-codeSigning\000"
 1166      702D636F 
 1166      64655369 
 1166      676E696E 
 1166      6700
 1167              	.LC56:
 1168 01ba 436F6465 	 .ascii "Code Signing\000"
 1168      20536967 
 1168      6E696E67 
 1168      00
 1169              	.LC57:
 1170 01c7 2B060105 	 .ascii "+\006\001\005\005\007\003\004\000"
 1170      05070304 
 1170      00
 1171              	.LC58:
 1172 01d0 69642D6B 	 .ascii "id-kp-emailProtection\000"
 1172      702D656D 
 1172      61696C50 
 1172      726F7465 
 1172      6374696F 
 1173              	.LC59:
 1174 01e6 452D6D61 	 .ascii "E-mail Protection\000"
 1174      696C2050 
 1174      726F7465 
 1174      6374696F 
 1174      6E00
 1175              	.LC60:
 1176 01f8 2B060105 	 .ascii "+\006\001\005\005\007\003\010\000"
 1176      05070308 
 1176      00
 1177              	.LC61:
 1178 0201 69642D6B 	 .ascii "id-kp-timeStamping\000"
 1178      702D7469 
 1178      6D655374 
 1178      616D7069 
 1178      6E6700
 1179              	.LC62:
 1180 0214 54696D65 	 .ascii "Time Stamping\000"
 1180      20537461 
 1180      6D70696E 
 1180      6700
 1181              	.LC63:
 1182 0222 2B060105 	 .ascii "+\006\001\005\005\007\003\011\000"
 1182      05070309 
 1182      00
 1183              	.LC64:
 1184 022b 69642D6B 	 .ascii "id-kp-OCSPSigning\000"
 1184      702D4F43 
 1184      53505369 
 1184      676E696E 
 1184      6700
 1185              	.LC65:
 1186 023d 4F435350 	 .ascii "OCSP Signing\000"
 1186      20536967 
 1186      6E696E67 
 1186      00
 1187              	.LC66:
 1188 024a 551D1300 	 .ascii "U\035\023\000"
 1189              	.LC67:
 1190 024e 69642D63 	 .ascii "id-ce-basicConstraints\000"
 1190      652D6261 
 1190      73696343 
 1190      6F6E7374 
 1190      7261696E 
 1191              	.LC68:
 1192 0265 42617369 	 .ascii "Basic Constraints\000"
 1192      6320436F 
 1192      6E737472 
 1192      61696E74 
 1192      7300
 1193              	.LC69:
 1194 0277 551D0F00 	 .ascii "U\035\017\000"
 1195              	.LC70:
 1196 027b 69642D63 	 .ascii "id-ce-keyUsage\000"
 1196      652D6B65 
 1196      79557361 
 1196      676500
 1197              	.LC71:
 1198 028a 4B657920 	 .ascii "Key Usage\000"
 1198      55736167 
 1198      6500
 1199              	.LC72:
 1200 0294 551D2500 	 .ascii "U\035%\000"
 1201              	.LC73:
 1202 0298 69642D63 	 .ascii "id-ce-extKeyUsage\000"
 1202      652D6578 
 1202      744B6579 
 1202      55736167 
 1202      6500
 1203              	.LC74:
 1204 02aa 45787465 	 .ascii "Extended Key Usage\000"
 1204      6E646564 
 1204      204B6579 
 1204      20557361 
 1204      676500
 1205              	.LC75:
 1206 02bd 551D1100 	 .ascii "U\035\021\000"
 1207              	.LC76:
 1208 02c1 69642D63 	 .ascii "id-ce-subjectAltName\000"
 1208      652D7375 
 1208      626A6563 
 1208      74416C74 
 1208      4E616D65 
 1209              	.LC77:
 1210 02d6 5375626A 	 .ascii "Subject Alt Name\000"
 1210      65637420 
 1210      416C7420 
 1210      4E616D65 
 1210      00
 1211              	.LC78:
 1212 02e7 60864801 	 .ascii "`\206H\001\206\370B\001\001\000"
 1212      86F84201 
 1212      0100
 1213              	.LC79:
 1214 02f1 69642D6E 	 .ascii "id-netscape-certtype\000"
 1214      65747363 
 1214      6170652D 
 1214      63657274 
 1214      74797065 
 1215              	.LC80:
 1216 0306 4E657473 	 .ascii "Netscape Certificate Type\000"
 1216      63617065 
 1216      20436572 
 1216      74696669 
 1216      63617465 
 1217              	.LC81:
 1218 0320 55040300 	 .ascii "U\004\003\000"
 1219              	.LC82:
 1220 0324 69642D61 	 .ascii "id-at-commonName\000"
 1220      742D636F 
 1220      6D6D6F6E 
 1220      4E616D65 
 1220      00
 1221              	.LC83:
 1222 0335 436F6D6D 	 .ascii "Common Name\000"
 1222      6F6E204E 
 1222      616D6500 
 1223              	.LC84:
 1224 0341 434E00   	 .ascii "CN\000"
 1225              	.LC85:
 1226 0344 55040600 	 .ascii "U\004\006\000"
 1227              	.LC86:
 1228 0348 69642D61 	 .ascii "id-at-countryName\000"
 1228      742D636F 
 1228      756E7472 
 1228      794E616D 
 1228      6500
 1229              	.LC87:
 1230 035a 436F756E 	 .ascii "Country\000"
 1230      74727900 
 1231              	.LC88:
 1232 0362 4300     	 .ascii "C\000"
 1233              	.LC89:
 1234 0364 55040700 	 .ascii "U\004\007\000"
 1235              	.LC90:
 1236 0368 69642D61 	 .ascii "id-at-locality\000"
 1236      742D6C6F 
 1236      63616C69 
 1236      747900
 1237              	.LC91:
 1238 0377 4C6F6361 	 .ascii "Locality\000"
 1238      6C697479 
 1238      00
 1239              	.LC92:
 1240 0380 4C00     	 .ascii "L\000"
 1241              	.LC93:
 1242 0382 55040800 	 .ascii "U\004\010\000"
 1243              	.LC94:
 1244 0386 69642D61 	 .ascii "id-at-state\000"
 1244      742D7374 
 1244      61746500 
 1245              	.LC95:
 1246 0392 53746174 	 .ascii "State\000"
 1246      6500
 1247              	.LC96:
 1248 0398 535400   	 .ascii "ST\000"
 1249              	.LC97:
 1250 039b 55040A00 	 .ascii "U\004\012\000"
 1251              	.LC98:
 1252 039f 69642D61 	 .ascii "id-at-organizationName\000"
 1252      742D6F72 
 1252      67616E69 
 1252      7A617469 
 1252      6F6E4E61 
 1253              	.LC99:
 1254 03b6 4F726761 	 .ascii "Organization\000"
 1254      6E697A61 
 1254      74696F6E 
 1254      00
 1255              	.LC100:
 1256 03c3 4F00     	 .ascii "O\000"
 1257              	.LC101:
 1258 03c5 55040B00 	 .ascii "U\004\013\000"
 1259              	.LC102:
 1260 03c9 69642D61 	 .ascii "id-at-organizationalUnitName\000"
 1260      742D6F72 
 1260      67616E69 
 1260      7A617469 
 1260      6F6E616C 
 1261              	.LC103:
 1262 03e6 4F726720 	 .ascii "Org Unit\000"
 1262      556E6974 
 1262      00
 1263              	.LC104:
 1264 03ef 4F5500   	 .ascii "OU\000"
 1265              	.LC105:
 1266 03f2 2A864886 	 .ascii "*\206H\206\367\015\001\011\001\000"
 1266      F70D0109 
 1266      0100
 1267              	.LC106:
 1268 03fc 656D6169 	 .ascii "emailAddress\000"
 1268      6C416464 
 1268      72657373 
 1268      00
 1269              	.LC107:
 1270 0409 452D6D61 	 .ascii "E-mail address\000"
 1270      696C2061 
 1270      64647265 
 1270      737300
 1271              	.LC108:
 1272 0418 55040500 	 .ascii "U\004\005\000"
 1273              	.LC109:
 1274 041c 69642D61 	 .ascii "id-at-serialNumber\000"
 1274      742D7365 
 1274      7269616C 
 1274      4E756D62 
 1274      657200
 1275              	.LC110:
 1276 042f 53657269 	 .ascii "Serial number\000"
 1276      616C206E 
 1276      756D6265 
 1276      7200
 1277              	.LC111:
 1278 043d 73657269 	 .ascii "serialNumber\000"
 1278      616C4E75 
 1278      6D626572 
 1278      00
 1279              	.LC112:
 1280 044a 55041000 	 .ascii "U\004\020\000"
 1281              	.LC113:
 1282 044e 69642D61 	 .ascii "id-at-postalAddress\000"
 1282      742D706F 
 1282      7374616C 
 1282      41646472 
 1282      65737300 
 1283              	.LC114:
 1284 0462 506F7374 	 .ascii "Postal address\000"
 1284      616C2061 
 1284      64647265 
 1284      737300
 1285              	.LC115:
 1286 0471 706F7374 	 .ascii "postalAddress\000"
 1286      616C4164 
 1286      64726573 
 1286      7300
 1287              	.LC116:
 1288 047f 55041100 	 .ascii "U\004\021\000"
 1289              	.LC117:
 1290 0483 69642D61 	 .ascii "id-at-postalCode\000"
 1290      742D706F 
 1290      7374616C 
 1290      436F6465 
 1290      00
 1291              	.LC118:
 1292 0494 506F7374 	 .ascii "Postal code\000"
 1292      616C2063 
 1292      6F646500 
 1293              	.LC119:
 1294 04a0 706F7374 	 .ascii "postalCode\000"
 1294      616C436F 
 1294      646500
 1295              	.LC120:
 1296 04ab 55040400 	 .ascii "U\004\004\000"
 1297              	.LC121:
 1298 04af 69642D61 	 .ascii "id-at-surName\000"
 1298      742D7375 
 1298      724E616D 
 1298      6500
 1299              	.LC122:
 1300 04bd 5375726E 	 .ascii "Surname\000"
 1300      616D6500 
 1301              	.LC123:
 1302 04c5 534E00   	 .ascii "SN\000"
 1303              	.LC124:
 1304 04c8 55042A00 	 .ascii "U\004*\000"
 1305              	.LC125:
 1306 04cc 69642D61 	 .ascii "id-at-givenName\000"
 1306      742D6769 
 1306      76656E4E 
 1306      616D6500 
 1307              	.LC126:
 1308 04dc 47697665 	 .ascii "Given name\000"
 1308      6E206E61 
 1308      6D6500
 1309              	.LC127:
 1310 04e7 474E00   	 .ascii "GN\000"
 1311              	.LC128:
 1312 04ea 55042B00 	 .ascii "U\004+\000"
 1313              	.LC129:
 1314 04ee 69642D61 	 .ascii "id-at-initials\000"
 1314      742D696E 
 1314      69746961 
 1314      6C7300
 1315              	.LC130:
 1316 04fd 496E6974 	 .ascii "Initials\000"
 1316      69616C73 
 1316      00
 1317              	.LC131:
 1318 0506 696E6974 	 .ascii "initials\000"
 1318      69616C73 
 1318      00
 1319              	.LC132:
 1320 050f 55042C00 	 .ascii "U\004,\000"
 1321              	.LC133:
 1322 0513 69642D61 	 .ascii "id-at-generationQualifier\000"
 1322      742D6765 
 1322      6E657261 
 1322      74696F6E 
 1322      5175616C 
 1323              	.LC134:
 1324 052d 47656E65 	 .ascii "Generation qualifier\000"
 1324      72617469 
 1324      6F6E2071 
 1324      75616C69 
 1324      66696572 
 1325              	.LC135:
 1326 0542 67656E65 	 .ascii "generationQualifier\000"
 1326      72617469 
 1326      6F6E5175 
 1326      616C6966 
 1326      69657200 
 1327              	.LC136:
 1328 0556 55040C00 	 .ascii "U\004\014\000"
 1329              	.LC137:
 1330 055a 69642D61 	 .ascii "id-at-title\000"
 1330      742D7469 
 1330      746C6500 
 1331              	.LC138:
 1332 0566 5469746C 	 .ascii "Title\000"
 1332      6500
 1333              	.LC139:
 1334 056c 7469746C 	 .ascii "title\000"
 1334      6500
 1335              	.LC140:
 1336 0572 55042E00 	 .ascii "U\004.\000"
 1337              	.LC141:
 1338 0576 69642D61 	 .ascii "id-at-dnQualifier\000"
 1338      742D646E 
 1338      5175616C 
 1338      69666965 
 1338      7200
 1339              	.LC142:
 1340 0588 44697374 	 .ascii "Distinguished Name qualifier\000"
 1340      696E6775 
 1340      69736865 
 1340      64204E61 
 1340      6D652071 
 1341              	.LC143:
 1342 05a5 646E5175 	 .ascii "dnQualifier\000"
 1342      616C6966 
 1342      69657200 
 1343              	.LC144:
 1344 05b1 55044100 	 .ascii "U\004A\000"
 1345              	.LC145:
 1346 05b5 69642D61 	 .ascii "id-at-pseudonym\000"
 1346      742D7073 
 1346      6575646F 
 1346      6E796D00 
 1347              	.LC146:
 1348 05c5 50736575 	 .ascii "Pseudonym\000"
 1348      646F6E79 
 1348      6D00
 1349              	.LC147:
 1350 05cf 70736575 	 .ascii "pseudonym\000"
 1350      646F6E79 
 1350      6D00
 1351              	.LC148:
 1352 05d9 09922689 	 .ascii "\011\222&\211\223\362,d\001\031\000"
 1352      93F22C64 
 1352      011900
 1353              	.LC149:
 1354 05e4 69642D64 	 .ascii "id-domainComponent\000"
 1354      6F6D6169 
 1354      6E436F6D 
 1354      706F6E65 
 1354      6E7400
 1355              	.LC150:
 1356 05f7 446F6D61 	 .ascii "Domain component\000"
 1356      696E2063 
 1356      6F6D706F 
 1356      6E656E74 
 1356      00
 1357              	.LC151:
 1358 0608 444300   	 .ascii "DC\000"
 1359              	.LC152:
 1360 060b 55042D00 	 .ascii "U\004-\000"
 1361              	.LC153:
 1362 060f 69642D61 	 .ascii "id-at-uniqueIdentifier\000"
 1362      742D756E 
 1362      69717565 
 1362      4964656E 
 1362      74696669 
 1363              	.LC154:
 1364 0626 556E6971 	 .ascii "Unique Identifier\000"
 1364      75652049 
 1364      64656E74 
 1364      69666965 
 1364      7200
 1365              	.LC155:
 1366 0638 756E6971 	 .ascii "uniqueIdentifier\000"
 1366      75654964 
 1366      656E7469 
 1366      66696572 
 1366      00
 1367              	 .section .rodata.oid_ecp_grp,"a",%progbits
 1368              	 .align 2
 1369              	 .set .LANCHOR4,.+0
 1372              	oid_ecp_grp:
 1373 0000 BC000000 	 .word .LC37
 1374 0004 08000000 	 .word 8
 1375 0008 C5000000 	 .word .LC38
 1376 000c C5000000 	 .word .LC38
 1377 0010 03       	 .byte 3
 1378 0011 000000   	 .space 3
 1379 0014 00000000 	 .word 0
 1380 0018 00000000 	 .word 0
 1381 001c 00000000 	 .word 0
 1382 0020 00000000 	 .word 0
 1383 0024 00       	 .byte 0
 1384 0025 000000   	 .space 3
 1385              	 .section .rodata.oid_md_alg,"a",%progbits
 1386              	 .align 2
 1387              	 .set .LANCHOR6,.+0
 1390              	oid_md_alg:
 1391 0000 4C000000 	 .word .LC25
 1392 0004 09000000 	 .word 9
 1393 0008 56000000 	 .word .LC26
 1394 000c 60000000 	 .word .LC27
 1395 0010 05       	 .byte 5
 1396 0011 000000   	 .space 3
 1397 0014 68000000 	 .word .LC28
 1398 0018 09000000 	 .word 9
 1399 001c 72000000 	 .word .LC29
 1400 0020 7C000000 	 .word .LC30
 1401 0024 06       	 .byte 6
 1402 0025 000000   	 .space 3
 1403 0028 00000000 	 .word 0
 1404 002c 00000000 	 .word 0
 1405 0030 00000000 	 .word 0
 1406 0034 00000000 	 .word 0
 1407 0038 00       	 .byte 0
 1408 0039 000000   	 .space 3
 1409              	 .section .rodata.oid_ext_key_usage,"a",%progbits
 1410              	 .align 2
 1411              	 .set .LANCHOR2,.+0
 1414              	oid_ext_key_usage:
 1415 0000 2F010000 	 .word .LC48
 1416 0004 08000000 	 .word 8
 1417 0008 38010000 	 .word .LC49
 1418 000c 49010000 	 .word .LC50
 1419 0010 67010000 	 .word .LC51
 1420 0014 08000000 	 .word 8
 1421 0018 70010000 	 .word .LC52
 1422 001c 81010000 	 .word .LC53
 1423 0020 9F010000 	 .word .LC54
 1424 0024 08000000 	 .word 8
 1425 0028 A8010000 	 .word .LC55
 1426 002c BA010000 	 .word .LC56
 1427 0030 C7010000 	 .word .LC57
 1428 0034 08000000 	 .word 8
 1429 0038 D0010000 	 .word .LC58
 1430 003c E6010000 	 .word .LC59
 1431 0040 F8010000 	 .word .LC60
 1432 0044 08000000 	 .word 8
 1433 0048 01020000 	 .word .LC61
 1434 004c 14020000 	 .word .LC62
 1435 0050 22020000 	 .word .LC63
 1436 0054 08000000 	 .word 8
 1437 0058 2B020000 	 .word .LC64
 1438 005c 3D020000 	 .word .LC65
 1439 0060 00000000 	 .word 0
 1440 0064 00000000 	 .word 0
 1441 0068 00000000 	 .word 0
 1442 006c 00000000 	 .word 0
 1443              	 .section .rodata.oid_x509_ext,"a",%progbits
 1444              	 .align 2
 1445              	 .set .LANCHOR1,.+0
 1448              	oid_x509_ext:
 1449 0000 4A020000 	 .word .LC66
 1450 0004 03000000 	 .word 3
 1451 0008 4E020000 	 .word .LC67
 1452 000c 65020000 	 .word .LC68
 1453 0010 00010000 	 .word 256
 1454 0014 77020000 	 .word .LC69
 1455 0018 03000000 	 .word 3
 1456 001c 7B020000 	 .word .LC70
 1457 0020 8A020000 	 .word .LC71
 1458 0024 04000000 	 .word 4
 1459 0028 94020000 	 .word .LC72
 1460 002c 03000000 	 .word 3
 1461 0030 98020000 	 .word .LC73
 1462 0034 AA020000 	 .word .LC74
 1463 0038 00080000 	 .word 2048
 1464 003c BD020000 	 .word .LC75
 1465 0040 03000000 	 .word 3
 1466 0044 C1020000 	 .word .LC76
 1467 0048 D6020000 	 .word .LC77
 1468 004c 20000000 	 .word 32
 1469 0050 E7020000 	 .word .LC78
 1470 0054 09000000 	 .word 9
 1471 0058 F1020000 	 .word .LC79
 1472 005c 06030000 	 .word .LC80
 1473 0060 00000100 	 .word 65536
 1474 0064 00000000 	 .word 0
 1475 0068 00000000 	 .word 0
 1476 006c 00000000 	 .word 0
 1477 0070 00000000 	 .word 0
 1478 0074 00000000 	 .word 0
 1479              	 .section .rodata.oid_x520_attr_type,"a",%progbits
 1480              	 .align 2
 1481              	 .set .LANCHOR0,.+0
 1484              	oid_x520_attr_type:
 1485 0000 20030000 	 .word .LC81
 1486 0004 03000000 	 .word 3
 1487 0008 24030000 	 .word .LC82
 1488 000c 35030000 	 .word .LC83
 1489 0010 41030000 	 .word .LC84
 1490 0014 44030000 	 .word .LC85
 1491 0018 03000000 	 .word 3
 1492 001c 48030000 	 .word .LC86
 1493 0020 5A030000 	 .word .LC87
 1494 0024 62030000 	 .word .LC88
 1495 0028 64030000 	 .word .LC89
 1496 002c 03000000 	 .word 3
 1497 0030 68030000 	 .word .LC90
 1498 0034 77030000 	 .word .LC91
 1499 0038 80030000 	 .word .LC92
 1500 003c 82030000 	 .word .LC93
 1501 0040 03000000 	 .word 3
 1502 0044 86030000 	 .word .LC94
 1503 0048 92030000 	 .word .LC95
 1504 004c 98030000 	 .word .LC96
 1505 0050 9B030000 	 .word .LC97
 1506 0054 03000000 	 .word 3
 1507 0058 9F030000 	 .word .LC98
 1508 005c B6030000 	 .word .LC99
 1509 0060 C3030000 	 .word .LC100
 1510 0064 C5030000 	 .word .LC101
 1511 0068 03000000 	 .word 3
 1512 006c C9030000 	 .word .LC102
 1513 0070 E6030000 	 .word .LC103
 1514 0074 EF030000 	 .word .LC104
 1515 0078 F2030000 	 .word .LC105
 1516 007c 09000000 	 .word 9
 1517 0080 FC030000 	 .word .LC106
 1518 0084 09040000 	 .word .LC107
 1519 0088 FC030000 	 .word .LC106
 1520 008c 18040000 	 .word .LC108
 1521 0090 03000000 	 .word 3
 1522 0094 1C040000 	 .word .LC109
 1523 0098 2F040000 	 .word .LC110
 1524 009c 3D040000 	 .word .LC111
 1525 00a0 4A040000 	 .word .LC112
 1526 00a4 03000000 	 .word 3
 1527 00a8 4E040000 	 .word .LC113
 1528 00ac 62040000 	 .word .LC114
 1529 00b0 71040000 	 .word .LC115
 1530 00b4 7F040000 	 .word .LC116
 1531 00b8 03000000 	 .word 3
 1532 00bc 83040000 	 .word .LC117
 1533 00c0 94040000 	 .word .LC118
 1534 00c4 A0040000 	 .word .LC119
 1535 00c8 AB040000 	 .word .LC120
 1536 00cc 03000000 	 .word 3
 1537 00d0 AF040000 	 .word .LC121
 1538 00d4 BD040000 	 .word .LC122
 1539 00d8 C5040000 	 .word .LC123
 1540 00dc C8040000 	 .word .LC124
 1541 00e0 03000000 	 .word 3
 1542 00e4 CC040000 	 .word .LC125
 1543 00e8 DC040000 	 .word .LC126
 1544 00ec E7040000 	 .word .LC127
 1545 00f0 EA040000 	 .word .LC128
 1546 00f4 03000000 	 .word 3
 1547 00f8 EE040000 	 .word .LC129
 1548 00fc FD040000 	 .word .LC130
 1549 0100 06050000 	 .word .LC131
 1550 0104 0F050000 	 .word .LC132
 1551 0108 03000000 	 .word 3
 1552 010c 13050000 	 .word .LC133
 1553 0110 2D050000 	 .word .LC134
 1554 0114 42050000 	 .word .LC135
 1555 0118 56050000 	 .word .LC136
 1556 011c 03000000 	 .word 3
 1557 0120 5A050000 	 .word .LC137
 1558 0124 66050000 	 .word .LC138
 1559 0128 6C050000 	 .word .LC139
 1560 012c 72050000 	 .word .LC140
 1561 0130 03000000 	 .word 3
 1562 0134 76050000 	 .word .LC141
 1563 0138 88050000 	 .word .LC142
 1564 013c A5050000 	 .word .LC143
 1565 0140 B1050000 	 .word .LC144
 1566 0144 03000000 	 .word 3
 1567 0148 B5050000 	 .word .LC145
 1568 014c C5050000 	 .word .LC146
 1569 0150 CF050000 	 .word .LC147
 1570 0154 D9050000 	 .word .LC148
 1571 0158 0A000000 	 .word 10
 1572 015c E4050000 	 .word .LC149
 1573 0160 F7050000 	 .word .LC150
 1574 0164 08060000 	 .word .LC151
 1575 0168 0B060000 	 .word .LC152
 1576 016c 03000000 	 .word 3
 1577 0170 0F060000 	 .word .LC153
 1578 0174 26060000 	 .word .LC154
 1579 0178 38060000 	 .word .LC155
 1580 017c 00000000 	 .word 0
 1581 0180 00000000 	 .word 0
 1582 0184 00000000 	 .word 0
 1583 0188 00000000 	 .word 0
 1584 018c 00000000 	 .word 0
 1585              	 .text
 1586              	.Letext0:
 1587              	 .file 2 "C:/Workspace/DAVE-4.4.2-64Bit/optiga-trust-m/externals/mbedtls/include/mbedtls/asn1.h"
 1588              	 .file 3 "c:\\dave_4-4-2_64bit\\dave-ide-4.4.2-64bit\\eclipse\\arm-gcc-49\\lib\\gcc\\arm-none-eabi\\4.9.3\\include\\stddef.h"
 1589              	 .file 4 "C:/Workspace/DAVE-4.4.2-64Bit/optiga-trust-m/externals/mbedtls/include/mbedtls/md.h"
 1590              	 .file 5 "C:/Workspace/DAVE-4.4.2-64Bit/optiga-trust-m/externals/mbedtls/include/mbedtls/ecp.h"
 1591              	 .file 6 "C:/Workspace/DAVE-4.4.2-64Bit/optiga-trust-m/externals/mbedtls/include/mbedtls/pk.h"
 1592              	 .file 7 "C:/Workspace/DAVE-4.4.2-64Bit/optiga-trust-m/externals/mbedtls/include/mbedtls/cipher.h"
 1593              	 .file 8 "C:/Workspace/DAVE-4.4.2-64Bit/optiga-trust-m/externals/mbedtls/include/mbedtls/oid.h"
 1594              	 .file 9 "c:\\dave_4-4-2_64bit\\dave-ide-4.4.2-64bit\\eclipse\\arm-gcc-49\\arm-none-eabi\\include\\string.h"
 1595              	 .file 10 "c:\\dave_4-4-2_64bit\\dave-ide-4.4.2-64bit\\eclipse\\arm-gcc-49\\arm-none-eabi\\include\\stdio.h"