   1              	 .cpu cortex-m0
   2              	 .fpu softvfp
   3              	 .eabi_attribute 20,1
   4              	 .eabi_attribute 21,1
   5              	 .eabi_attribute 23,3
   6              	 .eabi_attribute 24,1
   7              	 .eabi_attribute 25,1
   8              	 .eabi_attribute 26,1
   9              	 .eabi_attribute 30,4
  10              	 .eabi_attribute 34,0
  11              	 .eabi_attribute 18,4
  12              	 .code 16
  13              	 .file "pk.c"
  14              	 .text
  15              	.Ltext0:
  16              	 .cfi_sections .debug_frame
  17              	 .section .text.mbedtls_pk_init,"ax",%progbits
  18              	 .align 1
  19              	 .global mbedtls_pk_init
  20              	 .code 16
  21              	 .thumb_func
  23              	mbedtls_pk_init:
  24              	.LFB2:
  25              	 .file 1 "//MAC/Home/Downloads/getstarted-optiga-trust-m/optiga-trust-m-1/externals/mbedtls/library/pk.c"
   1://MAC/Home/Downloads/getstarted-optiga-trust-m/optiga-trust-m-1/externals/mbedtls/library/pk.c **** /*
   2://MAC/Home/Downloads/getstarted-optiga-trust-m/optiga-trust-m-1/externals/mbedtls/library/pk.c ****  *  Public Key abstraction layer
   3://MAC/Home/Downloads/getstarted-optiga-trust-m/optiga-trust-m-1/externals/mbedtls/library/pk.c ****  *
   4://MAC/Home/Downloads/getstarted-optiga-trust-m/optiga-trust-m-1/externals/mbedtls/library/pk.c ****  *  Copyright (C) 2006-2015, ARM Limited, All Rights Reserved
   5://MAC/Home/Downloads/getstarted-optiga-trust-m/optiga-trust-m-1/externals/mbedtls/library/pk.c ****  *  SPDX-License-Identifier: Apache-2.0
   6://MAC/Home/Downloads/getstarted-optiga-trust-m/optiga-trust-m-1/externals/mbedtls/library/pk.c ****  *
   7://MAC/Home/Downloads/getstarted-optiga-trust-m/optiga-trust-m-1/externals/mbedtls/library/pk.c ****  *  Licensed under the Apache License, Version 2.0 (the "License"); you may
   8://MAC/Home/Downloads/getstarted-optiga-trust-m/optiga-trust-m-1/externals/mbedtls/library/pk.c ****  *  not use this file except in compliance with the License.
   9://MAC/Home/Downloads/getstarted-optiga-trust-m/optiga-trust-m-1/externals/mbedtls/library/pk.c ****  *  You may obtain a copy of the License at
  10://MAC/Home/Downloads/getstarted-optiga-trust-m/optiga-trust-m-1/externals/mbedtls/library/pk.c ****  *
  11://MAC/Home/Downloads/getstarted-optiga-trust-m/optiga-trust-m-1/externals/mbedtls/library/pk.c ****  *  http://www.apache.org/licenses/LICENSE-2.0
  12://MAC/Home/Downloads/getstarted-optiga-trust-m/optiga-trust-m-1/externals/mbedtls/library/pk.c ****  *
  13://MAC/Home/Downloads/getstarted-optiga-trust-m/optiga-trust-m-1/externals/mbedtls/library/pk.c ****  *  Unless required by applicable law or agreed to in writing, software
  14://MAC/Home/Downloads/getstarted-optiga-trust-m/optiga-trust-m-1/externals/mbedtls/library/pk.c ****  *  distributed under the License is distributed on an "AS IS" BASIS, WITHOUT
  15://MAC/Home/Downloads/getstarted-optiga-trust-m/optiga-trust-m-1/externals/mbedtls/library/pk.c ****  *  WARRANTIES OR CONDITIONS OF ANY KIND, either express or implied.
  16://MAC/Home/Downloads/getstarted-optiga-trust-m/optiga-trust-m-1/externals/mbedtls/library/pk.c ****  *  See the License for the specific language governing permissions and
  17://MAC/Home/Downloads/getstarted-optiga-trust-m/optiga-trust-m-1/externals/mbedtls/library/pk.c ****  *  limitations under the License.
  18://MAC/Home/Downloads/getstarted-optiga-trust-m/optiga-trust-m-1/externals/mbedtls/library/pk.c ****  *
  19://MAC/Home/Downloads/getstarted-optiga-trust-m/optiga-trust-m-1/externals/mbedtls/library/pk.c ****  *  This file is part of mbed TLS (https://tls.mbed.org)
  20://MAC/Home/Downloads/getstarted-optiga-trust-m/optiga-trust-m-1/externals/mbedtls/library/pk.c ****  */
  21://MAC/Home/Downloads/getstarted-optiga-trust-m/optiga-trust-m-1/externals/mbedtls/library/pk.c **** 
  22://MAC/Home/Downloads/getstarted-optiga-trust-m/optiga-trust-m-1/externals/mbedtls/library/pk.c **** #if !defined(MBEDTLS_CONFIG_FILE)
  23://MAC/Home/Downloads/getstarted-optiga-trust-m/optiga-trust-m-1/externals/mbedtls/library/pk.c **** #include "mbedtls/config.h"
  24://MAC/Home/Downloads/getstarted-optiga-trust-m/optiga-trust-m-1/externals/mbedtls/library/pk.c **** #else
  25://MAC/Home/Downloads/getstarted-optiga-trust-m/optiga-trust-m-1/externals/mbedtls/library/pk.c **** #include MBEDTLS_CONFIG_FILE
  26://MAC/Home/Downloads/getstarted-optiga-trust-m/optiga-trust-m-1/externals/mbedtls/library/pk.c **** #endif
  27://MAC/Home/Downloads/getstarted-optiga-trust-m/optiga-trust-m-1/externals/mbedtls/library/pk.c **** 
  28://MAC/Home/Downloads/getstarted-optiga-trust-m/optiga-trust-m-1/externals/mbedtls/library/pk.c **** #if defined(MBEDTLS_PK_C)
  29://MAC/Home/Downloads/getstarted-optiga-trust-m/optiga-trust-m-1/externals/mbedtls/library/pk.c **** #include "mbedtls/pk.h"
  30://MAC/Home/Downloads/getstarted-optiga-trust-m/optiga-trust-m-1/externals/mbedtls/library/pk.c **** #include "mbedtls/pk_internal.h"
  31://MAC/Home/Downloads/getstarted-optiga-trust-m/optiga-trust-m-1/externals/mbedtls/library/pk.c **** 
  32://MAC/Home/Downloads/getstarted-optiga-trust-m/optiga-trust-m-1/externals/mbedtls/library/pk.c **** #include "mbedtls/platform_util.h"
  33://MAC/Home/Downloads/getstarted-optiga-trust-m/optiga-trust-m-1/externals/mbedtls/library/pk.c **** 
  34://MAC/Home/Downloads/getstarted-optiga-trust-m/optiga-trust-m-1/externals/mbedtls/library/pk.c **** #if defined(MBEDTLS_RSA_C)
  35://MAC/Home/Downloads/getstarted-optiga-trust-m/optiga-trust-m-1/externals/mbedtls/library/pk.c **** #include "mbedtls/rsa.h"
  36://MAC/Home/Downloads/getstarted-optiga-trust-m/optiga-trust-m-1/externals/mbedtls/library/pk.c **** #endif
  37://MAC/Home/Downloads/getstarted-optiga-trust-m/optiga-trust-m-1/externals/mbedtls/library/pk.c **** #if defined(MBEDTLS_ECP_C)
  38://MAC/Home/Downloads/getstarted-optiga-trust-m/optiga-trust-m-1/externals/mbedtls/library/pk.c **** #include "mbedtls/ecp.h"
  39://MAC/Home/Downloads/getstarted-optiga-trust-m/optiga-trust-m-1/externals/mbedtls/library/pk.c **** #endif
  40://MAC/Home/Downloads/getstarted-optiga-trust-m/optiga-trust-m-1/externals/mbedtls/library/pk.c **** #if defined(MBEDTLS_ECDSA_C)
  41://MAC/Home/Downloads/getstarted-optiga-trust-m/optiga-trust-m-1/externals/mbedtls/library/pk.c **** #include "mbedtls/ecdsa.h"
  42://MAC/Home/Downloads/getstarted-optiga-trust-m/optiga-trust-m-1/externals/mbedtls/library/pk.c **** #endif
  43://MAC/Home/Downloads/getstarted-optiga-trust-m/optiga-trust-m-1/externals/mbedtls/library/pk.c **** 
  44://MAC/Home/Downloads/getstarted-optiga-trust-m/optiga-trust-m-1/externals/mbedtls/library/pk.c **** #include <limits.h>
  45://MAC/Home/Downloads/getstarted-optiga-trust-m/optiga-trust-m-1/externals/mbedtls/library/pk.c **** #include <stdint.h>
  46://MAC/Home/Downloads/getstarted-optiga-trust-m/optiga-trust-m-1/externals/mbedtls/library/pk.c **** 
  47://MAC/Home/Downloads/getstarted-optiga-trust-m/optiga-trust-m-1/externals/mbedtls/library/pk.c **** /* Parameter validation macros based on platform_util.h */
  48://MAC/Home/Downloads/getstarted-optiga-trust-m/optiga-trust-m-1/externals/mbedtls/library/pk.c **** #define PK_VALIDATE_RET( cond )    \
  49://MAC/Home/Downloads/getstarted-optiga-trust-m/optiga-trust-m-1/externals/mbedtls/library/pk.c ****     MBEDTLS_INTERNAL_VALIDATE_RET( cond, MBEDTLS_ERR_PK_BAD_INPUT_DATA )
  50://MAC/Home/Downloads/getstarted-optiga-trust-m/optiga-trust-m-1/externals/mbedtls/library/pk.c **** #define PK_VALIDATE( cond )        \
  51://MAC/Home/Downloads/getstarted-optiga-trust-m/optiga-trust-m-1/externals/mbedtls/library/pk.c ****     MBEDTLS_INTERNAL_VALIDATE( cond )
  52://MAC/Home/Downloads/getstarted-optiga-trust-m/optiga-trust-m-1/externals/mbedtls/library/pk.c **** 
  53://MAC/Home/Downloads/getstarted-optiga-trust-m/optiga-trust-m-1/externals/mbedtls/library/pk.c **** /*
  54://MAC/Home/Downloads/getstarted-optiga-trust-m/optiga-trust-m-1/externals/mbedtls/library/pk.c ****  * Initialise a mbedtls_pk_context
  55://MAC/Home/Downloads/getstarted-optiga-trust-m/optiga-trust-m-1/externals/mbedtls/library/pk.c ****  */
  56://MAC/Home/Downloads/getstarted-optiga-trust-m/optiga-trust-m-1/externals/mbedtls/library/pk.c **** void mbedtls_pk_init( mbedtls_pk_context *ctx )
  57://MAC/Home/Downloads/getstarted-optiga-trust-m/optiga-trust-m-1/externals/mbedtls/library/pk.c **** {
  26              	 .loc 1 57 0
  27              	 .cfi_startproc
  28              	.LVL0:
  58://MAC/Home/Downloads/getstarted-optiga-trust-m/optiga-trust-m-1/externals/mbedtls/library/pk.c ****     PK_VALIDATE( ctx != NULL );
  59://MAC/Home/Downloads/getstarted-optiga-trust-m/optiga-trust-m-1/externals/mbedtls/library/pk.c **** 
  60://MAC/Home/Downloads/getstarted-optiga-trust-m/optiga-trust-m-1/externals/mbedtls/library/pk.c ****     ctx->pk_info = NULL;
  29              	 .loc 1 60 0
  30 0000 0023     	 mov r3,#0
  61://MAC/Home/Downloads/getstarted-optiga-trust-m/optiga-trust-m-1/externals/mbedtls/library/pk.c ****     ctx->pk_ctx = NULL;
  62://MAC/Home/Downloads/getstarted-optiga-trust-m/optiga-trust-m-1/externals/mbedtls/library/pk.c **** }
  31              	 .loc 1 62 0
  32              	 
  60://MAC/Home/Downloads/getstarted-optiga-trust-m/optiga-trust-m-1/externals/mbedtls/library/pk.c ****     ctx->pk_ctx = NULL;
  33              	 .loc 1 60 0
  34 0002 0360     	 str r3,[r0]
  61://MAC/Home/Downloads/getstarted-optiga-trust-m/optiga-trust-m-1/externals/mbedtls/library/pk.c ****     ctx->pk_ctx = NULL;
  35              	 .loc 1 61 0
  36 0004 4360     	 str r3,[r0,#4]
  37              	 .loc 1 62 0
  38 0006 7047     	 bx lr
  39              	 .cfi_endproc
  40              	.LFE2:
  42              	 .section .text.mbedtls_pk_free,"ax",%progbits
  43              	 .align 1
  44              	 .global mbedtls_pk_free
  45              	 .code 16
  46              	 .thumb_func
  48              	mbedtls_pk_free:
  49              	.LFB3:
  63://MAC/Home/Downloads/getstarted-optiga-trust-m/optiga-trust-m-1/externals/mbedtls/library/pk.c **** 
  64://MAC/Home/Downloads/getstarted-optiga-trust-m/optiga-trust-m-1/externals/mbedtls/library/pk.c **** /*
  65://MAC/Home/Downloads/getstarted-optiga-trust-m/optiga-trust-m-1/externals/mbedtls/library/pk.c ****  * Free (the components of) a mbedtls_pk_context
  66://MAC/Home/Downloads/getstarted-optiga-trust-m/optiga-trust-m-1/externals/mbedtls/library/pk.c ****  */
  67://MAC/Home/Downloads/getstarted-optiga-trust-m/optiga-trust-m-1/externals/mbedtls/library/pk.c **** void mbedtls_pk_free( mbedtls_pk_context *ctx )
  68://MAC/Home/Downloads/getstarted-optiga-trust-m/optiga-trust-m-1/externals/mbedtls/library/pk.c **** {
  50              	 .loc 1 68 0
  51              	 .cfi_startproc
  52              	.LVL1:
  53 0000 10B5     	 push {r4,lr}
  54              	.LCFI0:
  55              	 .cfi_def_cfa_offset 8
  56              	 .cfi_offset 4,-8
  57              	 .cfi_offset 14,-4
  69://MAC/Home/Downloads/getstarted-optiga-trust-m/optiga-trust-m-1/externals/mbedtls/library/pk.c ****     if( ctx == NULL )
  58              	 .loc 1 69 0
  59 0002 0028     	 cmp r0,#0
  60 0004 0AD0     	 beq .L2
  70://MAC/Home/Downloads/getstarted-optiga-trust-m/optiga-trust-m-1/externals/mbedtls/library/pk.c ****         return;
  71://MAC/Home/Downloads/getstarted-optiga-trust-m/optiga-trust-m-1/externals/mbedtls/library/pk.c **** 
  72://MAC/Home/Downloads/getstarted-optiga-trust-m/optiga-trust-m-1/externals/mbedtls/library/pk.c ****     if ( ctx->pk_info != NULL )
  61              	 .loc 1 72 0
  62 0006 0368     	 ldr r3,[r0]
  63 0008 041C     	 mov r4,r0
  64 000a 002B     	 cmp r3,#0
  65 000c 02D0     	 beq .L4
  73://MAC/Home/Downloads/getstarted-optiga-trust-m/optiga-trust-m-1/externals/mbedtls/library/pk.c ****         ctx->pk_info->ctx_free_func( ctx->pk_ctx );
  66              	 .loc 1 73 0
  67 000e 9B6A     	 ldr r3,[r3,#40]
  68 0010 4068     	 ldr r0,[r0,#4]
  69              	.LVL2:
  70 0012 9847     	 blx r3
  71              	.LVL3:
  72              	.L4:
  74://MAC/Home/Downloads/getstarted-optiga-trust-m/optiga-trust-m-1/externals/mbedtls/library/pk.c **** 
  75://MAC/Home/Downloads/getstarted-optiga-trust-m/optiga-trust-m-1/externals/mbedtls/library/pk.c ****     mbedtls_platform_zeroize( ctx, sizeof( mbedtls_pk_context ) );
  73              	 .loc 1 75 0
  74 0014 201C     	 mov r0,r4
  75 0016 0821     	 mov r1,#8
  76 0018 FFF7FEFF 	 bl mbedtls_platform_zeroize
  77              	.LVL4:
  78              	.L2:
  76://MAC/Home/Downloads/getstarted-optiga-trust-m/optiga-trust-m-1/externals/mbedtls/library/pk.c **** }
  79              	 .loc 1 76 0
  80              	 
  81 001c 10BD     	 pop {r4,pc}
  82              	 .cfi_endproc
  83              	.LFE3:
  85              	 .section .text.mbedtls_pk_info_from_type,"ax",%progbits
  86              	 .align 1
  87              	 .global mbedtls_pk_info_from_type
  88              	 .code 16
  89              	 .thumb_func
  91              	mbedtls_pk_info_from_type:
  92              	.LFB4:
  77://MAC/Home/Downloads/getstarted-optiga-trust-m/optiga-trust-m-1/externals/mbedtls/library/pk.c **** 
  78://MAC/Home/Downloads/getstarted-optiga-trust-m/optiga-trust-m-1/externals/mbedtls/library/pk.c **** #if defined(MBEDTLS_ECDSA_C) && defined(MBEDTLS_ECP_RESTARTABLE)
  79://MAC/Home/Downloads/getstarted-optiga-trust-m/optiga-trust-m-1/externals/mbedtls/library/pk.c **** /*
  80://MAC/Home/Downloads/getstarted-optiga-trust-m/optiga-trust-m-1/externals/mbedtls/library/pk.c ****  * Initialize a restart context
  81://MAC/Home/Downloads/getstarted-optiga-trust-m/optiga-trust-m-1/externals/mbedtls/library/pk.c ****  */
  82://MAC/Home/Downloads/getstarted-optiga-trust-m/optiga-trust-m-1/externals/mbedtls/library/pk.c **** void mbedtls_pk_restart_init( mbedtls_pk_restart_ctx *ctx )
  83://MAC/Home/Downloads/getstarted-optiga-trust-m/optiga-trust-m-1/externals/mbedtls/library/pk.c **** {
  84://MAC/Home/Downloads/getstarted-optiga-trust-m/optiga-trust-m-1/externals/mbedtls/library/pk.c ****     PK_VALIDATE( ctx != NULL );
  85://MAC/Home/Downloads/getstarted-optiga-trust-m/optiga-trust-m-1/externals/mbedtls/library/pk.c ****     ctx->pk_info = NULL;
  86://MAC/Home/Downloads/getstarted-optiga-trust-m/optiga-trust-m-1/externals/mbedtls/library/pk.c ****     ctx->rs_ctx = NULL;
  87://MAC/Home/Downloads/getstarted-optiga-trust-m/optiga-trust-m-1/externals/mbedtls/library/pk.c **** }
  88://MAC/Home/Downloads/getstarted-optiga-trust-m/optiga-trust-m-1/externals/mbedtls/library/pk.c **** 
  89://MAC/Home/Downloads/getstarted-optiga-trust-m/optiga-trust-m-1/externals/mbedtls/library/pk.c **** /*
  90://MAC/Home/Downloads/getstarted-optiga-trust-m/optiga-trust-m-1/externals/mbedtls/library/pk.c ****  * Free the components of a restart context
  91://MAC/Home/Downloads/getstarted-optiga-trust-m/optiga-trust-m-1/externals/mbedtls/library/pk.c ****  */
  92://MAC/Home/Downloads/getstarted-optiga-trust-m/optiga-trust-m-1/externals/mbedtls/library/pk.c **** void mbedtls_pk_restart_free( mbedtls_pk_restart_ctx *ctx )
  93://MAC/Home/Downloads/getstarted-optiga-trust-m/optiga-trust-m-1/externals/mbedtls/library/pk.c **** {
  94://MAC/Home/Downloads/getstarted-optiga-trust-m/optiga-trust-m-1/externals/mbedtls/library/pk.c ****     if( ctx == NULL || ctx->pk_info == NULL ||
  95://MAC/Home/Downloads/getstarted-optiga-trust-m/optiga-trust-m-1/externals/mbedtls/library/pk.c ****         ctx->pk_info->rs_free_func == NULL )
  96://MAC/Home/Downloads/getstarted-optiga-trust-m/optiga-trust-m-1/externals/mbedtls/library/pk.c ****     {
  97://MAC/Home/Downloads/getstarted-optiga-trust-m/optiga-trust-m-1/externals/mbedtls/library/pk.c ****         return;
  98://MAC/Home/Downloads/getstarted-optiga-trust-m/optiga-trust-m-1/externals/mbedtls/library/pk.c ****     }
  99://MAC/Home/Downloads/getstarted-optiga-trust-m/optiga-trust-m-1/externals/mbedtls/library/pk.c **** 
 100://MAC/Home/Downloads/getstarted-optiga-trust-m/optiga-trust-m-1/externals/mbedtls/library/pk.c ****     ctx->pk_info->rs_free_func( ctx->rs_ctx );
 101://MAC/Home/Downloads/getstarted-optiga-trust-m/optiga-trust-m-1/externals/mbedtls/library/pk.c **** 
 102://MAC/Home/Downloads/getstarted-optiga-trust-m/optiga-trust-m-1/externals/mbedtls/library/pk.c ****     ctx->pk_info = NULL;
 103://MAC/Home/Downloads/getstarted-optiga-trust-m/optiga-trust-m-1/externals/mbedtls/library/pk.c ****     ctx->rs_ctx = NULL;
 104://MAC/Home/Downloads/getstarted-optiga-trust-m/optiga-trust-m-1/externals/mbedtls/library/pk.c **** }
 105://MAC/Home/Downloads/getstarted-optiga-trust-m/optiga-trust-m-1/externals/mbedtls/library/pk.c **** #endif /* MBEDTLS_ECDSA_C && MBEDTLS_ECP_RESTARTABLE */
 106://MAC/Home/Downloads/getstarted-optiga-trust-m/optiga-trust-m-1/externals/mbedtls/library/pk.c **** 
 107://MAC/Home/Downloads/getstarted-optiga-trust-m/optiga-trust-m-1/externals/mbedtls/library/pk.c **** /*
 108://MAC/Home/Downloads/getstarted-optiga-trust-m/optiga-trust-m-1/externals/mbedtls/library/pk.c ****  * Get pk_info structure from type
 109://MAC/Home/Downloads/getstarted-optiga-trust-m/optiga-trust-m-1/externals/mbedtls/library/pk.c ****  */
 110://MAC/Home/Downloads/getstarted-optiga-trust-m/optiga-trust-m-1/externals/mbedtls/library/pk.c **** const mbedtls_pk_info_t * mbedtls_pk_info_from_type( mbedtls_pk_type_t pk_type )
 111://MAC/Home/Downloads/getstarted-optiga-trust-m/optiga-trust-m-1/externals/mbedtls/library/pk.c **** {
  93              	 .loc 1 111 0
  94              	 .cfi_startproc
  95              	.LVL5:
 112://MAC/Home/Downloads/getstarted-optiga-trust-m/optiga-trust-m-1/externals/mbedtls/library/pk.c ****     switch( pk_type ) {
 113://MAC/Home/Downloads/getstarted-optiga-trust-m/optiga-trust-m-1/externals/mbedtls/library/pk.c **** #if defined(MBEDTLS_RSA_C)
 114://MAC/Home/Downloads/getstarted-optiga-trust-m/optiga-trust-m-1/externals/mbedtls/library/pk.c ****         case MBEDTLS_PK_RSA:
 115://MAC/Home/Downloads/getstarted-optiga-trust-m/optiga-trust-m-1/externals/mbedtls/library/pk.c ****             return( &mbedtls_rsa_info );
 116://MAC/Home/Downloads/getstarted-optiga-trust-m/optiga-trust-m-1/externals/mbedtls/library/pk.c **** #endif
 117://MAC/Home/Downloads/getstarted-optiga-trust-m/optiga-trust-m-1/externals/mbedtls/library/pk.c **** #if defined(MBEDTLS_ECP_C)
 118://MAC/Home/Downloads/getstarted-optiga-trust-m/optiga-trust-m-1/externals/mbedtls/library/pk.c ****         case MBEDTLS_PK_ECKEY:
 119://MAC/Home/Downloads/getstarted-optiga-trust-m/optiga-trust-m-1/externals/mbedtls/library/pk.c ****             return( &mbedtls_eckey_info );
  96              	 .loc 1 119 0
  97 0000 054A     	 ldr r2,.L17
 112://MAC/Home/Downloads/getstarted-optiga-trust-m/optiga-trust-m-1/externals/mbedtls/library/pk.c ****     switch( pk_type ) {
  98              	 .loc 1 112 0
  99 0002 0228     	 cmp r0,#2
 100 0004 05D0     	 beq .L14
 120://MAC/Home/Downloads/getstarted-optiga-trust-m/optiga-trust-m-1/externals/mbedtls/library/pk.c ****         case MBEDTLS_PK_ECKEY_DH:
 121://MAC/Home/Downloads/getstarted-optiga-trust-m/optiga-trust-m-1/externals/mbedtls/library/pk.c ****             return( &mbedtls_eckeydh_info );
 122://MAC/Home/Downloads/getstarted-optiga-trust-m/optiga-trust-m-1/externals/mbedtls/library/pk.c **** #endif
 123://MAC/Home/Downloads/getstarted-optiga-trust-m/optiga-trust-m-1/externals/mbedtls/library/pk.c **** #if defined(MBEDTLS_ECDSA_C)
 124://MAC/Home/Downloads/getstarted-optiga-trust-m/optiga-trust-m-1/externals/mbedtls/library/pk.c ****         case MBEDTLS_PK_ECDSA:
 125://MAC/Home/Downloads/getstarted-optiga-trust-m/optiga-trust-m-1/externals/mbedtls/library/pk.c ****             return( &mbedtls_ecdsa_info );
 126://MAC/Home/Downloads/getstarted-optiga-trust-m/optiga-trust-m-1/externals/mbedtls/library/pk.c **** #endif
 127://MAC/Home/Downloads/getstarted-optiga-trust-m/optiga-trust-m-1/externals/mbedtls/library/pk.c ****         /* MBEDTLS_PK_RSA_ALT omitted on purpose */
 128://MAC/Home/Downloads/getstarted-optiga-trust-m/optiga-trust-m-1/externals/mbedtls/library/pk.c ****         default:
 129://MAC/Home/Downloads/getstarted-optiga-trust-m/optiga-trust-m-1/externals/mbedtls/library/pk.c ****             return( NULL );
 101              	 .loc 1 129 0
 102 0006 C31E     	 sub r3,r0,#3
 103 0008 5842     	 neg r0,r3
 104 000a 4341     	 adc r3,r3,r0
 105              	.LVL6:
 121://MAC/Home/Downloads/getstarted-optiga-trust-m/optiga-trust-m-1/externals/mbedtls/library/pk.c **** #endif
 106              	 .loc 1 121 0
 107 000c 034A     	 ldr r2,.L17+4
 108              	 .loc 1 129 0
 109 000e 5B42     	 neg r3,r3
 110 0010 1A40     	 and r2,r3
 111              	.L14:
 130://MAC/Home/Downloads/getstarted-optiga-trust-m/optiga-trust-m-1/externals/mbedtls/library/pk.c ****     }
 131://MAC/Home/Downloads/getstarted-optiga-trust-m/optiga-trust-m-1/externals/mbedtls/library/pk.c **** }
 112              	 .loc 1 131 0
 113 0012 101C     	 mov r0,r2
 114              	 
 115 0014 7047     	 bx lr
 116              	.L18:
 117 0016 C046     	 .align 2
 118              	.L17:
 119 0018 00000000 	 .word mbedtls_eckey_info
 120 001c 00000000 	 .word mbedtls_eckeydh_info
 121              	 .cfi_endproc
 122              	.LFE4:
 124              	 .section .text.mbedtls_pk_setup,"ax",%progbits
 125              	 .align 1
 126              	 .global mbedtls_pk_setup
 127              	 .code 16
 128              	 .thumb_func
 130              	mbedtls_pk_setup:
 131              	.LFB5:
 132://MAC/Home/Downloads/getstarted-optiga-trust-m/optiga-trust-m-1/externals/mbedtls/library/pk.c **** 
 133://MAC/Home/Downloads/getstarted-optiga-trust-m/optiga-trust-m-1/externals/mbedtls/library/pk.c **** /*
 134://MAC/Home/Downloads/getstarted-optiga-trust-m/optiga-trust-m-1/externals/mbedtls/library/pk.c ****  * Initialise context
 135://MAC/Home/Downloads/getstarted-optiga-trust-m/optiga-trust-m-1/externals/mbedtls/library/pk.c ****  */
 136://MAC/Home/Downloads/getstarted-optiga-trust-m/optiga-trust-m-1/externals/mbedtls/library/pk.c **** int mbedtls_pk_setup( mbedtls_pk_context *ctx, const mbedtls_pk_info_t *info )
 137://MAC/Home/Downloads/getstarted-optiga-trust-m/optiga-trust-m-1/externals/mbedtls/library/pk.c **** {
 132              	 .loc 1 137 0
 133              	 .cfi_startproc
 134              	.LVL7:
 135 0000 70B5     	 push {r4,r5,r6,lr}
 136              	.LCFI1:
 137              	 .cfi_def_cfa_offset 16
 138              	 .cfi_offset 4,-16
 139              	 .cfi_offset 5,-12
 140              	 .cfi_offset 6,-8
 141              	 .cfi_offset 14,-4
 138://MAC/Home/Downloads/getstarted-optiga-trust-m/optiga-trust-m-1/externals/mbedtls/library/pk.c ****     PK_VALIDATE_RET( ctx != NULL );
 139://MAC/Home/Downloads/getstarted-optiga-trust-m/optiga-trust-m-1/externals/mbedtls/library/pk.c ****     if( info == NULL || ctx->pk_info != NULL )
 142              	 .loc 1 139 0
 143 0002 0029     	 cmp r1,#0
 144 0004 0CD0     	 beq .L22
 145              	 .loc 1 139 0 is_stmt 0 discriminator 1
 146 0006 0468     	 ldr r4,[r0]
 147 0008 002C     	 cmp r4,#0
 148 000a 09D1     	 bne .L22
 140://MAC/Home/Downloads/getstarted-optiga-trust-m/optiga-trust-m-1/externals/mbedtls/library/pk.c ****         return( MBEDTLS_ERR_PK_BAD_INPUT_DATA );
 141://MAC/Home/Downloads/getstarted-optiga-trust-m/optiga-trust-m-1/externals/mbedtls/library/pk.c **** 
 142://MAC/Home/Downloads/getstarted-optiga-trust-m/optiga-trust-m-1/externals/mbedtls/library/pk.c ****     if( ( ctx->pk_ctx = info->ctx_alloc_func() ) == NULL )
 149              	 .loc 1 142 0 is_stmt 1
 150 000c 4B6A     	 ldr r3,[r1,#36]
 151 000e 051C     	 mov r5,r0
 152 0010 0E1C     	 mov r6,r1
 153 0012 9847     	 blx r3
 154              	.LVL8:
 155 0014 6860     	 str r0,[r5,#4]
 156 0016 0028     	 cmp r0,#0
 157 0018 04D0     	 beq .L23
 143://MAC/Home/Downloads/getstarted-optiga-trust-m/optiga-trust-m-1/externals/mbedtls/library/pk.c ****         return( MBEDTLS_ERR_PK_ALLOC_FAILED );
 144://MAC/Home/Downloads/getstarted-optiga-trust-m/optiga-trust-m-1/externals/mbedtls/library/pk.c **** 
 145://MAC/Home/Downloads/getstarted-optiga-trust-m/optiga-trust-m-1/externals/mbedtls/library/pk.c ****     ctx->pk_info = info;
 158              	 .loc 1 145 0
 159 001a 2E60     	 str r6,[r5]
 146://MAC/Home/Downloads/getstarted-optiga-trust-m/optiga-trust-m-1/externals/mbedtls/library/pk.c **** 
 147://MAC/Home/Downloads/getstarted-optiga-trust-m/optiga-trust-m-1/externals/mbedtls/library/pk.c ****     return( 0 );
 160              	 .loc 1 147 0
 161 001c 201C     	 mov r0,r4
 162 001e 02E0     	 b .L20
 163              	.LVL9:
 164              	.L22:
 140://MAC/Home/Downloads/getstarted-optiga-trust-m/optiga-trust-m-1/externals/mbedtls/library/pk.c **** 
 165              	 .loc 1 140 0
 166 0020 0148     	 ldr r0,.L24
 167              	.LVL10:
 168 0022 00E0     	 b .L20
 169              	.LVL11:
 170              	.L23:
 143://MAC/Home/Downloads/getstarted-optiga-trust-m/optiga-trust-m-1/externals/mbedtls/library/pk.c ****         return( MBEDTLS_ERR_PK_ALLOC_FAILED );
 171              	 .loc 1 143 0
 172 0024 0148     	 ldr r0,.L24+4
 173              	.LVL12:
 174              	.L20:
 148://MAC/Home/Downloads/getstarted-optiga-trust-m/optiga-trust-m-1/externals/mbedtls/library/pk.c **** }
 175              	 .loc 1 148 0
 176              	 
 177 0026 70BD     	 pop {r4,r5,r6,pc}
 178              	.L25:
 179              	 .align 2
 180              	.L24:
 181 0028 80C1FFFF 	 .word -16000
 182 002c 80C0FFFF 	 .word -16256
 183              	 .cfi_endproc
 184              	.LFE5:
 186              	 .section .text.mbedtls_pk_can_do,"ax",%progbits
 187              	 .align 1
 188              	 .global mbedtls_pk_can_do
 189              	 .code 16
 190              	 .thumb_func
 192              	mbedtls_pk_can_do:
 193              	.LFB6:
 149://MAC/Home/Downloads/getstarted-optiga-trust-m/optiga-trust-m-1/externals/mbedtls/library/pk.c **** 
 150://MAC/Home/Downloads/getstarted-optiga-trust-m/optiga-trust-m-1/externals/mbedtls/library/pk.c **** #if defined(MBEDTLS_PK_RSA_ALT_SUPPORT)
 151://MAC/Home/Downloads/getstarted-optiga-trust-m/optiga-trust-m-1/externals/mbedtls/library/pk.c **** /*
 152://MAC/Home/Downloads/getstarted-optiga-trust-m/optiga-trust-m-1/externals/mbedtls/library/pk.c ****  * Initialize an RSA-alt context
 153://MAC/Home/Downloads/getstarted-optiga-trust-m/optiga-trust-m-1/externals/mbedtls/library/pk.c ****  */
 154://MAC/Home/Downloads/getstarted-optiga-trust-m/optiga-trust-m-1/externals/mbedtls/library/pk.c **** int mbedtls_pk_setup_rsa_alt( mbedtls_pk_context *ctx, void * key,
 155://MAC/Home/Downloads/getstarted-optiga-trust-m/optiga-trust-m-1/externals/mbedtls/library/pk.c ****                          mbedtls_pk_rsa_alt_decrypt_func decrypt_func,
 156://MAC/Home/Downloads/getstarted-optiga-trust-m/optiga-trust-m-1/externals/mbedtls/library/pk.c ****                          mbedtls_pk_rsa_alt_sign_func sign_func,
 157://MAC/Home/Downloads/getstarted-optiga-trust-m/optiga-trust-m-1/externals/mbedtls/library/pk.c ****                          mbedtls_pk_rsa_alt_key_len_func key_len_func )
 158://MAC/Home/Downloads/getstarted-optiga-trust-m/optiga-trust-m-1/externals/mbedtls/library/pk.c **** {
 159://MAC/Home/Downloads/getstarted-optiga-trust-m/optiga-trust-m-1/externals/mbedtls/library/pk.c ****     mbedtls_rsa_alt_context *rsa_alt;
 160://MAC/Home/Downloads/getstarted-optiga-trust-m/optiga-trust-m-1/externals/mbedtls/library/pk.c ****     const mbedtls_pk_info_t *info = &mbedtls_rsa_alt_info;
 161://MAC/Home/Downloads/getstarted-optiga-trust-m/optiga-trust-m-1/externals/mbedtls/library/pk.c **** 
 162://MAC/Home/Downloads/getstarted-optiga-trust-m/optiga-trust-m-1/externals/mbedtls/library/pk.c ****     PK_VALIDATE_RET( ctx != NULL );
 163://MAC/Home/Downloads/getstarted-optiga-trust-m/optiga-trust-m-1/externals/mbedtls/library/pk.c ****     if( ctx->pk_info != NULL )
 164://MAC/Home/Downloads/getstarted-optiga-trust-m/optiga-trust-m-1/externals/mbedtls/library/pk.c ****         return( MBEDTLS_ERR_PK_BAD_INPUT_DATA );
 165://MAC/Home/Downloads/getstarted-optiga-trust-m/optiga-trust-m-1/externals/mbedtls/library/pk.c **** 
 166://MAC/Home/Downloads/getstarted-optiga-trust-m/optiga-trust-m-1/externals/mbedtls/library/pk.c ****     if( ( ctx->pk_ctx = info->ctx_alloc_func() ) == NULL )
 167://MAC/Home/Downloads/getstarted-optiga-trust-m/optiga-trust-m-1/externals/mbedtls/library/pk.c ****         return( MBEDTLS_ERR_PK_ALLOC_FAILED );
 168://MAC/Home/Downloads/getstarted-optiga-trust-m/optiga-trust-m-1/externals/mbedtls/library/pk.c **** 
 169://MAC/Home/Downloads/getstarted-optiga-trust-m/optiga-trust-m-1/externals/mbedtls/library/pk.c ****     ctx->pk_info = info;
 170://MAC/Home/Downloads/getstarted-optiga-trust-m/optiga-trust-m-1/externals/mbedtls/library/pk.c **** 
 171://MAC/Home/Downloads/getstarted-optiga-trust-m/optiga-trust-m-1/externals/mbedtls/library/pk.c ****     rsa_alt = (mbedtls_rsa_alt_context *) ctx->pk_ctx;
 172://MAC/Home/Downloads/getstarted-optiga-trust-m/optiga-trust-m-1/externals/mbedtls/library/pk.c **** 
 173://MAC/Home/Downloads/getstarted-optiga-trust-m/optiga-trust-m-1/externals/mbedtls/library/pk.c ****     rsa_alt->key = key;
 174://MAC/Home/Downloads/getstarted-optiga-trust-m/optiga-trust-m-1/externals/mbedtls/library/pk.c ****     rsa_alt->decrypt_func = decrypt_func;
 175://MAC/Home/Downloads/getstarted-optiga-trust-m/optiga-trust-m-1/externals/mbedtls/library/pk.c ****     rsa_alt->sign_func = sign_func;
 176://MAC/Home/Downloads/getstarted-optiga-trust-m/optiga-trust-m-1/externals/mbedtls/library/pk.c ****     rsa_alt->key_len_func = key_len_func;
 177://MAC/Home/Downloads/getstarted-optiga-trust-m/optiga-trust-m-1/externals/mbedtls/library/pk.c **** 
 178://MAC/Home/Downloads/getstarted-optiga-trust-m/optiga-trust-m-1/externals/mbedtls/library/pk.c ****     return( 0 );
 179://MAC/Home/Downloads/getstarted-optiga-trust-m/optiga-trust-m-1/externals/mbedtls/library/pk.c **** }
 180://MAC/Home/Downloads/getstarted-optiga-trust-m/optiga-trust-m-1/externals/mbedtls/library/pk.c **** #endif /* MBEDTLS_PK_RSA_ALT_SUPPORT */
 181://MAC/Home/Downloads/getstarted-optiga-trust-m/optiga-trust-m-1/externals/mbedtls/library/pk.c **** 
 182://MAC/Home/Downloads/getstarted-optiga-trust-m/optiga-trust-m-1/externals/mbedtls/library/pk.c **** /*
 183://MAC/Home/Downloads/getstarted-optiga-trust-m/optiga-trust-m-1/externals/mbedtls/library/pk.c ****  * Tell if a PK can do the operations of the given type
 184://MAC/Home/Downloads/getstarted-optiga-trust-m/optiga-trust-m-1/externals/mbedtls/library/pk.c ****  */
 185://MAC/Home/Downloads/getstarted-optiga-trust-m/optiga-trust-m-1/externals/mbedtls/library/pk.c **** int mbedtls_pk_can_do( const mbedtls_pk_context *ctx, mbedtls_pk_type_t type )
 186://MAC/Home/Downloads/getstarted-optiga-trust-m/optiga-trust-m-1/externals/mbedtls/library/pk.c **** {
 194              	 .loc 1 186 0
 195              	 .cfi_startproc
 196              	.LVL13:
 197 0000 08B5     	 push {r3,lr}
 198              	.LCFI2:
 199              	 .cfi_def_cfa_offset 8
 200              	 .cfi_offset 3,-8
 201              	 .cfi_offset 14,-4
 202              	 .loc 1 186 0
 203 0002 031E     	 sub r3,r0,#0
 187://MAC/Home/Downloads/getstarted-optiga-trust-m/optiga-trust-m-1/externals/mbedtls/library/pk.c ****     /* A context with null pk_info is not set up yet and can't do anything.
 188://MAC/Home/Downloads/getstarted-optiga-trust-m/optiga-trust-m-1/externals/mbedtls/library/pk.c ****      * For backward compatibility, also accept NULL instead of a context
 189://MAC/Home/Downloads/getstarted-optiga-trust-m/optiga-trust-m-1/externals/mbedtls/library/pk.c ****      * pointer. */
 190://MAC/Home/Downloads/getstarted-optiga-trust-m/optiga-trust-m-1/externals/mbedtls/library/pk.c ****     if( ctx == NULL || ctx->pk_info == NULL )
 204              	 .loc 1 190 0
 205 0004 05D0     	 beq .L27
 206              	 .loc 1 190 0 is_stmt 0 discriminator 1
 207 0006 1B68     	 ldr r3,[r3]
 191://MAC/Home/Downloads/getstarted-optiga-trust-m/optiga-trust-m-1/externals/mbedtls/library/pk.c ****         return( 0 );
 208              	 .loc 1 191 0 is_stmt 1 discriminator 1
 209 0008 181E     	 sub r0,r3,#0
 210              	.LVL14:
 190://MAC/Home/Downloads/getstarted-optiga-trust-m/optiga-trust-m-1/externals/mbedtls/library/pk.c ****         return( 0 );
 211              	 .loc 1 190 0 discriminator 1
 212 000a 02D0     	 beq .L27
 213 000c 081C     	 mov r0,r1
 192://MAC/Home/Downloads/getstarted-optiga-trust-m/optiga-trust-m-1/externals/mbedtls/library/pk.c **** 
 193://MAC/Home/Downloads/getstarted-optiga-trust-m/optiga-trust-m-1/externals/mbedtls/library/pk.c ****     return( ctx->pk_info->can_do( type ) );
 214              	 .loc 1 193 0
 215 000e DB68     	 ldr r3,[r3,#12]
 216 0010 9847     	 blx r3
 217              	.LVL15:
 218              	.L27:
 194://MAC/Home/Downloads/getstarted-optiga-trust-m/optiga-trust-m-1/externals/mbedtls/library/pk.c **** }
 219              	 .loc 1 194 0
 220              	 
 221 0012 08BD     	 pop {r3,pc}
 222              	 .cfi_endproc
 223              	.LFE6:
 225              	 .section .text.mbedtls_pk_verify_restartable,"ax",%progbits
 226              	 .align 1
 227              	 .global mbedtls_pk_verify_restartable
 228              	 .code 16
 229              	 .thumb_func
 231              	mbedtls_pk_verify_restartable:
 232              	.LFB8:
 195://MAC/Home/Downloads/getstarted-optiga-trust-m/optiga-trust-m-1/externals/mbedtls/library/pk.c **** 
 196://MAC/Home/Downloads/getstarted-optiga-trust-m/optiga-trust-m-1/externals/mbedtls/library/pk.c **** /*
 197://MAC/Home/Downloads/getstarted-optiga-trust-m/optiga-trust-m-1/externals/mbedtls/library/pk.c ****  * Helper for mbedtls_pk_sign and mbedtls_pk_verify
 198://MAC/Home/Downloads/getstarted-optiga-trust-m/optiga-trust-m-1/externals/mbedtls/library/pk.c ****  */
 199://MAC/Home/Downloads/getstarted-optiga-trust-m/optiga-trust-m-1/externals/mbedtls/library/pk.c **** static inline int pk_hashlen_helper( mbedtls_md_type_t md_alg, size_t *hash_len )
 200://MAC/Home/Downloads/getstarted-optiga-trust-m/optiga-trust-m-1/externals/mbedtls/library/pk.c **** {
 201://MAC/Home/Downloads/getstarted-optiga-trust-m/optiga-trust-m-1/externals/mbedtls/library/pk.c ****     const mbedtls_md_info_t *md_info;
 202://MAC/Home/Downloads/getstarted-optiga-trust-m/optiga-trust-m-1/externals/mbedtls/library/pk.c **** 
 203://MAC/Home/Downloads/getstarted-optiga-trust-m/optiga-trust-m-1/externals/mbedtls/library/pk.c ****     if( *hash_len != 0 )
 204://MAC/Home/Downloads/getstarted-optiga-trust-m/optiga-trust-m-1/externals/mbedtls/library/pk.c ****         return( 0 );
 205://MAC/Home/Downloads/getstarted-optiga-trust-m/optiga-trust-m-1/externals/mbedtls/library/pk.c **** 
 206://MAC/Home/Downloads/getstarted-optiga-trust-m/optiga-trust-m-1/externals/mbedtls/library/pk.c ****     if( ( md_info = mbedtls_md_info_from_type( md_alg ) ) == NULL )
 207://MAC/Home/Downloads/getstarted-optiga-trust-m/optiga-trust-m-1/externals/mbedtls/library/pk.c ****         return( -1 );
 208://MAC/Home/Downloads/getstarted-optiga-trust-m/optiga-trust-m-1/externals/mbedtls/library/pk.c **** 
 209://MAC/Home/Downloads/getstarted-optiga-trust-m/optiga-trust-m-1/externals/mbedtls/library/pk.c ****     *hash_len = mbedtls_md_get_size( md_info );
 210://MAC/Home/Downloads/getstarted-optiga-trust-m/optiga-trust-m-1/externals/mbedtls/library/pk.c ****     return( 0 );
 211://MAC/Home/Downloads/getstarted-optiga-trust-m/optiga-trust-m-1/externals/mbedtls/library/pk.c **** }
 212://MAC/Home/Downloads/getstarted-optiga-trust-m/optiga-trust-m-1/externals/mbedtls/library/pk.c **** 
 213://MAC/Home/Downloads/getstarted-optiga-trust-m/optiga-trust-m-1/externals/mbedtls/library/pk.c **** #if defined(MBEDTLS_ECDSA_C) && defined(MBEDTLS_ECP_RESTARTABLE)
 214://MAC/Home/Downloads/getstarted-optiga-trust-m/optiga-trust-m-1/externals/mbedtls/library/pk.c **** /*
 215://MAC/Home/Downloads/getstarted-optiga-trust-m/optiga-trust-m-1/externals/mbedtls/library/pk.c ****  * Helper to set up a restart context if needed
 216://MAC/Home/Downloads/getstarted-optiga-trust-m/optiga-trust-m-1/externals/mbedtls/library/pk.c ****  */
 217://MAC/Home/Downloads/getstarted-optiga-trust-m/optiga-trust-m-1/externals/mbedtls/library/pk.c **** static int pk_restart_setup( mbedtls_pk_restart_ctx *ctx,
 218://MAC/Home/Downloads/getstarted-optiga-trust-m/optiga-trust-m-1/externals/mbedtls/library/pk.c ****                              const mbedtls_pk_info_t *info )
 219://MAC/Home/Downloads/getstarted-optiga-trust-m/optiga-trust-m-1/externals/mbedtls/library/pk.c **** {
 220://MAC/Home/Downloads/getstarted-optiga-trust-m/optiga-trust-m-1/externals/mbedtls/library/pk.c ****     /* Don't do anything if already set up or invalid */
 221://MAC/Home/Downloads/getstarted-optiga-trust-m/optiga-trust-m-1/externals/mbedtls/library/pk.c ****     if( ctx == NULL || ctx->pk_info != NULL )
 222://MAC/Home/Downloads/getstarted-optiga-trust-m/optiga-trust-m-1/externals/mbedtls/library/pk.c ****         return( 0 );
 223://MAC/Home/Downloads/getstarted-optiga-trust-m/optiga-trust-m-1/externals/mbedtls/library/pk.c **** 
 224://MAC/Home/Downloads/getstarted-optiga-trust-m/optiga-trust-m-1/externals/mbedtls/library/pk.c ****     /* Should never happen when we're called */
 225://MAC/Home/Downloads/getstarted-optiga-trust-m/optiga-trust-m-1/externals/mbedtls/library/pk.c ****     if( info->rs_alloc_func == NULL || info->rs_free_func == NULL )
 226://MAC/Home/Downloads/getstarted-optiga-trust-m/optiga-trust-m-1/externals/mbedtls/library/pk.c ****         return( MBEDTLS_ERR_PK_BAD_INPUT_DATA );
 227://MAC/Home/Downloads/getstarted-optiga-trust-m/optiga-trust-m-1/externals/mbedtls/library/pk.c **** 
 228://MAC/Home/Downloads/getstarted-optiga-trust-m/optiga-trust-m-1/externals/mbedtls/library/pk.c ****     if( ( ctx->rs_ctx = info->rs_alloc_func() ) == NULL )
 229://MAC/Home/Downloads/getstarted-optiga-trust-m/optiga-trust-m-1/externals/mbedtls/library/pk.c ****         return( MBEDTLS_ERR_PK_ALLOC_FAILED );
 230://MAC/Home/Downloads/getstarted-optiga-trust-m/optiga-trust-m-1/externals/mbedtls/library/pk.c **** 
 231://MAC/Home/Downloads/getstarted-optiga-trust-m/optiga-trust-m-1/externals/mbedtls/library/pk.c ****     ctx->pk_info = info;
 232://MAC/Home/Downloads/getstarted-optiga-trust-m/optiga-trust-m-1/externals/mbedtls/library/pk.c **** 
 233://MAC/Home/Downloads/getstarted-optiga-trust-m/optiga-trust-m-1/externals/mbedtls/library/pk.c ****     return( 0 );
 234://MAC/Home/Downloads/getstarted-optiga-trust-m/optiga-trust-m-1/externals/mbedtls/library/pk.c **** }
 235://MAC/Home/Downloads/getstarted-optiga-trust-m/optiga-trust-m-1/externals/mbedtls/library/pk.c **** #endif /* MBEDTLS_ECDSA_C && MBEDTLS_ECP_RESTARTABLE */
 236://MAC/Home/Downloads/getstarted-optiga-trust-m/optiga-trust-m-1/externals/mbedtls/library/pk.c **** 
 237://MAC/Home/Downloads/getstarted-optiga-trust-m/optiga-trust-m-1/externals/mbedtls/library/pk.c **** /*
 238://MAC/Home/Downloads/getstarted-optiga-trust-m/optiga-trust-m-1/externals/mbedtls/library/pk.c ****  * Verify a signature (restartable)
 239://MAC/Home/Downloads/getstarted-optiga-trust-m/optiga-trust-m-1/externals/mbedtls/library/pk.c ****  */
 240://MAC/Home/Downloads/getstarted-optiga-trust-m/optiga-trust-m-1/externals/mbedtls/library/pk.c **** int mbedtls_pk_verify_restartable( mbedtls_pk_context *ctx,
 241://MAC/Home/Downloads/getstarted-optiga-trust-m/optiga-trust-m-1/externals/mbedtls/library/pk.c ****                mbedtls_md_type_t md_alg,
 242://MAC/Home/Downloads/getstarted-optiga-trust-m/optiga-trust-m-1/externals/mbedtls/library/pk.c ****                const unsigned char *hash, size_t hash_len,
 243://MAC/Home/Downloads/getstarted-optiga-trust-m/optiga-trust-m-1/externals/mbedtls/library/pk.c ****                const unsigned char *sig, size_t sig_len,
 244://MAC/Home/Downloads/getstarted-optiga-trust-m/optiga-trust-m-1/externals/mbedtls/library/pk.c ****                mbedtls_pk_restart_ctx *rs_ctx )
 245://MAC/Home/Downloads/getstarted-optiga-trust-m/optiga-trust-m-1/externals/mbedtls/library/pk.c **** {
 233              	 .loc 1 245 0
 234              	 .cfi_startproc
 235              	.LVL16:
 236 0000 F7B5     	 push {r0,r1,r2,r4,r5,r6,r7,lr}
 237              	.LCFI3:
 238              	 .cfi_def_cfa_offset 32
 239              	 .cfi_offset 0,-32
 240              	 .cfi_offset 1,-28
 241              	 .cfi_offset 2,-24
 242              	 .cfi_offset 4,-20
 243              	 .cfi_offset 5,-16
 244              	 .cfi_offset 6,-12
 245              	 .cfi_offset 7,-8
 246              	 .cfi_offset 14,-4
 247              	 .loc 1 245 0
 248 0002 161C     	 mov r6,r2
 246://MAC/Home/Downloads/getstarted-optiga-trust-m/optiga-trust-m-1/externals/mbedtls/library/pk.c ****     PK_VALIDATE_RET( ctx != NULL );
 247://MAC/Home/Downloads/getstarted-optiga-trust-m/optiga-trust-m-1/externals/mbedtls/library/pk.c ****     PK_VALIDATE_RET( ( md_alg == MBEDTLS_MD_NONE && hash_len == 0 ) ||
 248://MAC/Home/Downloads/getstarted-optiga-trust-m/optiga-trust-m-1/externals/mbedtls/library/pk.c ****                      hash != NULL );
 249://MAC/Home/Downloads/getstarted-optiga-trust-m/optiga-trust-m-1/externals/mbedtls/library/pk.c ****     PK_VALIDATE_RET( sig != NULL );
 250://MAC/Home/Downloads/getstarted-optiga-trust-m/optiga-trust-m-1/externals/mbedtls/library/pk.c **** 
 251://MAC/Home/Downloads/getstarted-optiga-trust-m/optiga-trust-m-1/externals/mbedtls/library/pk.c ****     if( ctx->pk_info == NULL ||
 249              	 .loc 1 251 0
 250 0004 0268     	 ldr r2,[r0]
 251              	.LVL17:
 245://MAC/Home/Downloads/getstarted-optiga-trust-m/optiga-trust-m-1/externals/mbedtls/library/pk.c ****     PK_VALIDATE_RET( ctx != NULL );
 252              	 .loc 1 245 0
 253 0006 041C     	 mov r4,r0
 254 0008 0D1C     	 mov r5,r1
 255              	 .loc 1 251 0
 256 000a 002A     	 cmp r2,#0
 257 000c 01D1     	 bne .L31
 258              	.LVL18:
 259              	.L34:
 252://MAC/Home/Downloads/getstarted-optiga-trust-m/optiga-trust-m-1/externals/mbedtls/library/pk.c ****         pk_hashlen_helper( md_alg, &hash_len ) != 0 )
 253://MAC/Home/Downloads/getstarted-optiga-trust-m/optiga-trust-m-1/externals/mbedtls/library/pk.c ****         return( MBEDTLS_ERR_PK_BAD_INPUT_DATA );
 260              	 .loc 1 253 0
 261 000e 0D48     	 ldr r0,.L43
 262 0010 17E0     	 b .L40
 263              	.LVL19:
 264              	.L31:
 265              	.LBB6:
 266              	.LBB7:
 203://MAC/Home/Downloads/getstarted-optiga-trust-m/optiga-trust-m-1/externals/mbedtls/library/pk.c ****         return( 0 );
 267              	 .loc 1 203 0
 268 0012 002B     	 cmp r3,#0
 269 0014 07D1     	 bne .L33
 270              	.LVL20:
 271              	.LBB8:
 272              	.LBB9:
 206://MAC/Home/Downloads/getstarted-optiga-trust-m/optiga-trust-m-1/externals/mbedtls/library/pk.c ****         return( -1 );
 273              	 .loc 1 206 0
 274 0016 081C     	 mov r0,r1
 275              	.LVL21:
 276 0018 FFF7FEFF 	 bl mbedtls_md_info_from_type
 277              	.LVL22:
 278 001c 0028     	 cmp r0,#0
 279 001e F6D0     	 beq .L34
 209://MAC/Home/Downloads/getstarted-optiga-trust-m/optiga-trust-m-1/externals/mbedtls/library/pk.c ****     return( 0 );
 280              	 .loc 1 209 0
 281 0020 FFF7FEFF 	 bl mbedtls_md_get_size
 282              	.LVL23:
 283 0024 031C     	 mov r3,r0
 284              	.LVL24:
 285              	.L33:
 286              	.LBE9:
 287              	.LBE8:
 288              	.LBE7:
 289              	.LBE6:
 254://MAC/Home/Downloads/getstarted-optiga-trust-m/optiga-trust-m-1/externals/mbedtls/library/pk.c **** 
 255://MAC/Home/Downloads/getstarted-optiga-trust-m/optiga-trust-m-1/externals/mbedtls/library/pk.c **** #if defined(MBEDTLS_ECDSA_C) && defined(MBEDTLS_ECP_RESTARTABLE)
 256://MAC/Home/Downloads/getstarted-optiga-trust-m/optiga-trust-m-1/externals/mbedtls/library/pk.c ****     /* optimization: use non-restartable version if restart disabled */
 257://MAC/Home/Downloads/getstarted-optiga-trust-m/optiga-trust-m-1/externals/mbedtls/library/pk.c ****     if( rs_ctx != NULL &&
 258://MAC/Home/Downloads/getstarted-optiga-trust-m/optiga-trust-m-1/externals/mbedtls/library/pk.c ****         mbedtls_ecp_restart_is_enabled() &&
 259://MAC/Home/Downloads/getstarted-optiga-trust-m/optiga-trust-m-1/externals/mbedtls/library/pk.c ****         ctx->pk_info->verify_rs_func != NULL )
 260://MAC/Home/Downloads/getstarted-optiga-trust-m/optiga-trust-m-1/externals/mbedtls/library/pk.c ****     {
 261://MAC/Home/Downloads/getstarted-optiga-trust-m/optiga-trust-m-1/externals/mbedtls/library/pk.c ****         int ret;
 262://MAC/Home/Downloads/getstarted-optiga-trust-m/optiga-trust-m-1/externals/mbedtls/library/pk.c **** 
 263://MAC/Home/Downloads/getstarted-optiga-trust-m/optiga-trust-m-1/externals/mbedtls/library/pk.c ****         if( ( ret = pk_restart_setup( rs_ctx, ctx->pk_info ) ) != 0 )
 264://MAC/Home/Downloads/getstarted-optiga-trust-m/optiga-trust-m-1/externals/mbedtls/library/pk.c ****             return( ret );
 265://MAC/Home/Downloads/getstarted-optiga-trust-m/optiga-trust-m-1/externals/mbedtls/library/pk.c **** 
 266://MAC/Home/Downloads/getstarted-optiga-trust-m/optiga-trust-m-1/externals/mbedtls/library/pk.c ****         ret = ctx->pk_info->verify_rs_func( ctx->pk_ctx,
 267://MAC/Home/Downloads/getstarted-optiga-trust-m/optiga-trust-m-1/externals/mbedtls/library/pk.c ****                    md_alg, hash, hash_len, sig, sig_len, rs_ctx->rs_ctx );
 268://MAC/Home/Downloads/getstarted-optiga-trust-m/optiga-trust-m-1/externals/mbedtls/library/pk.c **** 
 269://MAC/Home/Downloads/getstarted-optiga-trust-m/optiga-trust-m-1/externals/mbedtls/library/pk.c ****         if( ret != MBEDTLS_ERR_ECP_IN_PROGRESS )
 270://MAC/Home/Downloads/getstarted-optiga-trust-m/optiga-trust-m-1/externals/mbedtls/library/pk.c ****             mbedtls_pk_restart_free( rs_ctx );
 271://MAC/Home/Downloads/getstarted-optiga-trust-m/optiga-trust-m-1/externals/mbedtls/library/pk.c **** 
 272://MAC/Home/Downloads/getstarted-optiga-trust-m/optiga-trust-m-1/externals/mbedtls/library/pk.c ****         return( ret );
 273://MAC/Home/Downloads/getstarted-optiga-trust-m/optiga-trust-m-1/externals/mbedtls/library/pk.c ****     }
 274://MAC/Home/Downloads/getstarted-optiga-trust-m/optiga-trust-m-1/externals/mbedtls/library/pk.c **** #else /* MBEDTLS_ECDSA_C && MBEDTLS_ECP_RESTARTABLE */
 275://MAC/Home/Downloads/getstarted-optiga-trust-m/optiga-trust-m-1/externals/mbedtls/library/pk.c ****     (void) rs_ctx;
 276://MAC/Home/Downloads/getstarted-optiga-trust-m/optiga-trust-m-1/externals/mbedtls/library/pk.c **** #endif /* MBEDTLS_ECDSA_C && MBEDTLS_ECP_RESTARTABLE */
 277://MAC/Home/Downloads/getstarted-optiga-trust-m/optiga-trust-m-1/externals/mbedtls/library/pk.c **** 
 278://MAC/Home/Downloads/getstarted-optiga-trust-m/optiga-trust-m-1/externals/mbedtls/library/pk.c ****     if( ctx->pk_info->verify_func == NULL )
 290              	 .loc 1 278 0
 291 0026 2268     	 ldr r2,[r4]
 292 0028 1769     	 ldr r7,[r2,#16]
 293 002a 002F     	 cmp r7,#0
 294 002c 08D0     	 beq .L42
 279://MAC/Home/Downloads/getstarted-optiga-trust-m/optiga-trust-m-1/externals/mbedtls/library/pk.c ****         return( MBEDTLS_ERR_PK_TYPE_MISMATCH );
 280://MAC/Home/Downloads/getstarted-optiga-trust-m/optiga-trust-m-1/externals/mbedtls/library/pk.c **** 
 281://MAC/Home/Downloads/getstarted-optiga-trust-m/optiga-trust-m-1/externals/mbedtls/library/pk.c ****     return( ctx->pk_info->verify_func( ctx->pk_ctx, md_alg, hash, hash_len,
 295              	 .loc 1 281 0
 296 002e 089A     	 ldr r2,[sp,#32]
 297 0030 6068     	 ldr r0,[r4,#4]
 298 0032 0092     	 str r2,[sp]
 299 0034 099A     	 ldr r2,[sp,#36]
 300 0036 291C     	 mov r1,r5
 301 0038 0192     	 str r2,[sp,#4]
 302 003a 321C     	 mov r2,r6
 303 003c B847     	 blx r7
 304              	.LVL25:
 305 003e 00E0     	 b .L40
 306              	.LVL26:
 307              	.L42:
 279://MAC/Home/Downloads/getstarted-optiga-trust-m/optiga-trust-m-1/externals/mbedtls/library/pk.c ****         return( MBEDTLS_ERR_PK_TYPE_MISMATCH );
 308              	 .loc 1 279 0
 309 0040 0148     	 ldr r0,.L43+4
 310              	.LVL27:
 311              	.L40:
 282://MAC/Home/Downloads/getstarted-optiga-trust-m/optiga-trust-m-1/externals/mbedtls/library/pk.c ****                                        sig, sig_len ) );
 283://MAC/Home/Downloads/getstarted-optiga-trust-m/optiga-trust-m-1/externals/mbedtls/library/pk.c **** }
 312              	 .loc 1 283 0
 313              	 
 314              	.LVL28:
 315              	.LVL29:
 316 0042 FEBD     	 pop {r1,r2,r3,r4,r5,r6,r7,pc}
 317              	.L44:
 318              	 .align 2
 319              	.L43:
 320 0044 80C1FFFF 	 .word -16000
 321 0048 00C1FFFF 	 .word -16128
 322              	 .cfi_endproc
 323              	.LFE8:
 325              	 .section .text.mbedtls_pk_verify,"ax",%progbits
 326              	 .align 1
 327              	 .global mbedtls_pk_verify
 328              	 .code 16
 329              	 .thumb_func
 331              	mbedtls_pk_verify:
 332              	.LFB9:
 284://MAC/Home/Downloads/getstarted-optiga-trust-m/optiga-trust-m-1/externals/mbedtls/library/pk.c **** 
 285://MAC/Home/Downloads/getstarted-optiga-trust-m/optiga-trust-m-1/externals/mbedtls/library/pk.c **** /*
 286://MAC/Home/Downloads/getstarted-optiga-trust-m/optiga-trust-m-1/externals/mbedtls/library/pk.c ****  * Verify a signature
 287://MAC/Home/Downloads/getstarted-optiga-trust-m/optiga-trust-m-1/externals/mbedtls/library/pk.c ****  */
 288://MAC/Home/Downloads/getstarted-optiga-trust-m/optiga-trust-m-1/externals/mbedtls/library/pk.c **** int mbedtls_pk_verify( mbedtls_pk_context *ctx, mbedtls_md_type_t md_alg,
 289://MAC/Home/Downloads/getstarted-optiga-trust-m/optiga-trust-m-1/externals/mbedtls/library/pk.c ****                const unsigned char *hash, size_t hash_len,
 290://MAC/Home/Downloads/getstarted-optiga-trust-m/optiga-trust-m-1/externals/mbedtls/library/pk.c ****                const unsigned char *sig, size_t sig_len )
 291://MAC/Home/Downloads/getstarted-optiga-trust-m/optiga-trust-m-1/externals/mbedtls/library/pk.c **** {
 333              	 .loc 1 291 0
 334              	 .cfi_startproc
 335              	.LVL30:
 336 0000 1FB5     	 push {r0,r1,r2,r3,r4,lr}
 337              	.LCFI4:
 338              	 .cfi_def_cfa_offset 24
 339              	 .cfi_offset 0,-24
 340              	 .cfi_offset 1,-20
 341              	 .cfi_offset 2,-16
 342              	 .cfi_offset 3,-12
 343              	 .cfi_offset 4,-8
 344              	 .cfi_offset 14,-4
 292://MAC/Home/Downloads/getstarted-optiga-trust-m/optiga-trust-m-1/externals/mbedtls/library/pk.c ****     return( mbedtls_pk_verify_restartable( ctx, md_alg, hash, hash_len,
 345              	 .loc 1 292 0
 346 0002 069C     	 ldr r4,[sp,#24]
 347 0004 0094     	 str r4,[sp]
 348 0006 079C     	 ldr r4,[sp,#28]
 349 0008 0194     	 str r4,[sp,#4]
 350 000a 0024     	 mov r4,#0
 351 000c 0294     	 str r4,[sp,#8]
 352 000e FFF7FEFF 	 bl mbedtls_pk_verify_restartable
 353              	.LVL31:
 293://MAC/Home/Downloads/getstarted-optiga-trust-m/optiga-trust-m-1/externals/mbedtls/library/pk.c ****                                            sig, sig_len, NULL ) );
 294://MAC/Home/Downloads/getstarted-optiga-trust-m/optiga-trust-m-1/externals/mbedtls/library/pk.c **** }
 354              	 .loc 1 294 0
 355 0012 04B0     	 add sp,sp,#16
 356              	 
 357 0014 10BD     	 pop {r4,pc}
 358              	 .cfi_endproc
 359              	.LFE9:
 361              	 .section .text.mbedtls_pk_verify_ext,"ax",%progbits
 362              	 .align 1
 363              	 .global mbedtls_pk_verify_ext
 364              	 .code 16
 365              	 .thumb_func
 367              	mbedtls_pk_verify_ext:
 368              	.LFB10:
 295://MAC/Home/Downloads/getstarted-optiga-trust-m/optiga-trust-m-1/externals/mbedtls/library/pk.c **** 
 296://MAC/Home/Downloads/getstarted-optiga-trust-m/optiga-trust-m-1/externals/mbedtls/library/pk.c **** /*
 297://MAC/Home/Downloads/getstarted-optiga-trust-m/optiga-trust-m-1/externals/mbedtls/library/pk.c ****  * Verify a signature with options
 298://MAC/Home/Downloads/getstarted-optiga-trust-m/optiga-trust-m-1/externals/mbedtls/library/pk.c ****  */
 299://MAC/Home/Downloads/getstarted-optiga-trust-m/optiga-trust-m-1/externals/mbedtls/library/pk.c **** int mbedtls_pk_verify_ext( mbedtls_pk_type_t type, const void *options,
 300://MAC/Home/Downloads/getstarted-optiga-trust-m/optiga-trust-m-1/externals/mbedtls/library/pk.c ****                    mbedtls_pk_context *ctx, mbedtls_md_type_t md_alg,
 301://MAC/Home/Downloads/getstarted-optiga-trust-m/optiga-trust-m-1/externals/mbedtls/library/pk.c ****                    const unsigned char *hash, size_t hash_len,
 302://MAC/Home/Downloads/getstarted-optiga-trust-m/optiga-trust-m-1/externals/mbedtls/library/pk.c ****                    const unsigned char *sig, size_t sig_len )
 303://MAC/Home/Downloads/getstarted-optiga-trust-m/optiga-trust-m-1/externals/mbedtls/library/pk.c **** {
 369              	 .loc 1 303 0
 370              	 .cfi_startproc
 371              	.LVL32:
 372 0000 F7B5     	 push {r0,r1,r2,r4,r5,r6,r7,lr}
 373              	.LCFI5:
 374              	 .cfi_def_cfa_offset 32
 375              	 .cfi_offset 0,-32
 376              	 .cfi_offset 1,-28
 377              	 .cfi_offset 2,-24
 378              	 .cfi_offset 4,-20
 379              	 .cfi_offset 5,-16
 380              	 .cfi_offset 6,-12
 381              	 .cfi_offset 7,-8
 382              	 .cfi_offset 14,-4
 304://MAC/Home/Downloads/getstarted-optiga-trust-m/optiga-trust-m-1/externals/mbedtls/library/pk.c ****     PK_VALIDATE_RET( ctx != NULL );
 305://MAC/Home/Downloads/getstarted-optiga-trust-m/optiga-trust-m-1/externals/mbedtls/library/pk.c ****     PK_VALIDATE_RET( ( md_alg == MBEDTLS_MD_NONE && hash_len == 0 ) ||
 306://MAC/Home/Downloads/getstarted-optiga-trust-m/optiga-trust-m-1/externals/mbedtls/library/pk.c ****                      hash != NULL );
 307://MAC/Home/Downloads/getstarted-optiga-trust-m/optiga-trust-m-1/externals/mbedtls/library/pk.c ****     PK_VALIDATE_RET( sig != NULL );
 308://MAC/Home/Downloads/getstarted-optiga-trust-m/optiga-trust-m-1/externals/mbedtls/library/pk.c **** 
 309://MAC/Home/Downloads/getstarted-optiga-trust-m/optiga-trust-m-1/externals/mbedtls/library/pk.c ****     if( ctx->pk_info == NULL )
 383              	 .loc 1 309 0
 384 0002 1468     	 ldr r4,[r2]
 385 0004 002C     	 cmp r4,#0
 386 0006 01D1     	 bne .L47
 387              	.LVL33:
 388              	.L49:
 310://MAC/Home/Downloads/getstarted-optiga-trust-m/optiga-trust-m-1/externals/mbedtls/library/pk.c ****         return( MBEDTLS_ERR_PK_BAD_INPUT_DATA );
 389              	 .loc 1 310 0
 390 0008 0F48     	 ldr r0,.L52
 391 000a 1BE0     	 b .L48
 392              	.LVL34:
 393              	.L47:
 394 000c 051C     	 mov r5,r0
 395 000e 0F1C     	 mov r7,r1
 311://MAC/Home/Downloads/getstarted-optiga-trust-m/optiga-trust-m-1/externals/mbedtls/library/pk.c **** 
 312://MAC/Home/Downloads/getstarted-optiga-trust-m/optiga-trust-m-1/externals/mbedtls/library/pk.c ****     if( ! mbedtls_pk_can_do( ctx, type ) )
 396              	 .loc 1 312 0
 397 0010 101C     	 mov r0,r2
 398              	.LVL35:
 399 0012 291C     	 mov r1,r5
 400              	.LVL36:
 401 0014 1E1C     	 mov r6,r3
 402 0016 141C     	 mov r4,r2
 403 0018 FFF7FEFF 	 bl mbedtls_pk_can_do
 404              	.LVL37:
 405 001c 0028     	 cmp r0,#0
 406 001e 0ED0     	 beq .L50
 313://MAC/Home/Downloads/getstarted-optiga-trust-m/optiga-trust-m-1/externals/mbedtls/library/pk.c ****         return( MBEDTLS_ERR_PK_TYPE_MISMATCH );
 314://MAC/Home/Downloads/getstarted-optiga-trust-m/optiga-trust-m-1/externals/mbedtls/library/pk.c **** 
 315://MAC/Home/Downloads/getstarted-optiga-trust-m/optiga-trust-m-1/externals/mbedtls/library/pk.c ****     if( type == MBEDTLS_PK_RSASSA_PSS )
 407              	 .loc 1 315 0
 408 0020 062D     	 cmp r5,#6
 409 0022 0ED0     	 beq .L51
 316://MAC/Home/Downloads/getstarted-optiga-trust-m/optiga-trust-m-1/externals/mbedtls/library/pk.c ****     {
 317://MAC/Home/Downloads/getstarted-optiga-trust-m/optiga-trust-m-1/externals/mbedtls/library/pk.c **** #if defined(MBEDTLS_RSA_C) && defined(MBEDTLS_PKCS1_V21)
 318://MAC/Home/Downloads/getstarted-optiga-trust-m/optiga-trust-m-1/externals/mbedtls/library/pk.c ****         int ret;
 319://MAC/Home/Downloads/getstarted-optiga-trust-m/optiga-trust-m-1/externals/mbedtls/library/pk.c ****         const mbedtls_pk_rsassa_pss_options *pss_opts;
 320://MAC/Home/Downloads/getstarted-optiga-trust-m/optiga-trust-m-1/externals/mbedtls/library/pk.c **** 
 321://MAC/Home/Downloads/getstarted-optiga-trust-m/optiga-trust-m-1/externals/mbedtls/library/pk.c **** #if SIZE_MAX > UINT_MAX
 322://MAC/Home/Downloads/getstarted-optiga-trust-m/optiga-trust-m-1/externals/mbedtls/library/pk.c ****         if( md_alg == MBEDTLS_MD_NONE && UINT_MAX < hash_len )
 323://MAC/Home/Downloads/getstarted-optiga-trust-m/optiga-trust-m-1/externals/mbedtls/library/pk.c ****             return( MBEDTLS_ERR_PK_BAD_INPUT_DATA );
 324://MAC/Home/Downloads/getstarted-optiga-trust-m/optiga-trust-m-1/externals/mbedtls/library/pk.c **** #endif /* SIZE_MAX > UINT_MAX */
 325://MAC/Home/Downloads/getstarted-optiga-trust-m/optiga-trust-m-1/externals/mbedtls/library/pk.c **** 
 326://MAC/Home/Downloads/getstarted-optiga-trust-m/optiga-trust-m-1/externals/mbedtls/library/pk.c ****         if( options == NULL )
 327://MAC/Home/Downloads/getstarted-optiga-trust-m/optiga-trust-m-1/externals/mbedtls/library/pk.c ****             return( MBEDTLS_ERR_PK_BAD_INPUT_DATA );
 328://MAC/Home/Downloads/getstarted-optiga-trust-m/optiga-trust-m-1/externals/mbedtls/library/pk.c **** 
 329://MAC/Home/Downloads/getstarted-optiga-trust-m/optiga-trust-m-1/externals/mbedtls/library/pk.c ****         pss_opts = (const mbedtls_pk_rsassa_pss_options *) options;
 330://MAC/Home/Downloads/getstarted-optiga-trust-m/optiga-trust-m-1/externals/mbedtls/library/pk.c **** 
 331://MAC/Home/Downloads/getstarted-optiga-trust-m/optiga-trust-m-1/externals/mbedtls/library/pk.c ****         if( sig_len < mbedtls_pk_get_len( ctx ) )
 332://MAC/Home/Downloads/getstarted-optiga-trust-m/optiga-trust-m-1/externals/mbedtls/library/pk.c ****             return( MBEDTLS_ERR_RSA_VERIFY_FAILED );
 333://MAC/Home/Downloads/getstarted-optiga-trust-m/optiga-trust-m-1/externals/mbedtls/library/pk.c **** 
 334://MAC/Home/Downloads/getstarted-optiga-trust-m/optiga-trust-m-1/externals/mbedtls/library/pk.c ****         ret = mbedtls_rsa_rsassa_pss_verify_ext( mbedtls_pk_rsa( *ctx ),
 335://MAC/Home/Downloads/getstarted-optiga-trust-m/optiga-trust-m-1/externals/mbedtls/library/pk.c ****                 NULL, NULL, MBEDTLS_RSA_PUBLIC,
 336://MAC/Home/Downloads/getstarted-optiga-trust-m/optiga-trust-m-1/externals/mbedtls/library/pk.c ****                 md_alg, (unsigned int) hash_len, hash,
 337://MAC/Home/Downloads/getstarted-optiga-trust-m/optiga-trust-m-1/externals/mbedtls/library/pk.c ****                 pss_opts->mgf1_hash_id,
 338://MAC/Home/Downloads/getstarted-optiga-trust-m/optiga-trust-m-1/externals/mbedtls/library/pk.c ****                 pss_opts->expected_salt_len,
 339://MAC/Home/Downloads/getstarted-optiga-trust-m/optiga-trust-m-1/externals/mbedtls/library/pk.c ****                 sig );
 340://MAC/Home/Downloads/getstarted-optiga-trust-m/optiga-trust-m-1/externals/mbedtls/library/pk.c ****         if( ret != 0 )
 341://MAC/Home/Downloads/getstarted-optiga-trust-m/optiga-trust-m-1/externals/mbedtls/library/pk.c ****             return( ret );
 342://MAC/Home/Downloads/getstarted-optiga-trust-m/optiga-trust-m-1/externals/mbedtls/library/pk.c **** 
 343://MAC/Home/Downloads/getstarted-optiga-trust-m/optiga-trust-m-1/externals/mbedtls/library/pk.c ****         if( sig_len > mbedtls_pk_get_len( ctx ) )
 344://MAC/Home/Downloads/getstarted-optiga-trust-m/optiga-trust-m-1/externals/mbedtls/library/pk.c ****             return( MBEDTLS_ERR_PK_SIG_LEN_MISMATCH );
 345://MAC/Home/Downloads/getstarted-optiga-trust-m/optiga-trust-m-1/externals/mbedtls/library/pk.c **** 
 346://MAC/Home/Downloads/getstarted-optiga-trust-m/optiga-trust-m-1/externals/mbedtls/library/pk.c ****         return( 0 );
 347://MAC/Home/Downloads/getstarted-optiga-trust-m/optiga-trust-m-1/externals/mbedtls/library/pk.c **** #else
 348://MAC/Home/Downloads/getstarted-optiga-trust-m/optiga-trust-m-1/externals/mbedtls/library/pk.c ****         return( MBEDTLS_ERR_PK_FEATURE_UNAVAILABLE );
 349://MAC/Home/Downloads/getstarted-optiga-trust-m/optiga-trust-m-1/externals/mbedtls/library/pk.c **** #endif /* MBEDTLS_RSA_C && MBEDTLS_PKCS1_V21 */
 350://MAC/Home/Downloads/getstarted-optiga-trust-m/optiga-trust-m-1/externals/mbedtls/library/pk.c ****     }
 351://MAC/Home/Downloads/getstarted-optiga-trust-m/optiga-trust-m-1/externals/mbedtls/library/pk.c **** 
 352://MAC/Home/Downloads/getstarted-optiga-trust-m/optiga-trust-m-1/externals/mbedtls/library/pk.c ****     /* General case: no options */
 353://MAC/Home/Downloads/getstarted-optiga-trust-m/optiga-trust-m-1/externals/mbedtls/library/pk.c ****     if( options != NULL )
 410              	 .loc 1 353 0
 411 0024 002F     	 cmp r7,#0
 412 0026 EFD1     	 bne .L49
 354://MAC/Home/Downloads/getstarted-optiga-trust-m/optiga-trust-m-1/externals/mbedtls/library/pk.c ****         return( MBEDTLS_ERR_PK_BAD_INPUT_DATA );
 355://MAC/Home/Downloads/getstarted-optiga-trust-m/optiga-trust-m-1/externals/mbedtls/library/pk.c **** 
 356://MAC/Home/Downloads/getstarted-optiga-trust-m/optiga-trust-m-1/externals/mbedtls/library/pk.c ****     return( mbedtls_pk_verify( ctx, md_alg, hash, hash_len, sig, sig_len ) );
 413              	 .loc 1 356 0
 414 0028 0A9B     	 ldr r3,[sp,#40]
 415 002a 201C     	 mov r0,r4
 416 002c 0093     	 str r3,[sp]
 417 002e 0B9B     	 ldr r3,[sp,#44]
 418 0030 311C     	 mov r1,r6
 419 0032 0193     	 str r3,[sp,#4]
 420 0034 089A     	 ldr r2,[sp,#32]
 421 0036 099B     	 ldr r3,[sp,#36]
 422 0038 FFF7FEFF 	 bl mbedtls_pk_verify
 423              	.LVL38:
 424 003c 02E0     	 b .L48
 425              	.L50:
 313://MAC/Home/Downloads/getstarted-optiga-trust-m/optiga-trust-m-1/externals/mbedtls/library/pk.c **** 
 426              	 .loc 1 313 0
 427 003e 0348     	 ldr r0,.L52+4
 428 0040 00E0     	 b .L48
 429              	.L51:
 348://MAC/Home/Downloads/getstarted-optiga-trust-m/optiga-trust-m-1/externals/mbedtls/library/pk.c **** #endif /* MBEDTLS_RSA_C && MBEDTLS_PKCS1_V21 */
 430              	 .loc 1 348 0
 431 0042 0348     	 ldr r0,.L52+8
 432              	.LVL39:
 433              	.L48:
 357://MAC/Home/Downloads/getstarted-optiga-trust-m/optiga-trust-m-1/externals/mbedtls/library/pk.c **** }
 434              	 .loc 1 357 0
 435              	 
 436 0044 FEBD     	 pop {r1,r2,r3,r4,r5,r6,r7,pc}
 437              	.L53:
 438 0046 C046     	 .align 2
 439              	.L52:
 440 0048 80C1FFFF 	 .word -16000
 441 004c 00C1FFFF 	 .word -16128
 442 0050 80C6FFFF 	 .word -14720
 443              	 .cfi_endproc
 444              	.LFE10:
 446              	 .section .text.mbedtls_pk_sign_restartable,"ax",%progbits
 447              	 .align 1
 448              	 .global mbedtls_pk_sign_restartable
 449              	 .code 16
 450              	 .thumb_func
 452              	mbedtls_pk_sign_restartable:
 453              	.LFB11:
 358://MAC/Home/Downloads/getstarted-optiga-trust-m/optiga-trust-m-1/externals/mbedtls/library/pk.c **** 
 359://MAC/Home/Downloads/getstarted-optiga-trust-m/optiga-trust-m-1/externals/mbedtls/library/pk.c **** /*
 360://MAC/Home/Downloads/getstarted-optiga-trust-m/optiga-trust-m-1/externals/mbedtls/library/pk.c ****  * Make a signature (restartable)
 361://MAC/Home/Downloads/getstarted-optiga-trust-m/optiga-trust-m-1/externals/mbedtls/library/pk.c ****  */
 362://MAC/Home/Downloads/getstarted-optiga-trust-m/optiga-trust-m-1/externals/mbedtls/library/pk.c **** int mbedtls_pk_sign_restartable( mbedtls_pk_context *ctx,
 363://MAC/Home/Downloads/getstarted-optiga-trust-m/optiga-trust-m-1/externals/mbedtls/library/pk.c ****              mbedtls_md_type_t md_alg,
 364://MAC/Home/Downloads/getstarted-optiga-trust-m/optiga-trust-m-1/externals/mbedtls/library/pk.c ****              const unsigned char *hash, size_t hash_len,
 365://MAC/Home/Downloads/getstarted-optiga-trust-m/optiga-trust-m-1/externals/mbedtls/library/pk.c ****              unsigned char *sig, size_t *sig_len,
 366://MAC/Home/Downloads/getstarted-optiga-trust-m/optiga-trust-m-1/externals/mbedtls/library/pk.c ****              int (*f_rng)(void *, unsigned char *, size_t), void *p_rng,
 367://MAC/Home/Downloads/getstarted-optiga-trust-m/optiga-trust-m-1/externals/mbedtls/library/pk.c ****              mbedtls_pk_restart_ctx *rs_ctx )
 368://MAC/Home/Downloads/getstarted-optiga-trust-m/optiga-trust-m-1/externals/mbedtls/library/pk.c **** {
 454              	 .loc 1 368 0
 455              	 .cfi_startproc
 456              	.LVL40:
 457 0000 F0B5     	 push {r4,r5,r6,r7,lr}
 458              	.LCFI6:
 459              	 .cfi_def_cfa_offset 20
 460              	 .cfi_offset 4,-20
 461              	 .cfi_offset 5,-16
 462              	 .cfi_offset 6,-12
 463              	 .cfi_offset 7,-8
 464              	 .cfi_offset 14,-4
 465 0002 161C     	 mov r6,r2
 369://MAC/Home/Downloads/getstarted-optiga-trust-m/optiga-trust-m-1/externals/mbedtls/library/pk.c ****     PK_VALIDATE_RET( ctx != NULL );
 370://MAC/Home/Downloads/getstarted-optiga-trust-m/optiga-trust-m-1/externals/mbedtls/library/pk.c ****     PK_VALIDATE_RET( ( md_alg == MBEDTLS_MD_NONE && hash_len == 0 ) ||
 371://MAC/Home/Downloads/getstarted-optiga-trust-m/optiga-trust-m-1/externals/mbedtls/library/pk.c ****                      hash != NULL );
 372://MAC/Home/Downloads/getstarted-optiga-trust-m/optiga-trust-m-1/externals/mbedtls/library/pk.c ****     PK_VALIDATE_RET( sig != NULL );
 373://MAC/Home/Downloads/getstarted-optiga-trust-m/optiga-trust-m-1/externals/mbedtls/library/pk.c **** 
 374://MAC/Home/Downloads/getstarted-optiga-trust-m/optiga-trust-m-1/externals/mbedtls/library/pk.c ****     if( ctx->pk_info == NULL ||
 466              	 .loc 1 374 0
 467 0004 0268     	 ldr r2,[r0]
 468              	.LVL41:
 368://MAC/Home/Downloads/getstarted-optiga-trust-m/optiga-trust-m-1/externals/mbedtls/library/pk.c ****     PK_VALIDATE_RET( ctx != NULL );
 469              	 .loc 1 368 0
 470 0006 85B0     	 sub sp,sp,#20
 471              	.LCFI7:
 472              	 .cfi_def_cfa_offset 40
 368://MAC/Home/Downloads/getstarted-optiga-trust-m/optiga-trust-m-1/externals/mbedtls/library/pk.c ****     PK_VALIDATE_RET( ctx != NULL );
 473              	 .loc 1 368 0
 474 0008 041C     	 mov r4,r0
 475 000a 0D1C     	 mov r5,r1
 476              	 .loc 1 374 0
 477 000c 002A     	 cmp r2,#0
 478 000e 01D1     	 bne .L55
 479              	.LVL42:
 480              	.L58:
 375://MAC/Home/Downloads/getstarted-optiga-trust-m/optiga-trust-m-1/externals/mbedtls/library/pk.c ****         pk_hashlen_helper( md_alg, &hash_len ) != 0 )
 376://MAC/Home/Downloads/getstarted-optiga-trust-m/optiga-trust-m-1/externals/mbedtls/library/pk.c ****         return( MBEDTLS_ERR_PK_BAD_INPUT_DATA );
 481              	 .loc 1 376 0
 482 0010 0F48     	 ldr r0,.L67
 483 0012 1BE0     	 b .L64
 484              	.LVL43:
 485              	.L55:
 486              	.LBB14:
 487              	.LBB15:
 203://MAC/Home/Downloads/getstarted-optiga-trust-m/optiga-trust-m-1/externals/mbedtls/library/pk.c ****         return( 0 );
 488              	 .loc 1 203 0
 489 0014 002B     	 cmp r3,#0
 490 0016 07D1     	 bne .L57
 491              	.LVL44:
 492              	.LBB16:
 493              	.LBB17:
 206://MAC/Home/Downloads/getstarted-optiga-trust-m/optiga-trust-m-1/externals/mbedtls/library/pk.c ****         return( -1 );
 494              	 .loc 1 206 0
 495 0018 081C     	 mov r0,r1
 496              	.LVL45:
 497 001a FFF7FEFF 	 bl mbedtls_md_info_from_type
 498              	.LVL46:
 499 001e 0028     	 cmp r0,#0
 500 0020 F6D0     	 beq .L58
 209://MAC/Home/Downloads/getstarted-optiga-trust-m/optiga-trust-m-1/externals/mbedtls/library/pk.c ****     return( 0 );
 501              	 .loc 1 209 0
 502 0022 FFF7FEFF 	 bl mbedtls_md_get_size
 503              	.LVL47:
 504 0026 031C     	 mov r3,r0
 505              	.LVL48:
 506              	.L57:
 507              	.LBE17:
 508              	.LBE16:
 509              	.LBE15:
 510              	.LBE14:
 377://MAC/Home/Downloads/getstarted-optiga-trust-m/optiga-trust-m-1/externals/mbedtls/library/pk.c **** 
 378://MAC/Home/Downloads/getstarted-optiga-trust-m/optiga-trust-m-1/externals/mbedtls/library/pk.c **** #if defined(MBEDTLS_ECDSA_C) && defined(MBEDTLS_ECP_RESTARTABLE)
 379://MAC/Home/Downloads/getstarted-optiga-trust-m/optiga-trust-m-1/externals/mbedtls/library/pk.c ****     /* optimization: use non-restartable version if restart disabled */
 380://MAC/Home/Downloads/getstarted-optiga-trust-m/optiga-trust-m-1/externals/mbedtls/library/pk.c ****     if( rs_ctx != NULL &&
 381://MAC/Home/Downloads/getstarted-optiga-trust-m/optiga-trust-m-1/externals/mbedtls/library/pk.c ****         mbedtls_ecp_restart_is_enabled() &&
 382://MAC/Home/Downloads/getstarted-optiga-trust-m/optiga-trust-m-1/externals/mbedtls/library/pk.c ****         ctx->pk_info->sign_rs_func != NULL )
 383://MAC/Home/Downloads/getstarted-optiga-trust-m/optiga-trust-m-1/externals/mbedtls/library/pk.c ****     {
 384://MAC/Home/Downloads/getstarted-optiga-trust-m/optiga-trust-m-1/externals/mbedtls/library/pk.c ****         int ret;
 385://MAC/Home/Downloads/getstarted-optiga-trust-m/optiga-trust-m-1/externals/mbedtls/library/pk.c **** 
 386://MAC/Home/Downloads/getstarted-optiga-trust-m/optiga-trust-m-1/externals/mbedtls/library/pk.c ****         if( ( ret = pk_restart_setup( rs_ctx, ctx->pk_info ) ) != 0 )
 387://MAC/Home/Downloads/getstarted-optiga-trust-m/optiga-trust-m-1/externals/mbedtls/library/pk.c ****             return( ret );
 388://MAC/Home/Downloads/getstarted-optiga-trust-m/optiga-trust-m-1/externals/mbedtls/library/pk.c **** 
 389://MAC/Home/Downloads/getstarted-optiga-trust-m/optiga-trust-m-1/externals/mbedtls/library/pk.c ****         ret = ctx->pk_info->sign_rs_func( ctx->pk_ctx, md_alg,
 390://MAC/Home/Downloads/getstarted-optiga-trust-m/optiga-trust-m-1/externals/mbedtls/library/pk.c ****                 hash, hash_len, sig, sig_len, f_rng, p_rng, rs_ctx->rs_ctx );
 391://MAC/Home/Downloads/getstarted-optiga-trust-m/optiga-trust-m-1/externals/mbedtls/library/pk.c **** 
 392://MAC/Home/Downloads/getstarted-optiga-trust-m/optiga-trust-m-1/externals/mbedtls/library/pk.c ****         if( ret != MBEDTLS_ERR_ECP_IN_PROGRESS )
 393://MAC/Home/Downloads/getstarted-optiga-trust-m/optiga-trust-m-1/externals/mbedtls/library/pk.c ****             mbedtls_pk_restart_free( rs_ctx );
 394://MAC/Home/Downloads/getstarted-optiga-trust-m/optiga-trust-m-1/externals/mbedtls/library/pk.c **** 
 395://MAC/Home/Downloads/getstarted-optiga-trust-m/optiga-trust-m-1/externals/mbedtls/library/pk.c ****         return( ret );
 396://MAC/Home/Downloads/getstarted-optiga-trust-m/optiga-trust-m-1/externals/mbedtls/library/pk.c ****     }
 397://MAC/Home/Downloads/getstarted-optiga-trust-m/optiga-trust-m-1/externals/mbedtls/library/pk.c **** #else /* MBEDTLS_ECDSA_C && MBEDTLS_ECP_RESTARTABLE */
 398://MAC/Home/Downloads/getstarted-optiga-trust-m/optiga-trust-m-1/externals/mbedtls/library/pk.c ****     (void) rs_ctx;
 399://MAC/Home/Downloads/getstarted-optiga-trust-m/optiga-trust-m-1/externals/mbedtls/library/pk.c **** #endif /* MBEDTLS_ECDSA_C && MBEDTLS_ECP_RESTARTABLE */
 400://MAC/Home/Downloads/getstarted-optiga-trust-m/optiga-trust-m-1/externals/mbedtls/library/pk.c **** 
 401://MAC/Home/Downloads/getstarted-optiga-trust-m/optiga-trust-m-1/externals/mbedtls/library/pk.c ****     if( ctx->pk_info->sign_func == NULL )
 511              	 .loc 1 401 0
 512 0028 2268     	 ldr r2,[r4]
 513 002a 5769     	 ldr r7,[r2,#20]
 514 002c 002F     	 cmp r7,#0
 515 002e 0CD0     	 beq .L66
 402://MAC/Home/Downloads/getstarted-optiga-trust-m/optiga-trust-m-1/externals/mbedtls/library/pk.c ****         return( MBEDTLS_ERR_PK_TYPE_MISMATCH );
 403://MAC/Home/Downloads/getstarted-optiga-trust-m/optiga-trust-m-1/externals/mbedtls/library/pk.c **** 
 404://MAC/Home/Downloads/getstarted-optiga-trust-m/optiga-trust-m-1/externals/mbedtls/library/pk.c ****     return( ctx->pk_info->sign_func( ctx->pk_ctx, md_alg, hash, hash_len,
 516              	 .loc 1 404 0
 517 0030 0A9A     	 ldr r2,[sp,#40]
 518 0032 6068     	 ldr r0,[r4,#4]
 519 0034 0092     	 str r2,[sp]
 520 0036 0B9A     	 ldr r2,[sp,#44]
 521 0038 291C     	 mov r1,r5
 522 003a 0192     	 str r2,[sp,#4]
 523 003c 0C9A     	 ldr r2,[sp,#48]
 524 003e 0292     	 str r2,[sp,#8]
 525 0040 0D9A     	 ldr r2,[sp,#52]
 526 0042 0392     	 str r2,[sp,#12]
 527 0044 321C     	 mov r2,r6
 528 0046 B847     	 blx r7
 529              	.LVL49:
 530 0048 00E0     	 b .L64
 531              	.LVL50:
 532              	.L66:
 402://MAC/Home/Downloads/getstarted-optiga-trust-m/optiga-trust-m-1/externals/mbedtls/library/pk.c ****         return( MBEDTLS_ERR_PK_TYPE_MISMATCH );
 533              	 .loc 1 402 0
 534 004a 0248     	 ldr r0,.L67+4
 535              	.LVL51:
 536              	.L64:
 405://MAC/Home/Downloads/getstarted-optiga-trust-m/optiga-trust-m-1/externals/mbedtls/library/pk.c ****                                      sig, sig_len, f_rng, p_rng ) );
 406://MAC/Home/Downloads/getstarted-optiga-trust-m/optiga-trust-m-1/externals/mbedtls/library/pk.c **** }
 537              	 .loc 1 406 0
 538 004c 05B0     	 add sp,sp,#20
 539              	 
 540              	.LVL52:
 541              	.LVL53:
 542 004e F0BD     	 pop {r4,r5,r6,r7,pc}
 543              	.L68:
 544              	 .align 2
 545              	.L67:
 546 0050 80C1FFFF 	 .word -16000
 547 0054 00C1FFFF 	 .word -16128
 548              	 .cfi_endproc
 549              	.LFE11:
 551              	 .section .text.mbedtls_pk_sign,"ax",%progbits
 552              	 .align 1
 553              	 .global mbedtls_pk_sign
 554              	 .code 16
 555              	 .thumb_func
 557              	mbedtls_pk_sign:
 558              	.LFB12:
 407://MAC/Home/Downloads/getstarted-optiga-trust-m/optiga-trust-m-1/externals/mbedtls/library/pk.c **** 
 408://MAC/Home/Downloads/getstarted-optiga-trust-m/optiga-trust-m-1/externals/mbedtls/library/pk.c **** /*
 409://MAC/Home/Downloads/getstarted-optiga-trust-m/optiga-trust-m-1/externals/mbedtls/library/pk.c ****  * Make a signature
 410://MAC/Home/Downloads/getstarted-optiga-trust-m/optiga-trust-m-1/externals/mbedtls/library/pk.c ****  */
 411://MAC/Home/Downloads/getstarted-optiga-trust-m/optiga-trust-m-1/externals/mbedtls/library/pk.c **** int mbedtls_pk_sign( mbedtls_pk_context *ctx, mbedtls_md_type_t md_alg,
 412://MAC/Home/Downloads/getstarted-optiga-trust-m/optiga-trust-m-1/externals/mbedtls/library/pk.c ****              const unsigned char *hash, size_t hash_len,
 413://MAC/Home/Downloads/getstarted-optiga-trust-m/optiga-trust-m-1/externals/mbedtls/library/pk.c ****              unsigned char *sig, size_t *sig_len,
 414://MAC/Home/Downloads/getstarted-optiga-trust-m/optiga-trust-m-1/externals/mbedtls/library/pk.c ****              int (*f_rng)(void *, unsigned char *, size_t), void *p_rng )
 415://MAC/Home/Downloads/getstarted-optiga-trust-m/optiga-trust-m-1/externals/mbedtls/library/pk.c **** {
 559              	 .loc 1 415 0
 560              	 .cfi_startproc
 561              	.LVL54:
 562 0000 10B5     	 push {r4,lr}
 563              	.LCFI8:
 564              	 .cfi_def_cfa_offset 8
 565              	 .cfi_offset 4,-8
 566              	 .cfi_offset 14,-4
 567 0002 86B0     	 sub sp,sp,#24
 568              	.LCFI9:
 569              	 .cfi_def_cfa_offset 32
 416://MAC/Home/Downloads/getstarted-optiga-trust-m/optiga-trust-m-1/externals/mbedtls/library/pk.c ****     return( mbedtls_pk_sign_restartable( ctx, md_alg, hash, hash_len,
 570              	 .loc 1 416 0
 571 0004 089C     	 ldr r4,[sp,#32]
 572 0006 0094     	 str r4,[sp]
 573 0008 099C     	 ldr r4,[sp,#36]
 574 000a 0194     	 str r4,[sp,#4]
 575 000c 0A9C     	 ldr r4,[sp,#40]
 576 000e 0294     	 str r4,[sp,#8]
 577 0010 0B9C     	 ldr r4,[sp,#44]
 578 0012 0394     	 str r4,[sp,#12]
 579 0014 0024     	 mov r4,#0
 580 0016 0494     	 str r4,[sp,#16]
 581 0018 FFF7FEFF 	 bl mbedtls_pk_sign_restartable
 582              	.LVL55:
 417://MAC/Home/Downloads/getstarted-optiga-trust-m/optiga-trust-m-1/externals/mbedtls/library/pk.c ****                                          sig, sig_len, f_rng, p_rng, NULL ) );
 418://MAC/Home/Downloads/getstarted-optiga-trust-m/optiga-trust-m-1/externals/mbedtls/library/pk.c **** }
 583              	 .loc 1 418 0
 584 001c 06B0     	 add sp,sp,#24
 585              	 
 586 001e 10BD     	 pop {r4,pc}
 587              	 .cfi_endproc
 588              	.LFE12:
 590              	 .section .text.mbedtls_pk_decrypt,"ax",%progbits
 591              	 .align 1
 592              	 .global mbedtls_pk_decrypt
 593              	 .code 16
 594              	 .thumb_func
 596              	mbedtls_pk_decrypt:
 597              	.LFB13:
 419://MAC/Home/Downloads/getstarted-optiga-trust-m/optiga-trust-m-1/externals/mbedtls/library/pk.c **** 
 420://MAC/Home/Downloads/getstarted-optiga-trust-m/optiga-trust-m-1/externals/mbedtls/library/pk.c **** /*
 421://MAC/Home/Downloads/getstarted-optiga-trust-m/optiga-trust-m-1/externals/mbedtls/library/pk.c ****  * Decrypt message
 422://MAC/Home/Downloads/getstarted-optiga-trust-m/optiga-trust-m-1/externals/mbedtls/library/pk.c ****  */
 423://MAC/Home/Downloads/getstarted-optiga-trust-m/optiga-trust-m-1/externals/mbedtls/library/pk.c **** int mbedtls_pk_decrypt( mbedtls_pk_context *ctx,
 424://MAC/Home/Downloads/getstarted-optiga-trust-m/optiga-trust-m-1/externals/mbedtls/library/pk.c ****                 const unsigned char *input, size_t ilen,
 425://MAC/Home/Downloads/getstarted-optiga-trust-m/optiga-trust-m-1/externals/mbedtls/library/pk.c ****                 unsigned char *output, size_t *olen, size_t osize,
 426://MAC/Home/Downloads/getstarted-optiga-trust-m/optiga-trust-m-1/externals/mbedtls/library/pk.c ****                 int (*f_rng)(void *, unsigned char *, size_t), void *p_rng )
 427://MAC/Home/Downloads/getstarted-optiga-trust-m/optiga-trust-m-1/externals/mbedtls/library/pk.c **** {
 598              	 .loc 1 427 0
 599              	 .cfi_startproc
 600              	.LVL56:
 601 0000 30B5     	 push {r4,r5,lr}
 602              	.LCFI10:
 603              	 .cfi_def_cfa_offset 12
 604              	 .cfi_offset 4,-12
 605              	 .cfi_offset 5,-8
 606              	 .cfi_offset 14,-4
 428://MAC/Home/Downloads/getstarted-optiga-trust-m/optiga-trust-m-1/externals/mbedtls/library/pk.c ****     PK_VALIDATE_RET( ctx != NULL );
 429://MAC/Home/Downloads/getstarted-optiga-trust-m/optiga-trust-m-1/externals/mbedtls/library/pk.c ****     PK_VALIDATE_RET( input != NULL || ilen == 0 );
 430://MAC/Home/Downloads/getstarted-optiga-trust-m/optiga-trust-m-1/externals/mbedtls/library/pk.c ****     PK_VALIDATE_RET( output != NULL || osize == 0 );
 431://MAC/Home/Downloads/getstarted-optiga-trust-m/optiga-trust-m-1/externals/mbedtls/library/pk.c ****     PK_VALIDATE_RET( olen != NULL );
 432://MAC/Home/Downloads/getstarted-optiga-trust-m/optiga-trust-m-1/externals/mbedtls/library/pk.c **** 
 433://MAC/Home/Downloads/getstarted-optiga-trust-m/optiga-trust-m-1/externals/mbedtls/library/pk.c ****     if( ctx->pk_info == NULL )
 607              	 .loc 1 433 0
 608 0002 0468     	 ldr r4,[r0]
 427://MAC/Home/Downloads/getstarted-optiga-trust-m/optiga-trust-m-1/externals/mbedtls/library/pk.c ****     PK_VALIDATE_RET( ctx != NULL );
 609              	 .loc 1 427 0
 610 0004 85B0     	 sub sp,sp,#20
 611              	.LCFI11:
 612              	 .cfi_def_cfa_offset 32
 613              	 .loc 1 433 0
 614 0006 002C     	 cmp r4,#0
 615 0008 0DD0     	 beq .L72
 434://MAC/Home/Downloads/getstarted-optiga-trust-m/optiga-trust-m-1/externals/mbedtls/library/pk.c ****         return( MBEDTLS_ERR_PK_BAD_INPUT_DATA );
 435://MAC/Home/Downloads/getstarted-optiga-trust-m/optiga-trust-m-1/externals/mbedtls/library/pk.c **** 
 436://MAC/Home/Downloads/getstarted-optiga-trust-m/optiga-trust-m-1/externals/mbedtls/library/pk.c ****     if( ctx->pk_info->decrypt_func == NULL )
 616              	 .loc 1 436 0
 617 000a A469     	 ldr r4,[r4,#24]
 618 000c 002C     	 cmp r4,#0
 619 000e 0CD0     	 beq .L73
 437://MAC/Home/Downloads/getstarted-optiga-trust-m/optiga-trust-m-1/externals/mbedtls/library/pk.c ****         return( MBEDTLS_ERR_PK_TYPE_MISMATCH );
 438://MAC/Home/Downloads/getstarted-optiga-trust-m/optiga-trust-m-1/externals/mbedtls/library/pk.c **** 
 439://MAC/Home/Downloads/getstarted-optiga-trust-m/optiga-trust-m-1/externals/mbedtls/library/pk.c ****     return( ctx->pk_info->decrypt_func( ctx->pk_ctx, input, ilen,
 620              	 .loc 1 439 0
 621 0010 089D     	 ldr r5,[sp,#32]
 622 0012 0095     	 str r5,[sp]
 623 0014 099D     	 ldr r5,[sp,#36]
 624 0016 0195     	 str r5,[sp,#4]
 625 0018 0A9D     	 ldr r5,[sp,#40]
 626 001a 0295     	 str r5,[sp,#8]
 627 001c 0B9D     	 ldr r5,[sp,#44]
 628 001e 0395     	 str r5,[sp,#12]
 629 0020 4068     	 ldr r0,[r0,#4]
 630              	.LVL57:
 631 0022 A047     	 blx r4
 632              	.LVL58:
 633 0024 02E0     	 b .L71
 634              	.LVL59:
 635              	.L72:
 434://MAC/Home/Downloads/getstarted-optiga-trust-m/optiga-trust-m-1/externals/mbedtls/library/pk.c ****         return( MBEDTLS_ERR_PK_BAD_INPUT_DATA );
 636              	 .loc 1 434 0
 637 0026 0248     	 ldr r0,.L74
 638              	.LVL60:
 639 0028 00E0     	 b .L71
 640              	.LVL61:
 641              	.L73:
 437://MAC/Home/Downloads/getstarted-optiga-trust-m/optiga-trust-m-1/externals/mbedtls/library/pk.c ****         return( MBEDTLS_ERR_PK_TYPE_MISMATCH );
 642              	 .loc 1 437 0
 643 002a 0248     	 ldr r0,.L74+4
 644              	.LVL62:
 645              	.L71:
 440://MAC/Home/Downloads/getstarted-optiga-trust-m/optiga-trust-m-1/externals/mbedtls/library/pk.c ****                 output, olen, osize, f_rng, p_rng ) );
 441://MAC/Home/Downloads/getstarted-optiga-trust-m/optiga-trust-m-1/externals/mbedtls/library/pk.c **** }
 646              	 .loc 1 441 0
 647 002c 05B0     	 add sp,sp,#20
 648              	 
 649 002e 30BD     	 pop {r4,r5,pc}
 650              	.L75:
 651              	 .align 2
 652              	.L74:
 653 0030 80C1FFFF 	 .word -16000
 654 0034 00C1FFFF 	 .word -16128
 655              	 .cfi_endproc
 656              	.LFE13:
 658              	 .section .text.mbedtls_pk_encrypt,"ax",%progbits
 659              	 .align 1
 660              	 .global mbedtls_pk_encrypt
 661              	 .code 16
 662              	 .thumb_func
 664              	mbedtls_pk_encrypt:
 665              	.LFB14:
 442://MAC/Home/Downloads/getstarted-optiga-trust-m/optiga-trust-m-1/externals/mbedtls/library/pk.c **** 
 443://MAC/Home/Downloads/getstarted-optiga-trust-m/optiga-trust-m-1/externals/mbedtls/library/pk.c **** /*
 444://MAC/Home/Downloads/getstarted-optiga-trust-m/optiga-trust-m-1/externals/mbedtls/library/pk.c ****  * Encrypt message
 445://MAC/Home/Downloads/getstarted-optiga-trust-m/optiga-trust-m-1/externals/mbedtls/library/pk.c ****  */
 446://MAC/Home/Downloads/getstarted-optiga-trust-m/optiga-trust-m-1/externals/mbedtls/library/pk.c **** int mbedtls_pk_encrypt( mbedtls_pk_context *ctx,
 447://MAC/Home/Downloads/getstarted-optiga-trust-m/optiga-trust-m-1/externals/mbedtls/library/pk.c ****                 const unsigned char *input, size_t ilen,
 448://MAC/Home/Downloads/getstarted-optiga-trust-m/optiga-trust-m-1/externals/mbedtls/library/pk.c ****                 unsigned char *output, size_t *olen, size_t osize,
 449://MAC/Home/Downloads/getstarted-optiga-trust-m/optiga-trust-m-1/externals/mbedtls/library/pk.c ****                 int (*f_rng)(void *, unsigned char *, size_t), void *p_rng )
 450://MAC/Home/Downloads/getstarted-optiga-trust-m/optiga-trust-m-1/externals/mbedtls/library/pk.c **** {
 666              	 .loc 1 450 0
 667              	 .cfi_startproc
 668              	.LVL63:
 669 0000 30B5     	 push {r4,r5,lr}
 670              	.LCFI12:
 671              	 .cfi_def_cfa_offset 12
 672              	 .cfi_offset 4,-12
 673              	 .cfi_offset 5,-8
 674              	 .cfi_offset 14,-4
 451://MAC/Home/Downloads/getstarted-optiga-trust-m/optiga-trust-m-1/externals/mbedtls/library/pk.c ****     PK_VALIDATE_RET( ctx != NULL );
 452://MAC/Home/Downloads/getstarted-optiga-trust-m/optiga-trust-m-1/externals/mbedtls/library/pk.c ****     PK_VALIDATE_RET( input != NULL || ilen == 0 );
 453://MAC/Home/Downloads/getstarted-optiga-trust-m/optiga-trust-m-1/externals/mbedtls/library/pk.c ****     PK_VALIDATE_RET( output != NULL || osize == 0 );
 454://MAC/Home/Downloads/getstarted-optiga-trust-m/optiga-trust-m-1/externals/mbedtls/library/pk.c ****     PK_VALIDATE_RET( olen != NULL );
 455://MAC/Home/Downloads/getstarted-optiga-trust-m/optiga-trust-m-1/externals/mbedtls/library/pk.c **** 
 456://MAC/Home/Downloads/getstarted-optiga-trust-m/optiga-trust-m-1/externals/mbedtls/library/pk.c ****     if( ctx->pk_info == NULL )
 675              	 .loc 1 456 0
 676 0002 0468     	 ldr r4,[r0]
 450://MAC/Home/Downloads/getstarted-optiga-trust-m/optiga-trust-m-1/externals/mbedtls/library/pk.c ****     PK_VALIDATE_RET( ctx != NULL );
 677              	 .loc 1 450 0
 678 0004 85B0     	 sub sp,sp,#20
 679              	.LCFI13:
 680              	 .cfi_def_cfa_offset 32
 681              	 .loc 1 456 0
 682 0006 002C     	 cmp r4,#0
 683 0008 0DD0     	 beq .L78
 457://MAC/Home/Downloads/getstarted-optiga-trust-m/optiga-trust-m-1/externals/mbedtls/library/pk.c ****         return( MBEDTLS_ERR_PK_BAD_INPUT_DATA );
 458://MAC/Home/Downloads/getstarted-optiga-trust-m/optiga-trust-m-1/externals/mbedtls/library/pk.c **** 
 459://MAC/Home/Downloads/getstarted-optiga-trust-m/optiga-trust-m-1/externals/mbedtls/library/pk.c ****     if( ctx->pk_info->encrypt_func == NULL )
 684              	 .loc 1 459 0
 685 000a E469     	 ldr r4,[r4,#28]
 686 000c 002C     	 cmp r4,#0
 687 000e 0CD0     	 beq .L79
 460://MAC/Home/Downloads/getstarted-optiga-trust-m/optiga-trust-m-1/externals/mbedtls/library/pk.c ****         return( MBEDTLS_ERR_PK_TYPE_MISMATCH );
 461://MAC/Home/Downloads/getstarted-optiga-trust-m/optiga-trust-m-1/externals/mbedtls/library/pk.c **** 
 462://MAC/Home/Downloads/getstarted-optiga-trust-m/optiga-trust-m-1/externals/mbedtls/library/pk.c ****     return( ctx->pk_info->encrypt_func( ctx->pk_ctx, input, ilen,
 688              	 .loc 1 462 0
 689 0010 089D     	 ldr r5,[sp,#32]
 690 0012 0095     	 str r5,[sp]
 691 0014 099D     	 ldr r5,[sp,#36]
 692 0016 0195     	 str r5,[sp,#4]
 693 0018 0A9D     	 ldr r5,[sp,#40]
 694 001a 0295     	 str r5,[sp,#8]
 695 001c 0B9D     	 ldr r5,[sp,#44]
 696 001e 0395     	 str r5,[sp,#12]
 697 0020 4068     	 ldr r0,[r0,#4]
 698              	.LVL64:
 699 0022 A047     	 blx r4
 700              	.LVL65:
 701 0024 02E0     	 b .L77
 702              	.LVL66:
 703              	.L78:
 457://MAC/Home/Downloads/getstarted-optiga-trust-m/optiga-trust-m-1/externals/mbedtls/library/pk.c ****         return( MBEDTLS_ERR_PK_BAD_INPUT_DATA );
 704              	 .loc 1 457 0
 705 0026 0248     	 ldr r0,.L80
 706              	.LVL67:
 707 0028 00E0     	 b .L77
 708              	.LVL68:
 709              	.L79:
 460://MAC/Home/Downloads/getstarted-optiga-trust-m/optiga-trust-m-1/externals/mbedtls/library/pk.c ****         return( MBEDTLS_ERR_PK_TYPE_MISMATCH );
 710              	 .loc 1 460 0
 711 002a 0248     	 ldr r0,.L80+4
 712              	.LVL69:
 713              	.L77:
 463://MAC/Home/Downloads/getstarted-optiga-trust-m/optiga-trust-m-1/externals/mbedtls/library/pk.c ****                 output, olen, osize, f_rng, p_rng ) );
 464://MAC/Home/Downloads/getstarted-optiga-trust-m/optiga-trust-m-1/externals/mbedtls/library/pk.c **** }
 714              	 .loc 1 464 0
 715 002c 05B0     	 add sp,sp,#20
 716              	 
 717 002e 30BD     	 pop {r4,r5,pc}
 718              	.L81:
 719              	 .align 2
 720              	.L80:
 721 0030 80C1FFFF 	 .word -16000
 722 0034 00C1FFFF 	 .word -16128
 723              	 .cfi_endproc
 724              	.LFE14:
 726              	 .section .text.mbedtls_pk_check_pair,"ax",%progbits
 727              	 .align 1
 728              	 .global mbedtls_pk_check_pair
 729              	 .code 16
 730              	 .thumb_func
 732              	mbedtls_pk_check_pair:
 733              	.LFB15:
 465://MAC/Home/Downloads/getstarted-optiga-trust-m/optiga-trust-m-1/externals/mbedtls/library/pk.c **** 
 466://MAC/Home/Downloads/getstarted-optiga-trust-m/optiga-trust-m-1/externals/mbedtls/library/pk.c **** /*
 467://MAC/Home/Downloads/getstarted-optiga-trust-m/optiga-trust-m-1/externals/mbedtls/library/pk.c ****  * Check public-private key pair
 468://MAC/Home/Downloads/getstarted-optiga-trust-m/optiga-trust-m-1/externals/mbedtls/library/pk.c ****  */
 469://MAC/Home/Downloads/getstarted-optiga-trust-m/optiga-trust-m-1/externals/mbedtls/library/pk.c **** int mbedtls_pk_check_pair( const mbedtls_pk_context *pub, const mbedtls_pk_context *prv )
 470://MAC/Home/Downloads/getstarted-optiga-trust-m/optiga-trust-m-1/externals/mbedtls/library/pk.c **** {
 734              	 .loc 1 470 0
 735              	 .cfi_startproc
 736              	.LVL70:
 471://MAC/Home/Downloads/getstarted-optiga-trust-m/optiga-trust-m-1/externals/mbedtls/library/pk.c ****     PK_VALIDATE_RET( pub != NULL );
 472://MAC/Home/Downloads/getstarted-optiga-trust-m/optiga-trust-m-1/externals/mbedtls/library/pk.c ****     PK_VALIDATE_RET( prv != NULL );
 473://MAC/Home/Downloads/getstarted-optiga-trust-m/optiga-trust-m-1/externals/mbedtls/library/pk.c **** 
 474://MAC/Home/Downloads/getstarted-optiga-trust-m/optiga-trust-m-1/externals/mbedtls/library/pk.c ****     if( pub->pk_info == NULL ||
 737              	 .loc 1 474 0
 738 0000 0268     	 ldr r2,[r0]
 470://MAC/Home/Downloads/getstarted-optiga-trust-m/optiga-trust-m-1/externals/mbedtls/library/pk.c ****     PK_VALIDATE_RET( pub != NULL );
 739              	 .loc 1 470 0
 740 0002 38B5     	 push {r3,r4,r5,lr}
 741              	.LCFI14:
 742              	 .cfi_def_cfa_offset 16
 743              	 .cfi_offset 3,-16
 744              	 .cfi_offset 4,-12
 745              	 .cfi_offset 5,-8
 746              	 .cfi_offset 14,-4
 747              	 .loc 1 474 0
 748 0004 002A     	 cmp r2,#0
 749 0006 12D0     	 beq .L88
 475://MAC/Home/Downloads/getstarted-optiga-trust-m/optiga-trust-m-1/externals/mbedtls/library/pk.c ****         prv->pk_info == NULL ||
 750              	 .loc 1 475 0 discriminator 1
 751 0008 0B68     	 ldr r3,[r1]
 474://MAC/Home/Downloads/getstarted-optiga-trust-m/optiga-trust-m-1/externals/mbedtls/library/pk.c ****         prv->pk_info == NULL ||
 752              	 .loc 1 474 0 discriminator 1
 753 000a 002B     	 cmp r3,#0
 754 000c 0FD0     	 beq .L88
 476://MAC/Home/Downloads/getstarted-optiga-trust-m/optiga-trust-m-1/externals/mbedtls/library/pk.c ****         prv->pk_info->check_pair_func == NULL )
 755              	 .loc 1 476 0
 756 000e 1C6A     	 ldr r4,[r3,#32]
 475://MAC/Home/Downloads/getstarted-optiga-trust-m/optiga-trust-m-1/externals/mbedtls/library/pk.c ****         prv->pk_info == NULL ||
 757              	 .loc 1 475 0
 758 0010 002C     	 cmp r4,#0
 759 0012 0CD0     	 beq .L88
 477://MAC/Home/Downloads/getstarted-optiga-trust-m/optiga-trust-m-1/externals/mbedtls/library/pk.c ****     {
 478://MAC/Home/Downloads/getstarted-optiga-trust-m/optiga-trust-m-1/externals/mbedtls/library/pk.c ****         return( MBEDTLS_ERR_PK_BAD_INPUT_DATA );
 479://MAC/Home/Downloads/getstarted-optiga-trust-m/optiga-trust-m-1/externals/mbedtls/library/pk.c ****     }
 480://MAC/Home/Downloads/getstarted-optiga-trust-m/optiga-trust-m-1/externals/mbedtls/library/pk.c **** 
 481://MAC/Home/Downloads/getstarted-optiga-trust-m/optiga-trust-m-1/externals/mbedtls/library/pk.c ****     if( prv->pk_info->type == MBEDTLS_PK_RSA_ALT )
 760              	 .loc 1 481 0
 761 0014 1D78     	 ldrb r5,[r3]
 762 0016 052D     	 cmp r5,#5
 763 0018 03D1     	 bne .L84
 482://MAC/Home/Downloads/getstarted-optiga-trust-m/optiga-trust-m-1/externals/mbedtls/library/pk.c ****     {
 483://MAC/Home/Downloads/getstarted-optiga-trust-m/optiga-trust-m-1/externals/mbedtls/library/pk.c ****         if( pub->pk_info->type != MBEDTLS_PK_RSA )
 764              	 .loc 1 483 0
 765 001a 1378     	 ldrb r3,[r2]
 766 001c 012B     	 cmp r3,#1
 767 001e 02D0     	 beq .L85
 768 0020 07E0     	 b .L90
 769              	.L84:
 484://MAC/Home/Downloads/getstarted-optiga-trust-m/optiga-trust-m-1/externals/mbedtls/library/pk.c ****             return( MBEDTLS_ERR_PK_TYPE_MISMATCH );
 485://MAC/Home/Downloads/getstarted-optiga-trust-m/optiga-trust-m-1/externals/mbedtls/library/pk.c ****     }
 486://MAC/Home/Downloads/getstarted-optiga-trust-m/optiga-trust-m-1/externals/mbedtls/library/pk.c ****     else
 487://MAC/Home/Downloads/getstarted-optiga-trust-m/optiga-trust-m-1/externals/mbedtls/library/pk.c ****     {
 488://MAC/Home/Downloads/getstarted-optiga-trust-m/optiga-trust-m-1/externals/mbedtls/library/pk.c ****         if( pub->pk_info != prv->pk_info )
 770              	 .loc 1 488 0
 771 0022 9A42     	 cmp r2,r3
 772 0024 05D1     	 bne .L90
 773              	.L85:
 489://MAC/Home/Downloads/getstarted-optiga-trust-m/optiga-trust-m-1/externals/mbedtls/library/pk.c ****             return( MBEDTLS_ERR_PK_TYPE_MISMATCH );
 490://MAC/Home/Downloads/getstarted-optiga-trust-m/optiga-trust-m-1/externals/mbedtls/library/pk.c ****     }
 491://MAC/Home/Downloads/getstarted-optiga-trust-m/optiga-trust-m-1/externals/mbedtls/library/pk.c **** 
 492://MAC/Home/Downloads/getstarted-optiga-trust-m/optiga-trust-m-1/externals/mbedtls/library/pk.c ****     return( prv->pk_info->check_pair_func( pub->pk_ctx, prv->pk_ctx ) );
 774              	 .loc 1 492 0
 775 0026 4968     	 ldr r1,[r1,#4]
 776              	.LVL71:
 777 0028 4068     	 ldr r0,[r0,#4]
 778              	.LVL72:
 779 002a A047     	 blx r4
 780              	.LVL73:
 781 002c 02E0     	 b .L83
 782              	.LVL74:
 783              	.L88:
 478://MAC/Home/Downloads/getstarted-optiga-trust-m/optiga-trust-m-1/externals/mbedtls/library/pk.c ****     }
 784              	 .loc 1 478 0
 785 002e 0248     	 ldr r0,.L91
 786              	.LVL75:
 787 0030 00E0     	 b .L83
 788              	.LVL76:
 789              	.L90:
 484://MAC/Home/Downloads/getstarted-optiga-trust-m/optiga-trust-m-1/externals/mbedtls/library/pk.c ****             return( MBEDTLS_ERR_PK_TYPE_MISMATCH );
 790              	 .loc 1 484 0
 791 0032 0248     	 ldr r0,.L91+4
 792              	.LVL77:
 793              	.L83:
 493://MAC/Home/Downloads/getstarted-optiga-trust-m/optiga-trust-m-1/externals/mbedtls/library/pk.c **** }
 794              	 .loc 1 493 0
 795              	 
 796 0034 38BD     	 pop {r3,r4,r5,pc}
 797              	.L92:
 798 0036 C046     	 .align 2
 799              	.L91:
 800 0038 80C1FFFF 	 .word -16000
 801 003c 00C1FFFF 	 .word -16128
 802              	 .cfi_endproc
 803              	.LFE15:
 805              	 .section .text.mbedtls_pk_get_bitlen,"ax",%progbits
 806              	 .align 1
 807              	 .global mbedtls_pk_get_bitlen
 808              	 .code 16
 809              	 .thumb_func
 811              	mbedtls_pk_get_bitlen:
 812              	.LFB16:
 494://MAC/Home/Downloads/getstarted-optiga-trust-m/optiga-trust-m-1/externals/mbedtls/library/pk.c **** 
 495://MAC/Home/Downloads/getstarted-optiga-trust-m/optiga-trust-m-1/externals/mbedtls/library/pk.c **** /*
 496://MAC/Home/Downloads/getstarted-optiga-trust-m/optiga-trust-m-1/externals/mbedtls/library/pk.c ****  * Get key size in bits
 497://MAC/Home/Downloads/getstarted-optiga-trust-m/optiga-trust-m-1/externals/mbedtls/library/pk.c ****  */
 498://MAC/Home/Downloads/getstarted-optiga-trust-m/optiga-trust-m-1/externals/mbedtls/library/pk.c **** size_t mbedtls_pk_get_bitlen( const mbedtls_pk_context *ctx )
 499://MAC/Home/Downloads/getstarted-optiga-trust-m/optiga-trust-m-1/externals/mbedtls/library/pk.c **** {
 813              	 .loc 1 499 0
 814              	 .cfi_startproc
 815              	.LVL78:
 816 0000 08B5     	 push {r3,lr}
 817              	.LCFI15:
 818              	 .cfi_def_cfa_offset 8
 819              	 .cfi_offset 3,-8
 820              	 .cfi_offset 14,-4
 821              	 .loc 1 499 0
 822 0002 031E     	 sub r3,r0,#0
 500://MAC/Home/Downloads/getstarted-optiga-trust-m/optiga-trust-m-1/externals/mbedtls/library/pk.c ****     /* For backward compatibility, accept NULL or a context that
 501://MAC/Home/Downloads/getstarted-optiga-trust-m/optiga-trust-m-1/externals/mbedtls/library/pk.c ****      * isn't set up yet, and return a fake value that should be safe. */
 502://MAC/Home/Downloads/getstarted-optiga-trust-m/optiga-trust-m-1/externals/mbedtls/library/pk.c ****     if( ctx == NULL || ctx->pk_info == NULL )
 823              	 .loc 1 502 0
 824 0004 05D0     	 beq .L94
 825              	 .loc 1 502 0 is_stmt 0 discriminator 1
 826 0006 1A68     	 ldr r2,[r3]
 503://MAC/Home/Downloads/getstarted-optiga-trust-m/optiga-trust-m-1/externals/mbedtls/library/pk.c ****         return( 0 );
 827              	 .loc 1 503 0 is_stmt 1 discriminator 1
 828 0008 101E     	 sub r0,r2,#0
 829              	.LVL79:
 502://MAC/Home/Downloads/getstarted-optiga-trust-m/optiga-trust-m-1/externals/mbedtls/library/pk.c ****         return( 0 );
 830              	 .loc 1 502 0 discriminator 1
 831 000a 02D0     	 beq .L94
 504://MAC/Home/Downloads/getstarted-optiga-trust-m/optiga-trust-m-1/externals/mbedtls/library/pk.c **** 
 505://MAC/Home/Downloads/getstarted-optiga-trust-m/optiga-trust-m-1/externals/mbedtls/library/pk.c ****     return( ctx->pk_info->get_bitlen( ctx->pk_ctx ) );
 832              	 .loc 1 505 0
 833 000c 9268     	 ldr r2,[r2,#8]
 834 000e 5868     	 ldr r0,[r3,#4]
 835 0010 9047     	 blx r2
 836              	.LVL80:
 837              	.L94:
 506://MAC/Home/Downloads/getstarted-optiga-trust-m/optiga-trust-m-1/externals/mbedtls/library/pk.c **** }
 838              	 .loc 1 506 0
 839              	 
 840 0012 08BD     	 pop {r3,pc}
 841              	 .cfi_endproc
 842              	.LFE16:
 844              	 .section .text.mbedtls_pk_debug,"ax",%progbits
 845              	 .align 1
 846              	 .global mbedtls_pk_debug
 847              	 .code 16
 848              	 .thumb_func
 850              	mbedtls_pk_debug:
 851              	.LFB17:
 507://MAC/Home/Downloads/getstarted-optiga-trust-m/optiga-trust-m-1/externals/mbedtls/library/pk.c **** 
 508://MAC/Home/Downloads/getstarted-optiga-trust-m/optiga-trust-m-1/externals/mbedtls/library/pk.c **** /*
 509://MAC/Home/Downloads/getstarted-optiga-trust-m/optiga-trust-m-1/externals/mbedtls/library/pk.c ****  * Export debug information
 510://MAC/Home/Downloads/getstarted-optiga-trust-m/optiga-trust-m-1/externals/mbedtls/library/pk.c ****  */
 511://MAC/Home/Downloads/getstarted-optiga-trust-m/optiga-trust-m-1/externals/mbedtls/library/pk.c **** int mbedtls_pk_debug( const mbedtls_pk_context *ctx, mbedtls_pk_debug_item *items )
 512://MAC/Home/Downloads/getstarted-optiga-trust-m/optiga-trust-m-1/externals/mbedtls/library/pk.c **** {
 852              	 .loc 1 512 0
 853              	 .cfi_startproc
 854              	.LVL81:
 855 0000 08B5     	 push {r3,lr}
 856              	.LCFI16:
 857              	 .cfi_def_cfa_offset 8
 858              	 .cfi_offset 3,-8
 859              	 .cfi_offset 14,-4
 513://MAC/Home/Downloads/getstarted-optiga-trust-m/optiga-trust-m-1/externals/mbedtls/library/pk.c ****     PK_VALIDATE_RET( ctx != NULL );
 514://MAC/Home/Downloads/getstarted-optiga-trust-m/optiga-trust-m-1/externals/mbedtls/library/pk.c ****     if( ctx->pk_info == NULL )
 860              	 .loc 1 514 0
 861 0002 0368     	 ldr r3,[r0]
 862 0004 002B     	 cmp r3,#0
 863 0006 06D0     	 beq .L99
 515://MAC/Home/Downloads/getstarted-optiga-trust-m/optiga-trust-m-1/externals/mbedtls/library/pk.c ****         return( MBEDTLS_ERR_PK_BAD_INPUT_DATA );
 516://MAC/Home/Downloads/getstarted-optiga-trust-m/optiga-trust-m-1/externals/mbedtls/library/pk.c **** 
 517://MAC/Home/Downloads/getstarted-optiga-trust-m/optiga-trust-m-1/externals/mbedtls/library/pk.c ****     if( ctx->pk_info->debug_func == NULL )
 864              	 .loc 1 517 0
 865 0008 DB6A     	 ldr r3,[r3,#44]
 866 000a 002B     	 cmp r3,#0
 867 000c 05D0     	 beq .L100
 518://MAC/Home/Downloads/getstarted-optiga-trust-m/optiga-trust-m-1/externals/mbedtls/library/pk.c ****         return( MBEDTLS_ERR_PK_TYPE_MISMATCH );
 519://MAC/Home/Downloads/getstarted-optiga-trust-m/optiga-trust-m-1/externals/mbedtls/library/pk.c **** 
 520://MAC/Home/Downloads/getstarted-optiga-trust-m/optiga-trust-m-1/externals/mbedtls/library/pk.c ****     ctx->pk_info->debug_func( ctx->pk_ctx, items );
 868              	 .loc 1 520 0
 869 000e 4068     	 ldr r0,[r0,#4]
 870              	.LVL82:
 871 0010 9847     	 blx r3
 872              	.LVL83:
 521://MAC/Home/Downloads/getstarted-optiga-trust-m/optiga-trust-m-1/externals/mbedtls/library/pk.c ****     return( 0 );
 873              	 .loc 1 521 0
 874 0012 0020     	 mov r0,#0
 875 0014 02E0     	 b .L98
 876              	.LVL84:
 877              	.L99:
 515://MAC/Home/Downloads/getstarted-optiga-trust-m/optiga-trust-m-1/externals/mbedtls/library/pk.c ****         return( MBEDTLS_ERR_PK_BAD_INPUT_DATA );
 878              	 .loc 1 515 0
 879 0016 0248     	 ldr r0,.L101
 880              	.LVL85:
 881 0018 00E0     	 b .L98
 882              	.LVL86:
 883              	.L100:
 518://MAC/Home/Downloads/getstarted-optiga-trust-m/optiga-trust-m-1/externals/mbedtls/library/pk.c ****         return( MBEDTLS_ERR_PK_TYPE_MISMATCH );
 884              	 .loc 1 518 0
 885 001a 0248     	 ldr r0,.L101+4
 886              	.LVL87:
 887              	.L98:
 522://MAC/Home/Downloads/getstarted-optiga-trust-m/optiga-trust-m-1/externals/mbedtls/library/pk.c **** }
 888              	 .loc 1 522 0
 889              	 
 890 001c 08BD     	 pop {r3,pc}
 891              	.L102:
 892 001e C046     	 .align 2
 893              	.L101:
 894 0020 80C1FFFF 	 .word -16000
 895 0024 00C1FFFF 	 .word -16128
 896              	 .cfi_endproc
 897              	.LFE17:
 899              	 .section .text.mbedtls_pk_get_name,"ax",%progbits
 900              	 .align 1
 901              	 .global mbedtls_pk_get_name
 902              	 .code 16
 903              	 .thumb_func
 905              	mbedtls_pk_get_name:
 906              	.LFB18:
 523://MAC/Home/Downloads/getstarted-optiga-trust-m/optiga-trust-m-1/externals/mbedtls/library/pk.c **** 
 524://MAC/Home/Downloads/getstarted-optiga-trust-m/optiga-trust-m-1/externals/mbedtls/library/pk.c **** /*
 525://MAC/Home/Downloads/getstarted-optiga-trust-m/optiga-trust-m-1/externals/mbedtls/library/pk.c ****  * Access the PK type name
 526://MAC/Home/Downloads/getstarted-optiga-trust-m/optiga-trust-m-1/externals/mbedtls/library/pk.c ****  */
 527://MAC/Home/Downloads/getstarted-optiga-trust-m/optiga-trust-m-1/externals/mbedtls/library/pk.c **** const char *mbedtls_pk_get_name( const mbedtls_pk_context *ctx )
 528://MAC/Home/Downloads/getstarted-optiga-trust-m/optiga-trust-m-1/externals/mbedtls/library/pk.c **** {
 907              	 .loc 1 528 0
 908              	 .cfi_startproc
 909              	.LVL88:
 529://MAC/Home/Downloads/getstarted-optiga-trust-m/optiga-trust-m-1/externals/mbedtls/library/pk.c ****     if( ctx == NULL || ctx->pk_info == NULL )
 530://MAC/Home/Downloads/getstarted-optiga-trust-m/optiga-trust-m-1/externals/mbedtls/library/pk.c ****         return( "invalid PK" );
 910              	 .loc 1 530 0
 911 0000 044B     	 ldr r3,.L107
 529://MAC/Home/Downloads/getstarted-optiga-trust-m/optiga-trust-m-1/externals/mbedtls/library/pk.c ****     if( ctx == NULL || ctx->pk_info == NULL )
 912              	 .loc 1 529 0
 913 0002 0028     	 cmp r0,#0
 914 0004 03D0     	 beq .L104
 529://MAC/Home/Downloads/getstarted-optiga-trust-m/optiga-trust-m-1/externals/mbedtls/library/pk.c ****     if( ctx == NULL || ctx->pk_info == NULL )
 915              	 .loc 1 529 0 is_stmt 0 discriminator 1
 916 0006 0268     	 ldr r2,[r0]
 917 0008 002A     	 cmp r2,#0
 918 000a 00D0     	 beq .L104
 531://MAC/Home/Downloads/getstarted-optiga-trust-m/optiga-trust-m-1/externals/mbedtls/library/pk.c **** 
 532://MAC/Home/Downloads/getstarted-optiga-trust-m/optiga-trust-m-1/externals/mbedtls/library/pk.c ****     return( ctx->pk_info->name );
 919              	 .loc 1 532 0 is_stmt 1
 920 000c 5368     	 ldr r3,[r2,#4]
 921              	.L104:
 533://MAC/Home/Downloads/getstarted-optiga-trust-m/optiga-trust-m-1/externals/mbedtls/library/pk.c **** }
 922              	 .loc 1 533 0
 923 000e 181C     	 mov r0,r3
 924              	.LVL89:
 925              	 
 926 0010 7047     	 bx lr
 927              	.L108:
 928 0012 C046     	 .align 2
 929              	.L107:
 930 0014 00000000 	 .word .LC2
 931              	 .cfi_endproc
 932              	.LFE18:
 934              	 .section .text.mbedtls_pk_get_type,"ax",%progbits
 935              	 .align 1
 936              	 .global mbedtls_pk_get_type
 937              	 .code 16
 938              	 .thumb_func
 940              	mbedtls_pk_get_type:
 941              	.LFB19:
 534://MAC/Home/Downloads/getstarted-optiga-trust-m/optiga-trust-m-1/externals/mbedtls/library/pk.c **** 
 535://MAC/Home/Downloads/getstarted-optiga-trust-m/optiga-trust-m-1/externals/mbedtls/library/pk.c **** /*
 536://MAC/Home/Downloads/getstarted-optiga-trust-m/optiga-trust-m-1/externals/mbedtls/library/pk.c ****  * Access the PK type
 537://MAC/Home/Downloads/getstarted-optiga-trust-m/optiga-trust-m-1/externals/mbedtls/library/pk.c ****  */
 538://MAC/Home/Downloads/getstarted-optiga-trust-m/optiga-trust-m-1/externals/mbedtls/library/pk.c **** mbedtls_pk_type_t mbedtls_pk_get_type( const mbedtls_pk_context *ctx )
 539://MAC/Home/Downloads/getstarted-optiga-trust-m/optiga-trust-m-1/externals/mbedtls/library/pk.c **** {
 942              	 .loc 1 539 0
 943              	 .cfi_startproc
 944              	.LVL90:
 540://MAC/Home/Downloads/getstarted-optiga-trust-m/optiga-trust-m-1/externals/mbedtls/library/pk.c ****     if( ctx == NULL || ctx->pk_info == NULL )
 541://MAC/Home/Downloads/getstarted-optiga-trust-m/optiga-trust-m-1/externals/mbedtls/library/pk.c ****         return( MBEDTLS_PK_NONE );
 945              	 .loc 1 541 0
 946 0000 031E     	 sub r3,r0,#0
 540://MAC/Home/Downloads/getstarted-optiga-trust-m/optiga-trust-m-1/externals/mbedtls/library/pk.c ****     if( ctx == NULL || ctx->pk_info == NULL )
 947              	 .loc 1 540 0
 948 0002 03D0     	 beq .L110
 540://MAC/Home/Downloads/getstarted-optiga-trust-m/optiga-trust-m-1/externals/mbedtls/library/pk.c ****     if( ctx == NULL || ctx->pk_info == NULL )
 949              	 .loc 1 540 0 is_stmt 0 discriminator 1
 950 0004 0268     	 ldr r2,[r0]
 951              	 .loc 1 541 0 is_stmt 1 discriminator 1
 952 0006 131E     	 sub r3,r2,#0
 540://MAC/Home/Downloads/getstarted-optiga-trust-m/optiga-trust-m-1/externals/mbedtls/library/pk.c ****     if( ctx == NULL || ctx->pk_info == NULL )
 953              	 .loc 1 540 0 discriminator 1
 954 0008 00D0     	 beq .L110
 542://MAC/Home/Downloads/getstarted-optiga-trust-m/optiga-trust-m-1/externals/mbedtls/library/pk.c **** 
 543://MAC/Home/Downloads/getstarted-optiga-trust-m/optiga-trust-m-1/externals/mbedtls/library/pk.c ****     return( ctx->pk_info->type );
 955              	 .loc 1 543 0
 956 000a 1378     	 ldrb r3,[r2]
 957              	.L110:
 544://MAC/Home/Downloads/getstarted-optiga-trust-m/optiga-trust-m-1/externals/mbedtls/library/pk.c **** }
 958              	 .loc 1 544 0
 959 000c 181C     	 mov r0,r3
 960              	.LVL91:
 961              	 
 962 000e 7047     	 bx lr
 963              	 .cfi_endproc
 964              	.LFE19:
 966              	 .section .rodata.str1.1,"aMS",%progbits,1
 967              	.LC2:
 968 0000 696E7661 	 .ascii "invalid PK\000"
 968      6C696420 
 968      504B00
 969              	 .text
 970              	.Letext0:
 971              	 .file 2 "c:\\dave_4-4-2_64bit\\dave-ide-4.4.2-64bit\\eclipse\\arm-gcc-49\\lib\\gcc\\arm-none-eabi\\4.9.3\\include\\stddef.h"
 972              	 .file 3 "//MAC/Home/Downloads/getstarted-optiga-trust-m/optiga-trust-m-1/externals/mbedtls/include/mbedtls/md.h"
 973              	 .file 4 "//MAC/Home/Downloads/getstarted-optiga-trust-m/optiga-trust-m-1/externals/mbedtls/include/mbedtls/pk.h"
 974              	 .file 5 "//MAC/Home/Downloads/getstarted-optiga-trust-m/optiga-trust-m-1/externals/mbedtls/include/mbedtls/pk_internal.h"
 975              	 .file 6 "//MAC/Home/Downloads/getstarted-optiga-trust-m/optiga-trust-m-1/externals/mbedtls/include/mbedtls/platform_util.h"