   1              	 .cpu cortex-m0
   2              	 .fpu softvfp
   3              	 .eabi_attribute 20,1
   4              	 .eabi_attribute 21,1
   5              	 .eabi_attribute 23,3
   6              	 .eabi_attribute 24,1
   7              	 .eabi_attribute 25,1
   8              	 .eabi_attribute 26,1
   9              	 .eabi_attribute 30,4
  10              	 .eabi_attribute 34,0
  11              	 .eabi_attribute 18,4
  12              	 .code 16
  13              	 .file "pk_wrap.c"
  14              	 .text
  15              	.Ltext0:
  16              	 .cfi_sections .debug_frame
  17              	 .section .text.eckey_can_do,"ax",%progbits
  18              	 .align 1
  19              	 .code 16
  20              	 .thumb_func
  22              	eckey_can_do:
  23              	.LFB2:
  24              	 .file 1 "C:/Workspace/DAVE-4.4.2-64Bit/optiga-trust-m/externals/mbedtls/library/pk_wrap.c"
   1:C:/Workspace/DAVE-4.4.2-64Bit/optiga-trust-m/externals/mbedtls/library\pk_wrap.c **** /*
   2:C:/Workspace/DAVE-4.4.2-64Bit/optiga-trust-m/externals/mbedtls/library\pk_wrap.c ****  *  Public Key abstraction layer: wrapper functions
   3:C:/Workspace/DAVE-4.4.2-64Bit/optiga-trust-m/externals/mbedtls/library\pk_wrap.c ****  *
   4:C:/Workspace/DAVE-4.4.2-64Bit/optiga-trust-m/externals/mbedtls/library\pk_wrap.c ****  *  Copyright (C) 2006-2015, ARM Limited, All Rights Reserved
   5:C:/Workspace/DAVE-4.4.2-64Bit/optiga-trust-m/externals/mbedtls/library\pk_wrap.c ****  *  SPDX-License-Identifier: Apache-2.0
   6:C:/Workspace/DAVE-4.4.2-64Bit/optiga-trust-m/externals/mbedtls/library\pk_wrap.c ****  *
   7:C:/Workspace/DAVE-4.4.2-64Bit/optiga-trust-m/externals/mbedtls/library\pk_wrap.c ****  *  Licensed under the Apache License, Version 2.0 (the "License"); you may
   8:C:/Workspace/DAVE-4.4.2-64Bit/optiga-trust-m/externals/mbedtls/library\pk_wrap.c ****  *  not use this file except in compliance with the License.
   9:C:/Workspace/DAVE-4.4.2-64Bit/optiga-trust-m/externals/mbedtls/library\pk_wrap.c ****  *  You may obtain a copy of the License at
  10:C:/Workspace/DAVE-4.4.2-64Bit/optiga-trust-m/externals/mbedtls/library\pk_wrap.c ****  *
  11:C:/Workspace/DAVE-4.4.2-64Bit/optiga-trust-m/externals/mbedtls/library\pk_wrap.c ****  *  http://www.apache.org/licenses/LICENSE-2.0
  12:C:/Workspace/DAVE-4.4.2-64Bit/optiga-trust-m/externals/mbedtls/library\pk_wrap.c ****  *
  13:C:/Workspace/DAVE-4.4.2-64Bit/optiga-trust-m/externals/mbedtls/library\pk_wrap.c ****  *  Unless required by applicable law or agreed to in writing, software
  14:C:/Workspace/DAVE-4.4.2-64Bit/optiga-trust-m/externals/mbedtls/library\pk_wrap.c ****  *  distributed under the License is distributed on an "AS IS" BASIS, WITHOUT
  15:C:/Workspace/DAVE-4.4.2-64Bit/optiga-trust-m/externals/mbedtls/library\pk_wrap.c ****  *  WARRANTIES OR CONDITIONS OF ANY KIND, either express or implied.
  16:C:/Workspace/DAVE-4.4.2-64Bit/optiga-trust-m/externals/mbedtls/library\pk_wrap.c ****  *  See the License for the specific language governing permissions and
  17:C:/Workspace/DAVE-4.4.2-64Bit/optiga-trust-m/externals/mbedtls/library\pk_wrap.c ****  *  limitations under the License.
  18:C:/Workspace/DAVE-4.4.2-64Bit/optiga-trust-m/externals/mbedtls/library\pk_wrap.c ****  *
  19:C:/Workspace/DAVE-4.4.2-64Bit/optiga-trust-m/externals/mbedtls/library\pk_wrap.c ****  *  This file is part of mbed TLS (https://tls.mbed.org)
  20:C:/Workspace/DAVE-4.4.2-64Bit/optiga-trust-m/externals/mbedtls/library\pk_wrap.c ****  */
  21:C:/Workspace/DAVE-4.4.2-64Bit/optiga-trust-m/externals/mbedtls/library\pk_wrap.c **** 
  22:C:/Workspace/DAVE-4.4.2-64Bit/optiga-trust-m/externals/mbedtls/library\pk_wrap.c **** #if !defined(MBEDTLS_CONFIG_FILE)
  23:C:/Workspace/DAVE-4.4.2-64Bit/optiga-trust-m/externals/mbedtls/library\pk_wrap.c **** #include "mbedtls/config.h"
  24:C:/Workspace/DAVE-4.4.2-64Bit/optiga-trust-m/externals/mbedtls/library\pk_wrap.c **** #else
  25:C:/Workspace/DAVE-4.4.2-64Bit/optiga-trust-m/externals/mbedtls/library\pk_wrap.c **** #include MBEDTLS_CONFIG_FILE
  26:C:/Workspace/DAVE-4.4.2-64Bit/optiga-trust-m/externals/mbedtls/library\pk_wrap.c **** #endif
  27:C:/Workspace/DAVE-4.4.2-64Bit/optiga-trust-m/externals/mbedtls/library\pk_wrap.c **** 
  28:C:/Workspace/DAVE-4.4.2-64Bit/optiga-trust-m/externals/mbedtls/library\pk_wrap.c **** #if defined(MBEDTLS_PK_C)
  29:C:/Workspace/DAVE-4.4.2-64Bit/optiga-trust-m/externals/mbedtls/library\pk_wrap.c **** #include "mbedtls/pk_internal.h"
  30:C:/Workspace/DAVE-4.4.2-64Bit/optiga-trust-m/externals/mbedtls/library\pk_wrap.c **** 
  31:C:/Workspace/DAVE-4.4.2-64Bit/optiga-trust-m/externals/mbedtls/library\pk_wrap.c **** /* Even if RSA not activated, for the sake of RSA-alt */
  32:C:/Workspace/DAVE-4.4.2-64Bit/optiga-trust-m/externals/mbedtls/library\pk_wrap.c **** #include "mbedtls/rsa.h"
  33:C:/Workspace/DAVE-4.4.2-64Bit/optiga-trust-m/externals/mbedtls/library\pk_wrap.c **** 
  34:C:/Workspace/DAVE-4.4.2-64Bit/optiga-trust-m/externals/mbedtls/library\pk_wrap.c **** #include <string.h>
  35:C:/Workspace/DAVE-4.4.2-64Bit/optiga-trust-m/externals/mbedtls/library\pk_wrap.c **** 
  36:C:/Workspace/DAVE-4.4.2-64Bit/optiga-trust-m/externals/mbedtls/library\pk_wrap.c **** #if defined(MBEDTLS_ECP_C)
  37:C:/Workspace/DAVE-4.4.2-64Bit/optiga-trust-m/externals/mbedtls/library\pk_wrap.c **** #include "mbedtls/ecp.h"
  38:C:/Workspace/DAVE-4.4.2-64Bit/optiga-trust-m/externals/mbedtls/library\pk_wrap.c **** #endif
  39:C:/Workspace/DAVE-4.4.2-64Bit/optiga-trust-m/externals/mbedtls/library\pk_wrap.c **** 
  40:C:/Workspace/DAVE-4.4.2-64Bit/optiga-trust-m/externals/mbedtls/library\pk_wrap.c **** #if defined(MBEDTLS_ECDSA_C)
  41:C:/Workspace/DAVE-4.4.2-64Bit/optiga-trust-m/externals/mbedtls/library\pk_wrap.c **** #include "mbedtls/ecdsa.h"
  42:C:/Workspace/DAVE-4.4.2-64Bit/optiga-trust-m/externals/mbedtls/library\pk_wrap.c **** #endif
  43:C:/Workspace/DAVE-4.4.2-64Bit/optiga-trust-m/externals/mbedtls/library\pk_wrap.c **** 
  44:C:/Workspace/DAVE-4.4.2-64Bit/optiga-trust-m/externals/mbedtls/library\pk_wrap.c **** #if defined(MBEDTLS_PK_RSA_ALT_SUPPORT)
  45:C:/Workspace/DAVE-4.4.2-64Bit/optiga-trust-m/externals/mbedtls/library\pk_wrap.c **** #include "mbedtls/platform_util.h"
  46:C:/Workspace/DAVE-4.4.2-64Bit/optiga-trust-m/externals/mbedtls/library\pk_wrap.c **** #endif
  47:C:/Workspace/DAVE-4.4.2-64Bit/optiga-trust-m/externals/mbedtls/library\pk_wrap.c **** 
  48:C:/Workspace/DAVE-4.4.2-64Bit/optiga-trust-m/externals/mbedtls/library\pk_wrap.c **** #if defined(MBEDTLS_PLATFORM_C)
  49:C:/Workspace/DAVE-4.4.2-64Bit/optiga-trust-m/externals/mbedtls/library\pk_wrap.c **** #include "mbedtls/platform.h"
  50:C:/Workspace/DAVE-4.4.2-64Bit/optiga-trust-m/externals/mbedtls/library\pk_wrap.c **** #else
  51:C:/Workspace/DAVE-4.4.2-64Bit/optiga-trust-m/externals/mbedtls/library\pk_wrap.c **** #include <stdlib.h>
  52:C:/Workspace/DAVE-4.4.2-64Bit/optiga-trust-m/externals/mbedtls/library\pk_wrap.c **** #define mbedtls_calloc    calloc
  53:C:/Workspace/DAVE-4.4.2-64Bit/optiga-trust-m/externals/mbedtls/library\pk_wrap.c **** #define mbedtls_free       free
  54:C:/Workspace/DAVE-4.4.2-64Bit/optiga-trust-m/externals/mbedtls/library\pk_wrap.c **** #endif
  55:C:/Workspace/DAVE-4.4.2-64Bit/optiga-trust-m/externals/mbedtls/library\pk_wrap.c **** 
  56:C:/Workspace/DAVE-4.4.2-64Bit/optiga-trust-m/externals/mbedtls/library\pk_wrap.c **** #include <limits.h>
  57:C:/Workspace/DAVE-4.4.2-64Bit/optiga-trust-m/externals/mbedtls/library\pk_wrap.c **** #include <stdint.h>
  58:C:/Workspace/DAVE-4.4.2-64Bit/optiga-trust-m/externals/mbedtls/library\pk_wrap.c **** 
  59:C:/Workspace/DAVE-4.4.2-64Bit/optiga-trust-m/externals/mbedtls/library\pk_wrap.c **** #if defined(MBEDTLS_RSA_C)
  60:C:/Workspace/DAVE-4.4.2-64Bit/optiga-trust-m/externals/mbedtls/library\pk_wrap.c **** static int rsa_can_do( mbedtls_pk_type_t type )
  61:C:/Workspace/DAVE-4.4.2-64Bit/optiga-trust-m/externals/mbedtls/library\pk_wrap.c **** {
  62:C:/Workspace/DAVE-4.4.2-64Bit/optiga-trust-m/externals/mbedtls/library\pk_wrap.c ****     return( type == MBEDTLS_PK_RSA ||
  63:C:/Workspace/DAVE-4.4.2-64Bit/optiga-trust-m/externals/mbedtls/library\pk_wrap.c ****             type == MBEDTLS_PK_RSASSA_PSS );
  64:C:/Workspace/DAVE-4.4.2-64Bit/optiga-trust-m/externals/mbedtls/library\pk_wrap.c **** }
  65:C:/Workspace/DAVE-4.4.2-64Bit/optiga-trust-m/externals/mbedtls/library\pk_wrap.c **** 
  66:C:/Workspace/DAVE-4.4.2-64Bit/optiga-trust-m/externals/mbedtls/library\pk_wrap.c **** static size_t rsa_get_bitlen( const void *ctx )
  67:C:/Workspace/DAVE-4.4.2-64Bit/optiga-trust-m/externals/mbedtls/library\pk_wrap.c **** {
  68:C:/Workspace/DAVE-4.4.2-64Bit/optiga-trust-m/externals/mbedtls/library\pk_wrap.c ****     const mbedtls_rsa_context * rsa = (const mbedtls_rsa_context *) ctx;
  69:C:/Workspace/DAVE-4.4.2-64Bit/optiga-trust-m/externals/mbedtls/library\pk_wrap.c ****     return( 8 * mbedtls_rsa_get_len( rsa ) );
  70:C:/Workspace/DAVE-4.4.2-64Bit/optiga-trust-m/externals/mbedtls/library\pk_wrap.c **** }
  71:C:/Workspace/DAVE-4.4.2-64Bit/optiga-trust-m/externals/mbedtls/library\pk_wrap.c **** 
  72:C:/Workspace/DAVE-4.4.2-64Bit/optiga-trust-m/externals/mbedtls/library\pk_wrap.c **** static int rsa_verify_wrap( void *ctx, mbedtls_md_type_t md_alg,
  73:C:/Workspace/DAVE-4.4.2-64Bit/optiga-trust-m/externals/mbedtls/library\pk_wrap.c ****                    const unsigned char *hash, size_t hash_len,
  74:C:/Workspace/DAVE-4.4.2-64Bit/optiga-trust-m/externals/mbedtls/library\pk_wrap.c ****                    const unsigned char *sig, size_t sig_len )
  75:C:/Workspace/DAVE-4.4.2-64Bit/optiga-trust-m/externals/mbedtls/library\pk_wrap.c **** {
  76:C:/Workspace/DAVE-4.4.2-64Bit/optiga-trust-m/externals/mbedtls/library\pk_wrap.c ****     int ret;
  77:C:/Workspace/DAVE-4.4.2-64Bit/optiga-trust-m/externals/mbedtls/library\pk_wrap.c ****     mbedtls_rsa_context * rsa = (mbedtls_rsa_context *) ctx;
  78:C:/Workspace/DAVE-4.4.2-64Bit/optiga-trust-m/externals/mbedtls/library\pk_wrap.c ****     size_t rsa_len = mbedtls_rsa_get_len( rsa );
  79:C:/Workspace/DAVE-4.4.2-64Bit/optiga-trust-m/externals/mbedtls/library\pk_wrap.c **** 
  80:C:/Workspace/DAVE-4.4.2-64Bit/optiga-trust-m/externals/mbedtls/library\pk_wrap.c **** #if SIZE_MAX > UINT_MAX
  81:C:/Workspace/DAVE-4.4.2-64Bit/optiga-trust-m/externals/mbedtls/library\pk_wrap.c ****     if( md_alg == MBEDTLS_MD_NONE && UINT_MAX < hash_len )
  82:C:/Workspace/DAVE-4.4.2-64Bit/optiga-trust-m/externals/mbedtls/library\pk_wrap.c ****         return( MBEDTLS_ERR_PK_BAD_INPUT_DATA );
  83:C:/Workspace/DAVE-4.4.2-64Bit/optiga-trust-m/externals/mbedtls/library\pk_wrap.c **** #endif /* SIZE_MAX > UINT_MAX */
  84:C:/Workspace/DAVE-4.4.2-64Bit/optiga-trust-m/externals/mbedtls/library\pk_wrap.c **** 
  85:C:/Workspace/DAVE-4.4.2-64Bit/optiga-trust-m/externals/mbedtls/library\pk_wrap.c ****     if( sig_len < rsa_len )
  86:C:/Workspace/DAVE-4.4.2-64Bit/optiga-trust-m/externals/mbedtls/library\pk_wrap.c ****         return( MBEDTLS_ERR_RSA_VERIFY_FAILED );
  87:C:/Workspace/DAVE-4.4.2-64Bit/optiga-trust-m/externals/mbedtls/library\pk_wrap.c **** 
  88:C:/Workspace/DAVE-4.4.2-64Bit/optiga-trust-m/externals/mbedtls/library\pk_wrap.c ****     if( ( ret = mbedtls_rsa_pkcs1_verify( rsa, NULL, NULL,
  89:C:/Workspace/DAVE-4.4.2-64Bit/optiga-trust-m/externals/mbedtls/library\pk_wrap.c ****                                   MBEDTLS_RSA_PUBLIC, md_alg,
  90:C:/Workspace/DAVE-4.4.2-64Bit/optiga-trust-m/externals/mbedtls/library\pk_wrap.c ****                                   (unsigned int) hash_len, hash, sig ) ) != 0 )
  91:C:/Workspace/DAVE-4.4.2-64Bit/optiga-trust-m/externals/mbedtls/library\pk_wrap.c ****         return( ret );
  92:C:/Workspace/DAVE-4.4.2-64Bit/optiga-trust-m/externals/mbedtls/library\pk_wrap.c **** 
  93:C:/Workspace/DAVE-4.4.2-64Bit/optiga-trust-m/externals/mbedtls/library\pk_wrap.c ****     /* The buffer contains a valid signature followed by extra data.
  94:C:/Workspace/DAVE-4.4.2-64Bit/optiga-trust-m/externals/mbedtls/library\pk_wrap.c ****      * We have a special error code for that so that so that callers can
  95:C:/Workspace/DAVE-4.4.2-64Bit/optiga-trust-m/externals/mbedtls/library\pk_wrap.c ****      * use mbedtls_pk_verify() to check "Does the buffer start with a
  96:C:/Workspace/DAVE-4.4.2-64Bit/optiga-trust-m/externals/mbedtls/library\pk_wrap.c ****      * valid signature?" and not just "Does the buffer contain a valid
  97:C:/Workspace/DAVE-4.4.2-64Bit/optiga-trust-m/externals/mbedtls/library\pk_wrap.c ****      * signature?". */
  98:C:/Workspace/DAVE-4.4.2-64Bit/optiga-trust-m/externals/mbedtls/library\pk_wrap.c ****     if( sig_len > rsa_len )
  99:C:/Workspace/DAVE-4.4.2-64Bit/optiga-trust-m/externals/mbedtls/library\pk_wrap.c ****         return( MBEDTLS_ERR_PK_SIG_LEN_MISMATCH );
 100:C:/Workspace/DAVE-4.4.2-64Bit/optiga-trust-m/externals/mbedtls/library\pk_wrap.c **** 
 101:C:/Workspace/DAVE-4.4.2-64Bit/optiga-trust-m/externals/mbedtls/library\pk_wrap.c ****     return( 0 );
 102:C:/Workspace/DAVE-4.4.2-64Bit/optiga-trust-m/externals/mbedtls/library\pk_wrap.c **** }
 103:C:/Workspace/DAVE-4.4.2-64Bit/optiga-trust-m/externals/mbedtls/library\pk_wrap.c **** 
 104:C:/Workspace/DAVE-4.4.2-64Bit/optiga-trust-m/externals/mbedtls/library\pk_wrap.c **** static int rsa_sign_wrap( void *ctx, mbedtls_md_type_t md_alg,
 105:C:/Workspace/DAVE-4.4.2-64Bit/optiga-trust-m/externals/mbedtls/library\pk_wrap.c ****                    const unsigned char *hash, size_t hash_len,
 106:C:/Workspace/DAVE-4.4.2-64Bit/optiga-trust-m/externals/mbedtls/library\pk_wrap.c ****                    unsigned char *sig, size_t *sig_len,
 107:C:/Workspace/DAVE-4.4.2-64Bit/optiga-trust-m/externals/mbedtls/library\pk_wrap.c ****                    int (*f_rng)(void *, unsigned char *, size_t), void *p_rng )
 108:C:/Workspace/DAVE-4.4.2-64Bit/optiga-trust-m/externals/mbedtls/library\pk_wrap.c **** {
 109:C:/Workspace/DAVE-4.4.2-64Bit/optiga-trust-m/externals/mbedtls/library\pk_wrap.c ****     mbedtls_rsa_context * rsa = (mbedtls_rsa_context *) ctx;
 110:C:/Workspace/DAVE-4.4.2-64Bit/optiga-trust-m/externals/mbedtls/library\pk_wrap.c **** 
 111:C:/Workspace/DAVE-4.4.2-64Bit/optiga-trust-m/externals/mbedtls/library\pk_wrap.c **** #if SIZE_MAX > UINT_MAX
 112:C:/Workspace/DAVE-4.4.2-64Bit/optiga-trust-m/externals/mbedtls/library\pk_wrap.c ****     if( md_alg == MBEDTLS_MD_NONE && UINT_MAX < hash_len )
 113:C:/Workspace/DAVE-4.4.2-64Bit/optiga-trust-m/externals/mbedtls/library\pk_wrap.c ****         return( MBEDTLS_ERR_PK_BAD_INPUT_DATA );
 114:C:/Workspace/DAVE-4.4.2-64Bit/optiga-trust-m/externals/mbedtls/library\pk_wrap.c **** #endif /* SIZE_MAX > UINT_MAX */
 115:C:/Workspace/DAVE-4.4.2-64Bit/optiga-trust-m/externals/mbedtls/library\pk_wrap.c **** 
 116:C:/Workspace/DAVE-4.4.2-64Bit/optiga-trust-m/externals/mbedtls/library\pk_wrap.c ****     *sig_len = mbedtls_rsa_get_len( rsa );
 117:C:/Workspace/DAVE-4.4.2-64Bit/optiga-trust-m/externals/mbedtls/library\pk_wrap.c **** 
 118:C:/Workspace/DAVE-4.4.2-64Bit/optiga-trust-m/externals/mbedtls/library\pk_wrap.c ****     return( mbedtls_rsa_pkcs1_sign( rsa, f_rng, p_rng, MBEDTLS_RSA_PRIVATE,
 119:C:/Workspace/DAVE-4.4.2-64Bit/optiga-trust-m/externals/mbedtls/library\pk_wrap.c ****                 md_alg, (unsigned int) hash_len, hash, sig ) );
 120:C:/Workspace/DAVE-4.4.2-64Bit/optiga-trust-m/externals/mbedtls/library\pk_wrap.c **** }
 121:C:/Workspace/DAVE-4.4.2-64Bit/optiga-trust-m/externals/mbedtls/library\pk_wrap.c **** 
 122:C:/Workspace/DAVE-4.4.2-64Bit/optiga-trust-m/externals/mbedtls/library\pk_wrap.c **** static int rsa_decrypt_wrap( void *ctx,
 123:C:/Workspace/DAVE-4.4.2-64Bit/optiga-trust-m/externals/mbedtls/library\pk_wrap.c ****                     const unsigned char *input, size_t ilen,
 124:C:/Workspace/DAVE-4.4.2-64Bit/optiga-trust-m/externals/mbedtls/library\pk_wrap.c ****                     unsigned char *output, size_t *olen, size_t osize,
 125:C:/Workspace/DAVE-4.4.2-64Bit/optiga-trust-m/externals/mbedtls/library\pk_wrap.c ****                     int (*f_rng)(void *, unsigned char *, size_t), void *p_rng )
 126:C:/Workspace/DAVE-4.4.2-64Bit/optiga-trust-m/externals/mbedtls/library\pk_wrap.c **** {
 127:C:/Workspace/DAVE-4.4.2-64Bit/optiga-trust-m/externals/mbedtls/library\pk_wrap.c ****     mbedtls_rsa_context * rsa = (mbedtls_rsa_context *) ctx;
 128:C:/Workspace/DAVE-4.4.2-64Bit/optiga-trust-m/externals/mbedtls/library\pk_wrap.c **** 
 129:C:/Workspace/DAVE-4.4.2-64Bit/optiga-trust-m/externals/mbedtls/library\pk_wrap.c ****     if( ilen != mbedtls_rsa_get_len( rsa ) )
 130:C:/Workspace/DAVE-4.4.2-64Bit/optiga-trust-m/externals/mbedtls/library\pk_wrap.c ****         return( MBEDTLS_ERR_RSA_BAD_INPUT_DATA );
 131:C:/Workspace/DAVE-4.4.2-64Bit/optiga-trust-m/externals/mbedtls/library\pk_wrap.c **** 
 132:C:/Workspace/DAVE-4.4.2-64Bit/optiga-trust-m/externals/mbedtls/library\pk_wrap.c ****     return( mbedtls_rsa_pkcs1_decrypt( rsa, f_rng, p_rng,
 133:C:/Workspace/DAVE-4.4.2-64Bit/optiga-trust-m/externals/mbedtls/library\pk_wrap.c ****                 MBEDTLS_RSA_PRIVATE, olen, input, output, osize ) );
 134:C:/Workspace/DAVE-4.4.2-64Bit/optiga-trust-m/externals/mbedtls/library\pk_wrap.c **** }
 135:C:/Workspace/DAVE-4.4.2-64Bit/optiga-trust-m/externals/mbedtls/library\pk_wrap.c **** 
 136:C:/Workspace/DAVE-4.4.2-64Bit/optiga-trust-m/externals/mbedtls/library\pk_wrap.c **** static int rsa_encrypt_wrap( void *ctx,
 137:C:/Workspace/DAVE-4.4.2-64Bit/optiga-trust-m/externals/mbedtls/library\pk_wrap.c ****                     const unsigned char *input, size_t ilen,
 138:C:/Workspace/DAVE-4.4.2-64Bit/optiga-trust-m/externals/mbedtls/library\pk_wrap.c ****                     unsigned char *output, size_t *olen, size_t osize,
 139:C:/Workspace/DAVE-4.4.2-64Bit/optiga-trust-m/externals/mbedtls/library\pk_wrap.c ****                     int (*f_rng)(void *, unsigned char *, size_t), void *p_rng )
 140:C:/Workspace/DAVE-4.4.2-64Bit/optiga-trust-m/externals/mbedtls/library\pk_wrap.c **** {
 141:C:/Workspace/DAVE-4.4.2-64Bit/optiga-trust-m/externals/mbedtls/library\pk_wrap.c ****     mbedtls_rsa_context * rsa = (mbedtls_rsa_context *) ctx;
 142:C:/Workspace/DAVE-4.4.2-64Bit/optiga-trust-m/externals/mbedtls/library\pk_wrap.c ****     *olen = mbedtls_rsa_get_len( rsa );
 143:C:/Workspace/DAVE-4.4.2-64Bit/optiga-trust-m/externals/mbedtls/library\pk_wrap.c **** 
 144:C:/Workspace/DAVE-4.4.2-64Bit/optiga-trust-m/externals/mbedtls/library\pk_wrap.c ****     if( *olen > osize )
 145:C:/Workspace/DAVE-4.4.2-64Bit/optiga-trust-m/externals/mbedtls/library\pk_wrap.c ****         return( MBEDTLS_ERR_RSA_OUTPUT_TOO_LARGE );
 146:C:/Workspace/DAVE-4.4.2-64Bit/optiga-trust-m/externals/mbedtls/library\pk_wrap.c **** 
 147:C:/Workspace/DAVE-4.4.2-64Bit/optiga-trust-m/externals/mbedtls/library\pk_wrap.c ****     return( mbedtls_rsa_pkcs1_encrypt( rsa, f_rng, p_rng, MBEDTLS_RSA_PUBLIC,
 148:C:/Workspace/DAVE-4.4.2-64Bit/optiga-trust-m/externals/mbedtls/library\pk_wrap.c ****                                        ilen, input, output ) );
 149:C:/Workspace/DAVE-4.4.2-64Bit/optiga-trust-m/externals/mbedtls/library\pk_wrap.c **** }
 150:C:/Workspace/DAVE-4.4.2-64Bit/optiga-trust-m/externals/mbedtls/library\pk_wrap.c **** 
 151:C:/Workspace/DAVE-4.4.2-64Bit/optiga-trust-m/externals/mbedtls/library\pk_wrap.c **** static int rsa_check_pair_wrap( const void *pub, const void *prv )
 152:C:/Workspace/DAVE-4.4.2-64Bit/optiga-trust-m/externals/mbedtls/library\pk_wrap.c **** {
 153:C:/Workspace/DAVE-4.4.2-64Bit/optiga-trust-m/externals/mbedtls/library\pk_wrap.c ****     return( mbedtls_rsa_check_pub_priv( (const mbedtls_rsa_context *) pub,
 154:C:/Workspace/DAVE-4.4.2-64Bit/optiga-trust-m/externals/mbedtls/library\pk_wrap.c ****                                 (const mbedtls_rsa_context *) prv ) );
 155:C:/Workspace/DAVE-4.4.2-64Bit/optiga-trust-m/externals/mbedtls/library\pk_wrap.c **** }
 156:C:/Workspace/DAVE-4.4.2-64Bit/optiga-trust-m/externals/mbedtls/library\pk_wrap.c **** 
 157:C:/Workspace/DAVE-4.4.2-64Bit/optiga-trust-m/externals/mbedtls/library\pk_wrap.c **** static void *rsa_alloc_wrap( void )
 158:C:/Workspace/DAVE-4.4.2-64Bit/optiga-trust-m/externals/mbedtls/library\pk_wrap.c **** {
 159:C:/Workspace/DAVE-4.4.2-64Bit/optiga-trust-m/externals/mbedtls/library\pk_wrap.c ****     void *ctx = mbedtls_calloc( 1, sizeof( mbedtls_rsa_context ) );
 160:C:/Workspace/DAVE-4.4.2-64Bit/optiga-trust-m/externals/mbedtls/library\pk_wrap.c **** 
 161:C:/Workspace/DAVE-4.4.2-64Bit/optiga-trust-m/externals/mbedtls/library\pk_wrap.c ****     if( ctx != NULL )
 162:C:/Workspace/DAVE-4.4.2-64Bit/optiga-trust-m/externals/mbedtls/library\pk_wrap.c ****         mbedtls_rsa_init( (mbedtls_rsa_context *) ctx, 0, 0 );
 163:C:/Workspace/DAVE-4.4.2-64Bit/optiga-trust-m/externals/mbedtls/library\pk_wrap.c **** 
 164:C:/Workspace/DAVE-4.4.2-64Bit/optiga-trust-m/externals/mbedtls/library\pk_wrap.c ****     return( ctx );
 165:C:/Workspace/DAVE-4.4.2-64Bit/optiga-trust-m/externals/mbedtls/library\pk_wrap.c **** }
 166:C:/Workspace/DAVE-4.4.2-64Bit/optiga-trust-m/externals/mbedtls/library\pk_wrap.c **** 
 167:C:/Workspace/DAVE-4.4.2-64Bit/optiga-trust-m/externals/mbedtls/library\pk_wrap.c **** static void rsa_free_wrap( void *ctx )
 168:C:/Workspace/DAVE-4.4.2-64Bit/optiga-trust-m/externals/mbedtls/library\pk_wrap.c **** {
 169:C:/Workspace/DAVE-4.4.2-64Bit/optiga-trust-m/externals/mbedtls/library\pk_wrap.c ****     mbedtls_rsa_free( (mbedtls_rsa_context *) ctx );
 170:C:/Workspace/DAVE-4.4.2-64Bit/optiga-trust-m/externals/mbedtls/library\pk_wrap.c ****     mbedtls_free( ctx );
 171:C:/Workspace/DAVE-4.4.2-64Bit/optiga-trust-m/externals/mbedtls/library\pk_wrap.c **** }
 172:C:/Workspace/DAVE-4.4.2-64Bit/optiga-trust-m/externals/mbedtls/library\pk_wrap.c **** 
 173:C:/Workspace/DAVE-4.4.2-64Bit/optiga-trust-m/externals/mbedtls/library\pk_wrap.c **** static void rsa_debug( const void *ctx, mbedtls_pk_debug_item *items )
 174:C:/Workspace/DAVE-4.4.2-64Bit/optiga-trust-m/externals/mbedtls/library\pk_wrap.c **** {
 175:C:/Workspace/DAVE-4.4.2-64Bit/optiga-trust-m/externals/mbedtls/library\pk_wrap.c ****     items->type = MBEDTLS_PK_DEBUG_MPI;
 176:C:/Workspace/DAVE-4.4.2-64Bit/optiga-trust-m/externals/mbedtls/library\pk_wrap.c ****     items->name = "rsa.N";
 177:C:/Workspace/DAVE-4.4.2-64Bit/optiga-trust-m/externals/mbedtls/library\pk_wrap.c ****     items->value = &( ((mbedtls_rsa_context *) ctx)->N );
 178:C:/Workspace/DAVE-4.4.2-64Bit/optiga-trust-m/externals/mbedtls/library\pk_wrap.c **** 
 179:C:/Workspace/DAVE-4.4.2-64Bit/optiga-trust-m/externals/mbedtls/library\pk_wrap.c ****     items++;
 180:C:/Workspace/DAVE-4.4.2-64Bit/optiga-trust-m/externals/mbedtls/library\pk_wrap.c **** 
 181:C:/Workspace/DAVE-4.4.2-64Bit/optiga-trust-m/externals/mbedtls/library\pk_wrap.c ****     items->type = MBEDTLS_PK_DEBUG_MPI;
 182:C:/Workspace/DAVE-4.4.2-64Bit/optiga-trust-m/externals/mbedtls/library\pk_wrap.c ****     items->name = "rsa.E";
 183:C:/Workspace/DAVE-4.4.2-64Bit/optiga-trust-m/externals/mbedtls/library\pk_wrap.c ****     items->value = &( ((mbedtls_rsa_context *) ctx)->E );
 184:C:/Workspace/DAVE-4.4.2-64Bit/optiga-trust-m/externals/mbedtls/library\pk_wrap.c **** }
 185:C:/Workspace/DAVE-4.4.2-64Bit/optiga-trust-m/externals/mbedtls/library\pk_wrap.c **** 
 186:C:/Workspace/DAVE-4.4.2-64Bit/optiga-trust-m/externals/mbedtls/library\pk_wrap.c **** const mbedtls_pk_info_t mbedtls_rsa_info = {
 187:C:/Workspace/DAVE-4.4.2-64Bit/optiga-trust-m/externals/mbedtls/library\pk_wrap.c ****     MBEDTLS_PK_RSA,
 188:C:/Workspace/DAVE-4.4.2-64Bit/optiga-trust-m/externals/mbedtls/library\pk_wrap.c ****     "RSA",
 189:C:/Workspace/DAVE-4.4.2-64Bit/optiga-trust-m/externals/mbedtls/library\pk_wrap.c ****     rsa_get_bitlen,
 190:C:/Workspace/DAVE-4.4.2-64Bit/optiga-trust-m/externals/mbedtls/library\pk_wrap.c ****     rsa_can_do,
 191:C:/Workspace/DAVE-4.4.2-64Bit/optiga-trust-m/externals/mbedtls/library\pk_wrap.c ****     rsa_verify_wrap,
 192:C:/Workspace/DAVE-4.4.2-64Bit/optiga-trust-m/externals/mbedtls/library\pk_wrap.c ****     rsa_sign_wrap,
 193:C:/Workspace/DAVE-4.4.2-64Bit/optiga-trust-m/externals/mbedtls/library\pk_wrap.c **** #if defined(MBEDTLS_ECDSA_C) && defined(MBEDTLS_ECP_RESTARTABLE)
 194:C:/Workspace/DAVE-4.4.2-64Bit/optiga-trust-m/externals/mbedtls/library\pk_wrap.c ****     NULL,
 195:C:/Workspace/DAVE-4.4.2-64Bit/optiga-trust-m/externals/mbedtls/library\pk_wrap.c ****     NULL,
 196:C:/Workspace/DAVE-4.4.2-64Bit/optiga-trust-m/externals/mbedtls/library\pk_wrap.c **** #endif
 197:C:/Workspace/DAVE-4.4.2-64Bit/optiga-trust-m/externals/mbedtls/library\pk_wrap.c ****     rsa_decrypt_wrap,
 198:C:/Workspace/DAVE-4.4.2-64Bit/optiga-trust-m/externals/mbedtls/library\pk_wrap.c ****     rsa_encrypt_wrap,
 199:C:/Workspace/DAVE-4.4.2-64Bit/optiga-trust-m/externals/mbedtls/library\pk_wrap.c ****     rsa_check_pair_wrap,
 200:C:/Workspace/DAVE-4.4.2-64Bit/optiga-trust-m/externals/mbedtls/library\pk_wrap.c ****     rsa_alloc_wrap,
 201:C:/Workspace/DAVE-4.4.2-64Bit/optiga-trust-m/externals/mbedtls/library\pk_wrap.c ****     rsa_free_wrap,
 202:C:/Workspace/DAVE-4.4.2-64Bit/optiga-trust-m/externals/mbedtls/library\pk_wrap.c **** #if defined(MBEDTLS_ECDSA_C) && defined(MBEDTLS_ECP_RESTARTABLE)
 203:C:/Workspace/DAVE-4.4.2-64Bit/optiga-trust-m/externals/mbedtls/library\pk_wrap.c ****     NULL,
 204:C:/Workspace/DAVE-4.4.2-64Bit/optiga-trust-m/externals/mbedtls/library\pk_wrap.c ****     NULL,
 205:C:/Workspace/DAVE-4.4.2-64Bit/optiga-trust-m/externals/mbedtls/library\pk_wrap.c **** #endif
 206:C:/Workspace/DAVE-4.4.2-64Bit/optiga-trust-m/externals/mbedtls/library\pk_wrap.c ****     rsa_debug,
 207:C:/Workspace/DAVE-4.4.2-64Bit/optiga-trust-m/externals/mbedtls/library\pk_wrap.c **** };
 208:C:/Workspace/DAVE-4.4.2-64Bit/optiga-trust-m/externals/mbedtls/library\pk_wrap.c **** #endif /* MBEDTLS_RSA_C */
 209:C:/Workspace/DAVE-4.4.2-64Bit/optiga-trust-m/externals/mbedtls/library\pk_wrap.c **** 
 210:C:/Workspace/DAVE-4.4.2-64Bit/optiga-trust-m/externals/mbedtls/library\pk_wrap.c **** #if defined(MBEDTLS_ECP_C)
 211:C:/Workspace/DAVE-4.4.2-64Bit/optiga-trust-m/externals/mbedtls/library\pk_wrap.c **** /*
 212:C:/Workspace/DAVE-4.4.2-64Bit/optiga-trust-m/externals/mbedtls/library\pk_wrap.c ****  * Generic EC key
 213:C:/Workspace/DAVE-4.4.2-64Bit/optiga-trust-m/externals/mbedtls/library\pk_wrap.c ****  */
 214:C:/Workspace/DAVE-4.4.2-64Bit/optiga-trust-m/externals/mbedtls/library\pk_wrap.c **** static int eckey_can_do( mbedtls_pk_type_t type )
 215:C:/Workspace/DAVE-4.4.2-64Bit/optiga-trust-m/externals/mbedtls/library\pk_wrap.c **** {
  25              	 .loc 1 215 0
  26              	 .cfi_startproc
  27              	.LVL0:
 216:C:/Workspace/DAVE-4.4.2-64Bit/optiga-trust-m/externals/mbedtls/library\pk_wrap.c ****     return( type == MBEDTLS_PK_ECKEY ||
 217:C:/Workspace/DAVE-4.4.2-64Bit/optiga-trust-m/externals/mbedtls/library\pk_wrap.c ****             type == MBEDTLS_PK_ECKEY_DH ||
  28              	 .loc 1 217 0
  29 0000 831E     	 sub r3,r0,#2
  30 0002 0222     	 mov r2,#2
  31 0004 0020     	 mov r0,#0
  32              	.LVL1:
  33 0006 DBB2     	 uxtb r3,r3
  34 0008 9A42     	 cmp r2,r3
  35 000a 4041     	 adc r0,r0,r0
 218:C:/Workspace/DAVE-4.4.2-64Bit/optiga-trust-m/externals/mbedtls/library\pk_wrap.c ****             type == MBEDTLS_PK_ECDSA );
 219:C:/Workspace/DAVE-4.4.2-64Bit/optiga-trust-m/externals/mbedtls/library\pk_wrap.c **** }
  36              	 .loc 1 219 0
  37              	 
  38 000c 7047     	 bx lr
  39              	 .cfi_endproc
  40              	.LFE2:
  42              	 .section .text.eckey_get_bitlen,"ax",%progbits
  43              	 .align 1
  44              	 .code 16
  45              	 .thumb_func
  47              	eckey_get_bitlen:
  48              	.LFB3:
 220:C:/Workspace/DAVE-4.4.2-64Bit/optiga-trust-m/externals/mbedtls/library\pk_wrap.c **** 
 221:C:/Workspace/DAVE-4.4.2-64Bit/optiga-trust-m/externals/mbedtls/library\pk_wrap.c **** static size_t eckey_get_bitlen( const void *ctx )
 222:C:/Workspace/DAVE-4.4.2-64Bit/optiga-trust-m/externals/mbedtls/library\pk_wrap.c **** {
  49              	 .loc 1 222 0
  50              	 .cfi_startproc
  51              	.LVL2:
 223:C:/Workspace/DAVE-4.4.2-64Bit/optiga-trust-m/externals/mbedtls/library\pk_wrap.c ****     return( ((mbedtls_ecp_keypair *) ctx)->grp.pbits );
  52              	 .loc 1 223 0
  53 0000 806D     	 ldr r0,[r0,#88]
  54              	.LVL3:
 224:C:/Workspace/DAVE-4.4.2-64Bit/optiga-trust-m/externals/mbedtls/library\pk_wrap.c **** }
  55              	 .loc 1 224 0
  56              	 
  57 0002 7047     	 bx lr
  58              	 .cfi_endproc
  59              	.LFE3:
  61              	 .section .text.eckey_debug,"ax",%progbits
  62              	 .align 1
  63              	 .code 16
  64              	 .thumb_func
  66              	eckey_debug:
  67              	.LFB7:
 225:C:/Workspace/DAVE-4.4.2-64Bit/optiga-trust-m/externals/mbedtls/library\pk_wrap.c **** 
 226:C:/Workspace/DAVE-4.4.2-64Bit/optiga-trust-m/externals/mbedtls/library\pk_wrap.c **** #if defined(MBEDTLS_ECDSA_C)
 227:C:/Workspace/DAVE-4.4.2-64Bit/optiga-trust-m/externals/mbedtls/library\pk_wrap.c **** /* Forward declarations */
 228:C:/Workspace/DAVE-4.4.2-64Bit/optiga-trust-m/externals/mbedtls/library\pk_wrap.c **** static int ecdsa_verify_wrap( void *ctx, mbedtls_md_type_t md_alg,
 229:C:/Workspace/DAVE-4.4.2-64Bit/optiga-trust-m/externals/mbedtls/library\pk_wrap.c ****                        const unsigned char *hash, size_t hash_len,
 230:C:/Workspace/DAVE-4.4.2-64Bit/optiga-trust-m/externals/mbedtls/library\pk_wrap.c ****                        const unsigned char *sig, size_t sig_len );
 231:C:/Workspace/DAVE-4.4.2-64Bit/optiga-trust-m/externals/mbedtls/library\pk_wrap.c **** 
 232:C:/Workspace/DAVE-4.4.2-64Bit/optiga-trust-m/externals/mbedtls/library\pk_wrap.c **** static int ecdsa_sign_wrap( void *ctx, mbedtls_md_type_t md_alg,
 233:C:/Workspace/DAVE-4.4.2-64Bit/optiga-trust-m/externals/mbedtls/library\pk_wrap.c ****                    const unsigned char *hash, size_t hash_len,
 234:C:/Workspace/DAVE-4.4.2-64Bit/optiga-trust-m/externals/mbedtls/library\pk_wrap.c ****                    unsigned char *sig, size_t *sig_len,
 235:C:/Workspace/DAVE-4.4.2-64Bit/optiga-trust-m/externals/mbedtls/library\pk_wrap.c ****                    int (*f_rng)(void *, unsigned char *, size_t), void *p_rng );
 236:C:/Workspace/DAVE-4.4.2-64Bit/optiga-trust-m/externals/mbedtls/library\pk_wrap.c **** 
 237:C:/Workspace/DAVE-4.4.2-64Bit/optiga-trust-m/externals/mbedtls/library\pk_wrap.c **** static int eckey_verify_wrap( void *ctx, mbedtls_md_type_t md_alg,
 238:C:/Workspace/DAVE-4.4.2-64Bit/optiga-trust-m/externals/mbedtls/library\pk_wrap.c ****                        const unsigned char *hash, size_t hash_len,
 239:C:/Workspace/DAVE-4.4.2-64Bit/optiga-trust-m/externals/mbedtls/library\pk_wrap.c ****                        const unsigned char *sig, size_t sig_len )
 240:C:/Workspace/DAVE-4.4.2-64Bit/optiga-trust-m/externals/mbedtls/library\pk_wrap.c **** {
 241:C:/Workspace/DAVE-4.4.2-64Bit/optiga-trust-m/externals/mbedtls/library\pk_wrap.c ****     int ret;
 242:C:/Workspace/DAVE-4.4.2-64Bit/optiga-trust-m/externals/mbedtls/library\pk_wrap.c ****     mbedtls_ecdsa_context ecdsa;
 243:C:/Workspace/DAVE-4.4.2-64Bit/optiga-trust-m/externals/mbedtls/library\pk_wrap.c **** 
 244:C:/Workspace/DAVE-4.4.2-64Bit/optiga-trust-m/externals/mbedtls/library\pk_wrap.c ****     mbedtls_ecdsa_init( &ecdsa );
 245:C:/Workspace/DAVE-4.4.2-64Bit/optiga-trust-m/externals/mbedtls/library\pk_wrap.c **** 
 246:C:/Workspace/DAVE-4.4.2-64Bit/optiga-trust-m/externals/mbedtls/library\pk_wrap.c ****     if( ( ret = mbedtls_ecdsa_from_keypair( &ecdsa, ctx ) ) == 0 )
 247:C:/Workspace/DAVE-4.4.2-64Bit/optiga-trust-m/externals/mbedtls/library\pk_wrap.c ****         ret = ecdsa_verify_wrap( &ecdsa, md_alg, hash, hash_len, sig, sig_len );
 248:C:/Workspace/DAVE-4.4.2-64Bit/optiga-trust-m/externals/mbedtls/library\pk_wrap.c **** 
 249:C:/Workspace/DAVE-4.4.2-64Bit/optiga-trust-m/externals/mbedtls/library\pk_wrap.c ****     mbedtls_ecdsa_free( &ecdsa );
 250:C:/Workspace/DAVE-4.4.2-64Bit/optiga-trust-m/externals/mbedtls/library\pk_wrap.c **** 
 251:C:/Workspace/DAVE-4.4.2-64Bit/optiga-trust-m/externals/mbedtls/library\pk_wrap.c ****     return( ret );
 252:C:/Workspace/DAVE-4.4.2-64Bit/optiga-trust-m/externals/mbedtls/library\pk_wrap.c **** }
 253:C:/Workspace/DAVE-4.4.2-64Bit/optiga-trust-m/externals/mbedtls/library\pk_wrap.c **** 
 254:C:/Workspace/DAVE-4.4.2-64Bit/optiga-trust-m/externals/mbedtls/library\pk_wrap.c **** static int eckey_sign_wrap( void *ctx, mbedtls_md_type_t md_alg,
 255:C:/Workspace/DAVE-4.4.2-64Bit/optiga-trust-m/externals/mbedtls/library\pk_wrap.c ****                    const unsigned char *hash, size_t hash_len,
 256:C:/Workspace/DAVE-4.4.2-64Bit/optiga-trust-m/externals/mbedtls/library\pk_wrap.c ****                    unsigned char *sig, size_t *sig_len,
 257:C:/Workspace/DAVE-4.4.2-64Bit/optiga-trust-m/externals/mbedtls/library\pk_wrap.c ****                    int (*f_rng)(void *, unsigned char *, size_t), void *p_rng )
 258:C:/Workspace/DAVE-4.4.2-64Bit/optiga-trust-m/externals/mbedtls/library\pk_wrap.c **** {
 259:C:/Workspace/DAVE-4.4.2-64Bit/optiga-trust-m/externals/mbedtls/library\pk_wrap.c ****     int ret;
 260:C:/Workspace/DAVE-4.4.2-64Bit/optiga-trust-m/externals/mbedtls/library\pk_wrap.c ****     mbedtls_ecdsa_context ecdsa;
 261:C:/Workspace/DAVE-4.4.2-64Bit/optiga-trust-m/externals/mbedtls/library\pk_wrap.c **** 
 262:C:/Workspace/DAVE-4.4.2-64Bit/optiga-trust-m/externals/mbedtls/library\pk_wrap.c ****     mbedtls_ecdsa_init( &ecdsa );
 263:C:/Workspace/DAVE-4.4.2-64Bit/optiga-trust-m/externals/mbedtls/library\pk_wrap.c **** 
 264:C:/Workspace/DAVE-4.4.2-64Bit/optiga-trust-m/externals/mbedtls/library\pk_wrap.c ****     if( ( ret = mbedtls_ecdsa_from_keypair( &ecdsa, ctx ) ) == 0 )
 265:C:/Workspace/DAVE-4.4.2-64Bit/optiga-trust-m/externals/mbedtls/library\pk_wrap.c ****         ret = ecdsa_sign_wrap( &ecdsa, md_alg, hash, hash_len, sig, sig_len,
 266:C:/Workspace/DAVE-4.4.2-64Bit/optiga-trust-m/externals/mbedtls/library\pk_wrap.c ****                                f_rng, p_rng );
 267:C:/Workspace/DAVE-4.4.2-64Bit/optiga-trust-m/externals/mbedtls/library\pk_wrap.c **** 
 268:C:/Workspace/DAVE-4.4.2-64Bit/optiga-trust-m/externals/mbedtls/library\pk_wrap.c ****     mbedtls_ecdsa_free( &ecdsa );
 269:C:/Workspace/DAVE-4.4.2-64Bit/optiga-trust-m/externals/mbedtls/library\pk_wrap.c **** 
 270:C:/Workspace/DAVE-4.4.2-64Bit/optiga-trust-m/externals/mbedtls/library\pk_wrap.c ****     return( ret );
 271:C:/Workspace/DAVE-4.4.2-64Bit/optiga-trust-m/externals/mbedtls/library\pk_wrap.c **** }
 272:C:/Workspace/DAVE-4.4.2-64Bit/optiga-trust-m/externals/mbedtls/library\pk_wrap.c **** 
 273:C:/Workspace/DAVE-4.4.2-64Bit/optiga-trust-m/externals/mbedtls/library\pk_wrap.c **** #if defined(MBEDTLS_ECP_RESTARTABLE)
 274:C:/Workspace/DAVE-4.4.2-64Bit/optiga-trust-m/externals/mbedtls/library\pk_wrap.c **** /* Forward declarations */
 275:C:/Workspace/DAVE-4.4.2-64Bit/optiga-trust-m/externals/mbedtls/library\pk_wrap.c **** static int ecdsa_verify_rs_wrap( void *ctx, mbedtls_md_type_t md_alg,
 276:C:/Workspace/DAVE-4.4.2-64Bit/optiga-trust-m/externals/mbedtls/library\pk_wrap.c ****                        const unsigned char *hash, size_t hash_len,
 277:C:/Workspace/DAVE-4.4.2-64Bit/optiga-trust-m/externals/mbedtls/library\pk_wrap.c ****                        const unsigned char *sig, size_t sig_len,
 278:C:/Workspace/DAVE-4.4.2-64Bit/optiga-trust-m/externals/mbedtls/library\pk_wrap.c ****                        void *rs_ctx );
 279:C:/Workspace/DAVE-4.4.2-64Bit/optiga-trust-m/externals/mbedtls/library\pk_wrap.c **** 
 280:C:/Workspace/DAVE-4.4.2-64Bit/optiga-trust-m/externals/mbedtls/library\pk_wrap.c **** static int ecdsa_sign_rs_wrap( void *ctx, mbedtls_md_type_t md_alg,
 281:C:/Workspace/DAVE-4.4.2-64Bit/optiga-trust-m/externals/mbedtls/library\pk_wrap.c ****                    const unsigned char *hash, size_t hash_len,
 282:C:/Workspace/DAVE-4.4.2-64Bit/optiga-trust-m/externals/mbedtls/library\pk_wrap.c ****                    unsigned char *sig, size_t *sig_len,
 283:C:/Workspace/DAVE-4.4.2-64Bit/optiga-trust-m/externals/mbedtls/library\pk_wrap.c ****                    int (*f_rng)(void *, unsigned char *, size_t), void *p_rng,
 284:C:/Workspace/DAVE-4.4.2-64Bit/optiga-trust-m/externals/mbedtls/library\pk_wrap.c ****                    void *rs_ctx );
 285:C:/Workspace/DAVE-4.4.2-64Bit/optiga-trust-m/externals/mbedtls/library\pk_wrap.c **** 
 286:C:/Workspace/DAVE-4.4.2-64Bit/optiga-trust-m/externals/mbedtls/library\pk_wrap.c **** /*
 287:C:/Workspace/DAVE-4.4.2-64Bit/optiga-trust-m/externals/mbedtls/library\pk_wrap.c ****  * Restart context for ECDSA operations with ECKEY context
 288:C:/Workspace/DAVE-4.4.2-64Bit/optiga-trust-m/externals/mbedtls/library\pk_wrap.c ****  *
 289:C:/Workspace/DAVE-4.4.2-64Bit/optiga-trust-m/externals/mbedtls/library\pk_wrap.c ****  * We need to store an actual ECDSA context, as we need to pass the same to
 290:C:/Workspace/DAVE-4.4.2-64Bit/optiga-trust-m/externals/mbedtls/library\pk_wrap.c ****  * the underlying ecdsa function, so we can't create it on the fly every time.
 291:C:/Workspace/DAVE-4.4.2-64Bit/optiga-trust-m/externals/mbedtls/library\pk_wrap.c ****  */
 292:C:/Workspace/DAVE-4.4.2-64Bit/optiga-trust-m/externals/mbedtls/library\pk_wrap.c **** typedef struct
 293:C:/Workspace/DAVE-4.4.2-64Bit/optiga-trust-m/externals/mbedtls/library\pk_wrap.c **** {
 294:C:/Workspace/DAVE-4.4.2-64Bit/optiga-trust-m/externals/mbedtls/library\pk_wrap.c ****     mbedtls_ecdsa_restart_ctx ecdsa_rs;
 295:C:/Workspace/DAVE-4.4.2-64Bit/optiga-trust-m/externals/mbedtls/library\pk_wrap.c ****     mbedtls_ecdsa_context ecdsa_ctx;
 296:C:/Workspace/DAVE-4.4.2-64Bit/optiga-trust-m/externals/mbedtls/library\pk_wrap.c **** } eckey_restart_ctx;
 297:C:/Workspace/DAVE-4.4.2-64Bit/optiga-trust-m/externals/mbedtls/library\pk_wrap.c **** 
 298:C:/Workspace/DAVE-4.4.2-64Bit/optiga-trust-m/externals/mbedtls/library\pk_wrap.c **** static void *eckey_rs_alloc( void )
 299:C:/Workspace/DAVE-4.4.2-64Bit/optiga-trust-m/externals/mbedtls/library\pk_wrap.c **** {
 300:C:/Workspace/DAVE-4.4.2-64Bit/optiga-trust-m/externals/mbedtls/library\pk_wrap.c ****     eckey_restart_ctx *rs_ctx;
 301:C:/Workspace/DAVE-4.4.2-64Bit/optiga-trust-m/externals/mbedtls/library\pk_wrap.c **** 
 302:C:/Workspace/DAVE-4.4.2-64Bit/optiga-trust-m/externals/mbedtls/library\pk_wrap.c ****     void *ctx = mbedtls_calloc( 1, sizeof( eckey_restart_ctx ) );
 303:C:/Workspace/DAVE-4.4.2-64Bit/optiga-trust-m/externals/mbedtls/library\pk_wrap.c **** 
 304:C:/Workspace/DAVE-4.4.2-64Bit/optiga-trust-m/externals/mbedtls/library\pk_wrap.c ****     if( ctx != NULL )
 305:C:/Workspace/DAVE-4.4.2-64Bit/optiga-trust-m/externals/mbedtls/library\pk_wrap.c ****     {
 306:C:/Workspace/DAVE-4.4.2-64Bit/optiga-trust-m/externals/mbedtls/library\pk_wrap.c ****         rs_ctx = ctx;
 307:C:/Workspace/DAVE-4.4.2-64Bit/optiga-trust-m/externals/mbedtls/library\pk_wrap.c ****         mbedtls_ecdsa_restart_init( &rs_ctx->ecdsa_rs );
 308:C:/Workspace/DAVE-4.4.2-64Bit/optiga-trust-m/externals/mbedtls/library\pk_wrap.c ****         mbedtls_ecdsa_init( &rs_ctx->ecdsa_ctx );
 309:C:/Workspace/DAVE-4.4.2-64Bit/optiga-trust-m/externals/mbedtls/library\pk_wrap.c ****     }
 310:C:/Workspace/DAVE-4.4.2-64Bit/optiga-trust-m/externals/mbedtls/library\pk_wrap.c **** 
 311:C:/Workspace/DAVE-4.4.2-64Bit/optiga-trust-m/externals/mbedtls/library\pk_wrap.c ****     return( ctx );
 312:C:/Workspace/DAVE-4.4.2-64Bit/optiga-trust-m/externals/mbedtls/library\pk_wrap.c **** }
 313:C:/Workspace/DAVE-4.4.2-64Bit/optiga-trust-m/externals/mbedtls/library\pk_wrap.c **** 
 314:C:/Workspace/DAVE-4.4.2-64Bit/optiga-trust-m/externals/mbedtls/library\pk_wrap.c **** static void eckey_rs_free( void *ctx )
 315:C:/Workspace/DAVE-4.4.2-64Bit/optiga-trust-m/externals/mbedtls/library\pk_wrap.c **** {
 316:C:/Workspace/DAVE-4.4.2-64Bit/optiga-trust-m/externals/mbedtls/library\pk_wrap.c ****     eckey_restart_ctx *rs_ctx;
 317:C:/Workspace/DAVE-4.4.2-64Bit/optiga-trust-m/externals/mbedtls/library\pk_wrap.c **** 
 318:C:/Workspace/DAVE-4.4.2-64Bit/optiga-trust-m/externals/mbedtls/library\pk_wrap.c ****     if( ctx == NULL)
 319:C:/Workspace/DAVE-4.4.2-64Bit/optiga-trust-m/externals/mbedtls/library\pk_wrap.c ****         return;
 320:C:/Workspace/DAVE-4.4.2-64Bit/optiga-trust-m/externals/mbedtls/library\pk_wrap.c **** 
 321:C:/Workspace/DAVE-4.4.2-64Bit/optiga-trust-m/externals/mbedtls/library\pk_wrap.c ****     rs_ctx = ctx;
 322:C:/Workspace/DAVE-4.4.2-64Bit/optiga-trust-m/externals/mbedtls/library\pk_wrap.c ****     mbedtls_ecdsa_restart_free( &rs_ctx->ecdsa_rs );
 323:C:/Workspace/DAVE-4.4.2-64Bit/optiga-trust-m/externals/mbedtls/library\pk_wrap.c ****     mbedtls_ecdsa_free( &rs_ctx->ecdsa_ctx );
 324:C:/Workspace/DAVE-4.4.2-64Bit/optiga-trust-m/externals/mbedtls/library\pk_wrap.c **** 
 325:C:/Workspace/DAVE-4.4.2-64Bit/optiga-trust-m/externals/mbedtls/library\pk_wrap.c ****     mbedtls_free( ctx );
 326:C:/Workspace/DAVE-4.4.2-64Bit/optiga-trust-m/externals/mbedtls/library\pk_wrap.c **** }
 327:C:/Workspace/DAVE-4.4.2-64Bit/optiga-trust-m/externals/mbedtls/library\pk_wrap.c **** 
 328:C:/Workspace/DAVE-4.4.2-64Bit/optiga-trust-m/externals/mbedtls/library\pk_wrap.c **** static int eckey_verify_rs_wrap( void *ctx, mbedtls_md_type_t md_alg,
 329:C:/Workspace/DAVE-4.4.2-64Bit/optiga-trust-m/externals/mbedtls/library\pk_wrap.c ****                        const unsigned char *hash, size_t hash_len,
 330:C:/Workspace/DAVE-4.4.2-64Bit/optiga-trust-m/externals/mbedtls/library\pk_wrap.c ****                        const unsigned char *sig, size_t sig_len,
 331:C:/Workspace/DAVE-4.4.2-64Bit/optiga-trust-m/externals/mbedtls/library\pk_wrap.c ****                        void *rs_ctx )
 332:C:/Workspace/DAVE-4.4.2-64Bit/optiga-trust-m/externals/mbedtls/library\pk_wrap.c **** {
 333:C:/Workspace/DAVE-4.4.2-64Bit/optiga-trust-m/externals/mbedtls/library\pk_wrap.c ****     int ret;
 334:C:/Workspace/DAVE-4.4.2-64Bit/optiga-trust-m/externals/mbedtls/library\pk_wrap.c ****     eckey_restart_ctx *rs = rs_ctx;
 335:C:/Workspace/DAVE-4.4.2-64Bit/optiga-trust-m/externals/mbedtls/library\pk_wrap.c **** 
 336:C:/Workspace/DAVE-4.4.2-64Bit/optiga-trust-m/externals/mbedtls/library\pk_wrap.c ****     /* Should never happen */
 337:C:/Workspace/DAVE-4.4.2-64Bit/optiga-trust-m/externals/mbedtls/library\pk_wrap.c ****     if( rs == NULL )
 338:C:/Workspace/DAVE-4.4.2-64Bit/optiga-trust-m/externals/mbedtls/library\pk_wrap.c ****         return( MBEDTLS_ERR_PK_BAD_INPUT_DATA );
 339:C:/Workspace/DAVE-4.4.2-64Bit/optiga-trust-m/externals/mbedtls/library\pk_wrap.c **** 
 340:C:/Workspace/DAVE-4.4.2-64Bit/optiga-trust-m/externals/mbedtls/library\pk_wrap.c ****     /* set up our own sub-context if needed (that is, on first run) */
 341:C:/Workspace/DAVE-4.4.2-64Bit/optiga-trust-m/externals/mbedtls/library\pk_wrap.c ****     if( rs->ecdsa_ctx.grp.pbits == 0 )
 342:C:/Workspace/DAVE-4.4.2-64Bit/optiga-trust-m/externals/mbedtls/library\pk_wrap.c ****         MBEDTLS_MPI_CHK( mbedtls_ecdsa_from_keypair( &rs->ecdsa_ctx, ctx ) );
 343:C:/Workspace/DAVE-4.4.2-64Bit/optiga-trust-m/externals/mbedtls/library\pk_wrap.c **** 
 344:C:/Workspace/DAVE-4.4.2-64Bit/optiga-trust-m/externals/mbedtls/library\pk_wrap.c ****     MBEDTLS_MPI_CHK( ecdsa_verify_rs_wrap( &rs->ecdsa_ctx,
 345:C:/Workspace/DAVE-4.4.2-64Bit/optiga-trust-m/externals/mbedtls/library\pk_wrap.c ****                                            md_alg, hash, hash_len,
 346:C:/Workspace/DAVE-4.4.2-64Bit/optiga-trust-m/externals/mbedtls/library\pk_wrap.c ****                                            sig, sig_len, &rs->ecdsa_rs ) );
 347:C:/Workspace/DAVE-4.4.2-64Bit/optiga-trust-m/externals/mbedtls/library\pk_wrap.c **** 
 348:C:/Workspace/DAVE-4.4.2-64Bit/optiga-trust-m/externals/mbedtls/library\pk_wrap.c **** cleanup:
 349:C:/Workspace/DAVE-4.4.2-64Bit/optiga-trust-m/externals/mbedtls/library\pk_wrap.c ****     return( ret );
 350:C:/Workspace/DAVE-4.4.2-64Bit/optiga-trust-m/externals/mbedtls/library\pk_wrap.c **** }
 351:C:/Workspace/DAVE-4.4.2-64Bit/optiga-trust-m/externals/mbedtls/library\pk_wrap.c **** 
 352:C:/Workspace/DAVE-4.4.2-64Bit/optiga-trust-m/externals/mbedtls/library\pk_wrap.c **** static int eckey_sign_rs_wrap( void *ctx, mbedtls_md_type_t md_alg,
 353:C:/Workspace/DAVE-4.4.2-64Bit/optiga-trust-m/externals/mbedtls/library\pk_wrap.c ****                    const unsigned char *hash, size_t hash_len,
 354:C:/Workspace/DAVE-4.4.2-64Bit/optiga-trust-m/externals/mbedtls/library\pk_wrap.c ****                    unsigned char *sig, size_t *sig_len,
 355:C:/Workspace/DAVE-4.4.2-64Bit/optiga-trust-m/externals/mbedtls/library\pk_wrap.c ****                    int (*f_rng)(void *, unsigned char *, size_t), void *p_rng,
 356:C:/Workspace/DAVE-4.4.2-64Bit/optiga-trust-m/externals/mbedtls/library\pk_wrap.c ****                        void *rs_ctx )
 357:C:/Workspace/DAVE-4.4.2-64Bit/optiga-trust-m/externals/mbedtls/library\pk_wrap.c **** {
 358:C:/Workspace/DAVE-4.4.2-64Bit/optiga-trust-m/externals/mbedtls/library\pk_wrap.c ****     int ret;
 359:C:/Workspace/DAVE-4.4.2-64Bit/optiga-trust-m/externals/mbedtls/library\pk_wrap.c ****     eckey_restart_ctx *rs = rs_ctx;
 360:C:/Workspace/DAVE-4.4.2-64Bit/optiga-trust-m/externals/mbedtls/library\pk_wrap.c **** 
 361:C:/Workspace/DAVE-4.4.2-64Bit/optiga-trust-m/externals/mbedtls/library\pk_wrap.c ****     /* Should never happen */
 362:C:/Workspace/DAVE-4.4.2-64Bit/optiga-trust-m/externals/mbedtls/library\pk_wrap.c ****     if( rs == NULL )
 363:C:/Workspace/DAVE-4.4.2-64Bit/optiga-trust-m/externals/mbedtls/library\pk_wrap.c ****         return( MBEDTLS_ERR_PK_BAD_INPUT_DATA );
 364:C:/Workspace/DAVE-4.4.2-64Bit/optiga-trust-m/externals/mbedtls/library\pk_wrap.c **** 
 365:C:/Workspace/DAVE-4.4.2-64Bit/optiga-trust-m/externals/mbedtls/library\pk_wrap.c ****     /* set up our own sub-context if needed (that is, on first run) */
 366:C:/Workspace/DAVE-4.4.2-64Bit/optiga-trust-m/externals/mbedtls/library\pk_wrap.c ****     if( rs->ecdsa_ctx.grp.pbits == 0 )
 367:C:/Workspace/DAVE-4.4.2-64Bit/optiga-trust-m/externals/mbedtls/library\pk_wrap.c ****         MBEDTLS_MPI_CHK( mbedtls_ecdsa_from_keypair( &rs->ecdsa_ctx, ctx ) );
 368:C:/Workspace/DAVE-4.4.2-64Bit/optiga-trust-m/externals/mbedtls/library\pk_wrap.c **** 
 369:C:/Workspace/DAVE-4.4.2-64Bit/optiga-trust-m/externals/mbedtls/library\pk_wrap.c ****     MBEDTLS_MPI_CHK( ecdsa_sign_rs_wrap( &rs->ecdsa_ctx, md_alg,
 370:C:/Workspace/DAVE-4.4.2-64Bit/optiga-trust-m/externals/mbedtls/library\pk_wrap.c ****                                          hash, hash_len, sig, sig_len,
 371:C:/Workspace/DAVE-4.4.2-64Bit/optiga-trust-m/externals/mbedtls/library\pk_wrap.c ****                                          f_rng, p_rng, &rs->ecdsa_rs ) );
 372:C:/Workspace/DAVE-4.4.2-64Bit/optiga-trust-m/externals/mbedtls/library\pk_wrap.c **** 
 373:C:/Workspace/DAVE-4.4.2-64Bit/optiga-trust-m/externals/mbedtls/library\pk_wrap.c **** cleanup:
 374:C:/Workspace/DAVE-4.4.2-64Bit/optiga-trust-m/externals/mbedtls/library\pk_wrap.c ****     return( ret );
 375:C:/Workspace/DAVE-4.4.2-64Bit/optiga-trust-m/externals/mbedtls/library\pk_wrap.c **** }
 376:C:/Workspace/DAVE-4.4.2-64Bit/optiga-trust-m/externals/mbedtls/library\pk_wrap.c **** #endif /* MBEDTLS_ECP_RESTARTABLE */
 377:C:/Workspace/DAVE-4.4.2-64Bit/optiga-trust-m/externals/mbedtls/library\pk_wrap.c **** #endif /* MBEDTLS_ECDSA_C */
 378:C:/Workspace/DAVE-4.4.2-64Bit/optiga-trust-m/externals/mbedtls/library\pk_wrap.c **** 
 379:C:/Workspace/DAVE-4.4.2-64Bit/optiga-trust-m/externals/mbedtls/library\pk_wrap.c **** static int eckey_check_pair( const void *pub, const void *prv )
 380:C:/Workspace/DAVE-4.4.2-64Bit/optiga-trust-m/externals/mbedtls/library\pk_wrap.c **** {
 381:C:/Workspace/DAVE-4.4.2-64Bit/optiga-trust-m/externals/mbedtls/library\pk_wrap.c ****     return( mbedtls_ecp_check_pub_priv( (const mbedtls_ecp_keypair *) pub,
 382:C:/Workspace/DAVE-4.4.2-64Bit/optiga-trust-m/externals/mbedtls/library\pk_wrap.c ****                                 (const mbedtls_ecp_keypair *) prv ) );
 383:C:/Workspace/DAVE-4.4.2-64Bit/optiga-trust-m/externals/mbedtls/library\pk_wrap.c **** }
 384:C:/Workspace/DAVE-4.4.2-64Bit/optiga-trust-m/externals/mbedtls/library\pk_wrap.c **** 
 385:C:/Workspace/DAVE-4.4.2-64Bit/optiga-trust-m/externals/mbedtls/library\pk_wrap.c **** static void *eckey_alloc_wrap( void )
 386:C:/Workspace/DAVE-4.4.2-64Bit/optiga-trust-m/externals/mbedtls/library\pk_wrap.c **** {
 387:C:/Workspace/DAVE-4.4.2-64Bit/optiga-trust-m/externals/mbedtls/library\pk_wrap.c ****     void *ctx = mbedtls_calloc( 1, sizeof( mbedtls_ecp_keypair ) );
 388:C:/Workspace/DAVE-4.4.2-64Bit/optiga-trust-m/externals/mbedtls/library\pk_wrap.c **** 
 389:C:/Workspace/DAVE-4.4.2-64Bit/optiga-trust-m/externals/mbedtls/library\pk_wrap.c ****     if( ctx != NULL )
 390:C:/Workspace/DAVE-4.4.2-64Bit/optiga-trust-m/externals/mbedtls/library\pk_wrap.c ****         mbedtls_ecp_keypair_init( ctx );
 391:C:/Workspace/DAVE-4.4.2-64Bit/optiga-trust-m/externals/mbedtls/library\pk_wrap.c **** 
 392:C:/Workspace/DAVE-4.4.2-64Bit/optiga-trust-m/externals/mbedtls/library\pk_wrap.c ****     return( ctx );
 393:C:/Workspace/DAVE-4.4.2-64Bit/optiga-trust-m/externals/mbedtls/library\pk_wrap.c **** }
 394:C:/Workspace/DAVE-4.4.2-64Bit/optiga-trust-m/externals/mbedtls/library\pk_wrap.c **** 
 395:C:/Workspace/DAVE-4.4.2-64Bit/optiga-trust-m/externals/mbedtls/library\pk_wrap.c **** static void eckey_free_wrap( void *ctx )
 396:C:/Workspace/DAVE-4.4.2-64Bit/optiga-trust-m/externals/mbedtls/library\pk_wrap.c **** {
 397:C:/Workspace/DAVE-4.4.2-64Bit/optiga-trust-m/externals/mbedtls/library\pk_wrap.c ****     mbedtls_ecp_keypair_free( (mbedtls_ecp_keypair *) ctx );
 398:C:/Workspace/DAVE-4.4.2-64Bit/optiga-trust-m/externals/mbedtls/library\pk_wrap.c ****     mbedtls_free( ctx );
 399:C:/Workspace/DAVE-4.4.2-64Bit/optiga-trust-m/externals/mbedtls/library\pk_wrap.c **** }
 400:C:/Workspace/DAVE-4.4.2-64Bit/optiga-trust-m/externals/mbedtls/library\pk_wrap.c **** 
 401:C:/Workspace/DAVE-4.4.2-64Bit/optiga-trust-m/externals/mbedtls/library\pk_wrap.c **** static void eckey_debug( const void *ctx, mbedtls_pk_debug_item *items )
 402:C:/Workspace/DAVE-4.4.2-64Bit/optiga-trust-m/externals/mbedtls/library\pk_wrap.c **** {
  68              	 .loc 1 402 0
  69              	 .cfi_startproc
  70              	.LVL4:
 403:C:/Workspace/DAVE-4.4.2-64Bit/optiga-trust-m/externals/mbedtls/library\pk_wrap.c ****     items->type = MBEDTLS_PK_DEBUG_ECP;
  71              	 .loc 1 403 0
  72 0000 0223     	 mov r3,#2
  73 0002 0B70     	 strb r3,[r1]
 404:C:/Workspace/DAVE-4.4.2-64Bit/optiga-trust-m/externals/mbedtls/library\pk_wrap.c ****     items->name = "eckey.Q";
  74              	 .loc 1 404 0
  75 0004 024B     	 ldr r3,.L4
 405:C:/Workspace/DAVE-4.4.2-64Bit/optiga-trust-m/externals/mbedtls/library\pk_wrap.c ****     items->value = &( ((mbedtls_ecp_keypair *) ctx)->Q );
  76              	 .loc 1 405 0
  77 0006 8830     	 add r0,r0,#136
  78              	.LVL5:
 404:C:/Workspace/DAVE-4.4.2-64Bit/optiga-trust-m/externals/mbedtls/library\pk_wrap.c ****     items->name = "eckey.Q";
  79              	 .loc 1 404 0
  80 0008 4B60     	 str r3,[r1,#4]
  81              	 .loc 1 405 0
  82 000a 8860     	 str r0,[r1,#8]
 406:C:/Workspace/DAVE-4.4.2-64Bit/optiga-trust-m/externals/mbedtls/library\pk_wrap.c **** }
  83              	 .loc 1 406 0
  84              	 
  85 000c 7047     	 bx lr
  86              	.L5:
  87 000e C046     	 .align 2
  88              	.L4:
  89 0010 00000000 	 .word .LC0
  90              	 .cfi_endproc
  91              	.LFE7:
  93              	 .section .text.eckeydh_can_do,"ax",%progbits
  94              	 .align 1
  95              	 .code 16
  96              	 .thumb_func
  98              	eckeydh_can_do:
  99              	.LFB8:
 407:C:/Workspace/DAVE-4.4.2-64Bit/optiga-trust-m/externals/mbedtls/library\pk_wrap.c **** 
 408:C:/Workspace/DAVE-4.4.2-64Bit/optiga-trust-m/externals/mbedtls/library\pk_wrap.c **** const mbedtls_pk_info_t mbedtls_eckey_info = {
 409:C:/Workspace/DAVE-4.4.2-64Bit/optiga-trust-m/externals/mbedtls/library\pk_wrap.c ****     MBEDTLS_PK_ECKEY,
 410:C:/Workspace/DAVE-4.4.2-64Bit/optiga-trust-m/externals/mbedtls/library\pk_wrap.c ****     "EC",
 411:C:/Workspace/DAVE-4.4.2-64Bit/optiga-trust-m/externals/mbedtls/library\pk_wrap.c ****     eckey_get_bitlen,
 412:C:/Workspace/DAVE-4.4.2-64Bit/optiga-trust-m/externals/mbedtls/library\pk_wrap.c ****     eckey_can_do,
 413:C:/Workspace/DAVE-4.4.2-64Bit/optiga-trust-m/externals/mbedtls/library\pk_wrap.c **** #if defined(MBEDTLS_ECDSA_C)
 414:C:/Workspace/DAVE-4.4.2-64Bit/optiga-trust-m/externals/mbedtls/library\pk_wrap.c ****     eckey_verify_wrap,
 415:C:/Workspace/DAVE-4.4.2-64Bit/optiga-trust-m/externals/mbedtls/library\pk_wrap.c ****     eckey_sign_wrap,
 416:C:/Workspace/DAVE-4.4.2-64Bit/optiga-trust-m/externals/mbedtls/library\pk_wrap.c **** #if defined(MBEDTLS_ECP_RESTARTABLE)
 417:C:/Workspace/DAVE-4.4.2-64Bit/optiga-trust-m/externals/mbedtls/library\pk_wrap.c ****     eckey_verify_rs_wrap,
 418:C:/Workspace/DAVE-4.4.2-64Bit/optiga-trust-m/externals/mbedtls/library\pk_wrap.c ****     eckey_sign_rs_wrap,
 419:C:/Workspace/DAVE-4.4.2-64Bit/optiga-trust-m/externals/mbedtls/library\pk_wrap.c **** #endif
 420:C:/Workspace/DAVE-4.4.2-64Bit/optiga-trust-m/externals/mbedtls/library\pk_wrap.c **** #else /* MBEDTLS_ECDSA_C */
 421:C:/Workspace/DAVE-4.4.2-64Bit/optiga-trust-m/externals/mbedtls/library\pk_wrap.c ****     NULL,
 422:C:/Workspace/DAVE-4.4.2-64Bit/optiga-trust-m/externals/mbedtls/library\pk_wrap.c ****     NULL,
 423:C:/Workspace/DAVE-4.4.2-64Bit/optiga-trust-m/externals/mbedtls/library\pk_wrap.c **** #endif /* MBEDTLS_ECDSA_C */
 424:C:/Workspace/DAVE-4.4.2-64Bit/optiga-trust-m/externals/mbedtls/library\pk_wrap.c ****     NULL,
 425:C:/Workspace/DAVE-4.4.2-64Bit/optiga-trust-m/externals/mbedtls/library\pk_wrap.c ****     NULL,
 426:C:/Workspace/DAVE-4.4.2-64Bit/optiga-trust-m/externals/mbedtls/library\pk_wrap.c ****     eckey_check_pair,
 427:C:/Workspace/DAVE-4.4.2-64Bit/optiga-trust-m/externals/mbedtls/library\pk_wrap.c ****     eckey_alloc_wrap,
 428:C:/Workspace/DAVE-4.4.2-64Bit/optiga-trust-m/externals/mbedtls/library\pk_wrap.c ****     eckey_free_wrap,
 429:C:/Workspace/DAVE-4.4.2-64Bit/optiga-trust-m/externals/mbedtls/library\pk_wrap.c **** #if defined(MBEDTLS_ECDSA_C) && defined(MBEDTLS_ECP_RESTARTABLE)
 430:C:/Workspace/DAVE-4.4.2-64Bit/optiga-trust-m/externals/mbedtls/library\pk_wrap.c ****     eckey_rs_alloc,
 431:C:/Workspace/DAVE-4.4.2-64Bit/optiga-trust-m/externals/mbedtls/library\pk_wrap.c ****     eckey_rs_free,
 432:C:/Workspace/DAVE-4.4.2-64Bit/optiga-trust-m/externals/mbedtls/library\pk_wrap.c **** #endif
 433:C:/Workspace/DAVE-4.4.2-64Bit/optiga-trust-m/externals/mbedtls/library\pk_wrap.c ****     eckey_debug,
 434:C:/Workspace/DAVE-4.4.2-64Bit/optiga-trust-m/externals/mbedtls/library\pk_wrap.c **** };
 435:C:/Workspace/DAVE-4.4.2-64Bit/optiga-trust-m/externals/mbedtls/library\pk_wrap.c **** 
 436:C:/Workspace/DAVE-4.4.2-64Bit/optiga-trust-m/externals/mbedtls/library\pk_wrap.c **** /*
 437:C:/Workspace/DAVE-4.4.2-64Bit/optiga-trust-m/externals/mbedtls/library\pk_wrap.c ****  * EC key restricted to ECDH
 438:C:/Workspace/DAVE-4.4.2-64Bit/optiga-trust-m/externals/mbedtls/library\pk_wrap.c ****  */
 439:C:/Workspace/DAVE-4.4.2-64Bit/optiga-trust-m/externals/mbedtls/library\pk_wrap.c **** static int eckeydh_can_do( mbedtls_pk_type_t type )
 440:C:/Workspace/DAVE-4.4.2-64Bit/optiga-trust-m/externals/mbedtls/library\pk_wrap.c **** {
 100              	 .loc 1 440 0
 101              	 .cfi_startproc
 102              	.LVL6:
 441:C:/Workspace/DAVE-4.4.2-64Bit/optiga-trust-m/externals/mbedtls/library\pk_wrap.c ****     return( type == MBEDTLS_PK_ECKEY ||
 103              	 .loc 1 441 0
 104 0000 831E     	 sub r3,r0,#2
 105 0002 0122     	 mov r2,#1
 106 0004 0020     	 mov r0,#0
 107              	.LVL7:
 108 0006 DBB2     	 uxtb r3,r3
 109 0008 9A42     	 cmp r2,r3
 110 000a 4041     	 adc r0,r0,r0
 442:C:/Workspace/DAVE-4.4.2-64Bit/optiga-trust-m/externals/mbedtls/library\pk_wrap.c ****             type == MBEDTLS_PK_ECKEY_DH );
 443:C:/Workspace/DAVE-4.4.2-64Bit/optiga-trust-m/externals/mbedtls/library\pk_wrap.c **** }
 111              	 .loc 1 443 0
 112              	 
 113 000c 7047     	 bx lr
 114              	 .cfi_endproc
 115              	.LFE8:
 117              	 .section .text.eckey_free_wrap,"ax",%progbits
 118              	 .align 1
 119              	 .code 16
 120              	 .thumb_func
 122              	eckey_free_wrap:
 123              	.LFB6:
 396:C:/Workspace/DAVE-4.4.2-64Bit/optiga-trust-m/externals/mbedtls/library\pk_wrap.c ****     mbedtls_ecp_keypair_free( (mbedtls_ecp_keypair *) ctx );
 124              	 .loc 1 396 0
 125              	 .cfi_startproc
 126              	.LVL8:
 127 0000 10B5     	 push {r4,lr}
 128              	.LCFI0:
 129              	 .cfi_def_cfa_offset 8
 130              	 .cfi_offset 4,-8
 131              	 .cfi_offset 14,-4
 396:C:/Workspace/DAVE-4.4.2-64Bit/optiga-trust-m/externals/mbedtls/library\pk_wrap.c ****     mbedtls_ecp_keypair_free( (mbedtls_ecp_keypair *) ctx );
 132              	 .loc 1 396 0
 133 0002 041C     	 mov r4,r0
 397:C:/Workspace/DAVE-4.4.2-64Bit/optiga-trust-m/externals/mbedtls/library\pk_wrap.c ****     mbedtls_free( ctx );
 134              	 .loc 1 397 0
 135 0004 FFF7FEFF 	 bl mbedtls_ecp_keypair_free
 136              	.LVL9:
 398:C:/Workspace/DAVE-4.4.2-64Bit/optiga-trust-m/externals/mbedtls/library\pk_wrap.c **** }
 137              	 .loc 1 398 0
 138 0008 201C     	 mov r0,r4
 139 000a FFF7FEFF 	 bl free
 140              	.LVL10:
 399:C:/Workspace/DAVE-4.4.2-64Bit/optiga-trust-m/externals/mbedtls/library\pk_wrap.c **** 
 141              	 .loc 1 399 0
 142              	 
 143              	.LVL11:
 144 000e 10BD     	 pop {r4,pc}
 145              	 .cfi_endproc
 146              	.LFE6:
 148              	 .section .text.eckey_alloc_wrap,"ax",%progbits
 149              	 .align 1
 150              	 .code 16
 151              	 .thumb_func
 153              	eckey_alloc_wrap:
 154              	.LFB5:
 386:C:/Workspace/DAVE-4.4.2-64Bit/optiga-trust-m/externals/mbedtls/library\pk_wrap.c ****     void *ctx = mbedtls_calloc( 1, sizeof( mbedtls_ecp_keypair ) );
 155              	 .loc 1 386 0
 156              	 .cfi_startproc
 157 0000 10B5     	 push {r4,lr}
 158              	.LCFI1:
 159              	 .cfi_def_cfa_offset 8
 160              	 .cfi_offset 4,-8
 161              	 .cfi_offset 14,-4
 387:C:/Workspace/DAVE-4.4.2-64Bit/optiga-trust-m/externals/mbedtls/library\pk_wrap.c **** 
 162              	 .loc 1 387 0
 163 0002 0120     	 mov r0,#1
 164 0004 AC21     	 mov r1,#172
 165 0006 FFF7FEFF 	 bl calloc
 166              	.LVL12:
 167 000a 041E     	 sub r4,r0,#0
 168              	.LVL13:
 389:C:/Workspace/DAVE-4.4.2-64Bit/optiga-trust-m/externals/mbedtls/library\pk_wrap.c ****         mbedtls_ecp_keypair_init( ctx );
 169              	 .loc 1 389 0
 170 000c 01D0     	 beq .L9
 390:C:/Workspace/DAVE-4.4.2-64Bit/optiga-trust-m/externals/mbedtls/library\pk_wrap.c **** 
 171              	 .loc 1 390 0
 172 000e FFF7FEFF 	 bl mbedtls_ecp_keypair_init
 173              	.LVL14:
 174              	.L9:
 393:C:/Workspace/DAVE-4.4.2-64Bit/optiga-trust-m/externals/mbedtls/library\pk_wrap.c **** 
 175              	 .loc 1 393 0
 176 0012 201C     	 mov r0,r4
 177              	 
 178              	.LVL15:
 179 0014 10BD     	 pop {r4,pc}
 180              	 .cfi_endproc
 181              	.LFE5:
 183              	 .section .text.eckey_check_pair,"ax",%progbits
 184              	 .align 1
 185              	 .code 16
 186              	 .thumb_func
 188              	eckey_check_pair:
 189              	.LFB4:
 380:C:/Workspace/DAVE-4.4.2-64Bit/optiga-trust-m/externals/mbedtls/library\pk_wrap.c ****     return( mbedtls_ecp_check_pub_priv( (const mbedtls_ecp_keypair *) pub,
 190              	 .loc 1 380 0
 191              	 .cfi_startproc
 192              	.LVL16:
 193 0000 08B5     	 push {r3,lr}
 194              	.LCFI2:
 195              	 .cfi_def_cfa_offset 8
 196              	 .cfi_offset 3,-8
 197              	 .cfi_offset 14,-4
 381:C:/Workspace/DAVE-4.4.2-64Bit/optiga-trust-m/externals/mbedtls/library\pk_wrap.c ****                                 (const mbedtls_ecp_keypair *) prv ) );
 198              	 .loc 1 381 0
 199 0002 FFF7FEFF 	 bl mbedtls_ecp_check_pub_priv
 200              	.LVL17:
 383:C:/Workspace/DAVE-4.4.2-64Bit/optiga-trust-m/externals/mbedtls/library\pk_wrap.c **** 
 201              	 .loc 1 383 0
 202              	 
 203 0006 08BD     	 pop {r3,pc}
 204              	 .cfi_endproc
 205              	.LFE4:
 207              	 .global mbedtls_eckeydh_info
 208              	 .global mbedtls_eckey_info
 209              	 .section .rodata.str1.1,"aMS",%progbits,1
 210              	.LC0:
 211 0000 65636B65 	 .ascii "eckey.Q\000"
 211      792E5100 
 212              	.LC2:
 213 0008 45435F44 	 .ascii "EC_DH\000"
 213      4800
 214              	.LC3:
 215 000e 454300   	 .ascii "EC\000"
 216              	 .section .rodata.mbedtls_eckeydh_info,"a",%progbits
 217              	 .align 2
 220              	mbedtls_eckeydh_info:
 221 0000 03       	 .byte 3
 222 0001 000000   	 .space 3
 223 0004 08000000 	 .word .LC2
 224 0008 00000000 	 .word eckey_get_bitlen
 225 000c 00000000 	 .word eckeydh_can_do
 226 0010 00000000 	 .word 0
 227 0014 00000000 	 .word 0
 228 0018 00000000 	 .word 0
 229 001c 00000000 	 .word 0
 230 0020 00000000 	 .word eckey_check_pair
 231 0024 00000000 	 .word eckey_alloc_wrap
 232 0028 00000000 	 .word eckey_free_wrap
 233 002c 00000000 	 .word eckey_debug
 234              	 .section .rodata.mbedtls_eckey_info,"a",%progbits
 235              	 .align 2
 238              	mbedtls_eckey_info:
 239 0000 02       	 .byte 2
 240 0001 000000   	 .space 3
 241 0004 0E000000 	 .word .LC3
 242 0008 00000000 	 .word eckey_get_bitlen
 243 000c 00000000 	 .word eckey_can_do
 244 0010 00000000 	 .word 0
 245 0014 00000000 	 .word 0
 246 0018 00000000 	 .word 0
 247 001c 00000000 	 .word 0
 248 0020 00000000 	 .word eckey_check_pair
 249 0024 00000000 	 .word eckey_alloc_wrap
 250 0028 00000000 	 .word eckey_free_wrap
 251 002c 00000000 	 .word eckey_debug
 252              	 .text
 253              	.Letext0:
 254              	 .file 2 "c:\\dave_4-4-2_64bit\\dave-ide-4.4.2-64bit\\eclipse\\arm-gcc-49\\lib\\gcc\\arm-none-eabi\\4.9.3\\include\\stddef.h"
 255              	 .file 3 "C:/Workspace/DAVE-4.4.2-64Bit/optiga-trust-m/externals/mbedtls/include/mbedtls/md.h"
 256              	 .file 4 "c:\\dave_4-4-2_64bit\\dave-ide-4.4.2-64bit\\eclipse\\arm-gcc-49\\arm-none-eabi\\include\\machine\\_default_types.h"
 257              	 .file 5 "c:\\dave_4-4-2_64bit\\dave-ide-4.4.2-64bit\\eclipse\\arm-gcc-49\\arm-none-eabi\\include\\stdint.h"
 258              	 .file 6 "C:/Workspace/DAVE-4.4.2-64Bit/optiga-trust-m/externals/mbedtls/include/mbedtls/bignum.h"
 259              	 .file 7 "C:/Workspace/DAVE-4.4.2-64Bit/optiga-trust-m/externals/mbedtls/include/mbedtls/ecp.h"
 260              	 .file 8 "C:/Workspace/DAVE-4.4.2-64Bit/optiga-trust-m/externals/mbedtls/include/mbedtls/pk.h"
 261              	 .file 9 "C:/Workspace/DAVE-4.4.2-64Bit/optiga-trust-m/externals/mbedtls/include/mbedtls/pk_internal.h"
 262              	 .file 10 "c:\\dave_4-4-2_64bit\\dave-ide-4.4.2-64bit\\eclipse\\arm-gcc-49\\arm-none-eabi\\include\\stdlib.h"