   1              	 .cpu cortex-m0
   2              	 .fpu softvfp
   3              	 .eabi_attribute 20,1
   4              	 .eabi_attribute 21,1
   5              	 .eabi_attribute 23,3
   6              	 .eabi_attribute 24,1
   7              	 .eabi_attribute 25,1
   8              	 .eabi_attribute 26,1
   9              	 .eabi_attribute 30,4
  10              	 .eabi_attribute 34,0
  11              	 .eabi_attribute 18,4
  12              	 .code 16
  13              	 .file "pkparse.c"
  14              	 .text
  15              	.Ltext0:
  16              	 .cfi_sections .debug_frame
  17              	 .section .text.pk_use_ecparams,"ax",%progbits
  18              	 .align 1
  19              	 .code 16
  20              	 .thumb_func
  22              	pk_use_ecparams:
  23              	.LFB10:
  24              	 .file 1 "C:/Workspace/DAVE-4.4.2-64Bit/optiga-trust-m/externals/mbedtls/library/pkparse.c"
   1:C:/Workspace/DAVE-4.4.2-64Bit/optiga-trust-m/externals/mbedtls/library\pkparse.c **** /*
   2:C:/Workspace/DAVE-4.4.2-64Bit/optiga-trust-m/externals/mbedtls/library\pkparse.c ****  *  Public Key layer for parsing key files and structures
   3:C:/Workspace/DAVE-4.4.2-64Bit/optiga-trust-m/externals/mbedtls/library\pkparse.c ****  *
   4:C:/Workspace/DAVE-4.4.2-64Bit/optiga-trust-m/externals/mbedtls/library\pkparse.c ****  *  Copyright (C) 2006-2015, ARM Limited, All Rights Reserved
   5:C:/Workspace/DAVE-4.4.2-64Bit/optiga-trust-m/externals/mbedtls/library\pkparse.c ****  *  SPDX-License-Identifier: Apache-2.0
   6:C:/Workspace/DAVE-4.4.2-64Bit/optiga-trust-m/externals/mbedtls/library\pkparse.c ****  *
   7:C:/Workspace/DAVE-4.4.2-64Bit/optiga-trust-m/externals/mbedtls/library\pkparse.c ****  *  Licensed under the Apache License, Version 2.0 (the "License"); you may
   8:C:/Workspace/DAVE-4.4.2-64Bit/optiga-trust-m/externals/mbedtls/library\pkparse.c ****  *  not use this file except in compliance with the License.
   9:C:/Workspace/DAVE-4.4.2-64Bit/optiga-trust-m/externals/mbedtls/library\pkparse.c ****  *  You may obtain a copy of the License at
  10:C:/Workspace/DAVE-4.4.2-64Bit/optiga-trust-m/externals/mbedtls/library\pkparse.c ****  *
  11:C:/Workspace/DAVE-4.4.2-64Bit/optiga-trust-m/externals/mbedtls/library\pkparse.c ****  *  http://www.apache.org/licenses/LICENSE-2.0
  12:C:/Workspace/DAVE-4.4.2-64Bit/optiga-trust-m/externals/mbedtls/library\pkparse.c ****  *
  13:C:/Workspace/DAVE-4.4.2-64Bit/optiga-trust-m/externals/mbedtls/library\pkparse.c ****  *  Unless required by applicable law or agreed to in writing, software
  14:C:/Workspace/DAVE-4.4.2-64Bit/optiga-trust-m/externals/mbedtls/library\pkparse.c ****  *  distributed under the License is distributed on an "AS IS" BASIS, WITHOUT
  15:C:/Workspace/DAVE-4.4.2-64Bit/optiga-trust-m/externals/mbedtls/library\pkparse.c ****  *  WARRANTIES OR CONDITIONS OF ANY KIND, either express or implied.
  16:C:/Workspace/DAVE-4.4.2-64Bit/optiga-trust-m/externals/mbedtls/library\pkparse.c ****  *  See the License for the specific language governing permissions and
  17:C:/Workspace/DAVE-4.4.2-64Bit/optiga-trust-m/externals/mbedtls/library\pkparse.c ****  *  limitations under the License.
  18:C:/Workspace/DAVE-4.4.2-64Bit/optiga-trust-m/externals/mbedtls/library\pkparse.c ****  *
  19:C:/Workspace/DAVE-4.4.2-64Bit/optiga-trust-m/externals/mbedtls/library\pkparse.c ****  *  This file is part of mbed TLS (https://tls.mbed.org)
  20:C:/Workspace/DAVE-4.4.2-64Bit/optiga-trust-m/externals/mbedtls/library\pkparse.c ****  */
  21:C:/Workspace/DAVE-4.4.2-64Bit/optiga-trust-m/externals/mbedtls/library\pkparse.c **** 
  22:C:/Workspace/DAVE-4.4.2-64Bit/optiga-trust-m/externals/mbedtls/library\pkparse.c **** #if !defined(MBEDTLS_CONFIG_FILE)
  23:C:/Workspace/DAVE-4.4.2-64Bit/optiga-trust-m/externals/mbedtls/library\pkparse.c **** #include "mbedtls/config.h"
  24:C:/Workspace/DAVE-4.4.2-64Bit/optiga-trust-m/externals/mbedtls/library\pkparse.c **** #else
  25:C:/Workspace/DAVE-4.4.2-64Bit/optiga-trust-m/externals/mbedtls/library\pkparse.c **** #include MBEDTLS_CONFIG_FILE
  26:C:/Workspace/DAVE-4.4.2-64Bit/optiga-trust-m/externals/mbedtls/library\pkparse.c **** #endif
  27:C:/Workspace/DAVE-4.4.2-64Bit/optiga-trust-m/externals/mbedtls/library\pkparse.c **** 
  28:C:/Workspace/DAVE-4.4.2-64Bit/optiga-trust-m/externals/mbedtls/library\pkparse.c **** #if defined(MBEDTLS_PK_PARSE_C)
  29:C:/Workspace/DAVE-4.4.2-64Bit/optiga-trust-m/externals/mbedtls/library\pkparse.c **** 
  30:C:/Workspace/DAVE-4.4.2-64Bit/optiga-trust-m/externals/mbedtls/library\pkparse.c **** #include "mbedtls/pk.h"
  31:C:/Workspace/DAVE-4.4.2-64Bit/optiga-trust-m/externals/mbedtls/library\pkparse.c **** #include "mbedtls/asn1.h"
  32:C:/Workspace/DAVE-4.4.2-64Bit/optiga-trust-m/externals/mbedtls/library\pkparse.c **** #include "mbedtls/oid.h"
  33:C:/Workspace/DAVE-4.4.2-64Bit/optiga-trust-m/externals/mbedtls/library\pkparse.c **** #include "mbedtls/platform_util.h"
  34:C:/Workspace/DAVE-4.4.2-64Bit/optiga-trust-m/externals/mbedtls/library\pkparse.c **** 
  35:C:/Workspace/DAVE-4.4.2-64Bit/optiga-trust-m/externals/mbedtls/library\pkparse.c **** #include <string.h>
  36:C:/Workspace/DAVE-4.4.2-64Bit/optiga-trust-m/externals/mbedtls/library\pkparse.c **** 
  37:C:/Workspace/DAVE-4.4.2-64Bit/optiga-trust-m/externals/mbedtls/library\pkparse.c **** #if defined(MBEDTLS_RSA_C)
  38:C:/Workspace/DAVE-4.4.2-64Bit/optiga-trust-m/externals/mbedtls/library\pkparse.c **** #include "mbedtls/rsa.h"
  39:C:/Workspace/DAVE-4.4.2-64Bit/optiga-trust-m/externals/mbedtls/library\pkparse.c **** #endif
  40:C:/Workspace/DAVE-4.4.2-64Bit/optiga-trust-m/externals/mbedtls/library\pkparse.c **** #if defined(MBEDTLS_ECP_C)
  41:C:/Workspace/DAVE-4.4.2-64Bit/optiga-trust-m/externals/mbedtls/library\pkparse.c **** #include "mbedtls/ecp.h"
  42:C:/Workspace/DAVE-4.4.2-64Bit/optiga-trust-m/externals/mbedtls/library\pkparse.c **** #endif
  43:C:/Workspace/DAVE-4.4.2-64Bit/optiga-trust-m/externals/mbedtls/library\pkparse.c **** #if defined(MBEDTLS_ECDSA_C)
  44:C:/Workspace/DAVE-4.4.2-64Bit/optiga-trust-m/externals/mbedtls/library\pkparse.c **** #include "mbedtls/ecdsa.h"
  45:C:/Workspace/DAVE-4.4.2-64Bit/optiga-trust-m/externals/mbedtls/library\pkparse.c **** #endif
  46:C:/Workspace/DAVE-4.4.2-64Bit/optiga-trust-m/externals/mbedtls/library\pkparse.c **** #if defined(MBEDTLS_PEM_PARSE_C)
  47:C:/Workspace/DAVE-4.4.2-64Bit/optiga-trust-m/externals/mbedtls/library\pkparse.c **** #include "mbedtls/pem.h"
  48:C:/Workspace/DAVE-4.4.2-64Bit/optiga-trust-m/externals/mbedtls/library\pkparse.c **** #endif
  49:C:/Workspace/DAVE-4.4.2-64Bit/optiga-trust-m/externals/mbedtls/library\pkparse.c **** #if defined(MBEDTLS_PKCS5_C)
  50:C:/Workspace/DAVE-4.4.2-64Bit/optiga-trust-m/externals/mbedtls/library\pkparse.c **** #include "mbedtls/pkcs5.h"
  51:C:/Workspace/DAVE-4.4.2-64Bit/optiga-trust-m/externals/mbedtls/library\pkparse.c **** #endif
  52:C:/Workspace/DAVE-4.4.2-64Bit/optiga-trust-m/externals/mbedtls/library\pkparse.c **** #if defined(MBEDTLS_PKCS12_C)
  53:C:/Workspace/DAVE-4.4.2-64Bit/optiga-trust-m/externals/mbedtls/library\pkparse.c **** #include "mbedtls/pkcs12.h"
  54:C:/Workspace/DAVE-4.4.2-64Bit/optiga-trust-m/externals/mbedtls/library\pkparse.c **** #endif
  55:C:/Workspace/DAVE-4.4.2-64Bit/optiga-trust-m/externals/mbedtls/library\pkparse.c **** 
  56:C:/Workspace/DAVE-4.4.2-64Bit/optiga-trust-m/externals/mbedtls/library\pkparse.c **** #if defined(MBEDTLS_PLATFORM_C)
  57:C:/Workspace/DAVE-4.4.2-64Bit/optiga-trust-m/externals/mbedtls/library\pkparse.c **** #include "mbedtls/platform.h"
  58:C:/Workspace/DAVE-4.4.2-64Bit/optiga-trust-m/externals/mbedtls/library\pkparse.c **** #else
  59:C:/Workspace/DAVE-4.4.2-64Bit/optiga-trust-m/externals/mbedtls/library\pkparse.c **** #include <stdlib.h>
  60:C:/Workspace/DAVE-4.4.2-64Bit/optiga-trust-m/externals/mbedtls/library\pkparse.c **** #define mbedtls_calloc    calloc
  61:C:/Workspace/DAVE-4.4.2-64Bit/optiga-trust-m/externals/mbedtls/library\pkparse.c **** #define mbedtls_free       free
  62:C:/Workspace/DAVE-4.4.2-64Bit/optiga-trust-m/externals/mbedtls/library\pkparse.c **** #endif
  63:C:/Workspace/DAVE-4.4.2-64Bit/optiga-trust-m/externals/mbedtls/library\pkparse.c **** 
  64:C:/Workspace/DAVE-4.4.2-64Bit/optiga-trust-m/externals/mbedtls/library\pkparse.c **** /* Parameter validation macros based on platform_util.h */
  65:C:/Workspace/DAVE-4.4.2-64Bit/optiga-trust-m/externals/mbedtls/library\pkparse.c **** #define PK_VALIDATE_RET( cond )    \
  66:C:/Workspace/DAVE-4.4.2-64Bit/optiga-trust-m/externals/mbedtls/library\pkparse.c ****     MBEDTLS_INTERNAL_VALIDATE_RET( cond, MBEDTLS_ERR_PK_BAD_INPUT_DATA )
  67:C:/Workspace/DAVE-4.4.2-64Bit/optiga-trust-m/externals/mbedtls/library\pkparse.c **** #define PK_VALIDATE( cond )        \
  68:C:/Workspace/DAVE-4.4.2-64Bit/optiga-trust-m/externals/mbedtls/library\pkparse.c ****     MBEDTLS_INTERNAL_VALIDATE( cond )
  69:C:/Workspace/DAVE-4.4.2-64Bit/optiga-trust-m/externals/mbedtls/library\pkparse.c **** 
  70:C:/Workspace/DAVE-4.4.2-64Bit/optiga-trust-m/externals/mbedtls/library\pkparse.c **** #if defined(MBEDTLS_FS_IO)
  71:C:/Workspace/DAVE-4.4.2-64Bit/optiga-trust-m/externals/mbedtls/library\pkparse.c **** /*
  72:C:/Workspace/DAVE-4.4.2-64Bit/optiga-trust-m/externals/mbedtls/library\pkparse.c ****  * Load all data from a file into a given buffer.
  73:C:/Workspace/DAVE-4.4.2-64Bit/optiga-trust-m/externals/mbedtls/library\pkparse.c ****  *
  74:C:/Workspace/DAVE-4.4.2-64Bit/optiga-trust-m/externals/mbedtls/library\pkparse.c ****  * The file is expected to contain either PEM or DER encoded data.
  75:C:/Workspace/DAVE-4.4.2-64Bit/optiga-trust-m/externals/mbedtls/library\pkparse.c ****  * A terminating null byte is always appended. It is included in the announced
  76:C:/Workspace/DAVE-4.4.2-64Bit/optiga-trust-m/externals/mbedtls/library\pkparse.c ****  * length only if the data looks like it is PEM encoded.
  77:C:/Workspace/DAVE-4.4.2-64Bit/optiga-trust-m/externals/mbedtls/library\pkparse.c ****  */
  78:C:/Workspace/DAVE-4.4.2-64Bit/optiga-trust-m/externals/mbedtls/library\pkparse.c **** int mbedtls_pk_load_file( const char *path, unsigned char **buf, size_t *n )
  79:C:/Workspace/DAVE-4.4.2-64Bit/optiga-trust-m/externals/mbedtls/library\pkparse.c **** {
  80:C:/Workspace/DAVE-4.4.2-64Bit/optiga-trust-m/externals/mbedtls/library\pkparse.c ****     FILE *f;
  81:C:/Workspace/DAVE-4.4.2-64Bit/optiga-trust-m/externals/mbedtls/library\pkparse.c ****     long size;
  82:C:/Workspace/DAVE-4.4.2-64Bit/optiga-trust-m/externals/mbedtls/library\pkparse.c **** 
  83:C:/Workspace/DAVE-4.4.2-64Bit/optiga-trust-m/externals/mbedtls/library\pkparse.c ****     PK_VALIDATE_RET( path != NULL );
  84:C:/Workspace/DAVE-4.4.2-64Bit/optiga-trust-m/externals/mbedtls/library\pkparse.c ****     PK_VALIDATE_RET( buf != NULL );
  85:C:/Workspace/DAVE-4.4.2-64Bit/optiga-trust-m/externals/mbedtls/library\pkparse.c ****     PK_VALIDATE_RET( n != NULL );
  86:C:/Workspace/DAVE-4.4.2-64Bit/optiga-trust-m/externals/mbedtls/library\pkparse.c **** 
  87:C:/Workspace/DAVE-4.4.2-64Bit/optiga-trust-m/externals/mbedtls/library\pkparse.c ****     if( ( f = fopen( path, "rb" ) ) == NULL )
  88:C:/Workspace/DAVE-4.4.2-64Bit/optiga-trust-m/externals/mbedtls/library\pkparse.c ****         return( MBEDTLS_ERR_PK_FILE_IO_ERROR );
  89:C:/Workspace/DAVE-4.4.2-64Bit/optiga-trust-m/externals/mbedtls/library\pkparse.c **** 
  90:C:/Workspace/DAVE-4.4.2-64Bit/optiga-trust-m/externals/mbedtls/library\pkparse.c ****     fseek( f, 0, SEEK_END );
  91:C:/Workspace/DAVE-4.4.2-64Bit/optiga-trust-m/externals/mbedtls/library\pkparse.c ****     if( ( size = ftell( f ) ) == -1 )
  92:C:/Workspace/DAVE-4.4.2-64Bit/optiga-trust-m/externals/mbedtls/library\pkparse.c ****     {
  93:C:/Workspace/DAVE-4.4.2-64Bit/optiga-trust-m/externals/mbedtls/library\pkparse.c ****         fclose( f );
  94:C:/Workspace/DAVE-4.4.2-64Bit/optiga-trust-m/externals/mbedtls/library\pkparse.c ****         return( MBEDTLS_ERR_PK_FILE_IO_ERROR );
  95:C:/Workspace/DAVE-4.4.2-64Bit/optiga-trust-m/externals/mbedtls/library\pkparse.c ****     }
  96:C:/Workspace/DAVE-4.4.2-64Bit/optiga-trust-m/externals/mbedtls/library\pkparse.c ****     fseek( f, 0, SEEK_SET );
  97:C:/Workspace/DAVE-4.4.2-64Bit/optiga-trust-m/externals/mbedtls/library\pkparse.c **** 
  98:C:/Workspace/DAVE-4.4.2-64Bit/optiga-trust-m/externals/mbedtls/library\pkparse.c ****     *n = (size_t) size;
  99:C:/Workspace/DAVE-4.4.2-64Bit/optiga-trust-m/externals/mbedtls/library\pkparse.c **** 
 100:C:/Workspace/DAVE-4.4.2-64Bit/optiga-trust-m/externals/mbedtls/library\pkparse.c ****     if( *n + 1 == 0 ||
 101:C:/Workspace/DAVE-4.4.2-64Bit/optiga-trust-m/externals/mbedtls/library\pkparse.c ****         ( *buf = mbedtls_calloc( 1, *n + 1 ) ) == NULL )
 102:C:/Workspace/DAVE-4.4.2-64Bit/optiga-trust-m/externals/mbedtls/library\pkparse.c ****     {
 103:C:/Workspace/DAVE-4.4.2-64Bit/optiga-trust-m/externals/mbedtls/library\pkparse.c ****         fclose( f );
 104:C:/Workspace/DAVE-4.4.2-64Bit/optiga-trust-m/externals/mbedtls/library\pkparse.c ****         return( MBEDTLS_ERR_PK_ALLOC_FAILED );
 105:C:/Workspace/DAVE-4.4.2-64Bit/optiga-trust-m/externals/mbedtls/library\pkparse.c ****     }
 106:C:/Workspace/DAVE-4.4.2-64Bit/optiga-trust-m/externals/mbedtls/library\pkparse.c **** 
 107:C:/Workspace/DAVE-4.4.2-64Bit/optiga-trust-m/externals/mbedtls/library\pkparse.c ****     if( fread( *buf, 1, *n, f ) != *n )
 108:C:/Workspace/DAVE-4.4.2-64Bit/optiga-trust-m/externals/mbedtls/library\pkparse.c ****     {
 109:C:/Workspace/DAVE-4.4.2-64Bit/optiga-trust-m/externals/mbedtls/library\pkparse.c ****         fclose( f );
 110:C:/Workspace/DAVE-4.4.2-64Bit/optiga-trust-m/externals/mbedtls/library\pkparse.c **** 
 111:C:/Workspace/DAVE-4.4.2-64Bit/optiga-trust-m/externals/mbedtls/library\pkparse.c ****         mbedtls_platform_zeroize( *buf, *n );
 112:C:/Workspace/DAVE-4.4.2-64Bit/optiga-trust-m/externals/mbedtls/library\pkparse.c ****         mbedtls_free( *buf );
 113:C:/Workspace/DAVE-4.4.2-64Bit/optiga-trust-m/externals/mbedtls/library\pkparse.c **** 
 114:C:/Workspace/DAVE-4.4.2-64Bit/optiga-trust-m/externals/mbedtls/library\pkparse.c ****         return( MBEDTLS_ERR_PK_FILE_IO_ERROR );
 115:C:/Workspace/DAVE-4.4.2-64Bit/optiga-trust-m/externals/mbedtls/library\pkparse.c ****     }
 116:C:/Workspace/DAVE-4.4.2-64Bit/optiga-trust-m/externals/mbedtls/library\pkparse.c **** 
 117:C:/Workspace/DAVE-4.4.2-64Bit/optiga-trust-m/externals/mbedtls/library\pkparse.c ****     fclose( f );
 118:C:/Workspace/DAVE-4.4.2-64Bit/optiga-trust-m/externals/mbedtls/library\pkparse.c **** 
 119:C:/Workspace/DAVE-4.4.2-64Bit/optiga-trust-m/externals/mbedtls/library\pkparse.c ****     (*buf)[*n] = '\0';
 120:C:/Workspace/DAVE-4.4.2-64Bit/optiga-trust-m/externals/mbedtls/library\pkparse.c **** 
 121:C:/Workspace/DAVE-4.4.2-64Bit/optiga-trust-m/externals/mbedtls/library\pkparse.c ****     if( strstr( (const char *) *buf, "-----BEGIN " ) != NULL )
 122:C:/Workspace/DAVE-4.4.2-64Bit/optiga-trust-m/externals/mbedtls/library\pkparse.c ****         ++*n;
 123:C:/Workspace/DAVE-4.4.2-64Bit/optiga-trust-m/externals/mbedtls/library\pkparse.c **** 
 124:C:/Workspace/DAVE-4.4.2-64Bit/optiga-trust-m/externals/mbedtls/library\pkparse.c ****     return( 0 );
 125:C:/Workspace/DAVE-4.4.2-64Bit/optiga-trust-m/externals/mbedtls/library\pkparse.c **** }
 126:C:/Workspace/DAVE-4.4.2-64Bit/optiga-trust-m/externals/mbedtls/library\pkparse.c **** 
 127:C:/Workspace/DAVE-4.4.2-64Bit/optiga-trust-m/externals/mbedtls/library\pkparse.c **** /*
 128:C:/Workspace/DAVE-4.4.2-64Bit/optiga-trust-m/externals/mbedtls/library\pkparse.c ****  * Load and parse a private key
 129:C:/Workspace/DAVE-4.4.2-64Bit/optiga-trust-m/externals/mbedtls/library\pkparse.c ****  */
 130:C:/Workspace/DAVE-4.4.2-64Bit/optiga-trust-m/externals/mbedtls/library\pkparse.c **** int mbedtls_pk_parse_keyfile( mbedtls_pk_context *ctx,
 131:C:/Workspace/DAVE-4.4.2-64Bit/optiga-trust-m/externals/mbedtls/library\pkparse.c ****                       const char *path, const char *pwd )
 132:C:/Workspace/DAVE-4.4.2-64Bit/optiga-trust-m/externals/mbedtls/library\pkparse.c **** {
 133:C:/Workspace/DAVE-4.4.2-64Bit/optiga-trust-m/externals/mbedtls/library\pkparse.c ****     int ret;
 134:C:/Workspace/DAVE-4.4.2-64Bit/optiga-trust-m/externals/mbedtls/library\pkparse.c ****     size_t n;
 135:C:/Workspace/DAVE-4.4.2-64Bit/optiga-trust-m/externals/mbedtls/library\pkparse.c ****     unsigned char *buf;
 136:C:/Workspace/DAVE-4.4.2-64Bit/optiga-trust-m/externals/mbedtls/library\pkparse.c **** 
 137:C:/Workspace/DAVE-4.4.2-64Bit/optiga-trust-m/externals/mbedtls/library\pkparse.c ****     PK_VALIDATE_RET( ctx != NULL );
 138:C:/Workspace/DAVE-4.4.2-64Bit/optiga-trust-m/externals/mbedtls/library\pkparse.c ****     PK_VALIDATE_RET( path != NULL );
 139:C:/Workspace/DAVE-4.4.2-64Bit/optiga-trust-m/externals/mbedtls/library\pkparse.c **** 
 140:C:/Workspace/DAVE-4.4.2-64Bit/optiga-trust-m/externals/mbedtls/library\pkparse.c ****     if( ( ret = mbedtls_pk_load_file( path, &buf, &n ) ) != 0 )
 141:C:/Workspace/DAVE-4.4.2-64Bit/optiga-trust-m/externals/mbedtls/library\pkparse.c ****         return( ret );
 142:C:/Workspace/DAVE-4.4.2-64Bit/optiga-trust-m/externals/mbedtls/library\pkparse.c **** 
 143:C:/Workspace/DAVE-4.4.2-64Bit/optiga-trust-m/externals/mbedtls/library\pkparse.c ****     if( pwd == NULL )
 144:C:/Workspace/DAVE-4.4.2-64Bit/optiga-trust-m/externals/mbedtls/library\pkparse.c ****         ret = mbedtls_pk_parse_key( ctx, buf, n, NULL, 0 );
 145:C:/Workspace/DAVE-4.4.2-64Bit/optiga-trust-m/externals/mbedtls/library\pkparse.c ****     else
 146:C:/Workspace/DAVE-4.4.2-64Bit/optiga-trust-m/externals/mbedtls/library\pkparse.c ****         ret = mbedtls_pk_parse_key( ctx, buf, n,
 147:C:/Workspace/DAVE-4.4.2-64Bit/optiga-trust-m/externals/mbedtls/library\pkparse.c ****                 (const unsigned char *) pwd, strlen( pwd ) );
 148:C:/Workspace/DAVE-4.4.2-64Bit/optiga-trust-m/externals/mbedtls/library\pkparse.c **** 
 149:C:/Workspace/DAVE-4.4.2-64Bit/optiga-trust-m/externals/mbedtls/library\pkparse.c ****     mbedtls_platform_zeroize( buf, n );
 150:C:/Workspace/DAVE-4.4.2-64Bit/optiga-trust-m/externals/mbedtls/library\pkparse.c ****     mbedtls_free( buf );
 151:C:/Workspace/DAVE-4.4.2-64Bit/optiga-trust-m/externals/mbedtls/library\pkparse.c **** 
 152:C:/Workspace/DAVE-4.4.2-64Bit/optiga-trust-m/externals/mbedtls/library\pkparse.c ****     return( ret );
 153:C:/Workspace/DAVE-4.4.2-64Bit/optiga-trust-m/externals/mbedtls/library\pkparse.c **** }
 154:C:/Workspace/DAVE-4.4.2-64Bit/optiga-trust-m/externals/mbedtls/library\pkparse.c **** 
 155:C:/Workspace/DAVE-4.4.2-64Bit/optiga-trust-m/externals/mbedtls/library\pkparse.c **** /*
 156:C:/Workspace/DAVE-4.4.2-64Bit/optiga-trust-m/externals/mbedtls/library\pkparse.c ****  * Load and parse a public key
 157:C:/Workspace/DAVE-4.4.2-64Bit/optiga-trust-m/externals/mbedtls/library\pkparse.c ****  */
 158:C:/Workspace/DAVE-4.4.2-64Bit/optiga-trust-m/externals/mbedtls/library\pkparse.c **** int mbedtls_pk_parse_public_keyfile( mbedtls_pk_context *ctx, const char *path )
 159:C:/Workspace/DAVE-4.4.2-64Bit/optiga-trust-m/externals/mbedtls/library\pkparse.c **** {
 160:C:/Workspace/DAVE-4.4.2-64Bit/optiga-trust-m/externals/mbedtls/library\pkparse.c ****     int ret;
 161:C:/Workspace/DAVE-4.4.2-64Bit/optiga-trust-m/externals/mbedtls/library\pkparse.c ****     size_t n;
 162:C:/Workspace/DAVE-4.4.2-64Bit/optiga-trust-m/externals/mbedtls/library\pkparse.c ****     unsigned char *buf;
 163:C:/Workspace/DAVE-4.4.2-64Bit/optiga-trust-m/externals/mbedtls/library\pkparse.c **** 
 164:C:/Workspace/DAVE-4.4.2-64Bit/optiga-trust-m/externals/mbedtls/library\pkparse.c ****     PK_VALIDATE_RET( ctx != NULL );
 165:C:/Workspace/DAVE-4.4.2-64Bit/optiga-trust-m/externals/mbedtls/library\pkparse.c ****     PK_VALIDATE_RET( path != NULL );
 166:C:/Workspace/DAVE-4.4.2-64Bit/optiga-trust-m/externals/mbedtls/library\pkparse.c **** 
 167:C:/Workspace/DAVE-4.4.2-64Bit/optiga-trust-m/externals/mbedtls/library\pkparse.c ****     if( ( ret = mbedtls_pk_load_file( path, &buf, &n ) ) != 0 )
 168:C:/Workspace/DAVE-4.4.2-64Bit/optiga-trust-m/externals/mbedtls/library\pkparse.c ****         return( ret );
 169:C:/Workspace/DAVE-4.4.2-64Bit/optiga-trust-m/externals/mbedtls/library\pkparse.c **** 
 170:C:/Workspace/DAVE-4.4.2-64Bit/optiga-trust-m/externals/mbedtls/library\pkparse.c ****     ret = mbedtls_pk_parse_public_key( ctx, buf, n );
 171:C:/Workspace/DAVE-4.4.2-64Bit/optiga-trust-m/externals/mbedtls/library\pkparse.c **** 
 172:C:/Workspace/DAVE-4.4.2-64Bit/optiga-trust-m/externals/mbedtls/library\pkparse.c ****     mbedtls_platform_zeroize( buf, n );
 173:C:/Workspace/DAVE-4.4.2-64Bit/optiga-trust-m/externals/mbedtls/library\pkparse.c ****     mbedtls_free( buf );
 174:C:/Workspace/DAVE-4.4.2-64Bit/optiga-trust-m/externals/mbedtls/library\pkparse.c **** 
 175:C:/Workspace/DAVE-4.4.2-64Bit/optiga-trust-m/externals/mbedtls/library\pkparse.c ****     return( ret );
 176:C:/Workspace/DAVE-4.4.2-64Bit/optiga-trust-m/externals/mbedtls/library\pkparse.c **** }
 177:C:/Workspace/DAVE-4.4.2-64Bit/optiga-trust-m/externals/mbedtls/library\pkparse.c **** #endif /* MBEDTLS_FS_IO */
 178:C:/Workspace/DAVE-4.4.2-64Bit/optiga-trust-m/externals/mbedtls/library\pkparse.c **** 
 179:C:/Workspace/DAVE-4.4.2-64Bit/optiga-trust-m/externals/mbedtls/library\pkparse.c **** #if defined(MBEDTLS_ECP_C)
 180:C:/Workspace/DAVE-4.4.2-64Bit/optiga-trust-m/externals/mbedtls/library\pkparse.c **** /* Minimally parse an ECParameters buffer to and mbedtls_asn1_buf
 181:C:/Workspace/DAVE-4.4.2-64Bit/optiga-trust-m/externals/mbedtls/library\pkparse.c ****  *
 182:C:/Workspace/DAVE-4.4.2-64Bit/optiga-trust-m/externals/mbedtls/library\pkparse.c ****  * ECParameters ::= CHOICE {
 183:C:/Workspace/DAVE-4.4.2-64Bit/optiga-trust-m/externals/mbedtls/library\pkparse.c ****  *   namedCurve         OBJECT IDENTIFIER
 184:C:/Workspace/DAVE-4.4.2-64Bit/optiga-trust-m/externals/mbedtls/library\pkparse.c ****  *   specifiedCurve     SpecifiedECDomain -- = SEQUENCE { ... }
 185:C:/Workspace/DAVE-4.4.2-64Bit/optiga-trust-m/externals/mbedtls/library\pkparse.c ****  *   -- implicitCurve   NULL
 186:C:/Workspace/DAVE-4.4.2-64Bit/optiga-trust-m/externals/mbedtls/library\pkparse.c ****  * }
 187:C:/Workspace/DAVE-4.4.2-64Bit/optiga-trust-m/externals/mbedtls/library\pkparse.c ****  */
 188:C:/Workspace/DAVE-4.4.2-64Bit/optiga-trust-m/externals/mbedtls/library\pkparse.c **** static int pk_get_ecparams( unsigned char **p, const unsigned char *end,
 189:C:/Workspace/DAVE-4.4.2-64Bit/optiga-trust-m/externals/mbedtls/library\pkparse.c ****                             mbedtls_asn1_buf *params )
 190:C:/Workspace/DAVE-4.4.2-64Bit/optiga-trust-m/externals/mbedtls/library\pkparse.c **** {
 191:C:/Workspace/DAVE-4.4.2-64Bit/optiga-trust-m/externals/mbedtls/library\pkparse.c ****     int ret;
 192:C:/Workspace/DAVE-4.4.2-64Bit/optiga-trust-m/externals/mbedtls/library\pkparse.c **** 
 193:C:/Workspace/DAVE-4.4.2-64Bit/optiga-trust-m/externals/mbedtls/library\pkparse.c ****     if ( end - *p < 1 )
 194:C:/Workspace/DAVE-4.4.2-64Bit/optiga-trust-m/externals/mbedtls/library\pkparse.c ****         return( MBEDTLS_ERR_PK_KEY_INVALID_FORMAT +
 195:C:/Workspace/DAVE-4.4.2-64Bit/optiga-trust-m/externals/mbedtls/library\pkparse.c ****                 MBEDTLS_ERR_ASN1_OUT_OF_DATA );
 196:C:/Workspace/DAVE-4.4.2-64Bit/optiga-trust-m/externals/mbedtls/library\pkparse.c **** 
 197:C:/Workspace/DAVE-4.4.2-64Bit/optiga-trust-m/externals/mbedtls/library\pkparse.c ****     /* Tag may be either OID or SEQUENCE */
 198:C:/Workspace/DAVE-4.4.2-64Bit/optiga-trust-m/externals/mbedtls/library\pkparse.c ****     params->tag = **p;
 199:C:/Workspace/DAVE-4.4.2-64Bit/optiga-trust-m/externals/mbedtls/library\pkparse.c ****     if( params->tag != MBEDTLS_ASN1_OID
 200:C:/Workspace/DAVE-4.4.2-64Bit/optiga-trust-m/externals/mbedtls/library\pkparse.c **** #if defined(MBEDTLS_PK_PARSE_EC_EXTENDED)
 201:C:/Workspace/DAVE-4.4.2-64Bit/optiga-trust-m/externals/mbedtls/library\pkparse.c ****             && params->tag != ( MBEDTLS_ASN1_CONSTRUCTED | MBEDTLS_ASN1_SEQUENCE )
 202:C:/Workspace/DAVE-4.4.2-64Bit/optiga-trust-m/externals/mbedtls/library\pkparse.c **** #endif
 203:C:/Workspace/DAVE-4.4.2-64Bit/optiga-trust-m/externals/mbedtls/library\pkparse.c ****             )
 204:C:/Workspace/DAVE-4.4.2-64Bit/optiga-trust-m/externals/mbedtls/library\pkparse.c ****     {
 205:C:/Workspace/DAVE-4.4.2-64Bit/optiga-trust-m/externals/mbedtls/library\pkparse.c ****         return( MBEDTLS_ERR_PK_KEY_INVALID_FORMAT +
 206:C:/Workspace/DAVE-4.4.2-64Bit/optiga-trust-m/externals/mbedtls/library\pkparse.c ****                 MBEDTLS_ERR_ASN1_UNEXPECTED_TAG );
 207:C:/Workspace/DAVE-4.4.2-64Bit/optiga-trust-m/externals/mbedtls/library\pkparse.c ****     }
 208:C:/Workspace/DAVE-4.4.2-64Bit/optiga-trust-m/externals/mbedtls/library\pkparse.c **** 
 209:C:/Workspace/DAVE-4.4.2-64Bit/optiga-trust-m/externals/mbedtls/library\pkparse.c ****     if( ( ret = mbedtls_asn1_get_tag( p, end, &params->len, params->tag ) ) != 0 )
 210:C:/Workspace/DAVE-4.4.2-64Bit/optiga-trust-m/externals/mbedtls/library\pkparse.c ****     {
 211:C:/Workspace/DAVE-4.4.2-64Bit/optiga-trust-m/externals/mbedtls/library\pkparse.c ****         return( MBEDTLS_ERR_PK_KEY_INVALID_FORMAT + ret );
 212:C:/Workspace/DAVE-4.4.2-64Bit/optiga-trust-m/externals/mbedtls/library\pkparse.c ****     }
 213:C:/Workspace/DAVE-4.4.2-64Bit/optiga-trust-m/externals/mbedtls/library\pkparse.c **** 
 214:C:/Workspace/DAVE-4.4.2-64Bit/optiga-trust-m/externals/mbedtls/library\pkparse.c ****     params->p = *p;
 215:C:/Workspace/DAVE-4.4.2-64Bit/optiga-trust-m/externals/mbedtls/library\pkparse.c ****     *p += params->len;
 216:C:/Workspace/DAVE-4.4.2-64Bit/optiga-trust-m/externals/mbedtls/library\pkparse.c **** 
 217:C:/Workspace/DAVE-4.4.2-64Bit/optiga-trust-m/externals/mbedtls/library\pkparse.c ****     if( *p != end )
 218:C:/Workspace/DAVE-4.4.2-64Bit/optiga-trust-m/externals/mbedtls/library\pkparse.c ****         return( MBEDTLS_ERR_PK_KEY_INVALID_FORMAT +
 219:C:/Workspace/DAVE-4.4.2-64Bit/optiga-trust-m/externals/mbedtls/library\pkparse.c ****                 MBEDTLS_ERR_ASN1_LENGTH_MISMATCH );
 220:C:/Workspace/DAVE-4.4.2-64Bit/optiga-trust-m/externals/mbedtls/library\pkparse.c **** 
 221:C:/Workspace/DAVE-4.4.2-64Bit/optiga-trust-m/externals/mbedtls/library\pkparse.c ****     return( 0 );
 222:C:/Workspace/DAVE-4.4.2-64Bit/optiga-trust-m/externals/mbedtls/library\pkparse.c **** }
 223:C:/Workspace/DAVE-4.4.2-64Bit/optiga-trust-m/externals/mbedtls/library\pkparse.c **** 
 224:C:/Workspace/DAVE-4.4.2-64Bit/optiga-trust-m/externals/mbedtls/library\pkparse.c **** #if defined(MBEDTLS_PK_PARSE_EC_EXTENDED)
 225:C:/Workspace/DAVE-4.4.2-64Bit/optiga-trust-m/externals/mbedtls/library\pkparse.c **** /*
 226:C:/Workspace/DAVE-4.4.2-64Bit/optiga-trust-m/externals/mbedtls/library\pkparse.c ****  * Parse a SpecifiedECDomain (SEC 1 C.2) and (mostly) fill the group with it.
 227:C:/Workspace/DAVE-4.4.2-64Bit/optiga-trust-m/externals/mbedtls/library\pkparse.c ****  * WARNING: the resulting group should only be used with
 228:C:/Workspace/DAVE-4.4.2-64Bit/optiga-trust-m/externals/mbedtls/library\pkparse.c ****  * pk_group_id_from_specified(), since its base point may not be set correctly
 229:C:/Workspace/DAVE-4.4.2-64Bit/optiga-trust-m/externals/mbedtls/library\pkparse.c ****  * if it was encoded compressed.
 230:C:/Workspace/DAVE-4.4.2-64Bit/optiga-trust-m/externals/mbedtls/library\pkparse.c ****  *
 231:C:/Workspace/DAVE-4.4.2-64Bit/optiga-trust-m/externals/mbedtls/library\pkparse.c ****  *  SpecifiedECDomain ::= SEQUENCE {
 232:C:/Workspace/DAVE-4.4.2-64Bit/optiga-trust-m/externals/mbedtls/library\pkparse.c ****  *      version SpecifiedECDomainVersion(ecdpVer1 | ecdpVer2 | ecdpVer3, ...),
 233:C:/Workspace/DAVE-4.4.2-64Bit/optiga-trust-m/externals/mbedtls/library\pkparse.c ****  *      fieldID FieldID {{FieldTypes}},
 234:C:/Workspace/DAVE-4.4.2-64Bit/optiga-trust-m/externals/mbedtls/library\pkparse.c ****  *      curve Curve,
 235:C:/Workspace/DAVE-4.4.2-64Bit/optiga-trust-m/externals/mbedtls/library\pkparse.c ****  *      base ECPoint,
 236:C:/Workspace/DAVE-4.4.2-64Bit/optiga-trust-m/externals/mbedtls/library\pkparse.c ****  *      order INTEGER,
 237:C:/Workspace/DAVE-4.4.2-64Bit/optiga-trust-m/externals/mbedtls/library\pkparse.c ****  *      cofactor INTEGER OPTIONAL,
 238:C:/Workspace/DAVE-4.4.2-64Bit/optiga-trust-m/externals/mbedtls/library\pkparse.c ****  *      hash HashAlgorithm OPTIONAL,
 239:C:/Workspace/DAVE-4.4.2-64Bit/optiga-trust-m/externals/mbedtls/library\pkparse.c ****  *      ...
 240:C:/Workspace/DAVE-4.4.2-64Bit/optiga-trust-m/externals/mbedtls/library\pkparse.c ****  *  }
 241:C:/Workspace/DAVE-4.4.2-64Bit/optiga-trust-m/externals/mbedtls/library\pkparse.c ****  *
 242:C:/Workspace/DAVE-4.4.2-64Bit/optiga-trust-m/externals/mbedtls/library\pkparse.c ****  * We only support prime-field as field type, and ignore hash and cofactor.
 243:C:/Workspace/DAVE-4.4.2-64Bit/optiga-trust-m/externals/mbedtls/library\pkparse.c ****  */
 244:C:/Workspace/DAVE-4.4.2-64Bit/optiga-trust-m/externals/mbedtls/library\pkparse.c **** static int pk_group_from_specified( const mbedtls_asn1_buf *params, mbedtls_ecp_group *grp )
 245:C:/Workspace/DAVE-4.4.2-64Bit/optiga-trust-m/externals/mbedtls/library\pkparse.c **** {
 246:C:/Workspace/DAVE-4.4.2-64Bit/optiga-trust-m/externals/mbedtls/library\pkparse.c ****     int ret;
 247:C:/Workspace/DAVE-4.4.2-64Bit/optiga-trust-m/externals/mbedtls/library\pkparse.c ****     unsigned char *p = params->p;
 248:C:/Workspace/DAVE-4.4.2-64Bit/optiga-trust-m/externals/mbedtls/library\pkparse.c ****     const unsigned char * const end = params->p + params->len;
 249:C:/Workspace/DAVE-4.4.2-64Bit/optiga-trust-m/externals/mbedtls/library\pkparse.c ****     const unsigned char *end_field, *end_curve;
 250:C:/Workspace/DAVE-4.4.2-64Bit/optiga-trust-m/externals/mbedtls/library\pkparse.c ****     size_t len;
 251:C:/Workspace/DAVE-4.4.2-64Bit/optiga-trust-m/externals/mbedtls/library\pkparse.c ****     int ver;
 252:C:/Workspace/DAVE-4.4.2-64Bit/optiga-trust-m/externals/mbedtls/library\pkparse.c **** 
 253:C:/Workspace/DAVE-4.4.2-64Bit/optiga-trust-m/externals/mbedtls/library\pkparse.c ****     /* SpecifiedECDomainVersion ::= INTEGER { 1, 2, 3 } */
 254:C:/Workspace/DAVE-4.4.2-64Bit/optiga-trust-m/externals/mbedtls/library\pkparse.c ****     if( ( ret = mbedtls_asn1_get_int( &p, end, &ver ) ) != 0 )
 255:C:/Workspace/DAVE-4.4.2-64Bit/optiga-trust-m/externals/mbedtls/library\pkparse.c ****         return( MBEDTLS_ERR_PK_KEY_INVALID_FORMAT + ret );
 256:C:/Workspace/DAVE-4.4.2-64Bit/optiga-trust-m/externals/mbedtls/library\pkparse.c **** 
 257:C:/Workspace/DAVE-4.4.2-64Bit/optiga-trust-m/externals/mbedtls/library\pkparse.c ****     if( ver < 1 || ver > 3 )
 258:C:/Workspace/DAVE-4.4.2-64Bit/optiga-trust-m/externals/mbedtls/library\pkparse.c ****         return( MBEDTLS_ERR_PK_KEY_INVALID_FORMAT );
 259:C:/Workspace/DAVE-4.4.2-64Bit/optiga-trust-m/externals/mbedtls/library\pkparse.c **** 
 260:C:/Workspace/DAVE-4.4.2-64Bit/optiga-trust-m/externals/mbedtls/library\pkparse.c ****     /*
 261:C:/Workspace/DAVE-4.4.2-64Bit/optiga-trust-m/externals/mbedtls/library\pkparse.c ****      * FieldID { FIELD-ID:IOSet } ::= SEQUENCE { -- Finite field
 262:C:/Workspace/DAVE-4.4.2-64Bit/optiga-trust-m/externals/mbedtls/library\pkparse.c ****      *       fieldType FIELD-ID.&id({IOSet}),
 263:C:/Workspace/DAVE-4.4.2-64Bit/optiga-trust-m/externals/mbedtls/library\pkparse.c ****      *       parameters FIELD-ID.&Type({IOSet}{@fieldType})
 264:C:/Workspace/DAVE-4.4.2-64Bit/optiga-trust-m/externals/mbedtls/library\pkparse.c ****      * }
 265:C:/Workspace/DAVE-4.4.2-64Bit/optiga-trust-m/externals/mbedtls/library\pkparse.c ****      */
 266:C:/Workspace/DAVE-4.4.2-64Bit/optiga-trust-m/externals/mbedtls/library\pkparse.c ****     if( ( ret = mbedtls_asn1_get_tag( &p, end, &len,
 267:C:/Workspace/DAVE-4.4.2-64Bit/optiga-trust-m/externals/mbedtls/library\pkparse.c ****             MBEDTLS_ASN1_CONSTRUCTED | MBEDTLS_ASN1_SEQUENCE ) ) != 0 )
 268:C:/Workspace/DAVE-4.4.2-64Bit/optiga-trust-m/externals/mbedtls/library\pkparse.c ****         return( ret );
 269:C:/Workspace/DAVE-4.4.2-64Bit/optiga-trust-m/externals/mbedtls/library\pkparse.c **** 
 270:C:/Workspace/DAVE-4.4.2-64Bit/optiga-trust-m/externals/mbedtls/library\pkparse.c ****     end_field = p + len;
 271:C:/Workspace/DAVE-4.4.2-64Bit/optiga-trust-m/externals/mbedtls/library\pkparse.c **** 
 272:C:/Workspace/DAVE-4.4.2-64Bit/optiga-trust-m/externals/mbedtls/library\pkparse.c ****     /*
 273:C:/Workspace/DAVE-4.4.2-64Bit/optiga-trust-m/externals/mbedtls/library\pkparse.c ****      * FIELD-ID ::= TYPE-IDENTIFIER
 274:C:/Workspace/DAVE-4.4.2-64Bit/optiga-trust-m/externals/mbedtls/library\pkparse.c ****      * FieldTypes FIELD-ID ::= {
 275:C:/Workspace/DAVE-4.4.2-64Bit/optiga-trust-m/externals/mbedtls/library\pkparse.c ****      *       { Prime-p IDENTIFIED BY prime-field } |
 276:C:/Workspace/DAVE-4.4.2-64Bit/optiga-trust-m/externals/mbedtls/library\pkparse.c ****      *       { Characteristic-two IDENTIFIED BY characteristic-two-field }
 277:C:/Workspace/DAVE-4.4.2-64Bit/optiga-trust-m/externals/mbedtls/library\pkparse.c ****      * }
 278:C:/Workspace/DAVE-4.4.2-64Bit/optiga-trust-m/externals/mbedtls/library\pkparse.c ****      * prime-field OBJECT IDENTIFIER ::= { id-fieldType 1 }
 279:C:/Workspace/DAVE-4.4.2-64Bit/optiga-trust-m/externals/mbedtls/library\pkparse.c ****      */
 280:C:/Workspace/DAVE-4.4.2-64Bit/optiga-trust-m/externals/mbedtls/library\pkparse.c ****     if( ( ret = mbedtls_asn1_get_tag( &p, end_field, &len, MBEDTLS_ASN1_OID ) ) != 0 )
 281:C:/Workspace/DAVE-4.4.2-64Bit/optiga-trust-m/externals/mbedtls/library\pkparse.c ****         return( ret );
 282:C:/Workspace/DAVE-4.4.2-64Bit/optiga-trust-m/externals/mbedtls/library\pkparse.c **** 
 283:C:/Workspace/DAVE-4.4.2-64Bit/optiga-trust-m/externals/mbedtls/library\pkparse.c ****     if( len != MBEDTLS_OID_SIZE( MBEDTLS_OID_ANSI_X9_62_PRIME_FIELD ) ||
 284:C:/Workspace/DAVE-4.4.2-64Bit/optiga-trust-m/externals/mbedtls/library\pkparse.c ****         memcmp( p, MBEDTLS_OID_ANSI_X9_62_PRIME_FIELD, len ) != 0 )
 285:C:/Workspace/DAVE-4.4.2-64Bit/optiga-trust-m/externals/mbedtls/library\pkparse.c ****     {
 286:C:/Workspace/DAVE-4.4.2-64Bit/optiga-trust-m/externals/mbedtls/library\pkparse.c ****         return( MBEDTLS_ERR_PK_FEATURE_UNAVAILABLE );
 287:C:/Workspace/DAVE-4.4.2-64Bit/optiga-trust-m/externals/mbedtls/library\pkparse.c ****     }
 288:C:/Workspace/DAVE-4.4.2-64Bit/optiga-trust-m/externals/mbedtls/library\pkparse.c **** 
 289:C:/Workspace/DAVE-4.4.2-64Bit/optiga-trust-m/externals/mbedtls/library\pkparse.c ****     p += len;
 290:C:/Workspace/DAVE-4.4.2-64Bit/optiga-trust-m/externals/mbedtls/library\pkparse.c **** 
 291:C:/Workspace/DAVE-4.4.2-64Bit/optiga-trust-m/externals/mbedtls/library\pkparse.c ****     /* Prime-p ::= INTEGER -- Field of size p. */
 292:C:/Workspace/DAVE-4.4.2-64Bit/optiga-trust-m/externals/mbedtls/library\pkparse.c ****     if( ( ret = mbedtls_asn1_get_mpi( &p, end_field, &grp->P ) ) != 0 )
 293:C:/Workspace/DAVE-4.4.2-64Bit/optiga-trust-m/externals/mbedtls/library\pkparse.c ****         return( MBEDTLS_ERR_PK_KEY_INVALID_FORMAT + ret );
 294:C:/Workspace/DAVE-4.4.2-64Bit/optiga-trust-m/externals/mbedtls/library\pkparse.c **** 
 295:C:/Workspace/DAVE-4.4.2-64Bit/optiga-trust-m/externals/mbedtls/library\pkparse.c ****     grp->pbits = mbedtls_mpi_bitlen( &grp->P );
 296:C:/Workspace/DAVE-4.4.2-64Bit/optiga-trust-m/externals/mbedtls/library\pkparse.c **** 
 297:C:/Workspace/DAVE-4.4.2-64Bit/optiga-trust-m/externals/mbedtls/library\pkparse.c ****     if( p != end_field )
 298:C:/Workspace/DAVE-4.4.2-64Bit/optiga-trust-m/externals/mbedtls/library\pkparse.c ****         return( MBEDTLS_ERR_PK_KEY_INVALID_FORMAT +
 299:C:/Workspace/DAVE-4.4.2-64Bit/optiga-trust-m/externals/mbedtls/library\pkparse.c ****                 MBEDTLS_ERR_ASN1_LENGTH_MISMATCH );
 300:C:/Workspace/DAVE-4.4.2-64Bit/optiga-trust-m/externals/mbedtls/library\pkparse.c **** 
 301:C:/Workspace/DAVE-4.4.2-64Bit/optiga-trust-m/externals/mbedtls/library\pkparse.c ****     /*
 302:C:/Workspace/DAVE-4.4.2-64Bit/optiga-trust-m/externals/mbedtls/library\pkparse.c ****      * Curve ::= SEQUENCE {
 303:C:/Workspace/DAVE-4.4.2-64Bit/optiga-trust-m/externals/mbedtls/library\pkparse.c ****      *       a FieldElement,
 304:C:/Workspace/DAVE-4.4.2-64Bit/optiga-trust-m/externals/mbedtls/library\pkparse.c ****      *       b FieldElement,
 305:C:/Workspace/DAVE-4.4.2-64Bit/optiga-trust-m/externals/mbedtls/library\pkparse.c ****      *       seed BIT STRING OPTIONAL
 306:C:/Workspace/DAVE-4.4.2-64Bit/optiga-trust-m/externals/mbedtls/library\pkparse.c ****      *       -- Shall be present if used in SpecifiedECDomain
 307:C:/Workspace/DAVE-4.4.2-64Bit/optiga-trust-m/externals/mbedtls/library\pkparse.c ****      *       -- with version equal to ecdpVer2 or ecdpVer3
 308:C:/Workspace/DAVE-4.4.2-64Bit/optiga-trust-m/externals/mbedtls/library\pkparse.c ****      * }
 309:C:/Workspace/DAVE-4.4.2-64Bit/optiga-trust-m/externals/mbedtls/library\pkparse.c ****      */
 310:C:/Workspace/DAVE-4.4.2-64Bit/optiga-trust-m/externals/mbedtls/library\pkparse.c ****     if( ( ret = mbedtls_asn1_get_tag( &p, end, &len,
 311:C:/Workspace/DAVE-4.4.2-64Bit/optiga-trust-m/externals/mbedtls/library\pkparse.c ****             MBEDTLS_ASN1_CONSTRUCTED | MBEDTLS_ASN1_SEQUENCE ) ) != 0 )
 312:C:/Workspace/DAVE-4.4.2-64Bit/optiga-trust-m/externals/mbedtls/library\pkparse.c ****         return( ret );
 313:C:/Workspace/DAVE-4.4.2-64Bit/optiga-trust-m/externals/mbedtls/library\pkparse.c **** 
 314:C:/Workspace/DAVE-4.4.2-64Bit/optiga-trust-m/externals/mbedtls/library\pkparse.c ****     end_curve = p + len;
 315:C:/Workspace/DAVE-4.4.2-64Bit/optiga-trust-m/externals/mbedtls/library\pkparse.c **** 
 316:C:/Workspace/DAVE-4.4.2-64Bit/optiga-trust-m/externals/mbedtls/library\pkparse.c ****     /*
 317:C:/Workspace/DAVE-4.4.2-64Bit/optiga-trust-m/externals/mbedtls/library\pkparse.c ****      * FieldElement ::= OCTET STRING
 318:C:/Workspace/DAVE-4.4.2-64Bit/optiga-trust-m/externals/mbedtls/library\pkparse.c ****      * containing an integer in the case of a prime field
 319:C:/Workspace/DAVE-4.4.2-64Bit/optiga-trust-m/externals/mbedtls/library\pkparse.c ****      */
 320:C:/Workspace/DAVE-4.4.2-64Bit/optiga-trust-m/externals/mbedtls/library\pkparse.c ****     if( ( ret = mbedtls_asn1_get_tag( &p, end_curve, &len, MBEDTLS_ASN1_OCTET_STRING ) ) != 0 ||
 321:C:/Workspace/DAVE-4.4.2-64Bit/optiga-trust-m/externals/mbedtls/library\pkparse.c ****         ( ret = mbedtls_mpi_read_binary( &grp->A, p, len ) ) != 0 )
 322:C:/Workspace/DAVE-4.4.2-64Bit/optiga-trust-m/externals/mbedtls/library\pkparse.c ****     {
 323:C:/Workspace/DAVE-4.4.2-64Bit/optiga-trust-m/externals/mbedtls/library\pkparse.c ****         return( MBEDTLS_ERR_PK_KEY_INVALID_FORMAT + ret );
 324:C:/Workspace/DAVE-4.4.2-64Bit/optiga-trust-m/externals/mbedtls/library\pkparse.c ****     }
 325:C:/Workspace/DAVE-4.4.2-64Bit/optiga-trust-m/externals/mbedtls/library\pkparse.c **** 
 326:C:/Workspace/DAVE-4.4.2-64Bit/optiga-trust-m/externals/mbedtls/library\pkparse.c ****     p += len;
 327:C:/Workspace/DAVE-4.4.2-64Bit/optiga-trust-m/externals/mbedtls/library\pkparse.c **** 
 328:C:/Workspace/DAVE-4.4.2-64Bit/optiga-trust-m/externals/mbedtls/library\pkparse.c ****     if( ( ret = mbedtls_asn1_get_tag( &p, end_curve, &len, MBEDTLS_ASN1_OCTET_STRING ) ) != 0 ||
 329:C:/Workspace/DAVE-4.4.2-64Bit/optiga-trust-m/externals/mbedtls/library\pkparse.c ****         ( ret = mbedtls_mpi_read_binary( &grp->B, p, len ) ) != 0 )
 330:C:/Workspace/DAVE-4.4.2-64Bit/optiga-trust-m/externals/mbedtls/library\pkparse.c ****     {
 331:C:/Workspace/DAVE-4.4.2-64Bit/optiga-trust-m/externals/mbedtls/library\pkparse.c ****         return( MBEDTLS_ERR_PK_KEY_INVALID_FORMAT + ret );
 332:C:/Workspace/DAVE-4.4.2-64Bit/optiga-trust-m/externals/mbedtls/library\pkparse.c ****     }
 333:C:/Workspace/DAVE-4.4.2-64Bit/optiga-trust-m/externals/mbedtls/library\pkparse.c **** 
 334:C:/Workspace/DAVE-4.4.2-64Bit/optiga-trust-m/externals/mbedtls/library\pkparse.c ****     p += len;
 335:C:/Workspace/DAVE-4.4.2-64Bit/optiga-trust-m/externals/mbedtls/library\pkparse.c **** 
 336:C:/Workspace/DAVE-4.4.2-64Bit/optiga-trust-m/externals/mbedtls/library\pkparse.c ****     /* Ignore seed BIT STRING OPTIONAL */
 337:C:/Workspace/DAVE-4.4.2-64Bit/optiga-trust-m/externals/mbedtls/library\pkparse.c ****     if( ( ret = mbedtls_asn1_get_tag( &p, end_curve, &len, MBEDTLS_ASN1_BIT_STRING ) ) == 0 )
 338:C:/Workspace/DAVE-4.4.2-64Bit/optiga-trust-m/externals/mbedtls/library\pkparse.c ****         p += len;
 339:C:/Workspace/DAVE-4.4.2-64Bit/optiga-trust-m/externals/mbedtls/library\pkparse.c **** 
 340:C:/Workspace/DAVE-4.4.2-64Bit/optiga-trust-m/externals/mbedtls/library\pkparse.c ****     if( p != end_curve )
 341:C:/Workspace/DAVE-4.4.2-64Bit/optiga-trust-m/externals/mbedtls/library\pkparse.c ****         return( MBEDTLS_ERR_PK_KEY_INVALID_FORMAT +
 342:C:/Workspace/DAVE-4.4.2-64Bit/optiga-trust-m/externals/mbedtls/library\pkparse.c ****                 MBEDTLS_ERR_ASN1_LENGTH_MISMATCH );
 343:C:/Workspace/DAVE-4.4.2-64Bit/optiga-trust-m/externals/mbedtls/library\pkparse.c **** 
 344:C:/Workspace/DAVE-4.4.2-64Bit/optiga-trust-m/externals/mbedtls/library\pkparse.c ****     /*
 345:C:/Workspace/DAVE-4.4.2-64Bit/optiga-trust-m/externals/mbedtls/library\pkparse.c ****      * ECPoint ::= OCTET STRING
 346:C:/Workspace/DAVE-4.4.2-64Bit/optiga-trust-m/externals/mbedtls/library\pkparse.c ****      */
 347:C:/Workspace/DAVE-4.4.2-64Bit/optiga-trust-m/externals/mbedtls/library\pkparse.c ****     if( ( ret = mbedtls_asn1_get_tag( &p, end, &len, MBEDTLS_ASN1_OCTET_STRING ) ) != 0 )
 348:C:/Workspace/DAVE-4.4.2-64Bit/optiga-trust-m/externals/mbedtls/library\pkparse.c ****         return( MBEDTLS_ERR_PK_KEY_INVALID_FORMAT + ret );
 349:C:/Workspace/DAVE-4.4.2-64Bit/optiga-trust-m/externals/mbedtls/library\pkparse.c **** 
 350:C:/Workspace/DAVE-4.4.2-64Bit/optiga-trust-m/externals/mbedtls/library\pkparse.c ****     if( ( ret = mbedtls_ecp_point_read_binary( grp, &grp->G,
 351:C:/Workspace/DAVE-4.4.2-64Bit/optiga-trust-m/externals/mbedtls/library\pkparse.c ****                                       ( const unsigned char *) p, len ) ) != 0 )
 352:C:/Workspace/DAVE-4.4.2-64Bit/optiga-trust-m/externals/mbedtls/library\pkparse.c ****     {
 353:C:/Workspace/DAVE-4.4.2-64Bit/optiga-trust-m/externals/mbedtls/library\pkparse.c ****         /*
 354:C:/Workspace/DAVE-4.4.2-64Bit/optiga-trust-m/externals/mbedtls/library\pkparse.c ****          * If we can't read the point because it's compressed, cheat by
 355:C:/Workspace/DAVE-4.4.2-64Bit/optiga-trust-m/externals/mbedtls/library\pkparse.c ****          * reading only the X coordinate and the parity bit of Y.
 356:C:/Workspace/DAVE-4.4.2-64Bit/optiga-trust-m/externals/mbedtls/library\pkparse.c ****          */
 357:C:/Workspace/DAVE-4.4.2-64Bit/optiga-trust-m/externals/mbedtls/library\pkparse.c ****         if( ret != MBEDTLS_ERR_ECP_FEATURE_UNAVAILABLE ||
 358:C:/Workspace/DAVE-4.4.2-64Bit/optiga-trust-m/externals/mbedtls/library\pkparse.c ****             ( p[0] != 0x02 && p[0] != 0x03 ) ||
 359:C:/Workspace/DAVE-4.4.2-64Bit/optiga-trust-m/externals/mbedtls/library\pkparse.c ****             len != mbedtls_mpi_size( &grp->P ) + 1 ||
 360:C:/Workspace/DAVE-4.4.2-64Bit/optiga-trust-m/externals/mbedtls/library\pkparse.c ****             mbedtls_mpi_read_binary( &grp->G.X, p + 1, len - 1 ) != 0 ||
 361:C:/Workspace/DAVE-4.4.2-64Bit/optiga-trust-m/externals/mbedtls/library\pkparse.c ****             mbedtls_mpi_lset( &grp->G.Y, p[0] - 2 ) != 0 ||
 362:C:/Workspace/DAVE-4.4.2-64Bit/optiga-trust-m/externals/mbedtls/library\pkparse.c ****             mbedtls_mpi_lset( &grp->G.Z, 1 ) != 0 )
 363:C:/Workspace/DAVE-4.4.2-64Bit/optiga-trust-m/externals/mbedtls/library\pkparse.c ****         {
 364:C:/Workspace/DAVE-4.4.2-64Bit/optiga-trust-m/externals/mbedtls/library\pkparse.c ****             return( MBEDTLS_ERR_PK_KEY_INVALID_FORMAT );
 365:C:/Workspace/DAVE-4.4.2-64Bit/optiga-trust-m/externals/mbedtls/library\pkparse.c ****         }
 366:C:/Workspace/DAVE-4.4.2-64Bit/optiga-trust-m/externals/mbedtls/library\pkparse.c ****     }
 367:C:/Workspace/DAVE-4.4.2-64Bit/optiga-trust-m/externals/mbedtls/library\pkparse.c **** 
 368:C:/Workspace/DAVE-4.4.2-64Bit/optiga-trust-m/externals/mbedtls/library\pkparse.c ****     p += len;
 369:C:/Workspace/DAVE-4.4.2-64Bit/optiga-trust-m/externals/mbedtls/library\pkparse.c **** 
 370:C:/Workspace/DAVE-4.4.2-64Bit/optiga-trust-m/externals/mbedtls/library\pkparse.c ****     /*
 371:C:/Workspace/DAVE-4.4.2-64Bit/optiga-trust-m/externals/mbedtls/library\pkparse.c ****      * order INTEGER
 372:C:/Workspace/DAVE-4.4.2-64Bit/optiga-trust-m/externals/mbedtls/library\pkparse.c ****      */
 373:C:/Workspace/DAVE-4.4.2-64Bit/optiga-trust-m/externals/mbedtls/library\pkparse.c ****     if( ( ret = mbedtls_asn1_get_mpi( &p, end, &grp->N ) ) != 0 )
 374:C:/Workspace/DAVE-4.4.2-64Bit/optiga-trust-m/externals/mbedtls/library\pkparse.c ****         return( MBEDTLS_ERR_PK_KEY_INVALID_FORMAT + ret );
 375:C:/Workspace/DAVE-4.4.2-64Bit/optiga-trust-m/externals/mbedtls/library\pkparse.c **** 
 376:C:/Workspace/DAVE-4.4.2-64Bit/optiga-trust-m/externals/mbedtls/library\pkparse.c ****     grp->nbits = mbedtls_mpi_bitlen( &grp->N );
 377:C:/Workspace/DAVE-4.4.2-64Bit/optiga-trust-m/externals/mbedtls/library\pkparse.c **** 
 378:C:/Workspace/DAVE-4.4.2-64Bit/optiga-trust-m/externals/mbedtls/library\pkparse.c ****     /*
 379:C:/Workspace/DAVE-4.4.2-64Bit/optiga-trust-m/externals/mbedtls/library\pkparse.c ****      * Allow optional elements by purposefully not enforcing p == end here.
 380:C:/Workspace/DAVE-4.4.2-64Bit/optiga-trust-m/externals/mbedtls/library\pkparse.c ****      */
 381:C:/Workspace/DAVE-4.4.2-64Bit/optiga-trust-m/externals/mbedtls/library\pkparse.c **** 
 382:C:/Workspace/DAVE-4.4.2-64Bit/optiga-trust-m/externals/mbedtls/library\pkparse.c ****     return( 0 );
 383:C:/Workspace/DAVE-4.4.2-64Bit/optiga-trust-m/externals/mbedtls/library\pkparse.c **** }
 384:C:/Workspace/DAVE-4.4.2-64Bit/optiga-trust-m/externals/mbedtls/library\pkparse.c **** 
 385:C:/Workspace/DAVE-4.4.2-64Bit/optiga-trust-m/externals/mbedtls/library\pkparse.c **** /*
 386:C:/Workspace/DAVE-4.4.2-64Bit/optiga-trust-m/externals/mbedtls/library\pkparse.c ****  * Find the group id associated with an (almost filled) group as generated by
 387:C:/Workspace/DAVE-4.4.2-64Bit/optiga-trust-m/externals/mbedtls/library\pkparse.c ****  * pk_group_from_specified(), or return an error if unknown.
 388:C:/Workspace/DAVE-4.4.2-64Bit/optiga-trust-m/externals/mbedtls/library\pkparse.c ****  */
 389:C:/Workspace/DAVE-4.4.2-64Bit/optiga-trust-m/externals/mbedtls/library\pkparse.c **** static int pk_group_id_from_group( const mbedtls_ecp_group *grp, mbedtls_ecp_group_id *grp_id )
 390:C:/Workspace/DAVE-4.4.2-64Bit/optiga-trust-m/externals/mbedtls/library\pkparse.c **** {
 391:C:/Workspace/DAVE-4.4.2-64Bit/optiga-trust-m/externals/mbedtls/library\pkparse.c ****     int ret = 0;
 392:C:/Workspace/DAVE-4.4.2-64Bit/optiga-trust-m/externals/mbedtls/library\pkparse.c ****     mbedtls_ecp_group ref;
 393:C:/Workspace/DAVE-4.4.2-64Bit/optiga-trust-m/externals/mbedtls/library\pkparse.c ****     const mbedtls_ecp_group_id *id;
 394:C:/Workspace/DAVE-4.4.2-64Bit/optiga-trust-m/externals/mbedtls/library\pkparse.c **** 
 395:C:/Workspace/DAVE-4.4.2-64Bit/optiga-trust-m/externals/mbedtls/library\pkparse.c ****     mbedtls_ecp_group_init( &ref );
 396:C:/Workspace/DAVE-4.4.2-64Bit/optiga-trust-m/externals/mbedtls/library\pkparse.c **** 
 397:C:/Workspace/DAVE-4.4.2-64Bit/optiga-trust-m/externals/mbedtls/library\pkparse.c ****     for( id = mbedtls_ecp_grp_id_list(); *id != MBEDTLS_ECP_DP_NONE; id++ )
 398:C:/Workspace/DAVE-4.4.2-64Bit/optiga-trust-m/externals/mbedtls/library\pkparse.c ****     {
 399:C:/Workspace/DAVE-4.4.2-64Bit/optiga-trust-m/externals/mbedtls/library\pkparse.c ****         /* Load the group associated to that id */
 400:C:/Workspace/DAVE-4.4.2-64Bit/optiga-trust-m/externals/mbedtls/library\pkparse.c ****         mbedtls_ecp_group_free( &ref );
 401:C:/Workspace/DAVE-4.4.2-64Bit/optiga-trust-m/externals/mbedtls/library\pkparse.c ****         MBEDTLS_MPI_CHK( mbedtls_ecp_group_load( &ref, *id ) );
 402:C:/Workspace/DAVE-4.4.2-64Bit/optiga-trust-m/externals/mbedtls/library\pkparse.c **** 
 403:C:/Workspace/DAVE-4.4.2-64Bit/optiga-trust-m/externals/mbedtls/library\pkparse.c ****         /* Compare to the group we were given, starting with easy tests */
 404:C:/Workspace/DAVE-4.4.2-64Bit/optiga-trust-m/externals/mbedtls/library\pkparse.c ****         if( grp->pbits == ref.pbits && grp->nbits == ref.nbits &&
 405:C:/Workspace/DAVE-4.4.2-64Bit/optiga-trust-m/externals/mbedtls/library\pkparse.c ****             mbedtls_mpi_cmp_mpi( &grp->P, &ref.P ) == 0 &&
 406:C:/Workspace/DAVE-4.4.2-64Bit/optiga-trust-m/externals/mbedtls/library\pkparse.c ****             mbedtls_mpi_cmp_mpi( &grp->A, &ref.A ) == 0 &&
 407:C:/Workspace/DAVE-4.4.2-64Bit/optiga-trust-m/externals/mbedtls/library\pkparse.c ****             mbedtls_mpi_cmp_mpi( &grp->B, &ref.B ) == 0 &&
 408:C:/Workspace/DAVE-4.4.2-64Bit/optiga-trust-m/externals/mbedtls/library\pkparse.c ****             mbedtls_mpi_cmp_mpi( &grp->N, &ref.N ) == 0 &&
 409:C:/Workspace/DAVE-4.4.2-64Bit/optiga-trust-m/externals/mbedtls/library\pkparse.c ****             mbedtls_mpi_cmp_mpi( &grp->G.X, &ref.G.X ) == 0 &&
 410:C:/Workspace/DAVE-4.4.2-64Bit/optiga-trust-m/externals/mbedtls/library\pkparse.c ****             mbedtls_mpi_cmp_mpi( &grp->G.Z, &ref.G.Z ) == 0 &&
 411:C:/Workspace/DAVE-4.4.2-64Bit/optiga-trust-m/externals/mbedtls/library\pkparse.c ****             /* For Y we may only know the parity bit, so compare only that */
 412:C:/Workspace/DAVE-4.4.2-64Bit/optiga-trust-m/externals/mbedtls/library\pkparse.c ****             mbedtls_mpi_get_bit( &grp->G.Y, 0 ) == mbedtls_mpi_get_bit( &ref.G.Y, 0 ) )
 413:C:/Workspace/DAVE-4.4.2-64Bit/optiga-trust-m/externals/mbedtls/library\pkparse.c ****         {
 414:C:/Workspace/DAVE-4.4.2-64Bit/optiga-trust-m/externals/mbedtls/library\pkparse.c ****             break;
 415:C:/Workspace/DAVE-4.4.2-64Bit/optiga-trust-m/externals/mbedtls/library\pkparse.c ****         }
 416:C:/Workspace/DAVE-4.4.2-64Bit/optiga-trust-m/externals/mbedtls/library\pkparse.c **** 
 417:C:/Workspace/DAVE-4.4.2-64Bit/optiga-trust-m/externals/mbedtls/library\pkparse.c ****     }
 418:C:/Workspace/DAVE-4.4.2-64Bit/optiga-trust-m/externals/mbedtls/library\pkparse.c **** 
 419:C:/Workspace/DAVE-4.4.2-64Bit/optiga-trust-m/externals/mbedtls/library\pkparse.c **** cleanup:
 420:C:/Workspace/DAVE-4.4.2-64Bit/optiga-trust-m/externals/mbedtls/library\pkparse.c ****     mbedtls_ecp_group_free( &ref );
 421:C:/Workspace/DAVE-4.4.2-64Bit/optiga-trust-m/externals/mbedtls/library\pkparse.c **** 
 422:C:/Workspace/DAVE-4.4.2-64Bit/optiga-trust-m/externals/mbedtls/library\pkparse.c ****     *grp_id = *id;
 423:C:/Workspace/DAVE-4.4.2-64Bit/optiga-trust-m/externals/mbedtls/library\pkparse.c **** 
 424:C:/Workspace/DAVE-4.4.2-64Bit/optiga-trust-m/externals/mbedtls/library\pkparse.c ****     if( ret == 0 && *id == MBEDTLS_ECP_DP_NONE )
 425:C:/Workspace/DAVE-4.4.2-64Bit/optiga-trust-m/externals/mbedtls/library\pkparse.c ****         ret = MBEDTLS_ERR_ECP_FEATURE_UNAVAILABLE;
 426:C:/Workspace/DAVE-4.4.2-64Bit/optiga-trust-m/externals/mbedtls/library\pkparse.c **** 
 427:C:/Workspace/DAVE-4.4.2-64Bit/optiga-trust-m/externals/mbedtls/library\pkparse.c ****     return( ret );
 428:C:/Workspace/DAVE-4.4.2-64Bit/optiga-trust-m/externals/mbedtls/library\pkparse.c **** }
 429:C:/Workspace/DAVE-4.4.2-64Bit/optiga-trust-m/externals/mbedtls/library\pkparse.c **** 
 430:C:/Workspace/DAVE-4.4.2-64Bit/optiga-trust-m/externals/mbedtls/library\pkparse.c **** /*
 431:C:/Workspace/DAVE-4.4.2-64Bit/optiga-trust-m/externals/mbedtls/library\pkparse.c ****  * Parse a SpecifiedECDomain (SEC 1 C.2) and find the associated group ID
 432:C:/Workspace/DAVE-4.4.2-64Bit/optiga-trust-m/externals/mbedtls/library\pkparse.c ****  */
 433:C:/Workspace/DAVE-4.4.2-64Bit/optiga-trust-m/externals/mbedtls/library\pkparse.c **** static int pk_group_id_from_specified( const mbedtls_asn1_buf *params,
 434:C:/Workspace/DAVE-4.4.2-64Bit/optiga-trust-m/externals/mbedtls/library\pkparse.c ****                                        mbedtls_ecp_group_id *grp_id )
 435:C:/Workspace/DAVE-4.4.2-64Bit/optiga-trust-m/externals/mbedtls/library\pkparse.c **** {
 436:C:/Workspace/DAVE-4.4.2-64Bit/optiga-trust-m/externals/mbedtls/library\pkparse.c ****     int ret;
 437:C:/Workspace/DAVE-4.4.2-64Bit/optiga-trust-m/externals/mbedtls/library\pkparse.c ****     mbedtls_ecp_group grp;
 438:C:/Workspace/DAVE-4.4.2-64Bit/optiga-trust-m/externals/mbedtls/library\pkparse.c **** 
 439:C:/Workspace/DAVE-4.4.2-64Bit/optiga-trust-m/externals/mbedtls/library\pkparse.c ****     mbedtls_ecp_group_init( &grp );
 440:C:/Workspace/DAVE-4.4.2-64Bit/optiga-trust-m/externals/mbedtls/library\pkparse.c **** 
 441:C:/Workspace/DAVE-4.4.2-64Bit/optiga-trust-m/externals/mbedtls/library\pkparse.c ****     if( ( ret = pk_group_from_specified( params, &grp ) ) != 0 )
 442:C:/Workspace/DAVE-4.4.2-64Bit/optiga-trust-m/externals/mbedtls/library\pkparse.c ****         goto cleanup;
 443:C:/Workspace/DAVE-4.4.2-64Bit/optiga-trust-m/externals/mbedtls/library\pkparse.c **** 
 444:C:/Workspace/DAVE-4.4.2-64Bit/optiga-trust-m/externals/mbedtls/library\pkparse.c ****     ret = pk_group_id_from_group( &grp, grp_id );
 445:C:/Workspace/DAVE-4.4.2-64Bit/optiga-trust-m/externals/mbedtls/library\pkparse.c **** 
 446:C:/Workspace/DAVE-4.4.2-64Bit/optiga-trust-m/externals/mbedtls/library\pkparse.c **** cleanup:
 447:C:/Workspace/DAVE-4.4.2-64Bit/optiga-trust-m/externals/mbedtls/library\pkparse.c ****     mbedtls_ecp_group_free( &grp );
 448:C:/Workspace/DAVE-4.4.2-64Bit/optiga-trust-m/externals/mbedtls/library\pkparse.c **** 
 449:C:/Workspace/DAVE-4.4.2-64Bit/optiga-trust-m/externals/mbedtls/library\pkparse.c ****     return( ret );
 450:C:/Workspace/DAVE-4.4.2-64Bit/optiga-trust-m/externals/mbedtls/library\pkparse.c **** }
 451:C:/Workspace/DAVE-4.4.2-64Bit/optiga-trust-m/externals/mbedtls/library\pkparse.c **** #endif /* MBEDTLS_PK_PARSE_EC_EXTENDED */
 452:C:/Workspace/DAVE-4.4.2-64Bit/optiga-trust-m/externals/mbedtls/library\pkparse.c **** 
 453:C:/Workspace/DAVE-4.4.2-64Bit/optiga-trust-m/externals/mbedtls/library\pkparse.c **** /*
 454:C:/Workspace/DAVE-4.4.2-64Bit/optiga-trust-m/externals/mbedtls/library\pkparse.c ****  * Use EC parameters to initialise an EC group
 455:C:/Workspace/DAVE-4.4.2-64Bit/optiga-trust-m/externals/mbedtls/library\pkparse.c ****  *
 456:C:/Workspace/DAVE-4.4.2-64Bit/optiga-trust-m/externals/mbedtls/library\pkparse.c ****  * ECParameters ::= CHOICE {
 457:C:/Workspace/DAVE-4.4.2-64Bit/optiga-trust-m/externals/mbedtls/library\pkparse.c ****  *   namedCurve         OBJECT IDENTIFIER
 458:C:/Workspace/DAVE-4.4.2-64Bit/optiga-trust-m/externals/mbedtls/library\pkparse.c ****  *   specifiedCurve     SpecifiedECDomain -- = SEQUENCE { ... }
 459:C:/Workspace/DAVE-4.4.2-64Bit/optiga-trust-m/externals/mbedtls/library\pkparse.c ****  *   -- implicitCurve   NULL
 460:C:/Workspace/DAVE-4.4.2-64Bit/optiga-trust-m/externals/mbedtls/library\pkparse.c ****  */
 461:C:/Workspace/DAVE-4.4.2-64Bit/optiga-trust-m/externals/mbedtls/library\pkparse.c **** static int pk_use_ecparams( const mbedtls_asn1_buf *params, mbedtls_ecp_group *grp )
 462:C:/Workspace/DAVE-4.4.2-64Bit/optiga-trust-m/externals/mbedtls/library\pkparse.c **** {
  25              	 .loc 1 462 0
  26              	 .cfi_startproc
  27              	.LVL0:
 463:C:/Workspace/DAVE-4.4.2-64Bit/optiga-trust-m/externals/mbedtls/library\pkparse.c ****     int ret;
 464:C:/Workspace/DAVE-4.4.2-64Bit/optiga-trust-m/externals/mbedtls/library\pkparse.c ****     mbedtls_ecp_group_id grp_id;
 465:C:/Workspace/DAVE-4.4.2-64Bit/optiga-trust-m/externals/mbedtls/library\pkparse.c **** 
 466:C:/Workspace/DAVE-4.4.2-64Bit/optiga-trust-m/externals/mbedtls/library\pkparse.c ****     if( params->tag == MBEDTLS_ASN1_OID )
  28              	 .loc 1 466 0
  29 0000 0368     	 ldr r3,[r0]
 462:C:/Workspace/DAVE-4.4.2-64Bit/optiga-trust-m/externals/mbedtls/library\pkparse.c ****     int ret;
  30              	 .loc 1 462 0
  31 0002 37B5     	 push {r0,r1,r2,r4,r5,lr}
  32              	.LCFI0:
  33              	 .cfi_def_cfa_offset 24
  34              	 .cfi_offset 0,-24
  35              	 .cfi_offset 1,-20
  36              	 .cfi_offset 2,-16
  37              	 .cfi_offset 4,-12
  38              	 .cfi_offset 5,-8
  39              	 .cfi_offset 14,-4
  40              	 .loc 1 466 0
  41 0004 062B     	 cmp r3,#6
  42 0006 01D0     	 beq .L2
  43              	.LVL1:
  44              	.L5:
 467:C:/Workspace/DAVE-4.4.2-64Bit/optiga-trust-m/externals/mbedtls/library\pkparse.c ****     {
 468:C:/Workspace/DAVE-4.4.2-64Bit/optiga-trust-m/externals/mbedtls/library\pkparse.c ****         if( mbedtls_oid_get_ec_grp( params, &grp_id ) != 0 )
 469:C:/Workspace/DAVE-4.4.2-64Bit/optiga-trust-m/externals/mbedtls/library\pkparse.c ****             return( MBEDTLS_ERR_PK_UNKNOWN_NAMED_CURVE );
 470:C:/Workspace/DAVE-4.4.2-64Bit/optiga-trust-m/externals/mbedtls/library\pkparse.c ****     }
 471:C:/Workspace/DAVE-4.4.2-64Bit/optiga-trust-m/externals/mbedtls/library\pkparse.c ****     else
 472:C:/Workspace/DAVE-4.4.2-64Bit/optiga-trust-m/externals/mbedtls/library\pkparse.c ****     {
 473:C:/Workspace/DAVE-4.4.2-64Bit/optiga-trust-m/externals/mbedtls/library\pkparse.c **** #if defined(MBEDTLS_PK_PARSE_EC_EXTENDED)
 474:C:/Workspace/DAVE-4.4.2-64Bit/optiga-trust-m/externals/mbedtls/library\pkparse.c ****         if( ( ret = pk_group_id_from_specified( params, &grp_id ) ) != 0 )
 475:C:/Workspace/DAVE-4.4.2-64Bit/optiga-trust-m/externals/mbedtls/library\pkparse.c ****             return( ret );
 476:C:/Workspace/DAVE-4.4.2-64Bit/optiga-trust-m/externals/mbedtls/library\pkparse.c **** #else
 477:C:/Workspace/DAVE-4.4.2-64Bit/optiga-trust-m/externals/mbedtls/library\pkparse.c ****         return( MBEDTLS_ERR_PK_KEY_INVALID_FORMAT );
  45              	 .loc 1 477 0
  46 0008 0B48     	 ldr r0,.L11
  47 000a 13E0     	 b .L3
  48              	.LVL2:
  49              	.L2:
 468:C:/Workspace/DAVE-4.4.2-64Bit/optiga-trust-m/externals/mbedtls/library\pkparse.c ****             return( MBEDTLS_ERR_PK_UNKNOWN_NAMED_CURVE );
  50              	 .loc 1 468 0
  51 000c 6B46     	 mov r3,sp
  52 000e DD1D     	 add r5,r3,#7
  53 0010 0C1C     	 mov r4,r1
  54 0012 291C     	 mov r1,r5
  55              	.LVL3:
  56 0014 FFF7FEFF 	 bl mbedtls_oid_get_ec_grp
  57              	.LVL4:
  58 0018 0028     	 cmp r0,#0
  59 001a 0AD1     	 bne .L6
 478:C:/Workspace/DAVE-4.4.2-64Bit/optiga-trust-m/externals/mbedtls/library\pkparse.c **** #endif
 479:C:/Workspace/DAVE-4.4.2-64Bit/optiga-trust-m/externals/mbedtls/library\pkparse.c ****     }
 480:C:/Workspace/DAVE-4.4.2-64Bit/optiga-trust-m/externals/mbedtls/library\pkparse.c **** 
 481:C:/Workspace/DAVE-4.4.2-64Bit/optiga-trust-m/externals/mbedtls/library\pkparse.c ****     /*
 482:C:/Workspace/DAVE-4.4.2-64Bit/optiga-trust-m/externals/mbedtls/library\pkparse.c ****      * grp may already be initilialized; if so, make sure IDs match
 483:C:/Workspace/DAVE-4.4.2-64Bit/optiga-trust-m/externals/mbedtls/library\pkparse.c ****      */
 484:C:/Workspace/DAVE-4.4.2-64Bit/optiga-trust-m/externals/mbedtls/library\pkparse.c ****     if( grp->id != MBEDTLS_ECP_DP_NONE && grp->id != grp_id )
  60              	 .loc 1 484 0
  61 001c 2378     	 ldrb r3,[r4]
  62 001e 002B     	 cmp r3,#0
  63 0020 02D0     	 beq .L4
  64              	 .loc 1 484 0 is_stmt 0 discriminator 1
  65 0022 2A78     	 ldrb r2,[r5]
  66 0024 9A42     	 cmp r2,r3
  67 0026 EFD1     	 bne .L5
  68              	.L4:
 485:C:/Workspace/DAVE-4.4.2-64Bit/optiga-trust-m/externals/mbedtls/library\pkparse.c ****         return( MBEDTLS_ERR_PK_KEY_INVALID_FORMAT );
 486:C:/Workspace/DAVE-4.4.2-64Bit/optiga-trust-m/externals/mbedtls/library\pkparse.c **** 
 487:C:/Workspace/DAVE-4.4.2-64Bit/optiga-trust-m/externals/mbedtls/library\pkparse.c ****     if( ( ret = mbedtls_ecp_group_load( grp, grp_id ) ) != 0 )
  69              	 .loc 1 487 0 is_stmt 1
  70 0028 2978     	 ldrb r1,[r5]
  71 002a 201C     	 mov r0,r4
  72 002c FFF7FEFF 	 bl mbedtls_ecp_group_load
  73              	.LVL5:
  74 0030 00E0     	 b .L3
  75              	.L6:
 469:C:/Workspace/DAVE-4.4.2-64Bit/optiga-trust-m/externals/mbedtls/library\pkparse.c ****     }
  76              	 .loc 1 469 0
  77 0032 0248     	 ldr r0,.L11+4
  78              	.LVL6:
  79              	.L3:
 488:C:/Workspace/DAVE-4.4.2-64Bit/optiga-trust-m/externals/mbedtls/library\pkparse.c ****         return( ret );
 489:C:/Workspace/DAVE-4.4.2-64Bit/optiga-trust-m/externals/mbedtls/library\pkparse.c **** 
 490:C:/Workspace/DAVE-4.4.2-64Bit/optiga-trust-m/externals/mbedtls/library\pkparse.c ****     return( 0 );
 491:C:/Workspace/DAVE-4.4.2-64Bit/optiga-trust-m/externals/mbedtls/library\pkparse.c **** }
  80              	 .loc 1 491 0
  81              	 
  82 0034 3EBD     	 pop {r1,r2,r3,r4,r5,pc}
  83              	.L12:
  84 0036 C046     	 .align 2
  85              	.L11:
  86 0038 00C3FFFF 	 .word -15616
  87 003c 00C6FFFF 	 .word -14848
  88              	 .cfi_endproc
  89              	.LFE10:
  91              	 .section .text.pk_parse_key_sec1_der,"ax",%progbits
  92              	 .align 1
  93              	 .code 16
  94              	 .thumb_func
  96              	pk_parse_key_sec1_der:
  97              	.LFB14:
 492:C:/Workspace/DAVE-4.4.2-64Bit/optiga-trust-m/externals/mbedtls/library\pkparse.c **** 
 493:C:/Workspace/DAVE-4.4.2-64Bit/optiga-trust-m/externals/mbedtls/library\pkparse.c **** /*
 494:C:/Workspace/DAVE-4.4.2-64Bit/optiga-trust-m/externals/mbedtls/library\pkparse.c ****  * EC public key is an EC point
 495:C:/Workspace/DAVE-4.4.2-64Bit/optiga-trust-m/externals/mbedtls/library\pkparse.c ****  *
 496:C:/Workspace/DAVE-4.4.2-64Bit/optiga-trust-m/externals/mbedtls/library\pkparse.c ****  * The caller is responsible for clearing the structure upon failure if
 497:C:/Workspace/DAVE-4.4.2-64Bit/optiga-trust-m/externals/mbedtls/library\pkparse.c ****  * desired. Take care to pass along the possible ECP_FEATURE_UNAVAILABLE
 498:C:/Workspace/DAVE-4.4.2-64Bit/optiga-trust-m/externals/mbedtls/library\pkparse.c ****  * return code of mbedtls_ecp_point_read_binary() and leave p in a usable state.
 499:C:/Workspace/DAVE-4.4.2-64Bit/optiga-trust-m/externals/mbedtls/library\pkparse.c ****  */
 500:C:/Workspace/DAVE-4.4.2-64Bit/optiga-trust-m/externals/mbedtls/library\pkparse.c **** static int pk_get_ecpubkey( unsigned char **p, const unsigned char *end,
 501:C:/Workspace/DAVE-4.4.2-64Bit/optiga-trust-m/externals/mbedtls/library\pkparse.c ****                             mbedtls_ecp_keypair *key )
 502:C:/Workspace/DAVE-4.4.2-64Bit/optiga-trust-m/externals/mbedtls/library\pkparse.c **** {
 503:C:/Workspace/DAVE-4.4.2-64Bit/optiga-trust-m/externals/mbedtls/library\pkparse.c ****     int ret;
 504:C:/Workspace/DAVE-4.4.2-64Bit/optiga-trust-m/externals/mbedtls/library\pkparse.c **** 
 505:C:/Workspace/DAVE-4.4.2-64Bit/optiga-trust-m/externals/mbedtls/library\pkparse.c ****     if( ( ret = mbedtls_ecp_point_read_binary( &key->grp, &key->Q,
 506:C:/Workspace/DAVE-4.4.2-64Bit/optiga-trust-m/externals/mbedtls/library\pkparse.c ****                     (const unsigned char *) *p, end - *p ) ) == 0 )
 507:C:/Workspace/DAVE-4.4.2-64Bit/optiga-trust-m/externals/mbedtls/library\pkparse.c ****     {
 508:C:/Workspace/DAVE-4.4.2-64Bit/optiga-trust-m/externals/mbedtls/library\pkparse.c ****         ret = mbedtls_ecp_check_pubkey( &key->grp, &key->Q );
 509:C:/Workspace/DAVE-4.4.2-64Bit/optiga-trust-m/externals/mbedtls/library\pkparse.c ****     }
 510:C:/Workspace/DAVE-4.4.2-64Bit/optiga-trust-m/externals/mbedtls/library\pkparse.c **** 
 511:C:/Workspace/DAVE-4.4.2-64Bit/optiga-trust-m/externals/mbedtls/library\pkparse.c ****     /*
 512:C:/Workspace/DAVE-4.4.2-64Bit/optiga-trust-m/externals/mbedtls/library\pkparse.c ****      * We know mbedtls_ecp_point_read_binary consumed all bytes or failed
 513:C:/Workspace/DAVE-4.4.2-64Bit/optiga-trust-m/externals/mbedtls/library\pkparse.c ****      */
 514:C:/Workspace/DAVE-4.4.2-64Bit/optiga-trust-m/externals/mbedtls/library\pkparse.c ****     *p = (unsigned char *) end;
 515:C:/Workspace/DAVE-4.4.2-64Bit/optiga-trust-m/externals/mbedtls/library\pkparse.c **** 
 516:C:/Workspace/DAVE-4.4.2-64Bit/optiga-trust-m/externals/mbedtls/library\pkparse.c ****     return( ret );
 517:C:/Workspace/DAVE-4.4.2-64Bit/optiga-trust-m/externals/mbedtls/library\pkparse.c **** }
 518:C:/Workspace/DAVE-4.4.2-64Bit/optiga-trust-m/externals/mbedtls/library\pkparse.c **** #endif /* MBEDTLS_ECP_C */
 519:C:/Workspace/DAVE-4.4.2-64Bit/optiga-trust-m/externals/mbedtls/library\pkparse.c **** 
 520:C:/Workspace/DAVE-4.4.2-64Bit/optiga-trust-m/externals/mbedtls/library\pkparse.c **** #if defined(MBEDTLS_RSA_C)
 521:C:/Workspace/DAVE-4.4.2-64Bit/optiga-trust-m/externals/mbedtls/library\pkparse.c **** /*
 522:C:/Workspace/DAVE-4.4.2-64Bit/optiga-trust-m/externals/mbedtls/library\pkparse.c ****  *  RSAPublicKey ::= SEQUENCE {
 523:C:/Workspace/DAVE-4.4.2-64Bit/optiga-trust-m/externals/mbedtls/library\pkparse.c ****  *      modulus           INTEGER,  -- n
 524:C:/Workspace/DAVE-4.4.2-64Bit/optiga-trust-m/externals/mbedtls/library\pkparse.c ****  *      publicExponent    INTEGER   -- e
 525:C:/Workspace/DAVE-4.4.2-64Bit/optiga-trust-m/externals/mbedtls/library\pkparse.c ****  *  }
 526:C:/Workspace/DAVE-4.4.2-64Bit/optiga-trust-m/externals/mbedtls/library\pkparse.c ****  */
 527:C:/Workspace/DAVE-4.4.2-64Bit/optiga-trust-m/externals/mbedtls/library\pkparse.c **** static int pk_get_rsapubkey( unsigned char **p,
 528:C:/Workspace/DAVE-4.4.2-64Bit/optiga-trust-m/externals/mbedtls/library\pkparse.c ****                              const unsigned char *end,
 529:C:/Workspace/DAVE-4.4.2-64Bit/optiga-trust-m/externals/mbedtls/library\pkparse.c ****                              mbedtls_rsa_context *rsa )
 530:C:/Workspace/DAVE-4.4.2-64Bit/optiga-trust-m/externals/mbedtls/library\pkparse.c **** {
 531:C:/Workspace/DAVE-4.4.2-64Bit/optiga-trust-m/externals/mbedtls/library\pkparse.c ****     int ret;
 532:C:/Workspace/DAVE-4.4.2-64Bit/optiga-trust-m/externals/mbedtls/library\pkparse.c ****     size_t len;
 533:C:/Workspace/DAVE-4.4.2-64Bit/optiga-trust-m/externals/mbedtls/library\pkparse.c **** 
 534:C:/Workspace/DAVE-4.4.2-64Bit/optiga-trust-m/externals/mbedtls/library\pkparse.c ****     if( ( ret = mbedtls_asn1_get_tag( p, end, &len,
 535:C:/Workspace/DAVE-4.4.2-64Bit/optiga-trust-m/externals/mbedtls/library\pkparse.c ****             MBEDTLS_ASN1_CONSTRUCTED | MBEDTLS_ASN1_SEQUENCE ) ) != 0 )
 536:C:/Workspace/DAVE-4.4.2-64Bit/optiga-trust-m/externals/mbedtls/library\pkparse.c ****         return( MBEDTLS_ERR_PK_INVALID_PUBKEY + ret );
 537:C:/Workspace/DAVE-4.4.2-64Bit/optiga-trust-m/externals/mbedtls/library\pkparse.c **** 
 538:C:/Workspace/DAVE-4.4.2-64Bit/optiga-trust-m/externals/mbedtls/library\pkparse.c ****     if( *p + len != end )
 539:C:/Workspace/DAVE-4.4.2-64Bit/optiga-trust-m/externals/mbedtls/library\pkparse.c ****         return( MBEDTLS_ERR_PK_INVALID_PUBKEY +
 540:C:/Workspace/DAVE-4.4.2-64Bit/optiga-trust-m/externals/mbedtls/library\pkparse.c ****                 MBEDTLS_ERR_ASN1_LENGTH_MISMATCH );
 541:C:/Workspace/DAVE-4.4.2-64Bit/optiga-trust-m/externals/mbedtls/library\pkparse.c **** 
 542:C:/Workspace/DAVE-4.4.2-64Bit/optiga-trust-m/externals/mbedtls/library\pkparse.c ****     /* Import N */
 543:C:/Workspace/DAVE-4.4.2-64Bit/optiga-trust-m/externals/mbedtls/library\pkparse.c ****     if( ( ret = mbedtls_asn1_get_tag( p, end, &len, MBEDTLS_ASN1_INTEGER ) ) != 0 )
 544:C:/Workspace/DAVE-4.4.2-64Bit/optiga-trust-m/externals/mbedtls/library\pkparse.c ****         return( MBEDTLS_ERR_PK_INVALID_PUBKEY + ret );
 545:C:/Workspace/DAVE-4.4.2-64Bit/optiga-trust-m/externals/mbedtls/library\pkparse.c **** 
 546:C:/Workspace/DAVE-4.4.2-64Bit/optiga-trust-m/externals/mbedtls/library\pkparse.c ****     if( ( ret = mbedtls_rsa_import_raw( rsa, *p, len, NULL, 0, NULL, 0,
 547:C:/Workspace/DAVE-4.4.2-64Bit/optiga-trust-m/externals/mbedtls/library\pkparse.c ****                                         NULL, 0, NULL, 0 ) ) != 0 )
 548:C:/Workspace/DAVE-4.4.2-64Bit/optiga-trust-m/externals/mbedtls/library\pkparse.c ****         return( MBEDTLS_ERR_PK_INVALID_PUBKEY );
 549:C:/Workspace/DAVE-4.4.2-64Bit/optiga-trust-m/externals/mbedtls/library\pkparse.c **** 
 550:C:/Workspace/DAVE-4.4.2-64Bit/optiga-trust-m/externals/mbedtls/library\pkparse.c ****     *p += len;
 551:C:/Workspace/DAVE-4.4.2-64Bit/optiga-trust-m/externals/mbedtls/library\pkparse.c **** 
 552:C:/Workspace/DAVE-4.4.2-64Bit/optiga-trust-m/externals/mbedtls/library\pkparse.c ****     /* Import E */
 553:C:/Workspace/DAVE-4.4.2-64Bit/optiga-trust-m/externals/mbedtls/library\pkparse.c ****     if( ( ret = mbedtls_asn1_get_tag( p, end, &len, MBEDTLS_ASN1_INTEGER ) ) != 0 )
 554:C:/Workspace/DAVE-4.4.2-64Bit/optiga-trust-m/externals/mbedtls/library\pkparse.c ****         return( MBEDTLS_ERR_PK_INVALID_PUBKEY + ret );
 555:C:/Workspace/DAVE-4.4.2-64Bit/optiga-trust-m/externals/mbedtls/library\pkparse.c **** 
 556:C:/Workspace/DAVE-4.4.2-64Bit/optiga-trust-m/externals/mbedtls/library\pkparse.c ****     if( ( ret = mbedtls_rsa_import_raw( rsa, NULL, 0, NULL, 0, NULL, 0,
 557:C:/Workspace/DAVE-4.4.2-64Bit/optiga-trust-m/externals/mbedtls/library\pkparse.c ****                                         NULL, 0, *p, len ) ) != 0 )
 558:C:/Workspace/DAVE-4.4.2-64Bit/optiga-trust-m/externals/mbedtls/library\pkparse.c ****         return( MBEDTLS_ERR_PK_INVALID_PUBKEY );
 559:C:/Workspace/DAVE-4.4.2-64Bit/optiga-trust-m/externals/mbedtls/library\pkparse.c **** 
 560:C:/Workspace/DAVE-4.4.2-64Bit/optiga-trust-m/externals/mbedtls/library\pkparse.c ****     *p += len;
 561:C:/Workspace/DAVE-4.4.2-64Bit/optiga-trust-m/externals/mbedtls/library\pkparse.c **** 
 562:C:/Workspace/DAVE-4.4.2-64Bit/optiga-trust-m/externals/mbedtls/library\pkparse.c ****     if( mbedtls_rsa_complete( rsa ) != 0 ||
 563:C:/Workspace/DAVE-4.4.2-64Bit/optiga-trust-m/externals/mbedtls/library\pkparse.c ****         mbedtls_rsa_check_pubkey( rsa ) != 0 )
 564:C:/Workspace/DAVE-4.4.2-64Bit/optiga-trust-m/externals/mbedtls/library\pkparse.c ****     {
 565:C:/Workspace/DAVE-4.4.2-64Bit/optiga-trust-m/externals/mbedtls/library\pkparse.c ****         return( MBEDTLS_ERR_PK_INVALID_PUBKEY );
 566:C:/Workspace/DAVE-4.4.2-64Bit/optiga-trust-m/externals/mbedtls/library\pkparse.c ****     }
 567:C:/Workspace/DAVE-4.4.2-64Bit/optiga-trust-m/externals/mbedtls/library\pkparse.c **** 
 568:C:/Workspace/DAVE-4.4.2-64Bit/optiga-trust-m/externals/mbedtls/library\pkparse.c ****     if( *p != end )
 569:C:/Workspace/DAVE-4.4.2-64Bit/optiga-trust-m/externals/mbedtls/library\pkparse.c ****         return( MBEDTLS_ERR_PK_INVALID_PUBKEY +
 570:C:/Workspace/DAVE-4.4.2-64Bit/optiga-trust-m/externals/mbedtls/library\pkparse.c ****                 MBEDTLS_ERR_ASN1_LENGTH_MISMATCH );
 571:C:/Workspace/DAVE-4.4.2-64Bit/optiga-trust-m/externals/mbedtls/library\pkparse.c **** 
 572:C:/Workspace/DAVE-4.4.2-64Bit/optiga-trust-m/externals/mbedtls/library\pkparse.c ****     return( 0 );
 573:C:/Workspace/DAVE-4.4.2-64Bit/optiga-trust-m/externals/mbedtls/library\pkparse.c **** }
 574:C:/Workspace/DAVE-4.4.2-64Bit/optiga-trust-m/externals/mbedtls/library\pkparse.c **** #endif /* MBEDTLS_RSA_C */
 575:C:/Workspace/DAVE-4.4.2-64Bit/optiga-trust-m/externals/mbedtls/library\pkparse.c **** 
 576:C:/Workspace/DAVE-4.4.2-64Bit/optiga-trust-m/externals/mbedtls/library\pkparse.c **** /* Get a PK algorithm identifier
 577:C:/Workspace/DAVE-4.4.2-64Bit/optiga-trust-m/externals/mbedtls/library\pkparse.c ****  *
 578:C:/Workspace/DAVE-4.4.2-64Bit/optiga-trust-m/externals/mbedtls/library\pkparse.c ****  *  AlgorithmIdentifier  ::=  SEQUENCE  {
 579:C:/Workspace/DAVE-4.4.2-64Bit/optiga-trust-m/externals/mbedtls/library\pkparse.c ****  *       algorithm               OBJECT IDENTIFIER,
 580:C:/Workspace/DAVE-4.4.2-64Bit/optiga-trust-m/externals/mbedtls/library\pkparse.c ****  *       parameters              ANY DEFINED BY algorithm OPTIONAL  }
 581:C:/Workspace/DAVE-4.4.2-64Bit/optiga-trust-m/externals/mbedtls/library\pkparse.c ****  */
 582:C:/Workspace/DAVE-4.4.2-64Bit/optiga-trust-m/externals/mbedtls/library\pkparse.c **** static int pk_get_pk_alg( unsigned char **p,
 583:C:/Workspace/DAVE-4.4.2-64Bit/optiga-trust-m/externals/mbedtls/library\pkparse.c ****                           const unsigned char *end,
 584:C:/Workspace/DAVE-4.4.2-64Bit/optiga-trust-m/externals/mbedtls/library\pkparse.c ****                           mbedtls_pk_type_t *pk_alg, mbedtls_asn1_buf *params )
 585:C:/Workspace/DAVE-4.4.2-64Bit/optiga-trust-m/externals/mbedtls/library\pkparse.c **** {
 586:C:/Workspace/DAVE-4.4.2-64Bit/optiga-trust-m/externals/mbedtls/library\pkparse.c ****     int ret;
 587:C:/Workspace/DAVE-4.4.2-64Bit/optiga-trust-m/externals/mbedtls/library\pkparse.c ****     mbedtls_asn1_buf alg_oid;
 588:C:/Workspace/DAVE-4.4.2-64Bit/optiga-trust-m/externals/mbedtls/library\pkparse.c **** 
 589:C:/Workspace/DAVE-4.4.2-64Bit/optiga-trust-m/externals/mbedtls/library\pkparse.c ****     memset( params, 0, sizeof(mbedtls_asn1_buf) );
 590:C:/Workspace/DAVE-4.4.2-64Bit/optiga-trust-m/externals/mbedtls/library\pkparse.c **** 
 591:C:/Workspace/DAVE-4.4.2-64Bit/optiga-trust-m/externals/mbedtls/library\pkparse.c ****     if( ( ret = mbedtls_asn1_get_alg( p, end, &alg_oid, params ) ) != 0 )
 592:C:/Workspace/DAVE-4.4.2-64Bit/optiga-trust-m/externals/mbedtls/library\pkparse.c ****         return( MBEDTLS_ERR_PK_INVALID_ALG + ret );
 593:C:/Workspace/DAVE-4.4.2-64Bit/optiga-trust-m/externals/mbedtls/library\pkparse.c **** 
 594:C:/Workspace/DAVE-4.4.2-64Bit/optiga-trust-m/externals/mbedtls/library\pkparse.c ****     if( mbedtls_oid_get_pk_alg( &alg_oid, pk_alg ) != 0 )
 595:C:/Workspace/DAVE-4.4.2-64Bit/optiga-trust-m/externals/mbedtls/library\pkparse.c ****         return( MBEDTLS_ERR_PK_UNKNOWN_PK_ALG );
 596:C:/Workspace/DAVE-4.4.2-64Bit/optiga-trust-m/externals/mbedtls/library\pkparse.c **** 
 597:C:/Workspace/DAVE-4.4.2-64Bit/optiga-trust-m/externals/mbedtls/library\pkparse.c ****     /*
 598:C:/Workspace/DAVE-4.4.2-64Bit/optiga-trust-m/externals/mbedtls/library\pkparse.c ****      * No parameters with RSA (only for EC)
 599:C:/Workspace/DAVE-4.4.2-64Bit/optiga-trust-m/externals/mbedtls/library\pkparse.c ****      */
 600:C:/Workspace/DAVE-4.4.2-64Bit/optiga-trust-m/externals/mbedtls/library\pkparse.c ****     if( *pk_alg == MBEDTLS_PK_RSA &&
 601:C:/Workspace/DAVE-4.4.2-64Bit/optiga-trust-m/externals/mbedtls/library\pkparse.c ****             ( ( params->tag != MBEDTLS_ASN1_NULL && params->tag != 0 ) ||
 602:C:/Workspace/DAVE-4.4.2-64Bit/optiga-trust-m/externals/mbedtls/library\pkparse.c ****                 params->len != 0 ) )
 603:C:/Workspace/DAVE-4.4.2-64Bit/optiga-trust-m/externals/mbedtls/library\pkparse.c ****     {
 604:C:/Workspace/DAVE-4.4.2-64Bit/optiga-trust-m/externals/mbedtls/library\pkparse.c ****         return( MBEDTLS_ERR_PK_INVALID_ALG );
 605:C:/Workspace/DAVE-4.4.2-64Bit/optiga-trust-m/externals/mbedtls/library\pkparse.c ****     }
 606:C:/Workspace/DAVE-4.4.2-64Bit/optiga-trust-m/externals/mbedtls/library\pkparse.c **** 
 607:C:/Workspace/DAVE-4.4.2-64Bit/optiga-trust-m/externals/mbedtls/library\pkparse.c ****     return( 0 );
 608:C:/Workspace/DAVE-4.4.2-64Bit/optiga-trust-m/externals/mbedtls/library\pkparse.c **** }
 609:C:/Workspace/DAVE-4.4.2-64Bit/optiga-trust-m/externals/mbedtls/library\pkparse.c **** 
 610:C:/Workspace/DAVE-4.4.2-64Bit/optiga-trust-m/externals/mbedtls/library\pkparse.c **** /*
 611:C:/Workspace/DAVE-4.4.2-64Bit/optiga-trust-m/externals/mbedtls/library\pkparse.c ****  *  SubjectPublicKeyInfo  ::=  SEQUENCE  {
 612:C:/Workspace/DAVE-4.4.2-64Bit/optiga-trust-m/externals/mbedtls/library\pkparse.c ****  *       algorithm            AlgorithmIdentifier,
 613:C:/Workspace/DAVE-4.4.2-64Bit/optiga-trust-m/externals/mbedtls/library\pkparse.c ****  *       subjectPublicKey     BIT STRING }
 614:C:/Workspace/DAVE-4.4.2-64Bit/optiga-trust-m/externals/mbedtls/library\pkparse.c ****  */
 615:C:/Workspace/DAVE-4.4.2-64Bit/optiga-trust-m/externals/mbedtls/library\pkparse.c **** int mbedtls_pk_parse_subpubkey( unsigned char **p, const unsigned char *end,
 616:C:/Workspace/DAVE-4.4.2-64Bit/optiga-trust-m/externals/mbedtls/library\pkparse.c ****                         mbedtls_pk_context *pk )
 617:C:/Workspace/DAVE-4.4.2-64Bit/optiga-trust-m/externals/mbedtls/library\pkparse.c **** {
 618:C:/Workspace/DAVE-4.4.2-64Bit/optiga-trust-m/externals/mbedtls/library\pkparse.c ****     int ret;
 619:C:/Workspace/DAVE-4.4.2-64Bit/optiga-trust-m/externals/mbedtls/library\pkparse.c ****     size_t len;
 620:C:/Workspace/DAVE-4.4.2-64Bit/optiga-trust-m/externals/mbedtls/library\pkparse.c ****     mbedtls_asn1_buf alg_params;
 621:C:/Workspace/DAVE-4.4.2-64Bit/optiga-trust-m/externals/mbedtls/library\pkparse.c ****     mbedtls_pk_type_t pk_alg = MBEDTLS_PK_NONE;
 622:C:/Workspace/DAVE-4.4.2-64Bit/optiga-trust-m/externals/mbedtls/library\pkparse.c ****     const mbedtls_pk_info_t *pk_info;
 623:C:/Workspace/DAVE-4.4.2-64Bit/optiga-trust-m/externals/mbedtls/library\pkparse.c **** 
 624:C:/Workspace/DAVE-4.4.2-64Bit/optiga-trust-m/externals/mbedtls/library\pkparse.c ****     PK_VALIDATE_RET( p != NULL );
 625:C:/Workspace/DAVE-4.4.2-64Bit/optiga-trust-m/externals/mbedtls/library\pkparse.c ****     PK_VALIDATE_RET( *p != NULL );
 626:C:/Workspace/DAVE-4.4.2-64Bit/optiga-trust-m/externals/mbedtls/library\pkparse.c ****     PK_VALIDATE_RET( end != NULL );
 627:C:/Workspace/DAVE-4.4.2-64Bit/optiga-trust-m/externals/mbedtls/library\pkparse.c ****     PK_VALIDATE_RET( pk != NULL );
 628:C:/Workspace/DAVE-4.4.2-64Bit/optiga-trust-m/externals/mbedtls/library\pkparse.c **** 
 629:C:/Workspace/DAVE-4.4.2-64Bit/optiga-trust-m/externals/mbedtls/library\pkparse.c ****     if( ( ret = mbedtls_asn1_get_tag( p, end, &len,
 630:C:/Workspace/DAVE-4.4.2-64Bit/optiga-trust-m/externals/mbedtls/library\pkparse.c ****                     MBEDTLS_ASN1_CONSTRUCTED | MBEDTLS_ASN1_SEQUENCE ) ) != 0 )
 631:C:/Workspace/DAVE-4.4.2-64Bit/optiga-trust-m/externals/mbedtls/library\pkparse.c ****     {
 632:C:/Workspace/DAVE-4.4.2-64Bit/optiga-trust-m/externals/mbedtls/library\pkparse.c ****         return( MBEDTLS_ERR_PK_KEY_INVALID_FORMAT + ret );
 633:C:/Workspace/DAVE-4.4.2-64Bit/optiga-trust-m/externals/mbedtls/library\pkparse.c ****     }
 634:C:/Workspace/DAVE-4.4.2-64Bit/optiga-trust-m/externals/mbedtls/library\pkparse.c **** 
 635:C:/Workspace/DAVE-4.4.2-64Bit/optiga-trust-m/externals/mbedtls/library\pkparse.c ****     end = *p + len;
 636:C:/Workspace/DAVE-4.4.2-64Bit/optiga-trust-m/externals/mbedtls/library\pkparse.c **** 
 637:C:/Workspace/DAVE-4.4.2-64Bit/optiga-trust-m/externals/mbedtls/library\pkparse.c ****     if( ( ret = pk_get_pk_alg( p, end, &pk_alg, &alg_params ) ) != 0 )
 638:C:/Workspace/DAVE-4.4.2-64Bit/optiga-trust-m/externals/mbedtls/library\pkparse.c ****         return( ret );
 639:C:/Workspace/DAVE-4.4.2-64Bit/optiga-trust-m/externals/mbedtls/library\pkparse.c **** 
 640:C:/Workspace/DAVE-4.4.2-64Bit/optiga-trust-m/externals/mbedtls/library\pkparse.c ****     if( ( ret = mbedtls_asn1_get_bitstring_null( p, end, &len ) ) != 0 )
 641:C:/Workspace/DAVE-4.4.2-64Bit/optiga-trust-m/externals/mbedtls/library\pkparse.c ****         return( MBEDTLS_ERR_PK_INVALID_PUBKEY + ret );
 642:C:/Workspace/DAVE-4.4.2-64Bit/optiga-trust-m/externals/mbedtls/library\pkparse.c **** 
 643:C:/Workspace/DAVE-4.4.2-64Bit/optiga-trust-m/externals/mbedtls/library\pkparse.c ****     if( *p + len != end )
 644:C:/Workspace/DAVE-4.4.2-64Bit/optiga-trust-m/externals/mbedtls/library\pkparse.c ****         return( MBEDTLS_ERR_PK_INVALID_PUBKEY +
 645:C:/Workspace/DAVE-4.4.2-64Bit/optiga-trust-m/externals/mbedtls/library\pkparse.c ****                 MBEDTLS_ERR_ASN1_LENGTH_MISMATCH );
 646:C:/Workspace/DAVE-4.4.2-64Bit/optiga-trust-m/externals/mbedtls/library\pkparse.c **** 
 647:C:/Workspace/DAVE-4.4.2-64Bit/optiga-trust-m/externals/mbedtls/library\pkparse.c ****     if( ( pk_info = mbedtls_pk_info_from_type( pk_alg ) ) == NULL )
 648:C:/Workspace/DAVE-4.4.2-64Bit/optiga-trust-m/externals/mbedtls/library\pkparse.c ****         return( MBEDTLS_ERR_PK_UNKNOWN_PK_ALG );
 649:C:/Workspace/DAVE-4.4.2-64Bit/optiga-trust-m/externals/mbedtls/library\pkparse.c **** 
 650:C:/Workspace/DAVE-4.4.2-64Bit/optiga-trust-m/externals/mbedtls/library\pkparse.c ****     if( ( ret = mbedtls_pk_setup( pk, pk_info ) ) != 0 )
 651:C:/Workspace/DAVE-4.4.2-64Bit/optiga-trust-m/externals/mbedtls/library\pkparse.c ****         return( ret );
 652:C:/Workspace/DAVE-4.4.2-64Bit/optiga-trust-m/externals/mbedtls/library\pkparse.c **** 
 653:C:/Workspace/DAVE-4.4.2-64Bit/optiga-trust-m/externals/mbedtls/library\pkparse.c **** #if defined(MBEDTLS_RSA_C)
 654:C:/Workspace/DAVE-4.4.2-64Bit/optiga-trust-m/externals/mbedtls/library\pkparse.c ****     if( pk_alg == MBEDTLS_PK_RSA )
 655:C:/Workspace/DAVE-4.4.2-64Bit/optiga-trust-m/externals/mbedtls/library\pkparse.c ****     {
 656:C:/Workspace/DAVE-4.4.2-64Bit/optiga-trust-m/externals/mbedtls/library\pkparse.c ****         ret = pk_get_rsapubkey( p, end, mbedtls_pk_rsa( *pk ) );
 657:C:/Workspace/DAVE-4.4.2-64Bit/optiga-trust-m/externals/mbedtls/library\pkparse.c ****     } else
 658:C:/Workspace/DAVE-4.4.2-64Bit/optiga-trust-m/externals/mbedtls/library\pkparse.c **** #endif /* MBEDTLS_RSA_C */
 659:C:/Workspace/DAVE-4.4.2-64Bit/optiga-trust-m/externals/mbedtls/library\pkparse.c **** #if defined(MBEDTLS_ECP_C)
 660:C:/Workspace/DAVE-4.4.2-64Bit/optiga-trust-m/externals/mbedtls/library\pkparse.c ****     if( pk_alg == MBEDTLS_PK_ECKEY_DH || pk_alg == MBEDTLS_PK_ECKEY )
 661:C:/Workspace/DAVE-4.4.2-64Bit/optiga-trust-m/externals/mbedtls/library\pkparse.c ****     {
 662:C:/Workspace/DAVE-4.4.2-64Bit/optiga-trust-m/externals/mbedtls/library\pkparse.c ****         ret = pk_use_ecparams( &alg_params, &mbedtls_pk_ec( *pk )->grp );
 663:C:/Workspace/DAVE-4.4.2-64Bit/optiga-trust-m/externals/mbedtls/library\pkparse.c ****         if( ret == 0 )
 664:C:/Workspace/DAVE-4.4.2-64Bit/optiga-trust-m/externals/mbedtls/library\pkparse.c ****             ret = pk_get_ecpubkey( p, end, mbedtls_pk_ec( *pk ) );
 665:C:/Workspace/DAVE-4.4.2-64Bit/optiga-trust-m/externals/mbedtls/library\pkparse.c ****     } else
 666:C:/Workspace/DAVE-4.4.2-64Bit/optiga-trust-m/externals/mbedtls/library\pkparse.c **** #endif /* MBEDTLS_ECP_C */
 667:C:/Workspace/DAVE-4.4.2-64Bit/optiga-trust-m/externals/mbedtls/library\pkparse.c ****         ret = MBEDTLS_ERR_PK_UNKNOWN_PK_ALG;
 668:C:/Workspace/DAVE-4.4.2-64Bit/optiga-trust-m/externals/mbedtls/library\pkparse.c **** 
 669:C:/Workspace/DAVE-4.4.2-64Bit/optiga-trust-m/externals/mbedtls/library\pkparse.c ****     if( ret == 0 && *p != end )
 670:C:/Workspace/DAVE-4.4.2-64Bit/optiga-trust-m/externals/mbedtls/library\pkparse.c ****         ret = MBEDTLS_ERR_PK_INVALID_PUBKEY
 671:C:/Workspace/DAVE-4.4.2-64Bit/optiga-trust-m/externals/mbedtls/library\pkparse.c ****               MBEDTLS_ERR_ASN1_LENGTH_MISMATCH;
 672:C:/Workspace/DAVE-4.4.2-64Bit/optiga-trust-m/externals/mbedtls/library\pkparse.c **** 
 673:C:/Workspace/DAVE-4.4.2-64Bit/optiga-trust-m/externals/mbedtls/library\pkparse.c ****     if( ret != 0 )
 674:C:/Workspace/DAVE-4.4.2-64Bit/optiga-trust-m/externals/mbedtls/library\pkparse.c ****         mbedtls_pk_free( pk );
 675:C:/Workspace/DAVE-4.4.2-64Bit/optiga-trust-m/externals/mbedtls/library\pkparse.c **** 
 676:C:/Workspace/DAVE-4.4.2-64Bit/optiga-trust-m/externals/mbedtls/library\pkparse.c ****     return( ret );
 677:C:/Workspace/DAVE-4.4.2-64Bit/optiga-trust-m/externals/mbedtls/library\pkparse.c **** }
 678:C:/Workspace/DAVE-4.4.2-64Bit/optiga-trust-m/externals/mbedtls/library\pkparse.c **** 
 679:C:/Workspace/DAVE-4.4.2-64Bit/optiga-trust-m/externals/mbedtls/library\pkparse.c **** #if defined(MBEDTLS_RSA_C)
 680:C:/Workspace/DAVE-4.4.2-64Bit/optiga-trust-m/externals/mbedtls/library\pkparse.c **** /*
 681:C:/Workspace/DAVE-4.4.2-64Bit/optiga-trust-m/externals/mbedtls/library\pkparse.c ****  * Parse a PKCS#1 encoded private RSA key
 682:C:/Workspace/DAVE-4.4.2-64Bit/optiga-trust-m/externals/mbedtls/library\pkparse.c ****  */
 683:C:/Workspace/DAVE-4.4.2-64Bit/optiga-trust-m/externals/mbedtls/library\pkparse.c **** static int pk_parse_key_pkcs1_der( mbedtls_rsa_context *rsa,
 684:C:/Workspace/DAVE-4.4.2-64Bit/optiga-trust-m/externals/mbedtls/library\pkparse.c ****                                    const unsigned char *key,
 685:C:/Workspace/DAVE-4.4.2-64Bit/optiga-trust-m/externals/mbedtls/library\pkparse.c ****                                    size_t keylen )
 686:C:/Workspace/DAVE-4.4.2-64Bit/optiga-trust-m/externals/mbedtls/library\pkparse.c **** {
 687:C:/Workspace/DAVE-4.4.2-64Bit/optiga-trust-m/externals/mbedtls/library\pkparse.c ****     int ret, version;
 688:C:/Workspace/DAVE-4.4.2-64Bit/optiga-trust-m/externals/mbedtls/library\pkparse.c ****     size_t len;
 689:C:/Workspace/DAVE-4.4.2-64Bit/optiga-trust-m/externals/mbedtls/library\pkparse.c ****     unsigned char *p, *end;
 690:C:/Workspace/DAVE-4.4.2-64Bit/optiga-trust-m/externals/mbedtls/library\pkparse.c **** 
 691:C:/Workspace/DAVE-4.4.2-64Bit/optiga-trust-m/externals/mbedtls/library\pkparse.c ****     mbedtls_mpi T;
 692:C:/Workspace/DAVE-4.4.2-64Bit/optiga-trust-m/externals/mbedtls/library\pkparse.c ****     mbedtls_mpi_init( &T );
 693:C:/Workspace/DAVE-4.4.2-64Bit/optiga-trust-m/externals/mbedtls/library\pkparse.c **** 
 694:C:/Workspace/DAVE-4.4.2-64Bit/optiga-trust-m/externals/mbedtls/library\pkparse.c ****     p = (unsigned char *) key;
 695:C:/Workspace/DAVE-4.4.2-64Bit/optiga-trust-m/externals/mbedtls/library\pkparse.c ****     end = p + keylen;
 696:C:/Workspace/DAVE-4.4.2-64Bit/optiga-trust-m/externals/mbedtls/library\pkparse.c **** 
 697:C:/Workspace/DAVE-4.4.2-64Bit/optiga-trust-m/externals/mbedtls/library\pkparse.c ****     /*
 698:C:/Workspace/DAVE-4.4.2-64Bit/optiga-trust-m/externals/mbedtls/library\pkparse.c ****      * This function parses the RSAPrivateKey (PKCS#1)
 699:C:/Workspace/DAVE-4.4.2-64Bit/optiga-trust-m/externals/mbedtls/library\pkparse.c ****      *
 700:C:/Workspace/DAVE-4.4.2-64Bit/optiga-trust-m/externals/mbedtls/library\pkparse.c ****      *  RSAPrivateKey ::= SEQUENCE {
 701:C:/Workspace/DAVE-4.4.2-64Bit/optiga-trust-m/externals/mbedtls/library\pkparse.c ****      *      version           Version,
 702:C:/Workspace/DAVE-4.4.2-64Bit/optiga-trust-m/externals/mbedtls/library\pkparse.c ****      *      modulus           INTEGER,  -- n
 703:C:/Workspace/DAVE-4.4.2-64Bit/optiga-trust-m/externals/mbedtls/library\pkparse.c ****      *      publicExponent    INTEGER,  -- e
 704:C:/Workspace/DAVE-4.4.2-64Bit/optiga-trust-m/externals/mbedtls/library\pkparse.c ****      *      privateExponent   INTEGER,  -- d
 705:C:/Workspace/DAVE-4.4.2-64Bit/optiga-trust-m/externals/mbedtls/library\pkparse.c ****      *      prime1            INTEGER,  -- p
 706:C:/Workspace/DAVE-4.4.2-64Bit/optiga-trust-m/externals/mbedtls/library\pkparse.c ****      *      prime2            INTEGER,  -- q
 707:C:/Workspace/DAVE-4.4.2-64Bit/optiga-trust-m/externals/mbedtls/library\pkparse.c ****      *      exponent1         INTEGER,  -- d mod (p-1)
 708:C:/Workspace/DAVE-4.4.2-64Bit/optiga-trust-m/externals/mbedtls/library\pkparse.c ****      *      exponent2         INTEGER,  -- d mod (q-1)
 709:C:/Workspace/DAVE-4.4.2-64Bit/optiga-trust-m/externals/mbedtls/library\pkparse.c ****      *      coefficient       INTEGER,  -- (inverse of q) mod p
 710:C:/Workspace/DAVE-4.4.2-64Bit/optiga-trust-m/externals/mbedtls/library\pkparse.c ****      *      otherPrimeInfos   OtherPrimeInfos OPTIONAL
 711:C:/Workspace/DAVE-4.4.2-64Bit/optiga-trust-m/externals/mbedtls/library\pkparse.c ****      *  }
 712:C:/Workspace/DAVE-4.4.2-64Bit/optiga-trust-m/externals/mbedtls/library\pkparse.c ****      */
 713:C:/Workspace/DAVE-4.4.2-64Bit/optiga-trust-m/externals/mbedtls/library\pkparse.c ****     if( ( ret = mbedtls_asn1_get_tag( &p, end, &len,
 714:C:/Workspace/DAVE-4.4.2-64Bit/optiga-trust-m/externals/mbedtls/library\pkparse.c ****             MBEDTLS_ASN1_CONSTRUCTED | MBEDTLS_ASN1_SEQUENCE ) ) != 0 )
 715:C:/Workspace/DAVE-4.4.2-64Bit/optiga-trust-m/externals/mbedtls/library\pkparse.c ****     {
 716:C:/Workspace/DAVE-4.4.2-64Bit/optiga-trust-m/externals/mbedtls/library\pkparse.c ****         return( MBEDTLS_ERR_PK_KEY_INVALID_FORMAT + ret );
 717:C:/Workspace/DAVE-4.4.2-64Bit/optiga-trust-m/externals/mbedtls/library\pkparse.c ****     }
 718:C:/Workspace/DAVE-4.4.2-64Bit/optiga-trust-m/externals/mbedtls/library\pkparse.c **** 
 719:C:/Workspace/DAVE-4.4.2-64Bit/optiga-trust-m/externals/mbedtls/library\pkparse.c ****     end = p + len;
 720:C:/Workspace/DAVE-4.4.2-64Bit/optiga-trust-m/externals/mbedtls/library\pkparse.c **** 
 721:C:/Workspace/DAVE-4.4.2-64Bit/optiga-trust-m/externals/mbedtls/library\pkparse.c ****     if( ( ret = mbedtls_asn1_get_int( &p, end, &version ) ) != 0 )
 722:C:/Workspace/DAVE-4.4.2-64Bit/optiga-trust-m/externals/mbedtls/library\pkparse.c ****     {
 723:C:/Workspace/DAVE-4.4.2-64Bit/optiga-trust-m/externals/mbedtls/library\pkparse.c ****         return( MBEDTLS_ERR_PK_KEY_INVALID_FORMAT + ret );
 724:C:/Workspace/DAVE-4.4.2-64Bit/optiga-trust-m/externals/mbedtls/library\pkparse.c ****     }
 725:C:/Workspace/DAVE-4.4.2-64Bit/optiga-trust-m/externals/mbedtls/library\pkparse.c **** 
 726:C:/Workspace/DAVE-4.4.2-64Bit/optiga-trust-m/externals/mbedtls/library\pkparse.c ****     if( version != 0 )
 727:C:/Workspace/DAVE-4.4.2-64Bit/optiga-trust-m/externals/mbedtls/library\pkparse.c ****     {
 728:C:/Workspace/DAVE-4.4.2-64Bit/optiga-trust-m/externals/mbedtls/library\pkparse.c ****         return( MBEDTLS_ERR_PK_KEY_INVALID_VERSION );
 729:C:/Workspace/DAVE-4.4.2-64Bit/optiga-trust-m/externals/mbedtls/library\pkparse.c ****     }
 730:C:/Workspace/DAVE-4.4.2-64Bit/optiga-trust-m/externals/mbedtls/library\pkparse.c **** 
 731:C:/Workspace/DAVE-4.4.2-64Bit/optiga-trust-m/externals/mbedtls/library\pkparse.c ****     /* Import N */
 732:C:/Workspace/DAVE-4.4.2-64Bit/optiga-trust-m/externals/mbedtls/library\pkparse.c ****     if( ( ret = mbedtls_asn1_get_tag( &p, end, &len,
 733:C:/Workspace/DAVE-4.4.2-64Bit/optiga-trust-m/externals/mbedtls/library\pkparse.c ****                                       MBEDTLS_ASN1_INTEGER ) ) != 0 ||
 734:C:/Workspace/DAVE-4.4.2-64Bit/optiga-trust-m/externals/mbedtls/library\pkparse.c ****         ( ret = mbedtls_rsa_import_raw( rsa, p, len, NULL, 0, NULL, 0,
 735:C:/Workspace/DAVE-4.4.2-64Bit/optiga-trust-m/externals/mbedtls/library\pkparse.c ****                                         NULL, 0, NULL, 0 ) ) != 0 )
 736:C:/Workspace/DAVE-4.4.2-64Bit/optiga-trust-m/externals/mbedtls/library\pkparse.c ****         goto cleanup;
 737:C:/Workspace/DAVE-4.4.2-64Bit/optiga-trust-m/externals/mbedtls/library\pkparse.c ****     p += len;
 738:C:/Workspace/DAVE-4.4.2-64Bit/optiga-trust-m/externals/mbedtls/library\pkparse.c **** 
 739:C:/Workspace/DAVE-4.4.2-64Bit/optiga-trust-m/externals/mbedtls/library\pkparse.c ****     /* Import E */
 740:C:/Workspace/DAVE-4.4.2-64Bit/optiga-trust-m/externals/mbedtls/library\pkparse.c ****     if( ( ret = mbedtls_asn1_get_tag( &p, end, &len,
 741:C:/Workspace/DAVE-4.4.2-64Bit/optiga-trust-m/externals/mbedtls/library\pkparse.c ****                                       MBEDTLS_ASN1_INTEGER ) ) != 0 ||
 742:C:/Workspace/DAVE-4.4.2-64Bit/optiga-trust-m/externals/mbedtls/library\pkparse.c ****         ( ret = mbedtls_rsa_import_raw( rsa, NULL, 0, NULL, 0, NULL, 0,
 743:C:/Workspace/DAVE-4.4.2-64Bit/optiga-trust-m/externals/mbedtls/library\pkparse.c ****                                         NULL, 0, p, len ) ) != 0 )
 744:C:/Workspace/DAVE-4.4.2-64Bit/optiga-trust-m/externals/mbedtls/library\pkparse.c ****         goto cleanup;
 745:C:/Workspace/DAVE-4.4.2-64Bit/optiga-trust-m/externals/mbedtls/library\pkparse.c ****     p += len;
 746:C:/Workspace/DAVE-4.4.2-64Bit/optiga-trust-m/externals/mbedtls/library\pkparse.c **** 
 747:C:/Workspace/DAVE-4.4.2-64Bit/optiga-trust-m/externals/mbedtls/library\pkparse.c ****     /* Import D */
 748:C:/Workspace/DAVE-4.4.2-64Bit/optiga-trust-m/externals/mbedtls/library\pkparse.c ****     if( ( ret = mbedtls_asn1_get_tag( &p, end, &len,
 749:C:/Workspace/DAVE-4.4.2-64Bit/optiga-trust-m/externals/mbedtls/library\pkparse.c ****                                       MBEDTLS_ASN1_INTEGER ) ) != 0 ||
 750:C:/Workspace/DAVE-4.4.2-64Bit/optiga-trust-m/externals/mbedtls/library\pkparse.c ****         ( ret = mbedtls_rsa_import_raw( rsa, NULL, 0, NULL, 0, NULL, 0,
 751:C:/Workspace/DAVE-4.4.2-64Bit/optiga-trust-m/externals/mbedtls/library\pkparse.c ****                                         p, len, NULL, 0 ) ) != 0 )
 752:C:/Workspace/DAVE-4.4.2-64Bit/optiga-trust-m/externals/mbedtls/library\pkparse.c ****         goto cleanup;
 753:C:/Workspace/DAVE-4.4.2-64Bit/optiga-trust-m/externals/mbedtls/library\pkparse.c ****     p += len;
 754:C:/Workspace/DAVE-4.4.2-64Bit/optiga-trust-m/externals/mbedtls/library\pkparse.c **** 
 755:C:/Workspace/DAVE-4.4.2-64Bit/optiga-trust-m/externals/mbedtls/library\pkparse.c ****     /* Import P */
 756:C:/Workspace/DAVE-4.4.2-64Bit/optiga-trust-m/externals/mbedtls/library\pkparse.c ****     if( ( ret = mbedtls_asn1_get_tag( &p, end, &len,
 757:C:/Workspace/DAVE-4.4.2-64Bit/optiga-trust-m/externals/mbedtls/library\pkparse.c ****                                       MBEDTLS_ASN1_INTEGER ) ) != 0 ||
 758:C:/Workspace/DAVE-4.4.2-64Bit/optiga-trust-m/externals/mbedtls/library\pkparse.c ****         ( ret = mbedtls_rsa_import_raw( rsa, NULL, 0, p, len, NULL, 0,
 759:C:/Workspace/DAVE-4.4.2-64Bit/optiga-trust-m/externals/mbedtls/library\pkparse.c ****                                         NULL, 0, NULL, 0 ) ) != 0 )
 760:C:/Workspace/DAVE-4.4.2-64Bit/optiga-trust-m/externals/mbedtls/library\pkparse.c ****         goto cleanup;
 761:C:/Workspace/DAVE-4.4.2-64Bit/optiga-trust-m/externals/mbedtls/library\pkparse.c ****     p += len;
 762:C:/Workspace/DAVE-4.4.2-64Bit/optiga-trust-m/externals/mbedtls/library\pkparse.c **** 
 763:C:/Workspace/DAVE-4.4.2-64Bit/optiga-trust-m/externals/mbedtls/library\pkparse.c ****     /* Import Q */
 764:C:/Workspace/DAVE-4.4.2-64Bit/optiga-trust-m/externals/mbedtls/library\pkparse.c ****     if( ( ret = mbedtls_asn1_get_tag( &p, end, &len,
 765:C:/Workspace/DAVE-4.4.2-64Bit/optiga-trust-m/externals/mbedtls/library\pkparse.c ****                                       MBEDTLS_ASN1_INTEGER ) ) != 0 ||
 766:C:/Workspace/DAVE-4.4.2-64Bit/optiga-trust-m/externals/mbedtls/library\pkparse.c ****         ( ret = mbedtls_rsa_import_raw( rsa, NULL, 0, NULL, 0, p, len,
 767:C:/Workspace/DAVE-4.4.2-64Bit/optiga-trust-m/externals/mbedtls/library\pkparse.c ****                                         NULL, 0, NULL, 0 ) ) != 0 )
 768:C:/Workspace/DAVE-4.4.2-64Bit/optiga-trust-m/externals/mbedtls/library\pkparse.c ****         goto cleanup;
 769:C:/Workspace/DAVE-4.4.2-64Bit/optiga-trust-m/externals/mbedtls/library\pkparse.c ****     p += len;
 770:C:/Workspace/DAVE-4.4.2-64Bit/optiga-trust-m/externals/mbedtls/library\pkparse.c **** 
 771:C:/Workspace/DAVE-4.4.2-64Bit/optiga-trust-m/externals/mbedtls/library\pkparse.c ****     /* Complete the RSA private key */
 772:C:/Workspace/DAVE-4.4.2-64Bit/optiga-trust-m/externals/mbedtls/library\pkparse.c ****     if( ( ret = mbedtls_rsa_complete( rsa ) ) != 0 )
 773:C:/Workspace/DAVE-4.4.2-64Bit/optiga-trust-m/externals/mbedtls/library\pkparse.c ****         goto cleanup;
 774:C:/Workspace/DAVE-4.4.2-64Bit/optiga-trust-m/externals/mbedtls/library\pkparse.c **** 
 775:C:/Workspace/DAVE-4.4.2-64Bit/optiga-trust-m/externals/mbedtls/library\pkparse.c ****     /* Check optional parameters */
 776:C:/Workspace/DAVE-4.4.2-64Bit/optiga-trust-m/externals/mbedtls/library\pkparse.c ****     if( ( ret = mbedtls_asn1_get_mpi( &p, end, &T ) ) != 0 ||
 777:C:/Workspace/DAVE-4.4.2-64Bit/optiga-trust-m/externals/mbedtls/library\pkparse.c ****         ( ret = mbedtls_asn1_get_mpi( &p, end, &T ) ) != 0 ||
 778:C:/Workspace/DAVE-4.4.2-64Bit/optiga-trust-m/externals/mbedtls/library\pkparse.c ****         ( ret = mbedtls_asn1_get_mpi( &p, end, &T ) ) != 0 )
 779:C:/Workspace/DAVE-4.4.2-64Bit/optiga-trust-m/externals/mbedtls/library\pkparse.c ****         goto cleanup;
 780:C:/Workspace/DAVE-4.4.2-64Bit/optiga-trust-m/externals/mbedtls/library\pkparse.c **** 
 781:C:/Workspace/DAVE-4.4.2-64Bit/optiga-trust-m/externals/mbedtls/library\pkparse.c ****     if( p != end )
 782:C:/Workspace/DAVE-4.4.2-64Bit/optiga-trust-m/externals/mbedtls/library\pkparse.c ****     {
 783:C:/Workspace/DAVE-4.4.2-64Bit/optiga-trust-m/externals/mbedtls/library\pkparse.c ****         ret = MBEDTLS_ERR_PK_KEY_INVALID_FORMAT +
 784:C:/Workspace/DAVE-4.4.2-64Bit/optiga-trust-m/externals/mbedtls/library\pkparse.c ****               MBEDTLS_ERR_ASN1_LENGTH_MISMATCH ;
 785:C:/Workspace/DAVE-4.4.2-64Bit/optiga-trust-m/externals/mbedtls/library\pkparse.c ****     }
 786:C:/Workspace/DAVE-4.4.2-64Bit/optiga-trust-m/externals/mbedtls/library\pkparse.c **** 
 787:C:/Workspace/DAVE-4.4.2-64Bit/optiga-trust-m/externals/mbedtls/library\pkparse.c **** cleanup:
 788:C:/Workspace/DAVE-4.4.2-64Bit/optiga-trust-m/externals/mbedtls/library\pkparse.c **** 
 789:C:/Workspace/DAVE-4.4.2-64Bit/optiga-trust-m/externals/mbedtls/library\pkparse.c ****     mbedtls_mpi_free( &T );
 790:C:/Workspace/DAVE-4.4.2-64Bit/optiga-trust-m/externals/mbedtls/library\pkparse.c **** 
 791:C:/Workspace/DAVE-4.4.2-64Bit/optiga-trust-m/externals/mbedtls/library\pkparse.c ****     if( ret != 0 )
 792:C:/Workspace/DAVE-4.4.2-64Bit/optiga-trust-m/externals/mbedtls/library\pkparse.c ****     {
 793:C:/Workspace/DAVE-4.4.2-64Bit/optiga-trust-m/externals/mbedtls/library\pkparse.c ****         /* Wrap error code if it's coming from a lower level */
 794:C:/Workspace/DAVE-4.4.2-64Bit/optiga-trust-m/externals/mbedtls/library\pkparse.c ****         if( ( ret & 0xff80 ) == 0 )
 795:C:/Workspace/DAVE-4.4.2-64Bit/optiga-trust-m/externals/mbedtls/library\pkparse.c ****             ret = MBEDTLS_ERR_PK_KEY_INVALID_FORMAT + ret;
 796:C:/Workspace/DAVE-4.4.2-64Bit/optiga-trust-m/externals/mbedtls/library\pkparse.c ****         else
 797:C:/Workspace/DAVE-4.4.2-64Bit/optiga-trust-m/externals/mbedtls/library\pkparse.c ****             ret = MBEDTLS_ERR_PK_KEY_INVALID_FORMAT;
 798:C:/Workspace/DAVE-4.4.2-64Bit/optiga-trust-m/externals/mbedtls/library\pkparse.c **** 
 799:C:/Workspace/DAVE-4.4.2-64Bit/optiga-trust-m/externals/mbedtls/library\pkparse.c ****         mbedtls_rsa_free( rsa );
 800:C:/Workspace/DAVE-4.4.2-64Bit/optiga-trust-m/externals/mbedtls/library\pkparse.c ****     }
 801:C:/Workspace/DAVE-4.4.2-64Bit/optiga-trust-m/externals/mbedtls/library\pkparse.c **** 
 802:C:/Workspace/DAVE-4.4.2-64Bit/optiga-trust-m/externals/mbedtls/library\pkparse.c ****     return( ret );
 803:C:/Workspace/DAVE-4.4.2-64Bit/optiga-trust-m/externals/mbedtls/library\pkparse.c **** }
 804:C:/Workspace/DAVE-4.4.2-64Bit/optiga-trust-m/externals/mbedtls/library\pkparse.c **** #endif /* MBEDTLS_RSA_C */
 805:C:/Workspace/DAVE-4.4.2-64Bit/optiga-trust-m/externals/mbedtls/library\pkparse.c **** 
 806:C:/Workspace/DAVE-4.4.2-64Bit/optiga-trust-m/externals/mbedtls/library\pkparse.c **** #if defined(MBEDTLS_ECP_C)
 807:C:/Workspace/DAVE-4.4.2-64Bit/optiga-trust-m/externals/mbedtls/library\pkparse.c **** /*
 808:C:/Workspace/DAVE-4.4.2-64Bit/optiga-trust-m/externals/mbedtls/library\pkparse.c ****  * Parse a SEC1 encoded private EC key
 809:C:/Workspace/DAVE-4.4.2-64Bit/optiga-trust-m/externals/mbedtls/library\pkparse.c ****  */
 810:C:/Workspace/DAVE-4.4.2-64Bit/optiga-trust-m/externals/mbedtls/library\pkparse.c **** static int pk_parse_key_sec1_der( mbedtls_ecp_keypair *eck,
 811:C:/Workspace/DAVE-4.4.2-64Bit/optiga-trust-m/externals/mbedtls/library\pkparse.c ****                                   const unsigned char *key,
 812:C:/Workspace/DAVE-4.4.2-64Bit/optiga-trust-m/externals/mbedtls/library\pkparse.c ****                                   size_t keylen )
 813:C:/Workspace/DAVE-4.4.2-64Bit/optiga-trust-m/externals/mbedtls/library\pkparse.c **** {
  98              	 .loc 1 813 0
  99              	 .cfi_startproc
 100              	.LVL7:
 101 0000 F0B5     	 push {r4,r5,r6,r7,lr}
 102              	.LCFI1:
 103              	 .cfi_def_cfa_offset 20
 104              	 .cfi_offset 4,-20
 105              	 .cfi_offset 5,-16
 106              	 .cfi_offset 6,-12
 107              	 .cfi_offset 7,-8
 108              	 .cfi_offset 14,-4
 109 0002 89B0     	 sub sp,sp,#36
 110              	.LCFI2:
 111              	 .cfi_def_cfa_offset 56
 112              	 .loc 1 813 0
 113 0004 051C     	 mov r5,r0
 814:C:/Workspace/DAVE-4.4.2-64Bit/optiga-trust-m/externals/mbedtls/library\pkparse.c ****     int ret;
 815:C:/Workspace/DAVE-4.4.2-64Bit/optiga-trust-m/externals/mbedtls/library\pkparse.c ****     int version, pubkey_done;
 816:C:/Workspace/DAVE-4.4.2-64Bit/optiga-trust-m/externals/mbedtls/library\pkparse.c ****     size_t len;
 817:C:/Workspace/DAVE-4.4.2-64Bit/optiga-trust-m/externals/mbedtls/library\pkparse.c ****     mbedtls_asn1_buf params;
 818:C:/Workspace/DAVE-4.4.2-64Bit/optiga-trust-m/externals/mbedtls/library\pkparse.c ****     unsigned char *p = (unsigned char *) key;
 114              	 .loc 1 818 0
 115 0006 0491     	 str r1,[sp,#16]
 116              	.LVL8:
 819:C:/Workspace/DAVE-4.4.2-64Bit/optiga-trust-m/externals/mbedtls/library\pkparse.c ****     unsigned char *end = p + keylen;
 820:C:/Workspace/DAVE-4.4.2-64Bit/optiga-trust-m/externals/mbedtls/library\pkparse.c ****     unsigned char *end2;
 821:C:/Workspace/DAVE-4.4.2-64Bit/optiga-trust-m/externals/mbedtls/library\pkparse.c **** 
 822:C:/Workspace/DAVE-4.4.2-64Bit/optiga-trust-m/externals/mbedtls/library\pkparse.c ****     /*
 823:C:/Workspace/DAVE-4.4.2-64Bit/optiga-trust-m/externals/mbedtls/library\pkparse.c ****      * RFC 5915, or SEC1 Appendix C.4
 824:C:/Workspace/DAVE-4.4.2-64Bit/optiga-trust-m/externals/mbedtls/library\pkparse.c ****      *
 825:C:/Workspace/DAVE-4.4.2-64Bit/optiga-trust-m/externals/mbedtls/library\pkparse.c ****      * ECPrivateKey ::= SEQUENCE {
 826:C:/Workspace/DAVE-4.4.2-64Bit/optiga-trust-m/externals/mbedtls/library\pkparse.c ****      *      version        INTEGER { ecPrivkeyVer1(1) } (ecPrivkeyVer1),
 827:C:/Workspace/DAVE-4.4.2-64Bit/optiga-trust-m/externals/mbedtls/library\pkparse.c ****      *      privateKey     OCTET STRING,
 828:C:/Workspace/DAVE-4.4.2-64Bit/optiga-trust-m/externals/mbedtls/library\pkparse.c ****      *      parameters [0] ECParameters {{ NamedCurve }} OPTIONAL,
 829:C:/Workspace/DAVE-4.4.2-64Bit/optiga-trust-m/externals/mbedtls/library\pkparse.c ****      *      publicKey  [1] BIT STRING OPTIONAL
 830:C:/Workspace/DAVE-4.4.2-64Bit/optiga-trust-m/externals/mbedtls/library\pkparse.c ****      *    }
 831:C:/Workspace/DAVE-4.4.2-64Bit/optiga-trust-m/externals/mbedtls/library\pkparse.c ****      */
 832:C:/Workspace/DAVE-4.4.2-64Bit/optiga-trust-m/externals/mbedtls/library\pkparse.c ****     if( ( ret = mbedtls_asn1_get_tag( &p, end, &len,
 117              	 .loc 1 832 0
 118 0008 04A8     	 add r0,sp,#16
 119              	.LVL9:
 819:C:/Workspace/DAVE-4.4.2-64Bit/optiga-trust-m/externals/mbedtls/library\pkparse.c ****     unsigned char *end = p + keylen;
 120              	 .loc 1 819 0
 121 000a 8918     	 add r1,r1,r2
 122              	.LVL10:
 123              	 .loc 1 832 0
 124 000c 3023     	 mov r3,#48
 125 000e 03AA     	 add r2,sp,#12
 126              	.LVL11:
 127 0010 FFF7FEFF 	 bl mbedtls_asn1_get_tag
 128              	.LVL12:
 129 0014 0028     	 cmp r0,#0
 130 0016 68D1     	 bne .L51
 833:C:/Workspace/DAVE-4.4.2-64Bit/optiga-trust-m/externals/mbedtls/library\pkparse.c ****             MBEDTLS_ASN1_CONSTRUCTED | MBEDTLS_ASN1_SEQUENCE ) ) != 0 )
 834:C:/Workspace/DAVE-4.4.2-64Bit/optiga-trust-m/externals/mbedtls/library\pkparse.c ****     {
 835:C:/Workspace/DAVE-4.4.2-64Bit/optiga-trust-m/externals/mbedtls/library\pkparse.c ****         return( MBEDTLS_ERR_PK_KEY_INVALID_FORMAT + ret );
 836:C:/Workspace/DAVE-4.4.2-64Bit/optiga-trust-m/externals/mbedtls/library\pkparse.c ****     }
 837:C:/Workspace/DAVE-4.4.2-64Bit/optiga-trust-m/externals/mbedtls/library\pkparse.c **** 
 838:C:/Workspace/DAVE-4.4.2-64Bit/optiga-trust-m/externals/mbedtls/library\pkparse.c ****     end = p + len;
 131              	 .loc 1 838 0
 132 0018 039A     	 ldr r2,[sp,#12]
 133 001a 049B     	 ldr r3,[sp,#16]
 839:C:/Workspace/DAVE-4.4.2-64Bit/optiga-trust-m/externals/mbedtls/library\pkparse.c **** 
 840:C:/Workspace/DAVE-4.4.2-64Bit/optiga-trust-m/externals/mbedtls/library\pkparse.c ****     if( ( ret = mbedtls_asn1_get_int( &p, end, &version ) ) != 0 )
 134              	 .loc 1 840 0
 135 001c 04A8     	 add r0,sp,#16
 136              	.LVL13:
 838:C:/Workspace/DAVE-4.4.2-64Bit/optiga-trust-m/externals/mbedtls/library\pkparse.c **** 
 137              	 .loc 1 838 0
 138 001e 9F18     	 add r7,r3,r2
 139              	.LVL14:
 140              	 .loc 1 840 0
 141 0020 391C     	 mov r1,r7
 142 0022 02AA     	 add r2,sp,#8
 143 0024 FFF7FEFF 	 bl mbedtls_asn1_get_int
 144              	.LVL15:
 145 0028 0028     	 cmp r0,#0
 146 002a 5ED1     	 bne .L51
 841:C:/Workspace/DAVE-4.4.2-64Bit/optiga-trust-m/externals/mbedtls/library\pkparse.c ****         return( MBEDTLS_ERR_PK_KEY_INVALID_FORMAT + ret );
 842:C:/Workspace/DAVE-4.4.2-64Bit/optiga-trust-m/externals/mbedtls/library\pkparse.c **** 
 843:C:/Workspace/DAVE-4.4.2-64Bit/optiga-trust-m/externals/mbedtls/library\pkparse.c ****     if( version != 1 )
 147              	 .loc 1 843 0
 148 002c 029B     	 ldr r3,[sp,#8]
 149 002e 012B     	 cmp r3,#1
 150 0030 00D0     	 beq .LCB131
 151 0032 99E0     	 b .L31
 152              	.LCB131:
 844:C:/Workspace/DAVE-4.4.2-64Bit/optiga-trust-m/externals/mbedtls/library\pkparse.c ****         return( MBEDTLS_ERR_PK_KEY_INVALID_VERSION );
 845:C:/Workspace/DAVE-4.4.2-64Bit/optiga-trust-m/externals/mbedtls/library\pkparse.c **** 
 846:C:/Workspace/DAVE-4.4.2-64Bit/optiga-trust-m/externals/mbedtls/library\pkparse.c ****     if( ( ret = mbedtls_asn1_get_tag( &p, end, &len, MBEDTLS_ASN1_OCTET_STRING ) ) != 0 )
 153              	 .loc 1 846 0
 154 0034 04A8     	 add r0,sp,#16
 155              	.LVL16:
 156 0036 391C     	 mov r1,r7
 157 0038 03AA     	 add r2,sp,#12
 158 003a 0333     	 add r3,r3,#3
 159 003c FFF7FEFF 	 bl mbedtls_asn1_get_tag
 160              	.LVL17:
 161 0040 0028     	 cmp r0,#0
 162 0042 52D1     	 bne .L51
 847:C:/Workspace/DAVE-4.4.2-64Bit/optiga-trust-m/externals/mbedtls/library\pkparse.c ****         return( MBEDTLS_ERR_PK_KEY_INVALID_FORMAT + ret );
 848:C:/Workspace/DAVE-4.4.2-64Bit/optiga-trust-m/externals/mbedtls/library\pkparse.c **** 
 849:C:/Workspace/DAVE-4.4.2-64Bit/optiga-trust-m/externals/mbedtls/library\pkparse.c ****     if( ( ret = mbedtls_mpi_read_binary( &eck->d, p, len ) ) != 0 )
 163              	 .loc 1 849 0
 164 0044 2E1C     	 mov r6,r5
 165 0046 7C36     	 add r6,r6,#124
 166 0048 301C     	 mov r0,r6
 167              	.LVL18:
 168 004a 0499     	 ldr r1,[sp,#16]
 169 004c 039A     	 ldr r2,[sp,#12]
 170 004e FFF7FEFF 	 bl mbedtls_mpi_read_binary
 171              	.LVL19:
 172 0052 041E     	 sub r4,r0,#0
 173              	.LVL20:
 174 0054 68D1     	 bne .L30
 850:C:/Workspace/DAVE-4.4.2-64Bit/optiga-trust-m/externals/mbedtls/library\pkparse.c ****     {
 851:C:/Workspace/DAVE-4.4.2-64Bit/optiga-trust-m/externals/mbedtls/library\pkparse.c ****         mbedtls_ecp_keypair_free( eck );
 852:C:/Workspace/DAVE-4.4.2-64Bit/optiga-trust-m/externals/mbedtls/library\pkparse.c ****         return( MBEDTLS_ERR_PK_KEY_INVALID_FORMAT + ret );
 853:C:/Workspace/DAVE-4.4.2-64Bit/optiga-trust-m/externals/mbedtls/library\pkparse.c ****     }
 854:C:/Workspace/DAVE-4.4.2-64Bit/optiga-trust-m/externals/mbedtls/library\pkparse.c **** 
 855:C:/Workspace/DAVE-4.4.2-64Bit/optiga-trust-m/externals/mbedtls/library\pkparse.c ****     p += len;
 175              	 .loc 1 855 0
 176 0056 049B     	 ldr r3,[sp,#16]
 177 0058 039A     	 ldr r2,[sp,#12]
 178 005a 9B18     	 add r3,r3,r2
 179 005c 0493     	 str r3,[sp,#16]
 180              	.LVL21:
 856:C:/Workspace/DAVE-4.4.2-64Bit/optiga-trust-m/externals/mbedtls/library\pkparse.c **** 
 857:C:/Workspace/DAVE-4.4.2-64Bit/optiga-trust-m/externals/mbedtls/library\pkparse.c ****     pubkey_done = 0;
 858:C:/Workspace/DAVE-4.4.2-64Bit/optiga-trust-m/externals/mbedtls/library\pkparse.c ****     if( p != end )
 181              	 .loc 1 858 0
 182 005e BB42     	 cmp r3,r7
 183 0060 2ED0     	 beq .L19
 859:C:/Workspace/DAVE-4.4.2-64Bit/optiga-trust-m/externals/mbedtls/library\pkparse.c ****     {
 860:C:/Workspace/DAVE-4.4.2-64Bit/optiga-trust-m/externals/mbedtls/library\pkparse.c ****         /*
 861:C:/Workspace/DAVE-4.4.2-64Bit/optiga-trust-m/externals/mbedtls/library\pkparse.c ****          * Is 'parameters' present?
 862:C:/Workspace/DAVE-4.4.2-64Bit/optiga-trust-m/externals/mbedtls/library\pkparse.c ****          */
 863:C:/Workspace/DAVE-4.4.2-64Bit/optiga-trust-m/externals/mbedtls/library\pkparse.c ****         if( ( ret = mbedtls_asn1_get_tag( &p, end, &len,
 184              	 .loc 1 863 0
 185 0062 04A8     	 add r0,sp,#16
 186              	.LVL22:
 187 0064 391C     	 mov r1,r7
 188 0066 03AA     	 add r2,sp,#12
 189 0068 A023     	 mov r3,#160
 190 006a FFF7FEFF 	 bl mbedtls_asn1_get_tag
 191              	.LVL23:
 192 006e 041E     	 sub r4,r0,#0
 193              	.LVL24:
 194 0070 23D1     	 bne .L20
 864:C:/Workspace/DAVE-4.4.2-64Bit/optiga-trust-m/externals/mbedtls/library\pkparse.c ****                         MBEDTLS_ASN1_CONTEXT_SPECIFIC | MBEDTLS_ASN1_CONSTRUCTED | 0 ) ) == 0 )
 865:C:/Workspace/DAVE-4.4.2-64Bit/optiga-trust-m/externals/mbedtls/library\pkparse.c ****         {
 866:C:/Workspace/DAVE-4.4.2-64Bit/optiga-trust-m/externals/mbedtls/library\pkparse.c ****             if( ( ret = pk_get_ecparams( &p, p + len, &params) ) != 0 ||
 195              	 .loc 1 866 0
 196 0072 049B     	 ldr r3,[sp,#16]
 197 0074 039A     	 ldr r2,[sp,#12]
 198 0076 9C18     	 add r4,r3,r2
 199              	.LVL25:
 200              	.LBB16:
 201              	.LBB17:
 193:C:/Workspace/DAVE-4.4.2-64Bit/optiga-trust-m/externals/mbedtls/library\pkparse.c ****         return( MBEDTLS_ERR_PK_KEY_INVALID_FORMAT +
 202              	 .loc 1 193 0
 203 0078 002A     	 cmp r2,#0
 204 007a 79DD     	 ble .L32
 198:C:/Workspace/DAVE-4.4.2-64Bit/optiga-trust-m/externals/mbedtls/library\pkparse.c ****     if( params->tag != MBEDTLS_ASN1_OID
 205              	 .loc 1 198 0
 206 007c 1B78     	 ldrb r3,[r3]
 207 007e 0593     	 str r3,[sp,#20]
 199:C:/Workspace/DAVE-4.4.2-64Bit/optiga-trust-m/externals/mbedtls/library\pkparse.c **** #if defined(MBEDTLS_PK_PARSE_EC_EXTENDED)
 208              	 .loc 1 199 0
 209 0080 062B     	 cmp r3,#6
 210 0082 77D1     	 bne .L33
 209:C:/Workspace/DAVE-4.4.2-64Bit/optiga-trust-m/externals/mbedtls/library\pkparse.c ****     {
 211              	 .loc 1 209 0
 212 0084 04A8     	 add r0,sp,#16
 213              	.LVL26:
 214 0086 211C     	 mov r1,r4
 215 0088 06AA     	 add r2,sp,#24
 216 008a FFF7FEFF 	 bl mbedtls_asn1_get_tag
 217              	.LVL27:
 218 008e 0028     	 cmp r0,#0
 219 0090 0AD0     	 beq .L22
 211:C:/Workspace/DAVE-4.4.2-64Bit/optiga-trust-m/externals/mbedtls/library\pkparse.c ****     }
 220              	 .loc 1 211 0
 221 0092 3A4B     	 ldr r3,.L54
 222 0094 C418     	 add r4,r0,r3
 223              	.LVL28:
 224              	.LBE17:
 225              	.LBE16:
 226              	 .loc 1 866 0
 227 0096 002C     	 cmp r4,#0
 228 0098 61D1     	 bne .L53
 229              	.L24:
 230 009a 05A8     	 add r0,sp,#20
 231              	.LVL29:
 232 009c 291C     	 mov r1,r5
 233 009e FFF7FEFF 	 bl pk_use_ecparams
 234              	.LVL30:
 235 00a2 041E     	 sub r4,r0,#0
 236              	.LVL31:
 237 00a4 0CD0     	 beq .L19
 238 00a6 5AE0     	 b .L53
 239              	.LVL32:
 240              	.L22:
 241              	.LBB20:
 242              	.LBB18:
 214:C:/Workspace/DAVE-4.4.2-64Bit/optiga-trust-m/externals/mbedtls/library\pkparse.c ****     *p += params->len;
 243              	 .loc 1 214 0
 244 00a8 049A     	 ldr r2,[sp,#16]
 215:C:/Workspace/DAVE-4.4.2-64Bit/optiga-trust-m/externals/mbedtls/library\pkparse.c **** 
 245              	 .loc 1 215 0
 246 00aa 069B     	 ldr r3,[sp,#24]
 214:C:/Workspace/DAVE-4.4.2-64Bit/optiga-trust-m/externals/mbedtls/library\pkparse.c ****     *p += params->len;
 247              	 .loc 1 214 0
 248 00ac 0792     	 str r2,[sp,#28]
 215:C:/Workspace/DAVE-4.4.2-64Bit/optiga-trust-m/externals/mbedtls/library\pkparse.c **** 
 249              	 .loc 1 215 0
 250 00ae D318     	 add r3,r2,r3
 251 00b0 0493     	 str r3,[sp,#16]
 217:C:/Workspace/DAVE-4.4.2-64Bit/optiga-trust-m/externals/mbedtls/library\pkparse.c ****         return( MBEDTLS_ERR_PK_KEY_INVALID_FORMAT +
 252              	 .loc 1 217 0
 253 00b2 A342     	 cmp r3,r4
 254 00b4 F1D0     	 beq .L24
 218:C:/Workspace/DAVE-4.4.2-64Bit/optiga-trust-m/externals/mbedtls/library\pkparse.c ****                 MBEDTLS_ERR_ASN1_LENGTH_MISMATCH );
 255              	 .loc 1 218 0
 256 00b6 324C     	 ldr r4,.L54+4
 257              	.LVL33:
 258 00b8 51E0     	 b .L53
 259              	.LVL34:
 260              	.L20:
 261              	.LBE18:
 262              	.LBE20:
 867:C:/Workspace/DAVE-4.4.2-64Bit/optiga-trust-m/externals/mbedtls/library\pkparse.c ****                 ( ret = pk_use_ecparams( &params, &eck->grp )  ) != 0 )
 868:C:/Workspace/DAVE-4.4.2-64Bit/optiga-trust-m/externals/mbedtls/library\pkparse.c ****             {
 869:C:/Workspace/DAVE-4.4.2-64Bit/optiga-trust-m/externals/mbedtls/library\pkparse.c ****                 mbedtls_ecp_keypair_free( eck );
 870:C:/Workspace/DAVE-4.4.2-64Bit/optiga-trust-m/externals/mbedtls/library\pkparse.c ****                 return( ret );
 871:C:/Workspace/DAVE-4.4.2-64Bit/optiga-trust-m/externals/mbedtls/library\pkparse.c ****             }
 872:C:/Workspace/DAVE-4.4.2-64Bit/optiga-trust-m/externals/mbedtls/library\pkparse.c ****         }
 873:C:/Workspace/DAVE-4.4.2-64Bit/optiga-trust-m/externals/mbedtls/library\pkparse.c ****         else if( ret != MBEDTLS_ERR_ASN1_UNEXPECTED_TAG )
 263              	 .loc 1 873 0
 264 00ba 031C     	 mov r3,r0
 265 00bc 6233     	 add r3,r3,#98
 266 00be 33D1     	 bne .L30
 267              	.L19:
 874:C:/Workspace/DAVE-4.4.2-64Bit/optiga-trust-m/externals/mbedtls/library\pkparse.c ****         {
 875:C:/Workspace/DAVE-4.4.2-64Bit/optiga-trust-m/externals/mbedtls/library\pkparse.c ****             mbedtls_ecp_keypair_free( eck );
 876:C:/Workspace/DAVE-4.4.2-64Bit/optiga-trust-m/externals/mbedtls/library\pkparse.c ****             return( MBEDTLS_ERR_PK_KEY_INVALID_FORMAT + ret );
 877:C:/Workspace/DAVE-4.4.2-64Bit/optiga-trust-m/externals/mbedtls/library\pkparse.c ****         }
 878:C:/Workspace/DAVE-4.4.2-64Bit/optiga-trust-m/externals/mbedtls/library\pkparse.c ****     }
 879:C:/Workspace/DAVE-4.4.2-64Bit/optiga-trust-m/externals/mbedtls/library\pkparse.c **** 
 880:C:/Workspace/DAVE-4.4.2-64Bit/optiga-trust-m/externals/mbedtls/library\pkparse.c ****     if( p != end )
 268              	 .loc 1 880 0
 269 00c0 049B     	 ldr r3,[sp,#16]
 270 00c2 BB42     	 cmp r3,r7
 271 00c4 36D0     	 beq .L25
 881:C:/Workspace/DAVE-4.4.2-64Bit/optiga-trust-m/externals/mbedtls/library\pkparse.c ****     {
 882:C:/Workspace/DAVE-4.4.2-64Bit/optiga-trust-m/externals/mbedtls/library\pkparse.c ****         /*
 883:C:/Workspace/DAVE-4.4.2-64Bit/optiga-trust-m/externals/mbedtls/library\pkparse.c ****          * Is 'publickey' present? If not, or if we can't read it (eg because it
 884:C:/Workspace/DAVE-4.4.2-64Bit/optiga-trust-m/externals/mbedtls/library\pkparse.c ****          * is compressed), create it from the private key.
 885:C:/Workspace/DAVE-4.4.2-64Bit/optiga-trust-m/externals/mbedtls/library\pkparse.c ****          */
 886:C:/Workspace/DAVE-4.4.2-64Bit/optiga-trust-m/externals/mbedtls/library\pkparse.c ****         if( ( ret = mbedtls_asn1_get_tag( &p, end, &len,
 272              	 .loc 1 886 0
 273 00c6 04A8     	 add r0,sp,#16
 274              	.LVL35:
 275 00c8 391C     	 mov r1,r7
 276 00ca 03AA     	 add r2,sp,#12
 277 00cc A123     	 mov r3,#161
 278 00ce FFF7FEFF 	 bl mbedtls_asn1_get_tag
 279              	.LVL36:
 280 00d2 041E     	 sub r4,r0,#0
 281              	.LVL37:
 282 00d4 25D1     	 bne .L26
 887:C:/Workspace/DAVE-4.4.2-64Bit/optiga-trust-m/externals/mbedtls/library\pkparse.c ****                         MBEDTLS_ASN1_CONTEXT_SPECIFIC | MBEDTLS_ASN1_CONSTRUCTED | 1 ) ) == 0 )
 888:C:/Workspace/DAVE-4.4.2-64Bit/optiga-trust-m/externals/mbedtls/library\pkparse.c ****         {
 889:C:/Workspace/DAVE-4.4.2-64Bit/optiga-trust-m/externals/mbedtls/library\pkparse.c ****             end2 = p + len;
 283              	 .loc 1 889 0
 284 00d6 039A     	 ldr r2,[sp,#12]
 285 00d8 049B     	 ldr r3,[sp,#16]
 890:C:/Workspace/DAVE-4.4.2-64Bit/optiga-trust-m/externals/mbedtls/library\pkparse.c **** 
 891:C:/Workspace/DAVE-4.4.2-64Bit/optiga-trust-m/externals/mbedtls/library\pkparse.c ****             if( ( ret = mbedtls_asn1_get_bitstring_null( &p, end2, &len ) ) != 0 )
 286              	 .loc 1 891 0
 287 00da 04A8     	 add r0,sp,#16
 288              	.LVL38:
 889:C:/Workspace/DAVE-4.4.2-64Bit/optiga-trust-m/externals/mbedtls/library\pkparse.c **** 
 289              	 .loc 1 889 0
 290 00dc 9C18     	 add r4,r3,r2
 291              	.LVL39:
 292              	 .loc 1 891 0
 293 00de 211C     	 mov r1,r4
 294 00e0 03AA     	 add r2,sp,#12
 295 00e2 FFF7FEFF 	 bl mbedtls_asn1_get_bitstring_null
 296              	.LVL40:
 297 00e6 0028     	 cmp r0,#0
 298 00e8 02D0     	 beq .L27
 299              	.LVL41:
 300              	.L51:
 892:C:/Workspace/DAVE-4.4.2-64Bit/optiga-trust-m/externals/mbedtls/library\pkparse.c ****                 return( MBEDTLS_ERR_PK_KEY_INVALID_FORMAT + ret );
 301              	 .loc 1 892 0
 302 00ea 244B     	 ldr r3,.L54
 303 00ec C018     	 add r0,r0,r3
 304              	.LVL42:
 305 00ee 43E0     	 b .L44
 306              	.LVL43:
 307              	.L27:
 893:C:/Workspace/DAVE-4.4.2-64Bit/optiga-trust-m/externals/mbedtls/library\pkparse.c **** 
 894:C:/Workspace/DAVE-4.4.2-64Bit/optiga-trust-m/externals/mbedtls/library\pkparse.c ****             if( p + len != end2 )
 308              	 .loc 1 894 0
 309 00f0 049A     	 ldr r2,[sp,#16]
 310 00f2 039B     	 ldr r3,[sp,#12]
 311 00f4 D718     	 add r7,r2,r3
 312              	.LVL44:
 313 00f6 A742     	 cmp r7,r4
 314 00f8 38D1     	 bne .L35
 315              	.LVL45:
 316              	.LBB21:
 317              	.LBB22:
 505:C:/Workspace/DAVE-4.4.2-64Bit/optiga-trust-m/externals/mbedtls/library\pkparse.c ****                     (const unsigned char *) *p, end - *p ) ) == 0 )
 318              	 .loc 1 505 0
 319 00fa 2C1C     	 mov r4,r5
 320              	.LVL46:
 321 00fc 8834     	 add r4,r4,#136
 322 00fe 281C     	 mov r0,r5
 323              	.LVL47:
 324 0100 211C     	 mov r1,r4
 325 0102 FFF7FEFF 	 bl mbedtls_ecp_point_read_binary
 326              	.LVL48:
 327 0106 0028     	 cmp r0,#0
 328 0108 03D1     	 bne .L28
 508:C:/Workspace/DAVE-4.4.2-64Bit/optiga-trust-m/externals/mbedtls/library\pkparse.c ****     }
 329              	 .loc 1 508 0
 330 010a 281C     	 mov r0,r5
 331              	.LVL49:
 332 010c 211C     	 mov r1,r4
 333 010e FFF7FEFF 	 bl mbedtls_ecp_check_pubkey
 334              	.LVL50:
 335              	.L28:
 514:C:/Workspace/DAVE-4.4.2-64Bit/optiga-trust-m/externals/mbedtls/library\pkparse.c **** 
 336              	 .loc 1 514 0
 337 0112 0497     	 str r7,[sp,#16]
 338              	.LBE22:
 339              	.LBE21:
 895:C:/Workspace/DAVE-4.4.2-64Bit/optiga-trust-m/externals/mbedtls/library\pkparse.c ****                 return( MBEDTLS_ERR_PK_KEY_INVALID_FORMAT +
 896:C:/Workspace/DAVE-4.4.2-64Bit/optiga-trust-m/externals/mbedtls/library\pkparse.c ****                         MBEDTLS_ERR_ASN1_LENGTH_MISMATCH );
 897:C:/Workspace/DAVE-4.4.2-64Bit/optiga-trust-m/externals/mbedtls/library\pkparse.c **** 
 898:C:/Workspace/DAVE-4.4.2-64Bit/optiga-trust-m/externals/mbedtls/library\pkparse.c ****             if( ( ret = pk_get_ecpubkey( &p, end2, eck ) ) == 0 )
 340              	 .loc 1 898 0
 341 0114 0028     	 cmp r0,#0
 342 0116 1AD0     	 beq .L29
 899:C:/Workspace/DAVE-4.4.2-64Bit/optiga-trust-m/externals/mbedtls/library\pkparse.c ****                 pubkey_done = 1;
 900:C:/Workspace/DAVE-4.4.2-64Bit/optiga-trust-m/externals/mbedtls/library\pkparse.c ****             else
 901:C:/Workspace/DAVE-4.4.2-64Bit/optiga-trust-m/externals/mbedtls/library\pkparse.c ****             {
 902:C:/Workspace/DAVE-4.4.2-64Bit/optiga-trust-m/externals/mbedtls/library\pkparse.c ****                 /*
 903:C:/Workspace/DAVE-4.4.2-64Bit/optiga-trust-m/externals/mbedtls/library\pkparse.c ****                  * The only acceptable failure mode of pk_get_ecpubkey() above
 904:C:/Workspace/DAVE-4.4.2-64Bit/optiga-trust-m/externals/mbedtls/library\pkparse.c ****                  * is if the point format is not recognized.
 905:C:/Workspace/DAVE-4.4.2-64Bit/optiga-trust-m/externals/mbedtls/library\pkparse.c ****                  */
 906:C:/Workspace/DAVE-4.4.2-64Bit/optiga-trust-m/externals/mbedtls/library\pkparse.c ****                 if( ret != MBEDTLS_ERR_ECP_FEATURE_UNAVAILABLE )
 343              	 .loc 1 906 0
 344 0118 1A4B     	 ldr r3,.L54+8
 345 011a 9842     	 cmp r0,r3
 346 011c 0AD0     	 beq .L25
 907:C:/Workspace/DAVE-4.4.2-64Bit/optiga-trust-m/externals/mbedtls/library\pkparse.c ****                     return( MBEDTLS_ERR_PK_KEY_INVALID_FORMAT );
 347              	 .loc 1 907 0
 348 011e 1748     	 ldr r0,.L54
 349              	.LVL51:
 350 0120 2AE0     	 b .L44
 351              	.LVL52:
 352              	.L26:
 908:C:/Workspace/DAVE-4.4.2-64Bit/optiga-trust-m/externals/mbedtls/library\pkparse.c ****             }
 909:C:/Workspace/DAVE-4.4.2-64Bit/optiga-trust-m/externals/mbedtls/library\pkparse.c ****         }
 910:C:/Workspace/DAVE-4.4.2-64Bit/optiga-trust-m/externals/mbedtls/library\pkparse.c ****         else if( ret != MBEDTLS_ERR_ASN1_UNEXPECTED_TAG )
 353              	 .loc 1 910 0
 354 0122 031C     	 mov r3,r0
 355 0124 6233     	 add r3,r3,#98
 356 0126 05D0     	 beq .L25
 357              	.LVL53:
 358              	.L30:
 911:C:/Workspace/DAVE-4.4.2-64Bit/optiga-trust-m/externals/mbedtls/library\pkparse.c ****         {
 912:C:/Workspace/DAVE-4.4.2-64Bit/optiga-trust-m/externals/mbedtls/library\pkparse.c ****             mbedtls_ecp_keypair_free( eck );
 913:C:/Workspace/DAVE-4.4.2-64Bit/optiga-trust-m/externals/mbedtls/library\pkparse.c ****             return( MBEDTLS_ERR_PK_KEY_INVALID_FORMAT + ret );
 914:C:/Workspace/DAVE-4.4.2-64Bit/optiga-trust-m/externals/mbedtls/library\pkparse.c ****         }
 915:C:/Workspace/DAVE-4.4.2-64Bit/optiga-trust-m/externals/mbedtls/library\pkparse.c ****     }
 916:C:/Workspace/DAVE-4.4.2-64Bit/optiga-trust-m/externals/mbedtls/library\pkparse.c **** 
 917:C:/Workspace/DAVE-4.4.2-64Bit/optiga-trust-m/externals/mbedtls/library\pkparse.c ****     if( ! pubkey_done &&
 918:C:/Workspace/DAVE-4.4.2-64Bit/optiga-trust-m/externals/mbedtls/library\pkparse.c ****         ( ret = mbedtls_ecp_mul( &eck->grp, &eck->Q, &eck->d, &eck->grp.G,
 919:C:/Workspace/DAVE-4.4.2-64Bit/optiga-trust-m/externals/mbedtls/library\pkparse.c ****                                                       NULL, NULL ) ) != 0 )
 920:C:/Workspace/DAVE-4.4.2-64Bit/optiga-trust-m/externals/mbedtls/library\pkparse.c ****     {
 921:C:/Workspace/DAVE-4.4.2-64Bit/optiga-trust-m/externals/mbedtls/library\pkparse.c ****         mbedtls_ecp_keypair_free( eck );
 359              	 .loc 1 921 0
 360 0128 281C     	 mov r0,r5
 361              	.LVL54:
 362 012a FFF7FEFF 	 bl mbedtls_ecp_keypair_free
 363              	.LVL55:
 922:C:/Workspace/DAVE-4.4.2-64Bit/optiga-trust-m/externals/mbedtls/library\pkparse.c ****         return( MBEDTLS_ERR_PK_KEY_INVALID_FORMAT + ret );
 364              	 .loc 1 922 0
 365 012e 134B     	 ldr r3,.L54
 366 0130 E018     	 add r0,r4,r3
 367 0132 21E0     	 b .L44
 368              	.LVL56:
 369              	.L25:
 917:C:/Workspace/DAVE-4.4.2-64Bit/optiga-trust-m/externals/mbedtls/library\pkparse.c ****         ( ret = mbedtls_ecp_mul( &eck->grp, &eck->Q, &eck->d, &eck->grp.G,
 370              	 .loc 1 917 0
 371 0134 0023     	 mov r3,#0
 372 0136 291C     	 mov r1,r5
 373 0138 0093     	 str r3,[sp]
 374 013a 0193     	 str r3,[sp,#4]
 375 013c 2B1C     	 mov r3,r5
 376 013e 281C     	 mov r0,r5
 377 0140 8831     	 add r1,r1,#136
 378 0142 321C     	 mov r2,r6
 379 0144 2833     	 add r3,r3,#40
 380 0146 FFF7FEFF 	 bl mbedtls_ecp_mul
 381              	.LVL57:
 382 014a 041E     	 sub r4,r0,#0
 383              	.LVL58:
 384 014c ECD1     	 bne .L30
 385              	.LVL59:
 386              	.L29:
 923:C:/Workspace/DAVE-4.4.2-64Bit/optiga-trust-m/externals/mbedtls/library\pkparse.c ****     }
 924:C:/Workspace/DAVE-4.4.2-64Bit/optiga-trust-m/externals/mbedtls/library\pkparse.c **** 
 925:C:/Workspace/DAVE-4.4.2-64Bit/optiga-trust-m/externals/mbedtls/library\pkparse.c ****     if( ( ret = mbedtls_ecp_check_privkey( &eck->grp, &eck->d ) ) != 0 )
 387              	 .loc 1 925 0
 388 014e 281C     	 mov r0,r5
 389 0150 311C     	 mov r1,r6
 390 0152 FFF7FEFF 	 bl mbedtls_ecp_check_privkey
 391              	.LVL60:
 392 0156 041C     	 mov r4,r0
 393              	.LVL61:
 926:C:/Workspace/DAVE-4.4.2-64Bit/optiga-trust-m/externals/mbedtls/library\pkparse.c ****     {
 927:C:/Workspace/DAVE-4.4.2-64Bit/optiga-trust-m/externals/mbedtls/library\pkparse.c ****         mbedtls_ecp_keypair_free( eck );
 928:C:/Workspace/DAVE-4.4.2-64Bit/optiga-trust-m/externals/mbedtls/library\pkparse.c ****         return( ret );
 929:C:/Workspace/DAVE-4.4.2-64Bit/optiga-trust-m/externals/mbedtls/library\pkparse.c ****     }
 930:C:/Workspace/DAVE-4.4.2-64Bit/optiga-trust-m/externals/mbedtls/library\pkparse.c **** 
 931:C:/Workspace/DAVE-4.4.2-64Bit/optiga-trust-m/externals/mbedtls/library\pkparse.c ****     return( 0 );
 394              	 .loc 1 931 0
 395 0158 0020     	 mov r0,#0
 396              	.LVL62:
 925:C:/Workspace/DAVE-4.4.2-64Bit/optiga-trust-m/externals/mbedtls/library\pkparse.c ****     {
 397              	 .loc 1 925 0
 398 015a 8442     	 cmp r4,r0
 399 015c 0CD0     	 beq .L44
 400              	.LVL63:
 401              	.L53:
 927:C:/Workspace/DAVE-4.4.2-64Bit/optiga-trust-m/externals/mbedtls/library\pkparse.c ****         return( ret );
 402              	 .loc 1 927 0
 403 015e 281C     	 mov r0,r5
 404 0160 FFF7FEFF 	 bl mbedtls_ecp_keypair_free
 405              	.LVL64:
 928:C:/Workspace/DAVE-4.4.2-64Bit/optiga-trust-m/externals/mbedtls/library\pkparse.c ****     }
 406              	 .loc 1 928 0
 407 0164 201C     	 mov r0,r4
 408 0166 07E0     	 b .L44
 409              	.LVL65:
 410              	.L31:
 844:C:/Workspace/DAVE-4.4.2-64Bit/optiga-trust-m/externals/mbedtls/library\pkparse.c **** 
 411              	 .loc 1 844 0
 412 0168 0748     	 ldr r0,.L54+12
 413              	.LVL66:
 414 016a 05E0     	 b .L44
 415              	.LVL67:
 416              	.L35:
 895:C:/Workspace/DAVE-4.4.2-64Bit/optiga-trust-m/externals/mbedtls/library\pkparse.c ****                         MBEDTLS_ERR_ASN1_LENGTH_MISMATCH );
 417              	 .loc 1 895 0
 418 016c 0448     	 ldr r0,.L54+4
 419              	.LVL68:
 420 016e 03E0     	 b .L44
 421              	.LVL69:
 422              	.L32:
 423              	.LBB23:
 424              	.LBB19:
 194:C:/Workspace/DAVE-4.4.2-64Bit/optiga-trust-m/externals/mbedtls/library\pkparse.c ****                 MBEDTLS_ERR_ASN1_OUT_OF_DATA );
 425              	 .loc 1 194 0
 426 0170 064C     	 ldr r4,.L54+16
 427              	.LVL70:
 428 0172 F4E7     	 b .L53
 429              	.LVL71:
 430              	.L33:
 205:C:/Workspace/DAVE-4.4.2-64Bit/optiga-trust-m/externals/mbedtls/library\pkparse.c ****                 MBEDTLS_ERR_ASN1_UNEXPECTED_TAG );
 431              	 .loc 1 205 0
 432 0174 064C     	 ldr r4,.L54+20
 433              	.LVL72:
 434 0176 F2E7     	 b .L53
 435              	.LVL73:
 436              	.L44:
 437              	.LBE19:
 438              	.LBE23:
 932:C:/Workspace/DAVE-4.4.2-64Bit/optiga-trust-m/externals/mbedtls/library\pkparse.c **** }
 439              	 .loc 1 932 0
 440 0178 09B0     	 add sp,sp,#36
 441              	 
 442              	.LVL74:
 443 017a F0BD     	 pop {r4,r5,r6,r7,pc}
 444              	.L55:
 445              	 .align 2
 446              	.L54:
 447 017c 00C3FFFF 	 .word -15616
 448 0180 9AC2FFFF 	 .word -15718
 449 0184 80B1FFFF 	 .word -20096
 450 0188 80C2FFFF 	 .word -15744
 451 018c A0C2FFFF 	 .word -15712
 452 0190 9EC2FFFF 	 .word -15714
 453              	 .cfi_endproc
 454              	.LFE14:
 456              	 .section .text.pk_get_pk_alg,"ax",%progbits
 457              	 .align 1
 458              	 .code 16
 459              	 .thumb_func
 461              	pk_get_pk_alg:
 462              	.LFB12:
 585:C:/Workspace/DAVE-4.4.2-64Bit/optiga-trust-m/externals/mbedtls/library\pkparse.c ****     int ret;
 463              	 .loc 1 585 0
 464              	 .cfi_startproc
 465              	.LVL75:
 466 0000 F0B5     	 push {r4,r5,r6,r7,lr}
 467              	.LCFI3:
 468              	 .cfi_def_cfa_offset 20
 469              	 .cfi_offset 4,-20
 470              	 .cfi_offset 5,-16
 471              	 .cfi_offset 6,-12
 472              	 .cfi_offset 7,-8
 473              	 .cfi_offset 14,-4
 474 0002 071C     	 mov r7,r0
 475 0004 0E1C     	 mov r6,r1
 476 0006 1C1C     	 mov r4,r3
 477 0008 85B0     	 sub sp,sp,#20
 478              	.LCFI4:
 479              	 .cfi_def_cfa_offset 40
 589:C:/Workspace/DAVE-4.4.2-64Bit/optiga-trust-m/externals/mbedtls/library\pkparse.c **** 
 480              	 .loc 1 589 0
 481 000a 181C     	 mov r0,r3
 482              	.LVL76:
 483 000c 0021     	 mov r1,#0
 484              	.LVL77:
 585:C:/Workspace/DAVE-4.4.2-64Bit/optiga-trust-m/externals/mbedtls/library\pkparse.c ****     int ret;
 485              	 .loc 1 585 0
 486 000e 151C     	 mov r5,r2
 589:C:/Workspace/DAVE-4.4.2-64Bit/optiga-trust-m/externals/mbedtls/library\pkparse.c **** 
 487              	 .loc 1 589 0
 488 0010 0C22     	 mov r2,#12
 489              	.LVL78:
 490 0012 FFF7FEFF 	 bl memset
 491              	.LVL79:
 591:C:/Workspace/DAVE-4.4.2-64Bit/optiga-trust-m/externals/mbedtls/library\pkparse.c ****         return( MBEDTLS_ERR_PK_INVALID_ALG + ret );
 492              	 .loc 1 591 0
 493 0016 381C     	 mov r0,r7
 494 0018 311C     	 mov r1,r6
 495 001a 01AA     	 add r2,sp,#4
 496 001c 231C     	 mov r3,r4
 497 001e FFF7FEFF 	 bl mbedtls_asn1_get_alg
 498              	.LVL80:
 499 0022 0028     	 cmp r0,#0
 500 0024 02D0     	 beq .L57
 592:C:/Workspace/DAVE-4.4.2-64Bit/optiga-trust-m/externals/mbedtls/library\pkparse.c **** 
 501              	 .loc 1 592 0
 502 0026 0D4B     	 ldr r3,.L68
 503 0028 C018     	 add r0,r0,r3
 504              	.LVL81:
 505 002a 14E0     	 b .L58
 506              	.LVL82:
 507              	.L57:
 594:C:/Workspace/DAVE-4.4.2-64Bit/optiga-trust-m/externals/mbedtls/library\pkparse.c ****         return( MBEDTLS_ERR_PK_UNKNOWN_PK_ALG );
 508              	 .loc 1 594 0
 509 002c 01A8     	 add r0,sp,#4
 510              	.LVL83:
 511 002e 291C     	 mov r1,r5
 512 0030 FFF7FEFF 	 bl mbedtls_oid_get_pk_alg
 513              	.LVL84:
 514 0034 0028     	 cmp r0,#0
 515 0036 0BD1     	 bne .L60
 516              	.LVL85:
 517              	.LBB26:
 518              	.LBB27:
 600:C:/Workspace/DAVE-4.4.2-64Bit/optiga-trust-m/externals/mbedtls/library\pkparse.c ****             ( ( params->tag != MBEDTLS_ASN1_NULL && params->tag != 0 ) ||
 519              	 .loc 1 600 0
 520 0038 2B78     	 ldrb r3,[r5]
 521 003a 012B     	 cmp r3,#1
 522 003c 0BD1     	 bne .L58
 601:C:/Workspace/DAVE-4.4.2-64Bit/optiga-trust-m/externals/mbedtls/library\pkparse.c ****                 params->len != 0 ) )
 523              	 .loc 1 601 0
 524 003e 2368     	 ldr r3,[r4]
 600:C:/Workspace/DAVE-4.4.2-64Bit/optiga-trust-m/externals/mbedtls/library\pkparse.c ****             ( ( params->tag != MBEDTLS_ASN1_NULL && params->tag != 0 ) ||
 525              	 .loc 1 600 0
 526 0040 052B     	 cmp r3,#5
 527 0042 01D0     	 beq .L59
 601:C:/Workspace/DAVE-4.4.2-64Bit/optiga-trust-m/externals/mbedtls/library\pkparse.c ****                 params->len != 0 ) )
 528              	 .loc 1 601 0
 529 0044 002B     	 cmp r3,#0
 530 0046 05D1     	 bne .L61
 531              	.L59:
 532 0048 6368     	 ldr r3,[r4,#4]
 533 004a 002B     	 cmp r3,#0
 534 004c 03D0     	 beq .L58
 535 004e 01E0     	 b .L61
 536              	.LVL86:
 537              	.L60:
 538              	.LBE27:
 539              	.LBE26:
 595:C:/Workspace/DAVE-4.4.2-64Bit/optiga-trust-m/externals/mbedtls/library\pkparse.c **** 
 540              	 .loc 1 595 0
 541 0050 0348     	 ldr r0,.L68+4
 542 0052 00E0     	 b .L58
 543              	.LVL87:
 544              	.L61:
 545              	.LBB29:
 546              	.LBB28:
 604:C:/Workspace/DAVE-4.4.2-64Bit/optiga-trust-m/externals/mbedtls/library\pkparse.c ****     }
 547              	 .loc 1 604 0
 548 0054 0148     	 ldr r0,.L68
 549              	.LVL88:
 550              	.L58:
 551              	.LBE28:
 552              	.LBE29:
 608:C:/Workspace/DAVE-4.4.2-64Bit/optiga-trust-m/externals/mbedtls/library\pkparse.c **** 
 553              	 .loc 1 608 0
 554 0056 05B0     	 add sp,sp,#20
 555              	 
 556              	.LVL89:
 557              	.LVL90:
 558              	.LVL91:
 559              	.LVL92:
 560 0058 F0BD     	 pop {r4,r5,r6,r7,pc}
 561              	.L69:
 562 005a C046     	 .align 2
 563              	.L68:
 564 005c 80C5FFFF 	 .word -14976
 565 0060 80C3FFFF 	 .word -15488
 566              	 .cfi_endproc
 567              	.LFE12:
 569              	 .section .text.mbedtls_pk_parse_subpubkey,"ax",%progbits
 570              	 .align 1
 571              	 .global mbedtls_pk_parse_subpubkey
 572              	 .code 16
 573              	 .thumb_func
 575              	mbedtls_pk_parse_subpubkey:
 576              	.LFB13:
 617:C:/Workspace/DAVE-4.4.2-64Bit/optiga-trust-m/externals/mbedtls/library\pkparse.c ****     int ret;
 577              	 .loc 1 617 0
 578              	 .cfi_startproc
 579              	.LVL93:
 580 0000 F0B5     	 push {r4,r5,r6,r7,lr}
 581              	.LCFI5:
 582              	 .cfi_def_cfa_offset 20
 583              	 .cfi_offset 4,-20
 584              	 .cfi_offset 5,-16
 585              	 .cfi_offset 6,-12
 586              	 .cfi_offset 7,-8
 587              	 .cfi_offset 14,-4
 588 0002 89B0     	 sub sp,sp,#36
 589              	.LCFI6:
 590              	 .cfi_def_cfa_offset 56
 621:C:/Workspace/DAVE-4.4.2-64Bit/optiga-trust-m/externals/mbedtls/library\pkparse.c ****     const mbedtls_pk_info_t *pk_info;
 591              	 .loc 1 621 0
 592 0004 02AB     	 add r3,sp,#8
 593 0006 DC1D     	 add r4,r3,#7
 594 0008 0023     	 mov r3,#0
 617:C:/Workspace/DAVE-4.4.2-64Bit/optiga-trust-m/externals/mbedtls/library\pkparse.c ****     int ret;
 595              	 .loc 1 617 0
 596 000a 161C     	 mov r6,r2
 621:C:/Workspace/DAVE-4.4.2-64Bit/optiga-trust-m/externals/mbedtls/library\pkparse.c ****     const mbedtls_pk_info_t *pk_info;
 597              	 .loc 1 621 0
 598 000c 2370     	 strb r3,[r4]
 629:C:/Workspace/DAVE-4.4.2-64Bit/optiga-trust-m/externals/mbedtls/library\pkparse.c ****                     MBEDTLS_ASN1_CONSTRUCTED | MBEDTLS_ASN1_SEQUENCE ) ) != 0 )
 599              	 .loc 1 629 0
 600 000e 04AA     	 add r2,sp,#16
 601              	.LVL94:
 602 0010 3033     	 add r3,r3,#48
 617:C:/Workspace/DAVE-4.4.2-64Bit/optiga-trust-m/externals/mbedtls/library\pkparse.c ****     int ret;
 603              	 .loc 1 617 0
 604 0012 051C     	 mov r5,r0
 629:C:/Workspace/DAVE-4.4.2-64Bit/optiga-trust-m/externals/mbedtls/library\pkparse.c ****                     MBEDTLS_ASN1_CONSTRUCTED | MBEDTLS_ASN1_SEQUENCE ) ) != 0 )
 605              	 .loc 1 629 0
 606 0014 FFF7FEFF 	 bl mbedtls_asn1_get_tag
 607              	.LVL95:
 608 0018 0028     	 cmp r0,#0
 609 001a 01D0     	 beq .L71
 632:C:/Workspace/DAVE-4.4.2-64Bit/optiga-trust-m/externals/mbedtls/library\pkparse.c ****     }
 610              	 .loc 1 632 0
 611 001c 294B     	 ldr r3,.L85
 612 001e 12E0     	 b .L83
 613              	.L71:
 635:C:/Workspace/DAVE-4.4.2-64Bit/optiga-trust-m/externals/mbedtls/library\pkparse.c **** 
 614              	 .loc 1 635 0
 615 0020 2B68     	 ldr r3,[r5]
 616 0022 049A     	 ldr r2,[sp,#16]
 637:C:/Workspace/DAVE-4.4.2-64Bit/optiga-trust-m/externals/mbedtls/library\pkparse.c ****         return( ret );
 617              	 .loc 1 637 0
 618 0024 281C     	 mov r0,r5
 619              	.LVL96:
 635:C:/Workspace/DAVE-4.4.2-64Bit/optiga-trust-m/externals/mbedtls/library\pkparse.c **** 
 620              	 .loc 1 635 0
 621 0026 9F18     	 add r7,r3,r2
 622              	.LVL97:
 637:C:/Workspace/DAVE-4.4.2-64Bit/optiga-trust-m/externals/mbedtls/library\pkparse.c ****         return( ret );
 623              	 .loc 1 637 0
 624 0028 391C     	 mov r1,r7
 625 002a 221C     	 mov r2,r4
 626 002c 05AB     	 add r3,sp,#20
 627 002e FFF7FEFF 	 bl pk_get_pk_alg
 628              	.LVL98:
 629 0032 0028     	 cmp r0,#0
 630 0034 44D1     	 bne .L82
 640:C:/Workspace/DAVE-4.4.2-64Bit/optiga-trust-m/externals/mbedtls/library\pkparse.c ****         return( MBEDTLS_ERR_PK_INVALID_PUBKEY + ret );
 631              	 .loc 1 640 0
 632 0036 281C     	 mov r0,r5
 633              	.LVL99:
 634 0038 391C     	 mov r1,r7
 635 003a 04AA     	 add r2,sp,#16
 636 003c FFF7FEFF 	 bl mbedtls_asn1_get_bitstring_null
 637              	.LVL100:
 638 0040 0028     	 cmp r0,#0
 639 0042 02D0     	 beq .L73
 641:C:/Workspace/DAVE-4.4.2-64Bit/optiga-trust-m/externals/mbedtls/library\pkparse.c **** 
 640              	 .loc 1 641 0
 641 0044 204B     	 ldr r3,.L85+4
 642              	.LVL101:
 643              	.L83:
 644 0046 C018     	 add r0,r0,r3
 645              	.LVL102:
 646 0048 3AE0     	 b .L82
 647              	.LVL103:
 648              	.L73:
 643:C:/Workspace/DAVE-4.4.2-64Bit/optiga-trust-m/externals/mbedtls/library\pkparse.c ****         return( MBEDTLS_ERR_PK_INVALID_PUBKEY +
 649              	 .loc 1 643 0
 650 004a 049A     	 ldr r2,[sp,#16]
 651 004c 2B68     	 ldr r3,[r5]
 652 004e 9446     	 mov ip,r2
 653 0050 6344     	 add r3,r3,ip
 654 0052 0093     	 str r3,[sp]
 655 0054 BB42     	 cmp r3,r7
 656 0056 2AD1     	 bne .L78
 647:C:/Workspace/DAVE-4.4.2-64Bit/optiga-trust-m/externals/mbedtls/library\pkparse.c ****         return( MBEDTLS_ERR_PK_UNKNOWN_PK_ALG );
 657              	 .loc 1 647 0
 658 0058 2078     	 ldrb r0,[r4]
 659              	.LVL104:
 660 005a FFF7FEFF 	 bl mbedtls_pk_info_from_type
 661              	.LVL105:
 662 005e 011E     	 sub r1,r0,#0
 663              	.LVL106:
 664 0060 27D0     	 beq .L79
 650:C:/Workspace/DAVE-4.4.2-64Bit/optiga-trust-m/externals/mbedtls/library\pkparse.c ****         return( ret );
 665              	 .loc 1 650 0
 666 0062 301C     	 mov r0,r6
 667              	.LVL107:
 668 0064 FFF7FEFF 	 bl mbedtls_pk_setup
 669              	.LVL108:
 670 0068 0028     	 cmp r0,#0
 671 006a 29D1     	 bne .L82
 660:C:/Workspace/DAVE-4.4.2-64Bit/optiga-trust-m/externals/mbedtls/library\pkparse.c ****     {
 672              	 .loc 1 660 0
 673 006c 2378     	 ldrb r3,[r4]
 674 006e 023B     	 sub r3,r3,#2
 675 0070 012B     	 cmp r3,#1
 676 0072 20D8     	 bhi .L81
 662:C:/Workspace/DAVE-4.4.2-64Bit/optiga-trust-m/externals/mbedtls/library\pkparse.c ****         if( ret == 0 )
 677              	 .loc 1 662 0
 678 0074 05A8     	 add r0,sp,#20
 679              	.LVL109:
 680 0076 7168     	 ldr r1,[r6,#4]
 681 0078 FFF7FEFF 	 bl pk_use_ecparams
 682              	.LVL110:
 683 007c 041E     	 sub r4,r0,#0
 684              	.LVL111:
 663:C:/Workspace/DAVE-4.4.2-64Bit/optiga-trust-m/externals/mbedtls/library\pkparse.c ****             ret = pk_get_ecpubkey( p, end, mbedtls_pk_ec( *pk ) );
 685              	 .loc 1 663 0
 686 007e 1BD1     	 bne .L76
 687 0080 7768     	 ldr r7,[r6,#4]
 688              	.LVL112:
 689              	.LBB32:
 690              	.LBB33:
 506:C:/Workspace/DAVE-4.4.2-64Bit/optiga-trust-m/externals/mbedtls/library\pkparse.c ****     {
 691              	 .loc 1 506 0
 692 0082 2A68     	 ldr r2,[r5]
 505:C:/Workspace/DAVE-4.4.2-64Bit/optiga-trust-m/externals/mbedtls/library\pkparse.c ****                     (const unsigned char *) *p, end - *p ) ) == 0 )
 693              	 .loc 1 505 0
 694 0084 3B1C     	 mov r3,r7
 695 0086 8833     	 add r3,r3,#136
 696 0088 0193     	 str r3,[sp,#4]
 506:C:/Workspace/DAVE-4.4.2-64Bit/optiga-trust-m/externals/mbedtls/library\pkparse.c ****     {
 697              	 .loc 1 506 0
 698 008a 009B     	 ldr r3,[sp]
 505:C:/Workspace/DAVE-4.4.2-64Bit/optiga-trust-m/externals/mbedtls/library\pkparse.c ****                     (const unsigned char *) *p, end - *p ) ) == 0 )
 699              	 .loc 1 505 0
 700 008c 381C     	 mov r0,r7
 701              	.LVL113:
 506:C:/Workspace/DAVE-4.4.2-64Bit/optiga-trust-m/externals/mbedtls/library\pkparse.c ****     {
 702              	 .loc 1 506 0
 703 008e 9B1A     	 sub r3,r3,r2
 505:C:/Workspace/DAVE-4.4.2-64Bit/optiga-trust-m/externals/mbedtls/library\pkparse.c ****                     (const unsigned char *) *p, end - *p ) ) == 0 )
 704              	 .loc 1 505 0
 705 0090 0199     	 ldr r1,[sp,#4]
 706 0092 FFF7FEFF 	 bl mbedtls_ecp_point_read_binary
 707              	.LVL114:
 708 0096 041E     	 sub r4,r0,#0
 709              	.LVL115:
 710 0098 04D1     	 bne .L75
 508:C:/Workspace/DAVE-4.4.2-64Bit/optiga-trust-m/externals/mbedtls/library\pkparse.c ****     }
 711              	 .loc 1 508 0
 712 009a 381C     	 mov r0,r7
 713              	.LVL116:
 714 009c 0199     	 ldr r1,[sp,#4]
 715 009e FFF7FEFF 	 bl mbedtls_ecp_check_pubkey
 716              	.LVL117:
 717 00a2 041C     	 mov r4,r0
 718              	.LVL118:
 719              	.L75:
 514:C:/Workspace/DAVE-4.4.2-64Bit/optiga-trust-m/externals/mbedtls/library\pkparse.c **** 
 720              	 .loc 1 514 0
 721 00a4 009B     	 ldr r3,[sp]
 722 00a6 2B60     	 str r3,[r5]
 723              	.LVL119:
 724              	.LBE33:
 725              	.LBE32:
 669:C:/Workspace/DAVE-4.4.2-64Bit/optiga-trust-m/externals/mbedtls/library\pkparse.c ****         ret = MBEDTLS_ERR_PK_INVALID_PUBKEY
 726              	 .loc 1 669 0
 727 00a8 002C     	 cmp r4,#0
 728 00aa 08D0     	 beq .L84
 729 00ac 04E0     	 b .L76
 730              	.LVL120:
 731              	.L78:
 644:C:/Workspace/DAVE-4.4.2-64Bit/optiga-trust-m/externals/mbedtls/library\pkparse.c ****                 MBEDTLS_ERR_ASN1_LENGTH_MISMATCH );
 732              	 .loc 1 644 0
 733 00ae 0748     	 ldr r0,.L85+8
 734              	.LVL121:
 735 00b0 06E0     	 b .L82
 736              	.LVL122:
 737              	.L79:
 648:C:/Workspace/DAVE-4.4.2-64Bit/optiga-trust-m/externals/mbedtls/library\pkparse.c **** 
 738              	 .loc 1 648 0
 739 00b2 0748     	 ldr r0,.L85+12
 740              	.LVL123:
 741 00b4 04E0     	 b .L82
 742              	.LVL124:
 743              	.L81:
 667:C:/Workspace/DAVE-4.4.2-64Bit/optiga-trust-m/externals/mbedtls/library\pkparse.c **** 
 744              	 .loc 1 667 0
 745 00b6 064C     	 ldr r4,.L85+12
 746              	.LVL125:
 747              	.L76:
 674:C:/Workspace/DAVE-4.4.2-64Bit/optiga-trust-m/externals/mbedtls/library\pkparse.c **** 
 748              	 .loc 1 674 0
 749 00b8 301C     	 mov r0,r6
 750 00ba FFF7FEFF 	 bl mbedtls_pk_free
 751              	.LVL126:
 752              	.L84:
 753 00be 201C     	 mov r0,r4
 754              	.LVL127:
 755              	.L82:
 677:C:/Workspace/DAVE-4.4.2-64Bit/optiga-trust-m/externals/mbedtls/library\pkparse.c **** 
 756              	 .loc 1 677 0
 757 00c0 09B0     	 add sp,sp,#36
 758              	 
 759              	.LVL128:
 760              	.LVL129:
 761 00c2 F0BD     	 pop {r4,r5,r6,r7,pc}
 762              	.L86:
 763              	 .align 2
 764              	.L85:
 765 00c4 00C3FFFF 	 .word -15616
 766 00c8 00C5FFFF 	 .word -15104
 767 00cc 9AC4FFFF 	 .word -15206
 768 00d0 80C3FFFF 	 .word -15488
 769              	 .cfi_endproc
 770              	.LFE13:
 772              	 .section .text.mbedtls_pk_parse_key,"ax",%progbits
 773              	 .align 1
 774              	 .global mbedtls_pk_parse_key
 775              	 .code 16
 776              	 .thumb_func
 778              	mbedtls_pk_parse_key:
 779              	.LFB16:
 933:C:/Workspace/DAVE-4.4.2-64Bit/optiga-trust-m/externals/mbedtls/library\pkparse.c **** #endif /* MBEDTLS_ECP_C */
 934:C:/Workspace/DAVE-4.4.2-64Bit/optiga-trust-m/externals/mbedtls/library\pkparse.c **** 
 935:C:/Workspace/DAVE-4.4.2-64Bit/optiga-trust-m/externals/mbedtls/library\pkparse.c **** /*
 936:C:/Workspace/DAVE-4.4.2-64Bit/optiga-trust-m/externals/mbedtls/library\pkparse.c ****  * Parse an unencrypted PKCS#8 encoded private key
 937:C:/Workspace/DAVE-4.4.2-64Bit/optiga-trust-m/externals/mbedtls/library\pkparse.c ****  *
 938:C:/Workspace/DAVE-4.4.2-64Bit/optiga-trust-m/externals/mbedtls/library\pkparse.c ****  * Notes:
 939:C:/Workspace/DAVE-4.4.2-64Bit/optiga-trust-m/externals/mbedtls/library\pkparse.c ****  *
 940:C:/Workspace/DAVE-4.4.2-64Bit/optiga-trust-m/externals/mbedtls/library\pkparse.c ****  * - This function does not own the key buffer. It is the
 941:C:/Workspace/DAVE-4.4.2-64Bit/optiga-trust-m/externals/mbedtls/library\pkparse.c ****  *   responsibility of the caller to take care of zeroizing
 942:C:/Workspace/DAVE-4.4.2-64Bit/optiga-trust-m/externals/mbedtls/library\pkparse.c ****  *   and freeing it after use.
 943:C:/Workspace/DAVE-4.4.2-64Bit/optiga-trust-m/externals/mbedtls/library\pkparse.c ****  *
 944:C:/Workspace/DAVE-4.4.2-64Bit/optiga-trust-m/externals/mbedtls/library\pkparse.c ****  * - The function is responsible for freeing the provided
 945:C:/Workspace/DAVE-4.4.2-64Bit/optiga-trust-m/externals/mbedtls/library\pkparse.c ****  *   PK context on failure.
 946:C:/Workspace/DAVE-4.4.2-64Bit/optiga-trust-m/externals/mbedtls/library\pkparse.c ****  *
 947:C:/Workspace/DAVE-4.4.2-64Bit/optiga-trust-m/externals/mbedtls/library\pkparse.c ****  */
 948:C:/Workspace/DAVE-4.4.2-64Bit/optiga-trust-m/externals/mbedtls/library\pkparse.c **** static int pk_parse_key_pkcs8_unencrypted_der(
 949:C:/Workspace/DAVE-4.4.2-64Bit/optiga-trust-m/externals/mbedtls/library\pkparse.c ****                                     mbedtls_pk_context *pk,
 950:C:/Workspace/DAVE-4.4.2-64Bit/optiga-trust-m/externals/mbedtls/library\pkparse.c ****                                     const unsigned char* key,
 951:C:/Workspace/DAVE-4.4.2-64Bit/optiga-trust-m/externals/mbedtls/library\pkparse.c ****                                     size_t keylen )
 952:C:/Workspace/DAVE-4.4.2-64Bit/optiga-trust-m/externals/mbedtls/library\pkparse.c **** {
 953:C:/Workspace/DAVE-4.4.2-64Bit/optiga-trust-m/externals/mbedtls/library\pkparse.c ****     int ret, version;
 954:C:/Workspace/DAVE-4.4.2-64Bit/optiga-trust-m/externals/mbedtls/library\pkparse.c ****     size_t len;
 955:C:/Workspace/DAVE-4.4.2-64Bit/optiga-trust-m/externals/mbedtls/library\pkparse.c ****     mbedtls_asn1_buf params;
 956:C:/Workspace/DAVE-4.4.2-64Bit/optiga-trust-m/externals/mbedtls/library\pkparse.c ****     unsigned char *p = (unsigned char *) key;
 957:C:/Workspace/DAVE-4.4.2-64Bit/optiga-trust-m/externals/mbedtls/library\pkparse.c ****     unsigned char *end = p + keylen;
 958:C:/Workspace/DAVE-4.4.2-64Bit/optiga-trust-m/externals/mbedtls/library\pkparse.c ****     mbedtls_pk_type_t pk_alg = MBEDTLS_PK_NONE;
 959:C:/Workspace/DAVE-4.4.2-64Bit/optiga-trust-m/externals/mbedtls/library\pkparse.c ****     const mbedtls_pk_info_t *pk_info;
 960:C:/Workspace/DAVE-4.4.2-64Bit/optiga-trust-m/externals/mbedtls/library\pkparse.c **** 
 961:C:/Workspace/DAVE-4.4.2-64Bit/optiga-trust-m/externals/mbedtls/library\pkparse.c ****     /*
 962:C:/Workspace/DAVE-4.4.2-64Bit/optiga-trust-m/externals/mbedtls/library\pkparse.c ****      * This function parses the PrivateKeyInfo object (PKCS#8 v1.2 = RFC 5208)
 963:C:/Workspace/DAVE-4.4.2-64Bit/optiga-trust-m/externals/mbedtls/library\pkparse.c ****      *
 964:C:/Workspace/DAVE-4.4.2-64Bit/optiga-trust-m/externals/mbedtls/library\pkparse.c ****      *    PrivateKeyInfo ::= SEQUENCE {
 965:C:/Workspace/DAVE-4.4.2-64Bit/optiga-trust-m/externals/mbedtls/library\pkparse.c ****      *      version                   Version,
 966:C:/Workspace/DAVE-4.4.2-64Bit/optiga-trust-m/externals/mbedtls/library\pkparse.c ****      *      privateKeyAlgorithm       PrivateKeyAlgorithmIdentifier,
 967:C:/Workspace/DAVE-4.4.2-64Bit/optiga-trust-m/externals/mbedtls/library\pkparse.c ****      *      privateKey                PrivateKey,
 968:C:/Workspace/DAVE-4.4.2-64Bit/optiga-trust-m/externals/mbedtls/library\pkparse.c ****      *      attributes           [0]  IMPLICIT Attributes OPTIONAL }
 969:C:/Workspace/DAVE-4.4.2-64Bit/optiga-trust-m/externals/mbedtls/library\pkparse.c ****      *
 970:C:/Workspace/DAVE-4.4.2-64Bit/optiga-trust-m/externals/mbedtls/library\pkparse.c ****      *    Version ::= INTEGER
 971:C:/Workspace/DAVE-4.4.2-64Bit/optiga-trust-m/externals/mbedtls/library\pkparse.c ****      *    PrivateKeyAlgorithmIdentifier ::= AlgorithmIdentifier
 972:C:/Workspace/DAVE-4.4.2-64Bit/optiga-trust-m/externals/mbedtls/library\pkparse.c ****      *    PrivateKey ::= OCTET STRING
 973:C:/Workspace/DAVE-4.4.2-64Bit/optiga-trust-m/externals/mbedtls/library\pkparse.c ****      *
 974:C:/Workspace/DAVE-4.4.2-64Bit/optiga-trust-m/externals/mbedtls/library\pkparse.c ****      *  The PrivateKey OCTET STRING is a SEC1 ECPrivateKey
 975:C:/Workspace/DAVE-4.4.2-64Bit/optiga-trust-m/externals/mbedtls/library\pkparse.c ****      */
 976:C:/Workspace/DAVE-4.4.2-64Bit/optiga-trust-m/externals/mbedtls/library\pkparse.c **** 
 977:C:/Workspace/DAVE-4.4.2-64Bit/optiga-trust-m/externals/mbedtls/library\pkparse.c ****     if( ( ret = mbedtls_asn1_get_tag( &p, end, &len,
 978:C:/Workspace/DAVE-4.4.2-64Bit/optiga-trust-m/externals/mbedtls/library\pkparse.c ****             MBEDTLS_ASN1_CONSTRUCTED | MBEDTLS_ASN1_SEQUENCE ) ) != 0 )
 979:C:/Workspace/DAVE-4.4.2-64Bit/optiga-trust-m/externals/mbedtls/library\pkparse.c ****     {
 980:C:/Workspace/DAVE-4.4.2-64Bit/optiga-trust-m/externals/mbedtls/library\pkparse.c ****         return( MBEDTLS_ERR_PK_KEY_INVALID_FORMAT + ret );
 981:C:/Workspace/DAVE-4.4.2-64Bit/optiga-trust-m/externals/mbedtls/library\pkparse.c ****     }
 982:C:/Workspace/DAVE-4.4.2-64Bit/optiga-trust-m/externals/mbedtls/library\pkparse.c **** 
 983:C:/Workspace/DAVE-4.4.2-64Bit/optiga-trust-m/externals/mbedtls/library\pkparse.c ****     end = p + len;
 984:C:/Workspace/DAVE-4.4.2-64Bit/optiga-trust-m/externals/mbedtls/library\pkparse.c **** 
 985:C:/Workspace/DAVE-4.4.2-64Bit/optiga-trust-m/externals/mbedtls/library\pkparse.c ****     if( ( ret = mbedtls_asn1_get_int( &p, end, &version ) ) != 0 )
 986:C:/Workspace/DAVE-4.4.2-64Bit/optiga-trust-m/externals/mbedtls/library\pkparse.c ****         return( MBEDTLS_ERR_PK_KEY_INVALID_FORMAT + ret );
 987:C:/Workspace/DAVE-4.4.2-64Bit/optiga-trust-m/externals/mbedtls/library\pkparse.c **** 
 988:C:/Workspace/DAVE-4.4.2-64Bit/optiga-trust-m/externals/mbedtls/library\pkparse.c ****     if( version != 0 )
 989:C:/Workspace/DAVE-4.4.2-64Bit/optiga-trust-m/externals/mbedtls/library\pkparse.c ****         return( MBEDTLS_ERR_PK_KEY_INVALID_VERSION + ret );
 990:C:/Workspace/DAVE-4.4.2-64Bit/optiga-trust-m/externals/mbedtls/library\pkparse.c **** 
 991:C:/Workspace/DAVE-4.4.2-64Bit/optiga-trust-m/externals/mbedtls/library\pkparse.c ****     if( ( ret = pk_get_pk_alg( &p, end, &pk_alg, &params ) ) != 0 )
 992:C:/Workspace/DAVE-4.4.2-64Bit/optiga-trust-m/externals/mbedtls/library\pkparse.c ****         return( MBEDTLS_ERR_PK_KEY_INVALID_FORMAT + ret );
 993:C:/Workspace/DAVE-4.4.2-64Bit/optiga-trust-m/externals/mbedtls/library\pkparse.c **** 
 994:C:/Workspace/DAVE-4.4.2-64Bit/optiga-trust-m/externals/mbedtls/library\pkparse.c ****     if( ( ret = mbedtls_asn1_get_tag( &p, end, &len, MBEDTLS_ASN1_OCTET_STRING ) ) != 0 )
 995:C:/Workspace/DAVE-4.4.2-64Bit/optiga-trust-m/externals/mbedtls/library\pkparse.c ****         return( MBEDTLS_ERR_PK_KEY_INVALID_FORMAT + ret );
 996:C:/Workspace/DAVE-4.4.2-64Bit/optiga-trust-m/externals/mbedtls/library\pkparse.c **** 
 997:C:/Workspace/DAVE-4.4.2-64Bit/optiga-trust-m/externals/mbedtls/library\pkparse.c ****     if( len < 1 )
 998:C:/Workspace/DAVE-4.4.2-64Bit/optiga-trust-m/externals/mbedtls/library\pkparse.c ****         return( MBEDTLS_ERR_PK_KEY_INVALID_FORMAT +
 999:C:/Workspace/DAVE-4.4.2-64Bit/optiga-trust-m/externals/mbedtls/library\pkparse.c ****                 MBEDTLS_ERR_ASN1_OUT_OF_DATA );
1000:C:/Workspace/DAVE-4.4.2-64Bit/optiga-trust-m/externals/mbedtls/library\pkparse.c **** 
1001:C:/Workspace/DAVE-4.4.2-64Bit/optiga-trust-m/externals/mbedtls/library\pkparse.c ****     if( ( pk_info = mbedtls_pk_info_from_type( pk_alg ) ) == NULL )
1002:C:/Workspace/DAVE-4.4.2-64Bit/optiga-trust-m/externals/mbedtls/library\pkparse.c ****         return( MBEDTLS_ERR_PK_UNKNOWN_PK_ALG );
1003:C:/Workspace/DAVE-4.4.2-64Bit/optiga-trust-m/externals/mbedtls/library\pkparse.c **** 
1004:C:/Workspace/DAVE-4.4.2-64Bit/optiga-trust-m/externals/mbedtls/library\pkparse.c ****     if( ( ret = mbedtls_pk_setup( pk, pk_info ) ) != 0 )
1005:C:/Workspace/DAVE-4.4.2-64Bit/optiga-trust-m/externals/mbedtls/library\pkparse.c ****         return( ret );
1006:C:/Workspace/DAVE-4.4.2-64Bit/optiga-trust-m/externals/mbedtls/library\pkparse.c **** 
1007:C:/Workspace/DAVE-4.4.2-64Bit/optiga-trust-m/externals/mbedtls/library\pkparse.c **** #if defined(MBEDTLS_RSA_C)
1008:C:/Workspace/DAVE-4.4.2-64Bit/optiga-trust-m/externals/mbedtls/library\pkparse.c ****     if( pk_alg == MBEDTLS_PK_RSA )
1009:C:/Workspace/DAVE-4.4.2-64Bit/optiga-trust-m/externals/mbedtls/library\pkparse.c ****     {
1010:C:/Workspace/DAVE-4.4.2-64Bit/optiga-trust-m/externals/mbedtls/library\pkparse.c ****         if( ( ret = pk_parse_key_pkcs1_der( mbedtls_pk_rsa( *pk ), p, len ) ) != 0 )
1011:C:/Workspace/DAVE-4.4.2-64Bit/optiga-trust-m/externals/mbedtls/library\pkparse.c ****         {
1012:C:/Workspace/DAVE-4.4.2-64Bit/optiga-trust-m/externals/mbedtls/library\pkparse.c ****             mbedtls_pk_free( pk );
1013:C:/Workspace/DAVE-4.4.2-64Bit/optiga-trust-m/externals/mbedtls/library\pkparse.c ****             return( ret );
1014:C:/Workspace/DAVE-4.4.2-64Bit/optiga-trust-m/externals/mbedtls/library\pkparse.c ****         }
1015:C:/Workspace/DAVE-4.4.2-64Bit/optiga-trust-m/externals/mbedtls/library\pkparse.c ****     } else
1016:C:/Workspace/DAVE-4.4.2-64Bit/optiga-trust-m/externals/mbedtls/library\pkparse.c **** #endif /* MBEDTLS_RSA_C */
1017:C:/Workspace/DAVE-4.4.2-64Bit/optiga-trust-m/externals/mbedtls/library\pkparse.c **** #if defined(MBEDTLS_ECP_C)
1018:C:/Workspace/DAVE-4.4.2-64Bit/optiga-trust-m/externals/mbedtls/library\pkparse.c ****     if( pk_alg == MBEDTLS_PK_ECKEY || pk_alg == MBEDTLS_PK_ECKEY_DH )
1019:C:/Workspace/DAVE-4.4.2-64Bit/optiga-trust-m/externals/mbedtls/library\pkparse.c ****     {
1020:C:/Workspace/DAVE-4.4.2-64Bit/optiga-trust-m/externals/mbedtls/library\pkparse.c ****         if( ( ret = pk_use_ecparams( &params, &mbedtls_pk_ec( *pk )->grp ) ) != 0 ||
1021:C:/Workspace/DAVE-4.4.2-64Bit/optiga-trust-m/externals/mbedtls/library\pkparse.c ****             ( ret = pk_parse_key_sec1_der( mbedtls_pk_ec( *pk ), p, len )  ) != 0 )
1022:C:/Workspace/DAVE-4.4.2-64Bit/optiga-trust-m/externals/mbedtls/library\pkparse.c ****         {
1023:C:/Workspace/DAVE-4.4.2-64Bit/optiga-trust-m/externals/mbedtls/library\pkparse.c ****             mbedtls_pk_free( pk );
1024:C:/Workspace/DAVE-4.4.2-64Bit/optiga-trust-m/externals/mbedtls/library\pkparse.c ****             return( ret );
1025:C:/Workspace/DAVE-4.4.2-64Bit/optiga-trust-m/externals/mbedtls/library\pkparse.c ****         }
1026:C:/Workspace/DAVE-4.4.2-64Bit/optiga-trust-m/externals/mbedtls/library\pkparse.c ****     } else
1027:C:/Workspace/DAVE-4.4.2-64Bit/optiga-trust-m/externals/mbedtls/library\pkparse.c **** #endif /* MBEDTLS_ECP_C */
1028:C:/Workspace/DAVE-4.4.2-64Bit/optiga-trust-m/externals/mbedtls/library\pkparse.c ****         return( MBEDTLS_ERR_PK_UNKNOWN_PK_ALG );
1029:C:/Workspace/DAVE-4.4.2-64Bit/optiga-trust-m/externals/mbedtls/library\pkparse.c **** 
1030:C:/Workspace/DAVE-4.4.2-64Bit/optiga-trust-m/externals/mbedtls/library\pkparse.c ****     return( 0 );
1031:C:/Workspace/DAVE-4.4.2-64Bit/optiga-trust-m/externals/mbedtls/library\pkparse.c **** }
1032:C:/Workspace/DAVE-4.4.2-64Bit/optiga-trust-m/externals/mbedtls/library\pkparse.c **** 
1033:C:/Workspace/DAVE-4.4.2-64Bit/optiga-trust-m/externals/mbedtls/library\pkparse.c **** /*
1034:C:/Workspace/DAVE-4.4.2-64Bit/optiga-trust-m/externals/mbedtls/library\pkparse.c ****  * Parse an encrypted PKCS#8 encoded private key
1035:C:/Workspace/DAVE-4.4.2-64Bit/optiga-trust-m/externals/mbedtls/library\pkparse.c ****  *
1036:C:/Workspace/DAVE-4.4.2-64Bit/optiga-trust-m/externals/mbedtls/library\pkparse.c ****  * To save space, the decryption happens in-place on the given key buffer.
1037:C:/Workspace/DAVE-4.4.2-64Bit/optiga-trust-m/externals/mbedtls/library\pkparse.c ****  * Also, while this function may modify the keybuffer, it doesn't own it,
1038:C:/Workspace/DAVE-4.4.2-64Bit/optiga-trust-m/externals/mbedtls/library\pkparse.c ****  * and instead it is the responsibility of the caller to zeroize and properly
1039:C:/Workspace/DAVE-4.4.2-64Bit/optiga-trust-m/externals/mbedtls/library\pkparse.c ****  * free it after use.
1040:C:/Workspace/DAVE-4.4.2-64Bit/optiga-trust-m/externals/mbedtls/library\pkparse.c ****  *
1041:C:/Workspace/DAVE-4.4.2-64Bit/optiga-trust-m/externals/mbedtls/library\pkparse.c ****  */
1042:C:/Workspace/DAVE-4.4.2-64Bit/optiga-trust-m/externals/mbedtls/library\pkparse.c **** #if defined(MBEDTLS_PKCS12_C) || defined(MBEDTLS_PKCS5_C)
1043:C:/Workspace/DAVE-4.4.2-64Bit/optiga-trust-m/externals/mbedtls/library\pkparse.c **** static int pk_parse_key_pkcs8_encrypted_der(
1044:C:/Workspace/DAVE-4.4.2-64Bit/optiga-trust-m/externals/mbedtls/library\pkparse.c ****                                     mbedtls_pk_context *pk,
1045:C:/Workspace/DAVE-4.4.2-64Bit/optiga-trust-m/externals/mbedtls/library\pkparse.c ****                                     unsigned char *key, size_t keylen,
1046:C:/Workspace/DAVE-4.4.2-64Bit/optiga-trust-m/externals/mbedtls/library\pkparse.c ****                                     const unsigned char *pwd, size_t pwdlen )
1047:C:/Workspace/DAVE-4.4.2-64Bit/optiga-trust-m/externals/mbedtls/library\pkparse.c **** {
1048:C:/Workspace/DAVE-4.4.2-64Bit/optiga-trust-m/externals/mbedtls/library\pkparse.c ****     int ret, decrypted = 0;
1049:C:/Workspace/DAVE-4.4.2-64Bit/optiga-trust-m/externals/mbedtls/library\pkparse.c ****     size_t len;
1050:C:/Workspace/DAVE-4.4.2-64Bit/optiga-trust-m/externals/mbedtls/library\pkparse.c ****     unsigned char *buf;
1051:C:/Workspace/DAVE-4.4.2-64Bit/optiga-trust-m/externals/mbedtls/library\pkparse.c ****     unsigned char *p, *end;
1052:C:/Workspace/DAVE-4.4.2-64Bit/optiga-trust-m/externals/mbedtls/library\pkparse.c ****     mbedtls_asn1_buf pbe_alg_oid, pbe_params;
1053:C:/Workspace/DAVE-4.4.2-64Bit/optiga-trust-m/externals/mbedtls/library\pkparse.c **** #if defined(MBEDTLS_PKCS12_C)
1054:C:/Workspace/DAVE-4.4.2-64Bit/optiga-trust-m/externals/mbedtls/library\pkparse.c ****     mbedtls_cipher_type_t cipher_alg;
1055:C:/Workspace/DAVE-4.4.2-64Bit/optiga-trust-m/externals/mbedtls/library\pkparse.c ****     mbedtls_md_type_t md_alg;
1056:C:/Workspace/DAVE-4.4.2-64Bit/optiga-trust-m/externals/mbedtls/library\pkparse.c **** #endif
1057:C:/Workspace/DAVE-4.4.2-64Bit/optiga-trust-m/externals/mbedtls/library\pkparse.c **** 
1058:C:/Workspace/DAVE-4.4.2-64Bit/optiga-trust-m/externals/mbedtls/library\pkparse.c ****     p = key;
1059:C:/Workspace/DAVE-4.4.2-64Bit/optiga-trust-m/externals/mbedtls/library\pkparse.c ****     end = p + keylen;
1060:C:/Workspace/DAVE-4.4.2-64Bit/optiga-trust-m/externals/mbedtls/library\pkparse.c **** 
1061:C:/Workspace/DAVE-4.4.2-64Bit/optiga-trust-m/externals/mbedtls/library\pkparse.c ****     if( pwdlen == 0 )
1062:C:/Workspace/DAVE-4.4.2-64Bit/optiga-trust-m/externals/mbedtls/library\pkparse.c ****         return( MBEDTLS_ERR_PK_PASSWORD_REQUIRED );
1063:C:/Workspace/DAVE-4.4.2-64Bit/optiga-trust-m/externals/mbedtls/library\pkparse.c **** 
1064:C:/Workspace/DAVE-4.4.2-64Bit/optiga-trust-m/externals/mbedtls/library\pkparse.c ****     /*
1065:C:/Workspace/DAVE-4.4.2-64Bit/optiga-trust-m/externals/mbedtls/library\pkparse.c ****      * This function parses the EncryptedPrivateKeyInfo object (PKCS#8)
1066:C:/Workspace/DAVE-4.4.2-64Bit/optiga-trust-m/externals/mbedtls/library\pkparse.c ****      *
1067:C:/Workspace/DAVE-4.4.2-64Bit/optiga-trust-m/externals/mbedtls/library\pkparse.c ****      *  EncryptedPrivateKeyInfo ::= SEQUENCE {
1068:C:/Workspace/DAVE-4.4.2-64Bit/optiga-trust-m/externals/mbedtls/library\pkparse.c ****      *    encryptionAlgorithm  EncryptionAlgorithmIdentifier,
1069:C:/Workspace/DAVE-4.4.2-64Bit/optiga-trust-m/externals/mbedtls/library\pkparse.c ****      *    encryptedData        EncryptedData
1070:C:/Workspace/DAVE-4.4.2-64Bit/optiga-trust-m/externals/mbedtls/library\pkparse.c ****      *  }
1071:C:/Workspace/DAVE-4.4.2-64Bit/optiga-trust-m/externals/mbedtls/library\pkparse.c ****      *
1072:C:/Workspace/DAVE-4.4.2-64Bit/optiga-trust-m/externals/mbedtls/library\pkparse.c ****      *  EncryptionAlgorithmIdentifier ::= AlgorithmIdentifier
1073:C:/Workspace/DAVE-4.4.2-64Bit/optiga-trust-m/externals/mbedtls/library\pkparse.c ****      *
1074:C:/Workspace/DAVE-4.4.2-64Bit/optiga-trust-m/externals/mbedtls/library\pkparse.c ****      *  EncryptedData ::= OCTET STRING
1075:C:/Workspace/DAVE-4.4.2-64Bit/optiga-trust-m/externals/mbedtls/library\pkparse.c ****      *
1076:C:/Workspace/DAVE-4.4.2-64Bit/optiga-trust-m/externals/mbedtls/library\pkparse.c ****      *  The EncryptedData OCTET STRING is a PKCS#8 PrivateKeyInfo
1077:C:/Workspace/DAVE-4.4.2-64Bit/optiga-trust-m/externals/mbedtls/library\pkparse.c ****      *
1078:C:/Workspace/DAVE-4.4.2-64Bit/optiga-trust-m/externals/mbedtls/library\pkparse.c ****      */
1079:C:/Workspace/DAVE-4.4.2-64Bit/optiga-trust-m/externals/mbedtls/library\pkparse.c ****     if( ( ret = mbedtls_asn1_get_tag( &p, end, &len,
1080:C:/Workspace/DAVE-4.4.2-64Bit/optiga-trust-m/externals/mbedtls/library\pkparse.c ****             MBEDTLS_ASN1_CONSTRUCTED | MBEDTLS_ASN1_SEQUENCE ) ) != 0 )
1081:C:/Workspace/DAVE-4.4.2-64Bit/optiga-trust-m/externals/mbedtls/library\pkparse.c ****     {
1082:C:/Workspace/DAVE-4.4.2-64Bit/optiga-trust-m/externals/mbedtls/library\pkparse.c ****         return( MBEDTLS_ERR_PK_KEY_INVALID_FORMAT + ret );
1083:C:/Workspace/DAVE-4.4.2-64Bit/optiga-trust-m/externals/mbedtls/library\pkparse.c ****     }
1084:C:/Workspace/DAVE-4.4.2-64Bit/optiga-trust-m/externals/mbedtls/library\pkparse.c **** 
1085:C:/Workspace/DAVE-4.4.2-64Bit/optiga-trust-m/externals/mbedtls/library\pkparse.c ****     end = p + len;
1086:C:/Workspace/DAVE-4.4.2-64Bit/optiga-trust-m/externals/mbedtls/library\pkparse.c **** 
1087:C:/Workspace/DAVE-4.4.2-64Bit/optiga-trust-m/externals/mbedtls/library\pkparse.c ****     if( ( ret = mbedtls_asn1_get_alg( &p, end, &pbe_alg_oid, &pbe_params ) ) != 0 )
1088:C:/Workspace/DAVE-4.4.2-64Bit/optiga-trust-m/externals/mbedtls/library\pkparse.c ****         return( MBEDTLS_ERR_PK_KEY_INVALID_FORMAT + ret );
1089:C:/Workspace/DAVE-4.4.2-64Bit/optiga-trust-m/externals/mbedtls/library\pkparse.c **** 
1090:C:/Workspace/DAVE-4.4.2-64Bit/optiga-trust-m/externals/mbedtls/library\pkparse.c ****     if( ( ret = mbedtls_asn1_get_tag( &p, end, &len, MBEDTLS_ASN1_OCTET_STRING ) ) != 0 )
1091:C:/Workspace/DAVE-4.4.2-64Bit/optiga-trust-m/externals/mbedtls/library\pkparse.c ****         return( MBEDTLS_ERR_PK_KEY_INVALID_FORMAT + ret );
1092:C:/Workspace/DAVE-4.4.2-64Bit/optiga-trust-m/externals/mbedtls/library\pkparse.c **** 
1093:C:/Workspace/DAVE-4.4.2-64Bit/optiga-trust-m/externals/mbedtls/library\pkparse.c ****     buf = p;
1094:C:/Workspace/DAVE-4.4.2-64Bit/optiga-trust-m/externals/mbedtls/library\pkparse.c **** 
1095:C:/Workspace/DAVE-4.4.2-64Bit/optiga-trust-m/externals/mbedtls/library\pkparse.c ****     /*
1096:C:/Workspace/DAVE-4.4.2-64Bit/optiga-trust-m/externals/mbedtls/library\pkparse.c ****      * Decrypt EncryptedData with appropriate PBE
1097:C:/Workspace/DAVE-4.4.2-64Bit/optiga-trust-m/externals/mbedtls/library\pkparse.c ****      */
1098:C:/Workspace/DAVE-4.4.2-64Bit/optiga-trust-m/externals/mbedtls/library\pkparse.c **** #if defined(MBEDTLS_PKCS12_C)
1099:C:/Workspace/DAVE-4.4.2-64Bit/optiga-trust-m/externals/mbedtls/library\pkparse.c ****     if( mbedtls_oid_get_pkcs12_pbe_alg( &pbe_alg_oid, &md_alg, &cipher_alg ) == 0 )
1100:C:/Workspace/DAVE-4.4.2-64Bit/optiga-trust-m/externals/mbedtls/library\pkparse.c ****     {
1101:C:/Workspace/DAVE-4.4.2-64Bit/optiga-trust-m/externals/mbedtls/library\pkparse.c ****         if( ( ret = mbedtls_pkcs12_pbe( &pbe_params, MBEDTLS_PKCS12_PBE_DECRYPT,
1102:C:/Workspace/DAVE-4.4.2-64Bit/optiga-trust-m/externals/mbedtls/library\pkparse.c ****                                 cipher_alg, md_alg,
1103:C:/Workspace/DAVE-4.4.2-64Bit/optiga-trust-m/externals/mbedtls/library\pkparse.c ****                                 pwd, pwdlen, p, len, buf ) ) != 0 )
1104:C:/Workspace/DAVE-4.4.2-64Bit/optiga-trust-m/externals/mbedtls/library\pkparse.c ****         {
1105:C:/Workspace/DAVE-4.4.2-64Bit/optiga-trust-m/externals/mbedtls/library\pkparse.c ****             if( ret == MBEDTLS_ERR_PKCS12_PASSWORD_MISMATCH )
1106:C:/Workspace/DAVE-4.4.2-64Bit/optiga-trust-m/externals/mbedtls/library\pkparse.c ****                 return( MBEDTLS_ERR_PK_PASSWORD_MISMATCH );
1107:C:/Workspace/DAVE-4.4.2-64Bit/optiga-trust-m/externals/mbedtls/library\pkparse.c **** 
1108:C:/Workspace/DAVE-4.4.2-64Bit/optiga-trust-m/externals/mbedtls/library\pkparse.c ****             return( ret );
1109:C:/Workspace/DAVE-4.4.2-64Bit/optiga-trust-m/externals/mbedtls/library\pkparse.c ****         }
1110:C:/Workspace/DAVE-4.4.2-64Bit/optiga-trust-m/externals/mbedtls/library\pkparse.c **** 
1111:C:/Workspace/DAVE-4.4.2-64Bit/optiga-trust-m/externals/mbedtls/library\pkparse.c ****         decrypted = 1;
1112:C:/Workspace/DAVE-4.4.2-64Bit/optiga-trust-m/externals/mbedtls/library\pkparse.c ****     }
1113:C:/Workspace/DAVE-4.4.2-64Bit/optiga-trust-m/externals/mbedtls/library\pkparse.c ****     else if( MBEDTLS_OID_CMP( MBEDTLS_OID_PKCS12_PBE_SHA1_RC4_128, &pbe_alg_oid ) == 0 )
1114:C:/Workspace/DAVE-4.4.2-64Bit/optiga-trust-m/externals/mbedtls/library\pkparse.c ****     {
1115:C:/Workspace/DAVE-4.4.2-64Bit/optiga-trust-m/externals/mbedtls/library\pkparse.c ****         if( ( ret = mbedtls_pkcs12_pbe_sha1_rc4_128( &pbe_params,
1116:C:/Workspace/DAVE-4.4.2-64Bit/optiga-trust-m/externals/mbedtls/library\pkparse.c ****                                              MBEDTLS_PKCS12_PBE_DECRYPT,
1117:C:/Workspace/DAVE-4.4.2-64Bit/optiga-trust-m/externals/mbedtls/library\pkparse.c ****                                              pwd, pwdlen,
1118:C:/Workspace/DAVE-4.4.2-64Bit/optiga-trust-m/externals/mbedtls/library\pkparse.c ****                                              p, len, buf ) ) != 0 )
1119:C:/Workspace/DAVE-4.4.2-64Bit/optiga-trust-m/externals/mbedtls/library\pkparse.c ****         {
1120:C:/Workspace/DAVE-4.4.2-64Bit/optiga-trust-m/externals/mbedtls/library\pkparse.c ****             return( ret );
1121:C:/Workspace/DAVE-4.4.2-64Bit/optiga-trust-m/externals/mbedtls/library\pkparse.c ****         }
1122:C:/Workspace/DAVE-4.4.2-64Bit/optiga-trust-m/externals/mbedtls/library\pkparse.c **** 
1123:C:/Workspace/DAVE-4.4.2-64Bit/optiga-trust-m/externals/mbedtls/library\pkparse.c ****         // Best guess for password mismatch when using RC4. If first tag is
1124:C:/Workspace/DAVE-4.4.2-64Bit/optiga-trust-m/externals/mbedtls/library\pkparse.c ****         // not MBEDTLS_ASN1_CONSTRUCTED | MBEDTLS_ASN1_SEQUENCE
1125:C:/Workspace/DAVE-4.4.2-64Bit/optiga-trust-m/externals/mbedtls/library\pkparse.c ****         //
1126:C:/Workspace/DAVE-4.4.2-64Bit/optiga-trust-m/externals/mbedtls/library\pkparse.c ****         if( *buf != ( MBEDTLS_ASN1_CONSTRUCTED | MBEDTLS_ASN1_SEQUENCE ) )
1127:C:/Workspace/DAVE-4.4.2-64Bit/optiga-trust-m/externals/mbedtls/library\pkparse.c ****             return( MBEDTLS_ERR_PK_PASSWORD_MISMATCH );
1128:C:/Workspace/DAVE-4.4.2-64Bit/optiga-trust-m/externals/mbedtls/library\pkparse.c **** 
1129:C:/Workspace/DAVE-4.4.2-64Bit/optiga-trust-m/externals/mbedtls/library\pkparse.c ****         decrypted = 1;
1130:C:/Workspace/DAVE-4.4.2-64Bit/optiga-trust-m/externals/mbedtls/library\pkparse.c ****     }
1131:C:/Workspace/DAVE-4.4.2-64Bit/optiga-trust-m/externals/mbedtls/library\pkparse.c ****     else
1132:C:/Workspace/DAVE-4.4.2-64Bit/optiga-trust-m/externals/mbedtls/library\pkparse.c **** #endif /* MBEDTLS_PKCS12_C */
1133:C:/Workspace/DAVE-4.4.2-64Bit/optiga-trust-m/externals/mbedtls/library\pkparse.c **** #if defined(MBEDTLS_PKCS5_C)
1134:C:/Workspace/DAVE-4.4.2-64Bit/optiga-trust-m/externals/mbedtls/library\pkparse.c ****     if( MBEDTLS_OID_CMP( MBEDTLS_OID_PKCS5_PBES2, &pbe_alg_oid ) == 0 )
1135:C:/Workspace/DAVE-4.4.2-64Bit/optiga-trust-m/externals/mbedtls/library\pkparse.c ****     {
1136:C:/Workspace/DAVE-4.4.2-64Bit/optiga-trust-m/externals/mbedtls/library\pkparse.c ****         if( ( ret = mbedtls_pkcs5_pbes2( &pbe_params, MBEDTLS_PKCS5_DECRYPT, pwd, pwdlen,
1137:C:/Workspace/DAVE-4.4.2-64Bit/optiga-trust-m/externals/mbedtls/library\pkparse.c ****                                   p, len, buf ) ) != 0 )
1138:C:/Workspace/DAVE-4.4.2-64Bit/optiga-trust-m/externals/mbedtls/library\pkparse.c ****         {
1139:C:/Workspace/DAVE-4.4.2-64Bit/optiga-trust-m/externals/mbedtls/library\pkparse.c ****             if( ret == MBEDTLS_ERR_PKCS5_PASSWORD_MISMATCH )
1140:C:/Workspace/DAVE-4.4.2-64Bit/optiga-trust-m/externals/mbedtls/library\pkparse.c ****                 return( MBEDTLS_ERR_PK_PASSWORD_MISMATCH );
1141:C:/Workspace/DAVE-4.4.2-64Bit/optiga-trust-m/externals/mbedtls/library\pkparse.c **** 
1142:C:/Workspace/DAVE-4.4.2-64Bit/optiga-trust-m/externals/mbedtls/library\pkparse.c ****             return( ret );
1143:C:/Workspace/DAVE-4.4.2-64Bit/optiga-trust-m/externals/mbedtls/library\pkparse.c ****         }
1144:C:/Workspace/DAVE-4.4.2-64Bit/optiga-trust-m/externals/mbedtls/library\pkparse.c **** 
1145:C:/Workspace/DAVE-4.4.2-64Bit/optiga-trust-m/externals/mbedtls/library\pkparse.c ****         decrypted = 1;
1146:C:/Workspace/DAVE-4.4.2-64Bit/optiga-trust-m/externals/mbedtls/library\pkparse.c ****     }
1147:C:/Workspace/DAVE-4.4.2-64Bit/optiga-trust-m/externals/mbedtls/library\pkparse.c ****     else
1148:C:/Workspace/DAVE-4.4.2-64Bit/optiga-trust-m/externals/mbedtls/library\pkparse.c **** #endif /* MBEDTLS_PKCS5_C */
1149:C:/Workspace/DAVE-4.4.2-64Bit/optiga-trust-m/externals/mbedtls/library\pkparse.c ****     {
1150:C:/Workspace/DAVE-4.4.2-64Bit/optiga-trust-m/externals/mbedtls/library\pkparse.c ****         ((void) pwd);
1151:C:/Workspace/DAVE-4.4.2-64Bit/optiga-trust-m/externals/mbedtls/library\pkparse.c ****     }
1152:C:/Workspace/DAVE-4.4.2-64Bit/optiga-trust-m/externals/mbedtls/library\pkparse.c **** 
1153:C:/Workspace/DAVE-4.4.2-64Bit/optiga-trust-m/externals/mbedtls/library\pkparse.c ****     if( decrypted == 0 )
1154:C:/Workspace/DAVE-4.4.2-64Bit/optiga-trust-m/externals/mbedtls/library\pkparse.c ****         return( MBEDTLS_ERR_PK_FEATURE_UNAVAILABLE );
1155:C:/Workspace/DAVE-4.4.2-64Bit/optiga-trust-m/externals/mbedtls/library\pkparse.c **** 
1156:C:/Workspace/DAVE-4.4.2-64Bit/optiga-trust-m/externals/mbedtls/library\pkparse.c ****     return( pk_parse_key_pkcs8_unencrypted_der( pk, buf, len ) );
1157:C:/Workspace/DAVE-4.4.2-64Bit/optiga-trust-m/externals/mbedtls/library\pkparse.c **** }
1158:C:/Workspace/DAVE-4.4.2-64Bit/optiga-trust-m/externals/mbedtls/library\pkparse.c **** #endif /* MBEDTLS_PKCS12_C || MBEDTLS_PKCS5_C */
1159:C:/Workspace/DAVE-4.4.2-64Bit/optiga-trust-m/externals/mbedtls/library\pkparse.c **** 
1160:C:/Workspace/DAVE-4.4.2-64Bit/optiga-trust-m/externals/mbedtls/library\pkparse.c **** /*
1161:C:/Workspace/DAVE-4.4.2-64Bit/optiga-trust-m/externals/mbedtls/library\pkparse.c ****  * Parse a private key
1162:C:/Workspace/DAVE-4.4.2-64Bit/optiga-trust-m/externals/mbedtls/library\pkparse.c ****  */
1163:C:/Workspace/DAVE-4.4.2-64Bit/optiga-trust-m/externals/mbedtls/library\pkparse.c **** int mbedtls_pk_parse_key( mbedtls_pk_context *pk,
1164:C:/Workspace/DAVE-4.4.2-64Bit/optiga-trust-m/externals/mbedtls/library\pkparse.c ****                   const unsigned char *key, size_t keylen,
1165:C:/Workspace/DAVE-4.4.2-64Bit/optiga-trust-m/externals/mbedtls/library\pkparse.c ****                   const unsigned char *pwd, size_t pwdlen )
1166:C:/Workspace/DAVE-4.4.2-64Bit/optiga-trust-m/externals/mbedtls/library\pkparse.c **** {
 780              	 .loc 1 1166 0
 781              	 .cfi_startproc
 782              	.LVL130:
 783 0000 F0B5     	 push {r4,r5,r6,r7,lr}
 784              	.LCFI7:
 785              	 .cfi_def_cfa_offset 20
 786              	 .cfi_offset 4,-20
 787              	 .cfi_offset 5,-16
 788              	 .cfi_offset 6,-12
 789              	 .cfi_offset 7,-8
 790              	 .cfi_offset 14,-4
 791 0002 8BB0     	 sub sp,sp,#44
 792              	.LCFI8:
 793              	 .cfi_def_cfa_offset 64
1167:C:/Workspace/DAVE-4.4.2-64Bit/optiga-trust-m/externals/mbedtls/library\pkparse.c ****     int ret;
1168:C:/Workspace/DAVE-4.4.2-64Bit/optiga-trust-m/externals/mbedtls/library\pkparse.c ****     const mbedtls_pk_info_t *pk_info;
1169:C:/Workspace/DAVE-4.4.2-64Bit/optiga-trust-m/externals/mbedtls/library\pkparse.c **** #if defined(MBEDTLS_PEM_PARSE_C)
1170:C:/Workspace/DAVE-4.4.2-64Bit/optiga-trust-m/externals/mbedtls/library\pkparse.c ****     size_t len;
1171:C:/Workspace/DAVE-4.4.2-64Bit/optiga-trust-m/externals/mbedtls/library\pkparse.c ****     mbedtls_pem_context pem;
1172:C:/Workspace/DAVE-4.4.2-64Bit/optiga-trust-m/externals/mbedtls/library\pkparse.c **** #endif
1173:C:/Workspace/DAVE-4.4.2-64Bit/optiga-trust-m/externals/mbedtls/library\pkparse.c **** 
1174:C:/Workspace/DAVE-4.4.2-64Bit/optiga-trust-m/externals/mbedtls/library\pkparse.c ****     PK_VALIDATE_RET( pk != NULL );
1175:C:/Workspace/DAVE-4.4.2-64Bit/optiga-trust-m/externals/mbedtls/library\pkparse.c ****     if( keylen == 0 )
 794              	 .loc 1 1175 0
 795 0004 002A     	 cmp r2,#0
 796 0006 70D0     	 beq .L101
 797              	.LBB36:
 798              	.LBB37:
 958:C:/Workspace/DAVE-4.4.2-64Bit/optiga-trust-m/externals/mbedtls/library\pkparse.c ****     const mbedtls_pk_info_t *pk_info;
 799              	 .loc 1 958 0
 800 0008 02AB     	 add r3,sp,#8
 801              	.LVL131:
 802 000a DF1D     	 add r7,r3,#7
 803 000c 0023     	 mov r3,#0
 804 000e 0192     	 str r2,[sp,#4]
 805 0010 0D1C     	 mov r5,r1
 806 0012 041C     	 mov r4,r0
 807              	.LVL132:
 956:C:/Workspace/DAVE-4.4.2-64Bit/optiga-trust-m/externals/mbedtls/library\pkparse.c ****     unsigned char *end = p + keylen;
 808              	 .loc 1 956 0
 809 0014 0691     	 str r1,[sp,#24]
 810              	.LVL133:
 958:C:/Workspace/DAVE-4.4.2-64Bit/optiga-trust-m/externals/mbedtls/library\pkparse.c ****     const mbedtls_pk_info_t *pk_info;
 811              	 .loc 1 958 0
 812 0016 3B70     	 strb r3,[r7]
 957:C:/Workspace/DAVE-4.4.2-64Bit/optiga-trust-m/externals/mbedtls/library\pkparse.c ****     mbedtls_pk_type_t pk_alg = MBEDTLS_PK_NONE;
 813              	 .loc 1 957 0
 814 0018 8918     	 add r1,r1,r2
 815              	.LVL134:
 977:C:/Workspace/DAVE-4.4.2-64Bit/optiga-trust-m/externals/mbedtls/library\pkparse.c ****             MBEDTLS_ASN1_CONSTRUCTED | MBEDTLS_ASN1_SEQUENCE ) ) != 0 )
 816              	 .loc 1 977 0
 817 001a 06A8     	 add r0,sp,#24
 818              	.LVL135:
 819 001c 05AA     	 add r2,sp,#20
 820              	.LVL136:
 821 001e 3023     	 mov r3,#48
 822 0020 FFF7FEFF 	 bl mbedtls_asn1_get_tag
 823              	.LVL137:
 824 0024 0028     	 cmp r0,#0
 825 0026 1CD1     	 bne .L112
 983:C:/Workspace/DAVE-4.4.2-64Bit/optiga-trust-m/externals/mbedtls/library\pkparse.c **** 
 826              	 .loc 1 983 0
 827 0028 059A     	 ldr r2,[sp,#20]
 828 002a 069B     	 ldr r3,[sp,#24]
 985:C:/Workspace/DAVE-4.4.2-64Bit/optiga-trust-m/externals/mbedtls/library\pkparse.c ****         return( MBEDTLS_ERR_PK_KEY_INVALID_FORMAT + ret );
 829              	 .loc 1 985 0
 830 002c 06A8     	 add r0,sp,#24
 831              	.LVL138:
 983:C:/Workspace/DAVE-4.4.2-64Bit/optiga-trust-m/externals/mbedtls/library\pkparse.c **** 
 832              	 .loc 1 983 0
 833 002e 9E18     	 add r6,r3,r2
 834              	.LVL139:
 985:C:/Workspace/DAVE-4.4.2-64Bit/optiga-trust-m/externals/mbedtls/library\pkparse.c ****         return( MBEDTLS_ERR_PK_KEY_INVALID_FORMAT + ret );
 835              	 .loc 1 985 0
 836 0030 311C     	 mov r1,r6
 837 0032 04AA     	 add r2,sp,#16
 838 0034 FFF7FEFF 	 bl mbedtls_asn1_get_int
 839              	.LVL140:
 840 0038 0028     	 cmp r0,#0
 841 003a 12D1     	 bne .L112
 988:C:/Workspace/DAVE-4.4.2-64Bit/optiga-trust-m/externals/mbedtls/library\pkparse.c ****         return( MBEDTLS_ERR_PK_KEY_INVALID_VERSION + ret );
 842              	 .loc 1 988 0
 843 003c 0498     	 ldr r0,[sp,#16]
 844              	.LVL141:
 845 003e 0028     	 cmp r0,#0
 846 0040 38D1     	 bne .L97
 991:C:/Workspace/DAVE-4.4.2-64Bit/optiga-trust-m/externals/mbedtls/library\pkparse.c ****         return( MBEDTLS_ERR_PK_KEY_INVALID_FORMAT + ret );
 847              	 .loc 1 991 0
 848 0042 06A8     	 add r0,sp,#24
 849 0044 311C     	 mov r1,r6
 850 0046 3A1C     	 mov r2,r7
 851 0048 07AB     	 add r3,sp,#28
 852 004a FFF7FEFF 	 bl pk_get_pk_alg
 853              	.LVL142:
 854 004e 0028     	 cmp r0,#0
 855 0050 07D1     	 bne .L112
 994:C:/Workspace/DAVE-4.4.2-64Bit/optiga-trust-m/externals/mbedtls/library\pkparse.c ****         return( MBEDTLS_ERR_PK_KEY_INVALID_FORMAT + ret );
 856              	 .loc 1 994 0
 857 0052 06A8     	 add r0,sp,#24
 858              	.LVL143:
 859 0054 311C     	 mov r1,r6
 860 0056 05AA     	 add r2,sp,#20
 861 0058 0423     	 mov r3,#4
 862 005a FFF7FEFF 	 bl mbedtls_asn1_get_tag
 863              	.LVL144:
 864 005e 0028     	 cmp r0,#0
 865 0060 02D0     	 beq .L93
 866              	.LVL145:
 867              	.L112:
 995:C:/Workspace/DAVE-4.4.2-64Bit/optiga-trust-m/externals/mbedtls/library\pkparse.c **** 
 868              	 .loc 1 995 0
 869 0062 234B     	 ldr r3,.L113
 870 0064 C018     	 add r0,r0,r3
 871              	.LVL146:
 872 0066 21E0     	 b .L90
 873              	.LVL147:
 874              	.L93:
 997:C:/Workspace/DAVE-4.4.2-64Bit/optiga-trust-m/externals/mbedtls/library\pkparse.c ****         return( MBEDTLS_ERR_PK_KEY_INVALID_FORMAT +
 875              	 .loc 1 997 0
 876 0068 059B     	 ldr r3,[sp,#20]
 877 006a 002B     	 cmp r3,#0
 878 006c 22D0     	 beq .L97
1001:C:/Workspace/DAVE-4.4.2-64Bit/optiga-trust-m/externals/mbedtls/library\pkparse.c ****         return( MBEDTLS_ERR_PK_UNKNOWN_PK_ALG );
 879              	 .loc 1 1001 0
 880 006e 3878     	 ldrb r0,[r7]
 881              	.LVL148:
 882 0070 FFF7FEFF 	 bl mbedtls_pk_info_from_type
 883              	.LVL149:
 884 0074 011E     	 sub r1,r0,#0
 885              	.LVL150:
 886 0076 1DD0     	 beq .L97
1004:C:/Workspace/DAVE-4.4.2-64Bit/optiga-trust-m/externals/mbedtls/library\pkparse.c ****         return( ret );
 887              	 .loc 1 1004 0
 888 0078 201C     	 mov r0,r4
 889              	.LVL151:
 890 007a FFF7FEFF 	 bl mbedtls_pk_setup
 891              	.LVL152:
 892 007e 0028     	 cmp r0,#0
 893 0080 14D1     	 bne .L90
1018:C:/Workspace/DAVE-4.4.2-64Bit/optiga-trust-m/externals/mbedtls/library\pkparse.c ****     {
 894              	 .loc 1 1018 0
 895 0082 3B78     	 ldrb r3,[r7]
 896 0084 023B     	 sub r3,r3,#2
 897 0086 012B     	 cmp r3,#1
 898 0088 14D8     	 bhi .L97
1020:C:/Workspace/DAVE-4.4.2-64Bit/optiga-trust-m/externals/mbedtls/library\pkparse.c ****             ( ret = pk_parse_key_sec1_der( mbedtls_pk_ec( *pk ), p, len )  ) != 0 )
 899              	 .loc 1 1020 0
 900 008a 07A8     	 add r0,sp,#28
 901              	.LVL153:
 902 008c 6168     	 ldr r1,[r4,#4]
 903 008e FFF7FEFF 	 bl pk_use_ecparams
 904              	.LVL154:
 905 0092 061E     	 sub r6,r0,#0
 906              	.LVL155:
 907 0094 06D1     	 bne .L96
 908 0096 6068     	 ldr r0,[r4,#4]
 909              	.LVL156:
 910 0098 0699     	 ldr r1,[sp,#24]
 911 009a 059A     	 ldr r2,[sp,#20]
 912 009c FFF7FEFF 	 bl pk_parse_key_sec1_der
 913              	.LVL157:
 914 00a0 061E     	 sub r6,r0,#0
 915              	.LVL158:
 916 00a2 05D0     	 beq .L99
 917              	.L96:
1023:C:/Workspace/DAVE-4.4.2-64Bit/optiga-trust-m/externals/mbedtls/library\pkparse.c ****             return( ret );
 918              	 .loc 1 1023 0
 919 00a4 201C     	 mov r0,r4
 920              	.LVL159:
 921 00a6 FFF7FEFF 	 bl mbedtls_pk_free
 922              	.LVL160:
1024:C:/Workspace/DAVE-4.4.2-64Bit/optiga-trust-m/externals/mbedtls/library\pkparse.c ****         }
 923              	 .loc 1 1024 0
 924 00aa 301C     	 mov r0,r6
 925              	.LVL161:
 926              	.L90:
 927              	.LBE37:
 928              	.LBE36:
1176:C:/Workspace/DAVE-4.4.2-64Bit/optiga-trust-m/externals/mbedtls/library\pkparse.c ****         return( MBEDTLS_ERR_PK_KEY_INVALID_FORMAT );
1177:C:/Workspace/DAVE-4.4.2-64Bit/optiga-trust-m/externals/mbedtls/library\pkparse.c ****     PK_VALIDATE_RET( key != NULL );
1178:C:/Workspace/DAVE-4.4.2-64Bit/optiga-trust-m/externals/mbedtls/library\pkparse.c **** 
1179:C:/Workspace/DAVE-4.4.2-64Bit/optiga-trust-m/externals/mbedtls/library\pkparse.c **** #if defined(MBEDTLS_PEM_PARSE_C)
1180:C:/Workspace/DAVE-4.4.2-64Bit/optiga-trust-m/externals/mbedtls/library\pkparse.c ****    mbedtls_pem_init( &pem );
1181:C:/Workspace/DAVE-4.4.2-64Bit/optiga-trust-m/externals/mbedtls/library\pkparse.c **** 
1182:C:/Workspace/DAVE-4.4.2-64Bit/optiga-trust-m/externals/mbedtls/library\pkparse.c **** #if defined(MBEDTLS_RSA_C)
1183:C:/Workspace/DAVE-4.4.2-64Bit/optiga-trust-m/externals/mbedtls/library\pkparse.c ****     /* Avoid calling mbedtls_pem_read_buffer() on non-null-terminated string */
1184:C:/Workspace/DAVE-4.4.2-64Bit/optiga-trust-m/externals/mbedtls/library\pkparse.c ****     if( key[keylen - 1] != '\0' )
1185:C:/Workspace/DAVE-4.4.2-64Bit/optiga-trust-m/externals/mbedtls/library\pkparse.c ****         ret = MBEDTLS_ERR_PEM_NO_HEADER_FOOTER_PRESENT;
1186:C:/Workspace/DAVE-4.4.2-64Bit/optiga-trust-m/externals/mbedtls/library\pkparse.c ****     else
1187:C:/Workspace/DAVE-4.4.2-64Bit/optiga-trust-m/externals/mbedtls/library\pkparse.c ****         ret = mbedtls_pem_read_buffer( &pem,
1188:C:/Workspace/DAVE-4.4.2-64Bit/optiga-trust-m/externals/mbedtls/library\pkparse.c ****                                "-----BEGIN RSA PRIVATE KEY-----",
1189:C:/Workspace/DAVE-4.4.2-64Bit/optiga-trust-m/externals/mbedtls/library\pkparse.c ****                                "-----END RSA PRIVATE KEY-----",
1190:C:/Workspace/DAVE-4.4.2-64Bit/optiga-trust-m/externals/mbedtls/library\pkparse.c ****                                key, pwd, pwdlen, &len );
1191:C:/Workspace/DAVE-4.4.2-64Bit/optiga-trust-m/externals/mbedtls/library\pkparse.c **** 
1192:C:/Workspace/DAVE-4.4.2-64Bit/optiga-trust-m/externals/mbedtls/library\pkparse.c ****     if( ret == 0 )
1193:C:/Workspace/DAVE-4.4.2-64Bit/optiga-trust-m/externals/mbedtls/library\pkparse.c ****     {
1194:C:/Workspace/DAVE-4.4.2-64Bit/optiga-trust-m/externals/mbedtls/library\pkparse.c ****         pk_info = mbedtls_pk_info_from_type( MBEDTLS_PK_RSA );
1195:C:/Workspace/DAVE-4.4.2-64Bit/optiga-trust-m/externals/mbedtls/library\pkparse.c ****         if( ( ret = mbedtls_pk_setup( pk, pk_info ) ) != 0 ||
1196:C:/Workspace/DAVE-4.4.2-64Bit/optiga-trust-m/externals/mbedtls/library\pkparse.c ****             ( ret = pk_parse_key_pkcs1_der( mbedtls_pk_rsa( *pk ),
1197:C:/Workspace/DAVE-4.4.2-64Bit/optiga-trust-m/externals/mbedtls/library\pkparse.c ****                                             pem.buf, pem.buflen ) ) != 0 )
1198:C:/Workspace/DAVE-4.4.2-64Bit/optiga-trust-m/externals/mbedtls/library\pkparse.c ****         {
1199:C:/Workspace/DAVE-4.4.2-64Bit/optiga-trust-m/externals/mbedtls/library\pkparse.c ****             mbedtls_pk_free( pk );
1200:C:/Workspace/DAVE-4.4.2-64Bit/optiga-trust-m/externals/mbedtls/library\pkparse.c ****         }
1201:C:/Workspace/DAVE-4.4.2-64Bit/optiga-trust-m/externals/mbedtls/library\pkparse.c **** 
1202:C:/Workspace/DAVE-4.4.2-64Bit/optiga-trust-m/externals/mbedtls/library\pkparse.c ****         mbedtls_pem_free( &pem );
1203:C:/Workspace/DAVE-4.4.2-64Bit/optiga-trust-m/externals/mbedtls/library\pkparse.c ****         return( ret );
1204:C:/Workspace/DAVE-4.4.2-64Bit/optiga-trust-m/externals/mbedtls/library\pkparse.c ****     }
1205:C:/Workspace/DAVE-4.4.2-64Bit/optiga-trust-m/externals/mbedtls/library\pkparse.c ****     else if( ret == MBEDTLS_ERR_PEM_PASSWORD_MISMATCH )
1206:C:/Workspace/DAVE-4.4.2-64Bit/optiga-trust-m/externals/mbedtls/library\pkparse.c ****         return( MBEDTLS_ERR_PK_PASSWORD_MISMATCH );
1207:C:/Workspace/DAVE-4.4.2-64Bit/optiga-trust-m/externals/mbedtls/library\pkparse.c ****     else if( ret == MBEDTLS_ERR_PEM_PASSWORD_REQUIRED )
1208:C:/Workspace/DAVE-4.4.2-64Bit/optiga-trust-m/externals/mbedtls/library\pkparse.c ****         return( MBEDTLS_ERR_PK_PASSWORD_REQUIRED );
1209:C:/Workspace/DAVE-4.4.2-64Bit/optiga-trust-m/externals/mbedtls/library\pkparse.c ****     else if( ret != MBEDTLS_ERR_PEM_NO_HEADER_FOOTER_PRESENT )
1210:C:/Workspace/DAVE-4.4.2-64Bit/optiga-trust-m/externals/mbedtls/library\pkparse.c ****         return( ret );
1211:C:/Workspace/DAVE-4.4.2-64Bit/optiga-trust-m/externals/mbedtls/library\pkparse.c **** #endif /* MBEDTLS_RSA_C */
1212:C:/Workspace/DAVE-4.4.2-64Bit/optiga-trust-m/externals/mbedtls/library\pkparse.c **** 
1213:C:/Workspace/DAVE-4.4.2-64Bit/optiga-trust-m/externals/mbedtls/library\pkparse.c **** #if defined(MBEDTLS_ECP_C)
1214:C:/Workspace/DAVE-4.4.2-64Bit/optiga-trust-m/externals/mbedtls/library\pkparse.c ****     /* Avoid calling mbedtls_pem_read_buffer() on non-null-terminated string */
1215:C:/Workspace/DAVE-4.4.2-64Bit/optiga-trust-m/externals/mbedtls/library\pkparse.c ****     if( key[keylen - 1] != '\0' )
1216:C:/Workspace/DAVE-4.4.2-64Bit/optiga-trust-m/externals/mbedtls/library\pkparse.c ****         ret = MBEDTLS_ERR_PEM_NO_HEADER_FOOTER_PRESENT;
1217:C:/Workspace/DAVE-4.4.2-64Bit/optiga-trust-m/externals/mbedtls/library\pkparse.c ****     else
1218:C:/Workspace/DAVE-4.4.2-64Bit/optiga-trust-m/externals/mbedtls/library\pkparse.c ****         ret = mbedtls_pem_read_buffer( &pem,
1219:C:/Workspace/DAVE-4.4.2-64Bit/optiga-trust-m/externals/mbedtls/library\pkparse.c ****                                "-----BEGIN EC PRIVATE KEY-----",
1220:C:/Workspace/DAVE-4.4.2-64Bit/optiga-trust-m/externals/mbedtls/library\pkparse.c ****                                "-----END EC PRIVATE KEY-----",
1221:C:/Workspace/DAVE-4.4.2-64Bit/optiga-trust-m/externals/mbedtls/library\pkparse.c ****                                key, pwd, pwdlen, &len );
1222:C:/Workspace/DAVE-4.4.2-64Bit/optiga-trust-m/externals/mbedtls/library\pkparse.c ****     if( ret == 0 )
1223:C:/Workspace/DAVE-4.4.2-64Bit/optiga-trust-m/externals/mbedtls/library\pkparse.c ****     {
1224:C:/Workspace/DAVE-4.4.2-64Bit/optiga-trust-m/externals/mbedtls/library\pkparse.c ****         pk_info = mbedtls_pk_info_from_type( MBEDTLS_PK_ECKEY );
1225:C:/Workspace/DAVE-4.4.2-64Bit/optiga-trust-m/externals/mbedtls/library\pkparse.c **** 
1226:C:/Workspace/DAVE-4.4.2-64Bit/optiga-trust-m/externals/mbedtls/library\pkparse.c ****         if( ( ret = mbedtls_pk_setup( pk, pk_info ) ) != 0 ||
1227:C:/Workspace/DAVE-4.4.2-64Bit/optiga-trust-m/externals/mbedtls/library\pkparse.c ****             ( ret = pk_parse_key_sec1_der( mbedtls_pk_ec( *pk ),
1228:C:/Workspace/DAVE-4.4.2-64Bit/optiga-trust-m/externals/mbedtls/library\pkparse.c ****                                            pem.buf, pem.buflen ) ) != 0 )
1229:C:/Workspace/DAVE-4.4.2-64Bit/optiga-trust-m/externals/mbedtls/library\pkparse.c ****         {
1230:C:/Workspace/DAVE-4.4.2-64Bit/optiga-trust-m/externals/mbedtls/library\pkparse.c ****             mbedtls_pk_free( pk );
1231:C:/Workspace/DAVE-4.4.2-64Bit/optiga-trust-m/externals/mbedtls/library\pkparse.c ****         }
1232:C:/Workspace/DAVE-4.4.2-64Bit/optiga-trust-m/externals/mbedtls/library\pkparse.c **** 
1233:C:/Workspace/DAVE-4.4.2-64Bit/optiga-trust-m/externals/mbedtls/library\pkparse.c ****         mbedtls_pem_free( &pem );
1234:C:/Workspace/DAVE-4.4.2-64Bit/optiga-trust-m/externals/mbedtls/library\pkparse.c ****         return( ret );
1235:C:/Workspace/DAVE-4.4.2-64Bit/optiga-trust-m/externals/mbedtls/library\pkparse.c ****     }
1236:C:/Workspace/DAVE-4.4.2-64Bit/optiga-trust-m/externals/mbedtls/library\pkparse.c ****     else if( ret == MBEDTLS_ERR_PEM_PASSWORD_MISMATCH )
1237:C:/Workspace/DAVE-4.4.2-64Bit/optiga-trust-m/externals/mbedtls/library\pkparse.c ****         return( MBEDTLS_ERR_PK_PASSWORD_MISMATCH );
1238:C:/Workspace/DAVE-4.4.2-64Bit/optiga-trust-m/externals/mbedtls/library\pkparse.c ****     else if( ret == MBEDTLS_ERR_PEM_PASSWORD_REQUIRED )
1239:C:/Workspace/DAVE-4.4.2-64Bit/optiga-trust-m/externals/mbedtls/library\pkparse.c ****         return( MBEDTLS_ERR_PK_PASSWORD_REQUIRED );
1240:C:/Workspace/DAVE-4.4.2-64Bit/optiga-trust-m/externals/mbedtls/library\pkparse.c ****     else if( ret != MBEDTLS_ERR_PEM_NO_HEADER_FOOTER_PRESENT )
1241:C:/Workspace/DAVE-4.4.2-64Bit/optiga-trust-m/externals/mbedtls/library\pkparse.c ****         return( ret );
1242:C:/Workspace/DAVE-4.4.2-64Bit/optiga-trust-m/externals/mbedtls/library\pkparse.c **** #endif /* MBEDTLS_ECP_C */
1243:C:/Workspace/DAVE-4.4.2-64Bit/optiga-trust-m/externals/mbedtls/library\pkparse.c **** 
1244:C:/Workspace/DAVE-4.4.2-64Bit/optiga-trust-m/externals/mbedtls/library\pkparse.c ****     /* Avoid calling mbedtls_pem_read_buffer() on non-null-terminated string */
1245:C:/Workspace/DAVE-4.4.2-64Bit/optiga-trust-m/externals/mbedtls/library\pkparse.c ****     if( key[keylen - 1] != '\0' )
1246:C:/Workspace/DAVE-4.4.2-64Bit/optiga-trust-m/externals/mbedtls/library\pkparse.c ****         ret = MBEDTLS_ERR_PEM_NO_HEADER_FOOTER_PRESENT;
1247:C:/Workspace/DAVE-4.4.2-64Bit/optiga-trust-m/externals/mbedtls/library\pkparse.c ****     else
1248:C:/Workspace/DAVE-4.4.2-64Bit/optiga-trust-m/externals/mbedtls/library\pkparse.c ****         ret = mbedtls_pem_read_buffer( &pem,
1249:C:/Workspace/DAVE-4.4.2-64Bit/optiga-trust-m/externals/mbedtls/library\pkparse.c ****                                "-----BEGIN PRIVATE KEY-----",
1250:C:/Workspace/DAVE-4.4.2-64Bit/optiga-trust-m/externals/mbedtls/library\pkparse.c ****                                "-----END PRIVATE KEY-----",
1251:C:/Workspace/DAVE-4.4.2-64Bit/optiga-trust-m/externals/mbedtls/library\pkparse.c ****                                key, NULL, 0, &len );
1252:C:/Workspace/DAVE-4.4.2-64Bit/optiga-trust-m/externals/mbedtls/library\pkparse.c ****     if( ret == 0 )
1253:C:/Workspace/DAVE-4.4.2-64Bit/optiga-trust-m/externals/mbedtls/library\pkparse.c ****     {
1254:C:/Workspace/DAVE-4.4.2-64Bit/optiga-trust-m/externals/mbedtls/library\pkparse.c ****         if( ( ret = pk_parse_key_pkcs8_unencrypted_der( pk,
1255:C:/Workspace/DAVE-4.4.2-64Bit/optiga-trust-m/externals/mbedtls/library\pkparse.c ****                                                 pem.buf, pem.buflen ) ) != 0 )
1256:C:/Workspace/DAVE-4.4.2-64Bit/optiga-trust-m/externals/mbedtls/library\pkparse.c ****         {
1257:C:/Workspace/DAVE-4.4.2-64Bit/optiga-trust-m/externals/mbedtls/library\pkparse.c ****             mbedtls_pk_free( pk );
1258:C:/Workspace/DAVE-4.4.2-64Bit/optiga-trust-m/externals/mbedtls/library\pkparse.c ****         }
1259:C:/Workspace/DAVE-4.4.2-64Bit/optiga-trust-m/externals/mbedtls/library\pkparse.c **** 
1260:C:/Workspace/DAVE-4.4.2-64Bit/optiga-trust-m/externals/mbedtls/library\pkparse.c ****         mbedtls_pem_free( &pem );
1261:C:/Workspace/DAVE-4.4.2-64Bit/optiga-trust-m/externals/mbedtls/library\pkparse.c ****         return( ret );
1262:C:/Workspace/DAVE-4.4.2-64Bit/optiga-trust-m/externals/mbedtls/library\pkparse.c ****     }
1263:C:/Workspace/DAVE-4.4.2-64Bit/optiga-trust-m/externals/mbedtls/library\pkparse.c ****     else if( ret != MBEDTLS_ERR_PEM_NO_HEADER_FOOTER_PRESENT )
1264:C:/Workspace/DAVE-4.4.2-64Bit/optiga-trust-m/externals/mbedtls/library\pkparse.c ****         return( ret );
1265:C:/Workspace/DAVE-4.4.2-64Bit/optiga-trust-m/externals/mbedtls/library\pkparse.c **** 
1266:C:/Workspace/DAVE-4.4.2-64Bit/optiga-trust-m/externals/mbedtls/library\pkparse.c **** #if defined(MBEDTLS_PKCS12_C) || defined(MBEDTLS_PKCS5_C)
1267:C:/Workspace/DAVE-4.4.2-64Bit/optiga-trust-m/externals/mbedtls/library\pkparse.c ****     /* Avoid calling mbedtls_pem_read_buffer() on non-null-terminated string */
1268:C:/Workspace/DAVE-4.4.2-64Bit/optiga-trust-m/externals/mbedtls/library\pkparse.c ****     if( key[keylen - 1] != '\0' )
1269:C:/Workspace/DAVE-4.4.2-64Bit/optiga-trust-m/externals/mbedtls/library\pkparse.c ****         ret = MBEDTLS_ERR_PEM_NO_HEADER_FOOTER_PRESENT;
1270:C:/Workspace/DAVE-4.4.2-64Bit/optiga-trust-m/externals/mbedtls/library\pkparse.c ****     else
1271:C:/Workspace/DAVE-4.4.2-64Bit/optiga-trust-m/externals/mbedtls/library\pkparse.c ****         ret = mbedtls_pem_read_buffer( &pem,
1272:C:/Workspace/DAVE-4.4.2-64Bit/optiga-trust-m/externals/mbedtls/library\pkparse.c ****                                "-----BEGIN ENCRYPTED PRIVATE KEY-----",
1273:C:/Workspace/DAVE-4.4.2-64Bit/optiga-trust-m/externals/mbedtls/library\pkparse.c ****                                "-----END ENCRYPTED PRIVATE KEY-----",
1274:C:/Workspace/DAVE-4.4.2-64Bit/optiga-trust-m/externals/mbedtls/library\pkparse.c ****                                key, NULL, 0, &len );
1275:C:/Workspace/DAVE-4.4.2-64Bit/optiga-trust-m/externals/mbedtls/library\pkparse.c ****     if( ret == 0 )
1276:C:/Workspace/DAVE-4.4.2-64Bit/optiga-trust-m/externals/mbedtls/library\pkparse.c ****     {
1277:C:/Workspace/DAVE-4.4.2-64Bit/optiga-trust-m/externals/mbedtls/library\pkparse.c ****         if( ( ret = pk_parse_key_pkcs8_encrypted_der( pk,
1278:C:/Workspace/DAVE-4.4.2-64Bit/optiga-trust-m/externals/mbedtls/library\pkparse.c ****                                                       pem.buf, pem.buflen,
1279:C:/Workspace/DAVE-4.4.2-64Bit/optiga-trust-m/externals/mbedtls/library\pkparse.c ****                                                       pwd, pwdlen ) ) != 0 )
1280:C:/Workspace/DAVE-4.4.2-64Bit/optiga-trust-m/externals/mbedtls/library\pkparse.c ****         {
1281:C:/Workspace/DAVE-4.4.2-64Bit/optiga-trust-m/externals/mbedtls/library\pkparse.c ****             mbedtls_pk_free( pk );
1282:C:/Workspace/DAVE-4.4.2-64Bit/optiga-trust-m/externals/mbedtls/library\pkparse.c ****         }
1283:C:/Workspace/DAVE-4.4.2-64Bit/optiga-trust-m/externals/mbedtls/library\pkparse.c **** 
1284:C:/Workspace/DAVE-4.4.2-64Bit/optiga-trust-m/externals/mbedtls/library\pkparse.c ****         mbedtls_pem_free( &pem );
1285:C:/Workspace/DAVE-4.4.2-64Bit/optiga-trust-m/externals/mbedtls/library\pkparse.c ****         return( ret );
1286:C:/Workspace/DAVE-4.4.2-64Bit/optiga-trust-m/externals/mbedtls/library\pkparse.c ****     }
1287:C:/Workspace/DAVE-4.4.2-64Bit/optiga-trust-m/externals/mbedtls/library\pkparse.c ****     else if( ret != MBEDTLS_ERR_PEM_NO_HEADER_FOOTER_PRESENT )
1288:C:/Workspace/DAVE-4.4.2-64Bit/optiga-trust-m/externals/mbedtls/library\pkparse.c ****         return( ret );
1289:C:/Workspace/DAVE-4.4.2-64Bit/optiga-trust-m/externals/mbedtls/library\pkparse.c **** #endif /* MBEDTLS_PKCS12_C || MBEDTLS_PKCS5_C */
1290:C:/Workspace/DAVE-4.4.2-64Bit/optiga-trust-m/externals/mbedtls/library\pkparse.c **** #else
1291:C:/Workspace/DAVE-4.4.2-64Bit/optiga-trust-m/externals/mbedtls/library\pkparse.c ****     ((void) pwd);
1292:C:/Workspace/DAVE-4.4.2-64Bit/optiga-trust-m/externals/mbedtls/library\pkparse.c ****     ((void) pwdlen);
1293:C:/Workspace/DAVE-4.4.2-64Bit/optiga-trust-m/externals/mbedtls/library\pkparse.c **** #endif /* MBEDTLS_PEM_PARSE_C */
1294:C:/Workspace/DAVE-4.4.2-64Bit/optiga-trust-m/externals/mbedtls/library\pkparse.c **** 
1295:C:/Workspace/DAVE-4.4.2-64Bit/optiga-trust-m/externals/mbedtls/library\pkparse.c ****     /*
1296:C:/Workspace/DAVE-4.4.2-64Bit/optiga-trust-m/externals/mbedtls/library\pkparse.c ****      * At this point we only know it's not a PEM formatted key. Could be any
1297:C:/Workspace/DAVE-4.4.2-64Bit/optiga-trust-m/externals/mbedtls/library\pkparse.c ****      * of the known DER encoded private key formats
1298:C:/Workspace/DAVE-4.4.2-64Bit/optiga-trust-m/externals/mbedtls/library\pkparse.c ****      *
1299:C:/Workspace/DAVE-4.4.2-64Bit/optiga-trust-m/externals/mbedtls/library\pkparse.c ****      * We try the different DER format parsers to see if one passes without
1300:C:/Workspace/DAVE-4.4.2-64Bit/optiga-trust-m/externals/mbedtls/library\pkparse.c ****      * error
1301:C:/Workspace/DAVE-4.4.2-64Bit/optiga-trust-m/externals/mbedtls/library\pkparse.c ****      */
1302:C:/Workspace/DAVE-4.4.2-64Bit/optiga-trust-m/externals/mbedtls/library\pkparse.c **** #if defined(MBEDTLS_PKCS12_C) || defined(MBEDTLS_PKCS5_C)
1303:C:/Workspace/DAVE-4.4.2-64Bit/optiga-trust-m/externals/mbedtls/library\pkparse.c ****     {
1304:C:/Workspace/DAVE-4.4.2-64Bit/optiga-trust-m/externals/mbedtls/library\pkparse.c ****         unsigned char *key_copy;
1305:C:/Workspace/DAVE-4.4.2-64Bit/optiga-trust-m/externals/mbedtls/library\pkparse.c **** 
1306:C:/Workspace/DAVE-4.4.2-64Bit/optiga-trust-m/externals/mbedtls/library\pkparse.c ****         if( ( key_copy = mbedtls_calloc( 1, keylen ) ) == NULL )
1307:C:/Workspace/DAVE-4.4.2-64Bit/optiga-trust-m/externals/mbedtls/library\pkparse.c ****             return( MBEDTLS_ERR_PK_ALLOC_FAILED );
1308:C:/Workspace/DAVE-4.4.2-64Bit/optiga-trust-m/externals/mbedtls/library\pkparse.c **** 
1309:C:/Workspace/DAVE-4.4.2-64Bit/optiga-trust-m/externals/mbedtls/library\pkparse.c ****         memcpy( key_copy, key, keylen );
1310:C:/Workspace/DAVE-4.4.2-64Bit/optiga-trust-m/externals/mbedtls/library\pkparse.c **** 
1311:C:/Workspace/DAVE-4.4.2-64Bit/optiga-trust-m/externals/mbedtls/library\pkparse.c ****         ret = pk_parse_key_pkcs8_encrypted_der( pk, key_copy, keylen,
1312:C:/Workspace/DAVE-4.4.2-64Bit/optiga-trust-m/externals/mbedtls/library\pkparse.c ****                                                 pwd, pwdlen );
1313:C:/Workspace/DAVE-4.4.2-64Bit/optiga-trust-m/externals/mbedtls/library\pkparse.c **** 
1314:C:/Workspace/DAVE-4.4.2-64Bit/optiga-trust-m/externals/mbedtls/library\pkparse.c ****         mbedtls_platform_zeroize( key_copy, keylen );
1315:C:/Workspace/DAVE-4.4.2-64Bit/optiga-trust-m/externals/mbedtls/library\pkparse.c ****         mbedtls_free( key_copy );
1316:C:/Workspace/DAVE-4.4.2-64Bit/optiga-trust-m/externals/mbedtls/library\pkparse.c ****     }
1317:C:/Workspace/DAVE-4.4.2-64Bit/optiga-trust-m/externals/mbedtls/library\pkparse.c **** 
1318:C:/Workspace/DAVE-4.4.2-64Bit/optiga-trust-m/externals/mbedtls/library\pkparse.c ****     if( ret == 0 )
1319:C:/Workspace/DAVE-4.4.2-64Bit/optiga-trust-m/externals/mbedtls/library\pkparse.c ****         return( 0 );
1320:C:/Workspace/DAVE-4.4.2-64Bit/optiga-trust-m/externals/mbedtls/library\pkparse.c **** 
1321:C:/Workspace/DAVE-4.4.2-64Bit/optiga-trust-m/externals/mbedtls/library\pkparse.c ****     mbedtls_pk_free( pk );
1322:C:/Workspace/DAVE-4.4.2-64Bit/optiga-trust-m/externals/mbedtls/library\pkparse.c ****     mbedtls_pk_init( pk );
1323:C:/Workspace/DAVE-4.4.2-64Bit/optiga-trust-m/externals/mbedtls/library\pkparse.c **** 
1324:C:/Workspace/DAVE-4.4.2-64Bit/optiga-trust-m/externals/mbedtls/library\pkparse.c ****     if( ret == MBEDTLS_ERR_PK_PASSWORD_MISMATCH )
1325:C:/Workspace/DAVE-4.4.2-64Bit/optiga-trust-m/externals/mbedtls/library\pkparse.c ****     {
1326:C:/Workspace/DAVE-4.4.2-64Bit/optiga-trust-m/externals/mbedtls/library\pkparse.c ****         return( ret );
1327:C:/Workspace/DAVE-4.4.2-64Bit/optiga-trust-m/externals/mbedtls/library\pkparse.c ****     }
1328:C:/Workspace/DAVE-4.4.2-64Bit/optiga-trust-m/externals/mbedtls/library\pkparse.c **** #endif /* MBEDTLS_PKCS12_C || MBEDTLS_PKCS5_C */
1329:C:/Workspace/DAVE-4.4.2-64Bit/optiga-trust-m/externals/mbedtls/library\pkparse.c **** 
1330:C:/Workspace/DAVE-4.4.2-64Bit/optiga-trust-m/externals/mbedtls/library\pkparse.c ****     if( ( ret = pk_parse_key_pkcs8_unencrypted_der( pk, key, keylen ) ) == 0 )
 929              	 .loc 1 1330 0
 930 00ac 0028     	 cmp r0,#0
 931 00ae 01D1     	 bne .L97
 932              	.L99:
1331:C:/Workspace/DAVE-4.4.2-64Bit/optiga-trust-m/externals/mbedtls/library\pkparse.c ****         return( 0 );
 933              	 .loc 1 1331 0
 934 00b0 0020     	 mov r0,#0
 935 00b2 1BE0     	 b .L88
 936              	.L97:
1332:C:/Workspace/DAVE-4.4.2-64Bit/optiga-trust-m/externals/mbedtls/library\pkparse.c **** 
1333:C:/Workspace/DAVE-4.4.2-64Bit/optiga-trust-m/externals/mbedtls/library\pkparse.c ****     mbedtls_pk_free( pk );
 937              	 .loc 1 1333 0
 938 00b4 201C     	 mov r0,r4
 939 00b6 FFF7FEFF 	 bl mbedtls_pk_free
 940              	.LVL162:
1334:C:/Workspace/DAVE-4.4.2-64Bit/optiga-trust-m/externals/mbedtls/library\pkparse.c ****     mbedtls_pk_init( pk );
 941              	 .loc 1 1334 0
 942 00ba 201C     	 mov r0,r4
 943 00bc FFF7FEFF 	 bl mbedtls_pk_init
 944              	.LVL163:
1335:C:/Workspace/DAVE-4.4.2-64Bit/optiga-trust-m/externals/mbedtls/library\pkparse.c **** 
1336:C:/Workspace/DAVE-4.4.2-64Bit/optiga-trust-m/externals/mbedtls/library\pkparse.c **** #if defined(MBEDTLS_RSA_C)
1337:C:/Workspace/DAVE-4.4.2-64Bit/optiga-trust-m/externals/mbedtls/library\pkparse.c **** 
1338:C:/Workspace/DAVE-4.4.2-64Bit/optiga-trust-m/externals/mbedtls/library\pkparse.c ****     pk_info = mbedtls_pk_info_from_type( MBEDTLS_PK_RSA );
1339:C:/Workspace/DAVE-4.4.2-64Bit/optiga-trust-m/externals/mbedtls/library\pkparse.c ****     if( mbedtls_pk_setup( pk, pk_info ) == 0 &&
1340:C:/Workspace/DAVE-4.4.2-64Bit/optiga-trust-m/externals/mbedtls/library\pkparse.c ****         pk_parse_key_pkcs1_der( mbedtls_pk_rsa( *pk ), key, keylen ) == 0 )
1341:C:/Workspace/DAVE-4.4.2-64Bit/optiga-trust-m/externals/mbedtls/library\pkparse.c ****     {
1342:C:/Workspace/DAVE-4.4.2-64Bit/optiga-trust-m/externals/mbedtls/library\pkparse.c ****         return( 0 );
1343:C:/Workspace/DAVE-4.4.2-64Bit/optiga-trust-m/externals/mbedtls/library\pkparse.c ****     }
1344:C:/Workspace/DAVE-4.4.2-64Bit/optiga-trust-m/externals/mbedtls/library\pkparse.c **** 
1345:C:/Workspace/DAVE-4.4.2-64Bit/optiga-trust-m/externals/mbedtls/library\pkparse.c ****     mbedtls_pk_free( pk );
1346:C:/Workspace/DAVE-4.4.2-64Bit/optiga-trust-m/externals/mbedtls/library\pkparse.c ****     mbedtls_pk_init( pk );
1347:C:/Workspace/DAVE-4.4.2-64Bit/optiga-trust-m/externals/mbedtls/library\pkparse.c **** #endif /* MBEDTLS_RSA_C */
1348:C:/Workspace/DAVE-4.4.2-64Bit/optiga-trust-m/externals/mbedtls/library\pkparse.c **** 
1349:C:/Workspace/DAVE-4.4.2-64Bit/optiga-trust-m/externals/mbedtls/library\pkparse.c **** #if defined(MBEDTLS_ECP_C)
1350:C:/Workspace/DAVE-4.4.2-64Bit/optiga-trust-m/externals/mbedtls/library\pkparse.c ****     pk_info = mbedtls_pk_info_from_type( MBEDTLS_PK_ECKEY );
 945              	 .loc 1 1350 0
 946 00c0 0220     	 mov r0,#2
 947 00c2 FFF7FEFF 	 bl mbedtls_pk_info_from_type
 948              	.LVL164:
 949 00c6 011C     	 mov r1,r0
 950              	.LVL165:
1351:C:/Workspace/DAVE-4.4.2-64Bit/optiga-trust-m/externals/mbedtls/library\pkparse.c ****     if( mbedtls_pk_setup( pk, pk_info ) == 0 &&
 951              	 .loc 1 1351 0
 952 00c8 201C     	 mov r0,r4
 953              	.LVL166:
 954 00ca FFF7FEFF 	 bl mbedtls_pk_setup
 955              	.LVL167:
 956 00ce 0028     	 cmp r0,#0
 957 00d0 03D0     	 beq .L98
 958              	.L100:
1352:C:/Workspace/DAVE-4.4.2-64Bit/optiga-trust-m/externals/mbedtls/library\pkparse.c ****         pk_parse_key_sec1_der( mbedtls_pk_ec( *pk ),
1353:C:/Workspace/DAVE-4.4.2-64Bit/optiga-trust-m/externals/mbedtls/library\pkparse.c ****                                key, keylen ) == 0 )
1354:C:/Workspace/DAVE-4.4.2-64Bit/optiga-trust-m/externals/mbedtls/library\pkparse.c ****     {
1355:C:/Workspace/DAVE-4.4.2-64Bit/optiga-trust-m/externals/mbedtls/library\pkparse.c ****         return( 0 );
1356:C:/Workspace/DAVE-4.4.2-64Bit/optiga-trust-m/externals/mbedtls/library\pkparse.c ****     }
1357:C:/Workspace/DAVE-4.4.2-64Bit/optiga-trust-m/externals/mbedtls/library\pkparse.c ****     mbedtls_pk_free( pk );
 959              	 .loc 1 1357 0
 960 00d2 201C     	 mov r0,r4
 961 00d4 FFF7FEFF 	 bl mbedtls_pk_free
 962              	.LVL168:
 963 00d8 07E0     	 b .L101
 964              	.L98:
1352:C:/Workspace/DAVE-4.4.2-64Bit/optiga-trust-m/externals/mbedtls/library\pkparse.c ****         pk_parse_key_sec1_der( mbedtls_pk_ec( *pk ),
 965              	 .loc 1 1352 0 discriminator 1
 966 00da 6068     	 ldr r0,[r4,#4]
 967 00dc 291C     	 mov r1,r5
 968 00de 019A     	 ldr r2,[sp,#4]
 969 00e0 FFF7FEFF 	 bl pk_parse_key_sec1_der
 970              	.LVL169:
1351:C:/Workspace/DAVE-4.4.2-64Bit/optiga-trust-m/externals/mbedtls/library\pkparse.c ****     if( mbedtls_pk_setup( pk, pk_info ) == 0 &&
 971              	 .loc 1 1351 0 discriminator 1
 972 00e4 0028     	 cmp r0,#0
 973 00e6 E3D0     	 beq .L99
 974 00e8 F3E7     	 b .L100
 975              	.LVL170:
 976              	.L101:
1176:C:/Workspace/DAVE-4.4.2-64Bit/optiga-trust-m/externals/mbedtls/library\pkparse.c ****     PK_VALIDATE_RET( key != NULL );
 977              	 .loc 1 1176 0
 978 00ea 0148     	 ldr r0,.L113
 979              	.L88:
1358:C:/Workspace/DAVE-4.4.2-64Bit/optiga-trust-m/externals/mbedtls/library\pkparse.c **** #endif /* MBEDTLS_ECP_C */
1359:C:/Workspace/DAVE-4.4.2-64Bit/optiga-trust-m/externals/mbedtls/library\pkparse.c **** 
1360:C:/Workspace/DAVE-4.4.2-64Bit/optiga-trust-m/externals/mbedtls/library\pkparse.c ****     /* If MBEDTLS_RSA_C is defined but MBEDTLS_ECP_C isn't,
1361:C:/Workspace/DAVE-4.4.2-64Bit/optiga-trust-m/externals/mbedtls/library\pkparse.c ****      * it is ok to leave the PK context initialized but not
1362:C:/Workspace/DAVE-4.4.2-64Bit/optiga-trust-m/externals/mbedtls/library\pkparse.c ****      * freed: It is the caller's responsibility to call pk_init()
1363:C:/Workspace/DAVE-4.4.2-64Bit/optiga-trust-m/externals/mbedtls/library\pkparse.c ****      * before calling this function, and to call pk_free()
1364:C:/Workspace/DAVE-4.4.2-64Bit/optiga-trust-m/externals/mbedtls/library\pkparse.c ****      * when it fails. If MBEDTLS_ECP_C is defined but MBEDTLS_RSA_C
1365:C:/Workspace/DAVE-4.4.2-64Bit/optiga-trust-m/externals/mbedtls/library\pkparse.c ****      * isn't, this leads to mbedtls_pk_free() being called
1366:C:/Workspace/DAVE-4.4.2-64Bit/optiga-trust-m/externals/mbedtls/library\pkparse.c ****      * twice, once here and once by the caller, but this is
1367:C:/Workspace/DAVE-4.4.2-64Bit/optiga-trust-m/externals/mbedtls/library\pkparse.c ****      * also ok and in line with the mbedtls_pk_free() calls
1368:C:/Workspace/DAVE-4.4.2-64Bit/optiga-trust-m/externals/mbedtls/library\pkparse.c ****      * on failed PEM parsing attempts. */
1369:C:/Workspace/DAVE-4.4.2-64Bit/optiga-trust-m/externals/mbedtls/library\pkparse.c **** 
1370:C:/Workspace/DAVE-4.4.2-64Bit/optiga-trust-m/externals/mbedtls/library\pkparse.c ****     return( MBEDTLS_ERR_PK_KEY_INVALID_FORMAT );
1371:C:/Workspace/DAVE-4.4.2-64Bit/optiga-trust-m/externals/mbedtls/library\pkparse.c **** }
 980              	 .loc 1 1371 0
 981 00ec 0BB0     	 add sp,sp,#44
 982              	 
 983 00ee F0BD     	 pop {r4,r5,r6,r7,pc}
 984              	.L114:
 985              	 .align 2
 986              	.L113:
 987 00f0 00C3FFFF 	 .word -15616
 988              	 .cfi_endproc
 989              	.LFE16:
 991              	 .section .text.mbedtls_pk_parse_public_key,"ax",%progbits
 992              	 .align 1
 993              	 .global mbedtls_pk_parse_public_key
 994              	 .code 16
 995              	 .thumb_func
 997              	mbedtls_pk_parse_public_key:
 998              	.LFB17:
1372:C:/Workspace/DAVE-4.4.2-64Bit/optiga-trust-m/externals/mbedtls/library\pkparse.c **** 
1373:C:/Workspace/DAVE-4.4.2-64Bit/optiga-trust-m/externals/mbedtls/library\pkparse.c **** /*
1374:C:/Workspace/DAVE-4.4.2-64Bit/optiga-trust-m/externals/mbedtls/library\pkparse.c ****  * Parse a public key
1375:C:/Workspace/DAVE-4.4.2-64Bit/optiga-trust-m/externals/mbedtls/library\pkparse.c ****  */
1376:C:/Workspace/DAVE-4.4.2-64Bit/optiga-trust-m/externals/mbedtls/library\pkparse.c **** int mbedtls_pk_parse_public_key( mbedtls_pk_context *ctx,
1377:C:/Workspace/DAVE-4.4.2-64Bit/optiga-trust-m/externals/mbedtls/library\pkparse.c ****                          const unsigned char *key, size_t keylen )
1378:C:/Workspace/DAVE-4.4.2-64Bit/optiga-trust-m/externals/mbedtls/library\pkparse.c **** {
 999              	 .loc 1 1378 0
 1000              	 .cfi_startproc
 1001              	.LVL171:
 1002 0000 07B5     	 push {r0,r1,r2,lr}
 1003              	.LCFI9:
 1004              	 .cfi_def_cfa_offset 16
 1005              	 .cfi_offset 0,-16
 1006              	 .cfi_offset 1,-12
 1007              	 .cfi_offset 2,-8
 1008              	 .cfi_offset 14,-4
1379:C:/Workspace/DAVE-4.4.2-64Bit/optiga-trust-m/externals/mbedtls/library\pkparse.c ****     int ret;
1380:C:/Workspace/DAVE-4.4.2-64Bit/optiga-trust-m/externals/mbedtls/library\pkparse.c ****     unsigned char *p;
1381:C:/Workspace/DAVE-4.4.2-64Bit/optiga-trust-m/externals/mbedtls/library\pkparse.c **** #if defined(MBEDTLS_RSA_C)
1382:C:/Workspace/DAVE-4.4.2-64Bit/optiga-trust-m/externals/mbedtls/library\pkparse.c ****     const mbedtls_pk_info_t *pk_info;
1383:C:/Workspace/DAVE-4.4.2-64Bit/optiga-trust-m/externals/mbedtls/library\pkparse.c **** #endif
1384:C:/Workspace/DAVE-4.4.2-64Bit/optiga-trust-m/externals/mbedtls/library\pkparse.c **** #if defined(MBEDTLS_PEM_PARSE_C)
1385:C:/Workspace/DAVE-4.4.2-64Bit/optiga-trust-m/externals/mbedtls/library\pkparse.c ****     size_t len;
1386:C:/Workspace/DAVE-4.4.2-64Bit/optiga-trust-m/externals/mbedtls/library\pkparse.c ****     mbedtls_pem_context pem;
1387:C:/Workspace/DAVE-4.4.2-64Bit/optiga-trust-m/externals/mbedtls/library\pkparse.c **** #endif
1388:C:/Workspace/DAVE-4.4.2-64Bit/optiga-trust-m/externals/mbedtls/library\pkparse.c **** 
1389:C:/Workspace/DAVE-4.4.2-64Bit/optiga-trust-m/externals/mbedtls/library\pkparse.c ****     PK_VALIDATE_RET( ctx != NULL );
1390:C:/Workspace/DAVE-4.4.2-64Bit/optiga-trust-m/externals/mbedtls/library\pkparse.c ****     if( keylen == 0 )
 1009              	 .loc 1 1390 0
 1010 0002 002A     	 cmp r2,#0
 1011 0004 07D0     	 beq .L117
 1012 0006 131C     	 mov r3,r2
1391:C:/Workspace/DAVE-4.4.2-64Bit/optiga-trust-m/externals/mbedtls/library\pkparse.c ****         return( MBEDTLS_ERR_PK_KEY_INVALID_FORMAT );
1392:C:/Workspace/DAVE-4.4.2-64Bit/optiga-trust-m/externals/mbedtls/library\pkparse.c ****     PK_VALIDATE_RET( key != NULL || keylen == 0 );
1393:C:/Workspace/DAVE-4.4.2-64Bit/optiga-trust-m/externals/mbedtls/library\pkparse.c **** 
1394:C:/Workspace/DAVE-4.4.2-64Bit/optiga-trust-m/externals/mbedtls/library\pkparse.c **** #if defined(MBEDTLS_PEM_PARSE_C)
1395:C:/Workspace/DAVE-4.4.2-64Bit/optiga-trust-m/externals/mbedtls/library\pkparse.c ****     mbedtls_pem_init( &pem );
1396:C:/Workspace/DAVE-4.4.2-64Bit/optiga-trust-m/externals/mbedtls/library\pkparse.c **** #if defined(MBEDTLS_RSA_C)
1397:C:/Workspace/DAVE-4.4.2-64Bit/optiga-trust-m/externals/mbedtls/library\pkparse.c ****     /* Avoid calling mbedtls_pem_read_buffer() on non-null-terminated string */
1398:C:/Workspace/DAVE-4.4.2-64Bit/optiga-trust-m/externals/mbedtls/library\pkparse.c ****     if( key[keylen - 1] != '\0' )
1399:C:/Workspace/DAVE-4.4.2-64Bit/optiga-trust-m/externals/mbedtls/library\pkparse.c ****         ret = MBEDTLS_ERR_PEM_NO_HEADER_FOOTER_PRESENT;
1400:C:/Workspace/DAVE-4.4.2-64Bit/optiga-trust-m/externals/mbedtls/library\pkparse.c ****     else
1401:C:/Workspace/DAVE-4.4.2-64Bit/optiga-trust-m/externals/mbedtls/library\pkparse.c ****         ret = mbedtls_pem_read_buffer( &pem,
1402:C:/Workspace/DAVE-4.4.2-64Bit/optiga-trust-m/externals/mbedtls/library\pkparse.c ****                                "-----BEGIN RSA PUBLIC KEY-----",
1403:C:/Workspace/DAVE-4.4.2-64Bit/optiga-trust-m/externals/mbedtls/library\pkparse.c ****                                "-----END RSA PUBLIC KEY-----",
1404:C:/Workspace/DAVE-4.4.2-64Bit/optiga-trust-m/externals/mbedtls/library\pkparse.c ****                                key, NULL, 0, &len );
1405:C:/Workspace/DAVE-4.4.2-64Bit/optiga-trust-m/externals/mbedtls/library\pkparse.c **** 
1406:C:/Workspace/DAVE-4.4.2-64Bit/optiga-trust-m/externals/mbedtls/library\pkparse.c ****     if( ret == 0 )
1407:C:/Workspace/DAVE-4.4.2-64Bit/optiga-trust-m/externals/mbedtls/library\pkparse.c ****     {
1408:C:/Workspace/DAVE-4.4.2-64Bit/optiga-trust-m/externals/mbedtls/library\pkparse.c ****         p = pem.buf;
1409:C:/Workspace/DAVE-4.4.2-64Bit/optiga-trust-m/externals/mbedtls/library\pkparse.c ****         if( ( pk_info = mbedtls_pk_info_from_type( MBEDTLS_PK_RSA ) ) == NULL )
1410:C:/Workspace/DAVE-4.4.2-64Bit/optiga-trust-m/externals/mbedtls/library\pkparse.c ****             return( MBEDTLS_ERR_PK_UNKNOWN_PK_ALG );
1411:C:/Workspace/DAVE-4.4.2-64Bit/optiga-trust-m/externals/mbedtls/library\pkparse.c **** 
1412:C:/Workspace/DAVE-4.4.2-64Bit/optiga-trust-m/externals/mbedtls/library\pkparse.c ****         if( ( ret = mbedtls_pk_setup( ctx, pk_info ) ) != 0 )
1413:C:/Workspace/DAVE-4.4.2-64Bit/optiga-trust-m/externals/mbedtls/library\pkparse.c ****             return( ret );
1414:C:/Workspace/DAVE-4.4.2-64Bit/optiga-trust-m/externals/mbedtls/library\pkparse.c **** 
1415:C:/Workspace/DAVE-4.4.2-64Bit/optiga-trust-m/externals/mbedtls/library\pkparse.c ****         if ( ( ret = pk_get_rsapubkey( &p, p + pem.buflen, mbedtls_pk_rsa( *ctx ) ) ) != 0 )
1416:C:/Workspace/DAVE-4.4.2-64Bit/optiga-trust-m/externals/mbedtls/library\pkparse.c ****             mbedtls_pk_free( ctx );
1417:C:/Workspace/DAVE-4.4.2-64Bit/optiga-trust-m/externals/mbedtls/library\pkparse.c **** 
1418:C:/Workspace/DAVE-4.4.2-64Bit/optiga-trust-m/externals/mbedtls/library\pkparse.c ****         mbedtls_pem_free( &pem );
1419:C:/Workspace/DAVE-4.4.2-64Bit/optiga-trust-m/externals/mbedtls/library\pkparse.c ****         return( ret );
1420:C:/Workspace/DAVE-4.4.2-64Bit/optiga-trust-m/externals/mbedtls/library\pkparse.c ****     }
1421:C:/Workspace/DAVE-4.4.2-64Bit/optiga-trust-m/externals/mbedtls/library\pkparse.c ****     else if( ret != MBEDTLS_ERR_PEM_NO_HEADER_FOOTER_PRESENT )
1422:C:/Workspace/DAVE-4.4.2-64Bit/optiga-trust-m/externals/mbedtls/library\pkparse.c ****     {
1423:C:/Workspace/DAVE-4.4.2-64Bit/optiga-trust-m/externals/mbedtls/library\pkparse.c ****         mbedtls_pem_free( &pem );
1424:C:/Workspace/DAVE-4.4.2-64Bit/optiga-trust-m/externals/mbedtls/library\pkparse.c ****         return( ret );
1425:C:/Workspace/DAVE-4.4.2-64Bit/optiga-trust-m/externals/mbedtls/library\pkparse.c ****     }
1426:C:/Workspace/DAVE-4.4.2-64Bit/optiga-trust-m/externals/mbedtls/library\pkparse.c **** #endif /* MBEDTLS_RSA_C */
1427:C:/Workspace/DAVE-4.4.2-64Bit/optiga-trust-m/externals/mbedtls/library\pkparse.c **** 
1428:C:/Workspace/DAVE-4.4.2-64Bit/optiga-trust-m/externals/mbedtls/library\pkparse.c ****     /* Avoid calling mbedtls_pem_read_buffer() on non-null-terminated string */
1429:C:/Workspace/DAVE-4.4.2-64Bit/optiga-trust-m/externals/mbedtls/library\pkparse.c ****     if( key[keylen - 1] != '\0' )
1430:C:/Workspace/DAVE-4.4.2-64Bit/optiga-trust-m/externals/mbedtls/library\pkparse.c ****         ret = MBEDTLS_ERR_PEM_NO_HEADER_FOOTER_PRESENT;
1431:C:/Workspace/DAVE-4.4.2-64Bit/optiga-trust-m/externals/mbedtls/library\pkparse.c ****     else
1432:C:/Workspace/DAVE-4.4.2-64Bit/optiga-trust-m/externals/mbedtls/library\pkparse.c ****         ret = mbedtls_pem_read_buffer( &pem,
1433:C:/Workspace/DAVE-4.4.2-64Bit/optiga-trust-m/externals/mbedtls/library\pkparse.c ****                 "-----BEGIN PUBLIC KEY-----",
1434:C:/Workspace/DAVE-4.4.2-64Bit/optiga-trust-m/externals/mbedtls/library\pkparse.c ****                 "-----END PUBLIC KEY-----",
1435:C:/Workspace/DAVE-4.4.2-64Bit/optiga-trust-m/externals/mbedtls/library\pkparse.c ****                 key, NULL, 0, &len );
1436:C:/Workspace/DAVE-4.4.2-64Bit/optiga-trust-m/externals/mbedtls/library\pkparse.c **** 
1437:C:/Workspace/DAVE-4.4.2-64Bit/optiga-trust-m/externals/mbedtls/library\pkparse.c ****     if( ret == 0 )
1438:C:/Workspace/DAVE-4.4.2-64Bit/optiga-trust-m/externals/mbedtls/library\pkparse.c ****     {
1439:C:/Workspace/DAVE-4.4.2-64Bit/optiga-trust-m/externals/mbedtls/library\pkparse.c ****         /*
1440:C:/Workspace/DAVE-4.4.2-64Bit/optiga-trust-m/externals/mbedtls/library\pkparse.c ****          * Was PEM encoded
1441:C:/Workspace/DAVE-4.4.2-64Bit/optiga-trust-m/externals/mbedtls/library\pkparse.c ****          */
1442:C:/Workspace/DAVE-4.4.2-64Bit/optiga-trust-m/externals/mbedtls/library\pkparse.c ****         p = pem.buf;
1443:C:/Workspace/DAVE-4.4.2-64Bit/optiga-trust-m/externals/mbedtls/library\pkparse.c **** 
1444:C:/Workspace/DAVE-4.4.2-64Bit/optiga-trust-m/externals/mbedtls/library\pkparse.c ****         ret = mbedtls_pk_parse_subpubkey( &p,  p + pem.buflen, ctx );
1445:C:/Workspace/DAVE-4.4.2-64Bit/optiga-trust-m/externals/mbedtls/library\pkparse.c ****         mbedtls_pem_free( &pem );
1446:C:/Workspace/DAVE-4.4.2-64Bit/optiga-trust-m/externals/mbedtls/library\pkparse.c ****         return( ret );
1447:C:/Workspace/DAVE-4.4.2-64Bit/optiga-trust-m/externals/mbedtls/library\pkparse.c ****     }
1448:C:/Workspace/DAVE-4.4.2-64Bit/optiga-trust-m/externals/mbedtls/library\pkparse.c ****     else if( ret != MBEDTLS_ERR_PEM_NO_HEADER_FOOTER_PRESENT )
1449:C:/Workspace/DAVE-4.4.2-64Bit/optiga-trust-m/externals/mbedtls/library\pkparse.c ****     {
1450:C:/Workspace/DAVE-4.4.2-64Bit/optiga-trust-m/externals/mbedtls/library\pkparse.c ****         mbedtls_pem_free( &pem );
1451:C:/Workspace/DAVE-4.4.2-64Bit/optiga-trust-m/externals/mbedtls/library\pkparse.c ****         return( ret );
1452:C:/Workspace/DAVE-4.4.2-64Bit/optiga-trust-m/externals/mbedtls/library\pkparse.c ****     }
1453:C:/Workspace/DAVE-4.4.2-64Bit/optiga-trust-m/externals/mbedtls/library\pkparse.c ****     mbedtls_pem_free( &pem );
1454:C:/Workspace/DAVE-4.4.2-64Bit/optiga-trust-m/externals/mbedtls/library\pkparse.c **** #endif /* MBEDTLS_PEM_PARSE_C */
1455:C:/Workspace/DAVE-4.4.2-64Bit/optiga-trust-m/externals/mbedtls/library\pkparse.c **** 
1456:C:/Workspace/DAVE-4.4.2-64Bit/optiga-trust-m/externals/mbedtls/library\pkparse.c **** #if defined(MBEDTLS_RSA_C)
1457:C:/Workspace/DAVE-4.4.2-64Bit/optiga-trust-m/externals/mbedtls/library\pkparse.c ****     if( ( pk_info = mbedtls_pk_info_from_type( MBEDTLS_PK_RSA ) ) == NULL )
1458:C:/Workspace/DAVE-4.4.2-64Bit/optiga-trust-m/externals/mbedtls/library\pkparse.c ****         return( MBEDTLS_ERR_PK_UNKNOWN_PK_ALG );
1459:C:/Workspace/DAVE-4.4.2-64Bit/optiga-trust-m/externals/mbedtls/library\pkparse.c **** 
1460:C:/Workspace/DAVE-4.4.2-64Bit/optiga-trust-m/externals/mbedtls/library\pkparse.c ****     if( ( ret = mbedtls_pk_setup( ctx, pk_info ) ) != 0 )
1461:C:/Workspace/DAVE-4.4.2-64Bit/optiga-trust-m/externals/mbedtls/library\pkparse.c ****         return( ret );
1462:C:/Workspace/DAVE-4.4.2-64Bit/optiga-trust-m/externals/mbedtls/library\pkparse.c **** 
1463:C:/Workspace/DAVE-4.4.2-64Bit/optiga-trust-m/externals/mbedtls/library\pkparse.c ****     p = (unsigned char *)key;
1464:C:/Workspace/DAVE-4.4.2-64Bit/optiga-trust-m/externals/mbedtls/library\pkparse.c ****     ret = pk_get_rsapubkey( &p, p + keylen, mbedtls_pk_rsa( *ctx ) );
1465:C:/Workspace/DAVE-4.4.2-64Bit/optiga-trust-m/externals/mbedtls/library\pkparse.c ****     if( ret == 0 )
1466:C:/Workspace/DAVE-4.4.2-64Bit/optiga-trust-m/externals/mbedtls/library\pkparse.c ****     {
1467:C:/Workspace/DAVE-4.4.2-64Bit/optiga-trust-m/externals/mbedtls/library\pkparse.c ****         return( ret );
1468:C:/Workspace/DAVE-4.4.2-64Bit/optiga-trust-m/externals/mbedtls/library\pkparse.c ****     }
1469:C:/Workspace/DAVE-4.4.2-64Bit/optiga-trust-m/externals/mbedtls/library\pkparse.c ****     mbedtls_pk_free( ctx );
1470:C:/Workspace/DAVE-4.4.2-64Bit/optiga-trust-m/externals/mbedtls/library\pkparse.c ****     if( ret != ( MBEDTLS_ERR_PK_INVALID_PUBKEY + MBEDTLS_ERR_ASN1_UNEXPECTED_TAG ) )
1471:C:/Workspace/DAVE-4.4.2-64Bit/optiga-trust-m/externals/mbedtls/library\pkparse.c ****     {
1472:C:/Workspace/DAVE-4.4.2-64Bit/optiga-trust-m/externals/mbedtls/library\pkparse.c ****         return( ret );
1473:C:/Workspace/DAVE-4.4.2-64Bit/optiga-trust-m/externals/mbedtls/library\pkparse.c ****     }
1474:C:/Workspace/DAVE-4.4.2-64Bit/optiga-trust-m/externals/mbedtls/library\pkparse.c **** #endif /* MBEDTLS_RSA_C */
1475:C:/Workspace/DAVE-4.4.2-64Bit/optiga-trust-m/externals/mbedtls/library\pkparse.c ****     p = (unsigned char *) key;
 1013              	 .loc 1 1475 0
 1014 0008 0191     	 str r1,[sp,#4]
 1015 000a 021C     	 mov r2,r0
 1016              	.LVL172:
1476:C:/Workspace/DAVE-4.4.2-64Bit/optiga-trust-m/externals/mbedtls/library\pkparse.c **** 
1477:C:/Workspace/DAVE-4.4.2-64Bit/optiga-trust-m/externals/mbedtls/library\pkparse.c ****     ret = mbedtls_pk_parse_subpubkey( &p, p + keylen, ctx );
 1017              	 .loc 1 1477 0
 1018 000c C918     	 add r1,r1,r3
 1019              	.LVL173:
 1020 000e 01A8     	 add r0,sp,#4
 1021              	.LVL174:
 1022 0010 FFF7FEFF 	 bl mbedtls_pk_parse_subpubkey
 1023              	.LVL175:
1478:C:/Workspace/DAVE-4.4.2-64Bit/optiga-trust-m/externals/mbedtls/library\pkparse.c **** 
1479:C:/Workspace/DAVE-4.4.2-64Bit/optiga-trust-m/externals/mbedtls/library\pkparse.c ****     return( ret );
 1024              	 .loc 1 1479 0
 1025 0014 00E0     	 b .L116
 1026              	.LVL176:
 1027              	.L117:
1391:C:/Workspace/DAVE-4.4.2-64Bit/optiga-trust-m/externals/mbedtls/library\pkparse.c ****     PK_VALIDATE_RET( key != NULL || keylen == 0 );
 1028              	 .loc 1 1391 0
 1029 0016 0148     	 ldr r0,.L118
 1030              	.LVL177:
 1031              	.L116:
1480:C:/Workspace/DAVE-4.4.2-64Bit/optiga-trust-m/externals/mbedtls/library\pkparse.c **** }
 1032              	 .loc 1 1480 0
 1033              	 
 1034 0018 0EBD     	 pop {r1,r2,r3,pc}
 1035              	.L119:
 1036 001a C046     	 .align 2
 1037              	.L118:
 1038 001c 00C3FFFF 	 .word -15616
 1039              	 .cfi_endproc
 1040              	.LFE17:
 1042              	 .text
 1043              	.Letext0:
 1044              	 .file 2 "c:\\dave_4-4-2_64bit\\dave-ide-4.4.2-64bit\\eclipse\\arm-gcc-49\\lib\\gcc\\arm-none-eabi\\4.9.3\\include\\stddef.h"
 1045              	 .file 3 "c:\\dave_4-4-2_64bit\\dave-ide-4.4.2-64bit\\eclipse\\arm-gcc-49\\arm-none-eabi\\include\\machine\\_default_types.h"
 1046              	 .file 4 "c:\\dave_4-4-2_64bit\\dave-ide-4.4.2-64bit\\eclipse\\arm-gcc-49\\arm-none-eabi\\include\\stdint.h"
 1047              	 .file 5 "C:/Workspace/DAVE-4.4.2-64Bit/optiga-trust-m/externals/mbedtls/include/mbedtls/bignum.h"
 1048              	 .file 6 "C:/Workspace/DAVE-4.4.2-64Bit/optiga-trust-m/externals/mbedtls/include/mbedtls/ecp.h"
 1049              	 .file 7 "C:/Workspace/DAVE-4.4.2-64Bit/optiga-trust-m/externals/mbedtls/include/mbedtls/pk.h"
 1050              	 .file 8 "C:/Workspace/DAVE-4.4.2-64Bit/optiga-trust-m/externals/mbedtls/include/mbedtls/asn1.h"
 1051              	 .file 9 "C:/Workspace/DAVE-4.4.2-64Bit/optiga-trust-m/externals/mbedtls/include/mbedtls/oid.h"
DEFINED SYMBOLS
                            *ABS*:00000000 pkparse.c
    {standard input}:18     .text.pk_use_ecparams:00000000 $t
    {standard input}:22     .text.pk_use_ecparams:00000000 pk_use_ecparams
    {standard input}:86     .text.pk_use_ecparams:00000038 $d
    {standard input}:92     .text.pk_parse_key_sec1_der:00000000 $t
    {standard input}:96     .text.pk_parse_key_sec1_der:00000000 pk_parse_key_sec1_der
    {standard input}:447    .text.pk_parse_key_sec1_der:0000017c $d
    {standard input}:457    .text.pk_get_pk_alg:00000000 $t
    {standard input}:461    .text.pk_get_pk_alg:00000000 pk_get_pk_alg
    {standard input}:564    .text.pk_get_pk_alg:0000005c $d
    {standard input}:570    .text.mbedtls_pk_parse_subpubkey:00000000 $t
    {standard input}:575    .text.mbedtls_pk_parse_subpubkey:00000000 mbedtls_pk_parse_subpubkey
    {standard input}:765    .text.mbedtls_pk_parse_subpubkey:000000c4 $d
    {standard input}:773    .text.mbedtls_pk_parse_key:00000000 $t
    {standard input}:778    .text.mbedtls_pk_parse_key:00000000 mbedtls_pk_parse_key
    {standard input}:987    .text.mbedtls_pk_parse_key:000000f0 $d
    {standard input}:992    .text.mbedtls_pk_parse_public_key:00000000 $t
    {standard input}:997    .text.mbedtls_pk_parse_public_key:00000000 mbedtls_pk_parse_public_key
    {standard input}:1038   .text.mbedtls_pk_parse_public_key:0000001c $d
                     .debug_frame:00000010 $d

UNDEFINED SYMBOLS
mbedtls_oid_get_ec_grp
mbedtls_ecp_group_load
mbedtls_asn1_get_tag
mbedtls_asn1_get_int
mbedtls_mpi_read_binary
mbedtls_asn1_get_bitstring_null
mbedtls_ecp_point_read_binary
mbedtls_ecp_check_pubkey
mbedtls_ecp_keypair_free
mbedtls_ecp_mul
mbedtls_ecp_check_privkey
memset
mbedtls_asn1_get_alg
mbedtls_oid_get_pk_alg
mbedtls_pk_info_from_type
mbedtls_pk_setup
mbedtls_pk_free
mbedtls_pk_init
