   1              	 .cpu cortex-m0
   2              	 .fpu softvfp
   3              	 .eabi_attribute 20,1
   4              	 .eabi_attribute 21,1
   5              	 .eabi_attribute 23,3
   6              	 .eabi_attribute 24,1
   7              	 .eabi_attribute 25,1
   8              	 .eabi_attribute 26,1
   9              	 .eabi_attribute 30,4
  10              	 .eabi_attribute 34,0
  11              	 .eabi_attribute 18,4
  12              	 .code 16
  13              	 .file "x509_crt.c"
  14              	 .text
  15              	.Ltext0:
  16              	 .cfi_sections .debug_frame
  17              	 .section .text.x509_memcasecmp,"ax",%progbits
  18              	 .align 1
  19              	 .code 16
  20              	 .thumb_func
  22              	x509_memcasecmp:
  23              	.LFB12:
  24              	 .file 1 "//MAC/Home/Downloads/getstarted-optiga-trust-m/optiga-trust-m-1/externals/mbedtls/library/x509_crt.c"
   1://MAC/Home/Downloads/getstarted-optiga-trust-m/optiga-trust-m-1/externals/mbedtls/library/x509_crt.c **** /*
   2://MAC/Home/Downloads/getstarted-optiga-trust-m/optiga-trust-m-1/externals/mbedtls/library/x509_crt.c ****  *  X.509 certificate parsing and verification
   3://MAC/Home/Downloads/getstarted-optiga-trust-m/optiga-trust-m-1/externals/mbedtls/library/x509_crt.c ****  *
   4://MAC/Home/Downloads/getstarted-optiga-trust-m/optiga-trust-m-1/externals/mbedtls/library/x509_crt.c ****  *  Copyright (C) 2006-2015, ARM Limited, All Rights Reserved
   5://MAC/Home/Downloads/getstarted-optiga-trust-m/optiga-trust-m-1/externals/mbedtls/library/x509_crt.c ****  *  SPDX-License-Identifier: Apache-2.0
   6://MAC/Home/Downloads/getstarted-optiga-trust-m/optiga-trust-m-1/externals/mbedtls/library/x509_crt.c ****  *
   7://MAC/Home/Downloads/getstarted-optiga-trust-m/optiga-trust-m-1/externals/mbedtls/library/x509_crt.c ****  *  Licensed under the Apache License, Version 2.0 (the "License"); you may
   8://MAC/Home/Downloads/getstarted-optiga-trust-m/optiga-trust-m-1/externals/mbedtls/library/x509_crt.c ****  *  not use this file except in compliance with the License.
   9://MAC/Home/Downloads/getstarted-optiga-trust-m/optiga-trust-m-1/externals/mbedtls/library/x509_crt.c ****  *  You may obtain a copy of the License at
  10://MAC/Home/Downloads/getstarted-optiga-trust-m/optiga-trust-m-1/externals/mbedtls/library/x509_crt.c ****  *
  11://MAC/Home/Downloads/getstarted-optiga-trust-m/optiga-trust-m-1/externals/mbedtls/library/x509_crt.c ****  *  http://www.apache.org/licenses/LICENSE-2.0
  12://MAC/Home/Downloads/getstarted-optiga-trust-m/optiga-trust-m-1/externals/mbedtls/library/x509_crt.c ****  *
  13://MAC/Home/Downloads/getstarted-optiga-trust-m/optiga-trust-m-1/externals/mbedtls/library/x509_crt.c ****  *  Unless required by applicable law or agreed to in writing, software
  14://MAC/Home/Downloads/getstarted-optiga-trust-m/optiga-trust-m-1/externals/mbedtls/library/x509_crt.c ****  *  distributed under the License is distributed on an "AS IS" BASIS, WITHOUT
  15://MAC/Home/Downloads/getstarted-optiga-trust-m/optiga-trust-m-1/externals/mbedtls/library/x509_crt.c ****  *  WARRANTIES OR CONDITIONS OF ANY KIND, either express or implied.
  16://MAC/Home/Downloads/getstarted-optiga-trust-m/optiga-trust-m-1/externals/mbedtls/library/x509_crt.c ****  *  See the License for the specific language governing permissions and
  17://MAC/Home/Downloads/getstarted-optiga-trust-m/optiga-trust-m-1/externals/mbedtls/library/x509_crt.c ****  *  limitations under the License.
  18://MAC/Home/Downloads/getstarted-optiga-trust-m/optiga-trust-m-1/externals/mbedtls/library/x509_crt.c ****  *
  19://MAC/Home/Downloads/getstarted-optiga-trust-m/optiga-trust-m-1/externals/mbedtls/library/x509_crt.c ****  *  This file is part of mbed TLS (https://tls.mbed.org)
  20://MAC/Home/Downloads/getstarted-optiga-trust-m/optiga-trust-m-1/externals/mbedtls/library/x509_crt.c ****  */
  21://MAC/Home/Downloads/getstarted-optiga-trust-m/optiga-trust-m-1/externals/mbedtls/library/x509_crt.c **** /*
  22://MAC/Home/Downloads/getstarted-optiga-trust-m/optiga-trust-m-1/externals/mbedtls/library/x509_crt.c ****  *  The ITU-T X.509 standard defines a certificate format for PKI.
  23://MAC/Home/Downloads/getstarted-optiga-trust-m/optiga-trust-m-1/externals/mbedtls/library/x509_crt.c ****  *
  24://MAC/Home/Downloads/getstarted-optiga-trust-m/optiga-trust-m-1/externals/mbedtls/library/x509_crt.c ****  *  http://www.ietf.org/rfc/rfc5280.txt (Certificates and CRLs)
  25://MAC/Home/Downloads/getstarted-optiga-trust-m/optiga-trust-m-1/externals/mbedtls/library/x509_crt.c ****  *  http://www.ietf.org/rfc/rfc3279.txt (Alg IDs for CRLs)
  26://MAC/Home/Downloads/getstarted-optiga-trust-m/optiga-trust-m-1/externals/mbedtls/library/x509_crt.c ****  *  http://www.ietf.org/rfc/rfc2986.txt (CSRs, aka PKCS#10)
  27://MAC/Home/Downloads/getstarted-optiga-trust-m/optiga-trust-m-1/externals/mbedtls/library/x509_crt.c ****  *
  28://MAC/Home/Downloads/getstarted-optiga-trust-m/optiga-trust-m-1/externals/mbedtls/library/x509_crt.c ****  *  http://www.itu.int/ITU-T/studygroups/com17/languages/X.680-0207.pdf
  29://MAC/Home/Downloads/getstarted-optiga-trust-m/optiga-trust-m-1/externals/mbedtls/library/x509_crt.c ****  *  http://www.itu.int/ITU-T/studygroups/com17/languages/X.690-0207.pdf
  30://MAC/Home/Downloads/getstarted-optiga-trust-m/optiga-trust-m-1/externals/mbedtls/library/x509_crt.c ****  *
  31://MAC/Home/Downloads/getstarted-optiga-trust-m/optiga-trust-m-1/externals/mbedtls/library/x509_crt.c ****  *  [SIRO] https://cabforum.org/wp-content/uploads/Chunghwatelecom201503cabforumV4.pdf
  32://MAC/Home/Downloads/getstarted-optiga-trust-m/optiga-trust-m-1/externals/mbedtls/library/x509_crt.c ****  */
  33://MAC/Home/Downloads/getstarted-optiga-trust-m/optiga-trust-m-1/externals/mbedtls/library/x509_crt.c **** 
  34://MAC/Home/Downloads/getstarted-optiga-trust-m/optiga-trust-m-1/externals/mbedtls/library/x509_crt.c **** #if !defined(MBEDTLS_CONFIG_FILE)
  35://MAC/Home/Downloads/getstarted-optiga-trust-m/optiga-trust-m-1/externals/mbedtls/library/x509_crt.c **** #include "mbedtls/config.h"
  36://MAC/Home/Downloads/getstarted-optiga-trust-m/optiga-trust-m-1/externals/mbedtls/library/x509_crt.c **** #else
  37://MAC/Home/Downloads/getstarted-optiga-trust-m/optiga-trust-m-1/externals/mbedtls/library/x509_crt.c **** #include MBEDTLS_CONFIG_FILE
  38://MAC/Home/Downloads/getstarted-optiga-trust-m/optiga-trust-m-1/externals/mbedtls/library/x509_crt.c **** #endif
  39://MAC/Home/Downloads/getstarted-optiga-trust-m/optiga-trust-m-1/externals/mbedtls/library/x509_crt.c **** 
  40://MAC/Home/Downloads/getstarted-optiga-trust-m/optiga-trust-m-1/externals/mbedtls/library/x509_crt.c **** #if defined(MBEDTLS_X509_CRT_PARSE_C)
  41://MAC/Home/Downloads/getstarted-optiga-trust-m/optiga-trust-m-1/externals/mbedtls/library/x509_crt.c **** 
  42://MAC/Home/Downloads/getstarted-optiga-trust-m/optiga-trust-m-1/externals/mbedtls/library/x509_crt.c **** #include "mbedtls/x509_crt.h"
  43://MAC/Home/Downloads/getstarted-optiga-trust-m/optiga-trust-m-1/externals/mbedtls/library/x509_crt.c **** #include "mbedtls/oid.h"
  44://MAC/Home/Downloads/getstarted-optiga-trust-m/optiga-trust-m-1/externals/mbedtls/library/x509_crt.c **** #include "mbedtls/platform_util.h"
  45://MAC/Home/Downloads/getstarted-optiga-trust-m/optiga-trust-m-1/externals/mbedtls/library/x509_crt.c **** 
  46://MAC/Home/Downloads/getstarted-optiga-trust-m/optiga-trust-m-1/externals/mbedtls/library/x509_crt.c **** #include <string.h>
  47://MAC/Home/Downloads/getstarted-optiga-trust-m/optiga-trust-m-1/externals/mbedtls/library/x509_crt.c **** 
  48://MAC/Home/Downloads/getstarted-optiga-trust-m/optiga-trust-m-1/externals/mbedtls/library/x509_crt.c **** #if defined(MBEDTLS_PEM_PARSE_C)
  49://MAC/Home/Downloads/getstarted-optiga-trust-m/optiga-trust-m-1/externals/mbedtls/library/x509_crt.c **** #include "mbedtls/pem.h"
  50://MAC/Home/Downloads/getstarted-optiga-trust-m/optiga-trust-m-1/externals/mbedtls/library/x509_crt.c **** #endif
  51://MAC/Home/Downloads/getstarted-optiga-trust-m/optiga-trust-m-1/externals/mbedtls/library/x509_crt.c **** 
  52://MAC/Home/Downloads/getstarted-optiga-trust-m/optiga-trust-m-1/externals/mbedtls/library/x509_crt.c **** #if defined(MBEDTLS_PLATFORM_C)
  53://MAC/Home/Downloads/getstarted-optiga-trust-m/optiga-trust-m-1/externals/mbedtls/library/x509_crt.c **** #include "mbedtls/platform.h"
  54://MAC/Home/Downloads/getstarted-optiga-trust-m/optiga-trust-m-1/externals/mbedtls/library/x509_crt.c **** #else
  55://MAC/Home/Downloads/getstarted-optiga-trust-m/optiga-trust-m-1/externals/mbedtls/library/x509_crt.c **** #include <stdio.h>
  56://MAC/Home/Downloads/getstarted-optiga-trust-m/optiga-trust-m-1/externals/mbedtls/library/x509_crt.c **** #include <stdlib.h>
  57://MAC/Home/Downloads/getstarted-optiga-trust-m/optiga-trust-m-1/externals/mbedtls/library/x509_crt.c **** #define mbedtls_free       free
  58://MAC/Home/Downloads/getstarted-optiga-trust-m/optiga-trust-m-1/externals/mbedtls/library/x509_crt.c **** #define mbedtls_calloc    calloc
  59://MAC/Home/Downloads/getstarted-optiga-trust-m/optiga-trust-m-1/externals/mbedtls/library/x509_crt.c **** #define mbedtls_snprintf   snprintf
  60://MAC/Home/Downloads/getstarted-optiga-trust-m/optiga-trust-m-1/externals/mbedtls/library/x509_crt.c **** #endif
  61://MAC/Home/Downloads/getstarted-optiga-trust-m/optiga-trust-m-1/externals/mbedtls/library/x509_crt.c **** 
  62://MAC/Home/Downloads/getstarted-optiga-trust-m/optiga-trust-m-1/externals/mbedtls/library/x509_crt.c **** #if defined(MBEDTLS_THREADING_C)
  63://MAC/Home/Downloads/getstarted-optiga-trust-m/optiga-trust-m-1/externals/mbedtls/library/x509_crt.c **** #include "mbedtls/threading.h"
  64://MAC/Home/Downloads/getstarted-optiga-trust-m/optiga-trust-m-1/externals/mbedtls/library/x509_crt.c **** #endif
  65://MAC/Home/Downloads/getstarted-optiga-trust-m/optiga-trust-m-1/externals/mbedtls/library/x509_crt.c **** 
  66://MAC/Home/Downloads/getstarted-optiga-trust-m/optiga-trust-m-1/externals/mbedtls/library/x509_crt.c **** #if defined(_WIN32) && !defined(EFIX64) && !defined(EFI32)
  67://MAC/Home/Downloads/getstarted-optiga-trust-m/optiga-trust-m-1/externals/mbedtls/library/x509_crt.c **** #include <windows.h>
  68://MAC/Home/Downloads/getstarted-optiga-trust-m/optiga-trust-m-1/externals/mbedtls/library/x509_crt.c **** #else
  69://MAC/Home/Downloads/getstarted-optiga-trust-m/optiga-trust-m-1/externals/mbedtls/library/x509_crt.c **** #include <time.h>
  70://MAC/Home/Downloads/getstarted-optiga-trust-m/optiga-trust-m-1/externals/mbedtls/library/x509_crt.c **** #endif
  71://MAC/Home/Downloads/getstarted-optiga-trust-m/optiga-trust-m-1/externals/mbedtls/library/x509_crt.c **** 
  72://MAC/Home/Downloads/getstarted-optiga-trust-m/optiga-trust-m-1/externals/mbedtls/library/x509_crt.c **** #if defined(MBEDTLS_FS_IO)
  73://MAC/Home/Downloads/getstarted-optiga-trust-m/optiga-trust-m-1/externals/mbedtls/library/x509_crt.c **** #include <stdio.h>
  74://MAC/Home/Downloads/getstarted-optiga-trust-m/optiga-trust-m-1/externals/mbedtls/library/x509_crt.c **** #if !defined(_WIN32) || defined(EFIX64) || defined(EFI32)
  75://MAC/Home/Downloads/getstarted-optiga-trust-m/optiga-trust-m-1/externals/mbedtls/library/x509_crt.c **** #include <sys/types.h>
  76://MAC/Home/Downloads/getstarted-optiga-trust-m/optiga-trust-m-1/externals/mbedtls/library/x509_crt.c **** #include <sys/stat.h>
  77://MAC/Home/Downloads/getstarted-optiga-trust-m/optiga-trust-m-1/externals/mbedtls/library/x509_crt.c **** #include <dirent.h>
  78://MAC/Home/Downloads/getstarted-optiga-trust-m/optiga-trust-m-1/externals/mbedtls/library/x509_crt.c **** #endif /* !_WIN32 || EFIX64 || EFI32 */
  79://MAC/Home/Downloads/getstarted-optiga-trust-m/optiga-trust-m-1/externals/mbedtls/library/x509_crt.c **** #endif
  80://MAC/Home/Downloads/getstarted-optiga-trust-m/optiga-trust-m-1/externals/mbedtls/library/x509_crt.c **** 
  81://MAC/Home/Downloads/getstarted-optiga-trust-m/optiga-trust-m-1/externals/mbedtls/library/x509_crt.c **** /*
  82://MAC/Home/Downloads/getstarted-optiga-trust-m/optiga-trust-m-1/externals/mbedtls/library/x509_crt.c ****  * Item in a verification chain: cert and flags for it
  83://MAC/Home/Downloads/getstarted-optiga-trust-m/optiga-trust-m-1/externals/mbedtls/library/x509_crt.c ****  */
  84://MAC/Home/Downloads/getstarted-optiga-trust-m/optiga-trust-m-1/externals/mbedtls/library/x509_crt.c **** typedef struct {
  85://MAC/Home/Downloads/getstarted-optiga-trust-m/optiga-trust-m-1/externals/mbedtls/library/x509_crt.c ****     mbedtls_x509_crt *crt;
  86://MAC/Home/Downloads/getstarted-optiga-trust-m/optiga-trust-m-1/externals/mbedtls/library/x509_crt.c ****     uint32_t flags;
  87://MAC/Home/Downloads/getstarted-optiga-trust-m/optiga-trust-m-1/externals/mbedtls/library/x509_crt.c **** } x509_crt_verify_chain_item;
  88://MAC/Home/Downloads/getstarted-optiga-trust-m/optiga-trust-m-1/externals/mbedtls/library/x509_crt.c **** 
  89://MAC/Home/Downloads/getstarted-optiga-trust-m/optiga-trust-m-1/externals/mbedtls/library/x509_crt.c **** /*
  90://MAC/Home/Downloads/getstarted-optiga-trust-m/optiga-trust-m-1/externals/mbedtls/library/x509_crt.c ****  * Max size of verification chain: end-entity + intermediates + trusted root
  91://MAC/Home/Downloads/getstarted-optiga-trust-m/optiga-trust-m-1/externals/mbedtls/library/x509_crt.c ****  */
  92://MAC/Home/Downloads/getstarted-optiga-trust-m/optiga-trust-m-1/externals/mbedtls/library/x509_crt.c **** #define X509_MAX_VERIFY_CHAIN_SIZE    ( MBEDTLS_X509_MAX_INTERMEDIATE_CA + 2 )
  93://MAC/Home/Downloads/getstarted-optiga-trust-m/optiga-trust-m-1/externals/mbedtls/library/x509_crt.c **** 
  94://MAC/Home/Downloads/getstarted-optiga-trust-m/optiga-trust-m-1/externals/mbedtls/library/x509_crt.c **** /*
  95://MAC/Home/Downloads/getstarted-optiga-trust-m/optiga-trust-m-1/externals/mbedtls/library/x509_crt.c ****  * Default profile
  96://MAC/Home/Downloads/getstarted-optiga-trust-m/optiga-trust-m-1/externals/mbedtls/library/x509_crt.c ****  */
  97://MAC/Home/Downloads/getstarted-optiga-trust-m/optiga-trust-m-1/externals/mbedtls/library/x509_crt.c **** const mbedtls_x509_crt_profile mbedtls_x509_crt_profile_default =
  98://MAC/Home/Downloads/getstarted-optiga-trust-m/optiga-trust-m-1/externals/mbedtls/library/x509_crt.c **** {
  99://MAC/Home/Downloads/getstarted-optiga-trust-m/optiga-trust-m-1/externals/mbedtls/library/x509_crt.c **** #if defined(MBEDTLS_TLS_DEFAULT_ALLOW_SHA1_IN_CERTIFICATES)
 100://MAC/Home/Downloads/getstarted-optiga-trust-m/optiga-trust-m-1/externals/mbedtls/library/x509_crt.c ****     /* Allow SHA-1 (weak, but still safe in controlled environments) */
 101://MAC/Home/Downloads/getstarted-optiga-trust-m/optiga-trust-m-1/externals/mbedtls/library/x509_crt.c ****     MBEDTLS_X509_ID_FLAG( MBEDTLS_MD_SHA1 ) |
 102://MAC/Home/Downloads/getstarted-optiga-trust-m/optiga-trust-m-1/externals/mbedtls/library/x509_crt.c **** #endif
 103://MAC/Home/Downloads/getstarted-optiga-trust-m/optiga-trust-m-1/externals/mbedtls/library/x509_crt.c ****     /* Only SHA-2 hashes */
 104://MAC/Home/Downloads/getstarted-optiga-trust-m/optiga-trust-m-1/externals/mbedtls/library/x509_crt.c ****     MBEDTLS_X509_ID_FLAG( MBEDTLS_MD_SHA224 ) |
 105://MAC/Home/Downloads/getstarted-optiga-trust-m/optiga-trust-m-1/externals/mbedtls/library/x509_crt.c ****     MBEDTLS_X509_ID_FLAG( MBEDTLS_MD_SHA256 ) |
 106://MAC/Home/Downloads/getstarted-optiga-trust-m/optiga-trust-m-1/externals/mbedtls/library/x509_crt.c ****     MBEDTLS_X509_ID_FLAG( MBEDTLS_MD_SHA384 ) |
 107://MAC/Home/Downloads/getstarted-optiga-trust-m/optiga-trust-m-1/externals/mbedtls/library/x509_crt.c ****     MBEDTLS_X509_ID_FLAG( MBEDTLS_MD_SHA512 ),
 108://MAC/Home/Downloads/getstarted-optiga-trust-m/optiga-trust-m-1/externals/mbedtls/library/x509_crt.c ****     0xFFFFFFF, /* Any PK alg    */
 109://MAC/Home/Downloads/getstarted-optiga-trust-m/optiga-trust-m-1/externals/mbedtls/library/x509_crt.c ****     0xFFFFFFF, /* Any curve     */
 110://MAC/Home/Downloads/getstarted-optiga-trust-m/optiga-trust-m-1/externals/mbedtls/library/x509_crt.c ****     2048,
 111://MAC/Home/Downloads/getstarted-optiga-trust-m/optiga-trust-m-1/externals/mbedtls/library/x509_crt.c **** };
 112://MAC/Home/Downloads/getstarted-optiga-trust-m/optiga-trust-m-1/externals/mbedtls/library/x509_crt.c **** 
 113://MAC/Home/Downloads/getstarted-optiga-trust-m/optiga-trust-m-1/externals/mbedtls/library/x509_crt.c **** /*
 114://MAC/Home/Downloads/getstarted-optiga-trust-m/optiga-trust-m-1/externals/mbedtls/library/x509_crt.c ****  * Next-default profile
 115://MAC/Home/Downloads/getstarted-optiga-trust-m/optiga-trust-m-1/externals/mbedtls/library/x509_crt.c ****  */
 116://MAC/Home/Downloads/getstarted-optiga-trust-m/optiga-trust-m-1/externals/mbedtls/library/x509_crt.c **** const mbedtls_x509_crt_profile mbedtls_x509_crt_profile_next =
 117://MAC/Home/Downloads/getstarted-optiga-trust-m/optiga-trust-m-1/externals/mbedtls/library/x509_crt.c **** {
 118://MAC/Home/Downloads/getstarted-optiga-trust-m/optiga-trust-m-1/externals/mbedtls/library/x509_crt.c ****     /* Hashes from SHA-256 and above */
 119://MAC/Home/Downloads/getstarted-optiga-trust-m/optiga-trust-m-1/externals/mbedtls/library/x509_crt.c ****     MBEDTLS_X509_ID_FLAG( MBEDTLS_MD_SHA256 ) |
 120://MAC/Home/Downloads/getstarted-optiga-trust-m/optiga-trust-m-1/externals/mbedtls/library/x509_crt.c ****     MBEDTLS_X509_ID_FLAG( MBEDTLS_MD_SHA384 ) |
 121://MAC/Home/Downloads/getstarted-optiga-trust-m/optiga-trust-m-1/externals/mbedtls/library/x509_crt.c ****     MBEDTLS_X509_ID_FLAG( MBEDTLS_MD_SHA512 ),
 122://MAC/Home/Downloads/getstarted-optiga-trust-m/optiga-trust-m-1/externals/mbedtls/library/x509_crt.c ****     0xFFFFFFF, /* Any PK alg    */
 123://MAC/Home/Downloads/getstarted-optiga-trust-m/optiga-trust-m-1/externals/mbedtls/library/x509_crt.c **** #if defined(MBEDTLS_ECP_C)
 124://MAC/Home/Downloads/getstarted-optiga-trust-m/optiga-trust-m-1/externals/mbedtls/library/x509_crt.c ****     /* Curves at or above 128-bit security level */
 125://MAC/Home/Downloads/getstarted-optiga-trust-m/optiga-trust-m-1/externals/mbedtls/library/x509_crt.c ****     MBEDTLS_X509_ID_FLAG( MBEDTLS_ECP_DP_SECP256R1 ) |
 126://MAC/Home/Downloads/getstarted-optiga-trust-m/optiga-trust-m-1/externals/mbedtls/library/x509_crt.c ****     MBEDTLS_X509_ID_FLAG( MBEDTLS_ECP_DP_SECP384R1 ) |
 127://MAC/Home/Downloads/getstarted-optiga-trust-m/optiga-trust-m-1/externals/mbedtls/library/x509_crt.c ****     MBEDTLS_X509_ID_FLAG( MBEDTLS_ECP_DP_SECP521R1 ) |
 128://MAC/Home/Downloads/getstarted-optiga-trust-m/optiga-trust-m-1/externals/mbedtls/library/x509_crt.c ****     MBEDTLS_X509_ID_FLAG( MBEDTLS_ECP_DP_BP256R1 ) |
 129://MAC/Home/Downloads/getstarted-optiga-trust-m/optiga-trust-m-1/externals/mbedtls/library/x509_crt.c ****     MBEDTLS_X509_ID_FLAG( MBEDTLS_ECP_DP_BP384R1 ) |
 130://MAC/Home/Downloads/getstarted-optiga-trust-m/optiga-trust-m-1/externals/mbedtls/library/x509_crt.c ****     MBEDTLS_X509_ID_FLAG( MBEDTLS_ECP_DP_BP512R1 ) |
 131://MAC/Home/Downloads/getstarted-optiga-trust-m/optiga-trust-m-1/externals/mbedtls/library/x509_crt.c ****     MBEDTLS_X509_ID_FLAG( MBEDTLS_ECP_DP_SECP256K1 ),
 132://MAC/Home/Downloads/getstarted-optiga-trust-m/optiga-trust-m-1/externals/mbedtls/library/x509_crt.c **** #else
 133://MAC/Home/Downloads/getstarted-optiga-trust-m/optiga-trust-m-1/externals/mbedtls/library/x509_crt.c ****     0,
 134://MAC/Home/Downloads/getstarted-optiga-trust-m/optiga-trust-m-1/externals/mbedtls/library/x509_crt.c **** #endif
 135://MAC/Home/Downloads/getstarted-optiga-trust-m/optiga-trust-m-1/externals/mbedtls/library/x509_crt.c ****     2048,
 136://MAC/Home/Downloads/getstarted-optiga-trust-m/optiga-trust-m-1/externals/mbedtls/library/x509_crt.c **** };
 137://MAC/Home/Downloads/getstarted-optiga-trust-m/optiga-trust-m-1/externals/mbedtls/library/x509_crt.c **** 
 138://MAC/Home/Downloads/getstarted-optiga-trust-m/optiga-trust-m-1/externals/mbedtls/library/x509_crt.c **** /*
 139://MAC/Home/Downloads/getstarted-optiga-trust-m/optiga-trust-m-1/externals/mbedtls/library/x509_crt.c ****  * NSA Suite B Profile
 140://MAC/Home/Downloads/getstarted-optiga-trust-m/optiga-trust-m-1/externals/mbedtls/library/x509_crt.c ****  */
 141://MAC/Home/Downloads/getstarted-optiga-trust-m/optiga-trust-m-1/externals/mbedtls/library/x509_crt.c **** const mbedtls_x509_crt_profile mbedtls_x509_crt_profile_suiteb =
 142://MAC/Home/Downloads/getstarted-optiga-trust-m/optiga-trust-m-1/externals/mbedtls/library/x509_crt.c **** {
 143://MAC/Home/Downloads/getstarted-optiga-trust-m/optiga-trust-m-1/externals/mbedtls/library/x509_crt.c ****     /* Only SHA-256 and 384 */
 144://MAC/Home/Downloads/getstarted-optiga-trust-m/optiga-trust-m-1/externals/mbedtls/library/x509_crt.c ****     MBEDTLS_X509_ID_FLAG( MBEDTLS_MD_SHA256 ) |
 145://MAC/Home/Downloads/getstarted-optiga-trust-m/optiga-trust-m-1/externals/mbedtls/library/x509_crt.c ****     MBEDTLS_X509_ID_FLAG( MBEDTLS_MD_SHA384 ),
 146://MAC/Home/Downloads/getstarted-optiga-trust-m/optiga-trust-m-1/externals/mbedtls/library/x509_crt.c ****     /* Only ECDSA */
 147://MAC/Home/Downloads/getstarted-optiga-trust-m/optiga-trust-m-1/externals/mbedtls/library/x509_crt.c ****     MBEDTLS_X509_ID_FLAG( MBEDTLS_PK_ECDSA ) |
 148://MAC/Home/Downloads/getstarted-optiga-trust-m/optiga-trust-m-1/externals/mbedtls/library/x509_crt.c ****     MBEDTLS_X509_ID_FLAG( MBEDTLS_PK_ECKEY ),
 149://MAC/Home/Downloads/getstarted-optiga-trust-m/optiga-trust-m-1/externals/mbedtls/library/x509_crt.c **** #if defined(MBEDTLS_ECP_C)
 150://MAC/Home/Downloads/getstarted-optiga-trust-m/optiga-trust-m-1/externals/mbedtls/library/x509_crt.c ****     /* Only NIST P-256 and P-384 */
 151://MAC/Home/Downloads/getstarted-optiga-trust-m/optiga-trust-m-1/externals/mbedtls/library/x509_crt.c ****     MBEDTLS_X509_ID_FLAG( MBEDTLS_ECP_DP_SECP256R1 ) |
 152://MAC/Home/Downloads/getstarted-optiga-trust-m/optiga-trust-m-1/externals/mbedtls/library/x509_crt.c ****     MBEDTLS_X509_ID_FLAG( MBEDTLS_ECP_DP_SECP384R1 ),
 153://MAC/Home/Downloads/getstarted-optiga-trust-m/optiga-trust-m-1/externals/mbedtls/library/x509_crt.c **** #else
 154://MAC/Home/Downloads/getstarted-optiga-trust-m/optiga-trust-m-1/externals/mbedtls/library/x509_crt.c ****     0,
 155://MAC/Home/Downloads/getstarted-optiga-trust-m/optiga-trust-m-1/externals/mbedtls/library/x509_crt.c **** #endif
 156://MAC/Home/Downloads/getstarted-optiga-trust-m/optiga-trust-m-1/externals/mbedtls/library/x509_crt.c ****     0,
 157://MAC/Home/Downloads/getstarted-optiga-trust-m/optiga-trust-m-1/externals/mbedtls/library/x509_crt.c **** };
 158://MAC/Home/Downloads/getstarted-optiga-trust-m/optiga-trust-m-1/externals/mbedtls/library/x509_crt.c **** 
 159://MAC/Home/Downloads/getstarted-optiga-trust-m/optiga-trust-m-1/externals/mbedtls/library/x509_crt.c **** /*
 160://MAC/Home/Downloads/getstarted-optiga-trust-m/optiga-trust-m-1/externals/mbedtls/library/x509_crt.c ****  * Check md_alg against profile
 161://MAC/Home/Downloads/getstarted-optiga-trust-m/optiga-trust-m-1/externals/mbedtls/library/x509_crt.c ****  * Return 0 if md_alg is acceptable for this profile, -1 otherwise
 162://MAC/Home/Downloads/getstarted-optiga-trust-m/optiga-trust-m-1/externals/mbedtls/library/x509_crt.c ****  */
 163://MAC/Home/Downloads/getstarted-optiga-trust-m/optiga-trust-m-1/externals/mbedtls/library/x509_crt.c **** static int x509_profile_check_md_alg( const mbedtls_x509_crt_profile *profile,
 164://MAC/Home/Downloads/getstarted-optiga-trust-m/optiga-trust-m-1/externals/mbedtls/library/x509_crt.c ****                                       mbedtls_md_type_t md_alg )
 165://MAC/Home/Downloads/getstarted-optiga-trust-m/optiga-trust-m-1/externals/mbedtls/library/x509_crt.c **** {
 166://MAC/Home/Downloads/getstarted-optiga-trust-m/optiga-trust-m-1/externals/mbedtls/library/x509_crt.c ****     if( md_alg == MBEDTLS_MD_NONE )
 167://MAC/Home/Downloads/getstarted-optiga-trust-m/optiga-trust-m-1/externals/mbedtls/library/x509_crt.c ****         return( -1 );
 168://MAC/Home/Downloads/getstarted-optiga-trust-m/optiga-trust-m-1/externals/mbedtls/library/x509_crt.c **** 
 169://MAC/Home/Downloads/getstarted-optiga-trust-m/optiga-trust-m-1/externals/mbedtls/library/x509_crt.c ****     if( ( profile->allowed_mds & MBEDTLS_X509_ID_FLAG( md_alg ) ) != 0 )
 170://MAC/Home/Downloads/getstarted-optiga-trust-m/optiga-trust-m-1/externals/mbedtls/library/x509_crt.c ****         return( 0 );
 171://MAC/Home/Downloads/getstarted-optiga-trust-m/optiga-trust-m-1/externals/mbedtls/library/x509_crt.c **** 
 172://MAC/Home/Downloads/getstarted-optiga-trust-m/optiga-trust-m-1/externals/mbedtls/library/x509_crt.c ****     return( -1 );
 173://MAC/Home/Downloads/getstarted-optiga-trust-m/optiga-trust-m-1/externals/mbedtls/library/x509_crt.c **** }
 174://MAC/Home/Downloads/getstarted-optiga-trust-m/optiga-trust-m-1/externals/mbedtls/library/x509_crt.c **** 
 175://MAC/Home/Downloads/getstarted-optiga-trust-m/optiga-trust-m-1/externals/mbedtls/library/x509_crt.c **** /*
 176://MAC/Home/Downloads/getstarted-optiga-trust-m/optiga-trust-m-1/externals/mbedtls/library/x509_crt.c ****  * Check pk_alg against profile
 177://MAC/Home/Downloads/getstarted-optiga-trust-m/optiga-trust-m-1/externals/mbedtls/library/x509_crt.c ****  * Return 0 if pk_alg is acceptable for this profile, -1 otherwise
 178://MAC/Home/Downloads/getstarted-optiga-trust-m/optiga-trust-m-1/externals/mbedtls/library/x509_crt.c ****  */
 179://MAC/Home/Downloads/getstarted-optiga-trust-m/optiga-trust-m-1/externals/mbedtls/library/x509_crt.c **** static int x509_profile_check_pk_alg( const mbedtls_x509_crt_profile *profile,
 180://MAC/Home/Downloads/getstarted-optiga-trust-m/optiga-trust-m-1/externals/mbedtls/library/x509_crt.c ****                                       mbedtls_pk_type_t pk_alg )
 181://MAC/Home/Downloads/getstarted-optiga-trust-m/optiga-trust-m-1/externals/mbedtls/library/x509_crt.c **** {
 182://MAC/Home/Downloads/getstarted-optiga-trust-m/optiga-trust-m-1/externals/mbedtls/library/x509_crt.c ****     if( pk_alg == MBEDTLS_PK_NONE )
 183://MAC/Home/Downloads/getstarted-optiga-trust-m/optiga-trust-m-1/externals/mbedtls/library/x509_crt.c ****         return( -1 );
 184://MAC/Home/Downloads/getstarted-optiga-trust-m/optiga-trust-m-1/externals/mbedtls/library/x509_crt.c **** 
 185://MAC/Home/Downloads/getstarted-optiga-trust-m/optiga-trust-m-1/externals/mbedtls/library/x509_crt.c ****     if( ( profile->allowed_pks & MBEDTLS_X509_ID_FLAG( pk_alg ) ) != 0 )
 186://MAC/Home/Downloads/getstarted-optiga-trust-m/optiga-trust-m-1/externals/mbedtls/library/x509_crt.c ****         return( 0 );
 187://MAC/Home/Downloads/getstarted-optiga-trust-m/optiga-trust-m-1/externals/mbedtls/library/x509_crt.c **** 
 188://MAC/Home/Downloads/getstarted-optiga-trust-m/optiga-trust-m-1/externals/mbedtls/library/x509_crt.c ****     return( -1 );
 189://MAC/Home/Downloads/getstarted-optiga-trust-m/optiga-trust-m-1/externals/mbedtls/library/x509_crt.c **** }
 190://MAC/Home/Downloads/getstarted-optiga-trust-m/optiga-trust-m-1/externals/mbedtls/library/x509_crt.c **** 
 191://MAC/Home/Downloads/getstarted-optiga-trust-m/optiga-trust-m-1/externals/mbedtls/library/x509_crt.c **** /*
 192://MAC/Home/Downloads/getstarted-optiga-trust-m/optiga-trust-m-1/externals/mbedtls/library/x509_crt.c ****  * Check key against profile
 193://MAC/Home/Downloads/getstarted-optiga-trust-m/optiga-trust-m-1/externals/mbedtls/library/x509_crt.c ****  * Return 0 if pk is acceptable for this profile, -1 otherwise
 194://MAC/Home/Downloads/getstarted-optiga-trust-m/optiga-trust-m-1/externals/mbedtls/library/x509_crt.c ****  */
 195://MAC/Home/Downloads/getstarted-optiga-trust-m/optiga-trust-m-1/externals/mbedtls/library/x509_crt.c **** static int x509_profile_check_key( const mbedtls_x509_crt_profile *profile,
 196://MAC/Home/Downloads/getstarted-optiga-trust-m/optiga-trust-m-1/externals/mbedtls/library/x509_crt.c ****                                    const mbedtls_pk_context *pk )
 197://MAC/Home/Downloads/getstarted-optiga-trust-m/optiga-trust-m-1/externals/mbedtls/library/x509_crt.c **** {
 198://MAC/Home/Downloads/getstarted-optiga-trust-m/optiga-trust-m-1/externals/mbedtls/library/x509_crt.c ****     const mbedtls_pk_type_t pk_alg = mbedtls_pk_get_type( pk );
 199://MAC/Home/Downloads/getstarted-optiga-trust-m/optiga-trust-m-1/externals/mbedtls/library/x509_crt.c **** 
 200://MAC/Home/Downloads/getstarted-optiga-trust-m/optiga-trust-m-1/externals/mbedtls/library/x509_crt.c **** #if defined(MBEDTLS_RSA_C)
 201://MAC/Home/Downloads/getstarted-optiga-trust-m/optiga-trust-m-1/externals/mbedtls/library/x509_crt.c ****     if( pk_alg == MBEDTLS_PK_RSA || pk_alg == MBEDTLS_PK_RSASSA_PSS )
 202://MAC/Home/Downloads/getstarted-optiga-trust-m/optiga-trust-m-1/externals/mbedtls/library/x509_crt.c ****     {
 203://MAC/Home/Downloads/getstarted-optiga-trust-m/optiga-trust-m-1/externals/mbedtls/library/x509_crt.c ****         if( mbedtls_pk_get_bitlen( pk ) >= profile->rsa_min_bitlen )
 204://MAC/Home/Downloads/getstarted-optiga-trust-m/optiga-trust-m-1/externals/mbedtls/library/x509_crt.c ****             return( 0 );
 205://MAC/Home/Downloads/getstarted-optiga-trust-m/optiga-trust-m-1/externals/mbedtls/library/x509_crt.c **** 
 206://MAC/Home/Downloads/getstarted-optiga-trust-m/optiga-trust-m-1/externals/mbedtls/library/x509_crt.c ****         return( -1 );
 207://MAC/Home/Downloads/getstarted-optiga-trust-m/optiga-trust-m-1/externals/mbedtls/library/x509_crt.c ****     }
 208://MAC/Home/Downloads/getstarted-optiga-trust-m/optiga-trust-m-1/externals/mbedtls/library/x509_crt.c **** #endif
 209://MAC/Home/Downloads/getstarted-optiga-trust-m/optiga-trust-m-1/externals/mbedtls/library/x509_crt.c **** 
 210://MAC/Home/Downloads/getstarted-optiga-trust-m/optiga-trust-m-1/externals/mbedtls/library/x509_crt.c **** #if defined(MBEDTLS_ECP_C)
 211://MAC/Home/Downloads/getstarted-optiga-trust-m/optiga-trust-m-1/externals/mbedtls/library/x509_crt.c ****     if( pk_alg == MBEDTLS_PK_ECDSA ||
 212://MAC/Home/Downloads/getstarted-optiga-trust-m/optiga-trust-m-1/externals/mbedtls/library/x509_crt.c ****         pk_alg == MBEDTLS_PK_ECKEY ||
 213://MAC/Home/Downloads/getstarted-optiga-trust-m/optiga-trust-m-1/externals/mbedtls/library/x509_crt.c ****         pk_alg == MBEDTLS_PK_ECKEY_DH )
 214://MAC/Home/Downloads/getstarted-optiga-trust-m/optiga-trust-m-1/externals/mbedtls/library/x509_crt.c ****     {
 215://MAC/Home/Downloads/getstarted-optiga-trust-m/optiga-trust-m-1/externals/mbedtls/library/x509_crt.c ****         const mbedtls_ecp_group_id gid = mbedtls_pk_ec( *pk )->grp.id;
 216://MAC/Home/Downloads/getstarted-optiga-trust-m/optiga-trust-m-1/externals/mbedtls/library/x509_crt.c **** 
 217://MAC/Home/Downloads/getstarted-optiga-trust-m/optiga-trust-m-1/externals/mbedtls/library/x509_crt.c ****         if( gid == MBEDTLS_ECP_DP_NONE )
 218://MAC/Home/Downloads/getstarted-optiga-trust-m/optiga-trust-m-1/externals/mbedtls/library/x509_crt.c ****             return( -1 );
 219://MAC/Home/Downloads/getstarted-optiga-trust-m/optiga-trust-m-1/externals/mbedtls/library/x509_crt.c **** 
 220://MAC/Home/Downloads/getstarted-optiga-trust-m/optiga-trust-m-1/externals/mbedtls/library/x509_crt.c ****         if( ( profile->allowed_curves & MBEDTLS_X509_ID_FLAG( gid ) ) != 0 )
 221://MAC/Home/Downloads/getstarted-optiga-trust-m/optiga-trust-m-1/externals/mbedtls/library/x509_crt.c ****             return( 0 );
 222://MAC/Home/Downloads/getstarted-optiga-trust-m/optiga-trust-m-1/externals/mbedtls/library/x509_crt.c **** 
 223://MAC/Home/Downloads/getstarted-optiga-trust-m/optiga-trust-m-1/externals/mbedtls/library/x509_crt.c ****         return( -1 );
 224://MAC/Home/Downloads/getstarted-optiga-trust-m/optiga-trust-m-1/externals/mbedtls/library/x509_crt.c ****     }
 225://MAC/Home/Downloads/getstarted-optiga-trust-m/optiga-trust-m-1/externals/mbedtls/library/x509_crt.c **** #endif
 226://MAC/Home/Downloads/getstarted-optiga-trust-m/optiga-trust-m-1/externals/mbedtls/library/x509_crt.c **** 
 227://MAC/Home/Downloads/getstarted-optiga-trust-m/optiga-trust-m-1/externals/mbedtls/library/x509_crt.c ****     return( -1 );
 228://MAC/Home/Downloads/getstarted-optiga-trust-m/optiga-trust-m-1/externals/mbedtls/library/x509_crt.c **** }
 229://MAC/Home/Downloads/getstarted-optiga-trust-m/optiga-trust-m-1/externals/mbedtls/library/x509_crt.c **** 
 230://MAC/Home/Downloads/getstarted-optiga-trust-m/optiga-trust-m-1/externals/mbedtls/library/x509_crt.c **** /*
 231://MAC/Home/Downloads/getstarted-optiga-trust-m/optiga-trust-m-1/externals/mbedtls/library/x509_crt.c ****  * Like memcmp, but case-insensitive and always returns -1 if different
 232://MAC/Home/Downloads/getstarted-optiga-trust-m/optiga-trust-m-1/externals/mbedtls/library/x509_crt.c ****  */
 233://MAC/Home/Downloads/getstarted-optiga-trust-m/optiga-trust-m-1/externals/mbedtls/library/x509_crt.c **** static int x509_memcasecmp( const void *s1, const void *s2, size_t len )
 234://MAC/Home/Downloads/getstarted-optiga-trust-m/optiga-trust-m-1/externals/mbedtls/library/x509_crt.c **** {
  25              	 .loc 1 234 0
  26              	 .cfi_startproc
  27              	.LVL0:
  28 0000 30B5     	 push {r4,r5,lr}
  29              	.LCFI0:
  30              	 .cfi_def_cfa_offset 12
  31              	 .cfi_offset 4,-12
  32              	 .cfi_offset 5,-8
  33              	 .cfi_offset 14,-4
 235://MAC/Home/Downloads/getstarted-optiga-trust-m/optiga-trust-m-1/externals/mbedtls/library/x509_crt.c ****     size_t i;
 236://MAC/Home/Downloads/getstarted-optiga-trust-m/optiga-trust-m-1/externals/mbedtls/library/x509_crt.c ****     unsigned char diff;
 237://MAC/Home/Downloads/getstarted-optiga-trust-m/optiga-trust-m-1/externals/mbedtls/library/x509_crt.c ****     const unsigned char *n1 = s1, *n2 = s2;
 238://MAC/Home/Downloads/getstarted-optiga-trust-m/optiga-trust-m-1/externals/mbedtls/library/x509_crt.c **** 
 239://MAC/Home/Downloads/getstarted-optiga-trust-m/optiga-trust-m-1/externals/mbedtls/library/x509_crt.c ****     for( i = 0; i < len; i++ )
  34              	 .loc 1 239 0
  35 0002 0024     	 mov r4,#0
  36              	.LVL1:
  37              	.L2:
  38              	 .loc 1 239 0 is_stmt 0 discriminator 1
  39 0004 9442     	 cmp r4,r2
  40 0006 0BD0     	 beq .L12
 240://MAC/Home/Downloads/getstarted-optiga-trust-m/optiga-trust-m-1/externals/mbedtls/library/x509_crt.c ****     {
 241://MAC/Home/Downloads/getstarted-optiga-trust-m/optiga-trust-m-1/externals/mbedtls/library/x509_crt.c ****         diff = n1[i] ^ n2[i];
  41              	 .loc 1 241 0 is_stmt 1
  42 0008 035D     	 ldrb r3,[r0,r4]
  43 000a 0D5D     	 ldrb r5,[r1,r4]
  44 000c 5D40     	 eor r5,r3
  45              	.LVL2:
 242://MAC/Home/Downloads/getstarted-optiga-trust-m/optiga-trust-m-1/externals/mbedtls/library/x509_crt.c **** 
 243://MAC/Home/Downloads/getstarted-optiga-trust-m/optiga-trust-m-1/externals/mbedtls/library/x509_crt.c ****         if( diff == 0 )
  46              	 .loc 1 243 0
  47 000e 05D0     	 beq .L3
 244://MAC/Home/Downloads/getstarted-optiga-trust-m/optiga-trust-m-1/externals/mbedtls/library/x509_crt.c ****             continue;
 245://MAC/Home/Downloads/getstarted-optiga-trust-m/optiga-trust-m-1/externals/mbedtls/library/x509_crt.c **** 
 246://MAC/Home/Downloads/getstarted-optiga-trust-m/optiga-trust-m-1/externals/mbedtls/library/x509_crt.c ****         if( diff == 32 &&
  48              	 .loc 1 246 0
  49 0010 202D     	 cmp r5,#32
  50 0012 07D1     	 bne .L7
 247://MAC/Home/Downloads/getstarted-optiga-trust-m/optiga-trust-m-1/externals/mbedtls/library/x509_crt.c ****             ( ( n1[i] >= 'a' && n1[i] <= 'z' ) ||
  51              	 .loc 1 247 0
  52 0014 AB43     	 bic r3,r5
  53 0016 413B     	 sub r3,r3,#65
  54 0018 192B     	 cmp r3,#25
  55 001a 03D8     	 bhi .L7
  56              	.L3:
 239://MAC/Home/Downloads/getstarted-optiga-trust-m/optiga-trust-m-1/externals/mbedtls/library/x509_crt.c ****     {
  57              	 .loc 1 239 0 discriminator 2
  58 001c 0134     	 add r4,r4,#1
  59              	.LVL3:
  60 001e F1E7     	 b .L2
  61              	.LVL4:
  62              	.L12:
 248://MAC/Home/Downloads/getstarted-optiga-trust-m/optiga-trust-m-1/externals/mbedtls/library/x509_crt.c ****               ( n1[i] >= 'A' && n1[i] <= 'Z' ) ) )
 249://MAC/Home/Downloads/getstarted-optiga-trust-m/optiga-trust-m-1/externals/mbedtls/library/x509_crt.c ****         {
 250://MAC/Home/Downloads/getstarted-optiga-trust-m/optiga-trust-m-1/externals/mbedtls/library/x509_crt.c ****             continue;
 251://MAC/Home/Downloads/getstarted-optiga-trust-m/optiga-trust-m-1/externals/mbedtls/library/x509_crt.c ****         }
 252://MAC/Home/Downloads/getstarted-optiga-trust-m/optiga-trust-m-1/externals/mbedtls/library/x509_crt.c **** 
 253://MAC/Home/Downloads/getstarted-optiga-trust-m/optiga-trust-m-1/externals/mbedtls/library/x509_crt.c ****         return( -1 );
 254://MAC/Home/Downloads/getstarted-optiga-trust-m/optiga-trust-m-1/externals/mbedtls/library/x509_crt.c ****     }
 255://MAC/Home/Downloads/getstarted-optiga-trust-m/optiga-trust-m-1/externals/mbedtls/library/x509_crt.c **** 
 256://MAC/Home/Downloads/getstarted-optiga-trust-m/optiga-trust-m-1/externals/mbedtls/library/x509_crt.c ****     return( 0 );
  63              	 .loc 1 256 0
  64 0020 0020     	 mov r0,#0
  65              	.LVL5:
  66 0022 01E0     	 b .L4
  67              	.LVL6:
  68              	.L7:
 253://MAC/Home/Downloads/getstarted-optiga-trust-m/optiga-trust-m-1/externals/mbedtls/library/x509_crt.c ****     }
  69              	 .loc 1 253 0
  70 0024 0120     	 mov r0,#1
  71              	.LVL7:
  72 0026 4042     	 neg r0,r0
  73              	.LVL8:
  74              	.L4:
 257://MAC/Home/Downloads/getstarted-optiga-trust-m/optiga-trust-m-1/externals/mbedtls/library/x509_crt.c **** }
  75              	 .loc 1 257 0
  76              	 
  77              	.LVL9:
  78 0028 30BD     	 pop {r4,r5,pc}
  79              	 .cfi_endproc
  80              	.LFE12:
  82              	 .section .text.x509_name_cmp,"ax",%progbits
  83              	 .align 1
  84              	 .code 16
  85              	 .thumb_func
  87              	x509_name_cmp:
  88              	.LFB15:
 258://MAC/Home/Downloads/getstarted-optiga-trust-m/optiga-trust-m-1/externals/mbedtls/library/x509_crt.c **** 
 259://MAC/Home/Downloads/getstarted-optiga-trust-m/optiga-trust-m-1/externals/mbedtls/library/x509_crt.c **** /*
 260://MAC/Home/Downloads/getstarted-optiga-trust-m/optiga-trust-m-1/externals/mbedtls/library/x509_crt.c ****  * Return 0 if name matches wildcard, -1 otherwise
 261://MAC/Home/Downloads/getstarted-optiga-trust-m/optiga-trust-m-1/externals/mbedtls/library/x509_crt.c ****  */
 262://MAC/Home/Downloads/getstarted-optiga-trust-m/optiga-trust-m-1/externals/mbedtls/library/x509_crt.c **** static int x509_check_wildcard( const char *cn, const mbedtls_x509_buf *name )
 263://MAC/Home/Downloads/getstarted-optiga-trust-m/optiga-trust-m-1/externals/mbedtls/library/x509_crt.c **** {
 264://MAC/Home/Downloads/getstarted-optiga-trust-m/optiga-trust-m-1/externals/mbedtls/library/x509_crt.c ****     size_t i;
 265://MAC/Home/Downloads/getstarted-optiga-trust-m/optiga-trust-m-1/externals/mbedtls/library/x509_crt.c ****     size_t cn_idx = 0, cn_len = strlen( cn );
 266://MAC/Home/Downloads/getstarted-optiga-trust-m/optiga-trust-m-1/externals/mbedtls/library/x509_crt.c **** 
 267://MAC/Home/Downloads/getstarted-optiga-trust-m/optiga-trust-m-1/externals/mbedtls/library/x509_crt.c ****     /* We can't have a match if there is no wildcard to match */
 268://MAC/Home/Downloads/getstarted-optiga-trust-m/optiga-trust-m-1/externals/mbedtls/library/x509_crt.c ****     if( name->len < 3 || name->p[0] != '*' || name->p[1] != '.' )
 269://MAC/Home/Downloads/getstarted-optiga-trust-m/optiga-trust-m-1/externals/mbedtls/library/x509_crt.c ****         return( -1 );
 270://MAC/Home/Downloads/getstarted-optiga-trust-m/optiga-trust-m-1/externals/mbedtls/library/x509_crt.c **** 
 271://MAC/Home/Downloads/getstarted-optiga-trust-m/optiga-trust-m-1/externals/mbedtls/library/x509_crt.c ****     for( i = 0; i < cn_len; ++i )
 272://MAC/Home/Downloads/getstarted-optiga-trust-m/optiga-trust-m-1/externals/mbedtls/library/x509_crt.c ****     {
 273://MAC/Home/Downloads/getstarted-optiga-trust-m/optiga-trust-m-1/externals/mbedtls/library/x509_crt.c ****         if( cn[i] == '.' )
 274://MAC/Home/Downloads/getstarted-optiga-trust-m/optiga-trust-m-1/externals/mbedtls/library/x509_crt.c ****         {
 275://MAC/Home/Downloads/getstarted-optiga-trust-m/optiga-trust-m-1/externals/mbedtls/library/x509_crt.c ****             cn_idx = i;
 276://MAC/Home/Downloads/getstarted-optiga-trust-m/optiga-trust-m-1/externals/mbedtls/library/x509_crt.c ****             break;
 277://MAC/Home/Downloads/getstarted-optiga-trust-m/optiga-trust-m-1/externals/mbedtls/library/x509_crt.c ****         }
 278://MAC/Home/Downloads/getstarted-optiga-trust-m/optiga-trust-m-1/externals/mbedtls/library/x509_crt.c ****     }
 279://MAC/Home/Downloads/getstarted-optiga-trust-m/optiga-trust-m-1/externals/mbedtls/library/x509_crt.c **** 
 280://MAC/Home/Downloads/getstarted-optiga-trust-m/optiga-trust-m-1/externals/mbedtls/library/x509_crt.c ****     if( cn_idx == 0 )
 281://MAC/Home/Downloads/getstarted-optiga-trust-m/optiga-trust-m-1/externals/mbedtls/library/x509_crt.c ****         return( -1 );
 282://MAC/Home/Downloads/getstarted-optiga-trust-m/optiga-trust-m-1/externals/mbedtls/library/x509_crt.c **** 
 283://MAC/Home/Downloads/getstarted-optiga-trust-m/optiga-trust-m-1/externals/mbedtls/library/x509_crt.c ****     if( cn_len - cn_idx == name->len - 1 &&
 284://MAC/Home/Downloads/getstarted-optiga-trust-m/optiga-trust-m-1/externals/mbedtls/library/x509_crt.c ****         x509_memcasecmp( name->p + 1, cn + cn_idx, name->len - 1 ) == 0 )
 285://MAC/Home/Downloads/getstarted-optiga-trust-m/optiga-trust-m-1/externals/mbedtls/library/x509_crt.c ****     {
 286://MAC/Home/Downloads/getstarted-optiga-trust-m/optiga-trust-m-1/externals/mbedtls/library/x509_crt.c ****         return( 0 );
 287://MAC/Home/Downloads/getstarted-optiga-trust-m/optiga-trust-m-1/externals/mbedtls/library/x509_crt.c ****     }
 288://MAC/Home/Downloads/getstarted-optiga-trust-m/optiga-trust-m-1/externals/mbedtls/library/x509_crt.c **** 
 289://MAC/Home/Downloads/getstarted-optiga-trust-m/optiga-trust-m-1/externals/mbedtls/library/x509_crt.c ****     return( -1 );
 290://MAC/Home/Downloads/getstarted-optiga-trust-m/optiga-trust-m-1/externals/mbedtls/library/x509_crt.c **** }
 291://MAC/Home/Downloads/getstarted-optiga-trust-m/optiga-trust-m-1/externals/mbedtls/library/x509_crt.c **** 
 292://MAC/Home/Downloads/getstarted-optiga-trust-m/optiga-trust-m-1/externals/mbedtls/library/x509_crt.c **** /*
 293://MAC/Home/Downloads/getstarted-optiga-trust-m/optiga-trust-m-1/externals/mbedtls/library/x509_crt.c ****  * Compare two X.509 strings, case-insensitive, and allowing for some encoding
 294://MAC/Home/Downloads/getstarted-optiga-trust-m/optiga-trust-m-1/externals/mbedtls/library/x509_crt.c ****  * variations (but not all).
 295://MAC/Home/Downloads/getstarted-optiga-trust-m/optiga-trust-m-1/externals/mbedtls/library/x509_crt.c ****  *
 296://MAC/Home/Downloads/getstarted-optiga-trust-m/optiga-trust-m-1/externals/mbedtls/library/x509_crt.c ****  * Return 0 if equal, -1 otherwise.
 297://MAC/Home/Downloads/getstarted-optiga-trust-m/optiga-trust-m-1/externals/mbedtls/library/x509_crt.c ****  */
 298://MAC/Home/Downloads/getstarted-optiga-trust-m/optiga-trust-m-1/externals/mbedtls/library/x509_crt.c **** static int x509_string_cmp( const mbedtls_x509_buf *a, const mbedtls_x509_buf *b )
 299://MAC/Home/Downloads/getstarted-optiga-trust-m/optiga-trust-m-1/externals/mbedtls/library/x509_crt.c **** {
 300://MAC/Home/Downloads/getstarted-optiga-trust-m/optiga-trust-m-1/externals/mbedtls/library/x509_crt.c ****     if( a->tag == b->tag &&
 301://MAC/Home/Downloads/getstarted-optiga-trust-m/optiga-trust-m-1/externals/mbedtls/library/x509_crt.c ****         a->len == b->len &&
 302://MAC/Home/Downloads/getstarted-optiga-trust-m/optiga-trust-m-1/externals/mbedtls/library/x509_crt.c ****         memcmp( a->p, b->p, b->len ) == 0 )
 303://MAC/Home/Downloads/getstarted-optiga-trust-m/optiga-trust-m-1/externals/mbedtls/library/x509_crt.c ****     {
 304://MAC/Home/Downloads/getstarted-optiga-trust-m/optiga-trust-m-1/externals/mbedtls/library/x509_crt.c ****         return( 0 );
 305://MAC/Home/Downloads/getstarted-optiga-trust-m/optiga-trust-m-1/externals/mbedtls/library/x509_crt.c ****     }
 306://MAC/Home/Downloads/getstarted-optiga-trust-m/optiga-trust-m-1/externals/mbedtls/library/x509_crt.c **** 
 307://MAC/Home/Downloads/getstarted-optiga-trust-m/optiga-trust-m-1/externals/mbedtls/library/x509_crt.c ****     if( ( a->tag == MBEDTLS_ASN1_UTF8_STRING || a->tag == MBEDTLS_ASN1_PRINTABLE_STRING ) &&
 308://MAC/Home/Downloads/getstarted-optiga-trust-m/optiga-trust-m-1/externals/mbedtls/library/x509_crt.c ****         ( b->tag == MBEDTLS_ASN1_UTF8_STRING || b->tag == MBEDTLS_ASN1_PRINTABLE_STRING ) &&
 309://MAC/Home/Downloads/getstarted-optiga-trust-m/optiga-trust-m-1/externals/mbedtls/library/x509_crt.c ****         a->len == b->len &&
 310://MAC/Home/Downloads/getstarted-optiga-trust-m/optiga-trust-m-1/externals/mbedtls/library/x509_crt.c ****         x509_memcasecmp( a->p, b->p, b->len ) == 0 )
 311://MAC/Home/Downloads/getstarted-optiga-trust-m/optiga-trust-m-1/externals/mbedtls/library/x509_crt.c ****     {
 312://MAC/Home/Downloads/getstarted-optiga-trust-m/optiga-trust-m-1/externals/mbedtls/library/x509_crt.c ****         return( 0 );
 313://MAC/Home/Downloads/getstarted-optiga-trust-m/optiga-trust-m-1/externals/mbedtls/library/x509_crt.c ****     }
 314://MAC/Home/Downloads/getstarted-optiga-trust-m/optiga-trust-m-1/externals/mbedtls/library/x509_crt.c **** 
 315://MAC/Home/Downloads/getstarted-optiga-trust-m/optiga-trust-m-1/externals/mbedtls/library/x509_crt.c ****     return( -1 );
 316://MAC/Home/Downloads/getstarted-optiga-trust-m/optiga-trust-m-1/externals/mbedtls/library/x509_crt.c **** }
 317://MAC/Home/Downloads/getstarted-optiga-trust-m/optiga-trust-m-1/externals/mbedtls/library/x509_crt.c **** 
 318://MAC/Home/Downloads/getstarted-optiga-trust-m/optiga-trust-m-1/externals/mbedtls/library/x509_crt.c **** /*
 319://MAC/Home/Downloads/getstarted-optiga-trust-m/optiga-trust-m-1/externals/mbedtls/library/x509_crt.c ****  * Compare two X.509 Names (aka rdnSequence).
 320://MAC/Home/Downloads/getstarted-optiga-trust-m/optiga-trust-m-1/externals/mbedtls/library/x509_crt.c ****  *
 321://MAC/Home/Downloads/getstarted-optiga-trust-m/optiga-trust-m-1/externals/mbedtls/library/x509_crt.c ****  * See RFC 5280 section 7.1, though we don't implement the whole algorithm:
 322://MAC/Home/Downloads/getstarted-optiga-trust-m/optiga-trust-m-1/externals/mbedtls/library/x509_crt.c ****  * we sometimes return unequal when the full algorithm would return equal,
 323://MAC/Home/Downloads/getstarted-optiga-trust-m/optiga-trust-m-1/externals/mbedtls/library/x509_crt.c ****  * but never the other way. (In particular, we don't do Unicode normalisation
 324://MAC/Home/Downloads/getstarted-optiga-trust-m/optiga-trust-m-1/externals/mbedtls/library/x509_crt.c ****  * or space folding.)
 325://MAC/Home/Downloads/getstarted-optiga-trust-m/optiga-trust-m-1/externals/mbedtls/library/x509_crt.c ****  *
 326://MAC/Home/Downloads/getstarted-optiga-trust-m/optiga-trust-m-1/externals/mbedtls/library/x509_crt.c ****  * Return 0 if equal, -1 otherwise.
 327://MAC/Home/Downloads/getstarted-optiga-trust-m/optiga-trust-m-1/externals/mbedtls/library/x509_crt.c ****  */
 328://MAC/Home/Downloads/getstarted-optiga-trust-m/optiga-trust-m-1/externals/mbedtls/library/x509_crt.c **** static int x509_name_cmp( const mbedtls_x509_name *a, const mbedtls_x509_name *b )
 329://MAC/Home/Downloads/getstarted-optiga-trust-m/optiga-trust-m-1/externals/mbedtls/library/x509_crt.c **** {
  89              	 .loc 1 329 0
  90              	 .cfi_startproc
  91              	.LVL10:
  92 0000 F8B5     	 push {r3,r4,r5,r6,r7,lr}
  93              	.LCFI1:
  94              	 .cfi_def_cfa_offset 24
  95              	 .cfi_offset 3,-24
  96              	 .cfi_offset 4,-20
  97              	 .cfi_offset 5,-16
  98              	 .cfi_offset 6,-12
  99              	 .cfi_offset 7,-8
 100              	 .cfi_offset 14,-4
 101 0002 051C     	 mov r5,r0
 102 0004 0C1C     	 mov r4,r1
 103              	.LVL11:
 104              	.L14:
 330://MAC/Home/Downloads/getstarted-optiga-trust-m/optiga-trust-m-1/externals/mbedtls/library/x509_crt.c ****     /* Avoid recursion, it might not be optimised by the compiler */
 331://MAC/Home/Downloads/getstarted-optiga-trust-m/optiga-trust-m-1/externals/mbedtls/library/x509_crt.c ****     while( a != NULL || b != NULL )
 105              	 .loc 1 331 0
 106 0006 002D     	 cmp r5,#0
 107 0008 30D0     	 beq .L44
 332://MAC/Home/Downloads/getstarted-optiga-trust-m/optiga-trust-m-1/externals/mbedtls/library/x509_crt.c ****     {
 333://MAC/Home/Downloads/getstarted-optiga-trust-m/optiga-trust-m-1/externals/mbedtls/library/x509_crt.c ****         if( a == NULL || b == NULL )
 108              	 .loc 1 333 0 discriminator 1
 109 000a 002C     	 cmp r4,#0
 110 000c 32D0     	 beq .L29
 334://MAC/Home/Downloads/getstarted-optiga-trust-m/optiga-trust-m-1/externals/mbedtls/library/x509_crt.c ****             return( -1 );
 335://MAC/Home/Downloads/getstarted-optiga-trust-m/optiga-trust-m-1/externals/mbedtls/library/x509_crt.c **** 
 336://MAC/Home/Downloads/getstarted-optiga-trust-m/optiga-trust-m-1/externals/mbedtls/library/x509_crt.c ****         /* type */
 337://MAC/Home/Downloads/getstarted-optiga-trust-m/optiga-trust-m-1/externals/mbedtls/library/x509_crt.c ****         if( a->oid.tag != b->oid.tag ||
 111              	 .loc 1 337 0
 112 000e 2B68     	 ldr r3,[r5]
 113 0010 2268     	 ldr r2,[r4]
 114 0012 9342     	 cmp r3,r2
 115 0014 2ED1     	 bne .L29
 338://MAC/Home/Downloads/getstarted-optiga-trust-m/optiga-trust-m-1/externals/mbedtls/library/x509_crt.c ****             a->oid.len != b->oid.len ||
 116              	 .loc 1 338 0 discriminator 1
 117 0016 6A68     	 ldr r2,[r5,#4]
 337://MAC/Home/Downloads/getstarted-optiga-trust-m/optiga-trust-m-1/externals/mbedtls/library/x509_crt.c ****             a->oid.len != b->oid.len ||
 118              	 .loc 1 337 0 discriminator 1
 119 0018 6368     	 ldr r3,[r4,#4]
 120 001a 9A42     	 cmp r2,r3
 121 001c 2AD1     	 bne .L29
 339://MAC/Home/Downloads/getstarted-optiga-trust-m/optiga-trust-m-1/externals/mbedtls/library/x509_crt.c ****             memcmp( a->oid.p, b->oid.p, b->oid.len ) != 0 )
 122              	 .loc 1 339 0
 123 001e A868     	 ldr r0,[r5,#8]
 124 0020 A168     	 ldr r1,[r4,#8]
 125 0022 FFF7FEFF 	 bl memcmp
 126              	.LVL12:
 338://MAC/Home/Downloads/getstarted-optiga-trust-m/optiga-trust-m-1/externals/mbedtls/library/x509_crt.c ****             a->oid.len != b->oid.len ||
 127              	 .loc 1 338 0
 128 0026 0028     	 cmp r0,#0
 129 0028 24D1     	 bne .L29
 130              	.LVL13:
 131              	.LBB10:
 132              	.LBB11:
 300://MAC/Home/Downloads/getstarted-optiga-trust-m/optiga-trust-m-1/externals/mbedtls/library/x509_crt.c ****         a->len == b->len &&
 133              	 .loc 1 300 0
 134 002a EF68     	 ldr r7,[r5,#12]
 135 002c E668     	 ldr r6,[r4,#12]
 136 002e B742     	 cmp r7,r6
 137 0030 09D1     	 bne .L16
 301://MAC/Home/Downloads/getstarted-optiga-trust-m/optiga-trust-m-1/externals/mbedtls/library/x509_crt.c ****         memcmp( a->p, b->p, b->len ) == 0 )
 138              	 .loc 1 301 0
 139 0032 2A69     	 ldr r2,[r5,#16]
 300://MAC/Home/Downloads/getstarted-optiga-trust-m/optiga-trust-m-1/externals/mbedtls/library/x509_crt.c ****         a->len == b->len &&
 140              	 .loc 1 300 0
 141 0034 2369     	 ldr r3,[r4,#16]
 142 0036 9A42     	 cmp r2,r3
 143 0038 05D1     	 bne .L16
 302://MAC/Home/Downloads/getstarted-optiga-trust-m/optiga-trust-m-1/externals/mbedtls/library/x509_crt.c ****     {
 144              	 .loc 1 302 0
 145 003a 6869     	 ldr r0,[r5,#20]
 146 003c 6169     	 ldr r1,[r4,#20]
 147 003e FFF7FEFF 	 bl memcmp
 148              	.LVL14:
 301://MAC/Home/Downloads/getstarted-optiga-trust-m/optiga-trust-m-1/externals/mbedtls/library/x509_crt.c ****         memcmp( a->p, b->p, b->len ) == 0 )
 149              	 .loc 1 301 0
 150 0042 0028     	 cmp r0,#0
 151 0044 19D0     	 beq .L17
 152              	.L16:
 307://MAC/Home/Downloads/getstarted-optiga-trust-m/optiga-trust-m-1/externals/mbedtls/library/x509_crt.c ****         ( b->tag == MBEDTLS_ASN1_UTF8_STRING || b->tag == MBEDTLS_ASN1_PRINTABLE_STRING ) &&
 153              	 .loc 1 307 0
 154 0046 0C2F     	 cmp r7,#12
 155 0048 01D0     	 beq .L18
 156 004a 132F     	 cmp r7,#19
 157 004c 12D1     	 bne .L29
 158              	.L18:
 159 004e 0C2E     	 cmp r6,#12
 160 0050 01D0     	 beq .L19
 308://MAC/Home/Downloads/getstarted-optiga-trust-m/optiga-trust-m-1/externals/mbedtls/library/x509_crt.c ****         a->len == b->len &&
 161              	 .loc 1 308 0
 162 0052 132E     	 cmp r6,#19
 163 0054 0ED1     	 bne .L29
 164              	.L19:
 309://MAC/Home/Downloads/getstarted-optiga-trust-m/optiga-trust-m-1/externals/mbedtls/library/x509_crt.c ****         x509_memcasecmp( a->p, b->p, b->len ) == 0 )
 165              	 .loc 1 309 0
 166 0056 2A69     	 ldr r2,[r5,#16]
 308://MAC/Home/Downloads/getstarted-optiga-trust-m/optiga-trust-m-1/externals/mbedtls/library/x509_crt.c ****         a->len == b->len &&
 167              	 .loc 1 308 0
 168 0058 2369     	 ldr r3,[r4,#16]
 169 005a 9A42     	 cmp r2,r3
 170 005c 0AD1     	 bne .L29
 310://MAC/Home/Downloads/getstarted-optiga-trust-m/optiga-trust-m-1/externals/mbedtls/library/x509_crt.c ****     {
 171              	 .loc 1 310 0
 172 005e 6869     	 ldr r0,[r5,#20]
 173 0060 6169     	 ldr r1,[r4,#20]
 174 0062 FFF7FEFF 	 bl x509_memcasecmp
 175              	.LVL15:
 309://MAC/Home/Downloads/getstarted-optiga-trust-m/optiga-trust-m-1/externals/mbedtls/library/x509_crt.c ****         x509_memcasecmp( a->p, b->p, b->len ) == 0 )
 176              	 .loc 1 309 0
 177 0066 0028     	 cmp r0,#0
 178 0068 07D0     	 beq .L17
 179 006a 03E0     	 b .L29
 180              	.LVL16:
 181              	.L44:
 182              	.LBE11:
 183              	.LBE10:
 331://MAC/Home/Downloads/getstarted-optiga-trust-m/optiga-trust-m-1/externals/mbedtls/library/x509_crt.c ****     {
 184              	 .loc 1 331 0 discriminator 1
 185 006c 601E     	 sub r0,r4,#1
 186 006e 8441     	 sbc r4,r4,r0
 187              	.LVL17:
 188 0070 6042     	 neg r0,r4
 189 0072 09E0     	 b .L42
 190              	.LVL18:
 191              	.L29:
 334://MAC/Home/Downloads/getstarted-optiga-trust-m/optiga-trust-m-1/externals/mbedtls/library/x509_crt.c **** 
 192              	 .loc 1 334 0
 193 0074 0120     	 mov r0,#1
 194 0076 4042     	 neg r0,r0
 195 0078 06E0     	 b .L42
 196              	.LVL19:
 197              	.L17:
 340://MAC/Home/Downloads/getstarted-optiga-trust-m/optiga-trust-m-1/externals/mbedtls/library/x509_crt.c ****         {
 341://MAC/Home/Downloads/getstarted-optiga-trust-m/optiga-trust-m-1/externals/mbedtls/library/x509_crt.c ****             return( -1 );
 342://MAC/Home/Downloads/getstarted-optiga-trust-m/optiga-trust-m-1/externals/mbedtls/library/x509_crt.c ****         }
 343://MAC/Home/Downloads/getstarted-optiga-trust-m/optiga-trust-m-1/externals/mbedtls/library/x509_crt.c **** 
 344://MAC/Home/Downloads/getstarted-optiga-trust-m/optiga-trust-m-1/externals/mbedtls/library/x509_crt.c ****         /* value */
 345://MAC/Home/Downloads/getstarted-optiga-trust-m/optiga-trust-m-1/externals/mbedtls/library/x509_crt.c ****         if( x509_string_cmp( &a->val, &b->val ) != 0 )
 346://MAC/Home/Downloads/getstarted-optiga-trust-m/optiga-trust-m-1/externals/mbedtls/library/x509_crt.c ****             return( -1 );
 347://MAC/Home/Downloads/getstarted-optiga-trust-m/optiga-trust-m-1/externals/mbedtls/library/x509_crt.c **** 
 348://MAC/Home/Downloads/getstarted-optiga-trust-m/optiga-trust-m-1/externals/mbedtls/library/x509_crt.c ****         /* structure of the list of sets */
 349://MAC/Home/Downloads/getstarted-optiga-trust-m/optiga-trust-m-1/externals/mbedtls/library/x509_crt.c ****         if( a->next_merged != b->next_merged )
 198              	 .loc 1 349 0
 199 007a 2A7F     	 ldrb r2,[r5,#28]
 200 007c 237F     	 ldrb r3,[r4,#28]
 201 007e 9A42     	 cmp r2,r3
 202 0080 F8D1     	 bne .L29
 350://MAC/Home/Downloads/getstarted-optiga-trust-m/optiga-trust-m-1/externals/mbedtls/library/x509_crt.c ****             return( -1 );
 351://MAC/Home/Downloads/getstarted-optiga-trust-m/optiga-trust-m-1/externals/mbedtls/library/x509_crt.c **** 
 352://MAC/Home/Downloads/getstarted-optiga-trust-m/optiga-trust-m-1/externals/mbedtls/library/x509_crt.c ****         a = a->next;
 203              	 .loc 1 352 0
 204 0082 AD69     	 ldr r5,[r5,#24]
 205              	.LVL20:
 353://MAC/Home/Downloads/getstarted-optiga-trust-m/optiga-trust-m-1/externals/mbedtls/library/x509_crt.c ****         b = b->next;
 206              	 .loc 1 353 0
 207 0084 A469     	 ldr r4,[r4,#24]
 208              	.LVL21:
 209 0086 BEE7     	 b .L14
 210              	.LVL22:
 211              	.L42:
 354://MAC/Home/Downloads/getstarted-optiga-trust-m/optiga-trust-m-1/externals/mbedtls/library/x509_crt.c ****     }
 355://MAC/Home/Downloads/getstarted-optiga-trust-m/optiga-trust-m-1/externals/mbedtls/library/x509_crt.c **** 
 356://MAC/Home/Downloads/getstarted-optiga-trust-m/optiga-trust-m-1/externals/mbedtls/library/x509_crt.c ****     /* a == NULL == b */
 357://MAC/Home/Downloads/getstarted-optiga-trust-m/optiga-trust-m-1/externals/mbedtls/library/x509_crt.c ****     return( 0 );
 358://MAC/Home/Downloads/getstarted-optiga-trust-m/optiga-trust-m-1/externals/mbedtls/library/x509_crt.c **** }
 212              	 .loc 1 358 0
 213              	 
 214              	.LVL23:
 215 0088 F8BD     	 pop {r3,r4,r5,r6,r7,pc}
 216              	 .cfi_endproc
 217              	.LFE15:
 219              	 .section .text.x509_crt_check_cn,"ax",%progbits
 220              	 .align 1
 221              	 .code 16
 222              	 .thumb_func
 224              	x509_crt_check_cn:
 225              	.LFB41:
 359://MAC/Home/Downloads/getstarted-optiga-trust-m/optiga-trust-m-1/externals/mbedtls/library/x509_crt.c **** 
 360://MAC/Home/Downloads/getstarted-optiga-trust-m/optiga-trust-m-1/externals/mbedtls/library/x509_crt.c **** /*
 361://MAC/Home/Downloads/getstarted-optiga-trust-m/optiga-trust-m-1/externals/mbedtls/library/x509_crt.c ****  * Reset (init or clear) a verify_chain
 362://MAC/Home/Downloads/getstarted-optiga-trust-m/optiga-trust-m-1/externals/mbedtls/library/x509_crt.c ****  */
 363://MAC/Home/Downloads/getstarted-optiga-trust-m/optiga-trust-m-1/externals/mbedtls/library/x509_crt.c **** static void x509_crt_verify_chain_reset(
 364://MAC/Home/Downloads/getstarted-optiga-trust-m/optiga-trust-m-1/externals/mbedtls/library/x509_crt.c ****     mbedtls_x509_crt_verify_chain *ver_chain )
 365://MAC/Home/Downloads/getstarted-optiga-trust-m/optiga-trust-m-1/externals/mbedtls/library/x509_crt.c **** {
 366://MAC/Home/Downloads/getstarted-optiga-trust-m/optiga-trust-m-1/externals/mbedtls/library/x509_crt.c ****     size_t i;
 367://MAC/Home/Downloads/getstarted-optiga-trust-m/optiga-trust-m-1/externals/mbedtls/library/x509_crt.c **** 
 368://MAC/Home/Downloads/getstarted-optiga-trust-m/optiga-trust-m-1/externals/mbedtls/library/x509_crt.c ****     for( i = 0; i < MBEDTLS_X509_MAX_VERIFY_CHAIN_SIZE; i++ )
 369://MAC/Home/Downloads/getstarted-optiga-trust-m/optiga-trust-m-1/externals/mbedtls/library/x509_crt.c ****     {
 370://MAC/Home/Downloads/getstarted-optiga-trust-m/optiga-trust-m-1/externals/mbedtls/library/x509_crt.c ****         ver_chain->items[i].crt = NULL;
 371://MAC/Home/Downloads/getstarted-optiga-trust-m/optiga-trust-m-1/externals/mbedtls/library/x509_crt.c ****         ver_chain->items[i].flags = -1;
 372://MAC/Home/Downloads/getstarted-optiga-trust-m/optiga-trust-m-1/externals/mbedtls/library/x509_crt.c ****     }
 373://MAC/Home/Downloads/getstarted-optiga-trust-m/optiga-trust-m-1/externals/mbedtls/library/x509_crt.c **** 
 374://MAC/Home/Downloads/getstarted-optiga-trust-m/optiga-trust-m-1/externals/mbedtls/library/x509_crt.c ****     ver_chain->len = 0;
 375://MAC/Home/Downloads/getstarted-optiga-trust-m/optiga-trust-m-1/externals/mbedtls/library/x509_crt.c **** }
 376://MAC/Home/Downloads/getstarted-optiga-trust-m/optiga-trust-m-1/externals/mbedtls/library/x509_crt.c **** 
 377://MAC/Home/Downloads/getstarted-optiga-trust-m/optiga-trust-m-1/externals/mbedtls/library/x509_crt.c **** /*
 378://MAC/Home/Downloads/getstarted-optiga-trust-m/optiga-trust-m-1/externals/mbedtls/library/x509_crt.c ****  *  Version  ::=  INTEGER  {  v1(0), v2(1), v3(2)  }
 379://MAC/Home/Downloads/getstarted-optiga-trust-m/optiga-trust-m-1/externals/mbedtls/library/x509_crt.c ****  */
 380://MAC/Home/Downloads/getstarted-optiga-trust-m/optiga-trust-m-1/externals/mbedtls/library/x509_crt.c **** static int x509_get_version( unsigned char **p,
 381://MAC/Home/Downloads/getstarted-optiga-trust-m/optiga-trust-m-1/externals/mbedtls/library/x509_crt.c ****                              const unsigned char *end,
 382://MAC/Home/Downloads/getstarted-optiga-trust-m/optiga-trust-m-1/externals/mbedtls/library/x509_crt.c ****                              int *ver )
 383://MAC/Home/Downloads/getstarted-optiga-trust-m/optiga-trust-m-1/externals/mbedtls/library/x509_crt.c **** {
 384://MAC/Home/Downloads/getstarted-optiga-trust-m/optiga-trust-m-1/externals/mbedtls/library/x509_crt.c ****     int ret;
 385://MAC/Home/Downloads/getstarted-optiga-trust-m/optiga-trust-m-1/externals/mbedtls/library/x509_crt.c ****     size_t len;
 386://MAC/Home/Downloads/getstarted-optiga-trust-m/optiga-trust-m-1/externals/mbedtls/library/x509_crt.c **** 
 387://MAC/Home/Downloads/getstarted-optiga-trust-m/optiga-trust-m-1/externals/mbedtls/library/x509_crt.c ****     if( ( ret = mbedtls_asn1_get_tag( p, end, &len,
 388://MAC/Home/Downloads/getstarted-optiga-trust-m/optiga-trust-m-1/externals/mbedtls/library/x509_crt.c ****             MBEDTLS_ASN1_CONTEXT_SPECIFIC | MBEDTLS_ASN1_CONSTRUCTED | 0 ) ) != 0 )
 389://MAC/Home/Downloads/getstarted-optiga-trust-m/optiga-trust-m-1/externals/mbedtls/library/x509_crt.c ****     {
 390://MAC/Home/Downloads/getstarted-optiga-trust-m/optiga-trust-m-1/externals/mbedtls/library/x509_crt.c ****         if( ret == MBEDTLS_ERR_ASN1_UNEXPECTED_TAG )
 391://MAC/Home/Downloads/getstarted-optiga-trust-m/optiga-trust-m-1/externals/mbedtls/library/x509_crt.c ****         {
 392://MAC/Home/Downloads/getstarted-optiga-trust-m/optiga-trust-m-1/externals/mbedtls/library/x509_crt.c ****             *ver = 0;
 393://MAC/Home/Downloads/getstarted-optiga-trust-m/optiga-trust-m-1/externals/mbedtls/library/x509_crt.c ****             return( 0 );
 394://MAC/Home/Downloads/getstarted-optiga-trust-m/optiga-trust-m-1/externals/mbedtls/library/x509_crt.c ****         }
 395://MAC/Home/Downloads/getstarted-optiga-trust-m/optiga-trust-m-1/externals/mbedtls/library/x509_crt.c **** 
 396://MAC/Home/Downloads/getstarted-optiga-trust-m/optiga-trust-m-1/externals/mbedtls/library/x509_crt.c ****         return( ret );
 397://MAC/Home/Downloads/getstarted-optiga-trust-m/optiga-trust-m-1/externals/mbedtls/library/x509_crt.c ****     }
 398://MAC/Home/Downloads/getstarted-optiga-trust-m/optiga-trust-m-1/externals/mbedtls/library/x509_crt.c **** 
 399://MAC/Home/Downloads/getstarted-optiga-trust-m/optiga-trust-m-1/externals/mbedtls/library/x509_crt.c ****     end = *p + len;
 400://MAC/Home/Downloads/getstarted-optiga-trust-m/optiga-trust-m-1/externals/mbedtls/library/x509_crt.c **** 
 401://MAC/Home/Downloads/getstarted-optiga-trust-m/optiga-trust-m-1/externals/mbedtls/library/x509_crt.c ****     if( ( ret = mbedtls_asn1_get_int( p, end, ver ) ) != 0 )
 402://MAC/Home/Downloads/getstarted-optiga-trust-m/optiga-trust-m-1/externals/mbedtls/library/x509_crt.c ****         return( MBEDTLS_ERR_X509_INVALID_VERSION + ret );
 403://MAC/Home/Downloads/getstarted-optiga-trust-m/optiga-trust-m-1/externals/mbedtls/library/x509_crt.c **** 
 404://MAC/Home/Downloads/getstarted-optiga-trust-m/optiga-trust-m-1/externals/mbedtls/library/x509_crt.c ****     if( *p != end )
 405://MAC/Home/Downloads/getstarted-optiga-trust-m/optiga-trust-m-1/externals/mbedtls/library/x509_crt.c ****         return( MBEDTLS_ERR_X509_INVALID_VERSION +
 406://MAC/Home/Downloads/getstarted-optiga-trust-m/optiga-trust-m-1/externals/mbedtls/library/x509_crt.c ****                 MBEDTLS_ERR_ASN1_LENGTH_MISMATCH );
 407://MAC/Home/Downloads/getstarted-optiga-trust-m/optiga-trust-m-1/externals/mbedtls/library/x509_crt.c **** 
 408://MAC/Home/Downloads/getstarted-optiga-trust-m/optiga-trust-m-1/externals/mbedtls/library/x509_crt.c ****     return( 0 );
 409://MAC/Home/Downloads/getstarted-optiga-trust-m/optiga-trust-m-1/externals/mbedtls/library/x509_crt.c **** }
 410://MAC/Home/Downloads/getstarted-optiga-trust-m/optiga-trust-m-1/externals/mbedtls/library/x509_crt.c **** 
 411://MAC/Home/Downloads/getstarted-optiga-trust-m/optiga-trust-m-1/externals/mbedtls/library/x509_crt.c **** /*
 412://MAC/Home/Downloads/getstarted-optiga-trust-m/optiga-trust-m-1/externals/mbedtls/library/x509_crt.c ****  *  Validity ::= SEQUENCE {
 413://MAC/Home/Downloads/getstarted-optiga-trust-m/optiga-trust-m-1/externals/mbedtls/library/x509_crt.c ****  *       notBefore      Time,
 414://MAC/Home/Downloads/getstarted-optiga-trust-m/optiga-trust-m-1/externals/mbedtls/library/x509_crt.c ****  *       notAfter       Time }
 415://MAC/Home/Downloads/getstarted-optiga-trust-m/optiga-trust-m-1/externals/mbedtls/library/x509_crt.c ****  */
 416://MAC/Home/Downloads/getstarted-optiga-trust-m/optiga-trust-m-1/externals/mbedtls/library/x509_crt.c **** static int x509_get_dates( unsigned char **p,
 417://MAC/Home/Downloads/getstarted-optiga-trust-m/optiga-trust-m-1/externals/mbedtls/library/x509_crt.c ****                            const unsigned char *end,
 418://MAC/Home/Downloads/getstarted-optiga-trust-m/optiga-trust-m-1/externals/mbedtls/library/x509_crt.c ****                            mbedtls_x509_time *from,
 419://MAC/Home/Downloads/getstarted-optiga-trust-m/optiga-trust-m-1/externals/mbedtls/library/x509_crt.c ****                            mbedtls_x509_time *to )
 420://MAC/Home/Downloads/getstarted-optiga-trust-m/optiga-trust-m-1/externals/mbedtls/library/x509_crt.c **** {
 421://MAC/Home/Downloads/getstarted-optiga-trust-m/optiga-trust-m-1/externals/mbedtls/library/x509_crt.c ****     int ret;
 422://MAC/Home/Downloads/getstarted-optiga-trust-m/optiga-trust-m-1/externals/mbedtls/library/x509_crt.c ****     size_t len;
 423://MAC/Home/Downloads/getstarted-optiga-trust-m/optiga-trust-m-1/externals/mbedtls/library/x509_crt.c **** 
 424://MAC/Home/Downloads/getstarted-optiga-trust-m/optiga-trust-m-1/externals/mbedtls/library/x509_crt.c ****     if( ( ret = mbedtls_asn1_get_tag( p, end, &len,
 425://MAC/Home/Downloads/getstarted-optiga-trust-m/optiga-trust-m-1/externals/mbedtls/library/x509_crt.c ****             MBEDTLS_ASN1_CONSTRUCTED | MBEDTLS_ASN1_SEQUENCE ) ) != 0 )
 426://MAC/Home/Downloads/getstarted-optiga-trust-m/optiga-trust-m-1/externals/mbedtls/library/x509_crt.c ****         return( MBEDTLS_ERR_X509_INVALID_DATE + ret );
 427://MAC/Home/Downloads/getstarted-optiga-trust-m/optiga-trust-m-1/externals/mbedtls/library/x509_crt.c **** 
 428://MAC/Home/Downloads/getstarted-optiga-trust-m/optiga-trust-m-1/externals/mbedtls/library/x509_crt.c ****     end = *p + len;
 429://MAC/Home/Downloads/getstarted-optiga-trust-m/optiga-trust-m-1/externals/mbedtls/library/x509_crt.c **** 
 430://MAC/Home/Downloads/getstarted-optiga-trust-m/optiga-trust-m-1/externals/mbedtls/library/x509_crt.c ****     if( ( ret = mbedtls_x509_get_time( p, end, from ) ) != 0 )
 431://MAC/Home/Downloads/getstarted-optiga-trust-m/optiga-trust-m-1/externals/mbedtls/library/x509_crt.c ****         return( ret );
 432://MAC/Home/Downloads/getstarted-optiga-trust-m/optiga-trust-m-1/externals/mbedtls/library/x509_crt.c **** 
 433://MAC/Home/Downloads/getstarted-optiga-trust-m/optiga-trust-m-1/externals/mbedtls/library/x509_crt.c ****     if( ( ret = mbedtls_x509_get_time( p, end, to ) ) != 0 )
 434://MAC/Home/Downloads/getstarted-optiga-trust-m/optiga-trust-m-1/externals/mbedtls/library/x509_crt.c ****         return( ret );
 435://MAC/Home/Downloads/getstarted-optiga-trust-m/optiga-trust-m-1/externals/mbedtls/library/x509_crt.c **** 
 436://MAC/Home/Downloads/getstarted-optiga-trust-m/optiga-trust-m-1/externals/mbedtls/library/x509_crt.c ****     if( *p != end )
 437://MAC/Home/Downloads/getstarted-optiga-trust-m/optiga-trust-m-1/externals/mbedtls/library/x509_crt.c ****         return( MBEDTLS_ERR_X509_INVALID_DATE +
 438://MAC/Home/Downloads/getstarted-optiga-trust-m/optiga-trust-m-1/externals/mbedtls/library/x509_crt.c ****                 MBEDTLS_ERR_ASN1_LENGTH_MISMATCH );
 439://MAC/Home/Downloads/getstarted-optiga-trust-m/optiga-trust-m-1/externals/mbedtls/library/x509_crt.c **** 
 440://MAC/Home/Downloads/getstarted-optiga-trust-m/optiga-trust-m-1/externals/mbedtls/library/x509_crt.c ****     return( 0 );
 441://MAC/Home/Downloads/getstarted-optiga-trust-m/optiga-trust-m-1/externals/mbedtls/library/x509_crt.c **** }
 442://MAC/Home/Downloads/getstarted-optiga-trust-m/optiga-trust-m-1/externals/mbedtls/library/x509_crt.c **** 
 443://MAC/Home/Downloads/getstarted-optiga-trust-m/optiga-trust-m-1/externals/mbedtls/library/x509_crt.c **** /*
 444://MAC/Home/Downloads/getstarted-optiga-trust-m/optiga-trust-m-1/externals/mbedtls/library/x509_crt.c ****  * X.509 v2/v3 unique identifier (not parsed)
 445://MAC/Home/Downloads/getstarted-optiga-trust-m/optiga-trust-m-1/externals/mbedtls/library/x509_crt.c ****  */
 446://MAC/Home/Downloads/getstarted-optiga-trust-m/optiga-trust-m-1/externals/mbedtls/library/x509_crt.c **** static int x509_get_uid( unsigned char **p,
 447://MAC/Home/Downloads/getstarted-optiga-trust-m/optiga-trust-m-1/externals/mbedtls/library/x509_crt.c ****                          const unsigned char *end,
 448://MAC/Home/Downloads/getstarted-optiga-trust-m/optiga-trust-m-1/externals/mbedtls/library/x509_crt.c ****                          mbedtls_x509_buf *uid, int n )
 449://MAC/Home/Downloads/getstarted-optiga-trust-m/optiga-trust-m-1/externals/mbedtls/library/x509_crt.c **** {
 450://MAC/Home/Downloads/getstarted-optiga-trust-m/optiga-trust-m-1/externals/mbedtls/library/x509_crt.c ****     int ret;
 451://MAC/Home/Downloads/getstarted-optiga-trust-m/optiga-trust-m-1/externals/mbedtls/library/x509_crt.c **** 
 452://MAC/Home/Downloads/getstarted-optiga-trust-m/optiga-trust-m-1/externals/mbedtls/library/x509_crt.c ****     if( *p == end )
 453://MAC/Home/Downloads/getstarted-optiga-trust-m/optiga-trust-m-1/externals/mbedtls/library/x509_crt.c ****         return( 0 );
 454://MAC/Home/Downloads/getstarted-optiga-trust-m/optiga-trust-m-1/externals/mbedtls/library/x509_crt.c **** 
 455://MAC/Home/Downloads/getstarted-optiga-trust-m/optiga-trust-m-1/externals/mbedtls/library/x509_crt.c ****     uid->tag = **p;
 456://MAC/Home/Downloads/getstarted-optiga-trust-m/optiga-trust-m-1/externals/mbedtls/library/x509_crt.c **** 
 457://MAC/Home/Downloads/getstarted-optiga-trust-m/optiga-trust-m-1/externals/mbedtls/library/x509_crt.c ****     if( ( ret = mbedtls_asn1_get_tag( p, end, &uid->len,
 458://MAC/Home/Downloads/getstarted-optiga-trust-m/optiga-trust-m-1/externals/mbedtls/library/x509_crt.c ****             MBEDTLS_ASN1_CONTEXT_SPECIFIC | MBEDTLS_ASN1_CONSTRUCTED | n ) ) != 0 )
 459://MAC/Home/Downloads/getstarted-optiga-trust-m/optiga-trust-m-1/externals/mbedtls/library/x509_crt.c ****     {
 460://MAC/Home/Downloads/getstarted-optiga-trust-m/optiga-trust-m-1/externals/mbedtls/library/x509_crt.c ****         if( ret == MBEDTLS_ERR_ASN1_UNEXPECTED_TAG )
 461://MAC/Home/Downloads/getstarted-optiga-trust-m/optiga-trust-m-1/externals/mbedtls/library/x509_crt.c ****             return( 0 );
 462://MAC/Home/Downloads/getstarted-optiga-trust-m/optiga-trust-m-1/externals/mbedtls/library/x509_crt.c **** 
 463://MAC/Home/Downloads/getstarted-optiga-trust-m/optiga-trust-m-1/externals/mbedtls/library/x509_crt.c ****         return( ret );
 464://MAC/Home/Downloads/getstarted-optiga-trust-m/optiga-trust-m-1/externals/mbedtls/library/x509_crt.c ****     }
 465://MAC/Home/Downloads/getstarted-optiga-trust-m/optiga-trust-m-1/externals/mbedtls/library/x509_crt.c **** 
 466://MAC/Home/Downloads/getstarted-optiga-trust-m/optiga-trust-m-1/externals/mbedtls/library/x509_crt.c ****     uid->p = *p;
 467://MAC/Home/Downloads/getstarted-optiga-trust-m/optiga-trust-m-1/externals/mbedtls/library/x509_crt.c ****     *p += uid->len;
 468://MAC/Home/Downloads/getstarted-optiga-trust-m/optiga-trust-m-1/externals/mbedtls/library/x509_crt.c **** 
 469://MAC/Home/Downloads/getstarted-optiga-trust-m/optiga-trust-m-1/externals/mbedtls/library/x509_crt.c ****     return( 0 );
 470://MAC/Home/Downloads/getstarted-optiga-trust-m/optiga-trust-m-1/externals/mbedtls/library/x509_crt.c **** }
 471://MAC/Home/Downloads/getstarted-optiga-trust-m/optiga-trust-m-1/externals/mbedtls/library/x509_crt.c **** 
 472://MAC/Home/Downloads/getstarted-optiga-trust-m/optiga-trust-m-1/externals/mbedtls/library/x509_crt.c **** static int x509_get_basic_constraints( unsigned char **p,
 473://MAC/Home/Downloads/getstarted-optiga-trust-m/optiga-trust-m-1/externals/mbedtls/library/x509_crt.c ****                                        const unsigned char *end,
 474://MAC/Home/Downloads/getstarted-optiga-trust-m/optiga-trust-m-1/externals/mbedtls/library/x509_crt.c ****                                        int *ca_istrue,
 475://MAC/Home/Downloads/getstarted-optiga-trust-m/optiga-trust-m-1/externals/mbedtls/library/x509_crt.c ****                                        int *max_pathlen )
 476://MAC/Home/Downloads/getstarted-optiga-trust-m/optiga-trust-m-1/externals/mbedtls/library/x509_crt.c **** {
 477://MAC/Home/Downloads/getstarted-optiga-trust-m/optiga-trust-m-1/externals/mbedtls/library/x509_crt.c ****     int ret;
 478://MAC/Home/Downloads/getstarted-optiga-trust-m/optiga-trust-m-1/externals/mbedtls/library/x509_crt.c ****     size_t len;
 479://MAC/Home/Downloads/getstarted-optiga-trust-m/optiga-trust-m-1/externals/mbedtls/library/x509_crt.c **** 
 480://MAC/Home/Downloads/getstarted-optiga-trust-m/optiga-trust-m-1/externals/mbedtls/library/x509_crt.c ****     /*
 481://MAC/Home/Downloads/getstarted-optiga-trust-m/optiga-trust-m-1/externals/mbedtls/library/x509_crt.c ****      * BasicConstraints ::= SEQUENCE {
 482://MAC/Home/Downloads/getstarted-optiga-trust-m/optiga-trust-m-1/externals/mbedtls/library/x509_crt.c ****      *      cA                      BOOLEAN DEFAULT FALSE,
 483://MAC/Home/Downloads/getstarted-optiga-trust-m/optiga-trust-m-1/externals/mbedtls/library/x509_crt.c ****      *      pathLenConstraint       INTEGER (0..MAX) OPTIONAL }
 484://MAC/Home/Downloads/getstarted-optiga-trust-m/optiga-trust-m-1/externals/mbedtls/library/x509_crt.c ****      */
 485://MAC/Home/Downloads/getstarted-optiga-trust-m/optiga-trust-m-1/externals/mbedtls/library/x509_crt.c ****     *ca_istrue = 0; /* DEFAULT FALSE */
 486://MAC/Home/Downloads/getstarted-optiga-trust-m/optiga-trust-m-1/externals/mbedtls/library/x509_crt.c ****     *max_pathlen = 0; /* endless */
 487://MAC/Home/Downloads/getstarted-optiga-trust-m/optiga-trust-m-1/externals/mbedtls/library/x509_crt.c **** 
 488://MAC/Home/Downloads/getstarted-optiga-trust-m/optiga-trust-m-1/externals/mbedtls/library/x509_crt.c ****     if( ( ret = mbedtls_asn1_get_tag( p, end, &len,
 489://MAC/Home/Downloads/getstarted-optiga-trust-m/optiga-trust-m-1/externals/mbedtls/library/x509_crt.c ****             MBEDTLS_ASN1_CONSTRUCTED | MBEDTLS_ASN1_SEQUENCE ) ) != 0 )
 490://MAC/Home/Downloads/getstarted-optiga-trust-m/optiga-trust-m-1/externals/mbedtls/library/x509_crt.c ****         return( MBEDTLS_ERR_X509_INVALID_EXTENSIONS + ret );
 491://MAC/Home/Downloads/getstarted-optiga-trust-m/optiga-trust-m-1/externals/mbedtls/library/x509_crt.c **** 
 492://MAC/Home/Downloads/getstarted-optiga-trust-m/optiga-trust-m-1/externals/mbedtls/library/x509_crt.c ****     if( *p == end )
 493://MAC/Home/Downloads/getstarted-optiga-trust-m/optiga-trust-m-1/externals/mbedtls/library/x509_crt.c ****         return( 0 );
 494://MAC/Home/Downloads/getstarted-optiga-trust-m/optiga-trust-m-1/externals/mbedtls/library/x509_crt.c **** 
 495://MAC/Home/Downloads/getstarted-optiga-trust-m/optiga-trust-m-1/externals/mbedtls/library/x509_crt.c ****     if( ( ret = mbedtls_asn1_get_bool( p, end, ca_istrue ) ) != 0 )
 496://MAC/Home/Downloads/getstarted-optiga-trust-m/optiga-trust-m-1/externals/mbedtls/library/x509_crt.c ****     {
 497://MAC/Home/Downloads/getstarted-optiga-trust-m/optiga-trust-m-1/externals/mbedtls/library/x509_crt.c ****         if( ret == MBEDTLS_ERR_ASN1_UNEXPECTED_TAG )
 498://MAC/Home/Downloads/getstarted-optiga-trust-m/optiga-trust-m-1/externals/mbedtls/library/x509_crt.c ****             ret = mbedtls_asn1_get_int( p, end, ca_istrue );
 499://MAC/Home/Downloads/getstarted-optiga-trust-m/optiga-trust-m-1/externals/mbedtls/library/x509_crt.c **** 
 500://MAC/Home/Downloads/getstarted-optiga-trust-m/optiga-trust-m-1/externals/mbedtls/library/x509_crt.c ****         if( ret != 0 )
 501://MAC/Home/Downloads/getstarted-optiga-trust-m/optiga-trust-m-1/externals/mbedtls/library/x509_crt.c ****             return( MBEDTLS_ERR_X509_INVALID_EXTENSIONS + ret );
 502://MAC/Home/Downloads/getstarted-optiga-trust-m/optiga-trust-m-1/externals/mbedtls/library/x509_crt.c **** 
 503://MAC/Home/Downloads/getstarted-optiga-trust-m/optiga-trust-m-1/externals/mbedtls/library/x509_crt.c ****         if( *ca_istrue != 0 )
 504://MAC/Home/Downloads/getstarted-optiga-trust-m/optiga-trust-m-1/externals/mbedtls/library/x509_crt.c ****             *ca_istrue = 1;
 505://MAC/Home/Downloads/getstarted-optiga-trust-m/optiga-trust-m-1/externals/mbedtls/library/x509_crt.c ****     }
 506://MAC/Home/Downloads/getstarted-optiga-trust-m/optiga-trust-m-1/externals/mbedtls/library/x509_crt.c **** 
 507://MAC/Home/Downloads/getstarted-optiga-trust-m/optiga-trust-m-1/externals/mbedtls/library/x509_crt.c ****     if( *p == end )
 508://MAC/Home/Downloads/getstarted-optiga-trust-m/optiga-trust-m-1/externals/mbedtls/library/x509_crt.c ****         return( 0 );
 509://MAC/Home/Downloads/getstarted-optiga-trust-m/optiga-trust-m-1/externals/mbedtls/library/x509_crt.c **** 
 510://MAC/Home/Downloads/getstarted-optiga-trust-m/optiga-trust-m-1/externals/mbedtls/library/x509_crt.c ****     if( ( ret = mbedtls_asn1_get_int( p, end, max_pathlen ) ) != 0 )
 511://MAC/Home/Downloads/getstarted-optiga-trust-m/optiga-trust-m-1/externals/mbedtls/library/x509_crt.c ****         return( MBEDTLS_ERR_X509_INVALID_EXTENSIONS + ret );
 512://MAC/Home/Downloads/getstarted-optiga-trust-m/optiga-trust-m-1/externals/mbedtls/library/x509_crt.c **** 
 513://MAC/Home/Downloads/getstarted-optiga-trust-m/optiga-trust-m-1/externals/mbedtls/library/x509_crt.c ****     if( *p != end )
 514://MAC/Home/Downloads/getstarted-optiga-trust-m/optiga-trust-m-1/externals/mbedtls/library/x509_crt.c ****         return( MBEDTLS_ERR_X509_INVALID_EXTENSIONS +
 515://MAC/Home/Downloads/getstarted-optiga-trust-m/optiga-trust-m-1/externals/mbedtls/library/x509_crt.c ****                 MBEDTLS_ERR_ASN1_LENGTH_MISMATCH );
 516://MAC/Home/Downloads/getstarted-optiga-trust-m/optiga-trust-m-1/externals/mbedtls/library/x509_crt.c **** 
 517://MAC/Home/Downloads/getstarted-optiga-trust-m/optiga-trust-m-1/externals/mbedtls/library/x509_crt.c ****     (*max_pathlen)++;
 518://MAC/Home/Downloads/getstarted-optiga-trust-m/optiga-trust-m-1/externals/mbedtls/library/x509_crt.c **** 
 519://MAC/Home/Downloads/getstarted-optiga-trust-m/optiga-trust-m-1/externals/mbedtls/library/x509_crt.c ****     return( 0 );
 520://MAC/Home/Downloads/getstarted-optiga-trust-m/optiga-trust-m-1/externals/mbedtls/library/x509_crt.c **** }
 521://MAC/Home/Downloads/getstarted-optiga-trust-m/optiga-trust-m-1/externals/mbedtls/library/x509_crt.c **** 
 522://MAC/Home/Downloads/getstarted-optiga-trust-m/optiga-trust-m-1/externals/mbedtls/library/x509_crt.c **** static int x509_get_ns_cert_type( unsigned char **p,
 523://MAC/Home/Downloads/getstarted-optiga-trust-m/optiga-trust-m-1/externals/mbedtls/library/x509_crt.c ****                                        const unsigned char *end,
 524://MAC/Home/Downloads/getstarted-optiga-trust-m/optiga-trust-m-1/externals/mbedtls/library/x509_crt.c ****                                        unsigned char *ns_cert_type)
 525://MAC/Home/Downloads/getstarted-optiga-trust-m/optiga-trust-m-1/externals/mbedtls/library/x509_crt.c **** {
 526://MAC/Home/Downloads/getstarted-optiga-trust-m/optiga-trust-m-1/externals/mbedtls/library/x509_crt.c ****     int ret;
 527://MAC/Home/Downloads/getstarted-optiga-trust-m/optiga-trust-m-1/externals/mbedtls/library/x509_crt.c ****     mbedtls_x509_bitstring bs = { 0, 0, NULL };
 528://MAC/Home/Downloads/getstarted-optiga-trust-m/optiga-trust-m-1/externals/mbedtls/library/x509_crt.c **** 
 529://MAC/Home/Downloads/getstarted-optiga-trust-m/optiga-trust-m-1/externals/mbedtls/library/x509_crt.c ****     if( ( ret = mbedtls_asn1_get_bitstring( p, end, &bs ) ) != 0 )
 530://MAC/Home/Downloads/getstarted-optiga-trust-m/optiga-trust-m-1/externals/mbedtls/library/x509_crt.c ****         return( MBEDTLS_ERR_X509_INVALID_EXTENSIONS + ret );
 531://MAC/Home/Downloads/getstarted-optiga-trust-m/optiga-trust-m-1/externals/mbedtls/library/x509_crt.c **** 
 532://MAC/Home/Downloads/getstarted-optiga-trust-m/optiga-trust-m-1/externals/mbedtls/library/x509_crt.c ****     if( bs.len != 1 )
 533://MAC/Home/Downloads/getstarted-optiga-trust-m/optiga-trust-m-1/externals/mbedtls/library/x509_crt.c ****         return( MBEDTLS_ERR_X509_INVALID_EXTENSIONS +
 534://MAC/Home/Downloads/getstarted-optiga-trust-m/optiga-trust-m-1/externals/mbedtls/library/x509_crt.c ****                 MBEDTLS_ERR_ASN1_INVALID_LENGTH );
 535://MAC/Home/Downloads/getstarted-optiga-trust-m/optiga-trust-m-1/externals/mbedtls/library/x509_crt.c **** 
 536://MAC/Home/Downloads/getstarted-optiga-trust-m/optiga-trust-m-1/externals/mbedtls/library/x509_crt.c ****     /* Get actual bitstring */
 537://MAC/Home/Downloads/getstarted-optiga-trust-m/optiga-trust-m-1/externals/mbedtls/library/x509_crt.c ****     *ns_cert_type = *bs.p;
 538://MAC/Home/Downloads/getstarted-optiga-trust-m/optiga-trust-m-1/externals/mbedtls/library/x509_crt.c ****     return( 0 );
 539://MAC/Home/Downloads/getstarted-optiga-trust-m/optiga-trust-m-1/externals/mbedtls/library/x509_crt.c **** }
 540://MAC/Home/Downloads/getstarted-optiga-trust-m/optiga-trust-m-1/externals/mbedtls/library/x509_crt.c **** 
 541://MAC/Home/Downloads/getstarted-optiga-trust-m/optiga-trust-m-1/externals/mbedtls/library/x509_crt.c **** static int x509_get_key_usage( unsigned char **p,
 542://MAC/Home/Downloads/getstarted-optiga-trust-m/optiga-trust-m-1/externals/mbedtls/library/x509_crt.c ****                                const unsigned char *end,
 543://MAC/Home/Downloads/getstarted-optiga-trust-m/optiga-trust-m-1/externals/mbedtls/library/x509_crt.c ****                                unsigned int *key_usage)
 544://MAC/Home/Downloads/getstarted-optiga-trust-m/optiga-trust-m-1/externals/mbedtls/library/x509_crt.c **** {
 545://MAC/Home/Downloads/getstarted-optiga-trust-m/optiga-trust-m-1/externals/mbedtls/library/x509_crt.c ****     int ret;
 546://MAC/Home/Downloads/getstarted-optiga-trust-m/optiga-trust-m-1/externals/mbedtls/library/x509_crt.c ****     size_t i;
 547://MAC/Home/Downloads/getstarted-optiga-trust-m/optiga-trust-m-1/externals/mbedtls/library/x509_crt.c ****     mbedtls_x509_bitstring bs = { 0, 0, NULL };
 548://MAC/Home/Downloads/getstarted-optiga-trust-m/optiga-trust-m-1/externals/mbedtls/library/x509_crt.c **** 
 549://MAC/Home/Downloads/getstarted-optiga-trust-m/optiga-trust-m-1/externals/mbedtls/library/x509_crt.c ****     if( ( ret = mbedtls_asn1_get_bitstring( p, end, &bs ) ) != 0 )
 550://MAC/Home/Downloads/getstarted-optiga-trust-m/optiga-trust-m-1/externals/mbedtls/library/x509_crt.c ****         return( MBEDTLS_ERR_X509_INVALID_EXTENSIONS + ret );
 551://MAC/Home/Downloads/getstarted-optiga-trust-m/optiga-trust-m-1/externals/mbedtls/library/x509_crt.c **** 
 552://MAC/Home/Downloads/getstarted-optiga-trust-m/optiga-trust-m-1/externals/mbedtls/library/x509_crt.c ****     if( bs.len < 1 )
 553://MAC/Home/Downloads/getstarted-optiga-trust-m/optiga-trust-m-1/externals/mbedtls/library/x509_crt.c ****         return( MBEDTLS_ERR_X509_INVALID_EXTENSIONS +
 554://MAC/Home/Downloads/getstarted-optiga-trust-m/optiga-trust-m-1/externals/mbedtls/library/x509_crt.c ****                 MBEDTLS_ERR_ASN1_INVALID_LENGTH );
 555://MAC/Home/Downloads/getstarted-optiga-trust-m/optiga-trust-m-1/externals/mbedtls/library/x509_crt.c **** 
 556://MAC/Home/Downloads/getstarted-optiga-trust-m/optiga-trust-m-1/externals/mbedtls/library/x509_crt.c ****     /* Get actual bitstring */
 557://MAC/Home/Downloads/getstarted-optiga-trust-m/optiga-trust-m-1/externals/mbedtls/library/x509_crt.c ****     *key_usage = 0;
 558://MAC/Home/Downloads/getstarted-optiga-trust-m/optiga-trust-m-1/externals/mbedtls/library/x509_crt.c ****     for( i = 0; i < bs.len && i < sizeof( unsigned int ); i++ )
 559://MAC/Home/Downloads/getstarted-optiga-trust-m/optiga-trust-m-1/externals/mbedtls/library/x509_crt.c ****     {
 560://MAC/Home/Downloads/getstarted-optiga-trust-m/optiga-trust-m-1/externals/mbedtls/library/x509_crt.c ****         *key_usage |= (unsigned int) bs.p[i] << (8*i);
 561://MAC/Home/Downloads/getstarted-optiga-trust-m/optiga-trust-m-1/externals/mbedtls/library/x509_crt.c ****     }
 562://MAC/Home/Downloads/getstarted-optiga-trust-m/optiga-trust-m-1/externals/mbedtls/library/x509_crt.c **** 
 563://MAC/Home/Downloads/getstarted-optiga-trust-m/optiga-trust-m-1/externals/mbedtls/library/x509_crt.c ****     return( 0 );
 564://MAC/Home/Downloads/getstarted-optiga-trust-m/optiga-trust-m-1/externals/mbedtls/library/x509_crt.c **** }
 565://MAC/Home/Downloads/getstarted-optiga-trust-m/optiga-trust-m-1/externals/mbedtls/library/x509_crt.c **** 
 566://MAC/Home/Downloads/getstarted-optiga-trust-m/optiga-trust-m-1/externals/mbedtls/library/x509_crt.c **** /*
 567://MAC/Home/Downloads/getstarted-optiga-trust-m/optiga-trust-m-1/externals/mbedtls/library/x509_crt.c ****  * ExtKeyUsageSyntax ::= SEQUENCE SIZE (1..MAX) OF KeyPurposeId
 568://MAC/Home/Downloads/getstarted-optiga-trust-m/optiga-trust-m-1/externals/mbedtls/library/x509_crt.c ****  *
 569://MAC/Home/Downloads/getstarted-optiga-trust-m/optiga-trust-m-1/externals/mbedtls/library/x509_crt.c ****  * KeyPurposeId ::= OBJECT IDENTIFIER
 570://MAC/Home/Downloads/getstarted-optiga-trust-m/optiga-trust-m-1/externals/mbedtls/library/x509_crt.c ****  */
 571://MAC/Home/Downloads/getstarted-optiga-trust-m/optiga-trust-m-1/externals/mbedtls/library/x509_crt.c **** static int x509_get_ext_key_usage( unsigned char **p,
 572://MAC/Home/Downloads/getstarted-optiga-trust-m/optiga-trust-m-1/externals/mbedtls/library/x509_crt.c ****                                const unsigned char *end,
 573://MAC/Home/Downloads/getstarted-optiga-trust-m/optiga-trust-m-1/externals/mbedtls/library/x509_crt.c ****                                mbedtls_x509_sequence *ext_key_usage)
 574://MAC/Home/Downloads/getstarted-optiga-trust-m/optiga-trust-m-1/externals/mbedtls/library/x509_crt.c **** {
 575://MAC/Home/Downloads/getstarted-optiga-trust-m/optiga-trust-m-1/externals/mbedtls/library/x509_crt.c ****     int ret;
 576://MAC/Home/Downloads/getstarted-optiga-trust-m/optiga-trust-m-1/externals/mbedtls/library/x509_crt.c **** 
 577://MAC/Home/Downloads/getstarted-optiga-trust-m/optiga-trust-m-1/externals/mbedtls/library/x509_crt.c ****     if( ( ret = mbedtls_asn1_get_sequence_of( p, end, ext_key_usage, MBEDTLS_ASN1_OID ) ) != 0 )
 578://MAC/Home/Downloads/getstarted-optiga-trust-m/optiga-trust-m-1/externals/mbedtls/library/x509_crt.c ****         return( MBEDTLS_ERR_X509_INVALID_EXTENSIONS + ret );
 579://MAC/Home/Downloads/getstarted-optiga-trust-m/optiga-trust-m-1/externals/mbedtls/library/x509_crt.c **** 
 580://MAC/Home/Downloads/getstarted-optiga-trust-m/optiga-trust-m-1/externals/mbedtls/library/x509_crt.c ****     /* Sequence length must be >= 1 */
 581://MAC/Home/Downloads/getstarted-optiga-trust-m/optiga-trust-m-1/externals/mbedtls/library/x509_crt.c ****     if( ext_key_usage->buf.p == NULL )
 582://MAC/Home/Downloads/getstarted-optiga-trust-m/optiga-trust-m-1/externals/mbedtls/library/x509_crt.c ****         return( MBEDTLS_ERR_X509_INVALID_EXTENSIONS +
 583://MAC/Home/Downloads/getstarted-optiga-trust-m/optiga-trust-m-1/externals/mbedtls/library/x509_crt.c ****                 MBEDTLS_ERR_ASN1_INVALID_LENGTH );
 584://MAC/Home/Downloads/getstarted-optiga-trust-m/optiga-trust-m-1/externals/mbedtls/library/x509_crt.c **** 
 585://MAC/Home/Downloads/getstarted-optiga-trust-m/optiga-trust-m-1/externals/mbedtls/library/x509_crt.c ****     return( 0 );
 586://MAC/Home/Downloads/getstarted-optiga-trust-m/optiga-trust-m-1/externals/mbedtls/library/x509_crt.c **** }
 587://MAC/Home/Downloads/getstarted-optiga-trust-m/optiga-trust-m-1/externals/mbedtls/library/x509_crt.c **** 
 588://MAC/Home/Downloads/getstarted-optiga-trust-m/optiga-trust-m-1/externals/mbedtls/library/x509_crt.c **** /*
 589://MAC/Home/Downloads/getstarted-optiga-trust-m/optiga-trust-m-1/externals/mbedtls/library/x509_crt.c ****  * SubjectAltName ::= GeneralNames
 590://MAC/Home/Downloads/getstarted-optiga-trust-m/optiga-trust-m-1/externals/mbedtls/library/x509_crt.c ****  *
 591://MAC/Home/Downloads/getstarted-optiga-trust-m/optiga-trust-m-1/externals/mbedtls/library/x509_crt.c ****  * GeneralNames ::= SEQUENCE SIZE (1..MAX) OF GeneralName
 592://MAC/Home/Downloads/getstarted-optiga-trust-m/optiga-trust-m-1/externals/mbedtls/library/x509_crt.c ****  *
 593://MAC/Home/Downloads/getstarted-optiga-trust-m/optiga-trust-m-1/externals/mbedtls/library/x509_crt.c ****  * GeneralName ::= CHOICE {
 594://MAC/Home/Downloads/getstarted-optiga-trust-m/optiga-trust-m-1/externals/mbedtls/library/x509_crt.c ****  *      otherName                       [0]     OtherName,
 595://MAC/Home/Downloads/getstarted-optiga-trust-m/optiga-trust-m-1/externals/mbedtls/library/x509_crt.c ****  *      rfc822Name                      [1]     IA5String,
 596://MAC/Home/Downloads/getstarted-optiga-trust-m/optiga-trust-m-1/externals/mbedtls/library/x509_crt.c ****  *      dNSName                         [2]     IA5String,
 597://MAC/Home/Downloads/getstarted-optiga-trust-m/optiga-trust-m-1/externals/mbedtls/library/x509_crt.c ****  *      x400Address                     [3]     ORAddress,
 598://MAC/Home/Downloads/getstarted-optiga-trust-m/optiga-trust-m-1/externals/mbedtls/library/x509_crt.c ****  *      directoryName                   [4]     Name,
 599://MAC/Home/Downloads/getstarted-optiga-trust-m/optiga-trust-m-1/externals/mbedtls/library/x509_crt.c ****  *      ediPartyName                    [5]     EDIPartyName,
 600://MAC/Home/Downloads/getstarted-optiga-trust-m/optiga-trust-m-1/externals/mbedtls/library/x509_crt.c ****  *      uniformResourceIdentifier       [6]     IA5String,
 601://MAC/Home/Downloads/getstarted-optiga-trust-m/optiga-trust-m-1/externals/mbedtls/library/x509_crt.c ****  *      iPAddress                       [7]     OCTET STRING,
 602://MAC/Home/Downloads/getstarted-optiga-trust-m/optiga-trust-m-1/externals/mbedtls/library/x509_crt.c ****  *      registeredID                    [8]     OBJECT IDENTIFIER }
 603://MAC/Home/Downloads/getstarted-optiga-trust-m/optiga-trust-m-1/externals/mbedtls/library/x509_crt.c ****  *
 604://MAC/Home/Downloads/getstarted-optiga-trust-m/optiga-trust-m-1/externals/mbedtls/library/x509_crt.c ****  * OtherName ::= SEQUENCE {
 605://MAC/Home/Downloads/getstarted-optiga-trust-m/optiga-trust-m-1/externals/mbedtls/library/x509_crt.c ****  *      type-id    OBJECT IDENTIFIER,
 606://MAC/Home/Downloads/getstarted-optiga-trust-m/optiga-trust-m-1/externals/mbedtls/library/x509_crt.c ****  *      value      [0] EXPLICIT ANY DEFINED BY type-id }
 607://MAC/Home/Downloads/getstarted-optiga-trust-m/optiga-trust-m-1/externals/mbedtls/library/x509_crt.c ****  *
 608://MAC/Home/Downloads/getstarted-optiga-trust-m/optiga-trust-m-1/externals/mbedtls/library/x509_crt.c ****  * EDIPartyName ::= SEQUENCE {
 609://MAC/Home/Downloads/getstarted-optiga-trust-m/optiga-trust-m-1/externals/mbedtls/library/x509_crt.c ****  *      nameAssigner            [0]     DirectoryString OPTIONAL,
 610://MAC/Home/Downloads/getstarted-optiga-trust-m/optiga-trust-m-1/externals/mbedtls/library/x509_crt.c ****  *      partyName               [1]     DirectoryString }
 611://MAC/Home/Downloads/getstarted-optiga-trust-m/optiga-trust-m-1/externals/mbedtls/library/x509_crt.c ****  *
 612://MAC/Home/Downloads/getstarted-optiga-trust-m/optiga-trust-m-1/externals/mbedtls/library/x509_crt.c ****  * NOTE: we only parse and use dNSName at this point.
 613://MAC/Home/Downloads/getstarted-optiga-trust-m/optiga-trust-m-1/externals/mbedtls/library/x509_crt.c ****  */
 614://MAC/Home/Downloads/getstarted-optiga-trust-m/optiga-trust-m-1/externals/mbedtls/library/x509_crt.c **** static int x509_get_subject_alt_name( unsigned char **p,
 615://MAC/Home/Downloads/getstarted-optiga-trust-m/optiga-trust-m-1/externals/mbedtls/library/x509_crt.c ****                                       const unsigned char *end,
 616://MAC/Home/Downloads/getstarted-optiga-trust-m/optiga-trust-m-1/externals/mbedtls/library/x509_crt.c ****                                       mbedtls_x509_sequence *subject_alt_name )
 617://MAC/Home/Downloads/getstarted-optiga-trust-m/optiga-trust-m-1/externals/mbedtls/library/x509_crt.c **** {
 618://MAC/Home/Downloads/getstarted-optiga-trust-m/optiga-trust-m-1/externals/mbedtls/library/x509_crt.c ****     int ret;
 619://MAC/Home/Downloads/getstarted-optiga-trust-m/optiga-trust-m-1/externals/mbedtls/library/x509_crt.c ****     size_t len, tag_len;
 620://MAC/Home/Downloads/getstarted-optiga-trust-m/optiga-trust-m-1/externals/mbedtls/library/x509_crt.c ****     mbedtls_asn1_buf *buf;
 621://MAC/Home/Downloads/getstarted-optiga-trust-m/optiga-trust-m-1/externals/mbedtls/library/x509_crt.c ****     unsigned char tag;
 622://MAC/Home/Downloads/getstarted-optiga-trust-m/optiga-trust-m-1/externals/mbedtls/library/x509_crt.c ****     mbedtls_asn1_sequence *cur = subject_alt_name;
 623://MAC/Home/Downloads/getstarted-optiga-trust-m/optiga-trust-m-1/externals/mbedtls/library/x509_crt.c **** 
 624://MAC/Home/Downloads/getstarted-optiga-trust-m/optiga-trust-m-1/externals/mbedtls/library/x509_crt.c ****     /* Get main sequence tag */
 625://MAC/Home/Downloads/getstarted-optiga-trust-m/optiga-trust-m-1/externals/mbedtls/library/x509_crt.c ****     if( ( ret = mbedtls_asn1_get_tag( p, end, &len,
 626://MAC/Home/Downloads/getstarted-optiga-trust-m/optiga-trust-m-1/externals/mbedtls/library/x509_crt.c ****             MBEDTLS_ASN1_CONSTRUCTED | MBEDTLS_ASN1_SEQUENCE ) ) != 0 )
 627://MAC/Home/Downloads/getstarted-optiga-trust-m/optiga-trust-m-1/externals/mbedtls/library/x509_crt.c ****         return( MBEDTLS_ERR_X509_INVALID_EXTENSIONS + ret );
 628://MAC/Home/Downloads/getstarted-optiga-trust-m/optiga-trust-m-1/externals/mbedtls/library/x509_crt.c **** 
 629://MAC/Home/Downloads/getstarted-optiga-trust-m/optiga-trust-m-1/externals/mbedtls/library/x509_crt.c ****     if( *p + len != end )
 630://MAC/Home/Downloads/getstarted-optiga-trust-m/optiga-trust-m-1/externals/mbedtls/library/x509_crt.c ****         return( MBEDTLS_ERR_X509_INVALID_EXTENSIONS +
 631://MAC/Home/Downloads/getstarted-optiga-trust-m/optiga-trust-m-1/externals/mbedtls/library/x509_crt.c ****                 MBEDTLS_ERR_ASN1_LENGTH_MISMATCH );
 632://MAC/Home/Downloads/getstarted-optiga-trust-m/optiga-trust-m-1/externals/mbedtls/library/x509_crt.c **** 
 633://MAC/Home/Downloads/getstarted-optiga-trust-m/optiga-trust-m-1/externals/mbedtls/library/x509_crt.c ****     while( *p < end )
 634://MAC/Home/Downloads/getstarted-optiga-trust-m/optiga-trust-m-1/externals/mbedtls/library/x509_crt.c ****     {
 635://MAC/Home/Downloads/getstarted-optiga-trust-m/optiga-trust-m-1/externals/mbedtls/library/x509_crt.c ****         if( ( end - *p ) < 1 )
 636://MAC/Home/Downloads/getstarted-optiga-trust-m/optiga-trust-m-1/externals/mbedtls/library/x509_crt.c ****             return( MBEDTLS_ERR_X509_INVALID_EXTENSIONS +
 637://MAC/Home/Downloads/getstarted-optiga-trust-m/optiga-trust-m-1/externals/mbedtls/library/x509_crt.c ****                     MBEDTLS_ERR_ASN1_OUT_OF_DATA );
 638://MAC/Home/Downloads/getstarted-optiga-trust-m/optiga-trust-m-1/externals/mbedtls/library/x509_crt.c **** 
 639://MAC/Home/Downloads/getstarted-optiga-trust-m/optiga-trust-m-1/externals/mbedtls/library/x509_crt.c ****         tag = **p;
 640://MAC/Home/Downloads/getstarted-optiga-trust-m/optiga-trust-m-1/externals/mbedtls/library/x509_crt.c ****         (*p)++;
 641://MAC/Home/Downloads/getstarted-optiga-trust-m/optiga-trust-m-1/externals/mbedtls/library/x509_crt.c ****         if( ( ret = mbedtls_asn1_get_len( p, end, &tag_len ) ) != 0 )
 642://MAC/Home/Downloads/getstarted-optiga-trust-m/optiga-trust-m-1/externals/mbedtls/library/x509_crt.c ****             return( MBEDTLS_ERR_X509_INVALID_EXTENSIONS + ret );
 643://MAC/Home/Downloads/getstarted-optiga-trust-m/optiga-trust-m-1/externals/mbedtls/library/x509_crt.c **** 
 644://MAC/Home/Downloads/getstarted-optiga-trust-m/optiga-trust-m-1/externals/mbedtls/library/x509_crt.c ****         if( ( tag & MBEDTLS_ASN1_TAG_CLASS_MASK ) !=
 645://MAC/Home/Downloads/getstarted-optiga-trust-m/optiga-trust-m-1/externals/mbedtls/library/x509_crt.c ****                 MBEDTLS_ASN1_CONTEXT_SPECIFIC )
 646://MAC/Home/Downloads/getstarted-optiga-trust-m/optiga-trust-m-1/externals/mbedtls/library/x509_crt.c ****         {
 647://MAC/Home/Downloads/getstarted-optiga-trust-m/optiga-trust-m-1/externals/mbedtls/library/x509_crt.c ****             return( MBEDTLS_ERR_X509_INVALID_EXTENSIONS +
 648://MAC/Home/Downloads/getstarted-optiga-trust-m/optiga-trust-m-1/externals/mbedtls/library/x509_crt.c ****                     MBEDTLS_ERR_ASN1_UNEXPECTED_TAG );
 649://MAC/Home/Downloads/getstarted-optiga-trust-m/optiga-trust-m-1/externals/mbedtls/library/x509_crt.c ****         }
 650://MAC/Home/Downloads/getstarted-optiga-trust-m/optiga-trust-m-1/externals/mbedtls/library/x509_crt.c **** 
 651://MAC/Home/Downloads/getstarted-optiga-trust-m/optiga-trust-m-1/externals/mbedtls/library/x509_crt.c ****         /* Skip everything but DNS name */
 652://MAC/Home/Downloads/getstarted-optiga-trust-m/optiga-trust-m-1/externals/mbedtls/library/x509_crt.c ****         if( tag != ( MBEDTLS_ASN1_CONTEXT_SPECIFIC | 2 ) )
 653://MAC/Home/Downloads/getstarted-optiga-trust-m/optiga-trust-m-1/externals/mbedtls/library/x509_crt.c ****         {
 654://MAC/Home/Downloads/getstarted-optiga-trust-m/optiga-trust-m-1/externals/mbedtls/library/x509_crt.c ****             *p += tag_len;
 655://MAC/Home/Downloads/getstarted-optiga-trust-m/optiga-trust-m-1/externals/mbedtls/library/x509_crt.c ****             continue;
 656://MAC/Home/Downloads/getstarted-optiga-trust-m/optiga-trust-m-1/externals/mbedtls/library/x509_crt.c ****         }
 657://MAC/Home/Downloads/getstarted-optiga-trust-m/optiga-trust-m-1/externals/mbedtls/library/x509_crt.c **** 
 658://MAC/Home/Downloads/getstarted-optiga-trust-m/optiga-trust-m-1/externals/mbedtls/library/x509_crt.c ****         /* Allocate and assign next pointer */
 659://MAC/Home/Downloads/getstarted-optiga-trust-m/optiga-trust-m-1/externals/mbedtls/library/x509_crt.c ****         if( cur->buf.p != NULL )
 660://MAC/Home/Downloads/getstarted-optiga-trust-m/optiga-trust-m-1/externals/mbedtls/library/x509_crt.c ****         {
 661://MAC/Home/Downloads/getstarted-optiga-trust-m/optiga-trust-m-1/externals/mbedtls/library/x509_crt.c ****             if( cur->next != NULL )
 662://MAC/Home/Downloads/getstarted-optiga-trust-m/optiga-trust-m-1/externals/mbedtls/library/x509_crt.c ****                 return( MBEDTLS_ERR_X509_INVALID_EXTENSIONS );
 663://MAC/Home/Downloads/getstarted-optiga-trust-m/optiga-trust-m-1/externals/mbedtls/library/x509_crt.c **** 
 664://MAC/Home/Downloads/getstarted-optiga-trust-m/optiga-trust-m-1/externals/mbedtls/library/x509_crt.c ****             cur->next = mbedtls_calloc( 1, sizeof( mbedtls_asn1_sequence ) );
 665://MAC/Home/Downloads/getstarted-optiga-trust-m/optiga-trust-m-1/externals/mbedtls/library/x509_crt.c **** 
 666://MAC/Home/Downloads/getstarted-optiga-trust-m/optiga-trust-m-1/externals/mbedtls/library/x509_crt.c ****             if( cur->next == NULL )
 667://MAC/Home/Downloads/getstarted-optiga-trust-m/optiga-trust-m-1/externals/mbedtls/library/x509_crt.c ****                 return( MBEDTLS_ERR_X509_INVALID_EXTENSIONS +
 668://MAC/Home/Downloads/getstarted-optiga-trust-m/optiga-trust-m-1/externals/mbedtls/library/x509_crt.c ****                         MBEDTLS_ERR_ASN1_ALLOC_FAILED );
 669://MAC/Home/Downloads/getstarted-optiga-trust-m/optiga-trust-m-1/externals/mbedtls/library/x509_crt.c **** 
 670://MAC/Home/Downloads/getstarted-optiga-trust-m/optiga-trust-m-1/externals/mbedtls/library/x509_crt.c ****             cur = cur->next;
 671://MAC/Home/Downloads/getstarted-optiga-trust-m/optiga-trust-m-1/externals/mbedtls/library/x509_crt.c ****         }
 672://MAC/Home/Downloads/getstarted-optiga-trust-m/optiga-trust-m-1/externals/mbedtls/library/x509_crt.c **** 
 673://MAC/Home/Downloads/getstarted-optiga-trust-m/optiga-trust-m-1/externals/mbedtls/library/x509_crt.c ****         buf = &(cur->buf);
 674://MAC/Home/Downloads/getstarted-optiga-trust-m/optiga-trust-m-1/externals/mbedtls/library/x509_crt.c ****         buf->tag = tag;
 675://MAC/Home/Downloads/getstarted-optiga-trust-m/optiga-trust-m-1/externals/mbedtls/library/x509_crt.c ****         buf->p = *p;
 676://MAC/Home/Downloads/getstarted-optiga-trust-m/optiga-trust-m-1/externals/mbedtls/library/x509_crt.c ****         buf->len = tag_len;
 677://MAC/Home/Downloads/getstarted-optiga-trust-m/optiga-trust-m-1/externals/mbedtls/library/x509_crt.c ****         *p += buf->len;
 678://MAC/Home/Downloads/getstarted-optiga-trust-m/optiga-trust-m-1/externals/mbedtls/library/x509_crt.c ****     }
 679://MAC/Home/Downloads/getstarted-optiga-trust-m/optiga-trust-m-1/externals/mbedtls/library/x509_crt.c **** 
 680://MAC/Home/Downloads/getstarted-optiga-trust-m/optiga-trust-m-1/externals/mbedtls/library/x509_crt.c ****     /* Set final sequence entry's next pointer to NULL */
 681://MAC/Home/Downloads/getstarted-optiga-trust-m/optiga-trust-m-1/externals/mbedtls/library/x509_crt.c ****     cur->next = NULL;
 682://MAC/Home/Downloads/getstarted-optiga-trust-m/optiga-trust-m-1/externals/mbedtls/library/x509_crt.c **** 
 683://MAC/Home/Downloads/getstarted-optiga-trust-m/optiga-trust-m-1/externals/mbedtls/library/x509_crt.c ****     if( *p != end )
 684://MAC/Home/Downloads/getstarted-optiga-trust-m/optiga-trust-m-1/externals/mbedtls/library/x509_crt.c ****         return( MBEDTLS_ERR_X509_INVALID_EXTENSIONS +
 685://MAC/Home/Downloads/getstarted-optiga-trust-m/optiga-trust-m-1/externals/mbedtls/library/x509_crt.c ****                 MBEDTLS_ERR_ASN1_LENGTH_MISMATCH );
 686://MAC/Home/Downloads/getstarted-optiga-trust-m/optiga-trust-m-1/externals/mbedtls/library/x509_crt.c **** 
 687://MAC/Home/Downloads/getstarted-optiga-trust-m/optiga-trust-m-1/externals/mbedtls/library/x509_crt.c ****     return( 0 );
 688://MAC/Home/Downloads/getstarted-optiga-trust-m/optiga-trust-m-1/externals/mbedtls/library/x509_crt.c **** }
 689://MAC/Home/Downloads/getstarted-optiga-trust-m/optiga-trust-m-1/externals/mbedtls/library/x509_crt.c **** 
 690://MAC/Home/Downloads/getstarted-optiga-trust-m/optiga-trust-m-1/externals/mbedtls/library/x509_crt.c **** /*
 691://MAC/Home/Downloads/getstarted-optiga-trust-m/optiga-trust-m-1/externals/mbedtls/library/x509_crt.c ****  * X.509 v3 extensions
 692://MAC/Home/Downloads/getstarted-optiga-trust-m/optiga-trust-m-1/externals/mbedtls/library/x509_crt.c ****  *
 693://MAC/Home/Downloads/getstarted-optiga-trust-m/optiga-trust-m-1/externals/mbedtls/library/x509_crt.c ****  */
 694://MAC/Home/Downloads/getstarted-optiga-trust-m/optiga-trust-m-1/externals/mbedtls/library/x509_crt.c **** static int x509_get_crt_ext( unsigned char **p,
 695://MAC/Home/Downloads/getstarted-optiga-trust-m/optiga-trust-m-1/externals/mbedtls/library/x509_crt.c ****                              const unsigned char *end,
 696://MAC/Home/Downloads/getstarted-optiga-trust-m/optiga-trust-m-1/externals/mbedtls/library/x509_crt.c ****                              mbedtls_x509_crt *crt )
 697://MAC/Home/Downloads/getstarted-optiga-trust-m/optiga-trust-m-1/externals/mbedtls/library/x509_crt.c **** {
 698://MAC/Home/Downloads/getstarted-optiga-trust-m/optiga-trust-m-1/externals/mbedtls/library/x509_crt.c ****     int ret;
 699://MAC/Home/Downloads/getstarted-optiga-trust-m/optiga-trust-m-1/externals/mbedtls/library/x509_crt.c ****     size_t len;
 700://MAC/Home/Downloads/getstarted-optiga-trust-m/optiga-trust-m-1/externals/mbedtls/library/x509_crt.c ****     unsigned char *end_ext_data, *end_ext_octet;
 701://MAC/Home/Downloads/getstarted-optiga-trust-m/optiga-trust-m-1/externals/mbedtls/library/x509_crt.c **** 
 702://MAC/Home/Downloads/getstarted-optiga-trust-m/optiga-trust-m-1/externals/mbedtls/library/x509_crt.c ****     if( ( ret = mbedtls_x509_get_ext( p, end, &crt->v3_ext, 3 ) ) != 0 )
 703://MAC/Home/Downloads/getstarted-optiga-trust-m/optiga-trust-m-1/externals/mbedtls/library/x509_crt.c ****     {
 704://MAC/Home/Downloads/getstarted-optiga-trust-m/optiga-trust-m-1/externals/mbedtls/library/x509_crt.c ****         if( ret == MBEDTLS_ERR_ASN1_UNEXPECTED_TAG )
 705://MAC/Home/Downloads/getstarted-optiga-trust-m/optiga-trust-m-1/externals/mbedtls/library/x509_crt.c ****             return( 0 );
 706://MAC/Home/Downloads/getstarted-optiga-trust-m/optiga-trust-m-1/externals/mbedtls/library/x509_crt.c **** 
 707://MAC/Home/Downloads/getstarted-optiga-trust-m/optiga-trust-m-1/externals/mbedtls/library/x509_crt.c ****         return( ret );
 708://MAC/Home/Downloads/getstarted-optiga-trust-m/optiga-trust-m-1/externals/mbedtls/library/x509_crt.c ****     }
 709://MAC/Home/Downloads/getstarted-optiga-trust-m/optiga-trust-m-1/externals/mbedtls/library/x509_crt.c **** 
 710://MAC/Home/Downloads/getstarted-optiga-trust-m/optiga-trust-m-1/externals/mbedtls/library/x509_crt.c ****     while( *p < end )
 711://MAC/Home/Downloads/getstarted-optiga-trust-m/optiga-trust-m-1/externals/mbedtls/library/x509_crt.c ****     {
 712://MAC/Home/Downloads/getstarted-optiga-trust-m/optiga-trust-m-1/externals/mbedtls/library/x509_crt.c ****         /*
 713://MAC/Home/Downloads/getstarted-optiga-trust-m/optiga-trust-m-1/externals/mbedtls/library/x509_crt.c ****          * Extension  ::=  SEQUENCE  {
 714://MAC/Home/Downloads/getstarted-optiga-trust-m/optiga-trust-m-1/externals/mbedtls/library/x509_crt.c ****          *      extnID      OBJECT IDENTIFIER,
 715://MAC/Home/Downloads/getstarted-optiga-trust-m/optiga-trust-m-1/externals/mbedtls/library/x509_crt.c ****          *      critical    BOOLEAN DEFAULT FALSE,
 716://MAC/Home/Downloads/getstarted-optiga-trust-m/optiga-trust-m-1/externals/mbedtls/library/x509_crt.c ****          *      extnValue   OCTET STRING  }
 717://MAC/Home/Downloads/getstarted-optiga-trust-m/optiga-trust-m-1/externals/mbedtls/library/x509_crt.c ****          */
 718://MAC/Home/Downloads/getstarted-optiga-trust-m/optiga-trust-m-1/externals/mbedtls/library/x509_crt.c ****         mbedtls_x509_buf extn_oid = {0, 0, NULL};
 719://MAC/Home/Downloads/getstarted-optiga-trust-m/optiga-trust-m-1/externals/mbedtls/library/x509_crt.c ****         int is_critical = 0; /* DEFAULT FALSE */
 720://MAC/Home/Downloads/getstarted-optiga-trust-m/optiga-trust-m-1/externals/mbedtls/library/x509_crt.c ****         int ext_type = 0;
 721://MAC/Home/Downloads/getstarted-optiga-trust-m/optiga-trust-m-1/externals/mbedtls/library/x509_crt.c **** 
 722://MAC/Home/Downloads/getstarted-optiga-trust-m/optiga-trust-m-1/externals/mbedtls/library/x509_crt.c ****         if( ( ret = mbedtls_asn1_get_tag( p, end, &len,
 723://MAC/Home/Downloads/getstarted-optiga-trust-m/optiga-trust-m-1/externals/mbedtls/library/x509_crt.c ****                 MBEDTLS_ASN1_CONSTRUCTED | MBEDTLS_ASN1_SEQUENCE ) ) != 0 )
 724://MAC/Home/Downloads/getstarted-optiga-trust-m/optiga-trust-m-1/externals/mbedtls/library/x509_crt.c ****             return( MBEDTLS_ERR_X509_INVALID_EXTENSIONS + ret );
 725://MAC/Home/Downloads/getstarted-optiga-trust-m/optiga-trust-m-1/externals/mbedtls/library/x509_crt.c **** 
 726://MAC/Home/Downloads/getstarted-optiga-trust-m/optiga-trust-m-1/externals/mbedtls/library/x509_crt.c ****         end_ext_data = *p + len;
 727://MAC/Home/Downloads/getstarted-optiga-trust-m/optiga-trust-m-1/externals/mbedtls/library/x509_crt.c **** 
 728://MAC/Home/Downloads/getstarted-optiga-trust-m/optiga-trust-m-1/externals/mbedtls/library/x509_crt.c ****         /* Get extension ID */
 729://MAC/Home/Downloads/getstarted-optiga-trust-m/optiga-trust-m-1/externals/mbedtls/library/x509_crt.c ****         if( ( ret = mbedtls_asn1_get_tag( p, end_ext_data, &extn_oid.len,
 730://MAC/Home/Downloads/getstarted-optiga-trust-m/optiga-trust-m-1/externals/mbedtls/library/x509_crt.c ****                                           MBEDTLS_ASN1_OID ) ) != 0 )
 731://MAC/Home/Downloads/getstarted-optiga-trust-m/optiga-trust-m-1/externals/mbedtls/library/x509_crt.c ****             return( MBEDTLS_ERR_X509_INVALID_EXTENSIONS + ret );
 732://MAC/Home/Downloads/getstarted-optiga-trust-m/optiga-trust-m-1/externals/mbedtls/library/x509_crt.c **** 
 733://MAC/Home/Downloads/getstarted-optiga-trust-m/optiga-trust-m-1/externals/mbedtls/library/x509_crt.c ****         extn_oid.tag = MBEDTLS_ASN1_OID;
 734://MAC/Home/Downloads/getstarted-optiga-trust-m/optiga-trust-m-1/externals/mbedtls/library/x509_crt.c ****         extn_oid.p = *p;
 735://MAC/Home/Downloads/getstarted-optiga-trust-m/optiga-trust-m-1/externals/mbedtls/library/x509_crt.c ****         *p += extn_oid.len;
 736://MAC/Home/Downloads/getstarted-optiga-trust-m/optiga-trust-m-1/externals/mbedtls/library/x509_crt.c **** 
 737://MAC/Home/Downloads/getstarted-optiga-trust-m/optiga-trust-m-1/externals/mbedtls/library/x509_crt.c ****         /* Get optional critical */
 738://MAC/Home/Downloads/getstarted-optiga-trust-m/optiga-trust-m-1/externals/mbedtls/library/x509_crt.c ****         if( ( ret = mbedtls_asn1_get_bool( p, end_ext_data, &is_critical ) ) != 0 &&
 739://MAC/Home/Downloads/getstarted-optiga-trust-m/optiga-trust-m-1/externals/mbedtls/library/x509_crt.c ****             ( ret != MBEDTLS_ERR_ASN1_UNEXPECTED_TAG ) )
 740://MAC/Home/Downloads/getstarted-optiga-trust-m/optiga-trust-m-1/externals/mbedtls/library/x509_crt.c ****             return( MBEDTLS_ERR_X509_INVALID_EXTENSIONS + ret );
 741://MAC/Home/Downloads/getstarted-optiga-trust-m/optiga-trust-m-1/externals/mbedtls/library/x509_crt.c **** 
 742://MAC/Home/Downloads/getstarted-optiga-trust-m/optiga-trust-m-1/externals/mbedtls/library/x509_crt.c ****         /* Data should be octet string type */
 743://MAC/Home/Downloads/getstarted-optiga-trust-m/optiga-trust-m-1/externals/mbedtls/library/x509_crt.c ****         if( ( ret = mbedtls_asn1_get_tag( p, end_ext_data, &len,
 744://MAC/Home/Downloads/getstarted-optiga-trust-m/optiga-trust-m-1/externals/mbedtls/library/x509_crt.c ****                 MBEDTLS_ASN1_OCTET_STRING ) ) != 0 )
 745://MAC/Home/Downloads/getstarted-optiga-trust-m/optiga-trust-m-1/externals/mbedtls/library/x509_crt.c ****             return( MBEDTLS_ERR_X509_INVALID_EXTENSIONS + ret );
 746://MAC/Home/Downloads/getstarted-optiga-trust-m/optiga-trust-m-1/externals/mbedtls/library/x509_crt.c **** 
 747://MAC/Home/Downloads/getstarted-optiga-trust-m/optiga-trust-m-1/externals/mbedtls/library/x509_crt.c ****         end_ext_octet = *p + len;
 748://MAC/Home/Downloads/getstarted-optiga-trust-m/optiga-trust-m-1/externals/mbedtls/library/x509_crt.c **** 
 749://MAC/Home/Downloads/getstarted-optiga-trust-m/optiga-trust-m-1/externals/mbedtls/library/x509_crt.c ****         if( end_ext_octet != end_ext_data )
 750://MAC/Home/Downloads/getstarted-optiga-trust-m/optiga-trust-m-1/externals/mbedtls/library/x509_crt.c ****             return( MBEDTLS_ERR_X509_INVALID_EXTENSIONS +
 751://MAC/Home/Downloads/getstarted-optiga-trust-m/optiga-trust-m-1/externals/mbedtls/library/x509_crt.c ****                     MBEDTLS_ERR_ASN1_LENGTH_MISMATCH );
 752://MAC/Home/Downloads/getstarted-optiga-trust-m/optiga-trust-m-1/externals/mbedtls/library/x509_crt.c **** 
 753://MAC/Home/Downloads/getstarted-optiga-trust-m/optiga-trust-m-1/externals/mbedtls/library/x509_crt.c ****         /*
 754://MAC/Home/Downloads/getstarted-optiga-trust-m/optiga-trust-m-1/externals/mbedtls/library/x509_crt.c ****          * Detect supported extensions
 755://MAC/Home/Downloads/getstarted-optiga-trust-m/optiga-trust-m-1/externals/mbedtls/library/x509_crt.c ****          */
 756://MAC/Home/Downloads/getstarted-optiga-trust-m/optiga-trust-m-1/externals/mbedtls/library/x509_crt.c ****         ret = mbedtls_oid_get_x509_ext_type( &extn_oid, &ext_type );
 757://MAC/Home/Downloads/getstarted-optiga-trust-m/optiga-trust-m-1/externals/mbedtls/library/x509_crt.c **** 
 758://MAC/Home/Downloads/getstarted-optiga-trust-m/optiga-trust-m-1/externals/mbedtls/library/x509_crt.c ****         if( ret != 0 )
 759://MAC/Home/Downloads/getstarted-optiga-trust-m/optiga-trust-m-1/externals/mbedtls/library/x509_crt.c ****         {
 760://MAC/Home/Downloads/getstarted-optiga-trust-m/optiga-trust-m-1/externals/mbedtls/library/x509_crt.c ****             /* No parser found, skip extension */
 761://MAC/Home/Downloads/getstarted-optiga-trust-m/optiga-trust-m-1/externals/mbedtls/library/x509_crt.c ****             *p = end_ext_octet;
 762://MAC/Home/Downloads/getstarted-optiga-trust-m/optiga-trust-m-1/externals/mbedtls/library/x509_crt.c **** 
 763://MAC/Home/Downloads/getstarted-optiga-trust-m/optiga-trust-m-1/externals/mbedtls/library/x509_crt.c **** #if !defined(MBEDTLS_X509_ALLOW_UNSUPPORTED_CRITICAL_EXTENSION)
 764://MAC/Home/Downloads/getstarted-optiga-trust-m/optiga-trust-m-1/externals/mbedtls/library/x509_crt.c ****             if( is_critical )
 765://MAC/Home/Downloads/getstarted-optiga-trust-m/optiga-trust-m-1/externals/mbedtls/library/x509_crt.c ****             {
 766://MAC/Home/Downloads/getstarted-optiga-trust-m/optiga-trust-m-1/externals/mbedtls/library/x509_crt.c ****                 /* Data is marked as critical: fail */
 767://MAC/Home/Downloads/getstarted-optiga-trust-m/optiga-trust-m-1/externals/mbedtls/library/x509_crt.c ****                 return( MBEDTLS_ERR_X509_INVALID_EXTENSIONS +
 768://MAC/Home/Downloads/getstarted-optiga-trust-m/optiga-trust-m-1/externals/mbedtls/library/x509_crt.c ****                         MBEDTLS_ERR_ASN1_UNEXPECTED_TAG );
 769://MAC/Home/Downloads/getstarted-optiga-trust-m/optiga-trust-m-1/externals/mbedtls/library/x509_crt.c ****             }
 770://MAC/Home/Downloads/getstarted-optiga-trust-m/optiga-trust-m-1/externals/mbedtls/library/x509_crt.c **** #endif
 771://MAC/Home/Downloads/getstarted-optiga-trust-m/optiga-trust-m-1/externals/mbedtls/library/x509_crt.c ****             continue;
 772://MAC/Home/Downloads/getstarted-optiga-trust-m/optiga-trust-m-1/externals/mbedtls/library/x509_crt.c ****         }
 773://MAC/Home/Downloads/getstarted-optiga-trust-m/optiga-trust-m-1/externals/mbedtls/library/x509_crt.c **** 
 774://MAC/Home/Downloads/getstarted-optiga-trust-m/optiga-trust-m-1/externals/mbedtls/library/x509_crt.c ****         /* Forbid repeated extensions */
 775://MAC/Home/Downloads/getstarted-optiga-trust-m/optiga-trust-m-1/externals/mbedtls/library/x509_crt.c ****         if( ( crt->ext_types & ext_type ) != 0 )
 776://MAC/Home/Downloads/getstarted-optiga-trust-m/optiga-trust-m-1/externals/mbedtls/library/x509_crt.c ****             return( MBEDTLS_ERR_X509_INVALID_EXTENSIONS );
 777://MAC/Home/Downloads/getstarted-optiga-trust-m/optiga-trust-m-1/externals/mbedtls/library/x509_crt.c **** 
 778://MAC/Home/Downloads/getstarted-optiga-trust-m/optiga-trust-m-1/externals/mbedtls/library/x509_crt.c ****         crt->ext_types |= ext_type;
 779://MAC/Home/Downloads/getstarted-optiga-trust-m/optiga-trust-m-1/externals/mbedtls/library/x509_crt.c **** 
 780://MAC/Home/Downloads/getstarted-optiga-trust-m/optiga-trust-m-1/externals/mbedtls/library/x509_crt.c ****         switch( ext_type )
 781://MAC/Home/Downloads/getstarted-optiga-trust-m/optiga-trust-m-1/externals/mbedtls/library/x509_crt.c ****         {
 782://MAC/Home/Downloads/getstarted-optiga-trust-m/optiga-trust-m-1/externals/mbedtls/library/x509_crt.c ****         case MBEDTLS_X509_EXT_BASIC_CONSTRAINTS:
 783://MAC/Home/Downloads/getstarted-optiga-trust-m/optiga-trust-m-1/externals/mbedtls/library/x509_crt.c ****             /* Parse basic constraints */
 784://MAC/Home/Downloads/getstarted-optiga-trust-m/optiga-trust-m-1/externals/mbedtls/library/x509_crt.c ****             if( ( ret = x509_get_basic_constraints( p, end_ext_octet,
 785://MAC/Home/Downloads/getstarted-optiga-trust-m/optiga-trust-m-1/externals/mbedtls/library/x509_crt.c ****                     &crt->ca_istrue, &crt->max_pathlen ) ) != 0 )
 786://MAC/Home/Downloads/getstarted-optiga-trust-m/optiga-trust-m-1/externals/mbedtls/library/x509_crt.c ****                 return( ret );
 787://MAC/Home/Downloads/getstarted-optiga-trust-m/optiga-trust-m-1/externals/mbedtls/library/x509_crt.c ****             break;
 788://MAC/Home/Downloads/getstarted-optiga-trust-m/optiga-trust-m-1/externals/mbedtls/library/x509_crt.c **** 
 789://MAC/Home/Downloads/getstarted-optiga-trust-m/optiga-trust-m-1/externals/mbedtls/library/x509_crt.c ****         case MBEDTLS_X509_EXT_KEY_USAGE:
 790://MAC/Home/Downloads/getstarted-optiga-trust-m/optiga-trust-m-1/externals/mbedtls/library/x509_crt.c ****             /* Parse key usage */
 791://MAC/Home/Downloads/getstarted-optiga-trust-m/optiga-trust-m-1/externals/mbedtls/library/x509_crt.c ****             if( ( ret = x509_get_key_usage( p, end_ext_octet,
 792://MAC/Home/Downloads/getstarted-optiga-trust-m/optiga-trust-m-1/externals/mbedtls/library/x509_crt.c ****                     &crt->key_usage ) ) != 0 )
 793://MAC/Home/Downloads/getstarted-optiga-trust-m/optiga-trust-m-1/externals/mbedtls/library/x509_crt.c ****                 return( ret );
 794://MAC/Home/Downloads/getstarted-optiga-trust-m/optiga-trust-m-1/externals/mbedtls/library/x509_crt.c ****             break;
 795://MAC/Home/Downloads/getstarted-optiga-trust-m/optiga-trust-m-1/externals/mbedtls/library/x509_crt.c **** 
 796://MAC/Home/Downloads/getstarted-optiga-trust-m/optiga-trust-m-1/externals/mbedtls/library/x509_crt.c ****         case MBEDTLS_X509_EXT_EXTENDED_KEY_USAGE:
 797://MAC/Home/Downloads/getstarted-optiga-trust-m/optiga-trust-m-1/externals/mbedtls/library/x509_crt.c ****             /* Parse extended key usage */
 798://MAC/Home/Downloads/getstarted-optiga-trust-m/optiga-trust-m-1/externals/mbedtls/library/x509_crt.c ****             if( ( ret = x509_get_ext_key_usage( p, end_ext_octet,
 799://MAC/Home/Downloads/getstarted-optiga-trust-m/optiga-trust-m-1/externals/mbedtls/library/x509_crt.c ****                     &crt->ext_key_usage ) ) != 0 )
 800://MAC/Home/Downloads/getstarted-optiga-trust-m/optiga-trust-m-1/externals/mbedtls/library/x509_crt.c ****                 return( ret );
 801://MAC/Home/Downloads/getstarted-optiga-trust-m/optiga-trust-m-1/externals/mbedtls/library/x509_crt.c ****             break;
 802://MAC/Home/Downloads/getstarted-optiga-trust-m/optiga-trust-m-1/externals/mbedtls/library/x509_crt.c **** 
 803://MAC/Home/Downloads/getstarted-optiga-trust-m/optiga-trust-m-1/externals/mbedtls/library/x509_crt.c ****         case MBEDTLS_X509_EXT_SUBJECT_ALT_NAME:
 804://MAC/Home/Downloads/getstarted-optiga-trust-m/optiga-trust-m-1/externals/mbedtls/library/x509_crt.c ****             /* Parse subject alt name */
 805://MAC/Home/Downloads/getstarted-optiga-trust-m/optiga-trust-m-1/externals/mbedtls/library/x509_crt.c ****             if( ( ret = x509_get_subject_alt_name( p, end_ext_octet,
 806://MAC/Home/Downloads/getstarted-optiga-trust-m/optiga-trust-m-1/externals/mbedtls/library/x509_crt.c ****                     &crt->subject_alt_names ) ) != 0 )
 807://MAC/Home/Downloads/getstarted-optiga-trust-m/optiga-trust-m-1/externals/mbedtls/library/x509_crt.c ****                 return( ret );
 808://MAC/Home/Downloads/getstarted-optiga-trust-m/optiga-trust-m-1/externals/mbedtls/library/x509_crt.c ****             break;
 809://MAC/Home/Downloads/getstarted-optiga-trust-m/optiga-trust-m-1/externals/mbedtls/library/x509_crt.c **** 
 810://MAC/Home/Downloads/getstarted-optiga-trust-m/optiga-trust-m-1/externals/mbedtls/library/x509_crt.c ****         case MBEDTLS_X509_EXT_NS_CERT_TYPE:
 811://MAC/Home/Downloads/getstarted-optiga-trust-m/optiga-trust-m-1/externals/mbedtls/library/x509_crt.c ****             /* Parse netscape certificate type */
 812://MAC/Home/Downloads/getstarted-optiga-trust-m/optiga-trust-m-1/externals/mbedtls/library/x509_crt.c ****             if( ( ret = x509_get_ns_cert_type( p, end_ext_octet,
 813://MAC/Home/Downloads/getstarted-optiga-trust-m/optiga-trust-m-1/externals/mbedtls/library/x509_crt.c ****                     &crt->ns_cert_type ) ) != 0 )
 814://MAC/Home/Downloads/getstarted-optiga-trust-m/optiga-trust-m-1/externals/mbedtls/library/x509_crt.c ****                 return( ret );
 815://MAC/Home/Downloads/getstarted-optiga-trust-m/optiga-trust-m-1/externals/mbedtls/library/x509_crt.c ****             break;
 816://MAC/Home/Downloads/getstarted-optiga-trust-m/optiga-trust-m-1/externals/mbedtls/library/x509_crt.c **** 
 817://MAC/Home/Downloads/getstarted-optiga-trust-m/optiga-trust-m-1/externals/mbedtls/library/x509_crt.c ****         default:
 818://MAC/Home/Downloads/getstarted-optiga-trust-m/optiga-trust-m-1/externals/mbedtls/library/x509_crt.c ****             return( MBEDTLS_ERR_X509_FEATURE_UNAVAILABLE );
 819://MAC/Home/Downloads/getstarted-optiga-trust-m/optiga-trust-m-1/externals/mbedtls/library/x509_crt.c ****         }
 820://MAC/Home/Downloads/getstarted-optiga-trust-m/optiga-trust-m-1/externals/mbedtls/library/x509_crt.c ****     }
 821://MAC/Home/Downloads/getstarted-optiga-trust-m/optiga-trust-m-1/externals/mbedtls/library/x509_crt.c **** 
 822://MAC/Home/Downloads/getstarted-optiga-trust-m/optiga-trust-m-1/externals/mbedtls/library/x509_crt.c ****     if( *p != end )
 823://MAC/Home/Downloads/getstarted-optiga-trust-m/optiga-trust-m-1/externals/mbedtls/library/x509_crt.c ****         return( MBEDTLS_ERR_X509_INVALID_EXTENSIONS +
 824://MAC/Home/Downloads/getstarted-optiga-trust-m/optiga-trust-m-1/externals/mbedtls/library/x509_crt.c ****                 MBEDTLS_ERR_ASN1_LENGTH_MISMATCH );
 825://MAC/Home/Downloads/getstarted-optiga-trust-m/optiga-trust-m-1/externals/mbedtls/library/x509_crt.c **** 
 826://MAC/Home/Downloads/getstarted-optiga-trust-m/optiga-trust-m-1/externals/mbedtls/library/x509_crt.c ****     return( 0 );
 827://MAC/Home/Downloads/getstarted-optiga-trust-m/optiga-trust-m-1/externals/mbedtls/library/x509_crt.c **** }
 828://MAC/Home/Downloads/getstarted-optiga-trust-m/optiga-trust-m-1/externals/mbedtls/library/x509_crt.c **** 
 829://MAC/Home/Downloads/getstarted-optiga-trust-m/optiga-trust-m-1/externals/mbedtls/library/x509_crt.c **** /*
 830://MAC/Home/Downloads/getstarted-optiga-trust-m/optiga-trust-m-1/externals/mbedtls/library/x509_crt.c ****  * Parse and fill a single X.509 certificate in DER format
 831://MAC/Home/Downloads/getstarted-optiga-trust-m/optiga-trust-m-1/externals/mbedtls/library/x509_crt.c ****  */
 832://MAC/Home/Downloads/getstarted-optiga-trust-m/optiga-trust-m-1/externals/mbedtls/library/x509_crt.c **** static int x509_crt_parse_der_core( mbedtls_x509_crt *crt, const unsigned char *buf,
 833://MAC/Home/Downloads/getstarted-optiga-trust-m/optiga-trust-m-1/externals/mbedtls/library/x509_crt.c ****                                     size_t buflen )
 834://MAC/Home/Downloads/getstarted-optiga-trust-m/optiga-trust-m-1/externals/mbedtls/library/x509_crt.c **** {
 835://MAC/Home/Downloads/getstarted-optiga-trust-m/optiga-trust-m-1/externals/mbedtls/library/x509_crt.c ****     int ret;
 836://MAC/Home/Downloads/getstarted-optiga-trust-m/optiga-trust-m-1/externals/mbedtls/library/x509_crt.c ****     size_t len;
 837://MAC/Home/Downloads/getstarted-optiga-trust-m/optiga-trust-m-1/externals/mbedtls/library/x509_crt.c ****     unsigned char *p, *end, *crt_end;
 838://MAC/Home/Downloads/getstarted-optiga-trust-m/optiga-trust-m-1/externals/mbedtls/library/x509_crt.c ****     mbedtls_x509_buf sig_params1, sig_params2, sig_oid2;
 839://MAC/Home/Downloads/getstarted-optiga-trust-m/optiga-trust-m-1/externals/mbedtls/library/x509_crt.c **** 
 840://MAC/Home/Downloads/getstarted-optiga-trust-m/optiga-trust-m-1/externals/mbedtls/library/x509_crt.c ****     memset( &sig_params1, 0, sizeof( mbedtls_x509_buf ) );
 841://MAC/Home/Downloads/getstarted-optiga-trust-m/optiga-trust-m-1/externals/mbedtls/library/x509_crt.c ****     memset( &sig_params2, 0, sizeof( mbedtls_x509_buf ) );
 842://MAC/Home/Downloads/getstarted-optiga-trust-m/optiga-trust-m-1/externals/mbedtls/library/x509_crt.c ****     memset( &sig_oid2, 0, sizeof( mbedtls_x509_buf ) );
 843://MAC/Home/Downloads/getstarted-optiga-trust-m/optiga-trust-m-1/externals/mbedtls/library/x509_crt.c **** 
 844://MAC/Home/Downloads/getstarted-optiga-trust-m/optiga-trust-m-1/externals/mbedtls/library/x509_crt.c ****     /*
 845://MAC/Home/Downloads/getstarted-optiga-trust-m/optiga-trust-m-1/externals/mbedtls/library/x509_crt.c ****      * Check for valid input
 846://MAC/Home/Downloads/getstarted-optiga-trust-m/optiga-trust-m-1/externals/mbedtls/library/x509_crt.c ****      */
 847://MAC/Home/Downloads/getstarted-optiga-trust-m/optiga-trust-m-1/externals/mbedtls/library/x509_crt.c ****     if( crt == NULL || buf == NULL )
 848://MAC/Home/Downloads/getstarted-optiga-trust-m/optiga-trust-m-1/externals/mbedtls/library/x509_crt.c ****         return( MBEDTLS_ERR_X509_BAD_INPUT_DATA );
 849://MAC/Home/Downloads/getstarted-optiga-trust-m/optiga-trust-m-1/externals/mbedtls/library/x509_crt.c **** 
 850://MAC/Home/Downloads/getstarted-optiga-trust-m/optiga-trust-m-1/externals/mbedtls/library/x509_crt.c ****     // Use the original buffer until we figure out actual length
 851://MAC/Home/Downloads/getstarted-optiga-trust-m/optiga-trust-m-1/externals/mbedtls/library/x509_crt.c ****     p = (unsigned char*) buf;
 852://MAC/Home/Downloads/getstarted-optiga-trust-m/optiga-trust-m-1/externals/mbedtls/library/x509_crt.c ****     len = buflen;
 853://MAC/Home/Downloads/getstarted-optiga-trust-m/optiga-trust-m-1/externals/mbedtls/library/x509_crt.c ****     end = p + len;
 854://MAC/Home/Downloads/getstarted-optiga-trust-m/optiga-trust-m-1/externals/mbedtls/library/x509_crt.c **** 
 855://MAC/Home/Downloads/getstarted-optiga-trust-m/optiga-trust-m-1/externals/mbedtls/library/x509_crt.c ****     /*
 856://MAC/Home/Downloads/getstarted-optiga-trust-m/optiga-trust-m-1/externals/mbedtls/library/x509_crt.c ****      * Certificate  ::=  SEQUENCE  {
 857://MAC/Home/Downloads/getstarted-optiga-trust-m/optiga-trust-m-1/externals/mbedtls/library/x509_crt.c ****      *      tbsCertificate       TBSCertificate,
 858://MAC/Home/Downloads/getstarted-optiga-trust-m/optiga-trust-m-1/externals/mbedtls/library/x509_crt.c ****      *      signatureAlgorithm   AlgorithmIdentifier,
 859://MAC/Home/Downloads/getstarted-optiga-trust-m/optiga-trust-m-1/externals/mbedtls/library/x509_crt.c ****      *      signatureValue       BIT STRING  }
 860://MAC/Home/Downloads/getstarted-optiga-trust-m/optiga-trust-m-1/externals/mbedtls/library/x509_crt.c ****      */
 861://MAC/Home/Downloads/getstarted-optiga-trust-m/optiga-trust-m-1/externals/mbedtls/library/x509_crt.c ****     if( ( ret = mbedtls_asn1_get_tag( &p, end, &len,
 862://MAC/Home/Downloads/getstarted-optiga-trust-m/optiga-trust-m-1/externals/mbedtls/library/x509_crt.c ****             MBEDTLS_ASN1_CONSTRUCTED | MBEDTLS_ASN1_SEQUENCE ) ) != 0 )
 863://MAC/Home/Downloads/getstarted-optiga-trust-m/optiga-trust-m-1/externals/mbedtls/library/x509_crt.c ****     {
 864://MAC/Home/Downloads/getstarted-optiga-trust-m/optiga-trust-m-1/externals/mbedtls/library/x509_crt.c ****         mbedtls_x509_crt_free( crt );
 865://MAC/Home/Downloads/getstarted-optiga-trust-m/optiga-trust-m-1/externals/mbedtls/library/x509_crt.c ****         return( MBEDTLS_ERR_X509_INVALID_FORMAT );
 866://MAC/Home/Downloads/getstarted-optiga-trust-m/optiga-trust-m-1/externals/mbedtls/library/x509_crt.c ****     }
 867://MAC/Home/Downloads/getstarted-optiga-trust-m/optiga-trust-m-1/externals/mbedtls/library/x509_crt.c **** 
 868://MAC/Home/Downloads/getstarted-optiga-trust-m/optiga-trust-m-1/externals/mbedtls/library/x509_crt.c ****     if( len > (size_t) ( end - p ) )
 869://MAC/Home/Downloads/getstarted-optiga-trust-m/optiga-trust-m-1/externals/mbedtls/library/x509_crt.c ****     {
 870://MAC/Home/Downloads/getstarted-optiga-trust-m/optiga-trust-m-1/externals/mbedtls/library/x509_crt.c ****         mbedtls_x509_crt_free( crt );
 871://MAC/Home/Downloads/getstarted-optiga-trust-m/optiga-trust-m-1/externals/mbedtls/library/x509_crt.c ****         return( MBEDTLS_ERR_X509_INVALID_FORMAT +
 872://MAC/Home/Downloads/getstarted-optiga-trust-m/optiga-trust-m-1/externals/mbedtls/library/x509_crt.c ****                 MBEDTLS_ERR_ASN1_LENGTH_MISMATCH );
 873://MAC/Home/Downloads/getstarted-optiga-trust-m/optiga-trust-m-1/externals/mbedtls/library/x509_crt.c ****     }
 874://MAC/Home/Downloads/getstarted-optiga-trust-m/optiga-trust-m-1/externals/mbedtls/library/x509_crt.c ****     crt_end = p + len;
 875://MAC/Home/Downloads/getstarted-optiga-trust-m/optiga-trust-m-1/externals/mbedtls/library/x509_crt.c **** 
 876://MAC/Home/Downloads/getstarted-optiga-trust-m/optiga-trust-m-1/externals/mbedtls/library/x509_crt.c ****     // Create and populate a new buffer for the raw field
 877://MAC/Home/Downloads/getstarted-optiga-trust-m/optiga-trust-m-1/externals/mbedtls/library/x509_crt.c ****     crt->raw.len = crt_end - buf;
 878://MAC/Home/Downloads/getstarted-optiga-trust-m/optiga-trust-m-1/externals/mbedtls/library/x509_crt.c ****     crt->raw.p = p = mbedtls_calloc( 1, crt->raw.len );
 879://MAC/Home/Downloads/getstarted-optiga-trust-m/optiga-trust-m-1/externals/mbedtls/library/x509_crt.c ****     if( p == NULL )
 880://MAC/Home/Downloads/getstarted-optiga-trust-m/optiga-trust-m-1/externals/mbedtls/library/x509_crt.c ****         return( MBEDTLS_ERR_X509_ALLOC_FAILED );
 881://MAC/Home/Downloads/getstarted-optiga-trust-m/optiga-trust-m-1/externals/mbedtls/library/x509_crt.c **** 
 882://MAC/Home/Downloads/getstarted-optiga-trust-m/optiga-trust-m-1/externals/mbedtls/library/x509_crt.c ****     memcpy( p, buf, crt->raw.len );
 883://MAC/Home/Downloads/getstarted-optiga-trust-m/optiga-trust-m-1/externals/mbedtls/library/x509_crt.c **** 
 884://MAC/Home/Downloads/getstarted-optiga-trust-m/optiga-trust-m-1/externals/mbedtls/library/x509_crt.c ****     // Direct pointers to the new buffer
 885://MAC/Home/Downloads/getstarted-optiga-trust-m/optiga-trust-m-1/externals/mbedtls/library/x509_crt.c ****     p += crt->raw.len - len;
 886://MAC/Home/Downloads/getstarted-optiga-trust-m/optiga-trust-m-1/externals/mbedtls/library/x509_crt.c ****     end = crt_end = p + len;
 887://MAC/Home/Downloads/getstarted-optiga-trust-m/optiga-trust-m-1/externals/mbedtls/library/x509_crt.c **** 
 888://MAC/Home/Downloads/getstarted-optiga-trust-m/optiga-trust-m-1/externals/mbedtls/library/x509_crt.c ****     /*
 889://MAC/Home/Downloads/getstarted-optiga-trust-m/optiga-trust-m-1/externals/mbedtls/library/x509_crt.c ****      * TBSCertificate  ::=  SEQUENCE  {
 890://MAC/Home/Downloads/getstarted-optiga-trust-m/optiga-trust-m-1/externals/mbedtls/library/x509_crt.c ****      */
 891://MAC/Home/Downloads/getstarted-optiga-trust-m/optiga-trust-m-1/externals/mbedtls/library/x509_crt.c ****     crt->tbs.p = p;
 892://MAC/Home/Downloads/getstarted-optiga-trust-m/optiga-trust-m-1/externals/mbedtls/library/x509_crt.c **** 
 893://MAC/Home/Downloads/getstarted-optiga-trust-m/optiga-trust-m-1/externals/mbedtls/library/x509_crt.c ****     if( ( ret = mbedtls_asn1_get_tag( &p, end, &len,
 894://MAC/Home/Downloads/getstarted-optiga-trust-m/optiga-trust-m-1/externals/mbedtls/library/x509_crt.c ****             MBEDTLS_ASN1_CONSTRUCTED | MBEDTLS_ASN1_SEQUENCE ) ) != 0 )
 895://MAC/Home/Downloads/getstarted-optiga-trust-m/optiga-trust-m-1/externals/mbedtls/library/x509_crt.c ****     {
 896://MAC/Home/Downloads/getstarted-optiga-trust-m/optiga-trust-m-1/externals/mbedtls/library/x509_crt.c ****         mbedtls_x509_crt_free( crt );
 897://MAC/Home/Downloads/getstarted-optiga-trust-m/optiga-trust-m-1/externals/mbedtls/library/x509_crt.c ****         return( MBEDTLS_ERR_X509_INVALID_FORMAT + ret );
 898://MAC/Home/Downloads/getstarted-optiga-trust-m/optiga-trust-m-1/externals/mbedtls/library/x509_crt.c ****     }
 899://MAC/Home/Downloads/getstarted-optiga-trust-m/optiga-trust-m-1/externals/mbedtls/library/x509_crt.c **** 
 900://MAC/Home/Downloads/getstarted-optiga-trust-m/optiga-trust-m-1/externals/mbedtls/library/x509_crt.c ****     end = p + len;
 901://MAC/Home/Downloads/getstarted-optiga-trust-m/optiga-trust-m-1/externals/mbedtls/library/x509_crt.c ****     crt->tbs.len = end - crt->tbs.p;
 902://MAC/Home/Downloads/getstarted-optiga-trust-m/optiga-trust-m-1/externals/mbedtls/library/x509_crt.c **** 
 903://MAC/Home/Downloads/getstarted-optiga-trust-m/optiga-trust-m-1/externals/mbedtls/library/x509_crt.c ****     /*
 904://MAC/Home/Downloads/getstarted-optiga-trust-m/optiga-trust-m-1/externals/mbedtls/library/x509_crt.c ****      * Version  ::=  INTEGER  {  v1(0), v2(1), v3(2)  }
 905://MAC/Home/Downloads/getstarted-optiga-trust-m/optiga-trust-m-1/externals/mbedtls/library/x509_crt.c ****      *
 906://MAC/Home/Downloads/getstarted-optiga-trust-m/optiga-trust-m-1/externals/mbedtls/library/x509_crt.c ****      * CertificateSerialNumber  ::=  INTEGER
 907://MAC/Home/Downloads/getstarted-optiga-trust-m/optiga-trust-m-1/externals/mbedtls/library/x509_crt.c ****      *
 908://MAC/Home/Downloads/getstarted-optiga-trust-m/optiga-trust-m-1/externals/mbedtls/library/x509_crt.c ****      * signature            AlgorithmIdentifier
 909://MAC/Home/Downloads/getstarted-optiga-trust-m/optiga-trust-m-1/externals/mbedtls/library/x509_crt.c ****      */
 910://MAC/Home/Downloads/getstarted-optiga-trust-m/optiga-trust-m-1/externals/mbedtls/library/x509_crt.c ****     if( ( ret = x509_get_version(  &p, end, &crt->version  ) ) != 0 ||
 911://MAC/Home/Downloads/getstarted-optiga-trust-m/optiga-trust-m-1/externals/mbedtls/library/x509_crt.c ****         ( ret = mbedtls_x509_get_serial(   &p, end, &crt->serial   ) ) != 0 ||
 912://MAC/Home/Downloads/getstarted-optiga-trust-m/optiga-trust-m-1/externals/mbedtls/library/x509_crt.c ****         ( ret = mbedtls_x509_get_alg(      &p, end, &crt->sig_oid,
 913://MAC/Home/Downloads/getstarted-optiga-trust-m/optiga-trust-m-1/externals/mbedtls/library/x509_crt.c ****                                             &sig_params1 ) ) != 0 )
 914://MAC/Home/Downloads/getstarted-optiga-trust-m/optiga-trust-m-1/externals/mbedtls/library/x509_crt.c ****     {
 915://MAC/Home/Downloads/getstarted-optiga-trust-m/optiga-trust-m-1/externals/mbedtls/library/x509_crt.c ****         mbedtls_x509_crt_free( crt );
 916://MAC/Home/Downloads/getstarted-optiga-trust-m/optiga-trust-m-1/externals/mbedtls/library/x509_crt.c ****         return( ret );
 917://MAC/Home/Downloads/getstarted-optiga-trust-m/optiga-trust-m-1/externals/mbedtls/library/x509_crt.c ****     }
 918://MAC/Home/Downloads/getstarted-optiga-trust-m/optiga-trust-m-1/externals/mbedtls/library/x509_crt.c **** 
 919://MAC/Home/Downloads/getstarted-optiga-trust-m/optiga-trust-m-1/externals/mbedtls/library/x509_crt.c ****     if( crt->version < 0 || crt->version > 2 )
 920://MAC/Home/Downloads/getstarted-optiga-trust-m/optiga-trust-m-1/externals/mbedtls/library/x509_crt.c ****     {
 921://MAC/Home/Downloads/getstarted-optiga-trust-m/optiga-trust-m-1/externals/mbedtls/library/x509_crt.c ****         mbedtls_x509_crt_free( crt );
 922://MAC/Home/Downloads/getstarted-optiga-trust-m/optiga-trust-m-1/externals/mbedtls/library/x509_crt.c ****         return( MBEDTLS_ERR_X509_UNKNOWN_VERSION );
 923://MAC/Home/Downloads/getstarted-optiga-trust-m/optiga-trust-m-1/externals/mbedtls/library/x509_crt.c ****     }
 924://MAC/Home/Downloads/getstarted-optiga-trust-m/optiga-trust-m-1/externals/mbedtls/library/x509_crt.c **** 
 925://MAC/Home/Downloads/getstarted-optiga-trust-m/optiga-trust-m-1/externals/mbedtls/library/x509_crt.c ****     crt->version++;
 926://MAC/Home/Downloads/getstarted-optiga-trust-m/optiga-trust-m-1/externals/mbedtls/library/x509_crt.c **** 
 927://MAC/Home/Downloads/getstarted-optiga-trust-m/optiga-trust-m-1/externals/mbedtls/library/x509_crt.c ****     if( ( ret = mbedtls_x509_get_sig_alg( &crt->sig_oid, &sig_params1,
 928://MAC/Home/Downloads/getstarted-optiga-trust-m/optiga-trust-m-1/externals/mbedtls/library/x509_crt.c ****                                   &crt->sig_md, &crt->sig_pk,
 929://MAC/Home/Downloads/getstarted-optiga-trust-m/optiga-trust-m-1/externals/mbedtls/library/x509_crt.c ****                                   &crt->sig_opts ) ) != 0 )
 930://MAC/Home/Downloads/getstarted-optiga-trust-m/optiga-trust-m-1/externals/mbedtls/library/x509_crt.c ****     {
 931://MAC/Home/Downloads/getstarted-optiga-trust-m/optiga-trust-m-1/externals/mbedtls/library/x509_crt.c ****         mbedtls_x509_crt_free( crt );
 932://MAC/Home/Downloads/getstarted-optiga-trust-m/optiga-trust-m-1/externals/mbedtls/library/x509_crt.c ****         return( ret );
 933://MAC/Home/Downloads/getstarted-optiga-trust-m/optiga-trust-m-1/externals/mbedtls/library/x509_crt.c ****     }
 934://MAC/Home/Downloads/getstarted-optiga-trust-m/optiga-trust-m-1/externals/mbedtls/library/x509_crt.c **** 
 935://MAC/Home/Downloads/getstarted-optiga-trust-m/optiga-trust-m-1/externals/mbedtls/library/x509_crt.c ****     /*
 936://MAC/Home/Downloads/getstarted-optiga-trust-m/optiga-trust-m-1/externals/mbedtls/library/x509_crt.c ****      * issuer               Name
 937://MAC/Home/Downloads/getstarted-optiga-trust-m/optiga-trust-m-1/externals/mbedtls/library/x509_crt.c ****      */
 938://MAC/Home/Downloads/getstarted-optiga-trust-m/optiga-trust-m-1/externals/mbedtls/library/x509_crt.c ****     crt->issuer_raw.p = p;
 939://MAC/Home/Downloads/getstarted-optiga-trust-m/optiga-trust-m-1/externals/mbedtls/library/x509_crt.c **** 
 940://MAC/Home/Downloads/getstarted-optiga-trust-m/optiga-trust-m-1/externals/mbedtls/library/x509_crt.c ****     if( ( ret = mbedtls_asn1_get_tag( &p, end, &len,
 941://MAC/Home/Downloads/getstarted-optiga-trust-m/optiga-trust-m-1/externals/mbedtls/library/x509_crt.c ****             MBEDTLS_ASN1_CONSTRUCTED | MBEDTLS_ASN1_SEQUENCE ) ) != 0 )
 942://MAC/Home/Downloads/getstarted-optiga-trust-m/optiga-trust-m-1/externals/mbedtls/library/x509_crt.c ****     {
 943://MAC/Home/Downloads/getstarted-optiga-trust-m/optiga-trust-m-1/externals/mbedtls/library/x509_crt.c ****         mbedtls_x509_crt_free( crt );
 944://MAC/Home/Downloads/getstarted-optiga-trust-m/optiga-trust-m-1/externals/mbedtls/library/x509_crt.c ****         return( MBEDTLS_ERR_X509_INVALID_FORMAT + ret );
 945://MAC/Home/Downloads/getstarted-optiga-trust-m/optiga-trust-m-1/externals/mbedtls/library/x509_crt.c ****     }
 946://MAC/Home/Downloads/getstarted-optiga-trust-m/optiga-trust-m-1/externals/mbedtls/library/x509_crt.c **** 
 947://MAC/Home/Downloads/getstarted-optiga-trust-m/optiga-trust-m-1/externals/mbedtls/library/x509_crt.c ****     if( ( ret = mbedtls_x509_get_name( &p, p + len, &crt->issuer ) ) != 0 )
 948://MAC/Home/Downloads/getstarted-optiga-trust-m/optiga-trust-m-1/externals/mbedtls/library/x509_crt.c ****     {
 949://MAC/Home/Downloads/getstarted-optiga-trust-m/optiga-trust-m-1/externals/mbedtls/library/x509_crt.c ****         mbedtls_x509_crt_free( crt );
 950://MAC/Home/Downloads/getstarted-optiga-trust-m/optiga-trust-m-1/externals/mbedtls/library/x509_crt.c ****         return( ret );
 951://MAC/Home/Downloads/getstarted-optiga-trust-m/optiga-trust-m-1/externals/mbedtls/library/x509_crt.c ****     }
 952://MAC/Home/Downloads/getstarted-optiga-trust-m/optiga-trust-m-1/externals/mbedtls/library/x509_crt.c **** 
 953://MAC/Home/Downloads/getstarted-optiga-trust-m/optiga-trust-m-1/externals/mbedtls/library/x509_crt.c ****     crt->issuer_raw.len = p - crt->issuer_raw.p;
 954://MAC/Home/Downloads/getstarted-optiga-trust-m/optiga-trust-m-1/externals/mbedtls/library/x509_crt.c **** 
 955://MAC/Home/Downloads/getstarted-optiga-trust-m/optiga-trust-m-1/externals/mbedtls/library/x509_crt.c ****     /*
 956://MAC/Home/Downloads/getstarted-optiga-trust-m/optiga-trust-m-1/externals/mbedtls/library/x509_crt.c ****      * Validity ::= SEQUENCE {
 957://MAC/Home/Downloads/getstarted-optiga-trust-m/optiga-trust-m-1/externals/mbedtls/library/x509_crt.c ****      *      notBefore      Time,
 958://MAC/Home/Downloads/getstarted-optiga-trust-m/optiga-trust-m-1/externals/mbedtls/library/x509_crt.c ****      *      notAfter       Time }
 959://MAC/Home/Downloads/getstarted-optiga-trust-m/optiga-trust-m-1/externals/mbedtls/library/x509_crt.c ****      *
 960://MAC/Home/Downloads/getstarted-optiga-trust-m/optiga-trust-m-1/externals/mbedtls/library/x509_crt.c ****      */
 961://MAC/Home/Downloads/getstarted-optiga-trust-m/optiga-trust-m-1/externals/mbedtls/library/x509_crt.c ****     if( ( ret = x509_get_dates( &p, end, &crt->valid_from,
 962://MAC/Home/Downloads/getstarted-optiga-trust-m/optiga-trust-m-1/externals/mbedtls/library/x509_crt.c ****                                          &crt->valid_to ) ) != 0 )
 963://MAC/Home/Downloads/getstarted-optiga-trust-m/optiga-trust-m-1/externals/mbedtls/library/x509_crt.c ****     {
 964://MAC/Home/Downloads/getstarted-optiga-trust-m/optiga-trust-m-1/externals/mbedtls/library/x509_crt.c ****         mbedtls_x509_crt_free( crt );
 965://MAC/Home/Downloads/getstarted-optiga-trust-m/optiga-trust-m-1/externals/mbedtls/library/x509_crt.c ****         return( ret );
 966://MAC/Home/Downloads/getstarted-optiga-trust-m/optiga-trust-m-1/externals/mbedtls/library/x509_crt.c ****     }
 967://MAC/Home/Downloads/getstarted-optiga-trust-m/optiga-trust-m-1/externals/mbedtls/library/x509_crt.c **** 
 968://MAC/Home/Downloads/getstarted-optiga-trust-m/optiga-trust-m-1/externals/mbedtls/library/x509_crt.c ****     /*
 969://MAC/Home/Downloads/getstarted-optiga-trust-m/optiga-trust-m-1/externals/mbedtls/library/x509_crt.c ****      * subject              Name
 970://MAC/Home/Downloads/getstarted-optiga-trust-m/optiga-trust-m-1/externals/mbedtls/library/x509_crt.c ****      */
 971://MAC/Home/Downloads/getstarted-optiga-trust-m/optiga-trust-m-1/externals/mbedtls/library/x509_crt.c ****     crt->subject_raw.p = p;
 972://MAC/Home/Downloads/getstarted-optiga-trust-m/optiga-trust-m-1/externals/mbedtls/library/x509_crt.c **** 
 973://MAC/Home/Downloads/getstarted-optiga-trust-m/optiga-trust-m-1/externals/mbedtls/library/x509_crt.c ****     if( ( ret = mbedtls_asn1_get_tag( &p, end, &len,
 974://MAC/Home/Downloads/getstarted-optiga-trust-m/optiga-trust-m-1/externals/mbedtls/library/x509_crt.c ****             MBEDTLS_ASN1_CONSTRUCTED | MBEDTLS_ASN1_SEQUENCE ) ) != 0 )
 975://MAC/Home/Downloads/getstarted-optiga-trust-m/optiga-trust-m-1/externals/mbedtls/library/x509_crt.c ****     {
 976://MAC/Home/Downloads/getstarted-optiga-trust-m/optiga-trust-m-1/externals/mbedtls/library/x509_crt.c ****         mbedtls_x509_crt_free( crt );
 977://MAC/Home/Downloads/getstarted-optiga-trust-m/optiga-trust-m-1/externals/mbedtls/library/x509_crt.c ****         return( MBEDTLS_ERR_X509_INVALID_FORMAT + ret );
 978://MAC/Home/Downloads/getstarted-optiga-trust-m/optiga-trust-m-1/externals/mbedtls/library/x509_crt.c ****     }
 979://MAC/Home/Downloads/getstarted-optiga-trust-m/optiga-trust-m-1/externals/mbedtls/library/x509_crt.c **** 
 980://MAC/Home/Downloads/getstarted-optiga-trust-m/optiga-trust-m-1/externals/mbedtls/library/x509_crt.c ****     if( len && ( ret = mbedtls_x509_get_name( &p, p + len, &crt->subject ) ) != 0 )
 981://MAC/Home/Downloads/getstarted-optiga-trust-m/optiga-trust-m-1/externals/mbedtls/library/x509_crt.c ****     {
 982://MAC/Home/Downloads/getstarted-optiga-trust-m/optiga-trust-m-1/externals/mbedtls/library/x509_crt.c ****         mbedtls_x509_crt_free( crt );
 983://MAC/Home/Downloads/getstarted-optiga-trust-m/optiga-trust-m-1/externals/mbedtls/library/x509_crt.c ****         return( ret );
 984://MAC/Home/Downloads/getstarted-optiga-trust-m/optiga-trust-m-1/externals/mbedtls/library/x509_crt.c ****     }
 985://MAC/Home/Downloads/getstarted-optiga-trust-m/optiga-trust-m-1/externals/mbedtls/library/x509_crt.c **** 
 986://MAC/Home/Downloads/getstarted-optiga-trust-m/optiga-trust-m-1/externals/mbedtls/library/x509_crt.c ****     crt->subject_raw.len = p - crt->subject_raw.p;
 987://MAC/Home/Downloads/getstarted-optiga-trust-m/optiga-trust-m-1/externals/mbedtls/library/x509_crt.c **** 
 988://MAC/Home/Downloads/getstarted-optiga-trust-m/optiga-trust-m-1/externals/mbedtls/library/x509_crt.c ****     /*
 989://MAC/Home/Downloads/getstarted-optiga-trust-m/optiga-trust-m-1/externals/mbedtls/library/x509_crt.c ****      * SubjectPublicKeyInfo
 990://MAC/Home/Downloads/getstarted-optiga-trust-m/optiga-trust-m-1/externals/mbedtls/library/x509_crt.c ****      */
 991://MAC/Home/Downloads/getstarted-optiga-trust-m/optiga-trust-m-1/externals/mbedtls/library/x509_crt.c ****     if( ( ret = mbedtls_pk_parse_subpubkey( &p, end, &crt->pk ) ) != 0 )
 992://MAC/Home/Downloads/getstarted-optiga-trust-m/optiga-trust-m-1/externals/mbedtls/library/x509_crt.c ****     {
 993://MAC/Home/Downloads/getstarted-optiga-trust-m/optiga-trust-m-1/externals/mbedtls/library/x509_crt.c ****         mbedtls_x509_crt_free( crt );
 994://MAC/Home/Downloads/getstarted-optiga-trust-m/optiga-trust-m-1/externals/mbedtls/library/x509_crt.c ****         return( ret );
 995://MAC/Home/Downloads/getstarted-optiga-trust-m/optiga-trust-m-1/externals/mbedtls/library/x509_crt.c ****     }
 996://MAC/Home/Downloads/getstarted-optiga-trust-m/optiga-trust-m-1/externals/mbedtls/library/x509_crt.c **** 
 997://MAC/Home/Downloads/getstarted-optiga-trust-m/optiga-trust-m-1/externals/mbedtls/library/x509_crt.c ****     /*
 998://MAC/Home/Downloads/getstarted-optiga-trust-m/optiga-trust-m-1/externals/mbedtls/library/x509_crt.c ****      *  issuerUniqueID  [1]  IMPLICIT UniqueIdentifier OPTIONAL,
 999://MAC/Home/Downloads/getstarted-optiga-trust-m/optiga-trust-m-1/externals/mbedtls/library/x509_crt.c ****      *                       -- If present, version shall be v2 or v3
1000://MAC/Home/Downloads/getstarted-optiga-trust-m/optiga-trust-m-1/externals/mbedtls/library/x509_crt.c ****      *  subjectUniqueID [2]  IMPLICIT UniqueIdentifier OPTIONAL,
1001://MAC/Home/Downloads/getstarted-optiga-trust-m/optiga-trust-m-1/externals/mbedtls/library/x509_crt.c ****      *                       -- If present, version shall be v2 or v3
1002://MAC/Home/Downloads/getstarted-optiga-trust-m/optiga-trust-m-1/externals/mbedtls/library/x509_crt.c ****      *  extensions      [3]  EXPLICIT Extensions OPTIONAL
1003://MAC/Home/Downloads/getstarted-optiga-trust-m/optiga-trust-m-1/externals/mbedtls/library/x509_crt.c ****      *                       -- If present, version shall be v3
1004://MAC/Home/Downloads/getstarted-optiga-trust-m/optiga-trust-m-1/externals/mbedtls/library/x509_crt.c ****      */
1005://MAC/Home/Downloads/getstarted-optiga-trust-m/optiga-trust-m-1/externals/mbedtls/library/x509_crt.c ****     if( crt->version == 2 || crt->version == 3 )
1006://MAC/Home/Downloads/getstarted-optiga-trust-m/optiga-trust-m-1/externals/mbedtls/library/x509_crt.c ****     {
1007://MAC/Home/Downloads/getstarted-optiga-trust-m/optiga-trust-m-1/externals/mbedtls/library/x509_crt.c ****         ret = x509_get_uid( &p, end, &crt->issuer_id,  1 );
1008://MAC/Home/Downloads/getstarted-optiga-trust-m/optiga-trust-m-1/externals/mbedtls/library/x509_crt.c ****         if( ret != 0 )
1009://MAC/Home/Downloads/getstarted-optiga-trust-m/optiga-trust-m-1/externals/mbedtls/library/x509_crt.c ****         {
1010://MAC/Home/Downloads/getstarted-optiga-trust-m/optiga-trust-m-1/externals/mbedtls/library/x509_crt.c ****             mbedtls_x509_crt_free( crt );
1011://MAC/Home/Downloads/getstarted-optiga-trust-m/optiga-trust-m-1/externals/mbedtls/library/x509_crt.c ****             return( ret );
1012://MAC/Home/Downloads/getstarted-optiga-trust-m/optiga-trust-m-1/externals/mbedtls/library/x509_crt.c ****         }
1013://MAC/Home/Downloads/getstarted-optiga-trust-m/optiga-trust-m-1/externals/mbedtls/library/x509_crt.c ****     }
1014://MAC/Home/Downloads/getstarted-optiga-trust-m/optiga-trust-m-1/externals/mbedtls/library/x509_crt.c **** 
1015://MAC/Home/Downloads/getstarted-optiga-trust-m/optiga-trust-m-1/externals/mbedtls/library/x509_crt.c ****     if( crt->version == 2 || crt->version == 3 )
1016://MAC/Home/Downloads/getstarted-optiga-trust-m/optiga-trust-m-1/externals/mbedtls/library/x509_crt.c ****     {
1017://MAC/Home/Downloads/getstarted-optiga-trust-m/optiga-trust-m-1/externals/mbedtls/library/x509_crt.c ****         ret = x509_get_uid( &p, end, &crt->subject_id,  2 );
1018://MAC/Home/Downloads/getstarted-optiga-trust-m/optiga-trust-m-1/externals/mbedtls/library/x509_crt.c ****         if( ret != 0 )
1019://MAC/Home/Downloads/getstarted-optiga-trust-m/optiga-trust-m-1/externals/mbedtls/library/x509_crt.c ****         {
1020://MAC/Home/Downloads/getstarted-optiga-trust-m/optiga-trust-m-1/externals/mbedtls/library/x509_crt.c ****             mbedtls_x509_crt_free( crt );
1021://MAC/Home/Downloads/getstarted-optiga-trust-m/optiga-trust-m-1/externals/mbedtls/library/x509_crt.c ****             return( ret );
1022://MAC/Home/Downloads/getstarted-optiga-trust-m/optiga-trust-m-1/externals/mbedtls/library/x509_crt.c ****         }
1023://MAC/Home/Downloads/getstarted-optiga-trust-m/optiga-trust-m-1/externals/mbedtls/library/x509_crt.c ****     }
1024://MAC/Home/Downloads/getstarted-optiga-trust-m/optiga-trust-m-1/externals/mbedtls/library/x509_crt.c **** 
1025://MAC/Home/Downloads/getstarted-optiga-trust-m/optiga-trust-m-1/externals/mbedtls/library/x509_crt.c **** #if !defined(MBEDTLS_X509_ALLOW_EXTENSIONS_NON_V3)
1026://MAC/Home/Downloads/getstarted-optiga-trust-m/optiga-trust-m-1/externals/mbedtls/library/x509_crt.c ****     if( crt->version == 3 )
1027://MAC/Home/Downloads/getstarted-optiga-trust-m/optiga-trust-m-1/externals/mbedtls/library/x509_crt.c **** #endif
1028://MAC/Home/Downloads/getstarted-optiga-trust-m/optiga-trust-m-1/externals/mbedtls/library/x509_crt.c ****     {
1029://MAC/Home/Downloads/getstarted-optiga-trust-m/optiga-trust-m-1/externals/mbedtls/library/x509_crt.c ****         ret = x509_get_crt_ext( &p, end, crt );
1030://MAC/Home/Downloads/getstarted-optiga-trust-m/optiga-trust-m-1/externals/mbedtls/library/x509_crt.c ****         if( ret != 0 )
1031://MAC/Home/Downloads/getstarted-optiga-trust-m/optiga-trust-m-1/externals/mbedtls/library/x509_crt.c ****         {
1032://MAC/Home/Downloads/getstarted-optiga-trust-m/optiga-trust-m-1/externals/mbedtls/library/x509_crt.c ****             mbedtls_x509_crt_free( crt );
1033://MAC/Home/Downloads/getstarted-optiga-trust-m/optiga-trust-m-1/externals/mbedtls/library/x509_crt.c ****             return( ret );
1034://MAC/Home/Downloads/getstarted-optiga-trust-m/optiga-trust-m-1/externals/mbedtls/library/x509_crt.c ****         }
1035://MAC/Home/Downloads/getstarted-optiga-trust-m/optiga-trust-m-1/externals/mbedtls/library/x509_crt.c ****     }
1036://MAC/Home/Downloads/getstarted-optiga-trust-m/optiga-trust-m-1/externals/mbedtls/library/x509_crt.c **** 
1037://MAC/Home/Downloads/getstarted-optiga-trust-m/optiga-trust-m-1/externals/mbedtls/library/x509_crt.c ****     if( p != end )
1038://MAC/Home/Downloads/getstarted-optiga-trust-m/optiga-trust-m-1/externals/mbedtls/library/x509_crt.c ****     {
1039://MAC/Home/Downloads/getstarted-optiga-trust-m/optiga-trust-m-1/externals/mbedtls/library/x509_crt.c ****         mbedtls_x509_crt_free( crt );
1040://MAC/Home/Downloads/getstarted-optiga-trust-m/optiga-trust-m-1/externals/mbedtls/library/x509_crt.c ****         return( MBEDTLS_ERR_X509_INVALID_FORMAT +
1041://MAC/Home/Downloads/getstarted-optiga-trust-m/optiga-trust-m-1/externals/mbedtls/library/x509_crt.c ****                 MBEDTLS_ERR_ASN1_LENGTH_MISMATCH );
1042://MAC/Home/Downloads/getstarted-optiga-trust-m/optiga-trust-m-1/externals/mbedtls/library/x509_crt.c ****     }
1043://MAC/Home/Downloads/getstarted-optiga-trust-m/optiga-trust-m-1/externals/mbedtls/library/x509_crt.c **** 
1044://MAC/Home/Downloads/getstarted-optiga-trust-m/optiga-trust-m-1/externals/mbedtls/library/x509_crt.c ****     end = crt_end;
1045://MAC/Home/Downloads/getstarted-optiga-trust-m/optiga-trust-m-1/externals/mbedtls/library/x509_crt.c **** 
1046://MAC/Home/Downloads/getstarted-optiga-trust-m/optiga-trust-m-1/externals/mbedtls/library/x509_crt.c ****     /*
1047://MAC/Home/Downloads/getstarted-optiga-trust-m/optiga-trust-m-1/externals/mbedtls/library/x509_crt.c ****      *  }
1048://MAC/Home/Downloads/getstarted-optiga-trust-m/optiga-trust-m-1/externals/mbedtls/library/x509_crt.c ****      *  -- end of TBSCertificate
1049://MAC/Home/Downloads/getstarted-optiga-trust-m/optiga-trust-m-1/externals/mbedtls/library/x509_crt.c ****      *
1050://MAC/Home/Downloads/getstarted-optiga-trust-m/optiga-trust-m-1/externals/mbedtls/library/x509_crt.c ****      *  signatureAlgorithm   AlgorithmIdentifier,
1051://MAC/Home/Downloads/getstarted-optiga-trust-m/optiga-trust-m-1/externals/mbedtls/library/x509_crt.c ****      *  signatureValue       BIT STRING
1052://MAC/Home/Downloads/getstarted-optiga-trust-m/optiga-trust-m-1/externals/mbedtls/library/x509_crt.c ****      */
1053://MAC/Home/Downloads/getstarted-optiga-trust-m/optiga-trust-m-1/externals/mbedtls/library/x509_crt.c ****     if( ( ret = mbedtls_x509_get_alg( &p, end, &sig_oid2, &sig_params2 ) ) != 0 )
1054://MAC/Home/Downloads/getstarted-optiga-trust-m/optiga-trust-m-1/externals/mbedtls/library/x509_crt.c ****     {
1055://MAC/Home/Downloads/getstarted-optiga-trust-m/optiga-trust-m-1/externals/mbedtls/library/x509_crt.c ****         mbedtls_x509_crt_free( crt );
1056://MAC/Home/Downloads/getstarted-optiga-trust-m/optiga-trust-m-1/externals/mbedtls/library/x509_crt.c ****         return( ret );
1057://MAC/Home/Downloads/getstarted-optiga-trust-m/optiga-trust-m-1/externals/mbedtls/library/x509_crt.c ****     }
1058://MAC/Home/Downloads/getstarted-optiga-trust-m/optiga-trust-m-1/externals/mbedtls/library/x509_crt.c **** 
1059://MAC/Home/Downloads/getstarted-optiga-trust-m/optiga-trust-m-1/externals/mbedtls/library/x509_crt.c ****     if( crt->sig_oid.len != sig_oid2.len ||
1060://MAC/Home/Downloads/getstarted-optiga-trust-m/optiga-trust-m-1/externals/mbedtls/library/x509_crt.c ****         memcmp( crt->sig_oid.p, sig_oid2.p, crt->sig_oid.len ) != 0 ||
1061://MAC/Home/Downloads/getstarted-optiga-trust-m/optiga-trust-m-1/externals/mbedtls/library/x509_crt.c ****         sig_params1.len != sig_params2.len ||
1062://MAC/Home/Downloads/getstarted-optiga-trust-m/optiga-trust-m-1/externals/mbedtls/library/x509_crt.c ****         ( sig_params1.len != 0 &&
1063://MAC/Home/Downloads/getstarted-optiga-trust-m/optiga-trust-m-1/externals/mbedtls/library/x509_crt.c ****           memcmp( sig_params1.p, sig_params2.p, sig_params1.len ) != 0 ) )
1064://MAC/Home/Downloads/getstarted-optiga-trust-m/optiga-trust-m-1/externals/mbedtls/library/x509_crt.c ****     {
1065://MAC/Home/Downloads/getstarted-optiga-trust-m/optiga-trust-m-1/externals/mbedtls/library/x509_crt.c ****         mbedtls_x509_crt_free( crt );
1066://MAC/Home/Downloads/getstarted-optiga-trust-m/optiga-trust-m-1/externals/mbedtls/library/x509_crt.c ****         return( MBEDTLS_ERR_X509_SIG_MISMATCH );
1067://MAC/Home/Downloads/getstarted-optiga-trust-m/optiga-trust-m-1/externals/mbedtls/library/x509_crt.c ****     }
1068://MAC/Home/Downloads/getstarted-optiga-trust-m/optiga-trust-m-1/externals/mbedtls/library/x509_crt.c **** 
1069://MAC/Home/Downloads/getstarted-optiga-trust-m/optiga-trust-m-1/externals/mbedtls/library/x509_crt.c ****     if( ( ret = mbedtls_x509_get_sig( &p, end, &crt->sig ) ) != 0 )
1070://MAC/Home/Downloads/getstarted-optiga-trust-m/optiga-trust-m-1/externals/mbedtls/library/x509_crt.c ****     {
1071://MAC/Home/Downloads/getstarted-optiga-trust-m/optiga-trust-m-1/externals/mbedtls/library/x509_crt.c ****         mbedtls_x509_crt_free( crt );
1072://MAC/Home/Downloads/getstarted-optiga-trust-m/optiga-trust-m-1/externals/mbedtls/library/x509_crt.c ****         return( ret );
1073://MAC/Home/Downloads/getstarted-optiga-trust-m/optiga-trust-m-1/externals/mbedtls/library/x509_crt.c ****     }
1074://MAC/Home/Downloads/getstarted-optiga-trust-m/optiga-trust-m-1/externals/mbedtls/library/x509_crt.c **** 
1075://MAC/Home/Downloads/getstarted-optiga-trust-m/optiga-trust-m-1/externals/mbedtls/library/x509_crt.c ****     if( p != end )
1076://MAC/Home/Downloads/getstarted-optiga-trust-m/optiga-trust-m-1/externals/mbedtls/library/x509_crt.c ****     {
1077://MAC/Home/Downloads/getstarted-optiga-trust-m/optiga-trust-m-1/externals/mbedtls/library/x509_crt.c ****         mbedtls_x509_crt_free( crt );
1078://MAC/Home/Downloads/getstarted-optiga-trust-m/optiga-trust-m-1/externals/mbedtls/library/x509_crt.c ****         return( MBEDTLS_ERR_X509_INVALID_FORMAT +
1079://MAC/Home/Downloads/getstarted-optiga-trust-m/optiga-trust-m-1/externals/mbedtls/library/x509_crt.c ****                 MBEDTLS_ERR_ASN1_LENGTH_MISMATCH );
1080://MAC/Home/Downloads/getstarted-optiga-trust-m/optiga-trust-m-1/externals/mbedtls/library/x509_crt.c ****     }
1081://MAC/Home/Downloads/getstarted-optiga-trust-m/optiga-trust-m-1/externals/mbedtls/library/x509_crt.c **** 
1082://MAC/Home/Downloads/getstarted-optiga-trust-m/optiga-trust-m-1/externals/mbedtls/library/x509_crt.c ****     return( 0 );
1083://MAC/Home/Downloads/getstarted-optiga-trust-m/optiga-trust-m-1/externals/mbedtls/library/x509_crt.c **** }
1084://MAC/Home/Downloads/getstarted-optiga-trust-m/optiga-trust-m-1/externals/mbedtls/library/x509_crt.c **** 
1085://MAC/Home/Downloads/getstarted-optiga-trust-m/optiga-trust-m-1/externals/mbedtls/library/x509_crt.c **** /*
1086://MAC/Home/Downloads/getstarted-optiga-trust-m/optiga-trust-m-1/externals/mbedtls/library/x509_crt.c ****  * Parse one X.509 certificate in DER format from a buffer and add them to a
1087://MAC/Home/Downloads/getstarted-optiga-trust-m/optiga-trust-m-1/externals/mbedtls/library/x509_crt.c ****  * chained list
1088://MAC/Home/Downloads/getstarted-optiga-trust-m/optiga-trust-m-1/externals/mbedtls/library/x509_crt.c ****  */
1089://MAC/Home/Downloads/getstarted-optiga-trust-m/optiga-trust-m-1/externals/mbedtls/library/x509_crt.c **** int mbedtls_x509_crt_parse_der( mbedtls_x509_crt *chain, const unsigned char *buf,
1090://MAC/Home/Downloads/getstarted-optiga-trust-m/optiga-trust-m-1/externals/mbedtls/library/x509_crt.c ****                         size_t buflen )
1091://MAC/Home/Downloads/getstarted-optiga-trust-m/optiga-trust-m-1/externals/mbedtls/library/x509_crt.c **** {
1092://MAC/Home/Downloads/getstarted-optiga-trust-m/optiga-trust-m-1/externals/mbedtls/library/x509_crt.c ****     int ret;
1093://MAC/Home/Downloads/getstarted-optiga-trust-m/optiga-trust-m-1/externals/mbedtls/library/x509_crt.c ****     mbedtls_x509_crt *crt = chain, *prev = NULL;
1094://MAC/Home/Downloads/getstarted-optiga-trust-m/optiga-trust-m-1/externals/mbedtls/library/x509_crt.c **** 
1095://MAC/Home/Downloads/getstarted-optiga-trust-m/optiga-trust-m-1/externals/mbedtls/library/x509_crt.c ****     /*
1096://MAC/Home/Downloads/getstarted-optiga-trust-m/optiga-trust-m-1/externals/mbedtls/library/x509_crt.c ****      * Check for valid input
1097://MAC/Home/Downloads/getstarted-optiga-trust-m/optiga-trust-m-1/externals/mbedtls/library/x509_crt.c ****      */
1098://MAC/Home/Downloads/getstarted-optiga-trust-m/optiga-trust-m-1/externals/mbedtls/library/x509_crt.c ****     if( crt == NULL || buf == NULL )
1099://MAC/Home/Downloads/getstarted-optiga-trust-m/optiga-trust-m-1/externals/mbedtls/library/x509_crt.c ****         return( MBEDTLS_ERR_X509_BAD_INPUT_DATA );
1100://MAC/Home/Downloads/getstarted-optiga-trust-m/optiga-trust-m-1/externals/mbedtls/library/x509_crt.c **** 
1101://MAC/Home/Downloads/getstarted-optiga-trust-m/optiga-trust-m-1/externals/mbedtls/library/x509_crt.c ****     while( crt->version != 0 && crt->next != NULL )
1102://MAC/Home/Downloads/getstarted-optiga-trust-m/optiga-trust-m-1/externals/mbedtls/library/x509_crt.c ****     {
1103://MAC/Home/Downloads/getstarted-optiga-trust-m/optiga-trust-m-1/externals/mbedtls/library/x509_crt.c ****         prev = crt;
1104://MAC/Home/Downloads/getstarted-optiga-trust-m/optiga-trust-m-1/externals/mbedtls/library/x509_crt.c ****         crt = crt->next;
1105://MAC/Home/Downloads/getstarted-optiga-trust-m/optiga-trust-m-1/externals/mbedtls/library/x509_crt.c ****     }
1106://MAC/Home/Downloads/getstarted-optiga-trust-m/optiga-trust-m-1/externals/mbedtls/library/x509_crt.c **** 
1107://MAC/Home/Downloads/getstarted-optiga-trust-m/optiga-trust-m-1/externals/mbedtls/library/x509_crt.c ****     /*
1108://MAC/Home/Downloads/getstarted-optiga-trust-m/optiga-trust-m-1/externals/mbedtls/library/x509_crt.c ****      * Add new certificate on the end of the chain if needed.
1109://MAC/Home/Downloads/getstarted-optiga-trust-m/optiga-trust-m-1/externals/mbedtls/library/x509_crt.c ****      */
1110://MAC/Home/Downloads/getstarted-optiga-trust-m/optiga-trust-m-1/externals/mbedtls/library/x509_crt.c ****     if( crt->version != 0 && crt->next == NULL )
1111://MAC/Home/Downloads/getstarted-optiga-trust-m/optiga-trust-m-1/externals/mbedtls/library/x509_crt.c ****     {
1112://MAC/Home/Downloads/getstarted-optiga-trust-m/optiga-trust-m-1/externals/mbedtls/library/x509_crt.c ****         crt->next = mbedtls_calloc( 1, sizeof( mbedtls_x509_crt ) );
1113://MAC/Home/Downloads/getstarted-optiga-trust-m/optiga-trust-m-1/externals/mbedtls/library/x509_crt.c **** 
1114://MAC/Home/Downloads/getstarted-optiga-trust-m/optiga-trust-m-1/externals/mbedtls/library/x509_crt.c ****         if( crt->next == NULL )
1115://MAC/Home/Downloads/getstarted-optiga-trust-m/optiga-trust-m-1/externals/mbedtls/library/x509_crt.c ****             return( MBEDTLS_ERR_X509_ALLOC_FAILED );
1116://MAC/Home/Downloads/getstarted-optiga-trust-m/optiga-trust-m-1/externals/mbedtls/library/x509_crt.c **** 
1117://MAC/Home/Downloads/getstarted-optiga-trust-m/optiga-trust-m-1/externals/mbedtls/library/x509_crt.c ****         prev = crt;
1118://MAC/Home/Downloads/getstarted-optiga-trust-m/optiga-trust-m-1/externals/mbedtls/library/x509_crt.c ****         mbedtls_x509_crt_init( crt->next );
1119://MAC/Home/Downloads/getstarted-optiga-trust-m/optiga-trust-m-1/externals/mbedtls/library/x509_crt.c ****         crt = crt->next;
1120://MAC/Home/Downloads/getstarted-optiga-trust-m/optiga-trust-m-1/externals/mbedtls/library/x509_crt.c ****     }
1121://MAC/Home/Downloads/getstarted-optiga-trust-m/optiga-trust-m-1/externals/mbedtls/library/x509_crt.c **** 
1122://MAC/Home/Downloads/getstarted-optiga-trust-m/optiga-trust-m-1/externals/mbedtls/library/x509_crt.c ****     if( ( ret = x509_crt_parse_der_core( crt, buf, buflen ) ) != 0 )
1123://MAC/Home/Downloads/getstarted-optiga-trust-m/optiga-trust-m-1/externals/mbedtls/library/x509_crt.c ****     {
1124://MAC/Home/Downloads/getstarted-optiga-trust-m/optiga-trust-m-1/externals/mbedtls/library/x509_crt.c ****         if( prev )
1125://MAC/Home/Downloads/getstarted-optiga-trust-m/optiga-trust-m-1/externals/mbedtls/library/x509_crt.c ****             prev->next = NULL;
1126://MAC/Home/Downloads/getstarted-optiga-trust-m/optiga-trust-m-1/externals/mbedtls/library/x509_crt.c **** 
1127://MAC/Home/Downloads/getstarted-optiga-trust-m/optiga-trust-m-1/externals/mbedtls/library/x509_crt.c ****         if( crt != chain )
1128://MAC/Home/Downloads/getstarted-optiga-trust-m/optiga-trust-m-1/externals/mbedtls/library/x509_crt.c ****             mbedtls_free( crt );
1129://MAC/Home/Downloads/getstarted-optiga-trust-m/optiga-trust-m-1/externals/mbedtls/library/x509_crt.c **** 
1130://MAC/Home/Downloads/getstarted-optiga-trust-m/optiga-trust-m-1/externals/mbedtls/library/x509_crt.c ****         return( ret );
1131://MAC/Home/Downloads/getstarted-optiga-trust-m/optiga-trust-m-1/externals/mbedtls/library/x509_crt.c ****     }
1132://MAC/Home/Downloads/getstarted-optiga-trust-m/optiga-trust-m-1/externals/mbedtls/library/x509_crt.c **** 
1133://MAC/Home/Downloads/getstarted-optiga-trust-m/optiga-trust-m-1/externals/mbedtls/library/x509_crt.c ****     return( 0 );
1134://MAC/Home/Downloads/getstarted-optiga-trust-m/optiga-trust-m-1/externals/mbedtls/library/x509_crt.c **** }
1135://MAC/Home/Downloads/getstarted-optiga-trust-m/optiga-trust-m-1/externals/mbedtls/library/x509_crt.c **** 
1136://MAC/Home/Downloads/getstarted-optiga-trust-m/optiga-trust-m-1/externals/mbedtls/library/x509_crt.c **** /*
1137://MAC/Home/Downloads/getstarted-optiga-trust-m/optiga-trust-m-1/externals/mbedtls/library/x509_crt.c ****  * Parse one or more PEM certificates from a buffer and add them to the chained
1138://MAC/Home/Downloads/getstarted-optiga-trust-m/optiga-trust-m-1/externals/mbedtls/library/x509_crt.c ****  * list
1139://MAC/Home/Downloads/getstarted-optiga-trust-m/optiga-trust-m-1/externals/mbedtls/library/x509_crt.c ****  */
1140://MAC/Home/Downloads/getstarted-optiga-trust-m/optiga-trust-m-1/externals/mbedtls/library/x509_crt.c **** int mbedtls_x509_crt_parse( mbedtls_x509_crt *chain, const unsigned char *buf, size_t buflen )
1141://MAC/Home/Downloads/getstarted-optiga-trust-m/optiga-trust-m-1/externals/mbedtls/library/x509_crt.c **** {
1142://MAC/Home/Downloads/getstarted-optiga-trust-m/optiga-trust-m-1/externals/mbedtls/library/x509_crt.c **** #if defined(MBEDTLS_PEM_PARSE_C)
1143://MAC/Home/Downloads/getstarted-optiga-trust-m/optiga-trust-m-1/externals/mbedtls/library/x509_crt.c ****     int success = 0, first_error = 0, total_failed = 0;
1144://MAC/Home/Downloads/getstarted-optiga-trust-m/optiga-trust-m-1/externals/mbedtls/library/x509_crt.c ****     int buf_format = MBEDTLS_X509_FORMAT_DER;
1145://MAC/Home/Downloads/getstarted-optiga-trust-m/optiga-trust-m-1/externals/mbedtls/library/x509_crt.c **** #endif
1146://MAC/Home/Downloads/getstarted-optiga-trust-m/optiga-trust-m-1/externals/mbedtls/library/x509_crt.c **** 
1147://MAC/Home/Downloads/getstarted-optiga-trust-m/optiga-trust-m-1/externals/mbedtls/library/x509_crt.c ****     /*
1148://MAC/Home/Downloads/getstarted-optiga-trust-m/optiga-trust-m-1/externals/mbedtls/library/x509_crt.c ****      * Check for valid input
1149://MAC/Home/Downloads/getstarted-optiga-trust-m/optiga-trust-m-1/externals/mbedtls/library/x509_crt.c ****      */
1150://MAC/Home/Downloads/getstarted-optiga-trust-m/optiga-trust-m-1/externals/mbedtls/library/x509_crt.c ****     if( chain == NULL || buf == NULL )
1151://MAC/Home/Downloads/getstarted-optiga-trust-m/optiga-trust-m-1/externals/mbedtls/library/x509_crt.c ****         return( MBEDTLS_ERR_X509_BAD_INPUT_DATA );
1152://MAC/Home/Downloads/getstarted-optiga-trust-m/optiga-trust-m-1/externals/mbedtls/library/x509_crt.c **** 
1153://MAC/Home/Downloads/getstarted-optiga-trust-m/optiga-trust-m-1/externals/mbedtls/library/x509_crt.c ****     /*
1154://MAC/Home/Downloads/getstarted-optiga-trust-m/optiga-trust-m-1/externals/mbedtls/library/x509_crt.c ****      * Determine buffer content. Buffer contains either one DER certificate or
1155://MAC/Home/Downloads/getstarted-optiga-trust-m/optiga-trust-m-1/externals/mbedtls/library/x509_crt.c ****      * one or more PEM certificates.
1156://MAC/Home/Downloads/getstarted-optiga-trust-m/optiga-trust-m-1/externals/mbedtls/library/x509_crt.c ****      */
1157://MAC/Home/Downloads/getstarted-optiga-trust-m/optiga-trust-m-1/externals/mbedtls/library/x509_crt.c **** #if defined(MBEDTLS_PEM_PARSE_C)
1158://MAC/Home/Downloads/getstarted-optiga-trust-m/optiga-trust-m-1/externals/mbedtls/library/x509_crt.c ****     if( buflen != 0 && buf[buflen - 1] == '\0' &&
1159://MAC/Home/Downloads/getstarted-optiga-trust-m/optiga-trust-m-1/externals/mbedtls/library/x509_crt.c ****         strstr( (const char *) buf, "-----BEGIN CERTIFICATE-----" ) != NULL )
1160://MAC/Home/Downloads/getstarted-optiga-trust-m/optiga-trust-m-1/externals/mbedtls/library/x509_crt.c ****     {
1161://MAC/Home/Downloads/getstarted-optiga-trust-m/optiga-trust-m-1/externals/mbedtls/library/x509_crt.c ****         buf_format = MBEDTLS_X509_FORMAT_PEM;
1162://MAC/Home/Downloads/getstarted-optiga-trust-m/optiga-trust-m-1/externals/mbedtls/library/x509_crt.c ****     }
1163://MAC/Home/Downloads/getstarted-optiga-trust-m/optiga-trust-m-1/externals/mbedtls/library/x509_crt.c **** 
1164://MAC/Home/Downloads/getstarted-optiga-trust-m/optiga-trust-m-1/externals/mbedtls/library/x509_crt.c ****     if( buf_format == MBEDTLS_X509_FORMAT_DER )
1165://MAC/Home/Downloads/getstarted-optiga-trust-m/optiga-trust-m-1/externals/mbedtls/library/x509_crt.c ****         return mbedtls_x509_crt_parse_der( chain, buf, buflen );
1166://MAC/Home/Downloads/getstarted-optiga-trust-m/optiga-trust-m-1/externals/mbedtls/library/x509_crt.c **** #else
1167://MAC/Home/Downloads/getstarted-optiga-trust-m/optiga-trust-m-1/externals/mbedtls/library/x509_crt.c ****     return mbedtls_x509_crt_parse_der( chain, buf, buflen );
1168://MAC/Home/Downloads/getstarted-optiga-trust-m/optiga-trust-m-1/externals/mbedtls/library/x509_crt.c **** #endif
1169://MAC/Home/Downloads/getstarted-optiga-trust-m/optiga-trust-m-1/externals/mbedtls/library/x509_crt.c **** 
1170://MAC/Home/Downloads/getstarted-optiga-trust-m/optiga-trust-m-1/externals/mbedtls/library/x509_crt.c **** #if defined(MBEDTLS_PEM_PARSE_C)
1171://MAC/Home/Downloads/getstarted-optiga-trust-m/optiga-trust-m-1/externals/mbedtls/library/x509_crt.c ****     if( buf_format == MBEDTLS_X509_FORMAT_PEM )
1172://MAC/Home/Downloads/getstarted-optiga-trust-m/optiga-trust-m-1/externals/mbedtls/library/x509_crt.c ****     {
1173://MAC/Home/Downloads/getstarted-optiga-trust-m/optiga-trust-m-1/externals/mbedtls/library/x509_crt.c ****         int ret;
1174://MAC/Home/Downloads/getstarted-optiga-trust-m/optiga-trust-m-1/externals/mbedtls/library/x509_crt.c ****         mbedtls_pem_context pem;
1175://MAC/Home/Downloads/getstarted-optiga-trust-m/optiga-trust-m-1/externals/mbedtls/library/x509_crt.c **** 
1176://MAC/Home/Downloads/getstarted-optiga-trust-m/optiga-trust-m-1/externals/mbedtls/library/x509_crt.c ****         /* 1 rather than 0 since the terminating NULL byte is counted in */
1177://MAC/Home/Downloads/getstarted-optiga-trust-m/optiga-trust-m-1/externals/mbedtls/library/x509_crt.c ****         while( buflen > 1 )
1178://MAC/Home/Downloads/getstarted-optiga-trust-m/optiga-trust-m-1/externals/mbedtls/library/x509_crt.c ****         {
1179://MAC/Home/Downloads/getstarted-optiga-trust-m/optiga-trust-m-1/externals/mbedtls/library/x509_crt.c ****             size_t use_len;
1180://MAC/Home/Downloads/getstarted-optiga-trust-m/optiga-trust-m-1/externals/mbedtls/library/x509_crt.c ****             mbedtls_pem_init( &pem );
1181://MAC/Home/Downloads/getstarted-optiga-trust-m/optiga-trust-m-1/externals/mbedtls/library/x509_crt.c **** 
1182://MAC/Home/Downloads/getstarted-optiga-trust-m/optiga-trust-m-1/externals/mbedtls/library/x509_crt.c ****             /* If we get there, we know the string is null-terminated */
1183://MAC/Home/Downloads/getstarted-optiga-trust-m/optiga-trust-m-1/externals/mbedtls/library/x509_crt.c ****             ret = mbedtls_pem_read_buffer( &pem,
1184://MAC/Home/Downloads/getstarted-optiga-trust-m/optiga-trust-m-1/externals/mbedtls/library/x509_crt.c ****                            "-----BEGIN CERTIFICATE-----",
1185://MAC/Home/Downloads/getstarted-optiga-trust-m/optiga-trust-m-1/externals/mbedtls/library/x509_crt.c ****                            "-----END CERTIFICATE-----",
1186://MAC/Home/Downloads/getstarted-optiga-trust-m/optiga-trust-m-1/externals/mbedtls/library/x509_crt.c ****                            buf, NULL, 0, &use_len );
1187://MAC/Home/Downloads/getstarted-optiga-trust-m/optiga-trust-m-1/externals/mbedtls/library/x509_crt.c **** 
1188://MAC/Home/Downloads/getstarted-optiga-trust-m/optiga-trust-m-1/externals/mbedtls/library/x509_crt.c ****             if( ret == 0 )
1189://MAC/Home/Downloads/getstarted-optiga-trust-m/optiga-trust-m-1/externals/mbedtls/library/x509_crt.c ****             {
1190://MAC/Home/Downloads/getstarted-optiga-trust-m/optiga-trust-m-1/externals/mbedtls/library/x509_crt.c ****                 /*
1191://MAC/Home/Downloads/getstarted-optiga-trust-m/optiga-trust-m-1/externals/mbedtls/library/x509_crt.c ****                  * Was PEM encoded
1192://MAC/Home/Downloads/getstarted-optiga-trust-m/optiga-trust-m-1/externals/mbedtls/library/x509_crt.c ****                  */
1193://MAC/Home/Downloads/getstarted-optiga-trust-m/optiga-trust-m-1/externals/mbedtls/library/x509_crt.c ****                 buflen -= use_len;
1194://MAC/Home/Downloads/getstarted-optiga-trust-m/optiga-trust-m-1/externals/mbedtls/library/x509_crt.c ****                 buf += use_len;
1195://MAC/Home/Downloads/getstarted-optiga-trust-m/optiga-trust-m-1/externals/mbedtls/library/x509_crt.c ****             }
1196://MAC/Home/Downloads/getstarted-optiga-trust-m/optiga-trust-m-1/externals/mbedtls/library/x509_crt.c ****             else if( ret == MBEDTLS_ERR_PEM_BAD_INPUT_DATA )
1197://MAC/Home/Downloads/getstarted-optiga-trust-m/optiga-trust-m-1/externals/mbedtls/library/x509_crt.c ****             {
1198://MAC/Home/Downloads/getstarted-optiga-trust-m/optiga-trust-m-1/externals/mbedtls/library/x509_crt.c ****                 return( ret );
1199://MAC/Home/Downloads/getstarted-optiga-trust-m/optiga-trust-m-1/externals/mbedtls/library/x509_crt.c ****             }
1200://MAC/Home/Downloads/getstarted-optiga-trust-m/optiga-trust-m-1/externals/mbedtls/library/x509_crt.c ****             else if( ret != MBEDTLS_ERR_PEM_NO_HEADER_FOOTER_PRESENT )
1201://MAC/Home/Downloads/getstarted-optiga-trust-m/optiga-trust-m-1/externals/mbedtls/library/x509_crt.c ****             {
1202://MAC/Home/Downloads/getstarted-optiga-trust-m/optiga-trust-m-1/externals/mbedtls/library/x509_crt.c ****                 mbedtls_pem_free( &pem );
1203://MAC/Home/Downloads/getstarted-optiga-trust-m/optiga-trust-m-1/externals/mbedtls/library/x509_crt.c **** 
1204://MAC/Home/Downloads/getstarted-optiga-trust-m/optiga-trust-m-1/externals/mbedtls/library/x509_crt.c ****                 /*
1205://MAC/Home/Downloads/getstarted-optiga-trust-m/optiga-trust-m-1/externals/mbedtls/library/x509_crt.c ****                  * PEM header and footer were found
1206://MAC/Home/Downloads/getstarted-optiga-trust-m/optiga-trust-m-1/externals/mbedtls/library/x509_crt.c ****                  */
1207://MAC/Home/Downloads/getstarted-optiga-trust-m/optiga-trust-m-1/externals/mbedtls/library/x509_crt.c ****                 buflen -= use_len;
1208://MAC/Home/Downloads/getstarted-optiga-trust-m/optiga-trust-m-1/externals/mbedtls/library/x509_crt.c ****                 buf += use_len;
1209://MAC/Home/Downloads/getstarted-optiga-trust-m/optiga-trust-m-1/externals/mbedtls/library/x509_crt.c **** 
1210://MAC/Home/Downloads/getstarted-optiga-trust-m/optiga-trust-m-1/externals/mbedtls/library/x509_crt.c ****                 if( first_error == 0 )
1211://MAC/Home/Downloads/getstarted-optiga-trust-m/optiga-trust-m-1/externals/mbedtls/library/x509_crt.c ****                     first_error = ret;
1212://MAC/Home/Downloads/getstarted-optiga-trust-m/optiga-trust-m-1/externals/mbedtls/library/x509_crt.c **** 
1213://MAC/Home/Downloads/getstarted-optiga-trust-m/optiga-trust-m-1/externals/mbedtls/library/x509_crt.c ****                 total_failed++;
1214://MAC/Home/Downloads/getstarted-optiga-trust-m/optiga-trust-m-1/externals/mbedtls/library/x509_crt.c ****                 continue;
1215://MAC/Home/Downloads/getstarted-optiga-trust-m/optiga-trust-m-1/externals/mbedtls/library/x509_crt.c ****             }
1216://MAC/Home/Downloads/getstarted-optiga-trust-m/optiga-trust-m-1/externals/mbedtls/library/x509_crt.c ****             else
1217://MAC/Home/Downloads/getstarted-optiga-trust-m/optiga-trust-m-1/externals/mbedtls/library/x509_crt.c ****                 break;
1218://MAC/Home/Downloads/getstarted-optiga-trust-m/optiga-trust-m-1/externals/mbedtls/library/x509_crt.c **** 
1219://MAC/Home/Downloads/getstarted-optiga-trust-m/optiga-trust-m-1/externals/mbedtls/library/x509_crt.c ****             ret = mbedtls_x509_crt_parse_der( chain, pem.buf, pem.buflen );
1220://MAC/Home/Downloads/getstarted-optiga-trust-m/optiga-trust-m-1/externals/mbedtls/library/x509_crt.c **** 
1221://MAC/Home/Downloads/getstarted-optiga-trust-m/optiga-trust-m-1/externals/mbedtls/library/x509_crt.c ****             mbedtls_pem_free( &pem );
1222://MAC/Home/Downloads/getstarted-optiga-trust-m/optiga-trust-m-1/externals/mbedtls/library/x509_crt.c **** 
1223://MAC/Home/Downloads/getstarted-optiga-trust-m/optiga-trust-m-1/externals/mbedtls/library/x509_crt.c ****             if( ret != 0 )
1224://MAC/Home/Downloads/getstarted-optiga-trust-m/optiga-trust-m-1/externals/mbedtls/library/x509_crt.c ****             {
1225://MAC/Home/Downloads/getstarted-optiga-trust-m/optiga-trust-m-1/externals/mbedtls/library/x509_crt.c ****                 /*
1226://MAC/Home/Downloads/getstarted-optiga-trust-m/optiga-trust-m-1/externals/mbedtls/library/x509_crt.c ****                  * Quit parsing on a memory error
1227://MAC/Home/Downloads/getstarted-optiga-trust-m/optiga-trust-m-1/externals/mbedtls/library/x509_crt.c ****                  */
1228://MAC/Home/Downloads/getstarted-optiga-trust-m/optiga-trust-m-1/externals/mbedtls/library/x509_crt.c ****                 if( ret == MBEDTLS_ERR_X509_ALLOC_FAILED )
1229://MAC/Home/Downloads/getstarted-optiga-trust-m/optiga-trust-m-1/externals/mbedtls/library/x509_crt.c ****                     return( ret );
1230://MAC/Home/Downloads/getstarted-optiga-trust-m/optiga-trust-m-1/externals/mbedtls/library/x509_crt.c **** 
1231://MAC/Home/Downloads/getstarted-optiga-trust-m/optiga-trust-m-1/externals/mbedtls/library/x509_crt.c ****                 if( first_error == 0 )
1232://MAC/Home/Downloads/getstarted-optiga-trust-m/optiga-trust-m-1/externals/mbedtls/library/x509_crt.c ****                     first_error = ret;
1233://MAC/Home/Downloads/getstarted-optiga-trust-m/optiga-trust-m-1/externals/mbedtls/library/x509_crt.c **** 
1234://MAC/Home/Downloads/getstarted-optiga-trust-m/optiga-trust-m-1/externals/mbedtls/library/x509_crt.c ****                 total_failed++;
1235://MAC/Home/Downloads/getstarted-optiga-trust-m/optiga-trust-m-1/externals/mbedtls/library/x509_crt.c ****                 continue;
1236://MAC/Home/Downloads/getstarted-optiga-trust-m/optiga-trust-m-1/externals/mbedtls/library/x509_crt.c ****             }
1237://MAC/Home/Downloads/getstarted-optiga-trust-m/optiga-trust-m-1/externals/mbedtls/library/x509_crt.c **** 
1238://MAC/Home/Downloads/getstarted-optiga-trust-m/optiga-trust-m-1/externals/mbedtls/library/x509_crt.c ****             success = 1;
1239://MAC/Home/Downloads/getstarted-optiga-trust-m/optiga-trust-m-1/externals/mbedtls/library/x509_crt.c ****         }
1240://MAC/Home/Downloads/getstarted-optiga-trust-m/optiga-trust-m-1/externals/mbedtls/library/x509_crt.c ****     }
1241://MAC/Home/Downloads/getstarted-optiga-trust-m/optiga-trust-m-1/externals/mbedtls/library/x509_crt.c **** 
1242://MAC/Home/Downloads/getstarted-optiga-trust-m/optiga-trust-m-1/externals/mbedtls/library/x509_crt.c ****     if( success )
1243://MAC/Home/Downloads/getstarted-optiga-trust-m/optiga-trust-m-1/externals/mbedtls/library/x509_crt.c ****         return( total_failed );
1244://MAC/Home/Downloads/getstarted-optiga-trust-m/optiga-trust-m-1/externals/mbedtls/library/x509_crt.c ****     else if( first_error )
1245://MAC/Home/Downloads/getstarted-optiga-trust-m/optiga-trust-m-1/externals/mbedtls/library/x509_crt.c ****         return( first_error );
1246://MAC/Home/Downloads/getstarted-optiga-trust-m/optiga-trust-m-1/externals/mbedtls/library/x509_crt.c ****     else
1247://MAC/Home/Downloads/getstarted-optiga-trust-m/optiga-trust-m-1/externals/mbedtls/library/x509_crt.c ****         return( MBEDTLS_ERR_X509_CERT_UNKNOWN_FORMAT );
1248://MAC/Home/Downloads/getstarted-optiga-trust-m/optiga-trust-m-1/externals/mbedtls/library/x509_crt.c **** #endif /* MBEDTLS_PEM_PARSE_C */
1249://MAC/Home/Downloads/getstarted-optiga-trust-m/optiga-trust-m-1/externals/mbedtls/library/x509_crt.c **** }
1250://MAC/Home/Downloads/getstarted-optiga-trust-m/optiga-trust-m-1/externals/mbedtls/library/x509_crt.c **** 
1251://MAC/Home/Downloads/getstarted-optiga-trust-m/optiga-trust-m-1/externals/mbedtls/library/x509_crt.c **** #if defined(MBEDTLS_FS_IO)
1252://MAC/Home/Downloads/getstarted-optiga-trust-m/optiga-trust-m-1/externals/mbedtls/library/x509_crt.c **** /*
1253://MAC/Home/Downloads/getstarted-optiga-trust-m/optiga-trust-m-1/externals/mbedtls/library/x509_crt.c ****  * Load one or more certificates and add them to the chained list
1254://MAC/Home/Downloads/getstarted-optiga-trust-m/optiga-trust-m-1/externals/mbedtls/library/x509_crt.c ****  */
1255://MAC/Home/Downloads/getstarted-optiga-trust-m/optiga-trust-m-1/externals/mbedtls/library/x509_crt.c **** int mbedtls_x509_crt_parse_file( mbedtls_x509_crt *chain, const char *path )
1256://MAC/Home/Downloads/getstarted-optiga-trust-m/optiga-trust-m-1/externals/mbedtls/library/x509_crt.c **** {
1257://MAC/Home/Downloads/getstarted-optiga-trust-m/optiga-trust-m-1/externals/mbedtls/library/x509_crt.c ****     int ret;
1258://MAC/Home/Downloads/getstarted-optiga-trust-m/optiga-trust-m-1/externals/mbedtls/library/x509_crt.c ****     size_t n;
1259://MAC/Home/Downloads/getstarted-optiga-trust-m/optiga-trust-m-1/externals/mbedtls/library/x509_crt.c ****     unsigned char *buf;
1260://MAC/Home/Downloads/getstarted-optiga-trust-m/optiga-trust-m-1/externals/mbedtls/library/x509_crt.c **** 
1261://MAC/Home/Downloads/getstarted-optiga-trust-m/optiga-trust-m-1/externals/mbedtls/library/x509_crt.c ****     if( ( ret = mbedtls_pk_load_file( path, &buf, &n ) ) != 0 )
1262://MAC/Home/Downloads/getstarted-optiga-trust-m/optiga-trust-m-1/externals/mbedtls/library/x509_crt.c ****         return( ret );
1263://MAC/Home/Downloads/getstarted-optiga-trust-m/optiga-trust-m-1/externals/mbedtls/library/x509_crt.c **** 
1264://MAC/Home/Downloads/getstarted-optiga-trust-m/optiga-trust-m-1/externals/mbedtls/library/x509_crt.c ****     ret = mbedtls_x509_crt_parse( chain, buf, n );
1265://MAC/Home/Downloads/getstarted-optiga-trust-m/optiga-trust-m-1/externals/mbedtls/library/x509_crt.c **** 
1266://MAC/Home/Downloads/getstarted-optiga-trust-m/optiga-trust-m-1/externals/mbedtls/library/x509_crt.c ****     mbedtls_platform_zeroize( buf, n );
1267://MAC/Home/Downloads/getstarted-optiga-trust-m/optiga-trust-m-1/externals/mbedtls/library/x509_crt.c ****     mbedtls_free( buf );
1268://MAC/Home/Downloads/getstarted-optiga-trust-m/optiga-trust-m-1/externals/mbedtls/library/x509_crt.c **** 
1269://MAC/Home/Downloads/getstarted-optiga-trust-m/optiga-trust-m-1/externals/mbedtls/library/x509_crt.c ****     return( ret );
1270://MAC/Home/Downloads/getstarted-optiga-trust-m/optiga-trust-m-1/externals/mbedtls/library/x509_crt.c **** }
1271://MAC/Home/Downloads/getstarted-optiga-trust-m/optiga-trust-m-1/externals/mbedtls/library/x509_crt.c **** 
1272://MAC/Home/Downloads/getstarted-optiga-trust-m/optiga-trust-m-1/externals/mbedtls/library/x509_crt.c **** int mbedtls_x509_crt_parse_path( mbedtls_x509_crt *chain, const char *path )
1273://MAC/Home/Downloads/getstarted-optiga-trust-m/optiga-trust-m-1/externals/mbedtls/library/x509_crt.c **** {
1274://MAC/Home/Downloads/getstarted-optiga-trust-m/optiga-trust-m-1/externals/mbedtls/library/x509_crt.c ****     int ret = 0;
1275://MAC/Home/Downloads/getstarted-optiga-trust-m/optiga-trust-m-1/externals/mbedtls/library/x509_crt.c **** #if defined(_WIN32) && !defined(EFIX64) && !defined(EFI32)
1276://MAC/Home/Downloads/getstarted-optiga-trust-m/optiga-trust-m-1/externals/mbedtls/library/x509_crt.c ****     int w_ret;
1277://MAC/Home/Downloads/getstarted-optiga-trust-m/optiga-trust-m-1/externals/mbedtls/library/x509_crt.c ****     WCHAR szDir[MAX_PATH];
1278://MAC/Home/Downloads/getstarted-optiga-trust-m/optiga-trust-m-1/externals/mbedtls/library/x509_crt.c ****     char filename[MAX_PATH];
1279://MAC/Home/Downloads/getstarted-optiga-trust-m/optiga-trust-m-1/externals/mbedtls/library/x509_crt.c ****     char *p;
1280://MAC/Home/Downloads/getstarted-optiga-trust-m/optiga-trust-m-1/externals/mbedtls/library/x509_crt.c ****     size_t len = strlen( path );
1281://MAC/Home/Downloads/getstarted-optiga-trust-m/optiga-trust-m-1/externals/mbedtls/library/x509_crt.c **** 
1282://MAC/Home/Downloads/getstarted-optiga-trust-m/optiga-trust-m-1/externals/mbedtls/library/x509_crt.c ****     WIN32_FIND_DATAW file_data;
1283://MAC/Home/Downloads/getstarted-optiga-trust-m/optiga-trust-m-1/externals/mbedtls/library/x509_crt.c ****     HANDLE hFind;
1284://MAC/Home/Downloads/getstarted-optiga-trust-m/optiga-trust-m-1/externals/mbedtls/library/x509_crt.c **** 
1285://MAC/Home/Downloads/getstarted-optiga-trust-m/optiga-trust-m-1/externals/mbedtls/library/x509_crt.c ****     if( len > MAX_PATH - 3 )
1286://MAC/Home/Downloads/getstarted-optiga-trust-m/optiga-trust-m-1/externals/mbedtls/library/x509_crt.c ****         return( MBEDTLS_ERR_X509_BAD_INPUT_DATA );
1287://MAC/Home/Downloads/getstarted-optiga-trust-m/optiga-trust-m-1/externals/mbedtls/library/x509_crt.c **** 
1288://MAC/Home/Downloads/getstarted-optiga-trust-m/optiga-trust-m-1/externals/mbedtls/library/x509_crt.c ****     memset( szDir, 0, sizeof(szDir) );
1289://MAC/Home/Downloads/getstarted-optiga-trust-m/optiga-trust-m-1/externals/mbedtls/library/x509_crt.c ****     memset( filename, 0, MAX_PATH );
1290://MAC/Home/Downloads/getstarted-optiga-trust-m/optiga-trust-m-1/externals/mbedtls/library/x509_crt.c ****     memcpy( filename, path, len );
1291://MAC/Home/Downloads/getstarted-optiga-trust-m/optiga-trust-m-1/externals/mbedtls/library/x509_crt.c ****     filename[len++] = '\\';
1292://MAC/Home/Downloads/getstarted-optiga-trust-m/optiga-trust-m-1/externals/mbedtls/library/x509_crt.c ****     p = filename + len;
1293://MAC/Home/Downloads/getstarted-optiga-trust-m/optiga-trust-m-1/externals/mbedtls/library/x509_crt.c ****     filename[len++] = '*';
1294://MAC/Home/Downloads/getstarted-optiga-trust-m/optiga-trust-m-1/externals/mbedtls/library/x509_crt.c **** 
1295://MAC/Home/Downloads/getstarted-optiga-trust-m/optiga-trust-m-1/externals/mbedtls/library/x509_crt.c ****     w_ret = MultiByteToWideChar( CP_ACP, 0, filename, (int)len, szDir,
1296://MAC/Home/Downloads/getstarted-optiga-trust-m/optiga-trust-m-1/externals/mbedtls/library/x509_crt.c ****                                  MAX_PATH - 3 );
1297://MAC/Home/Downloads/getstarted-optiga-trust-m/optiga-trust-m-1/externals/mbedtls/library/x509_crt.c ****     if( w_ret == 0 )
1298://MAC/Home/Downloads/getstarted-optiga-trust-m/optiga-trust-m-1/externals/mbedtls/library/x509_crt.c ****         return( MBEDTLS_ERR_X509_BAD_INPUT_DATA );
1299://MAC/Home/Downloads/getstarted-optiga-trust-m/optiga-trust-m-1/externals/mbedtls/library/x509_crt.c **** 
1300://MAC/Home/Downloads/getstarted-optiga-trust-m/optiga-trust-m-1/externals/mbedtls/library/x509_crt.c ****     hFind = FindFirstFileW( szDir, &file_data );
1301://MAC/Home/Downloads/getstarted-optiga-trust-m/optiga-trust-m-1/externals/mbedtls/library/x509_crt.c ****     if( hFind == INVALID_HANDLE_VALUE )
1302://MAC/Home/Downloads/getstarted-optiga-trust-m/optiga-trust-m-1/externals/mbedtls/library/x509_crt.c ****         return( MBEDTLS_ERR_X509_FILE_IO_ERROR );
1303://MAC/Home/Downloads/getstarted-optiga-trust-m/optiga-trust-m-1/externals/mbedtls/library/x509_crt.c **** 
1304://MAC/Home/Downloads/getstarted-optiga-trust-m/optiga-trust-m-1/externals/mbedtls/library/x509_crt.c ****     len = MAX_PATH - len;
1305://MAC/Home/Downloads/getstarted-optiga-trust-m/optiga-trust-m-1/externals/mbedtls/library/x509_crt.c ****     do
1306://MAC/Home/Downloads/getstarted-optiga-trust-m/optiga-trust-m-1/externals/mbedtls/library/x509_crt.c ****     {
1307://MAC/Home/Downloads/getstarted-optiga-trust-m/optiga-trust-m-1/externals/mbedtls/library/x509_crt.c ****         memset( p, 0, len );
1308://MAC/Home/Downloads/getstarted-optiga-trust-m/optiga-trust-m-1/externals/mbedtls/library/x509_crt.c **** 
1309://MAC/Home/Downloads/getstarted-optiga-trust-m/optiga-trust-m-1/externals/mbedtls/library/x509_crt.c ****         if( file_data.dwFileAttributes & FILE_ATTRIBUTE_DIRECTORY )
1310://MAC/Home/Downloads/getstarted-optiga-trust-m/optiga-trust-m-1/externals/mbedtls/library/x509_crt.c ****             continue;
1311://MAC/Home/Downloads/getstarted-optiga-trust-m/optiga-trust-m-1/externals/mbedtls/library/x509_crt.c **** 
1312://MAC/Home/Downloads/getstarted-optiga-trust-m/optiga-trust-m-1/externals/mbedtls/library/x509_crt.c ****         w_ret = WideCharToMultiByte( CP_ACP, 0, file_data.cFileName,
1313://MAC/Home/Downloads/getstarted-optiga-trust-m/optiga-trust-m-1/externals/mbedtls/library/x509_crt.c ****                                      lstrlenW( file_data.cFileName ),
1314://MAC/Home/Downloads/getstarted-optiga-trust-m/optiga-trust-m-1/externals/mbedtls/library/x509_crt.c ****                                      p, (int) len - 1,
1315://MAC/Home/Downloads/getstarted-optiga-trust-m/optiga-trust-m-1/externals/mbedtls/library/x509_crt.c ****                                      NULL, NULL );
1316://MAC/Home/Downloads/getstarted-optiga-trust-m/optiga-trust-m-1/externals/mbedtls/library/x509_crt.c ****         if( w_ret == 0 )
1317://MAC/Home/Downloads/getstarted-optiga-trust-m/optiga-trust-m-1/externals/mbedtls/library/x509_crt.c ****         {
1318://MAC/Home/Downloads/getstarted-optiga-trust-m/optiga-trust-m-1/externals/mbedtls/library/x509_crt.c ****             ret = MBEDTLS_ERR_X509_FILE_IO_ERROR;
1319://MAC/Home/Downloads/getstarted-optiga-trust-m/optiga-trust-m-1/externals/mbedtls/library/x509_crt.c ****             goto cleanup;
1320://MAC/Home/Downloads/getstarted-optiga-trust-m/optiga-trust-m-1/externals/mbedtls/library/x509_crt.c ****         }
1321://MAC/Home/Downloads/getstarted-optiga-trust-m/optiga-trust-m-1/externals/mbedtls/library/x509_crt.c **** 
1322://MAC/Home/Downloads/getstarted-optiga-trust-m/optiga-trust-m-1/externals/mbedtls/library/x509_crt.c ****         w_ret = mbedtls_x509_crt_parse_file( chain, filename );
1323://MAC/Home/Downloads/getstarted-optiga-trust-m/optiga-trust-m-1/externals/mbedtls/library/x509_crt.c ****         if( w_ret < 0 )
1324://MAC/Home/Downloads/getstarted-optiga-trust-m/optiga-trust-m-1/externals/mbedtls/library/x509_crt.c ****             ret++;
1325://MAC/Home/Downloads/getstarted-optiga-trust-m/optiga-trust-m-1/externals/mbedtls/library/x509_crt.c ****         else
1326://MAC/Home/Downloads/getstarted-optiga-trust-m/optiga-trust-m-1/externals/mbedtls/library/x509_crt.c ****             ret += w_ret;
1327://MAC/Home/Downloads/getstarted-optiga-trust-m/optiga-trust-m-1/externals/mbedtls/library/x509_crt.c ****     }
1328://MAC/Home/Downloads/getstarted-optiga-trust-m/optiga-trust-m-1/externals/mbedtls/library/x509_crt.c ****     while( FindNextFileW( hFind, &file_data ) != 0 );
1329://MAC/Home/Downloads/getstarted-optiga-trust-m/optiga-trust-m-1/externals/mbedtls/library/x509_crt.c **** 
1330://MAC/Home/Downloads/getstarted-optiga-trust-m/optiga-trust-m-1/externals/mbedtls/library/x509_crt.c ****     if( GetLastError() != ERROR_NO_MORE_FILES )
1331://MAC/Home/Downloads/getstarted-optiga-trust-m/optiga-trust-m-1/externals/mbedtls/library/x509_crt.c ****         ret = MBEDTLS_ERR_X509_FILE_IO_ERROR;
1332://MAC/Home/Downloads/getstarted-optiga-trust-m/optiga-trust-m-1/externals/mbedtls/library/x509_crt.c **** 
1333://MAC/Home/Downloads/getstarted-optiga-trust-m/optiga-trust-m-1/externals/mbedtls/library/x509_crt.c **** cleanup:
1334://MAC/Home/Downloads/getstarted-optiga-trust-m/optiga-trust-m-1/externals/mbedtls/library/x509_crt.c ****     FindClose( hFind );
1335://MAC/Home/Downloads/getstarted-optiga-trust-m/optiga-trust-m-1/externals/mbedtls/library/x509_crt.c **** #else /* _WIN32 */
1336://MAC/Home/Downloads/getstarted-optiga-trust-m/optiga-trust-m-1/externals/mbedtls/library/x509_crt.c ****     int t_ret;
1337://MAC/Home/Downloads/getstarted-optiga-trust-m/optiga-trust-m-1/externals/mbedtls/library/x509_crt.c ****     int snp_ret;
1338://MAC/Home/Downloads/getstarted-optiga-trust-m/optiga-trust-m-1/externals/mbedtls/library/x509_crt.c ****     struct stat sb;
1339://MAC/Home/Downloads/getstarted-optiga-trust-m/optiga-trust-m-1/externals/mbedtls/library/x509_crt.c ****     struct dirent *entry;
1340://MAC/Home/Downloads/getstarted-optiga-trust-m/optiga-trust-m-1/externals/mbedtls/library/x509_crt.c ****     char entry_name[MBEDTLS_X509_MAX_FILE_PATH_LEN];
1341://MAC/Home/Downloads/getstarted-optiga-trust-m/optiga-trust-m-1/externals/mbedtls/library/x509_crt.c ****     DIR *dir = opendir( path );
1342://MAC/Home/Downloads/getstarted-optiga-trust-m/optiga-trust-m-1/externals/mbedtls/library/x509_crt.c **** 
1343://MAC/Home/Downloads/getstarted-optiga-trust-m/optiga-trust-m-1/externals/mbedtls/library/x509_crt.c ****     if( dir == NULL )
1344://MAC/Home/Downloads/getstarted-optiga-trust-m/optiga-trust-m-1/externals/mbedtls/library/x509_crt.c ****         return( MBEDTLS_ERR_X509_FILE_IO_ERROR );
1345://MAC/Home/Downloads/getstarted-optiga-trust-m/optiga-trust-m-1/externals/mbedtls/library/x509_crt.c **** 
1346://MAC/Home/Downloads/getstarted-optiga-trust-m/optiga-trust-m-1/externals/mbedtls/library/x509_crt.c **** #if defined(MBEDTLS_THREADING_C)
1347://MAC/Home/Downloads/getstarted-optiga-trust-m/optiga-trust-m-1/externals/mbedtls/library/x509_crt.c ****     if( ( ret = mbedtls_mutex_lock( &mbedtls_threading_readdir_mutex ) ) != 0 )
1348://MAC/Home/Downloads/getstarted-optiga-trust-m/optiga-trust-m-1/externals/mbedtls/library/x509_crt.c ****     {
1349://MAC/Home/Downloads/getstarted-optiga-trust-m/optiga-trust-m-1/externals/mbedtls/library/x509_crt.c ****         closedir( dir );
1350://MAC/Home/Downloads/getstarted-optiga-trust-m/optiga-trust-m-1/externals/mbedtls/library/x509_crt.c ****         return( ret );
1351://MAC/Home/Downloads/getstarted-optiga-trust-m/optiga-trust-m-1/externals/mbedtls/library/x509_crt.c ****     }
1352://MAC/Home/Downloads/getstarted-optiga-trust-m/optiga-trust-m-1/externals/mbedtls/library/x509_crt.c **** #endif /* MBEDTLS_THREADING_C */
1353://MAC/Home/Downloads/getstarted-optiga-trust-m/optiga-trust-m-1/externals/mbedtls/library/x509_crt.c **** 
1354://MAC/Home/Downloads/getstarted-optiga-trust-m/optiga-trust-m-1/externals/mbedtls/library/x509_crt.c ****     while( ( entry = readdir( dir ) ) != NULL )
1355://MAC/Home/Downloads/getstarted-optiga-trust-m/optiga-trust-m-1/externals/mbedtls/library/x509_crt.c ****     {
1356://MAC/Home/Downloads/getstarted-optiga-trust-m/optiga-trust-m-1/externals/mbedtls/library/x509_crt.c ****         snp_ret = mbedtls_snprintf( entry_name, sizeof entry_name,
1357://MAC/Home/Downloads/getstarted-optiga-trust-m/optiga-trust-m-1/externals/mbedtls/library/x509_crt.c ****                                     "%s/%s", path, entry->d_name );
1358://MAC/Home/Downloads/getstarted-optiga-trust-m/optiga-trust-m-1/externals/mbedtls/library/x509_crt.c **** 
1359://MAC/Home/Downloads/getstarted-optiga-trust-m/optiga-trust-m-1/externals/mbedtls/library/x509_crt.c ****         if( snp_ret < 0 || (size_t)snp_ret >= sizeof entry_name )
1360://MAC/Home/Downloads/getstarted-optiga-trust-m/optiga-trust-m-1/externals/mbedtls/library/x509_crt.c ****         {
1361://MAC/Home/Downloads/getstarted-optiga-trust-m/optiga-trust-m-1/externals/mbedtls/library/x509_crt.c ****             ret = MBEDTLS_ERR_X509_BUFFER_TOO_SMALL;
1362://MAC/Home/Downloads/getstarted-optiga-trust-m/optiga-trust-m-1/externals/mbedtls/library/x509_crt.c ****             goto cleanup;
1363://MAC/Home/Downloads/getstarted-optiga-trust-m/optiga-trust-m-1/externals/mbedtls/library/x509_crt.c ****         }
1364://MAC/Home/Downloads/getstarted-optiga-trust-m/optiga-trust-m-1/externals/mbedtls/library/x509_crt.c ****         else if( stat( entry_name, &sb ) == -1 )
1365://MAC/Home/Downloads/getstarted-optiga-trust-m/optiga-trust-m-1/externals/mbedtls/library/x509_crt.c ****         {
1366://MAC/Home/Downloads/getstarted-optiga-trust-m/optiga-trust-m-1/externals/mbedtls/library/x509_crt.c ****             ret = MBEDTLS_ERR_X509_FILE_IO_ERROR;
1367://MAC/Home/Downloads/getstarted-optiga-trust-m/optiga-trust-m-1/externals/mbedtls/library/x509_crt.c ****             goto cleanup;
1368://MAC/Home/Downloads/getstarted-optiga-trust-m/optiga-trust-m-1/externals/mbedtls/library/x509_crt.c ****         }
1369://MAC/Home/Downloads/getstarted-optiga-trust-m/optiga-trust-m-1/externals/mbedtls/library/x509_crt.c **** 
1370://MAC/Home/Downloads/getstarted-optiga-trust-m/optiga-trust-m-1/externals/mbedtls/library/x509_crt.c ****         if( !S_ISREG( sb.st_mode ) )
1371://MAC/Home/Downloads/getstarted-optiga-trust-m/optiga-trust-m-1/externals/mbedtls/library/x509_crt.c ****             continue;
1372://MAC/Home/Downloads/getstarted-optiga-trust-m/optiga-trust-m-1/externals/mbedtls/library/x509_crt.c **** 
1373://MAC/Home/Downloads/getstarted-optiga-trust-m/optiga-trust-m-1/externals/mbedtls/library/x509_crt.c ****         // Ignore parse errors
1374://MAC/Home/Downloads/getstarted-optiga-trust-m/optiga-trust-m-1/externals/mbedtls/library/x509_crt.c ****         //
1375://MAC/Home/Downloads/getstarted-optiga-trust-m/optiga-trust-m-1/externals/mbedtls/library/x509_crt.c ****         t_ret = mbedtls_x509_crt_parse_file( chain, entry_name );
1376://MAC/Home/Downloads/getstarted-optiga-trust-m/optiga-trust-m-1/externals/mbedtls/library/x509_crt.c ****         if( t_ret < 0 )
1377://MAC/Home/Downloads/getstarted-optiga-trust-m/optiga-trust-m-1/externals/mbedtls/library/x509_crt.c ****             ret++;
1378://MAC/Home/Downloads/getstarted-optiga-trust-m/optiga-trust-m-1/externals/mbedtls/library/x509_crt.c ****         else
1379://MAC/Home/Downloads/getstarted-optiga-trust-m/optiga-trust-m-1/externals/mbedtls/library/x509_crt.c ****             ret += t_ret;
1380://MAC/Home/Downloads/getstarted-optiga-trust-m/optiga-trust-m-1/externals/mbedtls/library/x509_crt.c ****     }
1381://MAC/Home/Downloads/getstarted-optiga-trust-m/optiga-trust-m-1/externals/mbedtls/library/x509_crt.c **** 
1382://MAC/Home/Downloads/getstarted-optiga-trust-m/optiga-trust-m-1/externals/mbedtls/library/x509_crt.c **** cleanup:
1383://MAC/Home/Downloads/getstarted-optiga-trust-m/optiga-trust-m-1/externals/mbedtls/library/x509_crt.c ****     closedir( dir );
1384://MAC/Home/Downloads/getstarted-optiga-trust-m/optiga-trust-m-1/externals/mbedtls/library/x509_crt.c **** 
1385://MAC/Home/Downloads/getstarted-optiga-trust-m/optiga-trust-m-1/externals/mbedtls/library/x509_crt.c **** #if defined(MBEDTLS_THREADING_C)
1386://MAC/Home/Downloads/getstarted-optiga-trust-m/optiga-trust-m-1/externals/mbedtls/library/x509_crt.c ****     if( mbedtls_mutex_unlock( &mbedtls_threading_readdir_mutex ) != 0 )
1387://MAC/Home/Downloads/getstarted-optiga-trust-m/optiga-trust-m-1/externals/mbedtls/library/x509_crt.c ****         ret = MBEDTLS_ERR_THREADING_MUTEX_ERROR;
1388://MAC/Home/Downloads/getstarted-optiga-trust-m/optiga-trust-m-1/externals/mbedtls/library/x509_crt.c **** #endif /* MBEDTLS_THREADING_C */
1389://MAC/Home/Downloads/getstarted-optiga-trust-m/optiga-trust-m-1/externals/mbedtls/library/x509_crt.c **** 
1390://MAC/Home/Downloads/getstarted-optiga-trust-m/optiga-trust-m-1/externals/mbedtls/library/x509_crt.c **** #endif /* _WIN32 */
1391://MAC/Home/Downloads/getstarted-optiga-trust-m/optiga-trust-m-1/externals/mbedtls/library/x509_crt.c **** 
1392://MAC/Home/Downloads/getstarted-optiga-trust-m/optiga-trust-m-1/externals/mbedtls/library/x509_crt.c ****     return( ret );
1393://MAC/Home/Downloads/getstarted-optiga-trust-m/optiga-trust-m-1/externals/mbedtls/library/x509_crt.c **** }
1394://MAC/Home/Downloads/getstarted-optiga-trust-m/optiga-trust-m-1/externals/mbedtls/library/x509_crt.c **** #endif /* MBEDTLS_FS_IO */
1395://MAC/Home/Downloads/getstarted-optiga-trust-m/optiga-trust-m-1/externals/mbedtls/library/x509_crt.c **** 
1396://MAC/Home/Downloads/getstarted-optiga-trust-m/optiga-trust-m-1/externals/mbedtls/library/x509_crt.c **** static int x509_info_subject_alt_name( char **buf, size_t *size,
1397://MAC/Home/Downloads/getstarted-optiga-trust-m/optiga-trust-m-1/externals/mbedtls/library/x509_crt.c ****                                        const mbedtls_x509_sequence *subject_alt_name )
1398://MAC/Home/Downloads/getstarted-optiga-trust-m/optiga-trust-m-1/externals/mbedtls/library/x509_crt.c **** {
1399://MAC/Home/Downloads/getstarted-optiga-trust-m/optiga-trust-m-1/externals/mbedtls/library/x509_crt.c ****     size_t i;
1400://MAC/Home/Downloads/getstarted-optiga-trust-m/optiga-trust-m-1/externals/mbedtls/library/x509_crt.c ****     size_t n = *size;
1401://MAC/Home/Downloads/getstarted-optiga-trust-m/optiga-trust-m-1/externals/mbedtls/library/x509_crt.c ****     char *p = *buf;
1402://MAC/Home/Downloads/getstarted-optiga-trust-m/optiga-trust-m-1/externals/mbedtls/library/x509_crt.c ****     const mbedtls_x509_sequence *cur = subject_alt_name;
1403://MAC/Home/Downloads/getstarted-optiga-trust-m/optiga-trust-m-1/externals/mbedtls/library/x509_crt.c ****     const char *sep = "";
1404://MAC/Home/Downloads/getstarted-optiga-trust-m/optiga-trust-m-1/externals/mbedtls/library/x509_crt.c ****     size_t sep_len = 0;
1405://MAC/Home/Downloads/getstarted-optiga-trust-m/optiga-trust-m-1/externals/mbedtls/library/x509_crt.c **** 
1406://MAC/Home/Downloads/getstarted-optiga-trust-m/optiga-trust-m-1/externals/mbedtls/library/x509_crt.c ****     while( cur != NULL )
1407://MAC/Home/Downloads/getstarted-optiga-trust-m/optiga-trust-m-1/externals/mbedtls/library/x509_crt.c ****     {
1408://MAC/Home/Downloads/getstarted-optiga-trust-m/optiga-trust-m-1/externals/mbedtls/library/x509_crt.c ****         if( cur->buf.len + sep_len >= n )
1409://MAC/Home/Downloads/getstarted-optiga-trust-m/optiga-trust-m-1/externals/mbedtls/library/x509_crt.c ****         {
1410://MAC/Home/Downloads/getstarted-optiga-trust-m/optiga-trust-m-1/externals/mbedtls/library/x509_crt.c ****             *p = '\0';
1411://MAC/Home/Downloads/getstarted-optiga-trust-m/optiga-trust-m-1/externals/mbedtls/library/x509_crt.c ****             return( MBEDTLS_ERR_X509_BUFFER_TOO_SMALL );
1412://MAC/Home/Downloads/getstarted-optiga-trust-m/optiga-trust-m-1/externals/mbedtls/library/x509_crt.c ****         }
1413://MAC/Home/Downloads/getstarted-optiga-trust-m/optiga-trust-m-1/externals/mbedtls/library/x509_crt.c **** 
1414://MAC/Home/Downloads/getstarted-optiga-trust-m/optiga-trust-m-1/externals/mbedtls/library/x509_crt.c ****         n -= cur->buf.len + sep_len;
1415://MAC/Home/Downloads/getstarted-optiga-trust-m/optiga-trust-m-1/externals/mbedtls/library/x509_crt.c ****         for( i = 0; i < sep_len; i++ )
1416://MAC/Home/Downloads/getstarted-optiga-trust-m/optiga-trust-m-1/externals/mbedtls/library/x509_crt.c ****             *p++ = sep[i];
1417://MAC/Home/Downloads/getstarted-optiga-trust-m/optiga-trust-m-1/externals/mbedtls/library/x509_crt.c ****         for( i = 0; i < cur->buf.len; i++ )
1418://MAC/Home/Downloads/getstarted-optiga-trust-m/optiga-trust-m-1/externals/mbedtls/library/x509_crt.c ****             *p++ = cur->buf.p[i];
1419://MAC/Home/Downloads/getstarted-optiga-trust-m/optiga-trust-m-1/externals/mbedtls/library/x509_crt.c **** 
1420://MAC/Home/Downloads/getstarted-optiga-trust-m/optiga-trust-m-1/externals/mbedtls/library/x509_crt.c ****         sep = ", ";
1421://MAC/Home/Downloads/getstarted-optiga-trust-m/optiga-trust-m-1/externals/mbedtls/library/x509_crt.c ****         sep_len = 2;
1422://MAC/Home/Downloads/getstarted-optiga-trust-m/optiga-trust-m-1/externals/mbedtls/library/x509_crt.c **** 
1423://MAC/Home/Downloads/getstarted-optiga-trust-m/optiga-trust-m-1/externals/mbedtls/library/x509_crt.c ****         cur = cur->next;
1424://MAC/Home/Downloads/getstarted-optiga-trust-m/optiga-trust-m-1/externals/mbedtls/library/x509_crt.c ****     }
1425://MAC/Home/Downloads/getstarted-optiga-trust-m/optiga-trust-m-1/externals/mbedtls/library/x509_crt.c **** 
1426://MAC/Home/Downloads/getstarted-optiga-trust-m/optiga-trust-m-1/externals/mbedtls/library/x509_crt.c ****     *p = '\0';
1427://MAC/Home/Downloads/getstarted-optiga-trust-m/optiga-trust-m-1/externals/mbedtls/library/x509_crt.c **** 
1428://MAC/Home/Downloads/getstarted-optiga-trust-m/optiga-trust-m-1/externals/mbedtls/library/x509_crt.c ****     *size = n;
1429://MAC/Home/Downloads/getstarted-optiga-trust-m/optiga-trust-m-1/externals/mbedtls/library/x509_crt.c ****     *buf = p;
1430://MAC/Home/Downloads/getstarted-optiga-trust-m/optiga-trust-m-1/externals/mbedtls/library/x509_crt.c **** 
1431://MAC/Home/Downloads/getstarted-optiga-trust-m/optiga-trust-m-1/externals/mbedtls/library/x509_crt.c ****     return( 0 );
1432://MAC/Home/Downloads/getstarted-optiga-trust-m/optiga-trust-m-1/externals/mbedtls/library/x509_crt.c **** }
1433://MAC/Home/Downloads/getstarted-optiga-trust-m/optiga-trust-m-1/externals/mbedtls/library/x509_crt.c **** 
1434://MAC/Home/Downloads/getstarted-optiga-trust-m/optiga-trust-m-1/externals/mbedtls/library/x509_crt.c **** #define PRINT_ITEM(i)                           \
1435://MAC/Home/Downloads/getstarted-optiga-trust-m/optiga-trust-m-1/externals/mbedtls/library/x509_crt.c ****     {                                           \
1436://MAC/Home/Downloads/getstarted-optiga-trust-m/optiga-trust-m-1/externals/mbedtls/library/x509_crt.c ****         ret = mbedtls_snprintf( p, n, "%s" i, sep );    \
1437://MAC/Home/Downloads/getstarted-optiga-trust-m/optiga-trust-m-1/externals/mbedtls/library/x509_crt.c ****         MBEDTLS_X509_SAFE_SNPRINTF;                        \
1438://MAC/Home/Downloads/getstarted-optiga-trust-m/optiga-trust-m-1/externals/mbedtls/library/x509_crt.c ****         sep = ", ";                             \
1439://MAC/Home/Downloads/getstarted-optiga-trust-m/optiga-trust-m-1/externals/mbedtls/library/x509_crt.c ****     }
1440://MAC/Home/Downloads/getstarted-optiga-trust-m/optiga-trust-m-1/externals/mbedtls/library/x509_crt.c **** 
1441://MAC/Home/Downloads/getstarted-optiga-trust-m/optiga-trust-m-1/externals/mbedtls/library/x509_crt.c **** #define CERT_TYPE(type,name)                    \
1442://MAC/Home/Downloads/getstarted-optiga-trust-m/optiga-trust-m-1/externals/mbedtls/library/x509_crt.c ****     if( ns_cert_type & type )                   \
1443://MAC/Home/Downloads/getstarted-optiga-trust-m/optiga-trust-m-1/externals/mbedtls/library/x509_crt.c ****         PRINT_ITEM( name );
1444://MAC/Home/Downloads/getstarted-optiga-trust-m/optiga-trust-m-1/externals/mbedtls/library/x509_crt.c **** 
1445://MAC/Home/Downloads/getstarted-optiga-trust-m/optiga-trust-m-1/externals/mbedtls/library/x509_crt.c **** static int x509_info_cert_type( char **buf, size_t *size,
1446://MAC/Home/Downloads/getstarted-optiga-trust-m/optiga-trust-m-1/externals/mbedtls/library/x509_crt.c ****                                 unsigned char ns_cert_type )
1447://MAC/Home/Downloads/getstarted-optiga-trust-m/optiga-trust-m-1/externals/mbedtls/library/x509_crt.c **** {
1448://MAC/Home/Downloads/getstarted-optiga-trust-m/optiga-trust-m-1/externals/mbedtls/library/x509_crt.c ****     int ret;
1449://MAC/Home/Downloads/getstarted-optiga-trust-m/optiga-trust-m-1/externals/mbedtls/library/x509_crt.c ****     size_t n = *size;
1450://MAC/Home/Downloads/getstarted-optiga-trust-m/optiga-trust-m-1/externals/mbedtls/library/x509_crt.c ****     char *p = *buf;
1451://MAC/Home/Downloads/getstarted-optiga-trust-m/optiga-trust-m-1/externals/mbedtls/library/x509_crt.c ****     const char *sep = "";
1452://MAC/Home/Downloads/getstarted-optiga-trust-m/optiga-trust-m-1/externals/mbedtls/library/x509_crt.c **** 
1453://MAC/Home/Downloads/getstarted-optiga-trust-m/optiga-trust-m-1/externals/mbedtls/library/x509_crt.c ****     CERT_TYPE( MBEDTLS_X509_NS_CERT_TYPE_SSL_CLIENT,         "SSL Client" );
1454://MAC/Home/Downloads/getstarted-optiga-trust-m/optiga-trust-m-1/externals/mbedtls/library/x509_crt.c ****     CERT_TYPE( MBEDTLS_X509_NS_CERT_TYPE_SSL_SERVER,         "SSL Server" );
1455://MAC/Home/Downloads/getstarted-optiga-trust-m/optiga-trust-m-1/externals/mbedtls/library/x509_crt.c ****     CERT_TYPE( MBEDTLS_X509_NS_CERT_TYPE_EMAIL,              "Email" );
1456://MAC/Home/Downloads/getstarted-optiga-trust-m/optiga-trust-m-1/externals/mbedtls/library/x509_crt.c ****     CERT_TYPE( MBEDTLS_X509_NS_CERT_TYPE_OBJECT_SIGNING,     "Object Signing" );
1457://MAC/Home/Downloads/getstarted-optiga-trust-m/optiga-trust-m-1/externals/mbedtls/library/x509_crt.c ****     CERT_TYPE( MBEDTLS_X509_NS_CERT_TYPE_RESERVED,           "Reserved" );
1458://MAC/Home/Downloads/getstarted-optiga-trust-m/optiga-trust-m-1/externals/mbedtls/library/x509_crt.c ****     CERT_TYPE( MBEDTLS_X509_NS_CERT_TYPE_SSL_CA,             "SSL CA" );
1459://MAC/Home/Downloads/getstarted-optiga-trust-m/optiga-trust-m-1/externals/mbedtls/library/x509_crt.c ****     CERT_TYPE( MBEDTLS_X509_NS_CERT_TYPE_EMAIL_CA,           "Email CA" );
1460://MAC/Home/Downloads/getstarted-optiga-trust-m/optiga-trust-m-1/externals/mbedtls/library/x509_crt.c ****     CERT_TYPE( MBEDTLS_X509_NS_CERT_TYPE_OBJECT_SIGNING_CA,  "Object Signing CA" );
1461://MAC/Home/Downloads/getstarted-optiga-trust-m/optiga-trust-m-1/externals/mbedtls/library/x509_crt.c **** 
1462://MAC/Home/Downloads/getstarted-optiga-trust-m/optiga-trust-m-1/externals/mbedtls/library/x509_crt.c ****     *size = n;
1463://MAC/Home/Downloads/getstarted-optiga-trust-m/optiga-trust-m-1/externals/mbedtls/library/x509_crt.c ****     *buf = p;
1464://MAC/Home/Downloads/getstarted-optiga-trust-m/optiga-trust-m-1/externals/mbedtls/library/x509_crt.c **** 
1465://MAC/Home/Downloads/getstarted-optiga-trust-m/optiga-trust-m-1/externals/mbedtls/library/x509_crt.c ****     return( 0 );
1466://MAC/Home/Downloads/getstarted-optiga-trust-m/optiga-trust-m-1/externals/mbedtls/library/x509_crt.c **** }
1467://MAC/Home/Downloads/getstarted-optiga-trust-m/optiga-trust-m-1/externals/mbedtls/library/x509_crt.c **** 
1468://MAC/Home/Downloads/getstarted-optiga-trust-m/optiga-trust-m-1/externals/mbedtls/library/x509_crt.c **** #define KEY_USAGE(code,name)    \
1469://MAC/Home/Downloads/getstarted-optiga-trust-m/optiga-trust-m-1/externals/mbedtls/library/x509_crt.c ****     if( key_usage & code )      \
1470://MAC/Home/Downloads/getstarted-optiga-trust-m/optiga-trust-m-1/externals/mbedtls/library/x509_crt.c ****         PRINT_ITEM( name );
1471://MAC/Home/Downloads/getstarted-optiga-trust-m/optiga-trust-m-1/externals/mbedtls/library/x509_crt.c **** 
1472://MAC/Home/Downloads/getstarted-optiga-trust-m/optiga-trust-m-1/externals/mbedtls/library/x509_crt.c **** static int x509_info_key_usage( char **buf, size_t *size,
1473://MAC/Home/Downloads/getstarted-optiga-trust-m/optiga-trust-m-1/externals/mbedtls/library/x509_crt.c ****                                 unsigned int key_usage )
1474://MAC/Home/Downloads/getstarted-optiga-trust-m/optiga-trust-m-1/externals/mbedtls/library/x509_crt.c **** {
1475://MAC/Home/Downloads/getstarted-optiga-trust-m/optiga-trust-m-1/externals/mbedtls/library/x509_crt.c ****     int ret;
1476://MAC/Home/Downloads/getstarted-optiga-trust-m/optiga-trust-m-1/externals/mbedtls/library/x509_crt.c ****     size_t n = *size;
1477://MAC/Home/Downloads/getstarted-optiga-trust-m/optiga-trust-m-1/externals/mbedtls/library/x509_crt.c ****     char *p = *buf;
1478://MAC/Home/Downloads/getstarted-optiga-trust-m/optiga-trust-m-1/externals/mbedtls/library/x509_crt.c ****     const char *sep = "";
1479://MAC/Home/Downloads/getstarted-optiga-trust-m/optiga-trust-m-1/externals/mbedtls/library/x509_crt.c **** 
1480://MAC/Home/Downloads/getstarted-optiga-trust-m/optiga-trust-m-1/externals/mbedtls/library/x509_crt.c ****     KEY_USAGE( MBEDTLS_X509_KU_DIGITAL_SIGNATURE,    "Digital Signature" );
1481://MAC/Home/Downloads/getstarted-optiga-trust-m/optiga-trust-m-1/externals/mbedtls/library/x509_crt.c ****     KEY_USAGE( MBEDTLS_X509_KU_NON_REPUDIATION,      "Non Repudiation" );
1482://MAC/Home/Downloads/getstarted-optiga-trust-m/optiga-trust-m-1/externals/mbedtls/library/x509_crt.c ****     KEY_USAGE( MBEDTLS_X509_KU_KEY_ENCIPHERMENT,     "Key Encipherment" );
1483://MAC/Home/Downloads/getstarted-optiga-trust-m/optiga-trust-m-1/externals/mbedtls/library/x509_crt.c ****     KEY_USAGE( MBEDTLS_X509_KU_DATA_ENCIPHERMENT,    "Data Encipherment" );
1484://MAC/Home/Downloads/getstarted-optiga-trust-m/optiga-trust-m-1/externals/mbedtls/library/x509_crt.c ****     KEY_USAGE( MBEDTLS_X509_KU_KEY_AGREEMENT,        "Key Agreement" );
1485://MAC/Home/Downloads/getstarted-optiga-trust-m/optiga-trust-m-1/externals/mbedtls/library/x509_crt.c ****     KEY_USAGE( MBEDTLS_X509_KU_KEY_CERT_SIGN,        "Key Cert Sign" );
1486://MAC/Home/Downloads/getstarted-optiga-trust-m/optiga-trust-m-1/externals/mbedtls/library/x509_crt.c ****     KEY_USAGE( MBEDTLS_X509_KU_CRL_SIGN,             "CRL Sign" );
1487://MAC/Home/Downloads/getstarted-optiga-trust-m/optiga-trust-m-1/externals/mbedtls/library/x509_crt.c ****     KEY_USAGE( MBEDTLS_X509_KU_ENCIPHER_ONLY,        "Encipher Only" );
1488://MAC/Home/Downloads/getstarted-optiga-trust-m/optiga-trust-m-1/externals/mbedtls/library/x509_crt.c ****     KEY_USAGE( MBEDTLS_X509_KU_DECIPHER_ONLY,        "Decipher Only" );
1489://MAC/Home/Downloads/getstarted-optiga-trust-m/optiga-trust-m-1/externals/mbedtls/library/x509_crt.c **** 
1490://MAC/Home/Downloads/getstarted-optiga-trust-m/optiga-trust-m-1/externals/mbedtls/library/x509_crt.c ****     *size = n;
1491://MAC/Home/Downloads/getstarted-optiga-trust-m/optiga-trust-m-1/externals/mbedtls/library/x509_crt.c ****     *buf = p;
1492://MAC/Home/Downloads/getstarted-optiga-trust-m/optiga-trust-m-1/externals/mbedtls/library/x509_crt.c **** 
1493://MAC/Home/Downloads/getstarted-optiga-trust-m/optiga-trust-m-1/externals/mbedtls/library/x509_crt.c ****     return( 0 );
1494://MAC/Home/Downloads/getstarted-optiga-trust-m/optiga-trust-m-1/externals/mbedtls/library/x509_crt.c **** }
1495://MAC/Home/Downloads/getstarted-optiga-trust-m/optiga-trust-m-1/externals/mbedtls/library/x509_crt.c **** 
1496://MAC/Home/Downloads/getstarted-optiga-trust-m/optiga-trust-m-1/externals/mbedtls/library/x509_crt.c **** static int x509_info_ext_key_usage( char **buf, size_t *size,
1497://MAC/Home/Downloads/getstarted-optiga-trust-m/optiga-trust-m-1/externals/mbedtls/library/x509_crt.c ****                                     const mbedtls_x509_sequence *extended_key_usage )
1498://MAC/Home/Downloads/getstarted-optiga-trust-m/optiga-trust-m-1/externals/mbedtls/library/x509_crt.c **** {
1499://MAC/Home/Downloads/getstarted-optiga-trust-m/optiga-trust-m-1/externals/mbedtls/library/x509_crt.c ****     int ret;
1500://MAC/Home/Downloads/getstarted-optiga-trust-m/optiga-trust-m-1/externals/mbedtls/library/x509_crt.c ****     const char *desc;
1501://MAC/Home/Downloads/getstarted-optiga-trust-m/optiga-trust-m-1/externals/mbedtls/library/x509_crt.c ****     size_t n = *size;
1502://MAC/Home/Downloads/getstarted-optiga-trust-m/optiga-trust-m-1/externals/mbedtls/library/x509_crt.c ****     char *p = *buf;
1503://MAC/Home/Downloads/getstarted-optiga-trust-m/optiga-trust-m-1/externals/mbedtls/library/x509_crt.c ****     const mbedtls_x509_sequence *cur = extended_key_usage;
1504://MAC/Home/Downloads/getstarted-optiga-trust-m/optiga-trust-m-1/externals/mbedtls/library/x509_crt.c ****     const char *sep = "";
1505://MAC/Home/Downloads/getstarted-optiga-trust-m/optiga-trust-m-1/externals/mbedtls/library/x509_crt.c **** 
1506://MAC/Home/Downloads/getstarted-optiga-trust-m/optiga-trust-m-1/externals/mbedtls/library/x509_crt.c ****     while( cur != NULL )
1507://MAC/Home/Downloads/getstarted-optiga-trust-m/optiga-trust-m-1/externals/mbedtls/library/x509_crt.c ****     {
1508://MAC/Home/Downloads/getstarted-optiga-trust-m/optiga-trust-m-1/externals/mbedtls/library/x509_crt.c ****         if( mbedtls_oid_get_extended_key_usage( &cur->buf, &desc ) != 0 )
1509://MAC/Home/Downloads/getstarted-optiga-trust-m/optiga-trust-m-1/externals/mbedtls/library/x509_crt.c ****             desc = "???";
1510://MAC/Home/Downloads/getstarted-optiga-trust-m/optiga-trust-m-1/externals/mbedtls/library/x509_crt.c **** 
1511://MAC/Home/Downloads/getstarted-optiga-trust-m/optiga-trust-m-1/externals/mbedtls/library/x509_crt.c ****         ret = mbedtls_snprintf( p, n, "%s%s", sep, desc );
1512://MAC/Home/Downloads/getstarted-optiga-trust-m/optiga-trust-m-1/externals/mbedtls/library/x509_crt.c ****         MBEDTLS_X509_SAFE_SNPRINTF;
1513://MAC/Home/Downloads/getstarted-optiga-trust-m/optiga-trust-m-1/externals/mbedtls/library/x509_crt.c **** 
1514://MAC/Home/Downloads/getstarted-optiga-trust-m/optiga-trust-m-1/externals/mbedtls/library/x509_crt.c ****         sep = ", ";
1515://MAC/Home/Downloads/getstarted-optiga-trust-m/optiga-trust-m-1/externals/mbedtls/library/x509_crt.c **** 
1516://MAC/Home/Downloads/getstarted-optiga-trust-m/optiga-trust-m-1/externals/mbedtls/library/x509_crt.c ****         cur = cur->next;
1517://MAC/Home/Downloads/getstarted-optiga-trust-m/optiga-trust-m-1/externals/mbedtls/library/x509_crt.c ****     }
1518://MAC/Home/Downloads/getstarted-optiga-trust-m/optiga-trust-m-1/externals/mbedtls/library/x509_crt.c **** 
1519://MAC/Home/Downloads/getstarted-optiga-trust-m/optiga-trust-m-1/externals/mbedtls/library/x509_crt.c ****     *size = n;
1520://MAC/Home/Downloads/getstarted-optiga-trust-m/optiga-trust-m-1/externals/mbedtls/library/x509_crt.c ****     *buf = p;
1521://MAC/Home/Downloads/getstarted-optiga-trust-m/optiga-trust-m-1/externals/mbedtls/library/x509_crt.c **** 
1522://MAC/Home/Downloads/getstarted-optiga-trust-m/optiga-trust-m-1/externals/mbedtls/library/x509_crt.c ****     return( 0 );
1523://MAC/Home/Downloads/getstarted-optiga-trust-m/optiga-trust-m-1/externals/mbedtls/library/x509_crt.c **** }
1524://MAC/Home/Downloads/getstarted-optiga-trust-m/optiga-trust-m-1/externals/mbedtls/library/x509_crt.c **** 
1525://MAC/Home/Downloads/getstarted-optiga-trust-m/optiga-trust-m-1/externals/mbedtls/library/x509_crt.c **** /*
1526://MAC/Home/Downloads/getstarted-optiga-trust-m/optiga-trust-m-1/externals/mbedtls/library/x509_crt.c ****  * Return an informational string about the certificate.
1527://MAC/Home/Downloads/getstarted-optiga-trust-m/optiga-trust-m-1/externals/mbedtls/library/x509_crt.c ****  */
1528://MAC/Home/Downloads/getstarted-optiga-trust-m/optiga-trust-m-1/externals/mbedtls/library/x509_crt.c **** #define BEFORE_COLON    18
1529://MAC/Home/Downloads/getstarted-optiga-trust-m/optiga-trust-m-1/externals/mbedtls/library/x509_crt.c **** #define BC              "18"
1530://MAC/Home/Downloads/getstarted-optiga-trust-m/optiga-trust-m-1/externals/mbedtls/library/x509_crt.c **** int mbedtls_x509_crt_info( char *buf, size_t size, const char *prefix,
1531://MAC/Home/Downloads/getstarted-optiga-trust-m/optiga-trust-m-1/externals/mbedtls/library/x509_crt.c ****                    const mbedtls_x509_crt *crt )
1532://MAC/Home/Downloads/getstarted-optiga-trust-m/optiga-trust-m-1/externals/mbedtls/library/x509_crt.c **** {
1533://MAC/Home/Downloads/getstarted-optiga-trust-m/optiga-trust-m-1/externals/mbedtls/library/x509_crt.c ****     int ret;
1534://MAC/Home/Downloads/getstarted-optiga-trust-m/optiga-trust-m-1/externals/mbedtls/library/x509_crt.c ****     size_t n;
1535://MAC/Home/Downloads/getstarted-optiga-trust-m/optiga-trust-m-1/externals/mbedtls/library/x509_crt.c ****     char *p;
1536://MAC/Home/Downloads/getstarted-optiga-trust-m/optiga-trust-m-1/externals/mbedtls/library/x509_crt.c ****     char key_size_str[BEFORE_COLON];
1537://MAC/Home/Downloads/getstarted-optiga-trust-m/optiga-trust-m-1/externals/mbedtls/library/x509_crt.c **** 
1538://MAC/Home/Downloads/getstarted-optiga-trust-m/optiga-trust-m-1/externals/mbedtls/library/x509_crt.c ****     p = buf;
1539://MAC/Home/Downloads/getstarted-optiga-trust-m/optiga-trust-m-1/externals/mbedtls/library/x509_crt.c ****     n = size;
1540://MAC/Home/Downloads/getstarted-optiga-trust-m/optiga-trust-m-1/externals/mbedtls/library/x509_crt.c **** 
1541://MAC/Home/Downloads/getstarted-optiga-trust-m/optiga-trust-m-1/externals/mbedtls/library/x509_crt.c ****     if( NULL == crt )
1542://MAC/Home/Downloads/getstarted-optiga-trust-m/optiga-trust-m-1/externals/mbedtls/library/x509_crt.c ****     {
1543://MAC/Home/Downloads/getstarted-optiga-trust-m/optiga-trust-m-1/externals/mbedtls/library/x509_crt.c ****         ret = mbedtls_snprintf( p, n, "\nCertificate is uninitialised!\n" );
1544://MAC/Home/Downloads/getstarted-optiga-trust-m/optiga-trust-m-1/externals/mbedtls/library/x509_crt.c ****         MBEDTLS_X509_SAFE_SNPRINTF;
1545://MAC/Home/Downloads/getstarted-optiga-trust-m/optiga-trust-m-1/externals/mbedtls/library/x509_crt.c **** 
1546://MAC/Home/Downloads/getstarted-optiga-trust-m/optiga-trust-m-1/externals/mbedtls/library/x509_crt.c ****         return( (int) ( size - n ) );
1547://MAC/Home/Downloads/getstarted-optiga-trust-m/optiga-trust-m-1/externals/mbedtls/library/x509_crt.c ****     }
1548://MAC/Home/Downloads/getstarted-optiga-trust-m/optiga-trust-m-1/externals/mbedtls/library/x509_crt.c **** 
1549://MAC/Home/Downloads/getstarted-optiga-trust-m/optiga-trust-m-1/externals/mbedtls/library/x509_crt.c ****     ret = mbedtls_snprintf( p, n, "%scert. version     : %d\n",
1550://MAC/Home/Downloads/getstarted-optiga-trust-m/optiga-trust-m-1/externals/mbedtls/library/x509_crt.c ****                                prefix, crt->version );
1551://MAC/Home/Downloads/getstarted-optiga-trust-m/optiga-trust-m-1/externals/mbedtls/library/x509_crt.c ****     MBEDTLS_X509_SAFE_SNPRINTF;
1552://MAC/Home/Downloads/getstarted-optiga-trust-m/optiga-trust-m-1/externals/mbedtls/library/x509_crt.c ****     ret = mbedtls_snprintf( p, n, "%sserial number     : ",
1553://MAC/Home/Downloads/getstarted-optiga-trust-m/optiga-trust-m-1/externals/mbedtls/library/x509_crt.c ****                                prefix );
1554://MAC/Home/Downloads/getstarted-optiga-trust-m/optiga-trust-m-1/externals/mbedtls/library/x509_crt.c ****     MBEDTLS_X509_SAFE_SNPRINTF;
1555://MAC/Home/Downloads/getstarted-optiga-trust-m/optiga-trust-m-1/externals/mbedtls/library/x509_crt.c **** 
1556://MAC/Home/Downloads/getstarted-optiga-trust-m/optiga-trust-m-1/externals/mbedtls/library/x509_crt.c ****     ret = mbedtls_x509_serial_gets( p, n, &crt->serial );
1557://MAC/Home/Downloads/getstarted-optiga-trust-m/optiga-trust-m-1/externals/mbedtls/library/x509_crt.c ****     MBEDTLS_X509_SAFE_SNPRINTF;
1558://MAC/Home/Downloads/getstarted-optiga-trust-m/optiga-trust-m-1/externals/mbedtls/library/x509_crt.c **** 
1559://MAC/Home/Downloads/getstarted-optiga-trust-m/optiga-trust-m-1/externals/mbedtls/library/x509_crt.c ****     ret = mbedtls_snprintf( p, n, "\n%sissuer name       : ", prefix );
1560://MAC/Home/Downloads/getstarted-optiga-trust-m/optiga-trust-m-1/externals/mbedtls/library/x509_crt.c ****     MBEDTLS_X509_SAFE_SNPRINTF;
1561://MAC/Home/Downloads/getstarted-optiga-trust-m/optiga-trust-m-1/externals/mbedtls/library/x509_crt.c ****     ret = mbedtls_x509_dn_gets( p, n, &crt->issuer  );
1562://MAC/Home/Downloads/getstarted-optiga-trust-m/optiga-trust-m-1/externals/mbedtls/library/x509_crt.c ****     MBEDTLS_X509_SAFE_SNPRINTF;
1563://MAC/Home/Downloads/getstarted-optiga-trust-m/optiga-trust-m-1/externals/mbedtls/library/x509_crt.c **** 
1564://MAC/Home/Downloads/getstarted-optiga-trust-m/optiga-trust-m-1/externals/mbedtls/library/x509_crt.c ****     ret = mbedtls_snprintf( p, n, "\n%ssubject name      : ", prefix );
1565://MAC/Home/Downloads/getstarted-optiga-trust-m/optiga-trust-m-1/externals/mbedtls/library/x509_crt.c ****     MBEDTLS_X509_SAFE_SNPRINTF;
1566://MAC/Home/Downloads/getstarted-optiga-trust-m/optiga-trust-m-1/externals/mbedtls/library/x509_crt.c ****     ret = mbedtls_x509_dn_gets( p, n, &crt->subject );
1567://MAC/Home/Downloads/getstarted-optiga-trust-m/optiga-trust-m-1/externals/mbedtls/library/x509_crt.c ****     MBEDTLS_X509_SAFE_SNPRINTF;
1568://MAC/Home/Downloads/getstarted-optiga-trust-m/optiga-trust-m-1/externals/mbedtls/library/x509_crt.c **** 
1569://MAC/Home/Downloads/getstarted-optiga-trust-m/optiga-trust-m-1/externals/mbedtls/library/x509_crt.c ****     ret = mbedtls_snprintf( p, n, "\n%sissued  on        : " \
1570://MAC/Home/Downloads/getstarted-optiga-trust-m/optiga-trust-m-1/externals/mbedtls/library/x509_crt.c ****                    "%04d-%02d-%02d %02d:%02d:%02d", prefix,
1571://MAC/Home/Downloads/getstarted-optiga-trust-m/optiga-trust-m-1/externals/mbedtls/library/x509_crt.c ****                    crt->valid_from.year, crt->valid_from.mon,
1572://MAC/Home/Downloads/getstarted-optiga-trust-m/optiga-trust-m-1/externals/mbedtls/library/x509_crt.c ****                    crt->valid_from.day,  crt->valid_from.hour,
1573://MAC/Home/Downloads/getstarted-optiga-trust-m/optiga-trust-m-1/externals/mbedtls/library/x509_crt.c ****                    crt->valid_from.min,  crt->valid_from.sec );
1574://MAC/Home/Downloads/getstarted-optiga-trust-m/optiga-trust-m-1/externals/mbedtls/library/x509_crt.c ****     MBEDTLS_X509_SAFE_SNPRINTF;
1575://MAC/Home/Downloads/getstarted-optiga-trust-m/optiga-trust-m-1/externals/mbedtls/library/x509_crt.c **** 
1576://MAC/Home/Downloads/getstarted-optiga-trust-m/optiga-trust-m-1/externals/mbedtls/library/x509_crt.c ****     ret = mbedtls_snprintf( p, n, "\n%sexpires on        : " \
1577://MAC/Home/Downloads/getstarted-optiga-trust-m/optiga-trust-m-1/externals/mbedtls/library/x509_crt.c ****                    "%04d-%02d-%02d %02d:%02d:%02d", prefix,
1578://MAC/Home/Downloads/getstarted-optiga-trust-m/optiga-trust-m-1/externals/mbedtls/library/x509_crt.c ****                    crt->valid_to.year, crt->valid_to.mon,
1579://MAC/Home/Downloads/getstarted-optiga-trust-m/optiga-trust-m-1/externals/mbedtls/library/x509_crt.c ****                    crt->valid_to.day,  crt->valid_to.hour,
1580://MAC/Home/Downloads/getstarted-optiga-trust-m/optiga-trust-m-1/externals/mbedtls/library/x509_crt.c ****                    crt->valid_to.min,  crt->valid_to.sec );
1581://MAC/Home/Downloads/getstarted-optiga-trust-m/optiga-trust-m-1/externals/mbedtls/library/x509_crt.c ****     MBEDTLS_X509_SAFE_SNPRINTF;
1582://MAC/Home/Downloads/getstarted-optiga-trust-m/optiga-trust-m-1/externals/mbedtls/library/x509_crt.c **** 
1583://MAC/Home/Downloads/getstarted-optiga-trust-m/optiga-trust-m-1/externals/mbedtls/library/x509_crt.c ****     ret = mbedtls_snprintf( p, n, "\n%ssigned using      : ", prefix );
1584://MAC/Home/Downloads/getstarted-optiga-trust-m/optiga-trust-m-1/externals/mbedtls/library/x509_crt.c ****     MBEDTLS_X509_SAFE_SNPRINTF;
1585://MAC/Home/Downloads/getstarted-optiga-trust-m/optiga-trust-m-1/externals/mbedtls/library/x509_crt.c **** 
1586://MAC/Home/Downloads/getstarted-optiga-trust-m/optiga-trust-m-1/externals/mbedtls/library/x509_crt.c ****     ret = mbedtls_x509_sig_alg_gets( p, n, &crt->sig_oid, crt->sig_pk,
1587://MAC/Home/Downloads/getstarted-optiga-trust-m/optiga-trust-m-1/externals/mbedtls/library/x509_crt.c ****                              crt->sig_md, crt->sig_opts );
1588://MAC/Home/Downloads/getstarted-optiga-trust-m/optiga-trust-m-1/externals/mbedtls/library/x509_crt.c ****     MBEDTLS_X509_SAFE_SNPRINTF;
1589://MAC/Home/Downloads/getstarted-optiga-trust-m/optiga-trust-m-1/externals/mbedtls/library/x509_crt.c **** 
1590://MAC/Home/Downloads/getstarted-optiga-trust-m/optiga-trust-m-1/externals/mbedtls/library/x509_crt.c ****     /* Key size */
1591://MAC/Home/Downloads/getstarted-optiga-trust-m/optiga-trust-m-1/externals/mbedtls/library/x509_crt.c ****     if( ( ret = mbedtls_x509_key_size_helper( key_size_str, BEFORE_COLON,
1592://MAC/Home/Downloads/getstarted-optiga-trust-m/optiga-trust-m-1/externals/mbedtls/library/x509_crt.c ****                                       mbedtls_pk_get_name( &crt->pk ) ) ) != 0 )
1593://MAC/Home/Downloads/getstarted-optiga-trust-m/optiga-trust-m-1/externals/mbedtls/library/x509_crt.c ****     {
1594://MAC/Home/Downloads/getstarted-optiga-trust-m/optiga-trust-m-1/externals/mbedtls/library/x509_crt.c ****         return( ret );
1595://MAC/Home/Downloads/getstarted-optiga-trust-m/optiga-trust-m-1/externals/mbedtls/library/x509_crt.c ****     }
1596://MAC/Home/Downloads/getstarted-optiga-trust-m/optiga-trust-m-1/externals/mbedtls/library/x509_crt.c **** 
1597://MAC/Home/Downloads/getstarted-optiga-trust-m/optiga-trust-m-1/externals/mbedtls/library/x509_crt.c ****     ret = mbedtls_snprintf( p, n, "\n%s%-" BC "s: %d bits", prefix, key_size_str,
1598://MAC/Home/Downloads/getstarted-optiga-trust-m/optiga-trust-m-1/externals/mbedtls/library/x509_crt.c ****                           (int) mbedtls_pk_get_bitlen( &crt->pk ) );
1599://MAC/Home/Downloads/getstarted-optiga-trust-m/optiga-trust-m-1/externals/mbedtls/library/x509_crt.c ****     MBEDTLS_X509_SAFE_SNPRINTF;
1600://MAC/Home/Downloads/getstarted-optiga-trust-m/optiga-trust-m-1/externals/mbedtls/library/x509_crt.c **** 
1601://MAC/Home/Downloads/getstarted-optiga-trust-m/optiga-trust-m-1/externals/mbedtls/library/x509_crt.c ****     /*
1602://MAC/Home/Downloads/getstarted-optiga-trust-m/optiga-trust-m-1/externals/mbedtls/library/x509_crt.c ****      * Optional extensions
1603://MAC/Home/Downloads/getstarted-optiga-trust-m/optiga-trust-m-1/externals/mbedtls/library/x509_crt.c ****      */
1604://MAC/Home/Downloads/getstarted-optiga-trust-m/optiga-trust-m-1/externals/mbedtls/library/x509_crt.c **** 
1605://MAC/Home/Downloads/getstarted-optiga-trust-m/optiga-trust-m-1/externals/mbedtls/library/x509_crt.c ****     if( crt->ext_types & MBEDTLS_X509_EXT_BASIC_CONSTRAINTS )
1606://MAC/Home/Downloads/getstarted-optiga-trust-m/optiga-trust-m-1/externals/mbedtls/library/x509_crt.c ****     {
1607://MAC/Home/Downloads/getstarted-optiga-trust-m/optiga-trust-m-1/externals/mbedtls/library/x509_crt.c ****         ret = mbedtls_snprintf( p, n, "\n%sbasic constraints : CA=%s", prefix,
1608://MAC/Home/Downloads/getstarted-optiga-trust-m/optiga-trust-m-1/externals/mbedtls/library/x509_crt.c ****                         crt->ca_istrue ? "true" : "false" );
1609://MAC/Home/Downloads/getstarted-optiga-trust-m/optiga-trust-m-1/externals/mbedtls/library/x509_crt.c ****         MBEDTLS_X509_SAFE_SNPRINTF;
1610://MAC/Home/Downloads/getstarted-optiga-trust-m/optiga-trust-m-1/externals/mbedtls/library/x509_crt.c **** 
1611://MAC/Home/Downloads/getstarted-optiga-trust-m/optiga-trust-m-1/externals/mbedtls/library/x509_crt.c ****         if( crt->max_pathlen > 0 )
1612://MAC/Home/Downloads/getstarted-optiga-trust-m/optiga-trust-m-1/externals/mbedtls/library/x509_crt.c ****         {
1613://MAC/Home/Downloads/getstarted-optiga-trust-m/optiga-trust-m-1/externals/mbedtls/library/x509_crt.c ****             ret = mbedtls_snprintf( p, n, ", max_pathlen=%d", crt->max_pathlen - 1 );
1614://MAC/Home/Downloads/getstarted-optiga-trust-m/optiga-trust-m-1/externals/mbedtls/library/x509_crt.c ****             MBEDTLS_X509_SAFE_SNPRINTF;
1615://MAC/Home/Downloads/getstarted-optiga-trust-m/optiga-trust-m-1/externals/mbedtls/library/x509_crt.c ****         }
1616://MAC/Home/Downloads/getstarted-optiga-trust-m/optiga-trust-m-1/externals/mbedtls/library/x509_crt.c ****     }
1617://MAC/Home/Downloads/getstarted-optiga-trust-m/optiga-trust-m-1/externals/mbedtls/library/x509_crt.c **** 
1618://MAC/Home/Downloads/getstarted-optiga-trust-m/optiga-trust-m-1/externals/mbedtls/library/x509_crt.c ****     if( crt->ext_types & MBEDTLS_X509_EXT_SUBJECT_ALT_NAME )
1619://MAC/Home/Downloads/getstarted-optiga-trust-m/optiga-trust-m-1/externals/mbedtls/library/x509_crt.c ****     {
1620://MAC/Home/Downloads/getstarted-optiga-trust-m/optiga-trust-m-1/externals/mbedtls/library/x509_crt.c ****         ret = mbedtls_snprintf( p, n, "\n%ssubject alt name  : ", prefix );
1621://MAC/Home/Downloads/getstarted-optiga-trust-m/optiga-trust-m-1/externals/mbedtls/library/x509_crt.c ****         MBEDTLS_X509_SAFE_SNPRINTF;
1622://MAC/Home/Downloads/getstarted-optiga-trust-m/optiga-trust-m-1/externals/mbedtls/library/x509_crt.c **** 
1623://MAC/Home/Downloads/getstarted-optiga-trust-m/optiga-trust-m-1/externals/mbedtls/library/x509_crt.c ****         if( ( ret = x509_info_subject_alt_name( &p, &n,
1624://MAC/Home/Downloads/getstarted-optiga-trust-m/optiga-trust-m-1/externals/mbedtls/library/x509_crt.c ****                                             &crt->subject_alt_names ) ) != 0 )
1625://MAC/Home/Downloads/getstarted-optiga-trust-m/optiga-trust-m-1/externals/mbedtls/library/x509_crt.c ****             return( ret );
1626://MAC/Home/Downloads/getstarted-optiga-trust-m/optiga-trust-m-1/externals/mbedtls/library/x509_crt.c ****     }
1627://MAC/Home/Downloads/getstarted-optiga-trust-m/optiga-trust-m-1/externals/mbedtls/library/x509_crt.c **** 
1628://MAC/Home/Downloads/getstarted-optiga-trust-m/optiga-trust-m-1/externals/mbedtls/library/x509_crt.c ****     if( crt->ext_types & MBEDTLS_X509_EXT_NS_CERT_TYPE )
1629://MAC/Home/Downloads/getstarted-optiga-trust-m/optiga-trust-m-1/externals/mbedtls/library/x509_crt.c ****     {
1630://MAC/Home/Downloads/getstarted-optiga-trust-m/optiga-trust-m-1/externals/mbedtls/library/x509_crt.c ****         ret = mbedtls_snprintf( p, n, "\n%scert. type        : ", prefix );
1631://MAC/Home/Downloads/getstarted-optiga-trust-m/optiga-trust-m-1/externals/mbedtls/library/x509_crt.c ****         MBEDTLS_X509_SAFE_SNPRINTF;
1632://MAC/Home/Downloads/getstarted-optiga-trust-m/optiga-trust-m-1/externals/mbedtls/library/x509_crt.c **** 
1633://MAC/Home/Downloads/getstarted-optiga-trust-m/optiga-trust-m-1/externals/mbedtls/library/x509_crt.c ****         if( ( ret = x509_info_cert_type( &p, &n, crt->ns_cert_type ) ) != 0 )
1634://MAC/Home/Downloads/getstarted-optiga-trust-m/optiga-trust-m-1/externals/mbedtls/library/x509_crt.c ****             return( ret );
1635://MAC/Home/Downloads/getstarted-optiga-trust-m/optiga-trust-m-1/externals/mbedtls/library/x509_crt.c ****     }
1636://MAC/Home/Downloads/getstarted-optiga-trust-m/optiga-trust-m-1/externals/mbedtls/library/x509_crt.c **** 
1637://MAC/Home/Downloads/getstarted-optiga-trust-m/optiga-trust-m-1/externals/mbedtls/library/x509_crt.c ****     if( crt->ext_types & MBEDTLS_X509_EXT_KEY_USAGE )
1638://MAC/Home/Downloads/getstarted-optiga-trust-m/optiga-trust-m-1/externals/mbedtls/library/x509_crt.c ****     {
1639://MAC/Home/Downloads/getstarted-optiga-trust-m/optiga-trust-m-1/externals/mbedtls/library/x509_crt.c ****         ret = mbedtls_snprintf( p, n, "\n%skey usage         : ", prefix );
1640://MAC/Home/Downloads/getstarted-optiga-trust-m/optiga-trust-m-1/externals/mbedtls/library/x509_crt.c ****         MBEDTLS_X509_SAFE_SNPRINTF;
1641://MAC/Home/Downloads/getstarted-optiga-trust-m/optiga-trust-m-1/externals/mbedtls/library/x509_crt.c **** 
1642://MAC/Home/Downloads/getstarted-optiga-trust-m/optiga-trust-m-1/externals/mbedtls/library/x509_crt.c ****         if( ( ret = x509_info_key_usage( &p, &n, crt->key_usage ) ) != 0 )
1643://MAC/Home/Downloads/getstarted-optiga-trust-m/optiga-trust-m-1/externals/mbedtls/library/x509_crt.c ****             return( ret );
1644://MAC/Home/Downloads/getstarted-optiga-trust-m/optiga-trust-m-1/externals/mbedtls/library/x509_crt.c ****     }
1645://MAC/Home/Downloads/getstarted-optiga-trust-m/optiga-trust-m-1/externals/mbedtls/library/x509_crt.c **** 
1646://MAC/Home/Downloads/getstarted-optiga-trust-m/optiga-trust-m-1/externals/mbedtls/library/x509_crt.c ****     if( crt->ext_types & MBEDTLS_X509_EXT_EXTENDED_KEY_USAGE )
1647://MAC/Home/Downloads/getstarted-optiga-trust-m/optiga-trust-m-1/externals/mbedtls/library/x509_crt.c ****     {
1648://MAC/Home/Downloads/getstarted-optiga-trust-m/optiga-trust-m-1/externals/mbedtls/library/x509_crt.c ****         ret = mbedtls_snprintf( p, n, "\n%sext key usage     : ", prefix );
1649://MAC/Home/Downloads/getstarted-optiga-trust-m/optiga-trust-m-1/externals/mbedtls/library/x509_crt.c ****         MBEDTLS_X509_SAFE_SNPRINTF;
1650://MAC/Home/Downloads/getstarted-optiga-trust-m/optiga-trust-m-1/externals/mbedtls/library/x509_crt.c **** 
1651://MAC/Home/Downloads/getstarted-optiga-trust-m/optiga-trust-m-1/externals/mbedtls/library/x509_crt.c ****         if( ( ret = x509_info_ext_key_usage( &p, &n,
1652://MAC/Home/Downloads/getstarted-optiga-trust-m/optiga-trust-m-1/externals/mbedtls/library/x509_crt.c ****                                              &crt->ext_key_usage ) ) != 0 )
1653://MAC/Home/Downloads/getstarted-optiga-trust-m/optiga-trust-m-1/externals/mbedtls/library/x509_crt.c ****             return( ret );
1654://MAC/Home/Downloads/getstarted-optiga-trust-m/optiga-trust-m-1/externals/mbedtls/library/x509_crt.c ****     }
1655://MAC/Home/Downloads/getstarted-optiga-trust-m/optiga-trust-m-1/externals/mbedtls/library/x509_crt.c **** 
1656://MAC/Home/Downloads/getstarted-optiga-trust-m/optiga-trust-m-1/externals/mbedtls/library/x509_crt.c ****     ret = mbedtls_snprintf( p, n, "\n" );
1657://MAC/Home/Downloads/getstarted-optiga-trust-m/optiga-trust-m-1/externals/mbedtls/library/x509_crt.c ****     MBEDTLS_X509_SAFE_SNPRINTF;
1658://MAC/Home/Downloads/getstarted-optiga-trust-m/optiga-trust-m-1/externals/mbedtls/library/x509_crt.c **** 
1659://MAC/Home/Downloads/getstarted-optiga-trust-m/optiga-trust-m-1/externals/mbedtls/library/x509_crt.c ****     return( (int) ( size - n ) );
1660://MAC/Home/Downloads/getstarted-optiga-trust-m/optiga-trust-m-1/externals/mbedtls/library/x509_crt.c **** }
1661://MAC/Home/Downloads/getstarted-optiga-trust-m/optiga-trust-m-1/externals/mbedtls/library/x509_crt.c **** 
1662://MAC/Home/Downloads/getstarted-optiga-trust-m/optiga-trust-m-1/externals/mbedtls/library/x509_crt.c **** struct x509_crt_verify_string {
1663://MAC/Home/Downloads/getstarted-optiga-trust-m/optiga-trust-m-1/externals/mbedtls/library/x509_crt.c ****     int code;
1664://MAC/Home/Downloads/getstarted-optiga-trust-m/optiga-trust-m-1/externals/mbedtls/library/x509_crt.c ****     const char *string;
1665://MAC/Home/Downloads/getstarted-optiga-trust-m/optiga-trust-m-1/externals/mbedtls/library/x509_crt.c **** };
1666://MAC/Home/Downloads/getstarted-optiga-trust-m/optiga-trust-m-1/externals/mbedtls/library/x509_crt.c **** 
1667://MAC/Home/Downloads/getstarted-optiga-trust-m/optiga-trust-m-1/externals/mbedtls/library/x509_crt.c **** static const struct x509_crt_verify_string x509_crt_verify_strings[] = {
1668://MAC/Home/Downloads/getstarted-optiga-trust-m/optiga-trust-m-1/externals/mbedtls/library/x509_crt.c ****     { MBEDTLS_X509_BADCERT_EXPIRED,       "The certificate validity has expired" },
1669://MAC/Home/Downloads/getstarted-optiga-trust-m/optiga-trust-m-1/externals/mbedtls/library/x509_crt.c ****     { MBEDTLS_X509_BADCERT_REVOKED,       "The certificate has been revoked (is on a CRL)" },
1670://MAC/Home/Downloads/getstarted-optiga-trust-m/optiga-trust-m-1/externals/mbedtls/library/x509_crt.c ****     { MBEDTLS_X509_BADCERT_CN_MISMATCH,   "The certificate Common Name (CN) does not match with the
1671://MAC/Home/Downloads/getstarted-optiga-trust-m/optiga-trust-m-1/externals/mbedtls/library/x509_crt.c ****     { MBEDTLS_X509_BADCERT_NOT_TRUSTED,   "The certificate is not correctly signed by the trusted C
1672://MAC/Home/Downloads/getstarted-optiga-trust-m/optiga-trust-m-1/externals/mbedtls/library/x509_crt.c ****     { MBEDTLS_X509_BADCRL_NOT_TRUSTED,    "The CRL is not correctly signed by the trusted CA" },
1673://MAC/Home/Downloads/getstarted-optiga-trust-m/optiga-trust-m-1/externals/mbedtls/library/x509_crt.c ****     { MBEDTLS_X509_BADCRL_EXPIRED,        "The CRL is expired" },
1674://MAC/Home/Downloads/getstarted-optiga-trust-m/optiga-trust-m-1/externals/mbedtls/library/x509_crt.c ****     { MBEDTLS_X509_BADCERT_MISSING,       "Certificate was missing" },
1675://MAC/Home/Downloads/getstarted-optiga-trust-m/optiga-trust-m-1/externals/mbedtls/library/x509_crt.c ****     { MBEDTLS_X509_BADCERT_SKIP_VERIFY,   "Certificate verification was skipped" },
1676://MAC/Home/Downloads/getstarted-optiga-trust-m/optiga-trust-m-1/externals/mbedtls/library/x509_crt.c ****     { MBEDTLS_X509_BADCERT_OTHER,         "Other reason (can be used by verify callback)" },
1677://MAC/Home/Downloads/getstarted-optiga-trust-m/optiga-trust-m-1/externals/mbedtls/library/x509_crt.c ****     { MBEDTLS_X509_BADCERT_FUTURE,        "The certificate validity starts in the future" },
1678://MAC/Home/Downloads/getstarted-optiga-trust-m/optiga-trust-m-1/externals/mbedtls/library/x509_crt.c ****     { MBEDTLS_X509_BADCRL_FUTURE,         "The CRL is from the future" },
1679://MAC/Home/Downloads/getstarted-optiga-trust-m/optiga-trust-m-1/externals/mbedtls/library/x509_crt.c ****     { MBEDTLS_X509_BADCERT_KEY_USAGE,     "Usage does not match the keyUsage extension" },
1680://MAC/Home/Downloads/getstarted-optiga-trust-m/optiga-trust-m-1/externals/mbedtls/library/x509_crt.c ****     { MBEDTLS_X509_BADCERT_EXT_KEY_USAGE, "Usage does not match the extendedKeyUsage extension" },
1681://MAC/Home/Downloads/getstarted-optiga-trust-m/optiga-trust-m-1/externals/mbedtls/library/x509_crt.c ****     { MBEDTLS_X509_BADCERT_NS_CERT_TYPE,  "Usage does not match the nsCertType extension" },
1682://MAC/Home/Downloads/getstarted-optiga-trust-m/optiga-trust-m-1/externals/mbedtls/library/x509_crt.c ****     { MBEDTLS_X509_BADCERT_BAD_MD,        "The certificate is signed with an unacceptable hash." },
1683://MAC/Home/Downloads/getstarted-optiga-trust-m/optiga-trust-m-1/externals/mbedtls/library/x509_crt.c ****     { MBEDTLS_X509_BADCERT_BAD_PK,        "The certificate is signed with an unacceptable PK alg (e
1684://MAC/Home/Downloads/getstarted-optiga-trust-m/optiga-trust-m-1/externals/mbedtls/library/x509_crt.c ****     { MBEDTLS_X509_BADCERT_BAD_KEY,       "The certificate is signed with an unacceptable key (eg b
1685://MAC/Home/Downloads/getstarted-optiga-trust-m/optiga-trust-m-1/externals/mbedtls/library/x509_crt.c ****     { MBEDTLS_X509_BADCRL_BAD_MD,         "The CRL is signed with an unacceptable hash." },
1686://MAC/Home/Downloads/getstarted-optiga-trust-m/optiga-trust-m-1/externals/mbedtls/library/x509_crt.c ****     { MBEDTLS_X509_BADCRL_BAD_PK,         "The CRL is signed with an unacceptable PK alg (eg RSA vs
1687://MAC/Home/Downloads/getstarted-optiga-trust-m/optiga-trust-m-1/externals/mbedtls/library/x509_crt.c ****     { MBEDTLS_X509_BADCRL_BAD_KEY,        "The CRL is signed with an unacceptable key (eg bad curve
1688://MAC/Home/Downloads/getstarted-optiga-trust-m/optiga-trust-m-1/externals/mbedtls/library/x509_crt.c ****     { 0, NULL }
1689://MAC/Home/Downloads/getstarted-optiga-trust-m/optiga-trust-m-1/externals/mbedtls/library/x509_crt.c **** };
1690://MAC/Home/Downloads/getstarted-optiga-trust-m/optiga-trust-m-1/externals/mbedtls/library/x509_crt.c **** 
1691://MAC/Home/Downloads/getstarted-optiga-trust-m/optiga-trust-m-1/externals/mbedtls/library/x509_crt.c **** int mbedtls_x509_crt_verify_info( char *buf, size_t size, const char *prefix,
1692://MAC/Home/Downloads/getstarted-optiga-trust-m/optiga-trust-m-1/externals/mbedtls/library/x509_crt.c ****                           uint32_t flags )
1693://MAC/Home/Downloads/getstarted-optiga-trust-m/optiga-trust-m-1/externals/mbedtls/library/x509_crt.c **** {
1694://MAC/Home/Downloads/getstarted-optiga-trust-m/optiga-trust-m-1/externals/mbedtls/library/x509_crt.c ****     int ret;
1695://MAC/Home/Downloads/getstarted-optiga-trust-m/optiga-trust-m-1/externals/mbedtls/library/x509_crt.c ****     const struct x509_crt_verify_string *cur;
1696://MAC/Home/Downloads/getstarted-optiga-trust-m/optiga-trust-m-1/externals/mbedtls/library/x509_crt.c ****     char *p = buf;
1697://MAC/Home/Downloads/getstarted-optiga-trust-m/optiga-trust-m-1/externals/mbedtls/library/x509_crt.c ****     size_t n = size;
1698://MAC/Home/Downloads/getstarted-optiga-trust-m/optiga-trust-m-1/externals/mbedtls/library/x509_crt.c **** 
1699://MAC/Home/Downloads/getstarted-optiga-trust-m/optiga-trust-m-1/externals/mbedtls/library/x509_crt.c ****     for( cur = x509_crt_verify_strings; cur->string != NULL ; cur++ )
1700://MAC/Home/Downloads/getstarted-optiga-trust-m/optiga-trust-m-1/externals/mbedtls/library/x509_crt.c ****     {
1701://MAC/Home/Downloads/getstarted-optiga-trust-m/optiga-trust-m-1/externals/mbedtls/library/x509_crt.c ****         if( ( flags & cur->code ) == 0 )
1702://MAC/Home/Downloads/getstarted-optiga-trust-m/optiga-trust-m-1/externals/mbedtls/library/x509_crt.c ****             continue;
1703://MAC/Home/Downloads/getstarted-optiga-trust-m/optiga-trust-m-1/externals/mbedtls/library/x509_crt.c **** 
1704://MAC/Home/Downloads/getstarted-optiga-trust-m/optiga-trust-m-1/externals/mbedtls/library/x509_crt.c ****         ret = mbedtls_snprintf( p, n, "%s%s\n", prefix, cur->string );
1705://MAC/Home/Downloads/getstarted-optiga-trust-m/optiga-trust-m-1/externals/mbedtls/library/x509_crt.c ****         MBEDTLS_X509_SAFE_SNPRINTF;
1706://MAC/Home/Downloads/getstarted-optiga-trust-m/optiga-trust-m-1/externals/mbedtls/library/x509_crt.c ****         flags ^= cur->code;
1707://MAC/Home/Downloads/getstarted-optiga-trust-m/optiga-trust-m-1/externals/mbedtls/library/x509_crt.c ****     }
