   1              	 .cpu cortex-m0
   2              	 .fpu softvfp
   3              	 .eabi_attribute 20,1
   4              	 .eabi_attribute 21,1
   5              	 .eabi_attribute 23,3
   6              	 .eabi_attribute 24,1
   7              	 .eabi_attribute 25,1
   8              	 .eabi_attribute 26,1
   9              	 .eabi_attribute 30,4
  10              	 .eabi_attribute 34,0
  11              	 .eabi_attribute 18,4
  12              	 .code 16
  13              	 .file "pal_os_datastore.c"
  14              	 .text
  15              	.Ltext0:
  16              	 .cfi_sections .debug_frame
  17              	 .section .text.pal_os_datastore_write,"ax",%progbits
  18              	 .align 1
  19              	 .global pal_os_datastore_write
  20              	 .code 16
  21              	 .thumb_func
  23              	pal_os_datastore_write:
  24              	.LFB0:
  25              	 .file 1 "C:/Workspace/DAVE-4.4.2-64Bit/optiga-trust-m/pal/xmc-dave/pal_os_datastore.c"
   1:C:/Workspace/DAVE-4.4.2-64Bit/optiga-trust-m/pal/xmc-dave\pal_os_datastore.c **** /**
   2:C:/Workspace/DAVE-4.4.2-64Bit/optiga-trust-m/pal/xmc-dave\pal_os_datastore.c **** * \copyright
   3:C:/Workspace/DAVE-4.4.2-64Bit/optiga-trust-m/pal/xmc-dave\pal_os_datastore.c **** * MIT License
   4:C:/Workspace/DAVE-4.4.2-64Bit/optiga-trust-m/pal/xmc-dave\pal_os_datastore.c **** *
   5:C:/Workspace/DAVE-4.4.2-64Bit/optiga-trust-m/pal/xmc-dave\pal_os_datastore.c **** * Copyright (c) 2019 Infineon Technologies AG
   6:C:/Workspace/DAVE-4.4.2-64Bit/optiga-trust-m/pal/xmc-dave\pal_os_datastore.c **** *
   7:C:/Workspace/DAVE-4.4.2-64Bit/optiga-trust-m/pal/xmc-dave\pal_os_datastore.c **** * Permission is hereby granted, free of charge, to any person obtaining a copy
   8:C:/Workspace/DAVE-4.4.2-64Bit/optiga-trust-m/pal/xmc-dave\pal_os_datastore.c **** * of this software and associated documentation files (the "Software"), to deal
   9:C:/Workspace/DAVE-4.4.2-64Bit/optiga-trust-m/pal/xmc-dave\pal_os_datastore.c **** * in the Software without restriction, including without limitation the rights
  10:C:/Workspace/DAVE-4.4.2-64Bit/optiga-trust-m/pal/xmc-dave\pal_os_datastore.c **** * to use, copy, modify, merge, publish, distribute, sublicense, and/or sell
  11:C:/Workspace/DAVE-4.4.2-64Bit/optiga-trust-m/pal/xmc-dave\pal_os_datastore.c **** * copies of the Software, and to permit persons to whom the Software is
  12:C:/Workspace/DAVE-4.4.2-64Bit/optiga-trust-m/pal/xmc-dave\pal_os_datastore.c **** * furnished to do so, subject to the following conditions:
  13:C:/Workspace/DAVE-4.4.2-64Bit/optiga-trust-m/pal/xmc-dave\pal_os_datastore.c **** *
  14:C:/Workspace/DAVE-4.4.2-64Bit/optiga-trust-m/pal/xmc-dave\pal_os_datastore.c **** * The above copyright notice and this permission notice shall be included in all
  15:C:/Workspace/DAVE-4.4.2-64Bit/optiga-trust-m/pal/xmc-dave\pal_os_datastore.c **** * copies or substantial portions of the Software.
  16:C:/Workspace/DAVE-4.4.2-64Bit/optiga-trust-m/pal/xmc-dave\pal_os_datastore.c **** *
  17:C:/Workspace/DAVE-4.4.2-64Bit/optiga-trust-m/pal/xmc-dave\pal_os_datastore.c **** * THE SOFTWARE IS PROVIDED "AS IS", WITHOUT WARRANTY OF ANY KIND, EXPRESS OR
  18:C:/Workspace/DAVE-4.4.2-64Bit/optiga-trust-m/pal/xmc-dave\pal_os_datastore.c **** * IMPLIED, INCLUDING BUT NOT LIMITED TO THE WARRANTIES OF MERCHANTABILITY,
  19:C:/Workspace/DAVE-4.4.2-64Bit/optiga-trust-m/pal/xmc-dave\pal_os_datastore.c **** * FITNESS FOR A PARTICULAR PURPOSE AND NONINFRINGEMENT. IN NO EVENT SHALL THE
  20:C:/Workspace/DAVE-4.4.2-64Bit/optiga-trust-m/pal/xmc-dave\pal_os_datastore.c **** * AUTHORS OR COPYRIGHT HOLDERS BE LIABLE FOR ANY CLAIM, DAMAGES OR OTHER
  21:C:/Workspace/DAVE-4.4.2-64Bit/optiga-trust-m/pal/xmc-dave\pal_os_datastore.c **** * LIABILITY, WHETHER IN AN ACTION OF CONTRACT, TORT OR OTHERWISE, ARISING FROM,
  22:C:/Workspace/DAVE-4.4.2-64Bit/optiga-trust-m/pal/xmc-dave\pal_os_datastore.c **** * OUT OF OR IN CONNECTION WITH THE SOFTWARE OR THE USE OR OTHER DEALINGS IN THE
  23:C:/Workspace/DAVE-4.4.2-64Bit/optiga-trust-m/pal/xmc-dave\pal_os_datastore.c **** * SOFTWARE
  24:C:/Workspace/DAVE-4.4.2-64Bit/optiga-trust-m/pal/xmc-dave\pal_os_datastore.c **** *
  25:C:/Workspace/DAVE-4.4.2-64Bit/optiga-trust-m/pal/xmc-dave\pal_os_datastore.c **** * \endcopyright
  26:C:/Workspace/DAVE-4.4.2-64Bit/optiga-trust-m/pal/xmc-dave\pal_os_datastore.c **** *
  27:C:/Workspace/DAVE-4.4.2-64Bit/optiga-trust-m/pal/xmc-dave\pal_os_datastore.c **** * \author Infineon Technologies AG
  28:C:/Workspace/DAVE-4.4.2-64Bit/optiga-trust-m/pal/xmc-dave\pal_os_datastore.c **** *
  29:C:/Workspace/DAVE-4.4.2-64Bit/optiga-trust-m/pal/xmc-dave\pal_os_datastore.c **** * \file pal_os_datastore.c
  30:C:/Workspace/DAVE-4.4.2-64Bit/optiga-trust-m/pal/xmc-dave\pal_os_datastore.c **** *
  31:C:/Workspace/DAVE-4.4.2-64Bit/optiga-trust-m/pal/xmc-dave\pal_os_datastore.c **** * \brief   This file implements the platform abstraction layer APIs for data store.
  32:C:/Workspace/DAVE-4.4.2-64Bit/optiga-trust-m/pal/xmc-dave\pal_os_datastore.c **** *
  33:C:/Workspace/DAVE-4.4.2-64Bit/optiga-trust-m/pal/xmc-dave\pal_os_datastore.c **** * \ingroup  grPAL
  34:C:/Workspace/DAVE-4.4.2-64Bit/optiga-trust-m/pal/xmc-dave\pal_os_datastore.c **** *
  35:C:/Workspace/DAVE-4.4.2-64Bit/optiga-trust-m/pal/xmc-dave\pal_os_datastore.c **** * @{
  36:C:/Workspace/DAVE-4.4.2-64Bit/optiga-trust-m/pal/xmc-dave\pal_os_datastore.c **** */
  37:C:/Workspace/DAVE-4.4.2-64Bit/optiga-trust-m/pal/xmc-dave\pal_os_datastore.c **** 
  38:C:/Workspace/DAVE-4.4.2-64Bit/optiga-trust-m/pal/xmc-dave\pal_os_datastore.c **** #include "optiga/pal/pal_os_datastore.h"
  39:C:/Workspace/DAVE-4.4.2-64Bit/optiga-trust-m/pal/xmc-dave\pal_os_datastore.c **** 
  40:C:/Workspace/DAVE-4.4.2-64Bit/optiga-trust-m/pal/xmc-dave\pal_os_datastore.c **** /// @endcond
  41:C:/Workspace/DAVE-4.4.2-64Bit/optiga-trust-m/pal/xmc-dave\pal_os_datastore.c **** /// Size of data store buffer
  42:C:/Workspace/DAVE-4.4.2-64Bit/optiga-trust-m/pal/xmc-dave\pal_os_datastore.c **** #define DATA_STORE_BUFFERSIZE      (0x42)
  43:C:/Workspace/DAVE-4.4.2-64Bit/optiga-trust-m/pal/xmc-dave\pal_os_datastore.c **** 
  44:C:/Workspace/DAVE-4.4.2-64Bit/optiga-trust-m/pal/xmc-dave\pal_os_datastore.c **** /// Maximum shared secret length
  45:C:/Workspace/DAVE-4.4.2-64Bit/optiga-trust-m/pal/xmc-dave\pal_os_datastore.c **** #define SHARED_SECRET_MAX_LENGTH   (0x40U)
  46:C:/Workspace/DAVE-4.4.2-64Bit/optiga-trust-m/pal/xmc-dave\pal_os_datastore.c **** 
  47:C:/Workspace/DAVE-4.4.2-64Bit/optiga-trust-m/pal/xmc-dave\pal_os_datastore.c **** //Internal buffer to store manage context data use for data store
  48:C:/Workspace/DAVE-4.4.2-64Bit/optiga-trust-m/pal/xmc-dave\pal_os_datastore.c **** uint8_t data_store_buffer [DATA_STORE_BUFFERSIZE];
  49:C:/Workspace/DAVE-4.4.2-64Bit/optiga-trust-m/pal/xmc-dave\pal_os_datastore.c **** 
  50:C:/Workspace/DAVE-4.4.2-64Bit/optiga-trust-m/pal/xmc-dave\pal_os_datastore.c **** //Internal buffer to store application context data use for data store
  51:C:/Workspace/DAVE-4.4.2-64Bit/optiga-trust-m/pal/xmc-dave\pal_os_datastore.c **** uint8_t data_store_app_context_buffer [APP_CONTEXT_SIZE];
  52:C:/Workspace/DAVE-4.4.2-64Bit/optiga-trust-m/pal/xmc-dave\pal_os_datastore.c **** 
  53:C:/Workspace/DAVE-4.4.2-64Bit/optiga-trust-m/pal/xmc-dave\pal_os_datastore.c **** //Internal buffer to store the generated shared secret on Host
  54:C:/Workspace/DAVE-4.4.2-64Bit/optiga-trust-m/pal/xmc-dave\pal_os_datastore.c **** uint8_t optiga_platform_binding_shared_secret [SHARED_SECRET_MAX_LENGTH] = {0x00};
  55:C:/Workspace/DAVE-4.4.2-64Bit/optiga-trust-m/pal/xmc-dave\pal_os_datastore.c **** 
  56:C:/Workspace/DAVE-4.4.2-64Bit/optiga-trust-m/pal/xmc-dave\pal_os_datastore.c **** 
  57:C:/Workspace/DAVE-4.4.2-64Bit/optiga-trust-m/pal/xmc-dave\pal_os_datastore.c **** pal_status_t pal_os_datastore_write(uint16_t datastore_id,
  58:C:/Workspace/DAVE-4.4.2-64Bit/optiga-trust-m/pal/xmc-dave\pal_os_datastore.c ****                                     const uint8_t * p_buffer,
  59:C:/Workspace/DAVE-4.4.2-64Bit/optiga-trust-m/pal/xmc-dave\pal_os_datastore.c ****                                     uint16_t length)
  60:C:/Workspace/DAVE-4.4.2-64Bit/optiga-trust-m/pal/xmc-dave\pal_os_datastore.c **** {
  26              	 .loc 1 60 0
  27              	 .cfi_startproc
  28              	.LVL0:
  29 0000 08B5     	 push {r3,lr}
  30              	.LCFI0:
  31              	 .cfi_def_cfa_offset 8
  32              	 .cfi_offset 3,-8
  33              	 .cfi_offset 14,-4
  61:C:/Workspace/DAVE-4.4.2-64Bit/optiga-trust-m/pal/xmc-dave\pal_os_datastore.c ****     pal_status_t return_status = PAL_STATUS_FAILURE;
  62:C:/Workspace/DAVE-4.4.2-64Bit/optiga-trust-m/pal/xmc-dave\pal_os_datastore.c **** 
  63:C:/Workspace/DAVE-4.4.2-64Bit/optiga-trust-m/pal/xmc-dave\pal_os_datastore.c ****     switch(datastore_id)
  34              	 .loc 1 63 0
  35 0002 2228     	 cmp r0,#34
  36 0004 08D0     	 beq .L3
  37 0006 3328     	 cmp r0,#51
  38 0008 0BD0     	 beq .L4
  39 000a 1128     	 cmp r0,#17
  40 000c 0BD1     	 bne .L8
  61:C:/Workspace/DAVE-4.4.2-64Bit/optiga-trust-m/pal/xmc-dave\pal_os_datastore.c ****     pal_status_t return_status = PAL_STATUS_FAILURE;
  41              	 .loc 1 61 0
  42 000e 1038     	 sub r0,r0,#16
  43              	.LVL1:
  64:C:/Workspace/DAVE-4.4.2-64Bit/optiga-trust-m/pal/xmc-dave\pal_os_datastore.c ****     {
  65:C:/Workspace/DAVE-4.4.2-64Bit/optiga-trust-m/pal/xmc-dave\pal_os_datastore.c ****         case OPTIGA_PLATFORM_BINDING_SHARED_SECRET_ID:
  66:C:/Workspace/DAVE-4.4.2-64Bit/optiga-trust-m/pal/xmc-dave\pal_os_datastore.c ****         {
  67:C:/Workspace/DAVE-4.4.2-64Bit/optiga-trust-m/pal/xmc-dave\pal_os_datastore.c ****             // !!!OPTIGA_LIB_PORTING_REQUIRED
  68:C:/Workspace/DAVE-4.4.2-64Bit/optiga-trust-m/pal/xmc-dave\pal_os_datastore.c ****             // This has to be enhanced by user only, in case of updating
  69:C:/Workspace/DAVE-4.4.2-64Bit/optiga-trust-m/pal/xmc-dave\pal_os_datastore.c ****             // the platform binding shared secret during the runtime into NVM.
  70:C:/Workspace/DAVE-4.4.2-64Bit/optiga-trust-m/pal/xmc-dave\pal_os_datastore.c ****             // In current implementation, platform binding shared secret is
  71:C:/Workspace/DAVE-4.4.2-64Bit/optiga-trust-m/pal/xmc-dave\pal_os_datastore.c ****             // stored in RAM.
  72:C:/Workspace/DAVE-4.4.2-64Bit/optiga-trust-m/pal/xmc-dave\pal_os_datastore.c ****             if (length <= sizeof(optiga_platform_binding_shared_secret))
  44              	 .loc 1 72 0
  45 0010 402A     	 cmp r2,#64
  46 0012 09D8     	 bhi .L2
  73:C:/Workspace/DAVE-4.4.2-64Bit/optiga-trust-m/pal/xmc-dave\pal_os_datastore.c ****             {
  74:C:/Workspace/DAVE-4.4.2-64Bit/optiga-trust-m/pal/xmc-dave\pal_os_datastore.c ****                 memcpy(optiga_platform_binding_shared_secret, p_buffer, length);
  47              	 .loc 1 74 0
  48 0014 0548     	 ldr r0,.L11
  49 0016 00E0     	 b .L9
  50              	.LVL2:
  51              	.L3:
  75:C:/Workspace/DAVE-4.4.2-64Bit/optiga-trust-m/pal/xmc-dave\pal_os_datastore.c ****                 return_status = PAL_STATUS_SUCCESS;
  76:C:/Workspace/DAVE-4.4.2-64Bit/optiga-trust-m/pal/xmc-dave\pal_os_datastore.c ****             }
  77:C:/Workspace/DAVE-4.4.2-64Bit/optiga-trust-m/pal/xmc-dave\pal_os_datastore.c ****             break;
  78:C:/Workspace/DAVE-4.4.2-64Bit/optiga-trust-m/pal/xmc-dave\pal_os_datastore.c ****         }
  79:C:/Workspace/DAVE-4.4.2-64Bit/optiga-trust-m/pal/xmc-dave\pal_os_datastore.c ****         case OPTIGA_COMMS_MANAGE_CONTEXT_ID:
  80:C:/Workspace/DAVE-4.4.2-64Bit/optiga-trust-m/pal/xmc-dave\pal_os_datastore.c ****         {
  81:C:/Workspace/DAVE-4.4.2-64Bit/optiga-trust-m/pal/xmc-dave\pal_os_datastore.c ****             // !!!OPTIGA_LIB_PORTING_REQUIRED
  82:C:/Workspace/DAVE-4.4.2-64Bit/optiga-trust-m/pal/xmc-dave\pal_os_datastore.c ****             // This has to be enhanced by user only, in case of storing 
  83:C:/Workspace/DAVE-4.4.2-64Bit/optiga-trust-m/pal/xmc-dave\pal_os_datastore.c ****             // the manage context information in non-volatile memory 
  84:C:/Workspace/DAVE-4.4.2-64Bit/optiga-trust-m/pal/xmc-dave\pal_os_datastore.c ****             // to reuse for later during hard reset scenarios where the 
  85:C:/Workspace/DAVE-4.4.2-64Bit/optiga-trust-m/pal/xmc-dave\pal_os_datastore.c ****             // RAM gets flushed out.
  86:C:/Workspace/DAVE-4.4.2-64Bit/optiga-trust-m/pal/xmc-dave\pal_os_datastore.c ****             memcpy(data_store_buffer,p_buffer,length);
  52              	 .loc 1 86 0
  53 0018 0548     	 ldr r0,.L11+4
  54              	.LVL3:
  55              	.L9:
  56 001a FFF7FEFF 	 bl memcpy
  57              	.LVL4:
  87:C:/Workspace/DAVE-4.4.2-64Bit/optiga-trust-m/pal/xmc-dave\pal_os_datastore.c ****             return_status = PAL_STATUS_SUCCESS;
  58              	 .loc 1 87 0
  59 001e 0020     	 mov r0,#0
  88:C:/Workspace/DAVE-4.4.2-64Bit/optiga-trust-m/pal/xmc-dave\pal_os_datastore.c ****             break;
  60              	 .loc 1 88 0
  61 0020 02E0     	 b .L2
  62              	.LVL5:
  63              	.L4:
  89:C:/Workspace/DAVE-4.4.2-64Bit/optiga-trust-m/pal/xmc-dave\pal_os_datastore.c ****         }
  90:C:/Workspace/DAVE-4.4.2-64Bit/optiga-trust-m/pal/xmc-dave\pal_os_datastore.c ****         case OPTIGA_HIBERNATE_CONTEXT_ID:
  91:C:/Workspace/DAVE-4.4.2-64Bit/optiga-trust-m/pal/xmc-dave\pal_os_datastore.c ****         {
  92:C:/Workspace/DAVE-4.4.2-64Bit/optiga-trust-m/pal/xmc-dave\pal_os_datastore.c ****             // !!!OPTIGA_LIB_PORTING_REQUIRED
  93:C:/Workspace/DAVE-4.4.2-64Bit/optiga-trust-m/pal/xmc-dave\pal_os_datastore.c ****             // This has to be enhanced by user only, in case of storing 
  94:C:/Workspace/DAVE-4.4.2-64Bit/optiga-trust-m/pal/xmc-dave\pal_os_datastore.c ****             // the application context information in non-volatile memory 
  95:C:/Workspace/DAVE-4.4.2-64Bit/optiga-trust-m/pal/xmc-dave\pal_os_datastore.c ****             // to reuse for later during hard reset scenarios where the 
  96:C:/Workspace/DAVE-4.4.2-64Bit/optiga-trust-m/pal/xmc-dave\pal_os_datastore.c ****             // RAM gets flushed out.
  97:C:/Workspace/DAVE-4.4.2-64Bit/optiga-trust-m/pal/xmc-dave\pal_os_datastore.c ****             memcpy(data_store_app_context_buffer,p_buffer,length);
  64              	 .loc 1 97 0
  65 0022 0448     	 ldr r0,.L11+8
  66              	.LVL6:
  67 0024 F9E7     	 b .L9
  68              	.LVL7:
  69              	.L8:
  61:C:/Workspace/DAVE-4.4.2-64Bit/optiga-trust-m/pal/xmc-dave\pal_os_datastore.c **** 
  70              	 .loc 1 61 0
  71 0026 0120     	 mov r0,#1
  72              	.LVL8:
  73              	.L2:
  98:C:/Workspace/DAVE-4.4.2-64Bit/optiga-trust-m/pal/xmc-dave\pal_os_datastore.c ****             return_status = PAL_STATUS_SUCCESS;
  99:C:/Workspace/DAVE-4.4.2-64Bit/optiga-trust-m/pal/xmc-dave\pal_os_datastore.c ****             break;
 100:C:/Workspace/DAVE-4.4.2-64Bit/optiga-trust-m/pal/xmc-dave\pal_os_datastore.c ****         }
 101:C:/Workspace/DAVE-4.4.2-64Bit/optiga-trust-m/pal/xmc-dave\pal_os_datastore.c ****         default:
 102:C:/Workspace/DAVE-4.4.2-64Bit/optiga-trust-m/pal/xmc-dave\pal_os_datastore.c ****         {
 103:C:/Workspace/DAVE-4.4.2-64Bit/optiga-trust-m/pal/xmc-dave\pal_os_datastore.c ****             break;
 104:C:/Workspace/DAVE-4.4.2-64Bit/optiga-trust-m/pal/xmc-dave\pal_os_datastore.c ****         }
 105:C:/Workspace/DAVE-4.4.2-64Bit/optiga-trust-m/pal/xmc-dave\pal_os_datastore.c ****     }
 106:C:/Workspace/DAVE-4.4.2-64Bit/optiga-trust-m/pal/xmc-dave\pal_os_datastore.c ****     return return_status;
 107:C:/Workspace/DAVE-4.4.2-64Bit/optiga-trust-m/pal/xmc-dave\pal_os_datastore.c **** }
  74              	 .loc 1 107 0
  75              	 
  76 0028 08BD     	 pop {r3,pc}
  77              	.L12:
  78 002a C046     	 .align 2
  79              	.L11:
  80 002c 00000000 	 .word .LANCHOR0
  81 0030 00000000 	 .word data_store_buffer
  82 0034 00000000 	 .word data_store_app_context_buffer
  83              	 .cfi_endproc
  84              	.LFE0:
  86              	 .section .text.pal_os_datastore_read,"ax",%progbits
  87              	 .align 1
  88              	 .global pal_os_datastore_read
  89              	 .code 16
  90              	 .thumb_func
  92              	pal_os_datastore_read:
  93              	.LFB1:
 108:C:/Workspace/DAVE-4.4.2-64Bit/optiga-trust-m/pal/xmc-dave\pal_os_datastore.c **** 
 109:C:/Workspace/DAVE-4.4.2-64Bit/optiga-trust-m/pal/xmc-dave\pal_os_datastore.c **** 
 110:C:/Workspace/DAVE-4.4.2-64Bit/optiga-trust-m/pal/xmc-dave\pal_os_datastore.c **** pal_status_t pal_os_datastore_read(uint16_t datastore_id, 
 111:C:/Workspace/DAVE-4.4.2-64Bit/optiga-trust-m/pal/xmc-dave\pal_os_datastore.c ****                                    uint8_t * p_buffer, 
 112:C:/Workspace/DAVE-4.4.2-64Bit/optiga-trust-m/pal/xmc-dave\pal_os_datastore.c ****                                    uint16_t * p_buffer_length)
 113:C:/Workspace/DAVE-4.4.2-64Bit/optiga-trust-m/pal/xmc-dave\pal_os_datastore.c **** {
  94              	 .loc 1 113 0
  95              	 .cfi_startproc
  96              	.LVL9:
  97 0000 38B5     	 push {r3,r4,r5,lr}
  98              	.LCFI1:
  99              	 .cfi_def_cfa_offset 16
 100              	 .cfi_offset 3,-16
 101              	 .cfi_offset 4,-12
 102              	 .cfi_offset 5,-8
 103              	 .cfi_offset 14,-4
 104              	 .loc 1 113 0
 105 0002 031C     	 mov r3,r0
 106 0004 141C     	 mov r4,r2
 107 0006 081C     	 mov r0,r1
 108              	.LVL10:
 114:C:/Workspace/DAVE-4.4.2-64Bit/optiga-trust-m/pal/xmc-dave\pal_os_datastore.c ****     pal_status_t return_status = PAL_STATUS_FAILURE;
 115:C:/Workspace/DAVE-4.4.2-64Bit/optiga-trust-m/pal/xmc-dave\pal_os_datastore.c **** 
 116:C:/Workspace/DAVE-4.4.2-64Bit/optiga-trust-m/pal/xmc-dave\pal_os_datastore.c ****     switch(datastore_id)
 109              	 .loc 1 116 0
 110 0008 222B     	 cmp r3,#34
 111 000a 0ED0     	 beq .L15
 112 000c 332B     	 cmp r3,#51
 113 000e 12D0     	 beq .L16
 114 0010 112B     	 cmp r3,#17
 115 0012 13D1     	 bne .L20
 117:C:/Workspace/DAVE-4.4.2-64Bit/optiga-trust-m/pal/xmc-dave\pal_os_datastore.c ****     {
 118:C:/Workspace/DAVE-4.4.2-64Bit/optiga-trust-m/pal/xmc-dave\pal_os_datastore.c ****         case OPTIGA_PLATFORM_BINDING_SHARED_SECRET_ID:
 119:C:/Workspace/DAVE-4.4.2-64Bit/optiga-trust-m/pal/xmc-dave\pal_os_datastore.c ****         {
 120:C:/Workspace/DAVE-4.4.2-64Bit/optiga-trust-m/pal/xmc-dave\pal_os_datastore.c ****             // !!!OPTIGA_LIB_PORTING_REQUIRED
 121:C:/Workspace/DAVE-4.4.2-64Bit/optiga-trust-m/pal/xmc-dave\pal_os_datastore.c ****             // This has to be enhanced by user only,
 122:C:/Workspace/DAVE-4.4.2-64Bit/optiga-trust-m/pal/xmc-dave\pal_os_datastore.c ****             // if the platform binding shared secret is stored in non-volatile 
 123:C:/Workspace/DAVE-4.4.2-64Bit/optiga-trust-m/pal/xmc-dave\pal_os_datastore.c ****             // memory with a specific location and not as a const text segement 
 124:C:/Workspace/DAVE-4.4.2-64Bit/optiga-trust-m/pal/xmc-dave\pal_os_datastore.c ****             // else updating the share secret content is good enough.
 125:C:/Workspace/DAVE-4.4.2-64Bit/optiga-trust-m/pal/xmc-dave\pal_os_datastore.c **** 
 126:C:/Workspace/DAVE-4.4.2-64Bit/optiga-trust-m/pal/xmc-dave\pal_os_datastore.c ****             if (*p_buffer_length >= sizeof(optiga_platform_binding_shared_secret))
 116              	 .loc 1 126 0
 117 0014 1288     	 ldrh r2,[r2]
 118              	.LVL11:
 114:C:/Workspace/DAVE-4.4.2-64Bit/optiga-trust-m/pal/xmc-dave\pal_os_datastore.c ****     pal_status_t return_status = PAL_STATUS_FAILURE;
 119              	 .loc 1 114 0
 120 0016 103B     	 sub r3,r3,#16
 121              	 .loc 1 126 0
 122 0018 3F2A     	 cmp r2,#63
 123 001a 10D9     	 bls .L14
 127:C:/Workspace/DAVE-4.4.2-64Bit/optiga-trust-m/pal/xmc-dave\pal_os_datastore.c ****             {
 128:C:/Workspace/DAVE-4.4.2-64Bit/optiga-trust-m/pal/xmc-dave\pal_os_datastore.c ****                 memcpy(p_buffer,optiga_platform_binding_shared_secret, 
 124              	 .loc 1 128 0
 125 001c 4025     	 mov r5,#64
 126 001e 0949     	 ldr r1,.L23
 127              	.LVL12:
 128 0020 2A1C     	 mov r2,r5
 129 0022 FFF7FEFF 	 bl memcpy
 130              	.LVL13:
 129:C:/Workspace/DAVE-4.4.2-64Bit/optiga-trust-m/pal/xmc-dave\pal_os_datastore.c ****                        sizeof(optiga_platform_binding_shared_secret));
 130:C:/Workspace/DAVE-4.4.2-64Bit/optiga-trust-m/pal/xmc-dave\pal_os_datastore.c ****                 *p_buffer_length = sizeof(optiga_platform_binding_shared_secret);
 131              	 .loc 1 130 0
 132 0026 2580     	 strh r5,[r4]
 133              	.LVL14:
 134 0028 03E0     	 b .L21
 135              	.LVL15:
 136              	.L15:
 131:C:/Workspace/DAVE-4.4.2-64Bit/optiga-trust-m/pal/xmc-dave\pal_os_datastore.c ****                 return_status = PAL_STATUS_SUCCESS;
 132:C:/Workspace/DAVE-4.4.2-64Bit/optiga-trust-m/pal/xmc-dave\pal_os_datastore.c ****             }
 133:C:/Workspace/DAVE-4.4.2-64Bit/optiga-trust-m/pal/xmc-dave\pal_os_datastore.c ****             break;
 134:C:/Workspace/DAVE-4.4.2-64Bit/optiga-trust-m/pal/xmc-dave\pal_os_datastore.c ****         }
 135:C:/Workspace/DAVE-4.4.2-64Bit/optiga-trust-m/pal/xmc-dave\pal_os_datastore.c ****         case OPTIGA_COMMS_MANAGE_CONTEXT_ID:
 136:C:/Workspace/DAVE-4.4.2-64Bit/optiga-trust-m/pal/xmc-dave\pal_os_datastore.c ****         {
 137:C:/Workspace/DAVE-4.4.2-64Bit/optiga-trust-m/pal/xmc-dave\pal_os_datastore.c ****             // !!!OPTIGA_LIB_PORTING_REQUIRED
 138:C:/Workspace/DAVE-4.4.2-64Bit/optiga-trust-m/pal/xmc-dave\pal_os_datastore.c ****             // This has to be enhanced by user only,
 139:C:/Workspace/DAVE-4.4.2-64Bit/optiga-trust-m/pal/xmc-dave\pal_os_datastore.c ****             // if manage context information is stored in NVM during the hibernate, 
 140:C:/Workspace/DAVE-4.4.2-64Bit/optiga-trust-m/pal/xmc-dave\pal_os_datastore.c ****             // else this is not required to be enhanced.
 141:C:/Workspace/DAVE-4.4.2-64Bit/optiga-trust-m/pal/xmc-dave\pal_os_datastore.c ****             memcpy(p_buffer,data_store_buffer,*p_buffer_length);
 137              	 .loc 1 141 0
 138 002a 1288     	 ldrh r2,[r2]
 139              	.LVL16:
 140 002c 0649     	 ldr r1,.L23+4
 141              	.L22:
 142 002e FFF7FEFF 	 bl memcpy
 143              	.LVL17:
 144              	.L21:
 142:C:/Workspace/DAVE-4.4.2-64Bit/optiga-trust-m/pal/xmc-dave\pal_os_datastore.c ****             return_status = PAL_STATUS_SUCCESS;
 145              	 .loc 1 142 0
 146 0032 0023     	 mov r3,#0
 143:C:/Workspace/DAVE-4.4.2-64Bit/optiga-trust-m/pal/xmc-dave\pal_os_datastore.c ****             break;
 147              	 .loc 1 143 0
 148 0034 03E0     	 b .L14
 149              	.LVL18:
 150              	.L16:
 144:C:/Workspace/DAVE-4.4.2-64Bit/optiga-trust-m/pal/xmc-dave\pal_os_datastore.c ****         }
 145:C:/Workspace/DAVE-4.4.2-64Bit/optiga-trust-m/pal/xmc-dave\pal_os_datastore.c ****         case OPTIGA_HIBERNATE_CONTEXT_ID:
 146:C:/Workspace/DAVE-4.4.2-64Bit/optiga-trust-m/pal/xmc-dave\pal_os_datastore.c ****         {
 147:C:/Workspace/DAVE-4.4.2-64Bit/optiga-trust-m/pal/xmc-dave\pal_os_datastore.c ****             // !!!OPTIGA_LIB_PORTING_REQUIRED
 148:C:/Workspace/DAVE-4.4.2-64Bit/optiga-trust-m/pal/xmc-dave\pal_os_datastore.c ****             // This has to be enhanced by user only,
 149:C:/Workspace/DAVE-4.4.2-64Bit/optiga-trust-m/pal/xmc-dave\pal_os_datastore.c ****             // if application context information is stored in NVM during the hibernate, 
 150:C:/Workspace/DAVE-4.4.2-64Bit/optiga-trust-m/pal/xmc-dave\pal_os_datastore.c ****             // else this is not required to be enhanced.
 151:C:/Workspace/DAVE-4.4.2-64Bit/optiga-trust-m/pal/xmc-dave\pal_os_datastore.c ****             memcpy(p_buffer,data_store_app_context_buffer,*p_buffer_length);
 151              	 .loc 1 151 0
 152 0036 1288     	 ldrh r2,[r2]
 153              	.LVL19:
 154 0038 0449     	 ldr r1,.L23+8
 155 003a F8E7     	 b .L22
 156              	.LVL20:
 157              	.L20:
 114:C:/Workspace/DAVE-4.4.2-64Bit/optiga-trust-m/pal/xmc-dave\pal_os_datastore.c **** 
 158              	 .loc 1 114 0
 159 003c 0123     	 mov r3,#1
 160              	.LVL21:
 161              	.L14:
 152:C:/Workspace/DAVE-4.4.2-64Bit/optiga-trust-m/pal/xmc-dave\pal_os_datastore.c ****             return_status = PAL_STATUS_SUCCESS;
 153:C:/Workspace/DAVE-4.4.2-64Bit/optiga-trust-m/pal/xmc-dave\pal_os_datastore.c ****             break;
 154:C:/Workspace/DAVE-4.4.2-64Bit/optiga-trust-m/pal/xmc-dave\pal_os_datastore.c ****         }
 155:C:/Workspace/DAVE-4.4.2-64Bit/optiga-trust-m/pal/xmc-dave\pal_os_datastore.c ****         default:
 156:C:/Workspace/DAVE-4.4.2-64Bit/optiga-trust-m/pal/xmc-dave\pal_os_datastore.c ****         {
 157:C:/Workspace/DAVE-4.4.2-64Bit/optiga-trust-m/pal/xmc-dave\pal_os_datastore.c ****             break;
 158:C:/Workspace/DAVE-4.4.2-64Bit/optiga-trust-m/pal/xmc-dave\pal_os_datastore.c ****         }
 159:C:/Workspace/DAVE-4.4.2-64Bit/optiga-trust-m/pal/xmc-dave\pal_os_datastore.c ****     }
 160:C:/Workspace/DAVE-4.4.2-64Bit/optiga-trust-m/pal/xmc-dave\pal_os_datastore.c **** 
 161:C:/Workspace/DAVE-4.4.2-64Bit/optiga-trust-m/pal/xmc-dave\pal_os_datastore.c ****     return return_status;
 162:C:/Workspace/DAVE-4.4.2-64Bit/optiga-trust-m/pal/xmc-dave\pal_os_datastore.c **** }
 162              	 .loc 1 162 0
 163 003e 181C     	 mov r0,r3
 164              	 
 165              	.LVL22:
 166 0040 38BD     	 pop {r3,r4,r5,pc}
 167              	.L24:
 168 0042 C046     	 .align 2
 169              	.L23:
 170 0044 00000000 	 .word .LANCHOR0
 171 0048 00000000 	 .word data_store_buffer
 172 004c 00000000 	 .word data_store_app_context_buffer
 173              	 .cfi_endproc
 174              	.LFE1:
 176              	 .global optiga_platform_binding_shared_secret
 177              	 .comm data_store_app_context_buffer,8,1
 178              	 .comm data_store_buffer,66,1
 179              	 .section .bss.optiga_platform_binding_shared_secret,"aw",%nobits
 180              	 .set .LANCHOR0,.+0
 183              	optiga_platform_binding_shared_secret:
 184 0000 00000000 	 .space 64
 184      00000000 
 184      00000000 
 184      00000000 
 184      00000000 
 185              	 .text
 186              	.Letext0:
 187              	 .file 2 "c:\\dave_4-4-2_64bit\\dave-ide-4.4.2-64bit\\eclipse\\arm-gcc-49\\arm-none-eabi\\include\\machine\\_default_types.h"
 188              	 .file 3 "c:\\dave_4-4-2_64bit\\dave-ide-4.4.2-64bit\\eclipse\\arm-gcc-49\\arm-none-eabi\\include\\stdint.h"
 189              	 .file 4 "C:/Workspace/DAVE-4.4.2-64Bit/optiga-trust-m/optiga/include/optiga/pal/pal.h"