   1              	 .cpu cortex-m0
   2              	 .fpu softvfp
   3              	 .eabi_attribute 20,1
   4              	 .eabi_attribute 21,1
   5              	 .eabi_attribute 23,3
   6              	 .eabi_attribute 24,1
   7              	 .eabi_attribute 25,1
   8              	 .eabi_attribute 26,1
   9              	 .eabi_attribute 30,4
  10              	 .eabi_attribute 34,0
  11              	 .eabi_attribute 18,4
  12              	 .code 16
  13              	 .file "optiga_cmd.c"
  14              	 .text
  15              	.Ltext0:
  16              	 .cfi_sections .debug_frame
  17              	 .section .text.optiga_cmd_prepare_tag_header,"ax",%progbits
  18              	 .align 1
  19              	 .code 16
  20              	 .thumb_func
  22              	optiga_cmd_prepare_tag_header:
  23              	.LFB2:
  24              	 .file 1 "C:/Workspace/DAVE-4.4.2-64Bit/optiga-trust-m/optiga/cmd/optiga_cmd.c"
   1:C:/Workspace/DAVE-4.4.2-64Bit/optiga-trust-m/optiga/cmd\optiga_cmd.c **** /**
   2:C:/Workspace/DAVE-4.4.2-64Bit/optiga-trust-m/optiga/cmd\optiga_cmd.c **** * \copyright
   3:C:/Workspace/DAVE-4.4.2-64Bit/optiga-trust-m/optiga/cmd\optiga_cmd.c **** * MIT License
   4:C:/Workspace/DAVE-4.4.2-64Bit/optiga-trust-m/optiga/cmd\optiga_cmd.c **** *
   5:C:/Workspace/DAVE-4.4.2-64Bit/optiga-trust-m/optiga/cmd\optiga_cmd.c **** * Copyright (c) 2019 Infineon Technologies AG
   6:C:/Workspace/DAVE-4.4.2-64Bit/optiga-trust-m/optiga/cmd\optiga_cmd.c **** *
   7:C:/Workspace/DAVE-4.4.2-64Bit/optiga-trust-m/optiga/cmd\optiga_cmd.c **** * Permission is hereby granted, free of charge, to any person obtaining a copy
   8:C:/Workspace/DAVE-4.4.2-64Bit/optiga-trust-m/optiga/cmd\optiga_cmd.c **** * of this software and associated documentation files (the "Software"), to deal
   9:C:/Workspace/DAVE-4.4.2-64Bit/optiga-trust-m/optiga/cmd\optiga_cmd.c **** * in the Software without restriction, including without limitation the rights
  10:C:/Workspace/DAVE-4.4.2-64Bit/optiga-trust-m/optiga/cmd\optiga_cmd.c **** * to use, copy, modify, merge, publish, distribute, sublicense, and/or sell
  11:C:/Workspace/DAVE-4.4.2-64Bit/optiga-trust-m/optiga/cmd\optiga_cmd.c **** * copies of the Software, and to permit persons to whom the Software is
  12:C:/Workspace/DAVE-4.4.2-64Bit/optiga-trust-m/optiga/cmd\optiga_cmd.c **** * furnished to do so, subject to the following conditions:
  13:C:/Workspace/DAVE-4.4.2-64Bit/optiga-trust-m/optiga/cmd\optiga_cmd.c **** *
  14:C:/Workspace/DAVE-4.4.2-64Bit/optiga-trust-m/optiga/cmd\optiga_cmd.c **** * The above copyright notice and this permission notice shall be included in all
  15:C:/Workspace/DAVE-4.4.2-64Bit/optiga-trust-m/optiga/cmd\optiga_cmd.c **** * copies or substantial portions of the Software.
  16:C:/Workspace/DAVE-4.4.2-64Bit/optiga-trust-m/optiga/cmd\optiga_cmd.c **** *
  17:C:/Workspace/DAVE-4.4.2-64Bit/optiga-trust-m/optiga/cmd\optiga_cmd.c **** * THE SOFTWARE IS PROVIDED "AS IS", WITHOUT WARRANTY OF ANY KIND, EXPRESS OR
  18:C:/Workspace/DAVE-4.4.2-64Bit/optiga-trust-m/optiga/cmd\optiga_cmd.c **** * IMPLIED, INCLUDING BUT NOT LIMITED TO THE WARRANTIES OF MERCHANTABILITY,
  19:C:/Workspace/DAVE-4.4.2-64Bit/optiga-trust-m/optiga/cmd\optiga_cmd.c **** * FITNESS FOR A PARTICULAR PURPOSE AND NONINFRINGEMENT. IN NO EVENT SHALL THE
  20:C:/Workspace/DAVE-4.4.2-64Bit/optiga-trust-m/optiga/cmd\optiga_cmd.c **** * AUTHORS OR COPYRIGHT HOLDERS BE LIABLE FOR ANY CLAIM, DAMAGES OR OTHER
  21:C:/Workspace/DAVE-4.4.2-64Bit/optiga-trust-m/optiga/cmd\optiga_cmd.c **** * LIABILITY, WHETHER IN AN ACTION OF CONTRACT, TORT OR OTHERWISE, ARISING FROM,
  22:C:/Workspace/DAVE-4.4.2-64Bit/optiga-trust-m/optiga/cmd\optiga_cmd.c **** * OUT OF OR IN CONNECTION WITH THE SOFTWARE OR THE USE OR OTHER DEALINGS IN THE
  23:C:/Workspace/DAVE-4.4.2-64Bit/optiga-trust-m/optiga/cmd\optiga_cmd.c **** * SOFTWARE
  24:C:/Workspace/DAVE-4.4.2-64Bit/optiga-trust-m/optiga/cmd\optiga_cmd.c **** *
  25:C:/Workspace/DAVE-4.4.2-64Bit/optiga-trust-m/optiga/cmd\optiga_cmd.c **** * \endcopyright
  26:C:/Workspace/DAVE-4.4.2-64Bit/optiga-trust-m/optiga/cmd\optiga_cmd.c **** *
  27:C:/Workspace/DAVE-4.4.2-64Bit/optiga-trust-m/optiga/cmd\optiga_cmd.c **** * \author Infineon Technologies AG
  28:C:/Workspace/DAVE-4.4.2-64Bit/optiga-trust-m/optiga/cmd\optiga_cmd.c **** *
  29:C:/Workspace/DAVE-4.4.2-64Bit/optiga-trust-m/optiga/cmd\optiga_cmd.c **** * \file optiga_cmd.c
  30:C:/Workspace/DAVE-4.4.2-64Bit/optiga-trust-m/optiga/cmd\optiga_cmd.c **** *
  31:C:/Workspace/DAVE-4.4.2-64Bit/optiga-trust-m/optiga/cmd\optiga_cmd.c **** * \brief   This file implements cmd modules which covers OPTIGA command formation, locking mechanis
  32:C:/Workspace/DAVE-4.4.2-64Bit/optiga-trust-m/optiga/cmd\optiga_cmd.c **** *          acquisition and asynchronous data handling
  33:C:/Workspace/DAVE-4.4.2-64Bit/optiga-trust-m/optiga/cmd\optiga_cmd.c **** *
  34:C:/Workspace/DAVE-4.4.2-64Bit/optiga-trust-m/optiga/cmd\optiga_cmd.c **** * \ingroup  grOptigaCmd
  35:C:/Workspace/DAVE-4.4.2-64Bit/optiga-trust-m/optiga/cmd\optiga_cmd.c **** *
  36:C:/Workspace/DAVE-4.4.2-64Bit/optiga-trust-m/optiga/cmd\optiga_cmd.c **** * @{
  37:C:/Workspace/DAVE-4.4.2-64Bit/optiga-trust-m/optiga/cmd\optiga_cmd.c **** */
  38:C:/Workspace/DAVE-4.4.2-64Bit/optiga-trust-m/optiga/cmd\optiga_cmd.c **** 
  39:C:/Workspace/DAVE-4.4.2-64Bit/optiga-trust-m/optiga/cmd\optiga_cmd.c **** 
  40:C:/Workspace/DAVE-4.4.2-64Bit/optiga-trust-m/optiga/cmd\optiga_cmd.c **** #include "optiga/cmd/optiga_cmd.h"
  41:C:/Workspace/DAVE-4.4.2-64Bit/optiga-trust-m/optiga/cmd\optiga_cmd.c **** #include "optiga/common/optiga_lib_common_internal.h"
  42:C:/Workspace/DAVE-4.4.2-64Bit/optiga-trust-m/optiga/cmd\optiga_cmd.c **** #include "optiga/common/optiga_lib_logger.h"
  43:C:/Workspace/DAVE-4.4.2-64Bit/optiga-trust-m/optiga/cmd\optiga_cmd.c **** #include "optiga/comms/optiga_comms.h"
  44:C:/Workspace/DAVE-4.4.2-64Bit/optiga-trust-m/optiga/cmd\optiga_cmd.c **** #include "optiga/pal/pal_os_event.h"
  45:C:/Workspace/DAVE-4.4.2-64Bit/optiga-trust-m/optiga/cmd\optiga_cmd.c **** #include "optiga/pal/pal_os_lock.h"
  46:C:/Workspace/DAVE-4.4.2-64Bit/optiga-trust-m/optiga/cmd\optiga_cmd.c **** #include "optiga/pal/pal_os_timer.h"
  47:C:/Workspace/DAVE-4.4.2-64Bit/optiga-trust-m/optiga/cmd\optiga_cmd.c **** #include "optiga/pal/pal_os_memory.h"
  48:C:/Workspace/DAVE-4.4.2-64Bit/optiga-trust-m/optiga/cmd\optiga_cmd.c **** #include "optiga/pal/pal_ifx_i2c_config.h"
  49:C:/Workspace/DAVE-4.4.2-64Bit/optiga-trust-m/optiga/cmd\optiga_cmd.c **** 
  50:C:/Workspace/DAVE-4.4.2-64Bit/optiga-trust-m/optiga/cmd\optiga_cmd.c **** //cmd byte for clearing last error code
  51:C:/Workspace/DAVE-4.4.2-64Bit/optiga-trust-m/optiga/cmd\optiga_cmd.c **** #define OPTIGA_CMD_CLEAR_LAST_ERROR              (0x80)
  52:C:/Workspace/DAVE-4.4.2-64Bit/optiga-trust-m/optiga/cmd\optiga_cmd.c **** //cmd byte for OpenApplication command
  53:C:/Workspace/DAVE-4.4.2-64Bit/optiga-trust-m/optiga/cmd\optiga_cmd.c **** #define OPTIGA_CMD_OPEN_APPLICATION              (0x70 | OPTIGA_CMD_CLEAR_LAST_ERROR)
  54:C:/Workspace/DAVE-4.4.2-64Bit/optiga-trust-m/optiga/cmd\optiga_cmd.c **** //cmd byte for CloseApplication command
  55:C:/Workspace/DAVE-4.4.2-64Bit/optiga-trust-m/optiga/cmd\optiga_cmd.c **** #define OPTIGA_CMD_CLOSE_APPLICATION             (0x71 | OPTIGA_CMD_CLEAR_LAST_ERROR)
  56:C:/Workspace/DAVE-4.4.2-64Bit/optiga-trust-m/optiga/cmd\optiga_cmd.c **** //cmd byte for GetDataObject command
  57:C:/Workspace/DAVE-4.4.2-64Bit/optiga-trust-m/optiga/cmd\optiga_cmd.c **** #define OPTIGA_CMD_GET_DATA_OBJECT               (0x01 | OPTIGA_CMD_CLEAR_LAST_ERROR)
  58:C:/Workspace/DAVE-4.4.2-64Bit/optiga-trust-m/optiga/cmd\optiga_cmd.c **** //cmd byte for SetDataObject command
  59:C:/Workspace/DAVE-4.4.2-64Bit/optiga-trust-m/optiga/cmd\optiga_cmd.c **** #define OPTIGA_CMD_SET_DATA_OBJECT               (0x02 | OPTIGA_CMD_CLEAR_LAST_ERROR)
  60:C:/Workspace/DAVE-4.4.2-64Bit/optiga-trust-m/optiga/cmd\optiga_cmd.c **** //cmd byte for GetRandom command
  61:C:/Workspace/DAVE-4.4.2-64Bit/optiga-trust-m/optiga/cmd\optiga_cmd.c **** #define OPTIGA_CMD_GET_RANDOM                    (0x0C | OPTIGA_CMD_CLEAR_LAST_ERROR)
  62:C:/Workspace/DAVE-4.4.2-64Bit/optiga-trust-m/optiga/cmd\optiga_cmd.c **** //cmd byte for CalcHash command
  63:C:/Workspace/DAVE-4.4.2-64Bit/optiga-trust-m/optiga/cmd\optiga_cmd.c **** #define OPTIGA_CMD_CALC_HASH                     (0x30 | OPTIGA_CMD_CLEAR_LAST_ERROR)
  64:C:/Workspace/DAVE-4.4.2-64Bit/optiga-trust-m/optiga/cmd\optiga_cmd.c **** //cmd byte for CalcSign command
  65:C:/Workspace/DAVE-4.4.2-64Bit/optiga-trust-m/optiga/cmd\optiga_cmd.c **** #define OPTIGA_CMD_CALC_SIGN                     (0x31 | OPTIGA_CMD_CLEAR_LAST_ERROR)
  66:C:/Workspace/DAVE-4.4.2-64Bit/optiga-trust-m/optiga/cmd\optiga_cmd.c **** //cmd byte for VerifySign command
  67:C:/Workspace/DAVE-4.4.2-64Bit/optiga-trust-m/optiga/cmd\optiga_cmd.c **** #define OPTIGA_CMD_VERIFY_SIGN                   (0x32 | OPTIGA_CMD_CLEAR_LAST_ERROR)
  68:C:/Workspace/DAVE-4.4.2-64Bit/optiga-trust-m/optiga/cmd\optiga_cmd.c **** //cmd byte for CalcSsec command
  69:C:/Workspace/DAVE-4.4.2-64Bit/optiga-trust-m/optiga/cmd\optiga_cmd.c **** #define OPTIGA_CMD_CALC_SSEC                     (0x33 | OPTIGA_CMD_CLEAR_LAST_ERROR)
  70:C:/Workspace/DAVE-4.4.2-64Bit/optiga-trust-m/optiga/cmd\optiga_cmd.c **** //cmd byte for DeriveKey command
  71:C:/Workspace/DAVE-4.4.2-64Bit/optiga-trust-m/optiga/cmd\optiga_cmd.c **** #define OPTIGA_CMD_DERIVE_KEY                    (0x34 | OPTIGA_CMD_CLEAR_LAST_ERROR)
  72:C:/Workspace/DAVE-4.4.2-64Bit/optiga-trust-m/optiga/cmd\optiga_cmd.c **** //cmd byte for GenKeyPair command
  73:C:/Workspace/DAVE-4.4.2-64Bit/optiga-trust-m/optiga/cmd\optiga_cmd.c **** #define OPTIGA_CMD_GEN_KEYPAIR                   (0x38 | OPTIGA_CMD_CLEAR_LAST_ERROR)
  74:C:/Workspace/DAVE-4.4.2-64Bit/optiga-trust-m/optiga/cmd\optiga_cmd.c **** //cmd byte for EncryptAsym command
  75:C:/Workspace/DAVE-4.4.2-64Bit/optiga-trust-m/optiga/cmd\optiga_cmd.c **** #define OPTIGA_CMD_ENCRYPT_ASYM                  (0x1E | OPTIGA_CMD_CLEAR_LAST_ERROR)
  76:C:/Workspace/DAVE-4.4.2-64Bit/optiga-trust-m/optiga/cmd\optiga_cmd.c **** //cmd byte for DecryptAsym command
  77:C:/Workspace/DAVE-4.4.2-64Bit/optiga-trust-m/optiga/cmd\optiga_cmd.c **** #define OPTIGA_CMD_DECRYPT_ASYM                  (0x1F | OPTIGA_CMD_CLEAR_LAST_ERROR)
  78:C:/Workspace/DAVE-4.4.2-64Bit/optiga-trust-m/optiga/cmd\optiga_cmd.c **** //cmd byte for SetObjectProtected command
  79:C:/Workspace/DAVE-4.4.2-64Bit/optiga-trust-m/optiga/cmd\optiga_cmd.c **** #define OPTIGA_CMD_SET_OBJECT_PROTECTED          (0x03 | OPTIGA_CMD_CLEAR_LAST_ERROR)
  80:C:/Workspace/DAVE-4.4.2-64Bit/optiga-trust-m/optiga/cmd\optiga_cmd.c **** 
  81:C:/Workspace/DAVE-4.4.2-64Bit/optiga-trust-m/optiga/cmd\optiga_cmd.c **** 
  82:C:/Workspace/DAVE-4.4.2-64Bit/optiga-trust-m/optiga/cmd\optiga_cmd.c **** #define OPTIGA_CMD_MAX_NUMBER_OF_SESSIONS        (0x04)
  83:C:/Workspace/DAVE-4.4.2-64Bit/optiga-trust-m/optiga/cmd\optiga_cmd.c **** #define OPTIGA_CMD_START_SESSION_OID             (0xE100)
  84:C:/Workspace/DAVE-4.4.2-64Bit/optiga-trust-m/optiga/cmd\optiga_cmd.c **** 
  85:C:/Workspace/DAVE-4.4.2-64Bit/optiga-trust-m/optiga/cmd\optiga_cmd.c **** // Considering the size w.r.t maximum APDU size + shielded connection if enabled.
  86:C:/Workspace/DAVE-4.4.2-64Bit/optiga-trust-m/optiga/cmd\optiga_cmd.c **** #define OPTIGA_CMD_TOTAL_COMMS_BUFFER_SIZE       (OPTIGA_MAX_COMMS_BUFFER_SIZE + OPTIGA_COMMS_PRL_O
  87:C:/Workspace/DAVE-4.4.2-64Bit/optiga-trust-m/optiga/cmd\optiga_cmd.c **** 
  88:C:/Workspace/DAVE-4.4.2-64Bit/optiga-trust-m/optiga/cmd\optiga_cmd.c **** #define OPTIGA_CMD_APDU_HEADER_SIZE              (0x04)
  89:C:/Workspace/DAVE-4.4.2-64Bit/optiga-trust-m/optiga/cmd\optiga_cmd.c **** 
  90:C:/Workspace/DAVE-4.4.2-64Bit/optiga-trust-m/optiga/cmd\optiga_cmd.c **** #define OPTIGA_CMD_LAST_ERROR_CODE               (0xF1C2)
  91:C:/Workspace/DAVE-4.4.2-64Bit/optiga-trust-m/optiga/cmd\optiga_cmd.c **** 
  92:C:/Workspace/DAVE-4.4.2-64Bit/optiga-trust-m/optiga/cmd\optiga_cmd.c **** #define OPTIGA_CMD_APDU_INDATA_OFFSET            (OPTIGA_CMD_APDU_HEADER_SIZE + OPTIGA_COMMS_DATA_O
  93:C:/Workspace/DAVE-4.4.2-64Bit/optiga-trust-m/optiga/cmd\optiga_cmd.c **** 
  94:C:/Workspace/DAVE-4.4.2-64Bit/optiga-trust-m/optiga/cmd\optiga_cmd.c **** #define OPTIGA_CMD_HASH_HEADER_SIZE              (0x06) //(hash_input_header_size + context_header_
  95:C:/Workspace/DAVE-4.4.2-64Bit/optiga-trust-m/optiga/cmd\optiga_cmd.c **** // Intermediate context header size
  96:C:/Workspace/DAVE-4.4.2-64Bit/optiga-trust-m/optiga/cmd\optiga_cmd.c **** #define OPTIGA_CMD_INTERMEDIATE_CONTEX_HEADER    (0x03)
  97:C:/Workspace/DAVE-4.4.2-64Bit/optiga-trust-m/optiga/cmd\optiga_cmd.c **** // Zero length or value
  98:C:/Workspace/DAVE-4.4.2-64Bit/optiga-trust-m/optiga/cmd\optiga_cmd.c **** #define OPTIGA_CMD_ZERO_LENGTH_OR_VALUE          (0x0000)
  99:C:/Workspace/DAVE-4.4.2-64Bit/optiga-trust-m/optiga/cmd\optiga_cmd.c **** // OID data length
 100:C:/Workspace/DAVE-4.4.2-64Bit/optiga-trust-m/optiga/cmd\optiga_cmd.c **** #define OPTIGA_CMD_OID_DATA_LENGTH               (0x0006)
 101:C:/Workspace/DAVE-4.4.2-64Bit/optiga-trust-m/optiga/cmd\optiga_cmd.c **** 
 102:C:/Workspace/DAVE-4.4.2-64Bit/optiga-trust-m/optiga/cmd\optiga_cmd.c **** //Number of bytes in tag
 103:C:/Workspace/DAVE-4.4.2-64Bit/optiga-trust-m/optiga/cmd\optiga_cmd.c **** #define OPTIGA_CMD_NO_OF_BYTES_IN_TAG            (0x01)
 104:C:/Workspace/DAVE-4.4.2-64Bit/optiga-trust-m/optiga/cmd\optiga_cmd.c **** 
 105:C:/Workspace/DAVE-4.4.2-64Bit/optiga-trust-m/optiga/cmd\optiga_cmd.c **** //Number of bytes in OFFSET
 106:C:/Workspace/DAVE-4.4.2-64Bit/optiga-trust-m/optiga/cmd\optiga_cmd.c **** #define OPTIGA_CMD_UINT16_SIZE_IN_BYTES          (0x02)
 107:C:/Workspace/DAVE-4.4.2-64Bit/optiga-trust-m/optiga/cmd\optiga_cmd.c **** 
 108:C:/Workspace/DAVE-4.4.2-64Bit/optiga-trust-m/optiga/cmd\optiga_cmd.c **** #define START_OPTIGA_COMMS_CLOSE                 (0x02)
 109:C:/Workspace/DAVE-4.4.2-64Bit/optiga-trust-m/optiga/cmd\optiga_cmd.c **** 
 110:C:/Workspace/DAVE-4.4.2-64Bit/optiga-trust-m/optiga/cmd\optiga_cmd.c **** #define OPTIGA_CMD_APDU_SUCCESS                  (0x00)
 111:C:/Workspace/DAVE-4.4.2-64Bit/optiga-trust-m/optiga/cmd\optiga_cmd.c **** #define OPTIGA_CMD_APDU_FAILURE                  (0xFF)
 112:C:/Workspace/DAVE-4.4.2-64Bit/optiga-trust-m/optiga/cmd\optiga_cmd.c **** 
 113:C:/Workspace/DAVE-4.4.2-64Bit/optiga-trust-m/optiga/cmd\optiga_cmd.c **** #define CMD_WRITE_ONLY                           (0x00)
 114:C:/Workspace/DAVE-4.4.2-64Bit/optiga-trust-m/optiga/cmd\optiga_cmd.c **** #define CMD_READ_DATA                            (0x00)
 115:C:/Workspace/DAVE-4.4.2-64Bit/optiga-trust-m/optiga/cmd\optiga_cmd.c **** #define CMD_GET_DATA_OBJECT_NO_ERROR_CLEAR       (0x01)
 116:C:/Workspace/DAVE-4.4.2-64Bit/optiga-trust-m/optiga/cmd\optiga_cmd.c **** 
 117:C:/Workspace/DAVE-4.4.2-64Bit/optiga-trust-m/optiga/cmd\optiga_cmd.c **** //Calc sign tag values
 118:C:/Workspace/DAVE-4.4.2-64Bit/optiga-trust-m/optiga/cmd\optiga_cmd.c **** #define CMD_SIGN_DIGEST_TAG                      (0x01)
 119:C:/Workspace/DAVE-4.4.2-64Bit/optiga-trust-m/optiga/cmd\optiga_cmd.c **** #define CMD_SIGN_OID_TAG                         (0x03)
 120:C:/Workspace/DAVE-4.4.2-64Bit/optiga-trust-m/optiga/cmd\optiga_cmd.c **** #define CMD_SIGN_OID_LEN                         (0x0002)
 121:C:/Workspace/DAVE-4.4.2-64Bit/optiga-trust-m/optiga/cmd\optiga_cmd.c **** 
 122:C:/Workspace/DAVE-4.4.2-64Bit/optiga-trust-m/optiga/cmd\optiga_cmd.c **** //Calc SSec tag values
 123:C:/Workspace/DAVE-4.4.2-64Bit/optiga-trust-m/optiga/cmd\optiga_cmd.c **** #define CMD_SSEC_PRIVATE_KEY_TAG                 (0x01)
 124:C:/Workspace/DAVE-4.4.2-64Bit/optiga-trust-m/optiga/cmd\optiga_cmd.c **** #define CMD_SSEC_PRIVATE_KEY_LEN                 (0x0002)
 125:C:/Workspace/DAVE-4.4.2-64Bit/optiga-trust-m/optiga/cmd\optiga_cmd.c **** #define CMD_SSEC_ALG_ID_TAG                      (0x05)
 126:C:/Workspace/DAVE-4.4.2-64Bit/optiga-trust-m/optiga/cmd\optiga_cmd.c **** #define CMD_SSEC_ALG_ID_LEN                      (0x01)
 127:C:/Workspace/DAVE-4.4.2-64Bit/optiga-trust-m/optiga/cmd\optiga_cmd.c **** #define CMD_SSEC_PUB_KEY_TAG                     (0x06)
 128:C:/Workspace/DAVE-4.4.2-64Bit/optiga-trust-m/optiga/cmd\optiga_cmd.c **** #define CMD_SSEC_EXPORT_TAG                      (0x07)
 129:C:/Workspace/DAVE-4.4.2-64Bit/optiga-trust-m/optiga/cmd\optiga_cmd.c **** #define CMD_SSEC_EXPORT_LEN                      (0x0000)
 130:C:/Workspace/DAVE-4.4.2-64Bit/optiga-trust-m/optiga/cmd\optiga_cmd.c **** #define CMD_SSEC_STORE_SESSION_TAG               (0x08)
 131:C:/Workspace/DAVE-4.4.2-64Bit/optiga-trust-m/optiga/cmd\optiga_cmd.c **** #define CMD_SSEC_STORE_SESSION_LEN               (0x0002)
 132:C:/Workspace/DAVE-4.4.2-64Bit/optiga-trust-m/optiga/cmd\optiga_cmd.c **** 
 133:C:/Workspace/DAVE-4.4.2-64Bit/optiga-trust-m/optiga/cmd\optiga_cmd.c **** //Verify sign tag values
 134:C:/Workspace/DAVE-4.4.2-64Bit/optiga-trust-m/optiga/cmd\optiga_cmd.c **** #define CMD_VERIFY_SIGN_DIGEST_TAG               (0x01)
 135:C:/Workspace/DAVE-4.4.2-64Bit/optiga-trust-m/optiga/cmd\optiga_cmd.c **** #define CMD_VERIFY_SIGN_SIGNATURE_TAG            (0x02)
 136:C:/Workspace/DAVE-4.4.2-64Bit/optiga-trust-m/optiga/cmd\optiga_cmd.c **** #define CMD_VERIFY_SIGN_PUB_KEY_CERT_OID_TAG     (0x04)
 137:C:/Workspace/DAVE-4.4.2-64Bit/optiga-trust-m/optiga/cmd\optiga_cmd.c **** #define CMD_VERIFY_SIGN_PUB_KEY_CERT_OID_LENGTH  (0x0002)
 138:C:/Workspace/DAVE-4.4.2-64Bit/optiga-trust-m/optiga/cmd\optiga_cmd.c **** #define CMD_VERIFY_ALGO_ID_TAG                   (0x05)
 139:C:/Workspace/DAVE-4.4.2-64Bit/optiga-trust-m/optiga/cmd\optiga_cmd.c **** #define CMD_VERIFY_ALGO_ID_LENGTH                (0x0001)
 140:C:/Workspace/DAVE-4.4.2-64Bit/optiga-trust-m/optiga/cmd\optiga_cmd.c **** #define CMD_VERIFY_PUBLIC_KEY_TAG                (0x06)
 141:C:/Workspace/DAVE-4.4.2-64Bit/optiga-trust-m/optiga/cmd\optiga_cmd.c **** 
 142:C:/Workspace/DAVE-4.4.2-64Bit/optiga-trust-m/optiga/cmd\optiga_cmd.c **** //Generate key pair tag and length value
 143:C:/Workspace/DAVE-4.4.2-64Bit/optiga-trust-m/optiga/cmd\optiga_cmd.c **** #define CMD_GEN_KEY_PAIR_PRIVATE_KEY_OID_TAG     (0x01)
 144:C:/Workspace/DAVE-4.4.2-64Bit/optiga-trust-m/optiga/cmd\optiga_cmd.c **** #define CMD_GEN_KEY_PAIR_PRIVATE_KEY_OID_LENGTH  (0x0002)
 145:C:/Workspace/DAVE-4.4.2-64Bit/optiga-trust-m/optiga/cmd\optiga_cmd.c **** #define CMD_GEN_KEY_PAIR_KEY_USAGE_TAG           (0x02)
 146:C:/Workspace/DAVE-4.4.2-64Bit/optiga-trust-m/optiga/cmd\optiga_cmd.c **** #define CMD_GEN_KEY_PAIR_KEY_USAGE_LENGTH        (0x0001)
 147:C:/Workspace/DAVE-4.4.2-64Bit/optiga-trust-m/optiga/cmd\optiga_cmd.c **** #define CMD_GEN_KEY_PAIR_EXPORT_KEY_TAG          (0x07)
 148:C:/Workspace/DAVE-4.4.2-64Bit/optiga-trust-m/optiga/cmd\optiga_cmd.c **** #define CMD_GEN_KEY_PAIR_EXPORT_KEY_LENGTH       (0x0000)
 149:C:/Workspace/DAVE-4.4.2-64Bit/optiga-trust-m/optiga/cmd\optiga_cmd.c **** #define CMD_GEN_KEY_PAIR_PUBLIC_KEY_TAG          (0x02)
 150:C:/Workspace/DAVE-4.4.2-64Bit/optiga-trust-m/optiga/cmd\optiga_cmd.c **** #define CMD_GEN_KEY_PAIR_PRIVATE_KEY_TAG         (0x01)
 151:C:/Workspace/DAVE-4.4.2-64Bit/optiga-trust-m/optiga/cmd\optiga_cmd.c **** 
 152:C:/Workspace/DAVE-4.4.2-64Bit/optiga-trust-m/optiga/cmd\optiga_cmd.c **** //Derive key tag value
 153:C:/Workspace/DAVE-4.4.2-64Bit/optiga-trust-m/optiga/cmd\optiga_cmd.c **** #define CMD_DERIVE_KEY_SEC_OID_TAG               (0x01)
 154:C:/Workspace/DAVE-4.4.2-64Bit/optiga-trust-m/optiga/cmd\optiga_cmd.c **** #define CMD_DERIVE_KEY_SEC_OID_TAG_LENGTH        (0x0002)
 155:C:/Workspace/DAVE-4.4.2-64Bit/optiga-trust-m/optiga/cmd\optiga_cmd.c **** #define CMD_DERIVE_KEY_DERIVATION_DATA_TAG       (0x02)
 156:C:/Workspace/DAVE-4.4.2-64Bit/optiga-trust-m/optiga/cmd\optiga_cmd.c **** #define CMD_DERIVE_KEY_KEY_LEN_TAG_LENGTH        (0x0002)
 157:C:/Workspace/DAVE-4.4.2-64Bit/optiga-trust-m/optiga/cmd\optiga_cmd.c **** #define CMD_DERIVE_KEY_KEY_LEN_TAG               (0x03)
 158:C:/Workspace/DAVE-4.4.2-64Bit/optiga-trust-m/optiga/cmd\optiga_cmd.c **** #define CMD_DERIVE_KEY_EXPORT_TAG                (0x07)
 159:C:/Workspace/DAVE-4.4.2-64Bit/optiga-trust-m/optiga/cmd\optiga_cmd.c **** #define CMD_DERIVE_KEY_STORE_TAG                 (0x08)
 160:C:/Workspace/DAVE-4.4.2-64Bit/optiga-trust-m/optiga/cmd\optiga_cmd.c **** #define CMD_DERIVE_KEY_STORE_TAG_LENGTH          (0x0002)
 161:C:/Workspace/DAVE-4.4.2-64Bit/optiga-trust-m/optiga/cmd\optiga_cmd.c **** #define CMD_DERIVE_KEY_DERIVE_KEY_LEN_MIN        (0x10)
 162:C:/Workspace/DAVE-4.4.2-64Bit/optiga-trust-m/optiga/cmd\optiga_cmd.c **** 
 163:C:/Workspace/DAVE-4.4.2-64Bit/optiga-trust-m/optiga/cmd\optiga_cmd.c **** //Encrypt asym tag values
 164:C:/Workspace/DAVE-4.4.2-64Bit/optiga-trust-m/optiga/cmd\optiga_cmd.c **** #define CMD_ENCRYPT_ASYM_SESSION_OID_TAG         (0x02)
 165:C:/Workspace/DAVE-4.4.2-64Bit/optiga-trust-m/optiga/cmd\optiga_cmd.c **** #define CMD_ENCRYPT_ASYM_SESSION_OID_LENGTH      (0x0002)
 166:C:/Workspace/DAVE-4.4.2-64Bit/optiga-trust-m/optiga/cmd\optiga_cmd.c **** #define CMD_ENCRYPT_ASYM_MESSAGE_TAG             (0x61)
 167:C:/Workspace/DAVE-4.4.2-64Bit/optiga-trust-m/optiga/cmd\optiga_cmd.c **** #define CMD_ENCRYPT_ASYM_PUB_KEY_CERT_OID_TAG    (0x04)
 168:C:/Workspace/DAVE-4.4.2-64Bit/optiga-trust-m/optiga/cmd\optiga_cmd.c **** #define CMD_ENCRYPT_ASYM_PUB_KEY_CERT_OID_LENGTH (0x0002)
 169:C:/Workspace/DAVE-4.4.2-64Bit/optiga-trust-m/optiga/cmd\optiga_cmd.c **** #define CMD_ENCRYPT_ASYM_ALGO_ID_TAG             (0x05)
 170:C:/Workspace/DAVE-4.4.2-64Bit/optiga-trust-m/optiga/cmd\optiga_cmd.c **** #define CMD_ENCRYPT_ASYM_ALGO_ID_LENGTH          (0x0001)
 171:C:/Workspace/DAVE-4.4.2-64Bit/optiga-trust-m/optiga/cmd\optiga_cmd.c **** #define CMD_ENCRYPT_ASYM_PUBLIC_KEY_TAG          (0x06)
 172:C:/Workspace/DAVE-4.4.2-64Bit/optiga-trust-m/optiga/cmd\optiga_cmd.c **** 
 173:C:/Workspace/DAVE-4.4.2-64Bit/optiga-trust-m/optiga/cmd\optiga_cmd.c **** //Decrypt asym key tag value
 174:C:/Workspace/DAVE-4.4.2-64Bit/optiga-trust-m/optiga/cmd\optiga_cmd.c **** #define CMD_DECRYPT_ASYM_ENCRYPT_MESSAGE_TAG     (0x61)
 175:C:/Workspace/DAVE-4.4.2-64Bit/optiga-trust-m/optiga/cmd\optiga_cmd.c **** #define CMD_DECRYPT_ASYM_DECRYPT_KEY_TAG         (0x03)
 176:C:/Workspace/DAVE-4.4.2-64Bit/optiga-trust-m/optiga/cmd\optiga_cmd.c **** #define CMD_DECRYPT_ASYM_DECRYPT_KEY_LENGTH      (0x0002)
 177:C:/Workspace/DAVE-4.4.2-64Bit/optiga-trust-m/optiga/cmd\optiga_cmd.c **** #define CMD_DECRYPT_ASYM_SESSION_OID_TAG         (0x02)
 178:C:/Workspace/DAVE-4.4.2-64Bit/optiga-trust-m/optiga/cmd\optiga_cmd.c **** #define CMD_DECRYPT_ASYM_SESSION_OID_LENGTH      (0x0002)
 179:C:/Workspace/DAVE-4.4.2-64Bit/optiga-trust-m/optiga/cmd\optiga_cmd.c **** 
 180:C:/Workspace/DAVE-4.4.2-64Bit/optiga-trust-m/optiga/cmd\optiga_cmd.c **** #define OPTIGA_PROTECTION_LEVEL_MASK             (0x03)
 181:C:/Workspace/DAVE-4.4.2-64Bit/optiga-trust-m/optiga/cmd\optiga_cmd.c **** 
 182:C:/Workspace/DAVE-4.4.2-64Bit/optiga-trust-m/optiga/cmd\optiga_cmd.c **** #define OPTIGA_CMD_ERROR_CODE_PREPARE            (0x01)
 183:C:/Workspace/DAVE-4.4.2-64Bit/optiga-trust-m/optiga/cmd\optiga_cmd.c **** #define OPTIGA_CMD_ERROR_CODE_TX                 (0x02)
 184:C:/Workspace/DAVE-4.4.2-64Bit/optiga-trust-m/optiga/cmd\optiga_cmd.c **** #define OPTIGA_CMD_ERROR_CODE_RX                 (0x03)
 185:C:/Workspace/DAVE-4.4.2-64Bit/optiga-trust-m/optiga/cmd\optiga_cmd.c **** #define OPTIGA_CMD_ERROR_CODE_STATE_MASK         (0x03)
 186:C:/Workspace/DAVE-4.4.2-64Bit/optiga-trust-m/optiga/cmd\optiga_cmd.c **** #define OPTIGA_CMD_ENTER_HANDLER_CALL_MASK       (0x80)
 187:C:/Workspace/DAVE-4.4.2-64Bit/optiga-trust-m/optiga/cmd\optiga_cmd.c **** #define OPTIGA_CMD_ENTER_HANDLER_CALL            (0x80)
 188:C:/Workspace/DAVE-4.4.2-64Bit/optiga-trust-m/optiga/cmd\optiga_cmd.c **** #define OPTIGA_CMD_EXIT_HANDLER_CALL             (0x00)
 189:C:/Workspace/DAVE-4.4.2-64Bit/optiga-trust-m/optiga/cmd\optiga_cmd.c **** #define OPTIGA_CMD_OUT_OF_BOUNDARY_ERROR         (0x08)
 190:C:/Workspace/DAVE-4.4.2-64Bit/optiga-trust-m/optiga/cmd\optiga_cmd.c **** 
 191:C:/Workspace/DAVE-4.4.2-64Bit/optiga-trust-m/optiga/cmd\optiga_cmd.c **** //RSA pre master optional data tag and length value
 192:C:/Workspace/DAVE-4.4.2-64Bit/optiga-trust-m/optiga/cmd\optiga_cmd.c **** #define CMD_RSA_PRE_MASTER_OPTIONAL_DATA_TAG     (0x41)
 193:C:/Workspace/DAVE-4.4.2-64Bit/optiga-trust-m/optiga/cmd\optiga_cmd.c **** 
 194:C:/Workspace/DAVE-4.4.2-64Bit/optiga-trust-m/optiga/cmd\optiga_cmd.c **** /// Param type for optiga pre master secret
 195:C:/Workspace/DAVE-4.4.2-64Bit/optiga-trust-m/optiga/cmd\optiga_cmd.c **** #define CMD_RANDOM_PARAM_TYPE_PRE_MASTER_SECRET  (0x04)
 196:C:/Workspace/DAVE-4.4.2-64Bit/optiga-trust-m/optiga/cmd\optiga_cmd.c **** 
 197:C:/Workspace/DAVE-4.4.2-64Bit/optiga-trust-m/optiga/cmd\optiga_cmd.c **** /// Set object protected tag
 198:C:/Workspace/DAVE-4.4.2-64Bit/optiga-trust-m/optiga/cmd\optiga_cmd.c **** #define CMD_SET_OBJECT_PROTECTED_TAG             (0x30)
 199:C:/Workspace/DAVE-4.4.2-64Bit/optiga-trust-m/optiga/cmd\optiga_cmd.c **** 
 200:C:/Workspace/DAVE-4.4.2-64Bit/optiga-trust-m/optiga/cmd\optiga_cmd.c **** #define OPTIGA_CMD_APDU_TL_LENGTH                (0x03)
 201:C:/Workspace/DAVE-4.4.2-64Bit/optiga-trust-m/optiga/cmd\optiga_cmd.c **** #define OPTIGA_CMD_PARAM_INITIALIZE_APP_CONTEXT  (0x00)
 202:C:/Workspace/DAVE-4.4.2-64Bit/optiga-trust-m/optiga/cmd\optiga_cmd.c **** // Function to set given bits
 203:C:/Workspace/DAVE-4.4.2-64Bit/optiga-trust-m/optiga/cmd\optiga_cmd.c **** #define SET_DEV_ERROR_HANDLER_STATE(state){\
 204:C:/Workspace/DAVE-4.4.2-64Bit/optiga-trust-m/optiga/cmd\optiga_cmd.c ****                                    (me->device_error_status) &= ~OPTIGA_CMD_ERROR_CODE_STATE_MASK;\
 205:C:/Workspace/DAVE-4.4.2-64Bit/optiga-trust-m/optiga/cmd\optiga_cmd.c ****                                    (me->device_error_status) |= state & OPTIGA_CMD_ERROR_CODE_STATE
 206:C:/Workspace/DAVE-4.4.2-64Bit/optiga-trust-m/optiga/cmd\optiga_cmd.c **** 
 207:C:/Workspace/DAVE-4.4.2-64Bit/optiga-trust-m/optiga/cmd\optiga_cmd.c **** #define SET_DEV_ERROR_NOTIFICATION(bits_value){\
 208:C:/Workspace/DAVE-4.4.2-64Bit/optiga-trust-m/optiga/cmd\optiga_cmd.c ****                                   (me->device_error_status) &= ~OPTIGA_CMD_ENTER_HANDLER_CALL_MASK;
 209:C:/Workspace/DAVE-4.4.2-64Bit/optiga-trust-m/optiga/cmd\optiga_cmd.c ****                                   (me->device_error_status) |= bits_value & OPTIGA_CMD_ENTER_HANDLE
 210:C:/Workspace/DAVE-4.4.2-64Bit/optiga-trust-m/optiga/cmd\optiga_cmd.c **** 
 211:C:/Workspace/DAVE-4.4.2-64Bit/optiga-trust-m/optiga/cmd\optiga_cmd.c **** 
 212:C:/Workspace/DAVE-4.4.2-64Bit/optiga-trust-m/optiga/cmd\optiga_cmd.c **** #define EXIT_STATE_WITH_ERROR(ctx, exit_machine){\
 213:C:/Workspace/DAVE-4.4.2-64Bit/optiga-trust-m/optiga/cmd\optiga_cmd.c ****                               ctx->cmd_next_execution_state = OPTIGA_CMD_EXEC_RELEASE_LOCK;\
 214:C:/Workspace/DAVE-4.4.2-64Bit/optiga-trust-m/optiga/cmd\optiga_cmd.c ****                               ctx->exit_status = OPTIGA_CMD_ERROR;\
 215:C:/Workspace/DAVE-4.4.2-64Bit/optiga-trust-m/optiga/cmd\optiga_cmd.c ****                               exit_machine = FALSE;}
 216:C:/Workspace/DAVE-4.4.2-64Bit/optiga-trust-m/optiga/cmd\optiga_cmd.c **** // Scheduler definitions
 217:C:/Workspace/DAVE-4.4.2-64Bit/optiga-trust-m/optiga/cmd\optiga_cmd.c **** 
 218:C:/Workspace/DAVE-4.4.2-64Bit/optiga-trust-m/optiga/cmd\optiga_cmd.c **** // Optiga execution slot states
 219:C:/Workspace/DAVE-4.4.2-64Bit/optiga-trust-m/optiga/cmd\optiga_cmd.c **** #define     OPTIGA_CMD_QUEUE_NOT_ASSIGNED           (0x00)
 220:C:/Workspace/DAVE-4.4.2-64Bit/optiga-trust-m/optiga/cmd\optiga_cmd.c **** #define     OPTIGA_CMD_QUEUE_ASSIGNED               (0x01)
 221:C:/Workspace/DAVE-4.4.2-64Bit/optiga-trust-m/optiga/cmd\optiga_cmd.c **** #define     OPTIGA_CMD_QUEUE_REQUEST                (0x02)
 222:C:/Workspace/DAVE-4.4.2-64Bit/optiga-trust-m/optiga/cmd\optiga_cmd.c **** #define     OPTIGA_CMD_QUEUE_PROCESSING             (0x04)
 223:C:/Workspace/DAVE-4.4.2-64Bit/optiga-trust-m/optiga/cmd\optiga_cmd.c **** #define     OPTIGA_CMD_QUEUE_RESUME                 (0x08)
 224:C:/Workspace/DAVE-4.4.2-64Bit/optiga-trust-m/optiga/cmd\optiga_cmd.c **** 
 225:C:/Workspace/DAVE-4.4.2-64Bit/optiga-trust-m/optiga/cmd\optiga_cmd.c **** // Optiga session state
 226:C:/Workspace/DAVE-4.4.2-64Bit/optiga-trust-m/optiga/cmd\optiga_cmd.c **** #define     OPTIGA_CMD_SESSION_NOT_ASSIGNED         (0x00)
 227:C:/Workspace/DAVE-4.4.2-64Bit/optiga-trust-m/optiga/cmd\optiga_cmd.c **** #define     OPTIGA_CMD_SESSION_ASSIGNED             (0x10)
 228:C:/Workspace/DAVE-4.4.2-64Bit/optiga-trust-m/optiga/cmd\optiga_cmd.c **** //Session not assigned to optiga cmd instance
 229:C:/Workspace/DAVE-4.4.2-64Bit/optiga-trust-m/optiga/cmd\optiga_cmd.c **** #define     OPTIGA_CMD_NO_SESSION_OID               (0x0000)
 230:C:/Workspace/DAVE-4.4.2-64Bit/optiga-trust-m/optiga/cmd\optiga_cmd.c **** #define     OPTIGA_CMD_ALL_SESSION_ASSIGNED         (0x10101010)
 231:C:/Workspace/DAVE-4.4.2-64Bit/optiga-trust-m/optiga/cmd\optiga_cmd.c **** 
 232:C:/Workspace/DAVE-4.4.2-64Bit/optiga-trust-m/optiga/cmd\optiga_cmd.c **** // Optiga slot request types
 233:C:/Workspace/DAVE-4.4.2-64Bit/optiga-trust-m/optiga/cmd\optiga_cmd.c **** #define     OPTIGA_CMD_QUEUE_REQUEST_LOCK           (0x21)
 234:C:/Workspace/DAVE-4.4.2-64Bit/optiga-trust-m/optiga/cmd\optiga_cmd.c **** #define     OPTIGA_CMD_QUEUE_REQUEST_STRICT_LOCK    (0x23)
 235:C:/Workspace/DAVE-4.4.2-64Bit/optiga-trust-m/optiga/cmd\optiga_cmd.c **** #define     OPTIGA_CMD_QUEUE_REQUEST_SESSION        (0x22)
 236:C:/Workspace/DAVE-4.4.2-64Bit/optiga-trust-m/optiga/cmd\optiga_cmd.c **** #define     OPTIGA_CMD_QUEUE_NO_REQUEST		        (0x00)
 237:C:/Workspace/DAVE-4.4.2-64Bit/optiga-trust-m/optiga/cmd\optiga_cmd.c **** 
 238:C:/Workspace/DAVE-4.4.2-64Bit/optiga-trust-m/optiga/cmd\optiga_cmd.c **** // Type of slot, Do not change the values
 239:C:/Workspace/DAVE-4.4.2-64Bit/optiga-trust-m/optiga/cmd\optiga_cmd.c **** #define     OPTIGA_CMD_QUEUE_SLOT_STATE             (0x09)
 240:C:/Workspace/DAVE-4.4.2-64Bit/optiga-trust-m/optiga/cmd\optiga_cmd.c **** // Type of lock, Do not change the values
 241:C:/Workspace/DAVE-4.4.2-64Bit/optiga-trust-m/optiga/cmd\optiga_cmd.c **** #define     OPTIGA_CMD_QUEUE_SLOT_LOCK_TYPE         (0x08)
 242:C:/Workspace/DAVE-4.4.2-64Bit/optiga-trust-m/optiga/cmd\optiga_cmd.c **** // Frequency of scheduler polling when no asynchronous requests are pending
 243:C:/Workspace/DAVE-4.4.2-64Bit/optiga-trust-m/optiga/cmd\optiga_cmd.c **** #define     OPTIGA_CMD_SCHEDULER_IDLING_TIME_MS     (1000U)
 244:C:/Workspace/DAVE-4.4.2-64Bit/optiga-trust-m/optiga/cmd\optiga_cmd.c **** // Frequency of scheduler polling when asynchronous requests is being processed
 245:C:/Workspace/DAVE-4.4.2-64Bit/optiga-trust-m/optiga/cmd\optiga_cmd.c **** #define     OPTIGA_CMD_SCHEDULER_RUNNING_TIME_MS    (50U)
 246:C:/Workspace/DAVE-4.4.2-64Bit/optiga-trust-m/optiga/cmd\optiga_cmd.c **** 
 247:C:/Workspace/DAVE-4.4.2-64Bit/optiga-trust-m/optiga/cmd\optiga_cmd.c **** /** \brief The enum represents diffrent state of command handler */
 248:C:/Workspace/DAVE-4.4.2-64Bit/optiga-trust-m/optiga/cmd\optiga_cmd.c **** typedef enum optiga_cmd_state
 249:C:/Workspace/DAVE-4.4.2-64Bit/optiga-trust-m/optiga/cmd\optiga_cmd.c **** {
 250:C:/Workspace/DAVE-4.4.2-64Bit/optiga-trust-m/optiga/cmd\optiga_cmd.c ****     OPTIGA_CMD_EXEC_COMMS_OPEN = 0,
 251:C:/Workspace/DAVE-4.4.2-64Bit/optiga-trust-m/optiga/cmd\optiga_cmd.c ****     OPTIGA_CMD_EXEC_COMMS_OPEN_START,
 252:C:/Workspace/DAVE-4.4.2-64Bit/optiga-trust-m/optiga/cmd\optiga_cmd.c ****     OPTIGA_CMD_EXEC_COMMS_OPEN_DONE,
 253:C:/Workspace/DAVE-4.4.2-64Bit/optiga-trust-m/optiga/cmd\optiga_cmd.c **** 
 254:C:/Workspace/DAVE-4.4.2-64Bit/optiga-trust-m/optiga/cmd\optiga_cmd.c ****     OPTIGA_CMD_EXEC_COMMS_CLOSE_START,
 255:C:/Workspace/DAVE-4.4.2-64Bit/optiga-trust-m/optiga/cmd\optiga_cmd.c ****     OPTIGA_CMD_EXEC_COMMS_CLOSE_DONE,
 256:C:/Workspace/DAVE-4.4.2-64Bit/optiga-trust-m/optiga/cmd\optiga_cmd.c **** 
 257:C:/Workspace/DAVE-4.4.2-64Bit/optiga-trust-m/optiga/cmd\optiga_cmd.c ****     OPTIGA_CMD_EXEC_REQUEST_SESSION,
 258:C:/Workspace/DAVE-4.4.2-64Bit/optiga-trust-m/optiga/cmd\optiga_cmd.c ****     OPTIGA_CMD_EXEC_REQUEST_LOCK,
 259:C:/Workspace/DAVE-4.4.2-64Bit/optiga-trust-m/optiga/cmd\optiga_cmd.c ****     OPTIGA_CMD_EXEC_REQUEST_STRICT_LOCK,
 260:C:/Workspace/DAVE-4.4.2-64Bit/optiga-trust-m/optiga/cmd\optiga_cmd.c ****     OPTIGA_CMD_EXEC_PREPARE_COMMAND,
 261:C:/Workspace/DAVE-4.4.2-64Bit/optiga-trust-m/optiga/cmd\optiga_cmd.c ****     OPTIGA_CMD_EXEC_PROCESS_RESPONSE,
 262:C:/Workspace/DAVE-4.4.2-64Bit/optiga-trust-m/optiga/cmd\optiga_cmd.c ****     OPTIGA_CMD_EXEC_GET_DEVICE_ERROR,
 263:C:/Workspace/DAVE-4.4.2-64Bit/optiga-trust-m/optiga/cmd\optiga_cmd.c ****     OPTIGA_CMD_EXEC_RELEASE_LOCK,
 264:C:/Workspace/DAVE-4.4.2-64Bit/optiga-trust-m/optiga/cmd\optiga_cmd.c ****     OPTIGA_CMD_STATE_EXIT
 265:C:/Workspace/DAVE-4.4.2-64Bit/optiga-trust-m/optiga/cmd\optiga_cmd.c **** 
 266:C:/Workspace/DAVE-4.4.2-64Bit/optiga-trust-m/optiga/cmd\optiga_cmd.c **** } optiga_cmd_state_t;
 267:C:/Workspace/DAVE-4.4.2-64Bit/optiga-trust-m/optiga/cmd\optiga_cmd.c **** 
 268:C:/Workspace/DAVE-4.4.2-64Bit/optiga-trust-m/optiga/cmd\optiga_cmd.c **** typedef optiga_lib_status_t (*optiga_cmd_handler_t)(optiga_cmd_t * me);
 269:C:/Workspace/DAVE-4.4.2-64Bit/optiga-trust-m/optiga/cmd\optiga_cmd.c **** 
 270:C:/Workspace/DAVE-4.4.2-64Bit/optiga-trust-m/optiga/cmd\optiga_cmd.c **** /** \brief The structure represents the slot in the execution queue */
 271:C:/Workspace/DAVE-4.4.2-64Bit/optiga-trust-m/optiga/cmd\optiga_cmd.c **** typedef struct optiga_cmd_queue_slot
 272:C:/Workspace/DAVE-4.4.2-64Bit/optiga-trust-m/optiga/cmd\optiga_cmd.c **** {
 273:C:/Workspace/DAVE-4.4.2-64Bit/optiga-trust-m/optiga/cmd\optiga_cmd.c ****     // Registered context
 274:C:/Workspace/DAVE-4.4.2-64Bit/optiga-trust-m/optiga/cmd\optiga_cmd.c ****     void * registered_ctx;
 275:C:/Workspace/DAVE-4.4.2-64Bit/optiga-trust-m/optiga/cmd\optiga_cmd.c ****     // Arrival time of the optiga cmd instance in the execution queue
 276:C:/Workspace/DAVE-4.4.2-64Bit/optiga-trust-m/optiga/cmd\optiga_cmd.c ****     uint32_t arrival_time;
 277:C:/Workspace/DAVE-4.4.2-64Bit/optiga-trust-m/optiga/cmd\optiga_cmd.c ****     // Request for command lock or session
 278:C:/Workspace/DAVE-4.4.2-64Bit/optiga-trust-m/optiga/cmd\optiga_cmd.c ****     uint8_t request_type;
 279:C:/Workspace/DAVE-4.4.2-64Bit/optiga-trust-m/optiga/cmd\optiga_cmd.c ****     // state of the slot
 280:C:/Workspace/DAVE-4.4.2-64Bit/optiga-trust-m/optiga/cmd\optiga_cmd.c ****     uint8_t state_of_entry;
 281:C:/Workspace/DAVE-4.4.2-64Bit/optiga-trust-m/optiga/cmd\optiga_cmd.c **** }optiga_cmd_queue_slot_t;
 282:C:/Workspace/DAVE-4.4.2-64Bit/optiga-trust-m/optiga/cmd\optiga_cmd.c **** 
 283:C:/Workspace/DAVE-4.4.2-64Bit/optiga-trust-m/optiga/cmd\optiga_cmd.c **** 
 284:C:/Workspace/DAVE-4.4.2-64Bit/optiga-trust-m/optiga/cmd\optiga_cmd.c **** /**
 285:C:/Workspace/DAVE-4.4.2-64Bit/optiga-trust-m/optiga/cmd\optiga_cmd.c **** * \brief OPTIGA Context which holds the communication buffer, comms instance and other required.
 286:C:/Workspace/DAVE-4.4.2-64Bit/optiga-trust-m/optiga/cmd\optiga_cmd.c **** *   This would be maintained and consumed by OPTIGA Cmd.
 287:C:/Workspace/DAVE-4.4.2-64Bit/optiga-trust-m/optiga/cmd\optiga_cmd.c **** */
 288:C:/Workspace/DAVE-4.4.2-64Bit/optiga-trust-m/optiga/cmd\optiga_cmd.c **** struct optiga_context
 289:C:/Workspace/DAVE-4.4.2-64Bit/optiga-trust-m/optiga/cmd\optiga_cmd.c **** {
 290:C:/Workspace/DAVE-4.4.2-64Bit/optiga-trust-m/optiga/cmd\optiga_cmd.c ****     /// Context of OPTIGA Communication.
 291:C:/Workspace/DAVE-4.4.2-64Bit/optiga-trust-m/optiga/cmd\optiga_cmd.c ****     optiga_comms_t * p_optiga_comms;
 292:C:/Workspace/DAVE-4.4.2-64Bit/optiga-trust-m/optiga/cmd\optiga_cmd.c ****     /// comms tx size
 293:C:/Workspace/DAVE-4.4.2-64Bit/optiga-trust-m/optiga/cmd\optiga_cmd.c ****     uint16_t comms_tx_size;
 294:C:/Workspace/DAVE-4.4.2-64Bit/optiga-trust-m/optiga/cmd\optiga_cmd.c ****     /// comms rx size
 295:C:/Workspace/DAVE-4.4.2-64Bit/optiga-trust-m/optiga/cmd\optiga_cmd.c ****     uint16_t comms_rx_size;
 296:C:/Workspace/DAVE-4.4.2-64Bit/optiga-trust-m/optiga/cmd\optiga_cmd.c ****     /// Structure which maintains the session and contexts of requesters to acquire session.
 297:C:/Workspace/DAVE-4.4.2-64Bit/optiga-trust-m/optiga/cmd\optiga_cmd.c ****     uint8_t sessions[OPTIGA_CMD_MAX_NUMBER_OF_SESSIONS];
 298:C:/Workspace/DAVE-4.4.2-64Bit/optiga-trust-m/optiga/cmd\optiga_cmd.c ****     /// Indicates if instance is initialized
 299:C:/Workspace/DAVE-4.4.2-64Bit/optiga-trust-m/optiga/cmd\optiga_cmd.c ****     uint8_t instance_init_state;
 300:C:/Workspace/DAVE-4.4.2-64Bit/optiga-trust-m/optiga/cmd\optiga_cmd.c ****     /// Communication buffer to send/receive APDUs.
 301:C:/Workspace/DAVE-4.4.2-64Bit/optiga-trust-m/optiga/cmd\optiga_cmd.c ****     uint8_t optiga_comms_buffer[OPTIGA_CMD_TOTAL_COMMS_BUFFER_SIZE];
 302:C:/Workspace/DAVE-4.4.2-64Bit/optiga-trust-m/optiga/cmd\optiga_cmd.c ****     /// optiga execution queue
 303:C:/Workspace/DAVE-4.4.2-64Bit/optiga-trust-m/optiga/cmd\optiga_cmd.c ****     optiga_cmd_queue_slot_t optiga_cmd_execution_queue[OPTIGA_CMD_MAX_REGISTRATIONS];
 304:C:/Workspace/DAVE-4.4.2-64Bit/optiga-trust-m/optiga/cmd\optiga_cmd.c ****     /// pal os event instance/context
 305:C:/Workspace/DAVE-4.4.2-64Bit/optiga-trust-m/optiga/cmd\optiga_cmd.c ****     pal_os_event_t * p_pal_os_event_ctx;
 306:C:/Workspace/DAVE-4.4.2-64Bit/optiga-trust-m/optiga/cmd\optiga_cmd.c ****     /// Last processed cmd time stamp
 307:C:/Workspace/DAVE-4.4.2-64Bit/optiga-trust-m/optiga/cmd\optiga_cmd.c ****     uint32_t last_time_stamp;
 308:C:/Workspace/DAVE-4.4.2-64Bit/optiga-trust-m/optiga/cmd\optiga_cmd.c ****     /// optiga context handle buffer
 309:C:/Workspace/DAVE-4.4.2-64Bit/optiga-trust-m/optiga/cmd\optiga_cmd.c ****     uint8_t optiga_context_handle_buffer[APP_CONTEXT_SIZE];
 310:C:/Workspace/DAVE-4.4.2-64Bit/optiga-trust-m/optiga/cmd\optiga_cmd.c **** #ifdef OPTIGA_COMMS_SHIELDED_CONNECTION
 311:C:/Workspace/DAVE-4.4.2-64Bit/optiga-trust-m/optiga/cmd\optiga_cmd.c ****     /// Protection level status flag
 312:C:/Workspace/DAVE-4.4.2-64Bit/optiga-trust-m/optiga/cmd\optiga_cmd.c ****     uint8_t protection_level_state;
 313:C:/Workspace/DAVE-4.4.2-64Bit/optiga-trust-m/optiga/cmd\optiga_cmd.c **** #endif //OPTIGA_COMMS_SHIELDED_CONNECTION
 314:C:/Workspace/DAVE-4.4.2-64Bit/optiga-trust-m/optiga/cmd\optiga_cmd.c **** };
 315:C:/Workspace/DAVE-4.4.2-64Bit/optiga-trust-m/optiga/cmd\optiga_cmd.c **** 
 316:C:/Workspace/DAVE-4.4.2-64Bit/optiga-trust-m/optiga/cmd\optiga_cmd.c **** // static instance of optiga
 317:C:/Workspace/DAVE-4.4.2-64Bit/optiga-trust-m/optiga/cmd\optiga_cmd.c **** _STATIC_H optiga_context_t g_optiga = {0};
 318:C:/Workspace/DAVE-4.4.2-64Bit/optiga-trust-m/optiga/cmd\optiga_cmd.c **** // List of optiga instances
 319:C:/Workspace/DAVE-4.4.2-64Bit/optiga-trust-m/optiga/cmd\optiga_cmd.c **** _STATIC_H optiga_context_t * g_optiga_list[] = {&g_optiga};
 320:C:/Workspace/DAVE-4.4.2-64Bit/optiga-trust-m/optiga/cmd\optiga_cmd.c **** // hibernate data store for each instance of optiga
 321:C:/Workspace/DAVE-4.4.2-64Bit/optiga-trust-m/optiga/cmd\optiga_cmd.c **** _STATIC_H uint16_t g_hibernate_datastore_id_list[] = {OPTIGA_HIBERNATE_CONTEXT_ID};
 322:C:/Workspace/DAVE-4.4.2-64Bit/optiga-trust-m/optiga/cmd\optiga_cmd.c **** 
 323:C:/Workspace/DAVE-4.4.2-64Bit/optiga-trust-m/optiga/cmd\optiga_cmd.c **** const uint8_t g_optiga_unique_application_identifier[] =
 324:C:/Workspace/DAVE-4.4.2-64Bit/optiga-trust-m/optiga/cmd\optiga_cmd.c **** {
 325:C:/Workspace/DAVE-4.4.2-64Bit/optiga-trust-m/optiga/cmd\optiga_cmd.c ****     0xD2, 0x76, 0x00, 0x00, 0x04, 0x47, 0x65, 0x6E, 0x41, 0x75, 0x74, 0x68, 0x41, 0x70, 0x70, 0x6C,
 326:C:/Workspace/DAVE-4.4.2-64Bit/optiga-trust-m/optiga/cmd\optiga_cmd.c **** };
 327:C:/Workspace/DAVE-4.4.2-64Bit/optiga-trust-m/optiga/cmd\optiga_cmd.c **** 
 328:C:/Workspace/DAVE-4.4.2-64Bit/optiga-trust-m/optiga/cmd\optiga_cmd.c **** /**
 329:C:/Workspace/DAVE-4.4.2-64Bit/optiga-trust-m/optiga/cmd\optiga_cmd.c **** * \brief Command context
 330:C:/Workspace/DAVE-4.4.2-64Bit/optiga-trust-m/optiga/cmd\optiga_cmd.c **** */
 331:C:/Workspace/DAVE-4.4.2-64Bit/optiga-trust-m/optiga/cmd\optiga_cmd.c **** struct optiga_cmd
 332:C:/Workspace/DAVE-4.4.2-64Bit/optiga-trust-m/optiga/cmd\optiga_cmd.c **** {
 333:C:/Workspace/DAVE-4.4.2-64Bit/optiga-trust-m/optiga/cmd\optiga_cmd.c ****     /// Pointer to OPTIGA context which holds the communication buffer, comms instance and other re
 334:C:/Workspace/DAVE-4.4.2-64Bit/optiga-trust-m/optiga/cmd\optiga_cmd.c ****     optiga_context_t * p_optiga;
 335:C:/Workspace/DAVE-4.4.2-64Bit/optiga-trust-m/optiga/cmd\optiga_cmd.c ****     /// Internal handlers for prepare and process
 336:C:/Workspace/DAVE-4.4.2-64Bit/optiga-trust-m/optiga/cmd\optiga_cmd.c ****     optiga_cmd_handler_t cmd_hdlrs;
 337:C:/Workspace/DAVE-4.4.2-64Bit/optiga-trust-m/optiga/cmd\optiga_cmd.c ****     /// Command execution input parameters
 338:C:/Workspace/DAVE-4.4.2-64Bit/optiga-trust-m/optiga/cmd\optiga_cmd.c ****     void * p_input;
 339:C:/Workspace/DAVE-4.4.2-64Bit/optiga-trust-m/optiga/cmd\optiga_cmd.c **** 
 340:C:/Workspace/DAVE-4.4.2-64Bit/optiga-trust-m/optiga/cmd\optiga_cmd.c ****     /// Caller context
 341:C:/Workspace/DAVE-4.4.2-64Bit/optiga-trust-m/optiga/cmd\optiga_cmd.c ****     void* caller_context;
 342:C:/Workspace/DAVE-4.4.2-64Bit/optiga-trust-m/optiga/cmd\optiga_cmd.c ****     /// Callback handler
 343:C:/Workspace/DAVE-4.4.2-64Bit/optiga-trust-m/optiga/cmd\optiga_cmd.c ****     callback_handler_t handler;
 344:C:/Workspace/DAVE-4.4.2-64Bit/optiga-trust-m/optiga/cmd\optiga_cmd.c ****     /// Holds a Session OID allotted to this instance.
 345:C:/Workspace/DAVE-4.4.2-64Bit/optiga-trust-m/optiga/cmd\optiga_cmd.c ****     uint16_t session_oid;
 346:C:/Workspace/DAVE-4.4.2-64Bit/optiga-trust-m/optiga/cmd\optiga_cmd.c ****     /// State of the command next execution state
 347:C:/Workspace/DAVE-4.4.2-64Bit/optiga-trust-m/optiga/cmd\optiga_cmd.c ****     optiga_cmd_state_t cmd_next_execution_state;
 348:C:/Workspace/DAVE-4.4.2-64Bit/optiga-trust-m/optiga/cmd\optiga_cmd.c ****     /// Chaining flag
 349:C:/Workspace/DAVE-4.4.2-64Bit/optiga-trust-m/optiga/cmd\optiga_cmd.c ****     uint8_t chaining_ongoing;
 350:C:/Workspace/DAVE-4.4.2-64Bit/optiga-trust-m/optiga/cmd\optiga_cmd.c ****     /// Param value for the respective command to be processed
 351:C:/Workspace/DAVE-4.4.2-64Bit/optiga-trust-m/optiga/cmd\optiga_cmd.c ****     uint8_t cmd_param;
 352:C:/Workspace/DAVE-4.4.2-64Bit/optiga-trust-m/optiga/cmd\optiga_cmd.c **** #ifdef OPTIGA_COMMS_SHIELDED_CONNECTION
 353:C:/Workspace/DAVE-4.4.2-64Bit/optiga-trust-m/optiga/cmd\optiga_cmd.c ****     /// To provide the encryption and decryption need for command and response
 354:C:/Workspace/DAVE-4.4.2-64Bit/optiga-trust-m/optiga/cmd\optiga_cmd.c ****     uint8_t protection_level;
 355:C:/Workspace/DAVE-4.4.2-64Bit/optiga-trust-m/optiga/cmd\optiga_cmd.c ****     /// To provide the presentation layer protocol version to be used
 356:C:/Workspace/DAVE-4.4.2-64Bit/optiga-trust-m/optiga/cmd\optiga_cmd.c ****     uint8_t protocol_version;
 357:C:/Workspace/DAVE-4.4.2-64Bit/optiga-trust-m/optiga/cmd\optiga_cmd.c ****     /// To provide the manage context options
 358:C:/Workspace/DAVE-4.4.2-64Bit/optiga-trust-m/optiga/cmd\optiga_cmd.c ****     uint8_t manage_context_operation;
 359:C:/Workspace/DAVE-4.4.2-64Bit/optiga-trust-m/optiga/cmd\optiga_cmd.c **** #endif //OPTIGA_COMMS_SHIELDED_CONNECTION
 360:C:/Workspace/DAVE-4.4.2-64Bit/optiga-trust-m/optiga/cmd\optiga_cmd.c ****     /// To provide error state
 361:C:/Workspace/DAVE-4.4.2-64Bit/optiga-trust-m/optiga/cmd\optiga_cmd.c ****     uint8_t device_error_status;
 362:C:/Workspace/DAVE-4.4.2-64Bit/optiga-trust-m/optiga/cmd\optiga_cmd.c ****     /// Assigned slot from execution queue
 363:C:/Workspace/DAVE-4.4.2-64Bit/optiga-trust-m/optiga/cmd\optiga_cmd.c ****     uint8_t queue_id;
 364:C:/Workspace/DAVE-4.4.2-64Bit/optiga-trust-m/optiga/cmd\optiga_cmd.c ****     /// Exit status value
 365:C:/Workspace/DAVE-4.4.2-64Bit/optiga-trust-m/optiga/cmd\optiga_cmd.c ****     optiga_lib_status_t exit_status;
 366:C:/Workspace/DAVE-4.4.2-64Bit/optiga-trust-m/optiga/cmd\optiga_cmd.c ****     /// Datastore ID for optiga context
 367:C:/Workspace/DAVE-4.4.2-64Bit/optiga-trust-m/optiga/cmd\optiga_cmd.c ****     uint16_t optiga_context_datastore_id;
 368:C:/Workspace/DAVE-4.4.2-64Bit/optiga-trust-m/optiga/cmd\optiga_cmd.c **** };
 369:C:/Workspace/DAVE-4.4.2-64Bit/optiga-trust-m/optiga/cmd\optiga_cmd.c **** 
 370:C:/Workspace/DAVE-4.4.2-64Bit/optiga-trust-m/optiga/cmd\optiga_cmd.c **** _STATIC_H optiga_lib_status_t optiga_cmd_get_error_code_handler(optiga_cmd_t * me);
 371:C:/Workspace/DAVE-4.4.2-64Bit/optiga-trust-m/optiga/cmd\optiga_cmd.c **** 
 372:C:/Workspace/DAVE-4.4.2-64Bit/optiga-trust-m/optiga/cmd\optiga_cmd.c **** #ifdef OPTIGA_COMMS_SHIELDED_CONNECTION
 373:C:/Workspace/DAVE-4.4.2-64Bit/optiga-trust-m/optiga/cmd\optiga_cmd.c **** //lint --e{714} suppress "This function is defined here but referred from other modules"
 374:C:/Workspace/DAVE-4.4.2-64Bit/optiga-trust-m/optiga/cmd\optiga_cmd.c **** void optiga_cmd_set_shielded_connection_option(optiga_cmd_t * me,
 375:C:/Workspace/DAVE-4.4.2-64Bit/optiga-trust-m/optiga/cmd\optiga_cmd.c ****                                                uint8_t value,
 376:C:/Workspace/DAVE-4.4.2-64Bit/optiga-trust-m/optiga/cmd\optiga_cmd.c ****                                                uint8_t shielded_connection_option)
 377:C:/Workspace/DAVE-4.4.2-64Bit/optiga-trust-m/optiga/cmd\optiga_cmd.c **** {
 378:C:/Workspace/DAVE-4.4.2-64Bit/optiga-trust-m/optiga/cmd\optiga_cmd.c ****     switch (shielded_connection_option)
 379:C:/Workspace/DAVE-4.4.2-64Bit/optiga-trust-m/optiga/cmd\optiga_cmd.c ****     {
 380:C:/Workspace/DAVE-4.4.2-64Bit/optiga-trust-m/optiga/cmd\optiga_cmd.c ****         // Protection Level
 381:C:/Workspace/DAVE-4.4.2-64Bit/optiga-trust-m/optiga/cmd\optiga_cmd.c ****         case OPTIGA_SET_PROTECTION_LEVEL:
 382:C:/Workspace/DAVE-4.4.2-64Bit/optiga-trust-m/optiga/cmd\optiga_cmd.c ****         {
 383:C:/Workspace/DAVE-4.4.2-64Bit/optiga-trust-m/optiga/cmd\optiga_cmd.c ****             me->protection_level = value;
 384:C:/Workspace/DAVE-4.4.2-64Bit/optiga-trust-m/optiga/cmd\optiga_cmd.c ****         }
 385:C:/Workspace/DAVE-4.4.2-64Bit/optiga-trust-m/optiga/cmd\optiga_cmd.c ****         break;
 386:C:/Workspace/DAVE-4.4.2-64Bit/optiga-trust-m/optiga/cmd\optiga_cmd.c ****         // Protocol Version
 387:C:/Workspace/DAVE-4.4.2-64Bit/optiga-trust-m/optiga/cmd\optiga_cmd.c ****         case OPTIGA_SET_PROTECTION_VERSION:
 388:C:/Workspace/DAVE-4.4.2-64Bit/optiga-trust-m/optiga/cmd\optiga_cmd.c ****         {
 389:C:/Workspace/DAVE-4.4.2-64Bit/optiga-trust-m/optiga/cmd\optiga_cmd.c ****             me->protocol_version = value;
 390:C:/Workspace/DAVE-4.4.2-64Bit/optiga-trust-m/optiga/cmd\optiga_cmd.c ****         }
 391:C:/Workspace/DAVE-4.4.2-64Bit/optiga-trust-m/optiga/cmd\optiga_cmd.c ****         break;
 392:C:/Workspace/DAVE-4.4.2-64Bit/optiga-trust-m/optiga/cmd\optiga_cmd.c ****         // Manage Context
 393:C:/Workspace/DAVE-4.4.2-64Bit/optiga-trust-m/optiga/cmd\optiga_cmd.c ****         case OPTIGA_SET_MANAGE_CONTEXT:
 394:C:/Workspace/DAVE-4.4.2-64Bit/optiga-trust-m/optiga/cmd\optiga_cmd.c ****         {
 395:C:/Workspace/DAVE-4.4.2-64Bit/optiga-trust-m/optiga/cmd\optiga_cmd.c ****             me->manage_context_operation = value;
 396:C:/Workspace/DAVE-4.4.2-64Bit/optiga-trust-m/optiga/cmd\optiga_cmd.c ****         }
 397:C:/Workspace/DAVE-4.4.2-64Bit/optiga-trust-m/optiga/cmd\optiga_cmd.c ****         break;
 398:C:/Workspace/DAVE-4.4.2-64Bit/optiga-trust-m/optiga/cmd\optiga_cmd.c ****         default:
 399:C:/Workspace/DAVE-4.4.2-64Bit/optiga-trust-m/optiga/cmd\optiga_cmd.c ****         break;
 400:C:/Workspace/DAVE-4.4.2-64Bit/optiga-trust-m/optiga/cmd\optiga_cmd.c ****     }
 401:C:/Workspace/DAVE-4.4.2-64Bit/optiga-trust-m/optiga/cmd\optiga_cmd.c **** }
 402:C:/Workspace/DAVE-4.4.2-64Bit/optiga-trust-m/optiga/cmd\optiga_cmd.c **** 
 403:C:/Workspace/DAVE-4.4.2-64Bit/optiga-trust-m/optiga/cmd\optiga_cmd.c **** #endif // OPTIGA_COMMS_SHIELDED_CONNECTION
 404:C:/Workspace/DAVE-4.4.2-64Bit/optiga-trust-m/optiga/cmd\optiga_cmd.c **** 
 405:C:/Workspace/DAVE-4.4.2-64Bit/optiga-trust-m/optiga/cmd\optiga_cmd.c **** // Cmd execute handler
 406:C:/Workspace/DAVE-4.4.2-64Bit/optiga-trust-m/optiga/cmd\optiga_cmd.c **** _STATIC_H void optiga_cmd_execute(optiga_cmd_t * me,
 407:C:/Workspace/DAVE-4.4.2-64Bit/optiga-trust-m/optiga/cmd\optiga_cmd.c ****                                   uint8_t cmd_param,
 408:C:/Workspace/DAVE-4.4.2-64Bit/optiga-trust-m/optiga/cmd\optiga_cmd.c ****                                   optiga_cmd_handler_t cmd_hdlrs,
 409:C:/Workspace/DAVE-4.4.2-64Bit/optiga-trust-m/optiga/cmd\optiga_cmd.c ****                                   optiga_cmd_state_t start_state,
 410:C:/Workspace/DAVE-4.4.2-64Bit/optiga-trust-m/optiga/cmd\optiga_cmd.c ****                                   void * input);
 411:C:/Workspace/DAVE-4.4.2-64Bit/optiga-trust-m/optiga/cmd\optiga_cmd.c **** 
 412:C:/Workspace/DAVE-4.4.2-64Bit/optiga-trust-m/optiga/cmd\optiga_cmd.c **** // Cmd State machine handler
 413:C:/Workspace/DAVE-4.4.2-64Bit/optiga-trust-m/optiga/cmd\optiga_cmd.c **** _STATIC_H void optiga_cmd_execute_handler(void * p_ctx,
 414:C:/Workspace/DAVE-4.4.2-64Bit/optiga-trust-m/optiga/cmd\optiga_cmd.c ****                                           optiga_lib_status_t event);
 415:C:/Workspace/DAVE-4.4.2-64Bit/optiga-trust-m/optiga/cmd\optiga_cmd.c **** 
 416:C:/Workspace/DAVE-4.4.2-64Bit/optiga-trust-m/optiga/cmd\optiga_cmd.c **** //
 417:C:/Workspace/DAVE-4.4.2-64Bit/optiga-trust-m/optiga/cmd\optiga_cmd.c **** _STATIC_H void optiga_cmd_prepare_apdu_header(uint8_t cmd, uint8_t param,
 418:C:/Workspace/DAVE-4.4.2-64Bit/optiga-trust-m/optiga/cmd\optiga_cmd.c ****                                               uint16_t in_data_length,
 419:C:/Workspace/DAVE-4.4.2-64Bit/optiga-trust-m/optiga/cmd\optiga_cmd.c ****                                               uint8_t * p_apdu_buffer)
 420:C:/Workspace/DAVE-4.4.2-64Bit/optiga-trust-m/optiga/cmd\optiga_cmd.c **** {
 421:C:/Workspace/DAVE-4.4.2-64Bit/optiga-trust-m/optiga/cmd\optiga_cmd.c ****     p_apdu_buffer [0] = cmd;
 422:C:/Workspace/DAVE-4.4.2-64Bit/optiga-trust-m/optiga/cmd\optiga_cmd.c ****     p_apdu_buffer [1] = param;
 423:C:/Workspace/DAVE-4.4.2-64Bit/optiga-trust-m/optiga/cmd\optiga_cmd.c ****     p_apdu_buffer [2] = (uint8_t)((in_data_length & 0xFF00) >> 8);
 424:C:/Workspace/DAVE-4.4.2-64Bit/optiga-trust-m/optiga/cmd\optiga_cmd.c ****     p_apdu_buffer [3] = (uint8_t)(in_data_length & 0x00FF);
 425:C:/Workspace/DAVE-4.4.2-64Bit/optiga-trust-m/optiga/cmd\optiga_cmd.c **** }
 426:C:/Workspace/DAVE-4.4.2-64Bit/optiga-trust-m/optiga/cmd\optiga_cmd.c **** 
 427:C:/Workspace/DAVE-4.4.2-64Bit/optiga-trust-m/optiga/cmd\optiga_cmd.c **** 
 428:C:/Workspace/DAVE-4.4.2-64Bit/optiga-trust-m/optiga/cmd\optiga_cmd.c **** _STATIC_H void optiga_cmd_prepare_tag_header(uint8_t tag,
 429:C:/Workspace/DAVE-4.4.2-64Bit/optiga-trust-m/optiga/cmd\optiga_cmd.c ****                                              uint16_t tag_length,
 430:C:/Workspace/DAVE-4.4.2-64Bit/optiga-trust-m/optiga/cmd\optiga_cmd.c ****                                              uint8_t * buffer,
 431:C:/Workspace/DAVE-4.4.2-64Bit/optiga-trust-m/optiga/cmd\optiga_cmd.c ****                                              uint16_t * position)
 432:C:/Workspace/DAVE-4.4.2-64Bit/optiga-trust-m/optiga/cmd\optiga_cmd.c **** {
  25              	 .loc 1 432 0
  26              	 .cfi_startproc
  27              	.LVL0:
  28 0000 30B5     	 push {r4,r5,lr}
  29              	.LCFI0:
  30              	 .cfi_def_cfa_offset 12
  31              	 .cfi_offset 4,-12
  32              	 .cfi_offset 5,-8
  33              	 .cfi_offset 14,-4
 433:C:/Workspace/DAVE-4.4.2-64Bit/optiga-trust-m/optiga/cmd\optiga_cmd.c ****     uint16_t start_position = *position;
  34              	 .loc 1 433 0
  35 0002 1C88     	 ldrh r4,[r3]
  36              	.LVL1:
 434:C:/Workspace/DAVE-4.4.2-64Bit/optiga-trust-m/optiga/cmd\optiga_cmd.c **** 
 435:C:/Workspace/DAVE-4.4.2-64Bit/optiga-trust-m/optiga/cmd\optiga_cmd.c ****     buffer[start_position++] = tag;
 436:C:/Workspace/DAVE-4.4.2-64Bit/optiga-trust-m/optiga/cmd\optiga_cmd.c ****     buffer[start_position++] = (uint8_t )(tag_length >> 8);
  37              	 .loc 1 436 0
  38 0004 0D0A     	 lsr r5,r1,#8
 435:C:/Workspace/DAVE-4.4.2-64Bit/optiga-trust-m/optiga/cmd\optiga_cmd.c ****     buffer[start_position++] = (uint8_t )(tag_length >> 8);
  39              	 .loc 1 435 0
  40 0006 1055     	 strb r0,[r2,r4]
  41              	.LVL2:
  42 0008 601C     	 add r0,r4,#1
  43              	.LVL3:
  44              	 .loc 1 436 0
  45 000a 80B2     	 uxth r0,r0
  46 000c 1554     	 strb r5,[r2,r0]
  47              	.LVL4:
  48 000e A01C     	 add r0,r4,#2
 437:C:/Workspace/DAVE-4.4.2-64Bit/optiga-trust-m/optiga/cmd\optiga_cmd.c ****     buffer[start_position++] = (uint8_t )(tag_length);
  49              	 .loc 1 437 0
  50 0010 80B2     	 uxth r0,r0
  51 0012 0334     	 add r4,r4,#3
  52              	.LVL5:
  53 0014 1154     	 strb r1,[r2,r0]
 438:C:/Workspace/DAVE-4.4.2-64Bit/optiga-trust-m/optiga/cmd\optiga_cmd.c **** 
 439:C:/Workspace/DAVE-4.4.2-64Bit/optiga-trust-m/optiga/cmd\optiga_cmd.c ****     *position = start_position;
 440:C:/Workspace/DAVE-4.4.2-64Bit/optiga-trust-m/optiga/cmd\optiga_cmd.c **** }
  54              	 .loc 1 440 0
  55              	 
 439:C:/Workspace/DAVE-4.4.2-64Bit/optiga-trust-m/optiga/cmd\optiga_cmd.c **** }
  56              	 .loc 1 439 0
  57 0016 1C80     	 strh r4,[r3]
  58              	.LVL6:
  59              	 .loc 1 440 0
  60 0018 30BD     	 pop {r4,r5,pc}
  61              	 .cfi_endproc
  62              	.LFE2:
  64              	 .section .text.optiga_cmd_queue_update_slot,"ax",%progbits
  65              	 .align 1
  66              	 .code 16
  67              	 .thumb_func
  69              	optiga_cmd_queue_update_slot:
  70              	.LFB13:
 441:C:/Workspace/DAVE-4.4.2-64Bit/optiga-trust-m/optiga/cmd\optiga_cmd.c **** 
 442:C:/Workspace/DAVE-4.4.2-64Bit/optiga-trust-m/optiga/cmd\optiga_cmd.c **** 
 443:C:/Workspace/DAVE-4.4.2-64Bit/optiga-trust-m/optiga/cmd\optiga_cmd.c **** _STATIC_H void optiga_cmd_event_trigger_execute(void * p_ctx)
 444:C:/Workspace/DAVE-4.4.2-64Bit/optiga-trust-m/optiga/cmd\optiga_cmd.c **** {
 445:C:/Workspace/DAVE-4.4.2-64Bit/optiga-trust-m/optiga/cmd\optiga_cmd.c ****     optiga_cmd_execute_handler(p_ctx, OPTIGA_LIB_SUCCESS);
 446:C:/Workspace/DAVE-4.4.2-64Bit/optiga-trust-m/optiga/cmd\optiga_cmd.c **** }
 447:C:/Workspace/DAVE-4.4.2-64Bit/optiga-trust-m/optiga/cmd\optiga_cmd.c **** 
 448:C:/Workspace/DAVE-4.4.2-64Bit/optiga-trust-m/optiga/cmd\optiga_cmd.c **** _STATIC_H void optiga_cmd_execute(optiga_cmd_t * me,
 449:C:/Workspace/DAVE-4.4.2-64Bit/optiga-trust-m/optiga/cmd\optiga_cmd.c ****                                   uint8_t cmd_param,
 450:C:/Workspace/DAVE-4.4.2-64Bit/optiga-trust-m/optiga/cmd\optiga_cmd.c ****                                   optiga_cmd_handler_t cmd_hdlrs,
 451:C:/Workspace/DAVE-4.4.2-64Bit/optiga-trust-m/optiga/cmd\optiga_cmd.c ****                                   optiga_cmd_state_t start_state,
 452:C:/Workspace/DAVE-4.4.2-64Bit/optiga-trust-m/optiga/cmd\optiga_cmd.c ****                                   void * input)
 453:C:/Workspace/DAVE-4.4.2-64Bit/optiga-trust-m/optiga/cmd\optiga_cmd.c **** {
 454:C:/Workspace/DAVE-4.4.2-64Bit/optiga-trust-m/optiga/cmd\optiga_cmd.c ****     me->p_input = input;
 455:C:/Workspace/DAVE-4.4.2-64Bit/optiga-trust-m/optiga/cmd\optiga_cmd.c ****     me->cmd_next_execution_state = start_state;
 456:C:/Workspace/DAVE-4.4.2-64Bit/optiga-trust-m/optiga/cmd\optiga_cmd.c ****     me->cmd_hdlrs = cmd_hdlrs;
 457:C:/Workspace/DAVE-4.4.2-64Bit/optiga-trust-m/optiga/cmd\optiga_cmd.c ****     me->chaining_ongoing = FALSE;
 458:C:/Workspace/DAVE-4.4.2-64Bit/optiga-trust-m/optiga/cmd\optiga_cmd.c ****     me->cmd_param = cmd_param;
 459:C:/Workspace/DAVE-4.4.2-64Bit/optiga-trust-m/optiga/cmd\optiga_cmd.c ****     optiga_cmd_execute_handler(me, OPTIGA_LIB_SUCCESS);
 460:C:/Workspace/DAVE-4.4.2-64Bit/optiga-trust-m/optiga/cmd\optiga_cmd.c **** }
 461:C:/Workspace/DAVE-4.4.2-64Bit/optiga-trust-m/optiga/cmd\optiga_cmd.c **** 
 462:C:/Workspace/DAVE-4.4.2-64Bit/optiga-trust-m/optiga/cmd\optiga_cmd.c **** /*
 463:C:/Workspace/DAVE-4.4.2-64Bit/optiga-trust-m/optiga/cmd\optiga_cmd.c **** * Checks if optiga session is available or not
 464:C:/Workspace/DAVE-4.4.2-64Bit/optiga-trust-m/optiga/cmd\optiga_cmd.c **** * Returns TRUE, if slot is available
 465:C:/Workspace/DAVE-4.4.2-64Bit/optiga-trust-m/optiga/cmd\optiga_cmd.c **** * Returns FALSE, if slot is not available
 466:C:/Workspace/DAVE-4.4.2-64Bit/optiga-trust-m/optiga/cmd\optiga_cmd.c **** */
 467:C:/Workspace/DAVE-4.4.2-64Bit/optiga-trust-m/optiga/cmd\optiga_cmd.c **** _STATIC_H bool_t optiga_cmd_session_available(const optiga_context_t * p_optiga)
 468:C:/Workspace/DAVE-4.4.2-64Bit/optiga-trust-m/optiga/cmd\optiga_cmd.c **** {
 469:C:/Workspace/DAVE-4.4.2-64Bit/optiga-trust-m/optiga/cmd\optiga_cmd.c ****     uint32_t status_check;
 470:C:/Workspace/DAVE-4.4.2-64Bit/optiga-trust-m/optiga/cmd\optiga_cmd.c ****     // Consider the array as uin32_t value and check against 0x10101010
 471:C:/Workspace/DAVE-4.4.2-64Bit/optiga-trust-m/optiga/cmd\optiga_cmd.c ****     // where 0x10 is value of OPTIGA_CMD_SESSION_ASSIGNED
 472:C:/Workspace/DAVE-4.4.2-64Bit/optiga-trust-m/optiga/cmd\optiga_cmd.c ****     memcpy(&status_check, p_optiga->sessions, OPTIGA_CMD_MAX_NUMBER_OF_SESSIONS);
 473:C:/Workspace/DAVE-4.4.2-64Bit/optiga-trust-m/optiga/cmd\optiga_cmd.c ****     return ((status_check < OPTIGA_CMD_ALL_SESSION_ASSIGNED)? (TRUE):(FALSE));
 474:C:/Workspace/DAVE-4.4.2-64Bit/optiga-trust-m/optiga/cmd\optiga_cmd.c **** }
 475:C:/Workspace/DAVE-4.4.2-64Bit/optiga-trust-m/optiga/cmd\optiga_cmd.c **** 
 476:C:/Workspace/DAVE-4.4.2-64Bit/optiga-trust-m/optiga/cmd\optiga_cmd.c **** /*
 477:C:/Workspace/DAVE-4.4.2-64Bit/optiga-trust-m/optiga/cmd\optiga_cmd.c **** * 1. If a optiga cmd instance does not have session, assigns an available session
 478:C:/Workspace/DAVE-4.4.2-64Bit/optiga-trust-m/optiga/cmd\optiga_cmd.c **** */
 479:C:/Workspace/DAVE-4.4.2-64Bit/optiga-trust-m/optiga/cmd\optiga_cmd.c **** _STATIC_H void optiga_cmd_session_assign(optiga_cmd_t * me)
 480:C:/Workspace/DAVE-4.4.2-64Bit/optiga-trust-m/optiga/cmd\optiga_cmd.c **** {
 481:C:/Workspace/DAVE-4.4.2-64Bit/optiga-trust-m/optiga/cmd\optiga_cmd.c ****     uint8_t * p_optiga_sessions = me->p_optiga->sessions;
 482:C:/Workspace/DAVE-4.4.2-64Bit/optiga-trust-m/optiga/cmd\optiga_cmd.c ****     uint8_t count;
 483:C:/Workspace/DAVE-4.4.2-64Bit/optiga-trust-m/optiga/cmd\optiga_cmd.c ****     if (OPTIGA_CMD_NO_SESSION_OID == me->session_oid)
 484:C:/Workspace/DAVE-4.4.2-64Bit/optiga-trust-m/optiga/cmd\optiga_cmd.c ****     {
 485:C:/Workspace/DAVE-4.4.2-64Bit/optiga-trust-m/optiga/cmd\optiga_cmd.c ****         for (count = 0; count < OPTIGA_CMD_MAX_NUMBER_OF_SESSIONS; count++)
 486:C:/Workspace/DAVE-4.4.2-64Bit/optiga-trust-m/optiga/cmd\optiga_cmd.c ****         {
 487:C:/Workspace/DAVE-4.4.2-64Bit/optiga-trust-m/optiga/cmd\optiga_cmd.c ****             if (OPTIGA_CMD_SESSION_ASSIGNED != p_optiga_sessions[count])
 488:C:/Workspace/DAVE-4.4.2-64Bit/optiga-trust-m/optiga/cmd\optiga_cmd.c ****             {
 489:C:/Workspace/DAVE-4.4.2-64Bit/optiga-trust-m/optiga/cmd\optiga_cmd.c ****                 me->session_oid = (OPTIGA_CMD_START_SESSION_OID | count);
 490:C:/Workspace/DAVE-4.4.2-64Bit/optiga-trust-m/optiga/cmd\optiga_cmd.c ****                 p_optiga_sessions[count] = OPTIGA_CMD_SESSION_ASSIGNED;
 491:C:/Workspace/DAVE-4.4.2-64Bit/optiga-trust-m/optiga/cmd\optiga_cmd.c ****                 break;
 492:C:/Workspace/DAVE-4.4.2-64Bit/optiga-trust-m/optiga/cmd\optiga_cmd.c ****             }
 493:C:/Workspace/DAVE-4.4.2-64Bit/optiga-trust-m/optiga/cmd\optiga_cmd.c ****         }
 494:C:/Workspace/DAVE-4.4.2-64Bit/optiga-trust-m/optiga/cmd\optiga_cmd.c ****     }
 495:C:/Workspace/DAVE-4.4.2-64Bit/optiga-trust-m/optiga/cmd\optiga_cmd.c **** }
 496:C:/Workspace/DAVE-4.4.2-64Bit/optiga-trust-m/optiga/cmd\optiga_cmd.c **** 
 497:C:/Workspace/DAVE-4.4.2-64Bit/optiga-trust-m/optiga/cmd\optiga_cmd.c **** /*
 498:C:/Workspace/DAVE-4.4.2-64Bit/optiga-trust-m/optiga/cmd\optiga_cmd.c **** * Frees a session
 499:C:/Workspace/DAVE-4.4.2-64Bit/optiga-trust-m/optiga/cmd\optiga_cmd.c **** */
 500:C:/Workspace/DAVE-4.4.2-64Bit/optiga-trust-m/optiga/cmd\optiga_cmd.c **** _STATIC_H void optiga_cmd_session_free(optiga_cmd_t * me)
 501:C:/Workspace/DAVE-4.4.2-64Bit/optiga-trust-m/optiga/cmd\optiga_cmd.c **** {
 502:C:/Workspace/DAVE-4.4.2-64Bit/optiga-trust-m/optiga/cmd\optiga_cmd.c ****     uint8_t * p_optiga_sessions = me->p_optiga->sessions;
 503:C:/Workspace/DAVE-4.4.2-64Bit/optiga-trust-m/optiga/cmd\optiga_cmd.c ****     uint8_t count;
 504:C:/Workspace/DAVE-4.4.2-64Bit/optiga-trust-m/optiga/cmd\optiga_cmd.c ****     if (OPTIGA_CMD_NO_SESSION_OID != me->session_oid)
 505:C:/Workspace/DAVE-4.4.2-64Bit/optiga-trust-m/optiga/cmd\optiga_cmd.c ****     {
 506:C:/Workspace/DAVE-4.4.2-64Bit/optiga-trust-m/optiga/cmd\optiga_cmd.c ****         count = me->session_oid & 0x0F;
 507:C:/Workspace/DAVE-4.4.2-64Bit/optiga-trust-m/optiga/cmd\optiga_cmd.c ****         me->session_oid = OPTIGA_CMD_NO_SESSION_OID;
 508:C:/Workspace/DAVE-4.4.2-64Bit/optiga-trust-m/optiga/cmd\optiga_cmd.c ****         p_optiga_sessions[count] = OPTIGA_CMD_SESSION_NOT_ASSIGNED;
 509:C:/Workspace/DAVE-4.4.2-64Bit/optiga-trust-m/optiga/cmd\optiga_cmd.c ****     }
 510:C:/Workspace/DAVE-4.4.2-64Bit/optiga-trust-m/optiga/cmd\optiga_cmd.c **** }
 511:C:/Workspace/DAVE-4.4.2-64Bit/optiga-trust-m/optiga/cmd\optiga_cmd.c **** 
 512:C:/Workspace/DAVE-4.4.2-64Bit/optiga-trust-m/optiga/cmd\optiga_cmd.c **** /*
 513:C:/Workspace/DAVE-4.4.2-64Bit/optiga-trust-m/optiga/cmd\optiga_cmd.c **** *  Returns the requested info in the queue slot input cmd instance
 514:C:/Workspace/DAVE-4.4.2-64Bit/optiga-trust-m/optiga/cmd\optiga_cmd.c **** */
 515:C:/Workspace/DAVE-4.4.2-64Bit/optiga-trust-m/optiga/cmd\optiga_cmd.c **** _STATIC_H  uint8_t optiga_cmd_queue_get_state_of(const optiga_cmd_t * me, uint8_t slot_member)
 516:C:/Workspace/DAVE-4.4.2-64Bit/optiga-trust-m/optiga/cmd\optiga_cmd.c **** {
 517:C:/Workspace/DAVE-4.4.2-64Bit/optiga-trust-m/optiga/cmd\optiga_cmd.c ****     uint8_t state = 0;
 518:C:/Workspace/DAVE-4.4.2-64Bit/optiga-trust-m/optiga/cmd\optiga_cmd.c ****     switch (slot_member)
 519:C:/Workspace/DAVE-4.4.2-64Bit/optiga-trust-m/optiga/cmd\optiga_cmd.c ****     {
 520:C:/Workspace/DAVE-4.4.2-64Bit/optiga-trust-m/optiga/cmd\optiga_cmd.c ****         case OPTIGA_CMD_QUEUE_SLOT_LOCK_TYPE:
 521:C:/Workspace/DAVE-4.4.2-64Bit/optiga-trust-m/optiga/cmd\optiga_cmd.c ****         {
 522:C:/Workspace/DAVE-4.4.2-64Bit/optiga-trust-m/optiga/cmd\optiga_cmd.c ****             state = me->p_optiga->optiga_cmd_execution_queue[me->queue_id].request_type;
 523:C:/Workspace/DAVE-4.4.2-64Bit/optiga-trust-m/optiga/cmd\optiga_cmd.c ****         }
 524:C:/Workspace/DAVE-4.4.2-64Bit/optiga-trust-m/optiga/cmd\optiga_cmd.c ****         break;
 525:C:/Workspace/DAVE-4.4.2-64Bit/optiga-trust-m/optiga/cmd\optiga_cmd.c ****         case OPTIGA_CMD_QUEUE_SLOT_STATE:
 526:C:/Workspace/DAVE-4.4.2-64Bit/optiga-trust-m/optiga/cmd\optiga_cmd.c ****         {
 527:C:/Workspace/DAVE-4.4.2-64Bit/optiga-trust-m/optiga/cmd\optiga_cmd.c ****             state = me->p_optiga->optiga_cmd_execution_queue[me->queue_id].state_of_entry;
 528:C:/Workspace/DAVE-4.4.2-64Bit/optiga-trust-m/optiga/cmd\optiga_cmd.c ****         }
 529:C:/Workspace/DAVE-4.4.2-64Bit/optiga-trust-m/optiga/cmd\optiga_cmd.c ****         break;
 530:C:/Workspace/DAVE-4.4.2-64Bit/optiga-trust-m/optiga/cmd\optiga_cmd.c ****         default:
 531:C:/Workspace/DAVE-4.4.2-64Bit/optiga-trust-m/optiga/cmd\optiga_cmd.c ****             break;
 532:C:/Workspace/DAVE-4.4.2-64Bit/optiga-trust-m/optiga/cmd\optiga_cmd.c ****     }
 533:C:/Workspace/DAVE-4.4.2-64Bit/optiga-trust-m/optiga/cmd\optiga_cmd.c ****     return (state);
 534:C:/Workspace/DAVE-4.4.2-64Bit/optiga-trust-m/optiga/cmd\optiga_cmd.c **** }
 535:C:/Workspace/DAVE-4.4.2-64Bit/optiga-trust-m/optiga/cmd\optiga_cmd.c **** 
 536:C:/Workspace/DAVE-4.4.2-64Bit/optiga-trust-m/optiga/cmd\optiga_cmd.c **** /*
 537:C:/Workspace/DAVE-4.4.2-64Bit/optiga-trust-m/optiga/cmd\optiga_cmd.c **** * Returns the count of number of slots with requested state
 538:C:/Workspace/DAVE-4.4.2-64Bit/optiga-trust-m/optiga/cmd\optiga_cmd.c **** */
 539:C:/Workspace/DAVE-4.4.2-64Bit/optiga-trust-m/optiga/cmd\optiga_cmd.c **** _STATIC_H  uint8_t optiga_cmd_queue_get_count_of(const optiga_context_t * p_optiga, uint8_t slot_me
 540:C:/Workspace/DAVE-4.4.2-64Bit/optiga-trust-m/optiga/cmd\optiga_cmd.c **** {
 541:C:/Workspace/DAVE-4.4.2-64Bit/optiga-trust-m/optiga/cmd\optiga_cmd.c ****     uint8_t index;
 542:C:/Workspace/DAVE-4.4.2-64Bit/optiga-trust-m/optiga/cmd\optiga_cmd.c ****     uint8_t count = 0;
 543:C:/Workspace/DAVE-4.4.2-64Bit/optiga-trust-m/optiga/cmd\optiga_cmd.c ****     uint8_t slot_value = 0;
 544:C:/Workspace/DAVE-4.4.2-64Bit/optiga-trust-m/optiga/cmd\optiga_cmd.c ****     for (index = 0; index < OPTIGA_CMD_MAX_REGISTRATIONS ; index++)
 545:C:/Workspace/DAVE-4.4.2-64Bit/optiga-trust-m/optiga/cmd\optiga_cmd.c ****     {
 546:C:/Workspace/DAVE-4.4.2-64Bit/optiga-trust-m/optiga/cmd\optiga_cmd.c ****         switch (slot_member)
 547:C:/Workspace/DAVE-4.4.2-64Bit/optiga-trust-m/optiga/cmd\optiga_cmd.c ****         {
 548:C:/Workspace/DAVE-4.4.2-64Bit/optiga-trust-m/optiga/cmd\optiga_cmd.c ****             case OPTIGA_CMD_QUEUE_SLOT_LOCK_TYPE:
 549:C:/Workspace/DAVE-4.4.2-64Bit/optiga-trust-m/optiga/cmd\optiga_cmd.c ****             {
 550:C:/Workspace/DAVE-4.4.2-64Bit/optiga-trust-m/optiga/cmd\optiga_cmd.c ****                 slot_value = p_optiga->optiga_cmd_execution_queue[index].request_type;
 551:C:/Workspace/DAVE-4.4.2-64Bit/optiga-trust-m/optiga/cmd\optiga_cmd.c ****             }
 552:C:/Workspace/DAVE-4.4.2-64Bit/optiga-trust-m/optiga/cmd\optiga_cmd.c ****             break;
 553:C:/Workspace/DAVE-4.4.2-64Bit/optiga-trust-m/optiga/cmd\optiga_cmd.c ****             case OPTIGA_CMD_QUEUE_SLOT_STATE:
 554:C:/Workspace/DAVE-4.4.2-64Bit/optiga-trust-m/optiga/cmd\optiga_cmd.c ****             {
 555:C:/Workspace/DAVE-4.4.2-64Bit/optiga-trust-m/optiga/cmd\optiga_cmd.c ****                 slot_value = p_optiga->optiga_cmd_execution_queue[index].state_of_entry;
 556:C:/Workspace/DAVE-4.4.2-64Bit/optiga-trust-m/optiga/cmd\optiga_cmd.c ****             }
 557:C:/Workspace/DAVE-4.4.2-64Bit/optiga-trust-m/optiga/cmd\optiga_cmd.c ****             break;
 558:C:/Workspace/DAVE-4.4.2-64Bit/optiga-trust-m/optiga/cmd\optiga_cmd.c ****             default:
 559:C:/Workspace/DAVE-4.4.2-64Bit/optiga-trust-m/optiga/cmd\optiga_cmd.c ****                 break;
 560:C:/Workspace/DAVE-4.4.2-64Bit/optiga-trust-m/optiga/cmd\optiga_cmd.c ****         }
 561:C:/Workspace/DAVE-4.4.2-64Bit/optiga-trust-m/optiga/cmd\optiga_cmd.c ****         if (state_to_check == slot_value)
 562:C:/Workspace/DAVE-4.4.2-64Bit/optiga-trust-m/optiga/cmd\optiga_cmd.c ****         {
 563:C:/Workspace/DAVE-4.4.2-64Bit/optiga-trust-m/optiga/cmd\optiga_cmd.c ****             count++;
 564:C:/Workspace/DAVE-4.4.2-64Bit/optiga-trust-m/optiga/cmd\optiga_cmd.c ****         }
 565:C:/Workspace/DAVE-4.4.2-64Bit/optiga-trust-m/optiga/cmd\optiga_cmd.c ****     }
 566:C:/Workspace/DAVE-4.4.2-64Bit/optiga-trust-m/optiga/cmd\optiga_cmd.c ****     return (count);
 567:C:/Workspace/DAVE-4.4.2-64Bit/optiga-trust-m/optiga/cmd\optiga_cmd.c **** }
 568:C:/Workspace/DAVE-4.4.2-64Bit/optiga-trust-m/optiga/cmd\optiga_cmd.c **** 
 569:C:/Workspace/DAVE-4.4.2-64Bit/optiga-trust-m/optiga/cmd\optiga_cmd.c **** /*
 570:C:/Workspace/DAVE-4.4.2-64Bit/optiga-trust-m/optiga/cmd\optiga_cmd.c **** * Assigns an available slot to a optiga cmd instance and marks the slot as not available for anothe
 571:C:/Workspace/DAVE-4.4.2-64Bit/optiga-trust-m/optiga/cmd\optiga_cmd.c **** */
 572:C:/Workspace/DAVE-4.4.2-64Bit/optiga-trust-m/optiga/cmd\optiga_cmd.c **** _STATIC_H void optiga_cmd_queue_assign_slot(const optiga_cmd_t * me, uint8_t * queue_index_store)
 573:C:/Workspace/DAVE-4.4.2-64Bit/optiga-trust-m/optiga/cmd\optiga_cmd.c **** {
 574:C:/Workspace/DAVE-4.4.2-64Bit/optiga-trust-m/optiga/cmd\optiga_cmd.c ****     uint8_t index;
 575:C:/Workspace/DAVE-4.4.2-64Bit/optiga-trust-m/optiga/cmd\optiga_cmd.c ****     for (index = 0; index < OPTIGA_CMD_MAX_REGISTRATIONS ; index++)
 576:C:/Workspace/DAVE-4.4.2-64Bit/optiga-trust-m/optiga/cmd\optiga_cmd.c ****     {
 577:C:/Workspace/DAVE-4.4.2-64Bit/optiga-trust-m/optiga/cmd\optiga_cmd.c ****         if (OPTIGA_CMD_QUEUE_NOT_ASSIGNED == me->p_optiga->optiga_cmd_execution_queue[index].state_
 578:C:/Workspace/DAVE-4.4.2-64Bit/optiga-trust-m/optiga/cmd\optiga_cmd.c ****         {
 579:C:/Workspace/DAVE-4.4.2-64Bit/optiga-trust-m/optiga/cmd\optiga_cmd.c ****             * queue_index_store =  index;
 580:C:/Workspace/DAVE-4.4.2-64Bit/optiga-trust-m/optiga/cmd\optiga_cmd.c ****             me->p_optiga->optiga_cmd_execution_queue[index].state_of_entry = OPTIGA_CMD_QUEUE_ASSIG
 581:C:/Workspace/DAVE-4.4.2-64Bit/optiga-trust-m/optiga/cmd\optiga_cmd.c ****            break;
 582:C:/Workspace/DAVE-4.4.2-64Bit/optiga-trust-m/optiga/cmd\optiga_cmd.c ****         }
 583:C:/Workspace/DAVE-4.4.2-64Bit/optiga-trust-m/optiga/cmd\optiga_cmd.c ****     }
 584:C:/Workspace/DAVE-4.4.2-64Bit/optiga-trust-m/optiga/cmd\optiga_cmd.c **** }
 585:C:/Workspace/DAVE-4.4.2-64Bit/optiga-trust-m/optiga/cmd\optiga_cmd.c **** 
 586:C:/Workspace/DAVE-4.4.2-64Bit/optiga-trust-m/optiga/cmd\optiga_cmd.c **** 
 587:C:/Workspace/DAVE-4.4.2-64Bit/optiga-trust-m/optiga/cmd\optiga_cmd.c **** /*
 588:C:/Workspace/DAVE-4.4.2-64Bit/optiga-trust-m/optiga/cmd\optiga_cmd.c **** * De-assigns a slot from a optiga cmd instance and makes the slot available for next optiga cmd ins
 589:C:/Workspace/DAVE-4.4.2-64Bit/optiga-trust-m/optiga/cmd\optiga_cmd.c **** */
 590:C:/Workspace/DAVE-4.4.2-64Bit/optiga-trust-m/optiga/cmd\optiga_cmd.c **** _STATIC_H void optiga_cmd_queue_deassign_slot(optiga_cmd_t * me)
 591:C:/Workspace/DAVE-4.4.2-64Bit/optiga-trust-m/optiga/cmd\optiga_cmd.c **** {
 592:C:/Workspace/DAVE-4.4.2-64Bit/optiga-trust-m/optiga/cmd\optiga_cmd.c ****     me->p_optiga->optiga_cmd_execution_queue[me->queue_id].state_of_entry = OPTIGA_CMD_QUEUE_NOT_AS
 593:C:/Workspace/DAVE-4.4.2-64Bit/optiga-trust-m/optiga/cmd\optiga_cmd.c ****     me->p_optiga->optiga_cmd_execution_queue[me->queue_id].request_type = OPTIGA_CMD_QUEUE_NO_REQUE
 594:C:/Workspace/DAVE-4.4.2-64Bit/optiga-trust-m/optiga/cmd\optiga_cmd.c ****     me->queue_id = 0;
 595:C:/Workspace/DAVE-4.4.2-64Bit/optiga-trust-m/optiga/cmd\optiga_cmd.c **** }
 596:C:/Workspace/DAVE-4.4.2-64Bit/optiga-trust-m/optiga/cmd\optiga_cmd.c **** 
 597:C:/Workspace/DAVE-4.4.2-64Bit/optiga-trust-m/optiga/cmd\optiga_cmd.c **** 
 598:C:/Workspace/DAVE-4.4.2-64Bit/optiga-trust-m/optiga/cmd\optiga_cmd.c **** /*
 599:C:/Workspace/DAVE-4.4.2-64Bit/optiga-trust-m/optiga/cmd\optiga_cmd.c **** * Select next optiga cmd instance from the execution queue based on a rule
 600:C:/Workspace/DAVE-4.4.2-64Bit/optiga-trust-m/optiga/cmd\optiga_cmd.c **** * 1. A slot with OPTIGA_CMD_QUEUE_RESUME state should exist
 601:C:/Workspace/DAVE-4.4.2-64Bit/optiga-trust-m/optiga/cmd\optiga_cmd.c **** * 2. Pick the slot which has acquired the strict slot
 602:C:/Workspace/DAVE-4.4.2-64Bit/optiga-trust-m/optiga/cmd\optiga_cmd.c **** * 3. If no slot with OPTIGA_CMD_QUEUE_RESUME exists, slot must be in OPTIGA_CMD_QUEUE_REQUEST state
 603:C:/Workspace/DAVE-4.4.2-64Bit/optiga-trust-m/optiga/cmd\optiga_cmd.c **** * 4. The arrival time must be the earliest provided
 604:C:/Workspace/DAVE-4.4.2-64Bit/optiga-trust-m/optiga/cmd\optiga_cmd.c **** *     a. The request type is lock
 605:C:/Workspace/DAVE-4.4.2-64Bit/optiga-trust-m/optiga/cmd\optiga_cmd.c **** *     b. If request type is session, either session is already assigned or atleast session is avail
 606:C:/Workspace/DAVE-4.4.2-64Bit/optiga-trust-m/optiga/cmd\optiga_cmd.c **** */
 607:C:/Workspace/DAVE-4.4.2-64Bit/optiga-trust-m/optiga/cmd\optiga_cmd.c **** _STATIC_H void optiga_cmd_queue_scheduler(void * p_optiga)
 608:C:/Workspace/DAVE-4.4.2-64Bit/optiga-trust-m/optiga/cmd\optiga_cmd.c **** {
 609:C:/Workspace/DAVE-4.4.2-64Bit/optiga-trust-m/optiga/cmd\optiga_cmd.c ****     uint32_t reference_time_stamp = 0xFFFFFFFF;
 610:C:/Workspace/DAVE-4.4.2-64Bit/optiga-trust-m/optiga/cmd\optiga_cmd.c ****     optiga_cmd_queue_slot_t * p_queue_entry;
 611:C:/Workspace/DAVE-4.4.2-64Bit/optiga-trust-m/optiga/cmd\optiga_cmd.c ****     uint8_t index;
 612:C:/Workspace/DAVE-4.4.2-64Bit/optiga-trust-m/optiga/cmd\optiga_cmd.c ****     uint8_t prefered_index = 0xFF;
 613:C:/Workspace/DAVE-4.4.2-64Bit/optiga-trust-m/optiga/cmd\optiga_cmd.c ****     uint8_t overflow_detected = FALSE;
 614:C:/Workspace/DAVE-4.4.2-64Bit/optiga-trust-m/optiga/cmd\optiga_cmd.c **** 
 615:C:/Workspace/DAVE-4.4.2-64Bit/optiga-trust-m/optiga/cmd\optiga_cmd.c ****     optiga_context_t * p_optiga_ctx = (optiga_context_t * )p_optiga;
 616:C:/Workspace/DAVE-4.4.2-64Bit/optiga-trust-m/optiga/cmd\optiga_cmd.c **** 
 617:C:/Workspace/DAVE-4.4.2-64Bit/optiga-trust-m/optiga/cmd\optiga_cmd.c ****     pal_os_event_t * my_os_event = p_optiga_ctx->p_pal_os_event_ctx;
 618:C:/Workspace/DAVE-4.4.2-64Bit/optiga-trust-m/optiga/cmd\optiga_cmd.c **** 
 619:C:/Workspace/DAVE-4.4.2-64Bit/optiga-trust-m/optiga/cmd\optiga_cmd.c **** 
 620:C:/Workspace/DAVE-4.4.2-64Bit/optiga-trust-m/optiga/cmd\optiga_cmd.c ****     if (((0 == optiga_cmd_queue_get_count_of(p_optiga_ctx, OPTIGA_CMD_QUEUE_SLOT_STATE, OPTIGA_CMD_
 621:C:/Workspace/DAVE-4.4.2-64Bit/optiga-trust-m/optiga/cmd\optiga_cmd.c ****          (0 == optiga_cmd_queue_get_count_of(p_optiga_ctx, OPTIGA_CMD_QUEUE_SLOT_STATE, OPTIGA_CMD_
 622:C:/Workspace/DAVE-4.4.2-64Bit/optiga-trust-m/optiga/cmd\optiga_cmd.c ****          ((1 == optiga_cmd_queue_get_count_of(p_optiga_ctx, OPTIGA_CMD_QUEUE_SLOT_STATE , OPTIGA_CM
 623:C:/Workspace/DAVE-4.4.2-64Bit/optiga-trust-m/optiga/cmd\optiga_cmd.c ****          (0 < optiga_cmd_queue_get_count_of(p_optiga_ctx, OPTIGA_CMD_QUEUE_SLOT_LOCK_TYPE, OPTIGA_C
 624:C:/Workspace/DAVE-4.4.2-64Bit/optiga-trust-m/optiga/cmd\optiga_cmd.c ****     {
 625:C:/Workspace/DAVE-4.4.2-64Bit/optiga-trust-m/optiga/cmd\optiga_cmd.c ****         // call self
 626:C:/Workspace/DAVE-4.4.2-64Bit/optiga-trust-m/optiga/cmd\optiga_cmd.c ****         pal_os_event_register_callback_oneshot(my_os_event, optiga_cmd_queue_scheduler,
 627:C:/Workspace/DAVE-4.4.2-64Bit/optiga-trust-m/optiga/cmd\optiga_cmd.c ****                                                p_optiga_ctx,OPTIGA_CMD_SCHEDULER_IDLING_TIME_MS);
 628:C:/Workspace/DAVE-4.4.2-64Bit/optiga-trust-m/optiga/cmd\optiga_cmd.c ****     }
 629:C:/Workspace/DAVE-4.4.2-64Bit/optiga-trust-m/optiga/cmd\optiga_cmd.c ****     else
 630:C:/Workspace/DAVE-4.4.2-64Bit/optiga-trust-m/optiga/cmd\optiga_cmd.c ****     {
 631:C:/Workspace/DAVE-4.4.2-64Bit/optiga-trust-m/optiga/cmd\optiga_cmd.c ****         pal_os_event_stop(my_os_event);
 632:C:/Workspace/DAVE-4.4.2-64Bit/optiga-trust-m/optiga/cmd\optiga_cmd.c ****         // continue checking if no context selected and overflow detected
 633:C:/Workspace/DAVE-4.4.2-64Bit/optiga-trust-m/optiga/cmd\optiga_cmd.c ****         do
 634:C:/Workspace/DAVE-4.4.2-64Bit/optiga-trust-m/optiga/cmd\optiga_cmd.c ****         {
 635:C:/Workspace/DAVE-4.4.2-64Bit/optiga-trust-m/optiga/cmd\optiga_cmd.c ****             //reset overflow detected flag and the last_time stamp
 636:C:/Workspace/DAVE-4.4.2-64Bit/optiga-trust-m/optiga/cmd\optiga_cmd.c ****             if(overflow_detected == TRUE)
 637:C:/Workspace/DAVE-4.4.2-64Bit/optiga-trust-m/optiga/cmd\optiga_cmd.c ****             {
 638:C:/Workspace/DAVE-4.4.2-64Bit/optiga-trust-m/optiga/cmd\optiga_cmd.c ****                 p_optiga_ctx->last_time_stamp = 0;
 639:C:/Workspace/DAVE-4.4.2-64Bit/optiga-trust-m/optiga/cmd\optiga_cmd.c ****                 overflow_detected = FALSE;
 640:C:/Workspace/DAVE-4.4.2-64Bit/optiga-trust-m/optiga/cmd\optiga_cmd.c ****             }
 641:C:/Workspace/DAVE-4.4.2-64Bit/optiga-trust-m/optiga/cmd\optiga_cmd.c **** 
 642:C:/Workspace/DAVE-4.4.2-64Bit/optiga-trust-m/optiga/cmd\optiga_cmd.c ****             // Select optiga command based on rule
 643:C:/Workspace/DAVE-4.4.2-64Bit/optiga-trust-m/optiga/cmd\optiga_cmd.c ****             for (index = 0; index < OPTIGA_CMD_MAX_REGISTRATIONS; index++)
 644:C:/Workspace/DAVE-4.4.2-64Bit/optiga-trust-m/optiga/cmd\optiga_cmd.c ****             {
 645:C:/Workspace/DAVE-4.4.2-64Bit/optiga-trust-m/optiga/cmd\optiga_cmd.c ****                 p_queue_entry = &(p_optiga_ctx->optiga_cmd_execution_queue[index]);
 646:C:/Workspace/DAVE-4.4.2-64Bit/optiga-trust-m/optiga/cmd\optiga_cmd.c **** 
 647:C:/Workspace/DAVE-4.4.2-64Bit/optiga-trust-m/optiga/cmd\optiga_cmd.c ****                 // if any slot has acquired strict lock, highest priority is given to it
 648:C:/Workspace/DAVE-4.4.2-64Bit/optiga-trust-m/optiga/cmd\optiga_cmd.c ****                 if (1 == optiga_cmd_queue_get_count_of(p_optiga_ctx, OPTIGA_CMD_QUEUE_SLOT_STATE , 
 649:C:/Workspace/DAVE-4.4.2-64Bit/optiga-trust-m/optiga/cmd\optiga_cmd.c ****                 {
 650:C:/Workspace/DAVE-4.4.2-64Bit/optiga-trust-m/optiga/cmd\optiga_cmd.c ****                     // Select the slot which has acquired strict lock
 651:C:/Workspace/DAVE-4.4.2-64Bit/optiga-trust-m/optiga/cmd\optiga_cmd.c ****                     if ((OPTIGA_CMD_QUEUE_RESUME == p_queue_entry->state_of_entry) &&
 652:C:/Workspace/DAVE-4.4.2-64Bit/optiga-trust-m/optiga/cmd\optiga_cmd.c ****                         (OPTIGA_CMD_QUEUE_REQUEST_STRICT_LOCK == p_queue_entry->request_type))
 653:C:/Workspace/DAVE-4.4.2-64Bit/optiga-trust-m/optiga/cmd\optiga_cmd.c ****                     {
 654:C:/Workspace/DAVE-4.4.2-64Bit/optiga-trust-m/optiga/cmd\optiga_cmd.c ****                         reference_time_stamp = p_queue_entry->arrival_time;
 655:C:/Workspace/DAVE-4.4.2-64Bit/optiga-trust-m/optiga/cmd\optiga_cmd.c ****                         prefered_index = index;
 656:C:/Workspace/DAVE-4.4.2-64Bit/optiga-trust-m/optiga/cmd\optiga_cmd.c ****                     }
 657:C:/Workspace/DAVE-4.4.2-64Bit/optiga-trust-m/optiga/cmd\optiga_cmd.c **** 
 658:C:/Workspace/DAVE-4.4.2-64Bit/optiga-trust-m/optiga/cmd\optiga_cmd.c ****                 }
 659:C:/Workspace/DAVE-4.4.2-64Bit/optiga-trust-m/optiga/cmd\optiga_cmd.c ****                 else
 660:C:/Workspace/DAVE-4.4.2-64Bit/optiga-trust-m/optiga/cmd\optiga_cmd.c ****                 {
 661:C:/Workspace/DAVE-4.4.2-64Bit/optiga-trust-m/optiga/cmd\optiga_cmd.c ****                     // pick only requested queue slot and earliest arrival time
 662:C:/Workspace/DAVE-4.4.2-64Bit/optiga-trust-m/optiga/cmd\optiga_cmd.c ****                     if (p_queue_entry->state_of_entry == OPTIGA_CMD_QUEUE_REQUEST)
 663:C:/Workspace/DAVE-4.4.2-64Bit/optiga-trust-m/optiga/cmd\optiga_cmd.c ****                     {
 664:C:/Workspace/DAVE-4.4.2-64Bit/optiga-trust-m/optiga/cmd\optiga_cmd.c ****                         // remember that overflow has occurred in one of the entry
 665:C:/Workspace/DAVE-4.4.2-64Bit/optiga-trust-m/optiga/cmd\optiga_cmd.c ****                         if (p_queue_entry->arrival_time < p_optiga_ctx->last_time_stamp)
 666:C:/Workspace/DAVE-4.4.2-64Bit/optiga-trust-m/optiga/cmd\optiga_cmd.c ****                         {
 667:C:/Workspace/DAVE-4.4.2-64Bit/optiga-trust-m/optiga/cmd\optiga_cmd.c ****                             overflow_detected = TRUE;
 668:C:/Workspace/DAVE-4.4.2-64Bit/optiga-trust-m/optiga/cmd\optiga_cmd.c ****                         }
 669:C:/Workspace/DAVE-4.4.2-64Bit/optiga-trust-m/optiga/cmd\optiga_cmd.c **** 
 670:C:/Workspace/DAVE-4.4.2-64Bit/optiga-trust-m/optiga/cmd\optiga_cmd.c ****                         // if lock request or session request and session available(either already 
 671:C:/Workspace/DAVE-4.4.2-64Bit/optiga-trust-m/optiga/cmd\optiga_cmd.c ****                         if (((p_queue_entry->arrival_time <= reference_time_stamp) && (p_queue_entr
 672:C:/Workspace/DAVE-4.4.2-64Bit/optiga-trust-m/optiga/cmd\optiga_cmd.c ****                             (((OPTIGA_CMD_QUEUE_REQUEST_SESSION == p_queue_entry->request_type) && 
 673:C:/Workspace/DAVE-4.4.2-64Bit/optiga-trust-m/optiga/cmd\optiga_cmd.c ****                             ((OPTIGA_CMD_QUEUE_REQUEST_SESSION == p_queue_entry->request_type) && (
 674:C:/Workspace/DAVE-4.4.2-64Bit/optiga-trust-m/optiga/cmd\optiga_cmd.c ****                             (OPTIGA_CMD_QUEUE_REQUEST_LOCK == p_queue_entry->request_type) ||
 675:C:/Workspace/DAVE-4.4.2-64Bit/optiga-trust-m/optiga/cmd\optiga_cmd.c ****                             (OPTIGA_CMD_QUEUE_REQUEST_STRICT_LOCK == p_queue_entry->request_type)))
 676:C:/Workspace/DAVE-4.4.2-64Bit/optiga-trust-m/optiga/cmd\optiga_cmd.c ****                         {
 677:C:/Workspace/DAVE-4.4.2-64Bit/optiga-trust-m/optiga/cmd\optiga_cmd.c ****                             reference_time_stamp = p_queue_entry->arrival_time;
 678:C:/Workspace/DAVE-4.4.2-64Bit/optiga-trust-m/optiga/cmd\optiga_cmd.c ****                             prefered_index = index;
 679:C:/Workspace/DAVE-4.4.2-64Bit/optiga-trust-m/optiga/cmd\optiga_cmd.c ****                         }
 680:C:/Workspace/DAVE-4.4.2-64Bit/optiga-trust-m/optiga/cmd\optiga_cmd.c ****                     }
 681:C:/Workspace/DAVE-4.4.2-64Bit/optiga-trust-m/optiga/cmd\optiga_cmd.c **** 
 682:C:/Workspace/DAVE-4.4.2-64Bit/optiga-trust-m/optiga/cmd\optiga_cmd.c **** 
 683:C:/Workspace/DAVE-4.4.2-64Bit/optiga-trust-m/optiga/cmd\optiga_cmd.c ****                 }
 684:C:/Workspace/DAVE-4.4.2-64Bit/optiga-trust-m/optiga/cmd\optiga_cmd.c ****             }
 685:C:/Workspace/DAVE-4.4.2-64Bit/optiga-trust-m/optiga/cmd\optiga_cmd.c ****         } while((0xFF == prefered_index) && (TRUE == overflow_detected));
 686:C:/Workspace/DAVE-4.4.2-64Bit/optiga-trust-m/optiga/cmd\optiga_cmd.c **** 
 687:C:/Workspace/DAVE-4.4.2-64Bit/optiga-trust-m/optiga/cmd\optiga_cmd.c ****         // Improve : check the index and max queue size check
 688:C:/Workspace/DAVE-4.4.2-64Bit/optiga-trust-m/optiga/cmd\optiga_cmd.c ****         // If slot is identified then go further
 689:C:/Workspace/DAVE-4.4.2-64Bit/optiga-trust-m/optiga/cmd\optiga_cmd.c ****         if (0xFF != prefered_index)
 690:C:/Workspace/DAVE-4.4.2-64Bit/optiga-trust-m/optiga/cmd\optiga_cmd.c ****         {
 691:C:/Workspace/DAVE-4.4.2-64Bit/optiga-trust-m/optiga/cmd\optiga_cmd.c ****             p_queue_entry = &(p_optiga_ctx->optiga_cmd_execution_queue[prefered_index]);
 692:C:/Workspace/DAVE-4.4.2-64Bit/optiga-trust-m/optiga/cmd\optiga_cmd.c ****             // assign session
 693:C:/Workspace/DAVE-4.4.2-64Bit/optiga-trust-m/optiga/cmd\optiga_cmd.c ****             if ((OPTIGA_CMD_QUEUE_REQUEST_SESSION == p_optiga_ctx->optiga_cmd_execution_queue[prefe
 694:C:/Workspace/DAVE-4.4.2-64Bit/optiga-trust-m/optiga/cmd\optiga_cmd.c ****                 (OPTIGA_CMD_NO_SESSION_OID == ((optiga_cmd_t *)p_queue_entry->registered_ctx)->sess
 695:C:/Workspace/DAVE-4.4.2-64Bit/optiga-trust-m/optiga/cmd\optiga_cmd.c ****             {
 696:C:/Workspace/DAVE-4.4.2-64Bit/optiga-trust-m/optiga/cmd\optiga_cmd.c ****                 optiga_cmd_session_assign((optiga_cmd_t *)(p_optiga_ctx->optiga_cmd_execution_queue
 697:C:/Workspace/DAVE-4.4.2-64Bit/optiga-trust-m/optiga/cmd\optiga_cmd.c ****                 // Improve : Change the state of the type here. This will reduce 0x0000 check
 698:C:/Workspace/DAVE-4.4.2-64Bit/optiga-trust-m/optiga/cmd\optiga_cmd.c ****             }
 699:C:/Workspace/DAVE-4.4.2-64Bit/optiga-trust-m/optiga/cmd\optiga_cmd.c **** 
 700:C:/Workspace/DAVE-4.4.2-64Bit/optiga-trust-m/optiga/cmd\optiga_cmd.c ****             // schedule with selected context
 701:C:/Workspace/DAVE-4.4.2-64Bit/optiga-trust-m/optiga/cmd\optiga_cmd.c ****             my_os_event = ((optiga_cmd_t *)(p_optiga_ctx->optiga_cmd_execution_queue[prefered_index
 702:C:/Workspace/DAVE-4.4.2-64Bit/optiga-trust-m/optiga/cmd\optiga_cmd.c ****             pal_os_event_register_callback_oneshot(my_os_event,
 703:C:/Workspace/DAVE-4.4.2-64Bit/optiga-trust-m/optiga/cmd\optiga_cmd.c ****                                                    optiga_cmd_event_trigger_execute,
 704:C:/Workspace/DAVE-4.4.2-64Bit/optiga-trust-m/optiga/cmd\optiga_cmd.c ****                                                    ((optiga_cmd_t *)(p_optiga_ctx->optiga_cmd_execu
 705:C:/Workspace/DAVE-4.4.2-64Bit/optiga-trust-m/optiga/cmd\optiga_cmd.c ****                                                    OPTIGA_CMD_SCHEDULER_RUNNING_TIME_MS);
 706:C:/Workspace/DAVE-4.4.2-64Bit/optiga-trust-m/optiga/cmd\optiga_cmd.c ****             p_optiga_ctx->optiga_cmd_execution_queue[prefered_index].state_of_entry = OPTIGA_CMD_QU
 707:C:/Workspace/DAVE-4.4.2-64Bit/optiga-trust-m/optiga/cmd\optiga_cmd.c ****             p_optiga_ctx->last_time_stamp = reference_time_stamp;
 708:C:/Workspace/DAVE-4.4.2-64Bit/optiga-trust-m/optiga/cmd\optiga_cmd.c ****         }
 709:C:/Workspace/DAVE-4.4.2-64Bit/optiga-trust-m/optiga/cmd\optiga_cmd.c ****         else
 710:C:/Workspace/DAVE-4.4.2-64Bit/optiga-trust-m/optiga/cmd\optiga_cmd.c ****         {
 711:C:/Workspace/DAVE-4.4.2-64Bit/optiga-trust-m/optiga/cmd\optiga_cmd.c ****             pal_os_event_register_callback_oneshot( my_os_event, optiga_cmd_queue_scheduler,
 712:C:/Workspace/DAVE-4.4.2-64Bit/optiga-trust-m/optiga/cmd\optiga_cmd.c ****                                                     p_optiga_ctx,OPTIGA_CMD_SCHEDULER_IDLING_TIME_M
 713:C:/Workspace/DAVE-4.4.2-64Bit/optiga-trust-m/optiga/cmd\optiga_cmd.c ****         }
 714:C:/Workspace/DAVE-4.4.2-64Bit/optiga-trust-m/optiga/cmd\optiga_cmd.c ****     }
 715:C:/Workspace/DAVE-4.4.2-64Bit/optiga-trust-m/optiga/cmd\optiga_cmd.c **** }
 716:C:/Workspace/DAVE-4.4.2-64Bit/optiga-trust-m/optiga/cmd\optiga_cmd.c **** 
 717:C:/Workspace/DAVE-4.4.2-64Bit/optiga-trust-m/optiga/cmd\optiga_cmd.c **** /*
 718:C:/Workspace/DAVE-4.4.2-64Bit/optiga-trust-m/optiga/cmd\optiga_cmd.c **** * Updates a execution queue slot
 719:C:/Workspace/DAVE-4.4.2-64Bit/optiga-trust-m/optiga/cmd\optiga_cmd.c **** */
 720:C:/Workspace/DAVE-4.4.2-64Bit/optiga-trust-m/optiga/cmd\optiga_cmd.c **** _STATIC_H void optiga_cmd_queue_update_slot(optiga_cmd_t * me, uint8_t request_type)
 721:C:/Workspace/DAVE-4.4.2-64Bit/optiga-trust-m/optiga/cmd\optiga_cmd.c **** {
  71              	 .loc 1 721 0
  72              	 .cfi_startproc
  73              	.LVL7:
  74 0000 F7B5     	 push {r0,r1,r2,r4,r5,r6,r7,lr}
  75              	.LCFI1:
  76              	 .cfi_def_cfa_offset 32
  77              	 .cfi_offset 0,-32
  78              	 .cfi_offset 1,-28
  79              	 .cfi_offset 2,-24
  80              	 .cfi_offset 4,-20
  81              	 .cfi_offset 5,-16
  82              	 .cfi_offset 6,-12
  83              	 .cfi_offset 7,-8
  84              	 .cfi_offset 14,-4
 722:C:/Workspace/DAVE-4.4.2-64Bit/optiga-trust-m/optiga/cmd\optiga_cmd.c ****     if ((OPTIGA_CMD_QUEUE_REQUEST_STRICT_LOCK != me->p_optiga->optiga_cmd_execution_queue[me->queue
  85              	 .loc 1 722 0
  86 0002 0C22     	 mov r2,#12
  87 0004 131C     	 mov r3,r2
 721:C:/Workspace/DAVE-4.4.2-64Bit/optiga-trust-m/optiga/cmd\optiga_cmd.c ****     if ((OPTIGA_CMD_QUEUE_REQUEST_STRICT_LOCK != me->p_optiga->optiga_cmd_execution_queue[me->queue
  88              	 .loc 1 721 0
  89 0006 0D1C     	 mov r5,r1
  90              	 .loc 1 722 0
  91 0008 C721     	 mov r1,#199
  92              	.LVL8:
  93 000a 477F     	 ldrb r7,[r0,#29]
  94 000c 0668     	 ldr r6,[r0]
  95 000e 7B43     	 mul r3,r7
  96 0010 C900     	 lsl r1,r1,#3
  97 0012 F318     	 add r3,r6,r3
  98 0014 5B18     	 add r3,r3,r1
  99 0016 1B78     	 ldrb r3,[r3]
 721:C:/Workspace/DAVE-4.4.2-64Bit/optiga-trust-m/optiga/cmd\optiga_cmd.c ****     if ((OPTIGA_CMD_QUEUE_REQUEST_STRICT_LOCK != me->p_optiga->optiga_cmd_execution_queue[me->queue
 100              	 .loc 1 721 0
 101 0018 041C     	 mov r4,r0
 102 001a 0192     	 str r2,[sp,#4]
 103              	 .loc 1 722 0
 104 001c 232B     	 cmp r3,#35
 105 001e 01D1     	 bne .L3
 106              	 .loc 1 722 0 is_stmt 0 discriminator 1
 107 0020 232D     	 cmp r5,#35
 108 0022 08D0     	 beq .L4
 109              	.L3:
 723:C:/Workspace/DAVE-4.4.2-64Bit/optiga-trust-m/optiga/cmd\optiga_cmd.c ****        ((OPTIGA_CMD_QUEUE_REQUEST_STRICT_LOCK == me->p_optiga->optiga_cmd_execution_queue[me->queue
 724:C:/Workspace/DAVE-4.4.2-64Bit/optiga-trust-m/optiga/cmd\optiga_cmd.c ****        (OPTIGA_CMD_QUEUE_REQUEST_STRICT_LOCK != request_type)))
 725:C:/Workspace/DAVE-4.4.2-64Bit/optiga-trust-m/optiga/cmd\optiga_cmd.c ****     {
 726:C:/Workspace/DAVE-4.4.2-64Bit/optiga-trust-m/optiga/cmd\optiga_cmd.c ****         //add time stamp
 727:C:/Workspace/DAVE-4.4.2-64Bit/optiga-trust-m/optiga/cmd\optiga_cmd.c ****         me->p_optiga->optiga_cmd_execution_queue[me->queue_id].arrival_time = pal_os_timer_get_time
 110              	 .loc 1 727 0 is_stmt 1
 111 0024 FFF7FEFF 	 bl pal_os_timer_get_time_in_microseconds
 112              	.LVL9:
 113 0028 019B     	 ldr r3,[sp,#4]
 114 002a 7B43     	 mul r3,r7
 115 002c F618     	 add r6,r6,r3
 116 002e C623     	 mov r3,#198
 117 0030 DB00     	 lsl r3,r3,#3
 118 0032 F618     	 add r6,r6,r3
 119 0034 7060     	 str r0,[r6,#4]
 120              	.L4:
 728:C:/Workspace/DAVE-4.4.2-64Bit/optiga-trust-m/optiga/cmd\optiga_cmd.c ****     }
 729:C:/Workspace/DAVE-4.4.2-64Bit/optiga-trust-m/optiga/cmd\optiga_cmd.c ****     //add optiga_cmd ctx
 730:C:/Workspace/DAVE-4.4.2-64Bit/optiga-trust-m/optiga/cmd\optiga_cmd.c ****     me->p_optiga->optiga_cmd_execution_queue[me->queue_id].registered_ctx = (void * )me;
 121              	 .loc 1 730 0
 122 0036 0C23     	 mov r3,#12
 123 0038 C620     	 mov r0,#198
 124 003a 627F     	 ldrb r2,[r4,#29]
 125 003c 2168     	 ldr r1,[r4]
 126 003e 5A43     	 mul r2,r3
 127 0040 C000     	 lsl r0,r0,#3
 128 0042 8A18     	 add r2,r1,r2
 129 0044 1218     	 add r2,r2,r0
 130 0046 1460     	 str r4,[r2]
 731:C:/Workspace/DAVE-4.4.2-64Bit/optiga-trust-m/optiga/cmd\optiga_cmd.c ****     // set the state of slot to Requested state
 732:C:/Workspace/DAVE-4.4.2-64Bit/optiga-trust-m/optiga/cmd\optiga_cmd.c ****     if ((OPTIGA_CMD_QUEUE_REQUEST_STRICT_LOCK == me->p_optiga->optiga_cmd_execution_queue[me->queue
 131              	 .loc 1 732 0
 132 0048 1A1C     	 mov r2,r3
 133 004a C726     	 mov r6,#199
 134 004c 607F     	 ldrb r0,[r4,#29]
 135 004e F600     	 lsl r6,r6,#3
 136 0050 4243     	 mul r2,r0
 137 0052 8A18     	 add r2,r1,r2
 138 0054 9219     	 add r2,r2,r6
 139 0056 1678     	 ldrb r6,[r2]
 140 0058 232E     	 cmp r6,#35
 141 005a 04D1     	 bne .L5
 142              	 .loc 1 732 0 is_stmt 0 discriminator 1
 143 005c 232D     	 cmp r5,#35
 144 005e 02D1     	 bne .L5
 733:C:/Workspace/DAVE-4.4.2-64Bit/optiga-trust-m/optiga/cmd\optiga_cmd.c ****         (OPTIGA_CMD_QUEUE_REQUEST_STRICT_LOCK == request_type))
 734:C:/Workspace/DAVE-4.4.2-64Bit/optiga-trust-m/optiga/cmd\optiga_cmd.c ****     {
 735:C:/Workspace/DAVE-4.4.2-64Bit/optiga-trust-m/optiga/cmd\optiga_cmd.c ****         me->p_optiga->optiga_cmd_execution_queue[me->queue_id].state_of_entry = OPTIGA_CMD_QUEUE_RE
 145              	 .loc 1 735 0 is_stmt 1
 146 0060 043B     	 sub r3,r3,#4
 147 0062 5370     	 strb r3,[r2,#1]
 148 0064 06E0     	 b .L6
 149              	.L5:
 736:C:/Workspace/DAVE-4.4.2-64Bit/optiga-trust-m/optiga/cmd\optiga_cmd.c ****     }
 737:C:/Workspace/DAVE-4.4.2-64Bit/optiga-trust-m/optiga/cmd\optiga_cmd.c ****     else
 738:C:/Workspace/DAVE-4.4.2-64Bit/optiga-trust-m/optiga/cmd\optiga_cmd.c ****     {
 739:C:/Workspace/DAVE-4.4.2-64Bit/optiga-trust-m/optiga/cmd\optiga_cmd.c ****         me->p_optiga->optiga_cmd_execution_queue[me->queue_id].state_of_entry = OPTIGA_CMD_QUEUE_RE
 150              	 .loc 1 739 0
 151 0066 C722     	 mov r2,#199
 152 0068 4343     	 mul r3,r0
 153 006a D200     	 lsl r2,r2,#3
 154 006c CB18     	 add r3,r1,r3
 155 006e 9B18     	 add r3,r3,r2
 156 0070 0222     	 mov r2,#2
 157 0072 5A70     	 strb r2,[r3,#1]
 158              	.L6:
 740:C:/Workspace/DAVE-4.4.2-64Bit/optiga-trust-m/optiga/cmd\optiga_cmd.c ****     }
 741:C:/Workspace/DAVE-4.4.2-64Bit/optiga-trust-m/optiga/cmd\optiga_cmd.c ****     //add request type
 742:C:/Workspace/DAVE-4.4.2-64Bit/optiga-trust-m/optiga/cmd\optiga_cmd.c ****     me->p_optiga->optiga_cmd_execution_queue[me->queue_id].request_type = request_type;
 159              	 .loc 1 742 0
 160 0074 0C22     	 mov r2,#12
 161 0076 637F     	 ldrb r3,[r4,#29]
 162 0078 2168     	 ldr r1,[r4]
 163 007a 5343     	 mul r3,r2
 164 007c C722     	 mov r2,#199
 165 007e CB18     	 add r3,r1,r3
 166 0080 D200     	 lsl r2,r2,#3
 167 0082 9B18     	 add r3,r3,r2
 168 0084 1D70     	 strb r5,[r3]
 743:C:/Workspace/DAVE-4.4.2-64Bit/optiga-trust-m/optiga/cmd\optiga_cmd.c **** }
 169              	 .loc 1 743 0
 170              	 
 171              	.LVL10:
 172 0086 F7BD     	 pop {r0,r1,r2,r4,r5,r6,r7,pc}
 173              	 .cfi_endproc
 174              	.LFE13:
 176              	 .section .text.optiga_cmd_queue_reset_slot,"ax",%progbits
 177              	 .align 1
 178              	 .code 16
 179              	 .thumb_func
 181              	optiga_cmd_queue_reset_slot:
 182              	.LFB14:
 744:C:/Workspace/DAVE-4.4.2-64Bit/optiga-trust-m/optiga/cmd\optiga_cmd.c **** 
 745:C:/Workspace/DAVE-4.4.2-64Bit/optiga-trust-m/optiga/cmd\optiga_cmd.c **** /*
 746:C:/Workspace/DAVE-4.4.2-64Bit/optiga-trust-m/optiga/cmd\optiga_cmd.c **** * Resets a execution slot
 747:C:/Workspace/DAVE-4.4.2-64Bit/optiga-trust-m/optiga/cmd\optiga_cmd.c **** */
 748:C:/Workspace/DAVE-4.4.2-64Bit/optiga-trust-m/optiga/cmd\optiga_cmd.c **** _STATIC_H void optiga_cmd_queue_reset_slot(const optiga_cmd_t * me)
 749:C:/Workspace/DAVE-4.4.2-64Bit/optiga-trust-m/optiga/cmd\optiga_cmd.c **** {
 183              	 .loc 1 749 0
 184              	 .cfi_startproc
 185              	.LVL11:
 186 0000 38B5     	 push {r3,r4,r5,lr}
 187              	.LCFI2:
 188              	 .cfi_def_cfa_offset 16
 189              	 .cfi_offset 3,-16
 190              	 .cfi_offset 4,-12
 191              	 .cfi_offset 5,-8
 192              	 .cfi_offset 14,-4
 750:C:/Workspace/DAVE-4.4.2-64Bit/optiga-trust-m/optiga/cmd\optiga_cmd.c ****     // Reset the arrival time
 751:C:/Workspace/DAVE-4.4.2-64Bit/optiga-trust-m/optiga/cmd\optiga_cmd.c ****     me->p_optiga->optiga_cmd_execution_queue[me->queue_id].arrival_time = 0xFFFFFFFF;
 193              	 .loc 1 751 0
 194 0002 0C23     	 mov r3,#12
 195 0004 C621     	 mov r1,#198
 196 0006 427F     	 ldrb r2,[r0,#29]
 197 0008 0468     	 ldr r4,[r0]
 198 000a 5A43     	 mul r2,r3
 199 000c C900     	 lsl r1,r1,#3
 200 000e A218     	 add r2,r4,r2
 201 0010 5218     	 add r2,r2,r1
 202 0012 0121     	 mov r1,#1
 203 0014 4942     	 neg r1,r1
 204 0016 5160     	 str r1,[r2,#4]
 752:C:/Workspace/DAVE-4.4.2-64Bit/optiga-trust-m/optiga/cmd\optiga_cmd.c ****     //add optiga_cmd ctx
 753:C:/Workspace/DAVE-4.4.2-64Bit/optiga-trust-m/optiga/cmd\optiga_cmd.c ****     me->p_optiga->optiga_cmd_execution_queue[me->queue_id].registered_ctx = NULL;
 205              	 .loc 1 753 0
 206 0018 C622     	 mov r2,#198
 207 001a 0025     	 mov r5,#0
 208 001c 417F     	 ldrb r1,[r0,#29]
 209 001e D200     	 lsl r2,r2,#3
 210 0020 5943     	 mul r1,r3
 211 0022 6118     	 add r1,r4,r1
 212 0024 8918     	 add r1,r1,r2
 213 0026 0D60     	 str r5,[r1]
 754:C:/Workspace/DAVE-4.4.2-64Bit/optiga-trust-m/optiga/cmd\optiga_cmd.c ****     //add request type
 755:C:/Workspace/DAVE-4.4.2-64Bit/optiga-trust-m/optiga/cmd\optiga_cmd.c ****     me->p_optiga->optiga_cmd_execution_queue[me->queue_id].request_type = 0;
 214              	 .loc 1 755 0
 215 0028 C721     	 mov r1,#199
 216 002a 427F     	 ldrb r2,[r0,#29]
 217 002c C900     	 lsl r1,r1,#3
 218 002e 5A43     	 mul r2,r3
 219 0030 A218     	 add r2,r4,r2
 220 0032 5218     	 add r2,r2,r1
 221 0034 1570     	 strb r5,[r2]
 756:C:/Workspace/DAVE-4.4.2-64Bit/optiga-trust-m/optiga/cmd\optiga_cmd.c ****     // set the slot state to assigned
 757:C:/Workspace/DAVE-4.4.2-64Bit/optiga-trust-m/optiga/cmd\optiga_cmd.c ****     me->p_optiga->optiga_cmd_execution_queue[me->queue_id].state_of_entry = OPTIGA_CMD_QUEUE_ASSIGN
 222              	 .loc 1 757 0
 223 0036 427F     	 ldrb r2,[r0,#29]
 758:C:/Workspace/DAVE-4.4.2-64Bit/optiga-trust-m/optiga/cmd\optiga_cmd.c ****     // start the event scheduler
 759:C:/Workspace/DAVE-4.4.2-64Bit/optiga-trust-m/optiga/cmd\optiga_cmd.c ****     pal_os_event_start(me->p_optiga->p_pal_os_event_ctx, optiga_cmd_queue_scheduler, me->p_optiga);
 760:C:/Workspace/DAVE-4.4.2-64Bit/optiga-trust-m/optiga/cmd\optiga_cmd.c **** }
 224              	 .loc 1 760 0
 225              	 
 757:C:/Workspace/DAVE-4.4.2-64Bit/optiga-trust-m/optiga/cmd\optiga_cmd.c ****     // start the event scheduler
 226              	 .loc 1 757 0
 227 0038 5343     	 mul r3,r2
 228 003a 0268     	 ldr r2,[r0]
 229 003c D318     	 add r3,r2,r3
 230 003e 0122     	 mov r2,#1
 231 0040 5B18     	 add r3,r3,r1
 232 0042 5A70     	 strb r2,[r3,#1]
 759:C:/Workspace/DAVE-4.4.2-64Bit/optiga-trust-m/optiga/cmd\optiga_cmd.c **** }
 233              	 .loc 1 759 0
 234 0044 CF23     	 mov r3,#207
 235 0046 0268     	 ldr r2,[r0]
 236 0048 DB00     	 lsl r3,r3,#3
 237 004a D058     	 ldr r0,[r2,r3]
 238              	.LVL12:
 239 004c 0149     	 ldr r1,.L12
 240 004e FFF7FEFF 	 bl pal_os_event_start
 241              	.LVL13:
 242              	 .loc 1 760 0
 243 0052 38BD     	 pop {r3,r4,r5,pc}
 244              	.L13:
 245              	 .align 2
 246              	.L12:
 247 0054 00000000 	 .word optiga_cmd_queue_scheduler
 248              	 .cfi_endproc
 249              	.LFE14:
 251              	 .section .text.optiga_cmd_execute_handler,"ax",%progbits
 252              	 .align 1
 253              	 .code 16
 254              	 .thumb_func
 256              	optiga_cmd_execute_handler:
 257              	.LFB21:
 761:C:/Workspace/DAVE-4.4.2-64Bit/optiga-trust-m/optiga/cmd\optiga_cmd.c **** 
 762:C:/Workspace/DAVE-4.4.2-64Bit/optiga-trust-m/optiga/cmd\optiga_cmd.c **** optiga_lib_status_t optiga_cmd_request_session(optiga_cmd_t * me)
 763:C:/Workspace/DAVE-4.4.2-64Bit/optiga-trust-m/optiga/cmd\optiga_cmd.c **** {
 764:C:/Workspace/DAVE-4.4.2-64Bit/optiga-trust-m/optiga/cmd\optiga_cmd.c ****     optiga_cmd_queue_update_slot(me , OPTIGA_CMD_QUEUE_REQUEST_SESSION);
 765:C:/Workspace/DAVE-4.4.2-64Bit/optiga-trust-m/optiga/cmd\optiga_cmd.c ****     return (OPTIGA_CMD_SUCCESS);
 766:C:/Workspace/DAVE-4.4.2-64Bit/optiga-trust-m/optiga/cmd\optiga_cmd.c **** }
 767:C:/Workspace/DAVE-4.4.2-64Bit/optiga-trust-m/optiga/cmd\optiga_cmd.c **** 
 768:C:/Workspace/DAVE-4.4.2-64Bit/optiga-trust-m/optiga/cmd\optiga_cmd.c **** optiga_lib_status_t optiga_cmd_release_session(optiga_cmd_t * me)
 769:C:/Workspace/DAVE-4.4.2-64Bit/optiga-trust-m/optiga/cmd\optiga_cmd.c **** {
 770:C:/Workspace/DAVE-4.4.2-64Bit/optiga-trust-m/optiga/cmd\optiga_cmd.c ****     optiga_cmd_session_free(me);
 771:C:/Workspace/DAVE-4.4.2-64Bit/optiga-trust-m/optiga/cmd\optiga_cmd.c ****     return (OPTIGA_CMD_SUCCESS);
 772:C:/Workspace/DAVE-4.4.2-64Bit/optiga-trust-m/optiga/cmd\optiga_cmd.c **** }
 773:C:/Workspace/DAVE-4.4.2-64Bit/optiga-trust-m/optiga/cmd\optiga_cmd.c **** 
 774:C:/Workspace/DAVE-4.4.2-64Bit/optiga-trust-m/optiga/cmd\optiga_cmd.c **** optiga_lib_status_t optiga_cmd_request_lock(optiga_cmd_t * me, uint8_t lock_type)
 775:C:/Workspace/DAVE-4.4.2-64Bit/optiga-trust-m/optiga/cmd\optiga_cmd.c **** {
 776:C:/Workspace/DAVE-4.4.2-64Bit/optiga-trust-m/optiga/cmd\optiga_cmd.c ****     optiga_cmd_queue_update_slot(me , lock_type);
 777:C:/Workspace/DAVE-4.4.2-64Bit/optiga-trust-m/optiga/cmd\optiga_cmd.c ****     return (OPTIGA_CMD_SUCCESS);
 778:C:/Workspace/DAVE-4.4.2-64Bit/optiga-trust-m/optiga/cmd\optiga_cmd.c **** }
 779:C:/Workspace/DAVE-4.4.2-64Bit/optiga-trust-m/optiga/cmd\optiga_cmd.c **** 
 780:C:/Workspace/DAVE-4.4.2-64Bit/optiga-trust-m/optiga/cmd\optiga_cmd.c **** optiga_lib_status_t optiga_cmd_release_lock(const optiga_cmd_t * me)
 781:C:/Workspace/DAVE-4.4.2-64Bit/optiga-trust-m/optiga/cmd\optiga_cmd.c **** {
 782:C:/Workspace/DAVE-4.4.2-64Bit/optiga-trust-m/optiga/cmd\optiga_cmd.c ****     optiga_cmd_queue_reset_slot(me);
 783:C:/Workspace/DAVE-4.4.2-64Bit/optiga-trust-m/optiga/cmd\optiga_cmd.c ****     return (OPTIGA_CMD_SUCCESS);
 784:C:/Workspace/DAVE-4.4.2-64Bit/optiga-trust-m/optiga/cmd\optiga_cmd.c **** }
 785:C:/Workspace/DAVE-4.4.2-64Bit/optiga-trust-m/optiga/cmd\optiga_cmd.c **** 
 786:C:/Workspace/DAVE-4.4.2-64Bit/optiga-trust-m/optiga/cmd\optiga_cmd.c **** _STATIC_H optiga_lib_status_t optiga_cmd_restore_context(const optiga_cmd_t * me)
 787:C:/Workspace/DAVE-4.4.2-64Bit/optiga-trust-m/optiga/cmd\optiga_cmd.c **** {
 788:C:/Workspace/DAVE-4.4.2-64Bit/optiga-trust-m/optiga/cmd\optiga_cmd.c ****     uint16_t context_handle_length;
 789:C:/Workspace/DAVE-4.4.2-64Bit/optiga-trust-m/optiga/cmd\optiga_cmd.c ****     optiga_lib_status_t return_status = OPTIGA_CMD_ERROR;
 790:C:/Workspace/DAVE-4.4.2-64Bit/optiga-trust-m/optiga/cmd\optiga_cmd.c ****     do
 791:C:/Workspace/DAVE-4.4.2-64Bit/optiga-trust-m/optiga/cmd\optiga_cmd.c ****     {
 792:C:/Workspace/DAVE-4.4.2-64Bit/optiga-trust-m/optiga/cmd\optiga_cmd.c ****         if (OPTIGA_LIB_PAL_DATA_STORE_NOT_CONFIGURED != me->optiga_context_datastore_id)
 793:C:/Workspace/DAVE-4.4.2-64Bit/optiga-trust-m/optiga/cmd\optiga_cmd.c ****         {
 794:C:/Workspace/DAVE-4.4.2-64Bit/optiga-trust-m/optiga/cmd\optiga_cmd.c ****             context_handle_length = sizeof(me->p_optiga->optiga_context_handle_buffer);
 795:C:/Workspace/DAVE-4.4.2-64Bit/optiga-trust-m/optiga/cmd\optiga_cmd.c ****             //Reading context handle secret from datastore
 796:C:/Workspace/DAVE-4.4.2-64Bit/optiga-trust-m/optiga/cmd\optiga_cmd.c ****             return_status = pal_os_datastore_read(me->optiga_context_datastore_id,
 797:C:/Workspace/DAVE-4.4.2-64Bit/optiga-trust-m/optiga/cmd\optiga_cmd.c ****                                                   me->p_optiga->optiga_context_handle_buffer,
 798:C:/Workspace/DAVE-4.4.2-64Bit/optiga-trust-m/optiga/cmd\optiga_cmd.c ****                                                   &context_handle_length);
 799:C:/Workspace/DAVE-4.4.2-64Bit/optiga-trust-m/optiga/cmd\optiga_cmd.c ****             if (PAL_STATUS_SUCCESS != return_status)
 800:C:/Workspace/DAVE-4.4.2-64Bit/optiga-trust-m/optiga/cmd\optiga_cmd.c ****             {
 801:C:/Workspace/DAVE-4.4.2-64Bit/optiga-trust-m/optiga/cmd\optiga_cmd.c ****                 break;
 802:C:/Workspace/DAVE-4.4.2-64Bit/optiga-trust-m/optiga/cmd\optiga_cmd.c ****             }
 803:C:/Workspace/DAVE-4.4.2-64Bit/optiga-trust-m/optiga/cmd\optiga_cmd.c ****         }
 804:C:/Workspace/DAVE-4.4.2-64Bit/optiga-trust-m/optiga/cmd\optiga_cmd.c ****         if (0 == optiga_common_get_uint32(me->p_optiga->optiga_context_handle_buffer) &&
 805:C:/Workspace/DAVE-4.4.2-64Bit/optiga-trust-m/optiga/cmd\optiga_cmd.c ****             0 == optiga_common_get_uint32(&me->p_optiga->optiga_context_handle_buffer[4]))
 806:C:/Workspace/DAVE-4.4.2-64Bit/optiga-trust-m/optiga/cmd\optiga_cmd.c ****         {
 807:C:/Workspace/DAVE-4.4.2-64Bit/optiga-trust-m/optiga/cmd\optiga_cmd.c ****             return_status = OPTIGA_CMD_ERROR;
 808:C:/Workspace/DAVE-4.4.2-64Bit/optiga-trust-m/optiga/cmd\optiga_cmd.c ****             break;
 809:C:/Workspace/DAVE-4.4.2-64Bit/optiga-trust-m/optiga/cmd\optiga_cmd.c ****         }
 810:C:/Workspace/DAVE-4.4.2-64Bit/optiga-trust-m/optiga/cmd\optiga_cmd.c **** 
 811:C:/Workspace/DAVE-4.4.2-64Bit/optiga-trust-m/optiga/cmd\optiga_cmd.c ****         return_status = OPTIGA_LIB_SUCCESS;
 812:C:/Workspace/DAVE-4.4.2-64Bit/optiga-trust-m/optiga/cmd\optiga_cmd.c ****     } while (FALSE);
 813:C:/Workspace/DAVE-4.4.2-64Bit/optiga-trust-m/optiga/cmd\optiga_cmd.c ****     return (return_status);
 814:C:/Workspace/DAVE-4.4.2-64Bit/optiga-trust-m/optiga/cmd\optiga_cmd.c **** }
 815:C:/Workspace/DAVE-4.4.2-64Bit/optiga-trust-m/optiga/cmd\optiga_cmd.c **** _STATIC_H optiga_lib_status_t optiga_cmd_store_context(const optiga_cmd_t * me)
 816:C:/Workspace/DAVE-4.4.2-64Bit/optiga-trust-m/optiga/cmd\optiga_cmd.c **** {
 817:C:/Workspace/DAVE-4.4.2-64Bit/optiga-trust-m/optiga/cmd\optiga_cmd.c ****     optiga_lib_status_t return_status = OPTIGA_CMD_ERROR;
 818:C:/Workspace/DAVE-4.4.2-64Bit/optiga-trust-m/optiga/cmd\optiga_cmd.c ****     do
 819:C:/Workspace/DAVE-4.4.2-64Bit/optiga-trust-m/optiga/cmd\optiga_cmd.c ****     {
 820:C:/Workspace/DAVE-4.4.2-64Bit/optiga-trust-m/optiga/cmd\optiga_cmd.c ****         if (OPTIGA_LIB_PAL_DATA_STORE_NOT_CONFIGURED != me->optiga_context_datastore_id)
 821:C:/Workspace/DAVE-4.4.2-64Bit/optiga-trust-m/optiga/cmd\optiga_cmd.c ****         {
 822:C:/Workspace/DAVE-4.4.2-64Bit/optiga-trust-m/optiga/cmd\optiga_cmd.c ****             //Reading context handle secret from datastore
 823:C:/Workspace/DAVE-4.4.2-64Bit/optiga-trust-m/optiga/cmd\optiga_cmd.c ****             return_status = pal_os_datastore_write(me->optiga_context_datastore_id,
 824:C:/Workspace/DAVE-4.4.2-64Bit/optiga-trust-m/optiga/cmd\optiga_cmd.c ****                                                    me->p_optiga->optiga_context_handle_buffer,
 825:C:/Workspace/DAVE-4.4.2-64Bit/optiga-trust-m/optiga/cmd\optiga_cmd.c ****                                                    sizeof(me->p_optiga->optiga_context_handle_buffe
 826:C:/Workspace/DAVE-4.4.2-64Bit/optiga-trust-m/optiga/cmd\optiga_cmd.c ****             if (PAL_STATUS_SUCCESS != return_status)
 827:C:/Workspace/DAVE-4.4.2-64Bit/optiga-trust-m/optiga/cmd\optiga_cmd.c ****             {
 828:C:/Workspace/DAVE-4.4.2-64Bit/optiga-trust-m/optiga/cmd\optiga_cmd.c ****                 break;
 829:C:/Workspace/DAVE-4.4.2-64Bit/optiga-trust-m/optiga/cmd\optiga_cmd.c ****             }
 830:C:/Workspace/DAVE-4.4.2-64Bit/optiga-trust-m/optiga/cmd\optiga_cmd.c ****         }
 831:C:/Workspace/DAVE-4.4.2-64Bit/optiga-trust-m/optiga/cmd\optiga_cmd.c **** 
 832:C:/Workspace/DAVE-4.4.2-64Bit/optiga-trust-m/optiga/cmd\optiga_cmd.c ****         return_status = OPTIGA_LIB_SUCCESS;
 833:C:/Workspace/DAVE-4.4.2-64Bit/optiga-trust-m/optiga/cmd\optiga_cmd.c ****     } while (FALSE);
 834:C:/Workspace/DAVE-4.4.2-64Bit/optiga-trust-m/optiga/cmd\optiga_cmd.c ****     return (return_status);
 835:C:/Workspace/DAVE-4.4.2-64Bit/optiga-trust-m/optiga/cmd\optiga_cmd.c **** }
 836:C:/Workspace/DAVE-4.4.2-64Bit/optiga-trust-m/optiga/cmd\optiga_cmd.c **** 
 837:C:/Workspace/DAVE-4.4.2-64Bit/optiga-trust-m/optiga/cmd\optiga_cmd.c **** _STATIC_H void optiga_cmd_execute_handler(void * p_ctx, optiga_lib_status_t event)
 838:C:/Workspace/DAVE-4.4.2-64Bit/optiga-trust-m/optiga/cmd\optiga_cmd.c **** {
 258              	 .loc 1 838 0
 259              	 .cfi_startproc
 260              	.LVL14:
 261 0000 F0B5     	 push {r4,r5,r6,r7,lr}
 262              	.LCFI3:
 263              	 .cfi_def_cfa_offset 20
 264              	 .cfi_offset 4,-20
 265              	 .cfi_offset 5,-16
 266              	 .cfi_offset 6,-12
 267              	 .cfi_offset 7,-8
 268              	 .cfi_offset 14,-4
 839:C:/Workspace/DAVE-4.4.2-64Bit/optiga-trust-m/optiga/cmd\optiga_cmd.c ****     optiga_context_t * p_optiga;
 840:C:/Workspace/DAVE-4.4.2-64Bit/optiga-trust-m/optiga/cmd\optiga_cmd.c ****     uint8_t exit_loop = TRUE;
 841:C:/Workspace/DAVE-4.4.2-64Bit/optiga-trust-m/optiga/cmd\optiga_cmd.c ****     optiga_cmd_t * me = (optiga_cmd_t *)p_ctx;
 842:C:/Workspace/DAVE-4.4.2-64Bit/optiga-trust-m/optiga/cmd\optiga_cmd.c ****     optiga_cmd_handler_t optiga_cmd_handler = me->cmd_hdlrs;
 269              	 .loc 1 842 0
 270 0002 4368     	 ldr r3,[r0,#4]
 838:C:/Workspace/DAVE-4.4.2-64Bit/optiga-trust-m/optiga/cmd\optiga_cmd.c ****     optiga_context_t * p_optiga;
 271              	 .loc 1 838 0
 272 0004 85B0     	 sub sp,sp,#20
 273              	.LCFI4:
 274              	 .cfi_def_cfa_offset 40
 838:C:/Workspace/DAVE-4.4.2-64Bit/optiga-trust-m/optiga/cmd\optiga_cmd.c ****     optiga_context_t * p_optiga;
 275              	 .loc 1 838 0
 276 0006 041C     	 mov r4,r0
 277 0008 0291     	 str r1,[sp,#8]
 278              	 .loc 1 842 0
 279 000a 0393     	 str r3,[sp,#12]
 280              	.LVL15:
 843:C:/Workspace/DAVE-4.4.2-64Bit/optiga-trust-m/optiga/cmd\optiga_cmd.c ****     p_optiga = me->p_optiga;
 281              	 .loc 1 843 0
 282 000c 0768     	 ldr r7,[r0]
 283              	.LVL16:
 844:C:/Workspace/DAVE-4.4.2-64Bit/optiga-trust-m/optiga/cmd\optiga_cmd.c **** 
 845:C:/Workspace/DAVE-4.4.2-64Bit/optiga-trust-m/optiga/cmd\optiga_cmd.c ****     // in event of no success, release lock and exit
 846:C:/Workspace/DAVE-4.4.2-64Bit/optiga-trust-m/optiga/cmd\optiga_cmd.c ****     if (OPTIGA_LIB_SUCCESS != event)
 284              	 .loc 1 846 0
 285 000e 0029     	 cmp r1,#0
 286 0010 1BD0     	 beq .L15
 847:C:/Workspace/DAVE-4.4.2-64Bit/optiga-trust-m/optiga/cmd\optiga_cmd.c ****     {
 848:C:/Workspace/DAVE-4.4.2-64Bit/optiga-trust-m/optiga/cmd\optiga_cmd.c **** #ifdef OPTIGA_COMMS_SHIELDED_CONNECTION
 849:C:/Workspace/DAVE-4.4.2-64Bit/optiga-trust-m/optiga/cmd\optiga_cmd.c ****         /*In the case of hibernate if any low level error occurs while performing
 850:C:/Workspace/DAVE-4.4.2-64Bit/optiga-trust-m/optiga/cmd\optiga_cmd.c ****           close application this section clears the saved application context.*/
 851:C:/Workspace/DAVE-4.4.2-64Bit/optiga-trust-m/optiga/cmd\optiga_cmd.c ****         if ((OPTIGA_CMD_PARAM_INITIALIZE_APP_CONTEXT != me->cmd_param) &&
 287              	 .loc 1 851 0
 288 0012 037E     	 ldrb r3,[r0,#24]
 289              	.LVL17:
 290 0014 002B     	 cmp r3,#0
 291 0016 13D0     	 beq .L17
 292              	 .loc 1 851 0 is_stmt 0 discriminator 1
 293 0018 C37E     	 ldrb r3,[r0,#27]
 294 001a 222B     	 cmp r3,#34
 295 001c 10D1     	 bne .L17
 852:C:/Workspace/DAVE-4.4.2-64Bit/optiga-trust-m/optiga/cmd\optiga_cmd.c ****             (OPTIGA_COMMS_SESSION_CONTEXT_SAVE == me->manage_context_operation))
 853:C:/Workspace/DAVE-4.4.2-64Bit/optiga-trust-m/optiga/cmd\optiga_cmd.c ****         {
 854:C:/Workspace/DAVE-4.4.2-64Bit/optiga-trust-m/optiga/cmd\optiga_cmd.c ****             pal_os_memset(me->p_optiga->optiga_context_handle_buffer,0,
 296              	 .loc 1 854 0 is_stmt 1
 297 001e D023     	 mov r3,#208
 298 0020 DB00     	 lsl r3,r3,#3
 299 0022 F818     	 add r0,r7,r3
 300              	.LVL18:
 301 0024 0021     	 mov r1,#0
 302              	.LVL19:
 303 0026 0822     	 mov r2,#8
 304 0028 FFF7FEFF 	 bl memset
 305              	.LVL20:
 855:C:/Workspace/DAVE-4.4.2-64Bit/optiga-trust-m/optiga/cmd\optiga_cmd.c ****                             sizeof(me->p_optiga->optiga_context_handle_buffer));
 856:C:/Workspace/DAVE-4.4.2-64Bit/optiga-trust-m/optiga/cmd\optiga_cmd.c ****             if ((OPTIGA_HIBERNATE_CONTEXT_ID == me->optiga_context_datastore_id) &&
 306              	 .loc 1 856 0
 307 002c 208C     	 ldrh r0,[r4,#32]
 308 002e 3328     	 cmp r0,#51
 309 0030 06D1     	 bne .L17
 857:C:/Workspace/DAVE-4.4.2-64Bit/optiga-trust-m/optiga/cmd\optiga_cmd.c ****                 (OPTIGA_LIB_PAL_DATA_STORE_NOT_CONFIGURED != me->optiga_context_datastore_id))
 858:C:/Workspace/DAVE-4.4.2-64Bit/optiga-trust-m/optiga/cmd\optiga_cmd.c ****             {
 859:C:/Workspace/DAVE-4.4.2-64Bit/optiga-trust-m/optiga/cmd\optiga_cmd.c ****                 //Clearing context handle secret from datastore
 860:C:/Workspace/DAVE-4.4.2-64Bit/optiga-trust-m/optiga/cmd\optiga_cmd.c ****                 me->exit_status = pal_os_datastore_write(me->optiga_context_datastore_id,
 861:C:/Workspace/DAVE-4.4.2-64Bit/optiga-trust-m/optiga/cmd\optiga_cmd.c ****                                                          me->p_optiga->optiga_context_handle_buffer
 310              	 .loc 1 861 0
 311 0032 D022     	 mov r2,#208
 312 0034 2368     	 ldr r3,[r4]
 313 0036 D200     	 lsl r2,r2,#3
 314 0038 9918     	 add r1,r3,r2
 860:C:/Workspace/DAVE-4.4.2-64Bit/optiga-trust-m/optiga/cmd\optiga_cmd.c ****                                                          me->p_optiga->optiga_context_handle_buffer
 315              	 .loc 1 860 0
 316 003a 0822     	 mov r2,#8
 317 003c FFF7FEFF 	 bl pal_os_datastore_write
 318              	.LVL21:
 319              	.L17:
 862:C:/Workspace/DAVE-4.4.2-64Bit/optiga-trust-m/optiga/cmd\optiga_cmd.c ****                                                          sizeof(me->p_optiga->optiga_context_handle
 863:C:/Workspace/DAVE-4.4.2-64Bit/optiga-trust-m/optiga/cmd\optiga_cmd.c ****                 if (PAL_STATUS_SUCCESS != me->exit_status)
 864:C:/Workspace/DAVE-4.4.2-64Bit/optiga-trust-m/optiga/cmd\optiga_cmd.c ****                 {
 865:C:/Workspace/DAVE-4.4.2-64Bit/optiga-trust-m/optiga/cmd\optiga_cmd.c ****                     me->cmd_next_execution_state = OPTIGA_CMD_EXEC_RELEASE_LOCK;
 866:C:/Workspace/DAVE-4.4.2-64Bit/optiga-trust-m/optiga/cmd\optiga_cmd.c ****                 }
 867:C:/Workspace/DAVE-4.4.2-64Bit/optiga-trust-m/optiga/cmd\optiga_cmd.c ****             }
 868:C:/Workspace/DAVE-4.4.2-64Bit/optiga-trust-m/optiga/cmd\optiga_cmd.c ****         }
 869:C:/Workspace/DAVE-4.4.2-64Bit/optiga-trust-m/optiga/cmd\optiga_cmd.c **** #endif //OPTIGA_COMMS_SHIELDED_CONNECTION
 870:C:/Workspace/DAVE-4.4.2-64Bit/optiga-trust-m/optiga/cmd\optiga_cmd.c ****         me->cmd_next_execution_state = OPTIGA_CMD_EXEC_RELEASE_LOCK;
 320              	 .loc 1 870 0
 321 0040 0B23     	 mov r3,#11
 322 0042 A375     	 strb r3,[r4,#22]
 871:C:/Workspace/DAVE-4.4.2-64Bit/optiga-trust-m/optiga/cmd\optiga_cmd.c ****         me->exit_status = event;
 323              	 .loc 1 871 0
 324 0044 6B46     	 mov r3,sp
 325 0046 1B89     	 ldrh r3,[r3,#8]
 326 0048 E383     	 strh r3,[r4,#30]
 327              	.L15:
 838:C:/Workspace/DAVE-4.4.2-64Bit/optiga-trust-m/optiga/cmd\optiga_cmd.c ****     optiga_context_t * p_optiga;
 328              	 .loc 1 838 0
 329 004a 0126     	 mov r6,#1
 330              	.LVL22:
 331              	.L19:
 872:C:/Workspace/DAVE-4.4.2-64Bit/optiga-trust-m/optiga/cmd\optiga_cmd.c ****     }
 873:C:/Workspace/DAVE-4.4.2-64Bit/optiga-trust-m/optiga/cmd\optiga_cmd.c **** 
 874:C:/Workspace/DAVE-4.4.2-64Bit/optiga-trust-m/optiga/cmd\optiga_cmd.c ****     do
 875:C:/Workspace/DAVE-4.4.2-64Bit/optiga-trust-m/optiga/cmd\optiga_cmd.c ****     {
 876:C:/Workspace/DAVE-4.4.2-64Bit/optiga-trust-m/optiga/cmd\optiga_cmd.c ****         switch (me->cmd_next_execution_state)
 332              	 .loc 1 876 0
 333 004c A37D     	 ldrb r3,[r4,#22]
 334 004e 0C2B     	 cmp r3,#12
 335 0050 00D9     	 bls .LCB288
 336 0052 86E1     	 b .L20
 337              	.LCB288:
 338 0054 181C     	 mov r0,r3
 339 0056 FFF7FEFF 	 bl __gnu_thumb1_case_uhi
 340              	.L22:
 341 005a 0D00     	 .2byte (.L21-.L22)/2
 342 005c 1500     	 .2byte (.L23-.L22)/2
 343 005e 3A00     	 .2byte (.L24-.L22)/2
 344 0060 4400     	 .2byte (.L25-.L22)/2
 345 0062 7700     	 .2byte (.L26-.L22)/2
 346 0064 8500     	 .2byte (.L27-.L22)/2
 347 0066 8500     	 .2byte (.L27-.L22)/2
 348 0068 9100     	 .2byte (.L28-.L22)/2
 349 006a 9800     	 .2byte (.L29-.L22)/2
 350 006c C800     	 .2byte (.L30-.L22)/2
 351 006e 0101     	 .2byte (.L31-.L22)/2
 352 0070 7901     	 .2byte (.L32-.L22)/2
 353 0072 7F01     	 .2byte (.L33-.L22)/2
 354              	 .p2align 1
 355              	.L21:
 356              	.LVL23:
 357              	.LBB100:
 358              	.LBB101:
 776:C:/Workspace/DAVE-4.4.2-64Bit/optiga-trust-m/optiga/cmd\optiga_cmd.c ****     return (OPTIGA_CMD_SUCCESS);
 359              	 .loc 1 776 0
 360 0074 201C     	 mov r0,r4
 361 0076 2121     	 mov r1,#33
 362 0078 FFF7FEFF 	 bl optiga_cmd_queue_update_slot
 363              	.LVL24:
 364              	.LBE101:
 365              	.LBE100:
 877:C:/Workspace/DAVE-4.4.2-64Bit/optiga-trust-m/optiga/cmd\optiga_cmd.c ****         {
 878:C:/Workspace/DAVE-4.4.2-64Bit/optiga-trust-m/optiga/cmd\optiga_cmd.c ****             case OPTIGA_CMD_EXEC_COMMS_OPEN:
 879:C:/Workspace/DAVE-4.4.2-64Bit/optiga-trust-m/optiga/cmd\optiga_cmd.c ****             {
 880:C:/Workspace/DAVE-4.4.2-64Bit/optiga-trust-m/optiga/cmd\optiga_cmd.c ****                 // add to queue and exit
 881:C:/Workspace/DAVE-4.4.2-64Bit/optiga-trust-m/optiga/cmd\optiga_cmd.c ****                 me->exit_status = optiga_cmd_request_lock(me, OPTIGA_CMD_QUEUE_REQUEST_LOCK);
 366              	 .loc 1 881 0
 367 007c 0023     	 mov r3,#0
 368 007e E383     	 strh r3,[r4,#30]
 882:C:/Workspace/DAVE-4.4.2-64Bit/optiga-trust-m/optiga/cmd\optiga_cmd.c ****                 if (OPTIGA_LIB_SUCCESS != me->exit_status)
 883:C:/Workspace/DAVE-4.4.2-64Bit/optiga-trust-m/optiga/cmd\optiga_cmd.c ****                 {
 884:C:/Workspace/DAVE-4.4.2-64Bit/optiga-trust-m/optiga/cmd\optiga_cmd.c ****                     EXIT_STATE_WITH_ERROR(me,exit_loop);
 885:C:/Workspace/DAVE-4.4.2-64Bit/optiga-trust-m/optiga/cmd\optiga_cmd.c ****                     break;
 886:C:/Workspace/DAVE-4.4.2-64Bit/optiga-trust-m/optiga/cmd\optiga_cmd.c ****                 }
 887:C:/Workspace/DAVE-4.4.2-64Bit/optiga-trust-m/optiga/cmd\optiga_cmd.c **** 
 888:C:/Workspace/DAVE-4.4.2-64Bit/optiga-trust-m/optiga/cmd\optiga_cmd.c ****                 me->cmd_next_execution_state = OPTIGA_CMD_EXEC_COMMS_OPEN_START;
 369              	 .loc 1 888 0
 370 0080 0133     	 add r3,r3,#1
 371 0082 79E0     	 b .L78
 372              	.LVL25:
 373              	.L23:
 889:C:/Workspace/DAVE-4.4.2-64Bit/optiga-trust-m/optiga/cmd\optiga_cmd.c ****                 break;
 890:C:/Workspace/DAVE-4.4.2-64Bit/optiga-trust-m/optiga/cmd\optiga_cmd.c ****             }
 891:C:/Workspace/DAVE-4.4.2-64Bit/optiga-trust-m/optiga/cmd\optiga_cmd.c ****             case OPTIGA_CMD_EXEC_COMMS_OPEN_START:
 892:C:/Workspace/DAVE-4.4.2-64Bit/optiga-trust-m/optiga/cmd\optiga_cmd.c ****             {
 893:C:/Workspace/DAVE-4.4.2-64Bit/optiga-trust-m/optiga/cmd\optiga_cmd.c **** #ifdef OPTIGA_COMMS_SHIELDED_CONNECTION
 894:C:/Workspace/DAVE-4.4.2-64Bit/optiga-trust-m/optiga/cmd\optiga_cmd.c ****                 me->p_optiga->p_optiga_comms->protection_level =  me->protection_level;
 895:C:/Workspace/DAVE-4.4.2-64Bit/optiga-trust-m/optiga/cmd\optiga_cmd.c ****                 me->p_optiga->p_optiga_comms->protocol_version = me->protocol_version;
 896:C:/Workspace/DAVE-4.4.2-64Bit/optiga-trust-m/optiga/cmd\optiga_cmd.c ****                 me->p_optiga->p_optiga_comms->manage_context_operation = me->manage_context_operati
 897:C:/Workspace/DAVE-4.4.2-64Bit/optiga-trust-m/optiga/cmd\optiga_cmd.c ****                 me->p_optiga->p_optiga_comms->p_pal_os_event_ctx = me->p_optiga->p_pal_os_event_ctx
 374              	 .loc 1 897 0
 375 0084 CF21     	 mov r1,#207
 894:C:/Workspace/DAVE-4.4.2-64Bit/optiga-trust-m/optiga/cmd\optiga_cmd.c ****                 me->p_optiga->p_optiga_comms->protocol_version = me->protocol_version;
 376              	 .loc 1 894 0
 377 0086 2368     	 ldr r3,[r4]
 378 0088 627E     	 ldrb r2,[r4,#25]
 379 008a 1B68     	 ldr r3,[r3]
 380              	 .loc 1 897 0
 381 008c C900     	 lsl r1,r1,#3
 894:C:/Workspace/DAVE-4.4.2-64Bit/optiga-trust-m/optiga/cmd\optiga_cmd.c ****                 me->p_optiga->p_optiga_comms->protocol_version = me->protocol_version;
 382              	 .loc 1 894 0
 383 008e 9A73     	 strb r2,[r3,#14]
 895:C:/Workspace/DAVE-4.4.2-64Bit/optiga-trust-m/optiga/cmd\optiga_cmd.c ****                 me->p_optiga->p_optiga_comms->manage_context_operation = me->manage_context_operati
 384              	 .loc 1 895 0
 385 0090 2368     	 ldr r3,[r4]
 386 0092 A27E     	 ldrb r2,[r4,#26]
 387 0094 1B68     	 ldr r3,[r3]
 388 0096 DA73     	 strb r2,[r3,#15]
 896:C:/Workspace/DAVE-4.4.2-64Bit/optiga-trust-m/optiga/cmd\optiga_cmd.c ****                 me->p_optiga->p_optiga_comms->p_pal_os_event_ctx = me->p_optiga->p_pal_os_event_ctx
 389              	 .loc 1 896 0
 390 0098 2368     	 ldr r3,[r4]
 391 009a E27E     	 ldrb r2,[r4,#27]
 392 009c 1B68     	 ldr r3,[r3]
 393 009e 1A74     	 strb r2,[r3,#16]
 394              	 .loc 1 897 0
 395 00a0 2368     	 ldr r3,[r4]
 898:C:/Workspace/DAVE-4.4.2-64Bit/optiga-trust-m/optiga/cmd\optiga_cmd.c **** #endif //OPTIGA_COMMS_SHIELDED_CONNECTION
 899:C:/Workspace/DAVE-4.4.2-64Bit/optiga-trust-m/optiga/cmd\optiga_cmd.c **** 
 900:C:/Workspace/DAVE-4.4.2-64Bit/optiga-trust-m/optiga/cmd\optiga_cmd.c ****                 (void)optiga_comms_set_callback_context(p_optiga->p_optiga_comms, me);
 396              	 .loc 1 900 0
 397 00a2 3868     	 ldr r0,[r7]
 897:C:/Workspace/DAVE-4.4.2-64Bit/optiga-trust-m/optiga/cmd\optiga_cmd.c **** #endif //OPTIGA_COMMS_SHIELDED_CONNECTION
 398              	 .loc 1 897 0
 399 00a4 1A68     	 ldr r2,[r3]
 400 00a6 5B58     	 ldr r3,[r3,r1]
 401              	 .loc 1 900 0
 402 00a8 211C     	 mov r1,r4
 897:C:/Workspace/DAVE-4.4.2-64Bit/optiga-trust-m/optiga/cmd\optiga_cmd.c **** #endif //OPTIGA_COMMS_SHIELDED_CONNECTION
 403              	 .loc 1 897 0
 404 00aa 5361     	 str r3,[r2,#20]
 405              	 .loc 1 900 0
 406 00ac FFF7FEFF 	 bl optiga_comms_set_callback_context
 407              	.LVL26:
 901:C:/Workspace/DAVE-4.4.2-64Bit/optiga-trust-m/optiga/cmd\optiga_cmd.c ****                 me->exit_status = optiga_comms_open(me->p_optiga->p_optiga_comms);
 408              	 .loc 1 901 0
 409 00b0 2368     	 ldr r3,[r4]
 410 00b2 1868     	 ldr r0,[r3]
 411 00b4 FFF7FEFF 	 bl optiga_comms_open
 412              	.LVL27:
 413 00b8 E083     	 strh r0,[r4,#30]
 902:C:/Workspace/DAVE-4.4.2-64Bit/optiga-trust-m/optiga/cmd\optiga_cmd.c **** 
 903:C:/Workspace/DAVE-4.4.2-64Bit/optiga-trust-m/optiga/cmd\optiga_cmd.c ****                 if (OPTIGA_LIB_SUCCESS != me->exit_status)
 414              	 .loc 1 903 0
 415 00ba 0028     	 cmp r0,#0
 416 00bc 05D0     	 beq .L34
 417              	.LVL28:
 418              	.L39:
 904:C:/Workspace/DAVE-4.4.2-64Bit/optiga-trust-m/optiga/cmd\optiga_cmd.c ****                 {
 905:C:/Workspace/DAVE-4.4.2-64Bit/optiga-trust-m/optiga/cmd\optiga_cmd.c ****                     EXIT_STATE_WITH_ERROR(me,exit_loop);
 419              	 .loc 1 905 0
 420 00be 0B23     	 mov r3,#11
 421 00c0 A375     	 strb r3,[r4,#22]
 422 00c2 AA4B     	 ldr r3,.L80
 423 00c4 E383     	 strh r3,[r4,#30]
 424              	.LVL29:
 425              	.L53:
 426 00c6 0026     	 mov r6,#0
 427 00c8 C0E7     	 b .L19
 428              	.LVL30:
 429              	.L34:
 906:C:/Workspace/DAVE-4.4.2-64Bit/optiga-trust-m/optiga/cmd\optiga_cmd.c ****                     break;
 907:C:/Workspace/DAVE-4.4.2-64Bit/optiga-trust-m/optiga/cmd\optiga_cmd.c ****                 }
 908:C:/Workspace/DAVE-4.4.2-64Bit/optiga-trust-m/optiga/cmd\optiga_cmd.c **** 
 909:C:/Workspace/DAVE-4.4.2-64Bit/optiga-trust-m/optiga/cmd\optiga_cmd.c ****                 me->cmd_next_execution_state = OPTIGA_CMD_EXEC_COMMS_OPEN_DONE;
 430              	 .loc 1 909 0
 431 00ca 0223     	 mov r3,#2
 432 00cc 54E0     	 b .L78
 433              	.L24:
 910:C:/Workspace/DAVE-4.4.2-64Bit/optiga-trust-m/optiga/cmd\optiga_cmd.c ****                 break;
 911:C:/Workspace/DAVE-4.4.2-64Bit/optiga-trust-m/optiga/cmd\optiga_cmd.c ****             }
 912:C:/Workspace/DAVE-4.4.2-64Bit/optiga-trust-m/optiga/cmd\optiga_cmd.c ****             case OPTIGA_CMD_EXEC_COMMS_OPEN_DONE:
 913:C:/Workspace/DAVE-4.4.2-64Bit/optiga-trust-m/optiga/cmd\optiga_cmd.c ****             {
 914:C:/Workspace/DAVE-4.4.2-64Bit/optiga-trust-m/optiga/cmd\optiga_cmd.c ****                 pal_os_event_register_callback_oneshot(me->p_optiga->p_pal_os_event_ctx,
 434              	 .loc 1 914 0
 435 00ce CF23     	 mov r3,#207
 436 00d0 2268     	 ldr r2,[r4]
 437 00d2 DB00     	 lsl r3,r3,#3
 438 00d4 D058     	 ldr r0,[r2,r3]
 439 00d6 A649     	 ldr r1,.L80+4
 440 00d8 221C     	 mov r2,r4
 441 00da 3223     	 mov r3,#50
 442 00dc FFF7FEFF 	 bl pal_os_event_register_callback_oneshot
 443              	.LVL31:
 444 00e0 49E0     	 b .L77
 445              	.L25:
 915:C:/Workspace/DAVE-4.4.2-64Bit/optiga-trust-m/optiga/cmd\optiga_cmd.c ****                                                        (register_callback)optiga_cmd_event_trigger_
 916:C:/Workspace/DAVE-4.4.2-64Bit/optiga-trust-m/optiga/cmd\optiga_cmd.c ****                                                        me, OPTIGA_CMD_SCHEDULER_RUNNING_TIME_MS);
 917:C:/Workspace/DAVE-4.4.2-64Bit/optiga-trust-m/optiga/cmd\optiga_cmd.c ****                 me->cmd_next_execution_state = OPTIGA_CMD_EXEC_PREPARE_COMMAND;
 918:C:/Workspace/DAVE-4.4.2-64Bit/optiga-trust-m/optiga/cmd\optiga_cmd.c ****                 break;
 919:C:/Workspace/DAVE-4.4.2-64Bit/optiga-trust-m/optiga/cmd\optiga_cmd.c ****             }
 920:C:/Workspace/DAVE-4.4.2-64Bit/optiga-trust-m/optiga/cmd\optiga_cmd.c ****             case OPTIGA_CMD_EXEC_COMMS_CLOSE_START:
 921:C:/Workspace/DAVE-4.4.2-64Bit/optiga-trust-m/optiga/cmd\optiga_cmd.c ****             {
 922:C:/Workspace/DAVE-4.4.2-64Bit/optiga-trust-m/optiga/cmd\optiga_cmd.c **** #ifdef OPTIGA_COMMS_SHIELDED_CONNECTION
 923:C:/Workspace/DAVE-4.4.2-64Bit/optiga-trust-m/optiga/cmd\optiga_cmd.c ****                 // In case PRL is enabled and save context is not invoked or is PRL is not enabled,
 924:C:/Workspace/DAVE-4.4.2-64Bit/optiga-trust-m/optiga/cmd\optiga_cmd.c ****                 //change state to OPTIGA_CMD_EXEC_COMMS_CLOSE_DONE, since it synchronous in nature
 925:C:/Workspace/DAVE-4.4.2-64Bit/optiga-trust-m/optiga/cmd\optiga_cmd.c ****                 if (OPTIGA_COMMS_SESSION_CONTEXT_SAVE != me->manage_context_operation)
 446              	 .loc 1 925 0
 447 00e2 E37E     	 ldrb r3,[r4,#27]
 448 00e4 222B     	 cmp r3,#34
 449 00e6 01D0     	 beq .L36
 926:C:/Workspace/DAVE-4.4.2-64Bit/optiga-trust-m/optiga/cmd\optiga_cmd.c ****                 {
 927:C:/Workspace/DAVE-4.4.2-64Bit/optiga-trust-m/optiga/cmd\optiga_cmd.c ****                     me->cmd_next_execution_state = OPTIGA_CMD_EXEC_COMMS_CLOSE_DONE;
 450              	 .loc 1 927 0
 451 00e8 0423     	 mov r3,#4
 452 00ea A375     	 strb r3,[r4,#22]
 453              	.L36:
 928:C:/Workspace/DAVE-4.4.2-64Bit/optiga-trust-m/optiga/cmd\optiga_cmd.c ****                 }
 929:C:/Workspace/DAVE-4.4.2-64Bit/optiga-trust-m/optiga/cmd\optiga_cmd.c ****                 me->p_optiga->p_optiga_comms->protection_level =  me->protection_level;
 454              	 .loc 1 929 0
 455 00ec 2368     	 ldr r3,[r4]
 456 00ee 627E     	 ldrb r2,[r4,#25]
 457 00f0 1B68     	 ldr r3,[r3]
 458 00f2 9A73     	 strb r2,[r3,#14]
 930:C:/Workspace/DAVE-4.4.2-64Bit/optiga-trust-m/optiga/cmd\optiga_cmd.c ****                 me->p_optiga->p_optiga_comms->protocol_version = me->protocol_version;
 459              	 .loc 1 930 0
 460 00f4 2368     	 ldr r3,[r4]
 461 00f6 A27E     	 ldrb r2,[r4,#26]
 462 00f8 1B68     	 ldr r3,[r3]
 463 00fa DA73     	 strb r2,[r3,#15]
 931:C:/Workspace/DAVE-4.4.2-64Bit/optiga-trust-m/optiga/cmd\optiga_cmd.c ****                 if (0 != me->p_optiga->protection_level_state)
 464              	 .loc 1 931 0
 465 00fc D123     	 mov r3,#209
 466 00fe 2268     	 ldr r2,[r4]
 467 0100 DB00     	 lsl r3,r3,#3
 468 0102 D15C     	 ldrb r1,[r2,r3]
 469 0104 1268     	 ldr r2,[r2]
 470 0106 0029     	 cmp r1,#0
 471 0108 01D0     	 beq .L37
 932:C:/Workspace/DAVE-4.4.2-64Bit/optiga-trust-m/optiga/cmd\optiga_cmd.c ****                 {
 933:C:/Workspace/DAVE-4.4.2-64Bit/optiga-trust-m/optiga/cmd\optiga_cmd.c ****                     me->p_optiga->p_optiga_comms->manage_context_operation = me->manage_context_ope
 472              	 .loc 1 933 0
 473 010a E17E     	 ldrb r1,[r4,#27]
 474 010c 00E0     	 b .L75
 475              	.L37:
 934:C:/Workspace/DAVE-4.4.2-64Bit/optiga-trust-m/optiga/cmd\optiga_cmd.c ****                 }
 935:C:/Workspace/DAVE-4.4.2-64Bit/optiga-trust-m/optiga/cmd\optiga_cmd.c ****                 else
 936:C:/Workspace/DAVE-4.4.2-64Bit/optiga-trust-m/optiga/cmd\optiga_cmd.c ****                 {
 937:C:/Workspace/DAVE-4.4.2-64Bit/optiga-trust-m/optiga/cmd\optiga_cmd.c ****                     me->p_optiga->p_optiga_comms->manage_context_operation = OPTIGA_COMMS_SESSION_C
 476              	 .loc 1 937 0
 477 010e 3321     	 mov r1,#51
 478              	.L75:
 479 0110 1174     	 strb r1,[r2,#16]
 938:C:/Workspace/DAVE-4.4.2-64Bit/optiga-trust-m/optiga/cmd\optiga_cmd.c ****                 }
 939:C:/Workspace/DAVE-4.4.2-64Bit/optiga-trust-m/optiga/cmd\optiga_cmd.c ****                 me->p_optiga->protection_level_state = 0;
 480              	 .loc 1 939 0
 481 0112 0022     	 mov r2,#0
 482 0114 2168     	 ldr r1,[r4]
 940:C:/Workspace/DAVE-4.4.2-64Bit/optiga-trust-m/optiga/cmd\optiga_cmd.c **** #endif //OPTIGA_COMMS_SHIELDED_CONNECTION
 941:C:/Workspace/DAVE-4.4.2-64Bit/optiga-trust-m/optiga/cmd\optiga_cmd.c ****                 me->cmd_next_execution_state = OPTIGA_CMD_EXEC_COMMS_CLOSE_DONE;
 483              	 .loc 1 941 0
 484 0116 0425     	 mov r5,#4
 939:C:/Workspace/DAVE-4.4.2-64Bit/optiga-trust-m/optiga/cmd\optiga_cmd.c **** #endif //OPTIGA_COMMS_SHIELDED_CONNECTION
 485              	 .loc 1 939 0
 486 0118 CA54     	 strb r2,[r1,r3]
 942:C:/Workspace/DAVE-4.4.2-64Bit/optiga-trust-m/optiga/cmd\optiga_cmd.c **** 
 943:C:/Workspace/DAVE-4.4.2-64Bit/optiga-trust-m/optiga/cmd\optiga_cmd.c ****                 me->p_optiga->p_optiga_comms->p_pal_os_event_ctx = me->p_optiga->p_pal_os_event_ctx
 487              	 .loc 1 943 0
 488 011a CF21     	 mov r1,#207
 489 011c 2368     	 ldr r3,[r4]
 490 011e C900     	 lsl r1,r1,#3
 491 0120 1A68     	 ldr r2,[r3]
 492 0122 5B58     	 ldr r3,[r3,r1]
 941:C:/Workspace/DAVE-4.4.2-64Bit/optiga-trust-m/optiga/cmd\optiga_cmd.c **** 
 493              	 .loc 1 941 0
 494 0124 A575     	 strb r5,[r4,#22]
 944:C:/Workspace/DAVE-4.4.2-64Bit/optiga-trust-m/optiga/cmd\optiga_cmd.c **** 
 945:C:/Workspace/DAVE-4.4.2-64Bit/optiga-trust-m/optiga/cmd\optiga_cmd.c ****                 (void)optiga_comms_set_callback_context(p_optiga->p_optiga_comms, me);
 495              	 .loc 1 945 0
 496 0126 211C     	 mov r1,r4
 943:C:/Workspace/DAVE-4.4.2-64Bit/optiga-trust-m/optiga/cmd\optiga_cmd.c **** 
 497              	 .loc 1 943 0
 498 0128 5361     	 str r3,[r2,#20]
 499              	 .loc 1 945 0
 500 012a 3868     	 ldr r0,[r7]
 501 012c FFF7FEFF 	 bl optiga_comms_set_callback_context
 502              	.LVL32:
 946:C:/Workspace/DAVE-4.4.2-64Bit/optiga-trust-m/optiga/cmd\optiga_cmd.c ****                 me->exit_status = optiga_comms_close(me->p_optiga->p_optiga_comms);
 503              	 .loc 1 946 0
 504 0130 2368     	 ldr r3,[r4]
 505 0132 1868     	 ldr r0,[r3]
 506 0134 FFF7FEFF 	 bl optiga_comms_close
 507              	.LVL33:
 508 0138 E083     	 strh r0,[r4,#30]
 947:C:/Workspace/DAVE-4.4.2-64Bit/optiga-trust-m/optiga/cmd\optiga_cmd.c **** 
 948:C:/Workspace/DAVE-4.4.2-64Bit/optiga-trust-m/optiga/cmd\optiga_cmd.c ****                 if (OPTIGA_LIB_SUCCESS != me->exit_status)
 509              	 .loc 1 948 0
 510 013a 0028     	 cmp r0,#0
 511 013c BFD1     	 bne .L39
 949:C:/Workspace/DAVE-4.4.2-64Bit/optiga-trust-m/optiga/cmd\optiga_cmd.c ****                 {
 950:C:/Workspace/DAVE-4.4.2-64Bit/optiga-trust-m/optiga/cmd\optiga_cmd.c ****                     EXIT_STATE_WITH_ERROR(me,exit_loop);
 951:C:/Workspace/DAVE-4.4.2-64Bit/optiga-trust-m/optiga/cmd\optiga_cmd.c ****                     break;
 952:C:/Workspace/DAVE-4.4.2-64Bit/optiga-trust-m/optiga/cmd\optiga_cmd.c ****                 }
 953:C:/Workspace/DAVE-4.4.2-64Bit/optiga-trust-m/optiga/cmd\optiga_cmd.c **** 
 954:C:/Workspace/DAVE-4.4.2-64Bit/optiga-trust-m/optiga/cmd\optiga_cmd.c **** #ifdef OPTIGA_COMMS_SHIELDED_CONNECTION
 955:C:/Workspace/DAVE-4.4.2-64Bit/optiga-trust-m/optiga/cmd\optiga_cmd.c ****                 // In case PRL is enabled and save context is requested,
 956:C:/Workspace/DAVE-4.4.2-64Bit/optiga-trust-m/optiga/cmd\optiga_cmd.c ****                 //change state to OPTIGA_CMD_EXEC_COMMS_CLOSE_DONE, since it asynchronous in nature
 957:C:/Workspace/DAVE-4.4.2-64Bit/optiga-trust-m/optiga/cmd\optiga_cmd.c ****                 if (OPTIGA_COMMS_SESSION_CONTEXT_SAVE == me->manage_context_operation)
 512              	 .loc 1 957 0
 513 013e E37E     	 ldrb r3,[r4,#27]
 514 0140 222B     	 cmp r3,#34
 515 0142 09D1     	 bne .L40
 958:C:/Workspace/DAVE-4.4.2-64Bit/optiga-trust-m/optiga/cmd\optiga_cmd.c ****                 {
 959:C:/Workspace/DAVE-4.4.2-64Bit/optiga-trust-m/optiga/cmd\optiga_cmd.c ****                     me->cmd_next_execution_state = OPTIGA_CMD_EXEC_COMMS_CLOSE_DONE;
 516              	 .loc 1 959 0
 517 0144 A575     	 strb r5,[r4,#22]
 518              	.LVL34:
 519 0146 0FE1     	 b .L14
 520              	.LVL35:
 521              	.L26:
 960:C:/Workspace/DAVE-4.4.2-64Bit/optiga-trust-m/optiga/cmd\optiga_cmd.c ****                     exit_loop = TRUE;
 961:C:/Workspace/DAVE-4.4.2-64Bit/optiga-trust-m/optiga/cmd\optiga_cmd.c ****                 }
 962:C:/Workspace/DAVE-4.4.2-64Bit/optiga-trust-m/optiga/cmd\optiga_cmd.c ****                 // For synchronous behavior: After exit from optiga_comms_close, release lock
 963:C:/Workspace/DAVE-4.4.2-64Bit/optiga-trust-m/optiga/cmd\optiga_cmd.c ****                 else
 964:C:/Workspace/DAVE-4.4.2-64Bit/optiga-trust-m/optiga/cmd\optiga_cmd.c ****                 {
 965:C:/Workspace/DAVE-4.4.2-64Bit/optiga-trust-m/optiga/cmd\optiga_cmd.c ****                     me->exit_status = optiga_cmd_release_lock(me);
 966:C:/Workspace/DAVE-4.4.2-64Bit/optiga-trust-m/optiga/cmd\optiga_cmd.c ****                 }
 967:C:/Workspace/DAVE-4.4.2-64Bit/optiga-trust-m/optiga/cmd\optiga_cmd.c **** #else
 968:C:/Workspace/DAVE-4.4.2-64Bit/optiga-trust-m/optiga/cmd\optiga_cmd.c ****                 me->exit_status = optiga_cmd_release_lock(me);
 969:C:/Workspace/DAVE-4.4.2-64Bit/optiga-trust-m/optiga/cmd\optiga_cmd.c **** #endif //OPTIGA_COMMS_SHIELDED_CONNECTION
 970:C:/Workspace/DAVE-4.4.2-64Bit/optiga-trust-m/optiga/cmd\optiga_cmd.c ****                 break;
 971:C:/Workspace/DAVE-4.4.2-64Bit/optiga-trust-m/optiga/cmd\optiga_cmd.c ****             }
 972:C:/Workspace/DAVE-4.4.2-64Bit/optiga-trust-m/optiga/cmd\optiga_cmd.c ****             case OPTIGA_CMD_EXEC_COMMS_CLOSE_DONE:
 973:C:/Workspace/DAVE-4.4.2-64Bit/optiga-trust-m/optiga/cmd\optiga_cmd.c ****             {
 974:C:/Workspace/DAVE-4.4.2-64Bit/optiga-trust-m/optiga/cmd\optiga_cmd.c ****                 me->handler(me->caller_context, event);
 522              	 .loc 1 974 0
 523 0148 2369     	 ldr r3,[r4,#16]
 524 014a E068     	 ldr r0,[r4,#12]
 525 014c 0299     	 ldr r1,[sp,#8]
 526 014e 9847     	 blx r3
 527              	.LVL36:
 975:C:/Workspace/DAVE-4.4.2-64Bit/optiga-trust-m/optiga/cmd\optiga_cmd.c **** #ifdef OPTIGA_COMMS_SHIELDED_CONNECTION
 976:C:/Workspace/DAVE-4.4.2-64Bit/optiga-trust-m/optiga/cmd\optiga_cmd.c ****                 // For asynchronous behavior, change state to release the lock
 977:C:/Workspace/DAVE-4.4.2-64Bit/optiga-trust-m/optiga/cmd\optiga_cmd.c ****                 if (OPTIGA_COMMS_SESSION_CONTEXT_SAVE == me->manage_context_operation)
 528              	 .loc 1 977 0
 529 0150 E37E     	 ldrb r3,[r4,#27]
 530 0152 222B     	 cmp r3,#34
 531 0154 00D0     	 beq .LCB471
 532 0156 04E1     	 b .L20
 533              	.LCB471:
 534              	.L40:
 535              	.LVL37:
 536              	.LBB102:
 537              	.LBB103:
 782:C:/Workspace/DAVE-4.4.2-64Bit/optiga-trust-m/optiga/cmd\optiga_cmd.c ****     return (OPTIGA_CMD_SUCCESS);
 538              	 .loc 1 782 0
 539 0158 201C     	 mov r0,r4
 540 015a FFF7FEFF 	 bl optiga_cmd_queue_reset_slot
 541              	.LVL38:
 542              	.LBE103:
 543              	.LBE102:
 965:C:/Workspace/DAVE-4.4.2-64Bit/optiga-trust-m/optiga/cmd\optiga_cmd.c ****                 }
 544              	 .loc 1 965 0
 545 015e 0023     	 mov r3,#0
 546 0160 E383     	 strh r3,[r4,#30]
 547 0162 FEE0     	 b .L20
 548              	.LVL39:
 549              	.L27:
 550 0164 0025     	 mov r5,#0
 551              	.LBB104:
 552              	.LBB105:
 764:C:/Workspace/DAVE-4.4.2-64Bit/optiga-trust-m/optiga/cmd\optiga_cmd.c ****     return (OPTIGA_CMD_SUCCESS);
 553              	 .loc 1 764 0
 554 0166 201C     	 mov r0,r4
 555 0168 2221     	 mov r1,#34
 556              	.LBE105:
 557              	.LBE104:
 978:C:/Workspace/DAVE-4.4.2-64Bit/optiga-trust-m/optiga/cmd\optiga_cmd.c ****                 {
 979:C:/Workspace/DAVE-4.4.2-64Bit/optiga-trust-m/optiga/cmd\optiga_cmd.c ****                     me->exit_status = optiga_cmd_release_lock(me);
 980:C:/Workspace/DAVE-4.4.2-64Bit/optiga-trust-m/optiga/cmd\optiga_cmd.c ****                 }
 981:C:/Workspace/DAVE-4.4.2-64Bit/optiga-trust-m/optiga/cmd\optiga_cmd.c **** #endif //OPTIGA_COMMS_SHIELDED_CONNECTION
 982:C:/Workspace/DAVE-4.4.2-64Bit/optiga-trust-m/optiga/cmd\optiga_cmd.c ****                 break;
 983:C:/Workspace/DAVE-4.4.2-64Bit/optiga-trust-m/optiga/cmd\optiga_cmd.c ****             }
 984:C:/Workspace/DAVE-4.4.2-64Bit/optiga-trust-m/optiga/cmd\optiga_cmd.c ****             case OPTIGA_CMD_EXEC_REQUEST_SESSION:
 985:C:/Workspace/DAVE-4.4.2-64Bit/optiga-trust-m/optiga/cmd\optiga_cmd.c ****             case OPTIGA_CMD_EXEC_REQUEST_LOCK:
 986:C:/Workspace/DAVE-4.4.2-64Bit/optiga-trust-m/optiga/cmd\optiga_cmd.c ****             {
 987:C:/Workspace/DAVE-4.4.2-64Bit/optiga-trust-m/optiga/cmd\optiga_cmd.c ****                 if (me->cmd_next_execution_state == OPTIGA_CMD_EXEC_REQUEST_SESSION)
 558              	 .loc 1 987 0
 559 016a 052B     	 cmp r3,#5
 560 016c 00D0     	 beq .L76
 561              	.LVL40:
 562              	.LBB106:
 563              	.LBB107:
 776:C:/Workspace/DAVE-4.4.2-64Bit/optiga-trust-m/optiga/cmd\optiga_cmd.c ****     return (OPTIGA_CMD_SUCCESS);
 564              	 .loc 1 776 0
 565 016e 2121     	 mov r1,#33
 566              	.LVL41:
 567              	.L76:
 568 0170 FFF7FEFF 	 bl optiga_cmd_queue_update_slot
 569              	.LVL42:
 570              	.LBE107:
 571              	.LBE106:
 988:C:/Workspace/DAVE-4.4.2-64Bit/optiga-trust-m/optiga/cmd\optiga_cmd.c ****                 {
 989:C:/Workspace/DAVE-4.4.2-64Bit/optiga-trust-m/optiga/cmd\optiga_cmd.c ****                     me->exit_status = optiga_cmd_request_session(me);
 990:C:/Workspace/DAVE-4.4.2-64Bit/optiga-trust-m/optiga/cmd\optiga_cmd.c ****                 }
 991:C:/Workspace/DAVE-4.4.2-64Bit/optiga-trust-m/optiga/cmd\optiga_cmd.c ****                 else
 992:C:/Workspace/DAVE-4.4.2-64Bit/optiga-trust-m/optiga/cmd\optiga_cmd.c ****                 {
 993:C:/Workspace/DAVE-4.4.2-64Bit/optiga-trust-m/optiga/cmd\optiga_cmd.c ****                     me->exit_status = optiga_cmd_request_lock(me, OPTIGA_CMD_QUEUE_REQUEST_LOCK);
 572              	 .loc 1 993 0
 573 0174 E583     	 strh r5,[r4,#30]
 574              	.L77:
 994:C:/Workspace/DAVE-4.4.2-64Bit/optiga-trust-m/optiga/cmd\optiga_cmd.c ****                 }
 995:C:/Workspace/DAVE-4.4.2-64Bit/optiga-trust-m/optiga/cmd\optiga_cmd.c ****                 if (OPTIGA_LIB_SUCCESS != me->exit_status)
 996:C:/Workspace/DAVE-4.4.2-64Bit/optiga-trust-m/optiga/cmd\optiga_cmd.c ****                 {
 997:C:/Workspace/DAVE-4.4.2-64Bit/optiga-trust-m/optiga/cmd\optiga_cmd.c ****                     EXIT_STATE_WITH_ERROR(me,exit_loop);
 998:C:/Workspace/DAVE-4.4.2-64Bit/optiga-trust-m/optiga/cmd\optiga_cmd.c ****                     break;
 999:C:/Workspace/DAVE-4.4.2-64Bit/optiga-trust-m/optiga/cmd\optiga_cmd.c ****                 }
1000:C:/Workspace/DAVE-4.4.2-64Bit/optiga-trust-m/optiga/cmd\optiga_cmd.c **** 
1001:C:/Workspace/DAVE-4.4.2-64Bit/optiga-trust-m/optiga/cmd\optiga_cmd.c ****                 me->cmd_next_execution_state = OPTIGA_CMD_EXEC_PREPARE_COMMAND;
 575              	 .loc 1 1001 0
 576 0176 0823     	 mov r3,#8
 577              	.L78:
 578 0178 A375     	 strb r3,[r4,#22]
1002:C:/Workspace/DAVE-4.4.2-64Bit/optiga-trust-m/optiga/cmd\optiga_cmd.c ****                 break;
 579              	 .loc 1 1002 0
 580 017a F2E0     	 b .L20
 581              	.L28:
 582              	.LVL43:
 583              	.LBB108:
 584              	.LBB109:
 776:C:/Workspace/DAVE-4.4.2-64Bit/optiga-trust-m/optiga/cmd\optiga_cmd.c ****     return (OPTIGA_CMD_SUCCESS);
 585              	 .loc 1 776 0
 586 017c 201C     	 mov r0,r4
 587 017e 2321     	 mov r1,#35
 588 0180 FFF7FEFF 	 bl optiga_cmd_queue_update_slot
 589              	.LVL44:
 590              	.LBE109:
 591              	.LBE108:
1003:C:/Workspace/DAVE-4.4.2-64Bit/optiga-trust-m/optiga/cmd\optiga_cmd.c ****             }
1004:C:/Workspace/DAVE-4.4.2-64Bit/optiga-trust-m/optiga/cmd\optiga_cmd.c ****             case OPTIGA_CMD_EXEC_REQUEST_STRICT_LOCK:
1005:C:/Workspace/DAVE-4.4.2-64Bit/optiga-trust-m/optiga/cmd\optiga_cmd.c ****             {
1006:C:/Workspace/DAVE-4.4.2-64Bit/optiga-trust-m/optiga/cmd\optiga_cmd.c ****                 me->exit_status = optiga_cmd_request_lock(me, OPTIGA_CMD_QUEUE_REQUEST_STRICT_LOCK)
 592              	 .loc 1 1006 0
 593 0184 0023     	 mov r3,#0
 594 0186 E383     	 strh r3,[r4,#30]
 595 0188 F5E7     	 b .L77
 596              	.LVL45:
 597              	.L29:
1007:C:/Workspace/DAVE-4.4.2-64Bit/optiga-trust-m/optiga/cmd\optiga_cmd.c ****                 if (OPTIGA_LIB_SUCCESS != me->exit_status)
1008:C:/Workspace/DAVE-4.4.2-64Bit/optiga-trust-m/optiga/cmd\optiga_cmd.c ****                 {
1009:C:/Workspace/DAVE-4.4.2-64Bit/optiga-trust-m/optiga/cmd\optiga_cmd.c ****                     EXIT_STATE_WITH_ERROR(me,exit_loop);
1010:C:/Workspace/DAVE-4.4.2-64Bit/optiga-trust-m/optiga/cmd\optiga_cmd.c ****                     break;
1011:C:/Workspace/DAVE-4.4.2-64Bit/optiga-trust-m/optiga/cmd\optiga_cmd.c ****                 }
1012:C:/Workspace/DAVE-4.4.2-64Bit/optiga-trust-m/optiga/cmd\optiga_cmd.c ****                 me->cmd_next_execution_state = OPTIGA_CMD_EXEC_PREPARE_COMMAND;
1013:C:/Workspace/DAVE-4.4.2-64Bit/optiga-trust-m/optiga/cmd\optiga_cmd.c ****                 break;
1014:C:/Workspace/DAVE-4.4.2-64Bit/optiga-trust-m/optiga/cmd\optiga_cmd.c ****             }
1015:C:/Workspace/DAVE-4.4.2-64Bit/optiga-trust-m/optiga/cmd\optiga_cmd.c **** 
1016:C:/Workspace/DAVE-4.4.2-64Bit/optiga-trust-m/optiga/cmd\optiga_cmd.c ****             case OPTIGA_CMD_EXEC_PREPARE_COMMAND:
1017:C:/Workspace/DAVE-4.4.2-64Bit/optiga-trust-m/optiga/cmd\optiga_cmd.c ****             {
1018:C:/Workspace/DAVE-4.4.2-64Bit/optiga-trust-m/optiga/cmd\optiga_cmd.c ****                 exit_loop = TRUE;
1019:C:/Workspace/DAVE-4.4.2-64Bit/optiga-trust-m/optiga/cmd\optiga_cmd.c ****                 me->exit_status = optiga_cmd_handler(me);
 598              	 .loc 1 1019 0
 599 018a 201C     	 mov r0,r4
 600 018c 039B     	 ldr r3,[sp,#12]
 601 018e 9847     	 blx r3
 602              	.LVL46:
 603 0190 E083     	 strh r0,[r4,#30]
1020:C:/Workspace/DAVE-4.4.2-64Bit/optiga-trust-m/optiga/cmd\optiga_cmd.c ****                 if (OPTIGA_LIB_SUCCESS != me->exit_status)
 604              	 .loc 1 1020 0
 605 0192 0028     	 cmp r0,#0
 606 0194 01D0     	 beq .L44
 607              	.LVL47:
 608              	.L45:
1021:C:/Workspace/DAVE-4.4.2-64Bit/optiga-trust-m/optiga/cmd\optiga_cmd.c ****                 {
1022:C:/Workspace/DAVE-4.4.2-64Bit/optiga-trust-m/optiga/cmd\optiga_cmd.c ****                     me->cmd_next_execution_state = OPTIGA_CMD_EXEC_RELEASE_LOCK;
 609              	 .loc 1 1022 0
 610 0196 0B23     	 mov r3,#11
 611 0198 DCE0     	 b .L74
 612              	.LVL48:
 613              	.L44:
1023:C:/Workspace/DAVE-4.4.2-64Bit/optiga-trust-m/optiga/cmd\optiga_cmd.c ****                     exit_loop = FALSE;
1024:C:/Workspace/DAVE-4.4.2-64Bit/optiga-trust-m/optiga/cmd\optiga_cmd.c ****                     break;
1025:C:/Workspace/DAVE-4.4.2-64Bit/optiga-trust-m/optiga/cmd\optiga_cmd.c ****                 }
1026:C:/Workspace/DAVE-4.4.2-64Bit/optiga-trust-m/optiga/cmd\optiga_cmd.c ****                 me->p_optiga->comms_rx_size = OPTIGA_CMD_TOTAL_COMMS_BUFFER_SIZE;
 614              	 .loc 1 1026 0
 615 019a 2368     	 ldr r3,[r4]
 616 019c 754A     	 ldr r2,.L80+8
 617 019e DA80     	 strh r2,[r3,#6]
1027:C:/Workspace/DAVE-4.4.2-64Bit/optiga-trust-m/optiga/cmd\optiga_cmd.c **** #ifdef OPTIGA_COMMS_SHIELDED_CONNECTION
1028:C:/Workspace/DAVE-4.4.2-64Bit/optiga-trust-m/optiga/cmd\optiga_cmd.c ****                 me->p_optiga->p_optiga_comms->protection_level = me->protection_level;
 618              	 .loc 1 1028 0
 619 01a0 627E     	 ldrb r2,[r4,#25]
 620 01a2 1B68     	 ldr r3,[r3]
 621 01a4 9A73     	 strb r2,[r3,#14]
1029:C:/Workspace/DAVE-4.4.2-64Bit/optiga-trust-m/optiga/cmd\optiga_cmd.c ****                 me->p_optiga->p_optiga_comms->protocol_version = me->protocol_version;
 622              	 .loc 1 1029 0
 623 01a6 2368     	 ldr r3,[r4]
 624 01a8 A27E     	 ldrb r2,[r4,#26]
 625 01aa 1B68     	 ldr r3,[r3]
 626 01ac DA73     	 strb r2,[r3,#15]
1030:C:/Workspace/DAVE-4.4.2-64Bit/optiga-trust-m/optiga/cmd\optiga_cmd.c ****                 me->p_optiga->protection_level_state |= me->protection_level;
 627              	 .loc 1 1030 0
 628 01ae D122     	 mov r2,#209
 629 01b0 2168     	 ldr r1,[r4]
 630 01b2 D200     	 lsl r2,r2,#3
 631 01b4 8B5C     	 ldrb r3,[r1,r2]
 632 01b6 607E     	 ldrb r0,[r4,#25]
 633 01b8 0343     	 orr r3,r0
 634 01ba 8B54     	 strb r3,[r1,r2]
1031:C:/Workspace/DAVE-4.4.2-64Bit/optiga-trust-m/optiga/cmd\optiga_cmd.c **** #endif //OPTIGA_COMMS_SHIELDED_CONNECTION
1032:C:/Workspace/DAVE-4.4.2-64Bit/optiga-trust-m/optiga/cmd\optiga_cmd.c ****                 (void)optiga_comms_set_callback_context(p_optiga->p_optiga_comms, me);
 635              	 .loc 1 1032 0
 636 01bc 3868     	 ldr r0,[r7]
 637 01be 211C     	 mov r1,r4
 638 01c0 FFF7FEFF 	 bl optiga_comms_set_callback_context
 639              	.LVL49:
1033:C:/Workspace/DAVE-4.4.2-64Bit/optiga-trust-m/optiga/cmd\optiga_cmd.c ****                 me->exit_status = optiga_comms_transceive(p_optiga->p_optiga_comms,
 640              	 .loc 1 1033 0
 641 01c4 BB1D     	 add r3,r7,#6
 642 01c6 BA88     	 ldrh r2,[r7,#4]
 643 01c8 0093     	 str r3,[sp]
 644 01ca 0733     	 add r3,r3,#7
 645 01cc 3868     	 ldr r0,[r7]
 646 01ce 191C     	 mov r1,r3
 647 01d0 FFF7FEFF 	 bl optiga_comms_transceive
 648              	.LVL50:
 649 01d4 E083     	 strh r0,[r4,#30]
1034:C:/Workspace/DAVE-4.4.2-64Bit/optiga-trust-m/optiga/cmd\optiga_cmd.c ****                                                           p_optiga->optiga_comms_buffer,
1035:C:/Workspace/DAVE-4.4.2-64Bit/optiga-trust-m/optiga/cmd\optiga_cmd.c ****                                                           p_optiga->comms_tx_size,
1036:C:/Workspace/DAVE-4.4.2-64Bit/optiga-trust-m/optiga/cmd\optiga_cmd.c ****                                                           p_optiga->optiga_comms_buffer,
1037:C:/Workspace/DAVE-4.4.2-64Bit/optiga-trust-m/optiga/cmd\optiga_cmd.c ****                                                           &p_optiga->comms_rx_size);
1038:C:/Workspace/DAVE-4.4.2-64Bit/optiga-trust-m/optiga/cmd\optiga_cmd.c **** 
1039:C:/Workspace/DAVE-4.4.2-64Bit/optiga-trust-m/optiga/cmd\optiga_cmd.c ****                 if (OPTIGA_LIB_SUCCESS != me->exit_status)
 650              	 .loc 1 1039 0
 651 01d6 0028     	 cmp r0,#0
 652 01d8 00D0     	 beq .LCB604
 653 01da 70E7     	 b .L39
 654              	.LCB604:
1040:C:/Workspace/DAVE-4.4.2-64Bit/optiga-trust-m/optiga/cmd\optiga_cmd.c ****                 {
1041:C:/Workspace/DAVE-4.4.2-64Bit/optiga-trust-m/optiga/cmd\optiga_cmd.c ****                     EXIT_STATE_WITH_ERROR(me,exit_loop);
1042:C:/Workspace/DAVE-4.4.2-64Bit/optiga-trust-m/optiga/cmd\optiga_cmd.c ****                     break;
1043:C:/Workspace/DAVE-4.4.2-64Bit/optiga-trust-m/optiga/cmd\optiga_cmd.c ****                 }
1044:C:/Workspace/DAVE-4.4.2-64Bit/optiga-trust-m/optiga/cmd\optiga_cmd.c **** 
1045:C:/Workspace/DAVE-4.4.2-64Bit/optiga-trust-m/optiga/cmd\optiga_cmd.c ****                 me->cmd_next_execution_state = OPTIGA_CMD_EXEC_PROCESS_RESPONSE;
 655              	 .loc 1 1045 0
 656 01dc 0923     	 mov r3,#9
1046:C:/Workspace/DAVE-4.4.2-64Bit/optiga-trust-m/optiga/cmd\optiga_cmd.c ****                 SET_DEV_ERROR_NOTIFICATION(OPTIGA_CMD_ENTER_HANDLER_CALL);
 657              	 .loc 1 1046 0
 658 01de 227F     	 ldrb r2,[r4,#28]
1045:C:/Workspace/DAVE-4.4.2-64Bit/optiga-trust-m/optiga/cmd\optiga_cmd.c ****                 SET_DEV_ERROR_NOTIFICATION(OPTIGA_CMD_ENTER_HANDLER_CALL);
 659              	 .loc 1 1045 0
 660 01e0 A375     	 strb r3,[r4,#22]
 661              	 .loc 1 1046 0
 662 01e2 893B     	 sub r3,r3,#137
 663 01e4 1343     	 orr r3,r2
 664 01e6 2377     	 strb r3,[r4,#28]
1047:C:/Workspace/DAVE-4.4.2-64Bit/optiga-trust-m/optiga/cmd\optiga_cmd.c ****                 break;
 665              	 .loc 1 1047 0
 666 01e8 BEE0     	 b .L14
 667              	.LVL51:
 668              	.L30:
1048:C:/Workspace/DAVE-4.4.2-64Bit/optiga-trust-m/optiga/cmd\optiga_cmd.c ****             }
1049:C:/Workspace/DAVE-4.4.2-64Bit/optiga-trust-m/optiga/cmd\optiga_cmd.c ****             case OPTIGA_CMD_EXEC_PROCESS_RESPONSE:
1050:C:/Workspace/DAVE-4.4.2-64Bit/optiga-trust-m/optiga/cmd\optiga_cmd.c ****             {
1051:C:/Workspace/DAVE-4.4.2-64Bit/optiga-trust-m/optiga/cmd\optiga_cmd.c ****                 if (OPTIGA_CMD_ZERO_LENGTH_OR_VALUE != (me->device_error_status & OPTIGA_CMD_ENTER_
 669              	 .loc 1 1051 0
 670 01ea 237F     	 ldrb r3,[r4,#28]
 671 01ec 7F2B     	 cmp r3,#127
 672 01ee D2D9     	 bls .L45
1052:C:/Workspace/DAVE-4.4.2-64Bit/optiga-trust-m/optiga/cmd\optiga_cmd.c ****                 {
1053:C:/Workspace/DAVE-4.4.2-64Bit/optiga-trust-m/optiga/cmd\optiga_cmd.c ****                     me->exit_status = optiga_cmd_handler(me);
 673              	 .loc 1 1053 0
 674 01f0 201C     	 mov r0,r4
 675 01f2 039B     	 ldr r3,[sp,#12]
 676 01f4 9847     	 blx r3
 677              	.LVL52:
 678 01f6 E083     	 strh r0,[r4,#30]
1054:C:/Workspace/DAVE-4.4.2-64Bit/optiga-trust-m/optiga/cmd\optiga_cmd.c ****                 }
1055:C:/Workspace/DAVE-4.4.2-64Bit/optiga-trust-m/optiga/cmd\optiga_cmd.c ****                 else
1056:C:/Workspace/DAVE-4.4.2-64Bit/optiga-trust-m/optiga/cmd\optiga_cmd.c ****                 {
1057:C:/Workspace/DAVE-4.4.2-64Bit/optiga-trust-m/optiga/cmd\optiga_cmd.c ****                     me->cmd_next_execution_state = OPTIGA_CMD_EXEC_RELEASE_LOCK;
1058:C:/Workspace/DAVE-4.4.2-64Bit/optiga-trust-m/optiga/cmd\optiga_cmd.c ****                     exit_loop = FALSE;
1059:C:/Workspace/DAVE-4.4.2-64Bit/optiga-trust-m/optiga/cmd\optiga_cmd.c ****                     break;
1060:C:/Workspace/DAVE-4.4.2-64Bit/optiga-trust-m/optiga/cmd\optiga_cmd.c ****                 }
1061:C:/Workspace/DAVE-4.4.2-64Bit/optiga-trust-m/optiga/cmd\optiga_cmd.c ****                 if (OPTIGA_LIB_SUCCESS == me->exit_status)
 679              	 .loc 1 1061 0
 680 01f8 0028     	 cmp r0,#0
 681 01fa 21D1     	 bne .L46
1062:C:/Workspace/DAVE-4.4.2-64Bit/optiga-trust-m/optiga/cmd\optiga_cmd.c ****                 {
1063:C:/Workspace/DAVE-4.4.2-64Bit/optiga-trust-m/optiga/cmd\optiga_cmd.c ****                     if (FALSE == me->chaining_ongoing)
 682              	 .loc 1 1063 0
 683 01fc E07D     	 ldrb r0,[r4,#23]
 684 01fe 0028     	 cmp r0,#0
 685 0200 03D1     	 bne .L47
1064:C:/Workspace/DAVE-4.4.2-64Bit/optiga-trust-m/optiga/cmd\optiga_cmd.c ****                     {
1065:C:/Workspace/DAVE-4.4.2-64Bit/optiga-trust-m/optiga/cmd\optiga_cmd.c ****                         if (OPTIGA_CMD_STATE_EXIT != me->cmd_next_execution_state)
 686              	 .loc 1 1065 0
 687 0202 A37D     	 ldrb r3,[r4,#22]
 688 0204 0C2B     	 cmp r3,#12
 689 0206 C6D1     	 bne .L45
 690 0208 5DE7     	 b .L53
 691              	.L47:
 692 020a CF23     	 mov r3,#207
 693 020c 2268     	 ldr r2,[r4]
 694 020e DB00     	 lsl r3,r3,#3
 695 0210 5749     	 ldr r1,.L80+4
1066:C:/Workspace/DAVE-4.4.2-64Bit/optiga-trust-m/optiga/cmd\optiga_cmd.c ****                         {
1067:C:/Workspace/DAVE-4.4.2-64Bit/optiga-trust-m/optiga/cmd\optiga_cmd.c ****                             me->cmd_next_execution_state = OPTIGA_CMD_EXEC_RELEASE_LOCK;
1068:C:/Workspace/DAVE-4.4.2-64Bit/optiga-trust-m/optiga/cmd\optiga_cmd.c ****                         }
1069:C:/Workspace/DAVE-4.4.2-64Bit/optiga-trust-m/optiga/cmd\optiga_cmd.c ****                         exit_loop = FALSE;
1070:C:/Workspace/DAVE-4.4.2-64Bit/optiga-trust-m/optiga/cmd\optiga_cmd.c ****                         break;
1071:C:/Workspace/DAVE-4.4.2-64Bit/optiga-trust-m/optiga/cmd\optiga_cmd.c ****                     }
1072:C:/Workspace/DAVE-4.4.2-64Bit/optiga-trust-m/optiga/cmd\optiga_cmd.c ****                     // for chaining, trigger preparing of next command
1073:C:/Workspace/DAVE-4.4.2-64Bit/optiga-trust-m/optiga/cmd\optiga_cmd.c ****                     else if (TRUE == me->chaining_ongoing)
 696              	 .loc 1 1073 0
 697 0212 0128     	 cmp r0,#1
 698 0214 0BD1     	 bne .L48
1074:C:/Workspace/DAVE-4.4.2-64Bit/optiga-trust-m/optiga/cmd\optiga_cmd.c ****                     {
1075:C:/Workspace/DAVE-4.4.2-64Bit/optiga-trust-m/optiga/cmd\optiga_cmd.c ****                         pal_os_event_register_callback_oneshot(me->p_optiga->p_pal_os_event_ctx,
 699              	 .loc 1 1075 0
 700 0216 D058     	 ldr r0,[r2,r3]
 701 0218 FA23     	 mov r3,#250
 702 021a 221C     	 mov r2,r4
 703 021c 9B00     	 lsl r3,r3,#2
 704 021e FFF7FEFF 	 bl pal_os_event_register_callback_oneshot
 705              	.LVL53:
1076:C:/Workspace/DAVE-4.4.2-64Bit/optiga-trust-m/optiga/cmd\optiga_cmd.c ****                                                                (register_callback)optiga_cmd_event_
1077:C:/Workspace/DAVE-4.4.2-64Bit/optiga-trust-m/optiga/cmd\optiga_cmd.c ****                                                                (void*)me,
1078:C:/Workspace/DAVE-4.4.2-64Bit/optiga-trust-m/optiga/cmd\optiga_cmd.c ****                                                                OPTIGA_CMD_SCHEDULER_IDLING_TIME_MS)
1079:C:/Workspace/DAVE-4.4.2-64Bit/optiga-trust-m/optiga/cmd\optiga_cmd.c ****                         exit_loop = TRUE;
1080:C:/Workspace/DAVE-4.4.2-64Bit/optiga-trust-m/optiga/cmd\optiga_cmd.c **** 
1081:C:/Workspace/DAVE-4.4.2-64Bit/optiga-trust-m/optiga/cmd\optiga_cmd.c **** #ifdef OPTIGA_COMMS_SHIELDED_CONNECTION
1082:C:/Workspace/DAVE-4.4.2-64Bit/optiga-trust-m/optiga/cmd\optiga_cmd.c ****                         me->protection_level &= OPTIGA_PROTECTION_LEVEL_MASK;
 706              	 .loc 1 1082 0
 707 0222 0323     	 mov r3,#3
 708 0224 627E     	 ldrb r2,[r4,#25]
 709 0226 1340     	 and r3,r2
 710 0228 6376     	 strb r3,[r4,#25]
1083:C:/Workspace/DAVE-4.4.2-64Bit/optiga-trust-m/optiga/cmd\optiga_cmd.c **** #endif //OPTIGA_COMMS_SHIELDED_CONNECTION
1084:C:/Workspace/DAVE-4.4.2-64Bit/optiga-trust-m/optiga/cmd\optiga_cmd.c **** 
1085:C:/Workspace/DAVE-4.4.2-64Bit/optiga-trust-m/optiga/cmd\optiga_cmd.c ****                         me->cmd_next_execution_state = OPTIGA_CMD_EXEC_PREPARE_COMMAND;
 711              	 .loc 1 1085 0
 712 022a 0823     	 mov r3,#8
 713 022c 06E0     	 b .L79
 714              	.LVL54:
 715              	.L48:
1086:C:/Workspace/DAVE-4.4.2-64Bit/optiga-trust-m/optiga/cmd\optiga_cmd.c ****                     }
1087:C:/Workspace/DAVE-4.4.2-64Bit/optiga-trust-m/optiga/cmd\optiga_cmd.c ****                     // After successful Close Application, change state to invoke optiga_comms_clos
1088:C:/Workspace/DAVE-4.4.2-64Bit/optiga-trust-m/optiga/cmd\optiga_cmd.c ****                     else
1089:C:/Workspace/DAVE-4.4.2-64Bit/optiga-trust-m/optiga/cmd\optiga_cmd.c ****                     {
1090:C:/Workspace/DAVE-4.4.2-64Bit/optiga-trust-m/optiga/cmd\optiga_cmd.c ****                         pal_os_event_register_callback_oneshot(me->p_optiga->p_pal_os_event_ctx,
 716              	 .loc 1 1090 0
 717 022e D058     	 ldr r0,[r2,r3]
 718 0230 FA23     	 mov r3,#250
 719 0232 221C     	 mov r2,r4
 720 0234 9B00     	 lsl r3,r3,#2
 721 0236 FFF7FEFF 	 bl pal_os_event_register_callback_oneshot
 722              	.LVL55:
1091:C:/Workspace/DAVE-4.4.2-64Bit/optiga-trust-m/optiga/cmd\optiga_cmd.c ****                                                                (register_callback)optiga_cmd_event_
1092:C:/Workspace/DAVE-4.4.2-64Bit/optiga-trust-m/optiga/cmd\optiga_cmd.c ****                                                                me,
1093:C:/Workspace/DAVE-4.4.2-64Bit/optiga-trust-m/optiga/cmd\optiga_cmd.c ****                                                                OPTIGA_CMD_SCHEDULER_IDLING_TIME_MS)
1094:C:/Workspace/DAVE-4.4.2-64Bit/optiga-trust-m/optiga/cmd\optiga_cmd.c ****                         exit_loop=TRUE;
1095:C:/Workspace/DAVE-4.4.2-64Bit/optiga-trust-m/optiga/cmd\optiga_cmd.c ****                         me->cmd_next_execution_state = OPTIGA_CMD_EXEC_COMMS_CLOSE_START;
 723              	 .loc 1 1095 0
 724 023a 0323     	 mov r3,#3
 725              	.L79:
 726 023c A375     	 strb r3,[r4,#22]
 727 023e 93E0     	 b .L14
 728              	.LVL56:
 729              	.L46:
1096:C:/Workspace/DAVE-4.4.2-64Bit/optiga-trust-m/optiga/cmd\optiga_cmd.c ****                     }
1097:C:/Workspace/DAVE-4.4.2-64Bit/optiga-trust-m/optiga/cmd\optiga_cmd.c ****                 }
1098:C:/Workspace/DAVE-4.4.2-64Bit/optiga-trust-m/optiga/cmd\optiga_cmd.c ****                 else
1099:C:/Workspace/DAVE-4.4.2-64Bit/optiga-trust-m/optiga/cmd\optiga_cmd.c ****                 {
1100:C:/Workspace/DAVE-4.4.2-64Bit/optiga-trust-m/optiga/cmd\optiga_cmd.c ****                     // After OPTIGA error is analyzed, invoke upper layer handler and release lock
1101:C:/Workspace/DAVE-4.4.2-64Bit/optiga-trust-m/optiga/cmd\optiga_cmd.c ****                     if (OPTIGA_CMD_ERROR_MEMORY_INSUFFICIENT == me->exit_status)
 730              	 .loc 1 1101 0
 731 0240 8123     	 mov r3,#129
 732 0242 9B00     	 lsl r3,r3,#2
 733 0244 9842     	 cmp r0,r3
 734 0246 A6D0     	 beq .L45
1102:C:/Workspace/DAVE-4.4.2-64Bit/optiga-trust-m/optiga/cmd\optiga_cmd.c ****                     {
1103:C:/Workspace/DAVE-4.4.2-64Bit/optiga-trust-m/optiga/cmd\optiga_cmd.c ****                         me->cmd_next_execution_state = OPTIGA_CMD_EXEC_RELEASE_LOCK;
1104:C:/Workspace/DAVE-4.4.2-64Bit/optiga-trust-m/optiga/cmd\optiga_cmd.c ****                         exit_loop = FALSE;
1105:C:/Workspace/DAVE-4.4.2-64Bit/optiga-trust-m/optiga/cmd\optiga_cmd.c ****                         break;
1106:C:/Workspace/DAVE-4.4.2-64Bit/optiga-trust-m/optiga/cmd\optiga_cmd.c ****                     }
1107:C:/Workspace/DAVE-4.4.2-64Bit/optiga-trust-m/optiga/cmd\optiga_cmd.c ****                     // After OPTIGA responds with failure, invoke the next state to check which err
1108:C:/Workspace/DAVE-4.4.2-64Bit/optiga-trust-m/optiga/cmd\optiga_cmd.c ****                     else
1109:C:/Workspace/DAVE-4.4.2-64Bit/optiga-trust-m/optiga/cmd\optiga_cmd.c ****                     {
1110:C:/Workspace/DAVE-4.4.2-64Bit/optiga-trust-m/optiga/cmd\optiga_cmd.c ****                         me->cmd_next_execution_state = OPTIGA_CMD_EXEC_GET_DEVICE_ERROR;
1111:C:/Workspace/DAVE-4.4.2-64Bit/optiga-trust-m/optiga/cmd\optiga_cmd.c ****                         SET_DEV_ERROR_HANDLER_STATE(OPTIGA_CMD_ERROR_CODE_PREPARE);
 735              	 .loc 1 1111 0
 736 0248 0322     	 mov r2,#3
1110:C:/Workspace/DAVE-4.4.2-64Bit/optiga-trust-m/optiga/cmd\optiga_cmd.c ****                         SET_DEV_ERROR_HANDLER_STATE(OPTIGA_CMD_ERROR_CODE_PREPARE);
 737              	 .loc 1 1110 0
 738 024a FB3B     	 sub r3,r3,#251
 739 024c FF3B     	 sub r3,r3,#255
 740 024e A375     	 strb r3,[r4,#22]
 741              	 .loc 1 1111 0
 742 0250 237F     	 ldrb r3,[r4,#28]
 743 0252 9343     	 bic r3,r2
 744 0254 023A     	 sub r2,r2,#2
 745 0256 1343     	 orr r3,r2
 746 0258 2377     	 strb r3,[r4,#28]
 747              	.LVL57:
 748 025a 34E7     	 b .L53
 749              	.LVL58:
 750              	.L31:
 751              	.LBB110:
 752              	.LBB111:
1112:C:/Workspace/DAVE-4.4.2-64Bit/optiga-trust-m/optiga/cmd\optiga_cmd.c ****                         exit_loop=FALSE;
1113:C:/Workspace/DAVE-4.4.2-64Bit/optiga-trust-m/optiga/cmd\optiga_cmd.c ****                     }
1114:C:/Workspace/DAVE-4.4.2-64Bit/optiga-trust-m/optiga/cmd\optiga_cmd.c ****                 }
1115:C:/Workspace/DAVE-4.4.2-64Bit/optiga-trust-m/optiga/cmd\optiga_cmd.c ****                 break;
1116:C:/Workspace/DAVE-4.4.2-64Bit/optiga-trust-m/optiga/cmd\optiga_cmd.c ****             }
1117:C:/Workspace/DAVE-4.4.2-64Bit/optiga-trust-m/optiga/cmd\optiga_cmd.c ****             case OPTIGA_CMD_EXEC_GET_DEVICE_ERROR:
1118:C:/Workspace/DAVE-4.4.2-64Bit/optiga-trust-m/optiga/cmd\optiga_cmd.c ****             {
1119:C:/Workspace/DAVE-4.4.2-64Bit/optiga-trust-m/optiga/cmd\optiga_cmd.c ****                 exit_loop=TRUE;
1120:C:/Workspace/DAVE-4.4.2-64Bit/optiga-trust-m/optiga/cmd\optiga_cmd.c ****                 me->exit_status = optiga_cmd_get_error_code_handler(me);
1121:C:/Workspace/DAVE-4.4.2-64Bit/optiga-trust-m/optiga/cmd\optiga_cmd.c ****                 if (((OPTIGA_LIB_SUCCESS != me->exit_status) && !(OPTIGA_DEVICE_ERROR & me->exit_st
1122:C:/Workspace/DAVE-4.4.2-64Bit/optiga-trust-m/optiga/cmd\optiga_cmd.c ****                     ((OPTIGA_DEVICE_ERROR == me->exit_status) &&
1123:C:/Workspace/DAVE-4.4.2-64Bit/optiga-trust-m/optiga/cmd\optiga_cmd.c ****                     ((me->device_error_status & OPTIGA_CMD_ERROR_CODE_STATE_MASK) == OPTIGA_CMD_ERR
1124:C:/Workspace/DAVE-4.4.2-64Bit/optiga-trust-m/optiga/cmd\optiga_cmd.c ****                 {
1125:C:/Workspace/DAVE-4.4.2-64Bit/optiga-trust-m/optiga/cmd\optiga_cmd.c ****                     exit_loop=FALSE;
1126:C:/Workspace/DAVE-4.4.2-64Bit/optiga-trust-m/optiga/cmd\optiga_cmd.c ****                     me->cmd_next_execution_state = OPTIGA_CMD_EXEC_RELEASE_LOCK;
1127:C:/Workspace/DAVE-4.4.2-64Bit/optiga-trust-m/optiga/cmd\optiga_cmd.c ****                 }
1128:C:/Workspace/DAVE-4.4.2-64Bit/optiga-trust-m/optiga/cmd\optiga_cmd.c ****                 break;
1129:C:/Workspace/DAVE-4.4.2-64Bit/optiga-trust-m/optiga/cmd\optiga_cmd.c ****             }
1130:C:/Workspace/DAVE-4.4.2-64Bit/optiga-trust-m/optiga/cmd\optiga_cmd.c ****             case OPTIGA_CMD_EXEC_RELEASE_LOCK:
1131:C:/Workspace/DAVE-4.4.2-64Bit/optiga-trust-m/optiga/cmd\optiga_cmd.c ****             {
1132:C:/Workspace/DAVE-4.4.2-64Bit/optiga-trust-m/optiga/cmd\optiga_cmd.c ****                 //lint --e{534} suppress "The return code is not checked because this is exit state
1133:C:/Workspace/DAVE-4.4.2-64Bit/optiga-trust-m/optiga/cmd\optiga_cmd.c ****                 optiga_cmd_release_lock(me);
1134:C:/Workspace/DAVE-4.4.2-64Bit/optiga-trust-m/optiga/cmd\optiga_cmd.c ****                 me->cmd_next_execution_state = OPTIGA_CMD_STATE_EXIT;
1135:C:/Workspace/DAVE-4.4.2-64Bit/optiga-trust-m/optiga/cmd\optiga_cmd.c ****                 exit_loop=FALSE;
1136:C:/Workspace/DAVE-4.4.2-64Bit/optiga-trust-m/optiga/cmd\optiga_cmd.c ****                 break;
1137:C:/Workspace/DAVE-4.4.2-64Bit/optiga-trust-m/optiga/cmd\optiga_cmd.c ****             }
1138:C:/Workspace/DAVE-4.4.2-64Bit/optiga-trust-m/optiga/cmd\optiga_cmd.c ****             case OPTIGA_CMD_STATE_EXIT:
1139:C:/Workspace/DAVE-4.4.2-64Bit/optiga-trust-m/optiga/cmd\optiga_cmd.c ****             {
1140:C:/Workspace/DAVE-4.4.2-64Bit/optiga-trust-m/optiga/cmd\optiga_cmd.c ****                 me->handler(me->caller_context, me->exit_status);
1141:C:/Workspace/DAVE-4.4.2-64Bit/optiga-trust-m/optiga/cmd\optiga_cmd.c ****                 exit_loop=TRUE;
1142:C:/Workspace/DAVE-4.4.2-64Bit/optiga-trust-m/optiga/cmd\optiga_cmd.c ****                 break;
1143:C:/Workspace/DAVE-4.4.2-64Bit/optiga-trust-m/optiga/cmd\optiga_cmd.c ****             }
1144:C:/Workspace/DAVE-4.4.2-64Bit/optiga-trust-m/optiga/cmd\optiga_cmd.c ****         }
1145:C:/Workspace/DAVE-4.4.2-64Bit/optiga-trust-m/optiga/cmd\optiga_cmd.c ****     } while (FALSE == exit_loop);
1146:C:/Workspace/DAVE-4.4.2-64Bit/optiga-trust-m/optiga/cmd\optiga_cmd.c **** }
1147:C:/Workspace/DAVE-4.4.2-64Bit/optiga-trust-m/optiga/cmd\optiga_cmd.c **** 
1148:C:/Workspace/DAVE-4.4.2-64Bit/optiga-trust-m/optiga/cmd\optiga_cmd.c **** optiga_cmd_t * optiga_cmd_create(uint8_t optiga_instance_id, callback_handler_t handler, void * cal
1149:C:/Workspace/DAVE-4.4.2-64Bit/optiga-trust-m/optiga/cmd\optiga_cmd.c **** {
1150:C:/Workspace/DAVE-4.4.2-64Bit/optiga-trust-m/optiga/cmd\optiga_cmd.c ****     optiga_cmd_t * me = NULL;
1151:C:/Workspace/DAVE-4.4.2-64Bit/optiga-trust-m/optiga/cmd\optiga_cmd.c **** 
1152:C:/Workspace/DAVE-4.4.2-64Bit/optiga-trust-m/optiga/cmd\optiga_cmd.c ****     pal_os_lock_enter_critical_section();
1153:C:/Workspace/DAVE-4.4.2-64Bit/optiga-trust-m/optiga/cmd\optiga_cmd.c ****     do
1154:C:/Workspace/DAVE-4.4.2-64Bit/optiga-trust-m/optiga/cmd\optiga_cmd.c ****     {
1155:C:/Workspace/DAVE-4.4.2-64Bit/optiga-trust-m/optiga/cmd\optiga_cmd.c ****         // Get number of free slots
1156:C:/Workspace/DAVE-4.4.2-64Bit/optiga-trust-m/optiga/cmd\optiga_cmd.c ****         if (0 == optiga_cmd_queue_get_count_of(g_optiga_list[optiga_instance_id],
1157:C:/Workspace/DAVE-4.4.2-64Bit/optiga-trust-m/optiga/cmd\optiga_cmd.c ****                                                OPTIGA_CMD_QUEUE_SLOT_STATE,
1158:C:/Workspace/DAVE-4.4.2-64Bit/optiga-trust-m/optiga/cmd\optiga_cmd.c ****                                                OPTIGA_CMD_QUEUE_NOT_ASSIGNED))
1159:C:/Workspace/DAVE-4.4.2-64Bit/optiga-trust-m/optiga/cmd\optiga_cmd.c ****         {
1160:C:/Workspace/DAVE-4.4.2-64Bit/optiga-trust-m/optiga/cmd\optiga_cmd.c ****             break;
1161:C:/Workspace/DAVE-4.4.2-64Bit/optiga-trust-m/optiga/cmd\optiga_cmd.c ****         }
1162:C:/Workspace/DAVE-4.4.2-64Bit/optiga-trust-m/optiga/cmd\optiga_cmd.c **** 
1163:C:/Workspace/DAVE-4.4.2-64Bit/optiga-trust-m/optiga/cmd\optiga_cmd.c ****         me = (optiga_cmd_t *)pal_os_calloc(1, sizeof(optiga_cmd_t));
1164:C:/Workspace/DAVE-4.4.2-64Bit/optiga-trust-m/optiga/cmd\optiga_cmd.c ****         if (NULL == me)
1165:C:/Workspace/DAVE-4.4.2-64Bit/optiga-trust-m/optiga/cmd\optiga_cmd.c ****         {
1166:C:/Workspace/DAVE-4.4.2-64Bit/optiga-trust-m/optiga/cmd\optiga_cmd.c ****             break;
1167:C:/Workspace/DAVE-4.4.2-64Bit/optiga-trust-m/optiga/cmd\optiga_cmd.c ****         }
1168:C:/Workspace/DAVE-4.4.2-64Bit/optiga-trust-m/optiga/cmd\optiga_cmd.c **** 
1169:C:/Workspace/DAVE-4.4.2-64Bit/optiga-trust-m/optiga/cmd\optiga_cmd.c ****         me->handler = handler;
1170:C:/Workspace/DAVE-4.4.2-64Bit/optiga-trust-m/optiga/cmd\optiga_cmd.c ****         me->caller_context = caller_context;
1171:C:/Workspace/DAVE-4.4.2-64Bit/optiga-trust-m/optiga/cmd\optiga_cmd.c **** 
1172:C:/Workspace/DAVE-4.4.2-64Bit/optiga-trust-m/optiga/cmd\optiga_cmd.c ****         me->p_optiga = g_optiga_list[optiga_instance_id];
1173:C:/Workspace/DAVE-4.4.2-64Bit/optiga-trust-m/optiga/cmd\optiga_cmd.c ****         me->optiga_context_datastore_id = g_hibernate_datastore_id_list[optiga_instance_id];
1174:C:/Workspace/DAVE-4.4.2-64Bit/optiga-trust-m/optiga/cmd\optiga_cmd.c **** 
1175:C:/Workspace/DAVE-4.4.2-64Bit/optiga-trust-m/optiga/cmd\optiga_cmd.c ****         if (FALSE == me->p_optiga->instance_init_state)
1176:C:/Workspace/DAVE-4.4.2-64Bit/optiga-trust-m/optiga/cmd\optiga_cmd.c ****         {
1177:C:/Workspace/DAVE-4.4.2-64Bit/optiga-trust-m/optiga/cmd\optiga_cmd.c ****             me->p_optiga->instance_init_state = TRUE;
1178:C:/Workspace/DAVE-4.4.2-64Bit/optiga-trust-m/optiga/cmd\optiga_cmd.c ****             //create pal os event
1179:C:/Workspace/DAVE-4.4.2-64Bit/optiga-trust-m/optiga/cmd\optiga_cmd.c ****             me->p_optiga->p_pal_os_event_ctx = pal_os_event_create(optiga_cmd_queue_scheduler, me->
1180:C:/Workspace/DAVE-4.4.2-64Bit/optiga-trust-m/optiga/cmd\optiga_cmd.c ****             me->p_optiga->p_optiga_comms = optiga_comms_create(optiga_cmd_execute_handler, me);
1181:C:/Workspace/DAVE-4.4.2-64Bit/optiga-trust-m/optiga/cmd\optiga_cmd.c ****             me->p_optiga->p_optiga_comms->p_pal_os_event_ctx = me->p_optiga->p_pal_os_event_ctx;
1182:C:/Workspace/DAVE-4.4.2-64Bit/optiga-trust-m/optiga/cmd\optiga_cmd.c ****         }
1183:C:/Workspace/DAVE-4.4.2-64Bit/optiga-trust-m/optiga/cmd\optiga_cmd.c ****         // attach optiga cmd queue entry
1184:C:/Workspace/DAVE-4.4.2-64Bit/optiga-trust-m/optiga/cmd\optiga_cmd.c ****         optiga_cmd_queue_assign_slot(me, &(me->queue_id));
1185:C:/Workspace/DAVE-4.4.2-64Bit/optiga-trust-m/optiga/cmd\optiga_cmd.c ****     } while (FALSE);
1186:C:/Workspace/DAVE-4.4.2-64Bit/optiga-trust-m/optiga/cmd\optiga_cmd.c **** 
1187:C:/Workspace/DAVE-4.4.2-64Bit/optiga-trust-m/optiga/cmd\optiga_cmd.c ****     pal_os_lock_exit_critical_section();
1188:C:/Workspace/DAVE-4.4.2-64Bit/optiga-trust-m/optiga/cmd\optiga_cmd.c ****     return (me);
1189:C:/Workspace/DAVE-4.4.2-64Bit/optiga-trust-m/optiga/cmd\optiga_cmd.c **** }
1190:C:/Workspace/DAVE-4.4.2-64Bit/optiga-trust-m/optiga/cmd\optiga_cmd.c **** 
1191:C:/Workspace/DAVE-4.4.2-64Bit/optiga-trust-m/optiga/cmd\optiga_cmd.c **** optiga_lib_status_t optiga_cmd_destroy(optiga_cmd_t * me)
1192:C:/Workspace/DAVE-4.4.2-64Bit/optiga-trust-m/optiga/cmd\optiga_cmd.c **** {
1193:C:/Workspace/DAVE-4.4.2-64Bit/optiga-trust-m/optiga/cmd\optiga_cmd.c ****     optiga_lib_status_t return_status = OPTIGA_CMD_ERROR;
1194:C:/Workspace/DAVE-4.4.2-64Bit/optiga-trust-m/optiga/cmd\optiga_cmd.c ****     do
1195:C:/Workspace/DAVE-4.4.2-64Bit/optiga-trust-m/optiga/cmd\optiga_cmd.c ****     {
1196:C:/Workspace/DAVE-4.4.2-64Bit/optiga-trust-m/optiga/cmd\optiga_cmd.c ****         if (NULL != me)
1197:C:/Workspace/DAVE-4.4.2-64Bit/optiga-trust-m/optiga/cmd\optiga_cmd.c ****         {
1198:C:/Workspace/DAVE-4.4.2-64Bit/optiga-trust-m/optiga/cmd\optiga_cmd.c ****             return_status = optiga_cmd_release_session(me);
1199:C:/Workspace/DAVE-4.4.2-64Bit/optiga-trust-m/optiga/cmd\optiga_cmd.c ****             // attach optiga cmd queue entry
1200:C:/Workspace/DAVE-4.4.2-64Bit/optiga-trust-m/optiga/cmd\optiga_cmd.c ****             optiga_cmd_queue_deassign_slot(me);
1201:C:/Workspace/DAVE-4.4.2-64Bit/optiga-trust-m/optiga/cmd\optiga_cmd.c ****             pal_os_free(me);
1202:C:/Workspace/DAVE-4.4.2-64Bit/optiga-trust-m/optiga/cmd\optiga_cmd.c ****             return_status = OPTIGA_LIB_SUCCESS;
1203:C:/Workspace/DAVE-4.4.2-64Bit/optiga-trust-m/optiga/cmd\optiga_cmd.c ****         }
1204:C:/Workspace/DAVE-4.4.2-64Bit/optiga-trust-m/optiga/cmd\optiga_cmd.c ****     } while (FALSE);
1205:C:/Workspace/DAVE-4.4.2-64Bit/optiga-trust-m/optiga/cmd\optiga_cmd.c ****     return (return_status);
1206:C:/Workspace/DAVE-4.4.2-64Bit/optiga-trust-m/optiga/cmd\optiga_cmd.c **** }
1207:C:/Workspace/DAVE-4.4.2-64Bit/optiga-trust-m/optiga/cmd\optiga_cmd.c **** 
1208:C:/Workspace/DAVE-4.4.2-64Bit/optiga-trust-m/optiga/cmd\optiga_cmd.c **** 
1209:C:/Workspace/DAVE-4.4.2-64Bit/optiga-trust-m/optiga/cmd\optiga_cmd.c **** /*
1210:C:/Workspace/DAVE-4.4.2-64Bit/optiga-trust-m/optiga/cmd\optiga_cmd.c **** * Last error code handler
1211:C:/Workspace/DAVE-4.4.2-64Bit/optiga-trust-m/optiga/cmd\optiga_cmd.c **** */
1212:C:/Workspace/DAVE-4.4.2-64Bit/optiga-trust-m/optiga/cmd\optiga_cmd.c **** _STATIC_H optiga_lib_status_t optiga_cmd_get_error_code_handler(optiga_cmd_t * me)
1213:C:/Workspace/DAVE-4.4.2-64Bit/optiga-trust-m/optiga/cmd\optiga_cmd.c **** {
1214:C:/Workspace/DAVE-4.4.2-64Bit/optiga-trust-m/optiga/cmd\optiga_cmd.c ****     optiga_context_t * p_optiga;
1215:C:/Workspace/DAVE-4.4.2-64Bit/optiga-trust-m/optiga/cmd\optiga_cmd.c ****     optiga_lib_status_t return_status = OPTIGA_DEVICE_ERROR;
1216:C:/Workspace/DAVE-4.4.2-64Bit/optiga-trust-m/optiga/cmd\optiga_cmd.c ****     uint16_t index_for_data = OPTIGA_CMD_APDU_INDATA_OFFSET;
1217:C:/Workspace/DAVE-4.4.2-64Bit/optiga-trust-m/optiga/cmd\optiga_cmd.c **** 
1218:C:/Workspace/DAVE-4.4.2-64Bit/optiga-trust-m/optiga/cmd\optiga_cmd.c **** #define OFFSET                     (0x0000)
1219:C:/Workspace/DAVE-4.4.2-64Bit/optiga-trust-m/optiga/cmd\optiga_cmd.c **** #define BYTES_TO_READ              (0x0001)
1220:C:/Workspace/DAVE-4.4.2-64Bit/optiga-trust-m/optiga/cmd\optiga_cmd.c **** #define GET_DATA_OBJECT_CMD        (0x01)
1221:C:/Workspace/DAVE-4.4.2-64Bit/optiga-trust-m/optiga/cmd\optiga_cmd.c **** #define PARAM                      (0x00)
1222:C:/Workspace/DAVE-4.4.2-64Bit/optiga-trust-m/optiga/cmd\optiga_cmd.c **** 
1223:C:/Workspace/DAVE-4.4.2-64Bit/optiga-trust-m/optiga/cmd\optiga_cmd.c ****     p_optiga = me->p_optiga;
1224:C:/Workspace/DAVE-4.4.2-64Bit/optiga-trust-m/optiga/cmd\optiga_cmd.c **** 
1225:C:/Workspace/DAVE-4.4.2-64Bit/optiga-trust-m/optiga/cmd\optiga_cmd.c ****     switch (me->device_error_status & OPTIGA_CMD_ERROR_CODE_STATE_MASK)
 753              	 .loc 1 1225 0
 754 025c 0323     	 mov r3,#3
 755 025e 267F     	 ldrb r6,[r4,#28]
1223:C:/Workspace/DAVE-4.4.2-64Bit/optiga-trust-m/optiga/cmd\optiga_cmd.c **** 
 756              	 .loc 1 1223 0
 757 0260 2568     	 ldr r5,[r4]
 758              	.LVL59:
 759              	 .loc 1 1225 0
 760 0262 1E40     	 and r6,r3
 761 0264 022E     	 cmp r6,#2
 762 0266 2CD0     	 beq .L50
 763 0268 9E42     	 cmp r6,r3
 764 026a 48D0     	 beq .L51
 765 026c 012E     	 cmp r6,#1
 766 026e 5BD1     	 bne .L57
1226:C:/Workspace/DAVE-4.4.2-64Bit/optiga-trust-m/optiga/cmd\optiga_cmd.c ****     {
1227:C:/Workspace/DAVE-4.4.2-64Bit/optiga-trust-m/optiga/cmd\optiga_cmd.c ****         case OPTIGA_CMD_ERROR_CODE_PREPARE:
1228:C:/Workspace/DAVE-4.4.2-64Bit/optiga-trust-m/optiga/cmd\optiga_cmd.c ****         {
1229:C:/Workspace/DAVE-4.4.2-64Bit/optiga-trust-m/optiga/cmd\optiga_cmd.c ****             optiga_common_set_uint16((me->p_optiga->optiga_comms_buffer + index_for_data), OPTIGA_C
 767              	 .loc 1 1229 0
 768 0270 281C     	 mov r0,r5
 769 0272 4149     	 ldr r1,.L80+12
 770 0274 1630     	 add r0,r0,#22
 771 0276 FFF7FEFF 	 bl optiga_common_set_uint16
 772              	.LVL60:
1230:C:/Workspace/DAVE-4.4.2-64Bit/optiga-trust-m/optiga/cmd\optiga_cmd.c ****             index_for_data += OPTIGA_CMD_UINT16_SIZE_IN_BYTES;
1231:C:/Workspace/DAVE-4.4.2-64Bit/optiga-trust-m/optiga/cmd\optiga_cmd.c ****             optiga_common_set_uint16((me->p_optiga->optiga_comms_buffer + index_for_data), OFFSET);
 773              	 .loc 1 1231 0
 774 027a 2068     	 ldr r0,[r4]
 775 027c 0021     	 mov r1,#0
 776 027e 1830     	 add r0,r0,#24
 777 0280 FFF7FEFF 	 bl optiga_common_set_uint16
 778              	.LVL61:
1232:C:/Workspace/DAVE-4.4.2-64Bit/optiga-trust-m/optiga/cmd\optiga_cmd.c ****             index_for_data += OPTIGA_CMD_UINT16_SIZE_IN_BYTES;
1233:C:/Workspace/DAVE-4.4.2-64Bit/optiga-trust-m/optiga/cmd\optiga_cmd.c ****             optiga_common_set_uint16((me->p_optiga->optiga_comms_buffer + index_for_data), BYTES_TO
 779              	 .loc 1 1233 0
 780 0284 2068     	 ldr r0,[r4]
 781 0286 311C     	 mov r1,r6
 782 0288 1A30     	 add r0,r0,#26
 783 028a FFF7FEFF 	 bl optiga_common_set_uint16
 784              	.LVL62:
 785              	.LBB112:
 786              	.LBB113:
 422:C:/Workspace/DAVE-4.4.2-64Bit/optiga-trust-m/optiga/cmd\optiga_cmd.c ****     p_apdu_buffer [2] = (uint8_t)((in_data_length & 0xFF00) >> 8);
 787              	 .loc 1 422 0
 788 028e 0022     	 mov r2,#0
 789              	.LBE113:
 790              	.LBE112:
1234:C:/Workspace/DAVE-4.4.2-64Bit/optiga-trust-m/optiga/cmd\optiga_cmd.c ****             index_for_data += OPTIGA_CMD_UINT16_SIZE_IN_BYTES;
1235:C:/Workspace/DAVE-4.4.2-64Bit/optiga-trust-m/optiga/cmd\optiga_cmd.c **** 
1236:C:/Workspace/DAVE-4.4.2-64Bit/optiga-trust-m/optiga/cmd\optiga_cmd.c ****             optiga_cmd_prepare_apdu_header(GET_DATA_OBJECT_CMD,
1237:C:/Workspace/DAVE-4.4.2-64Bit/optiga-trust-m/optiga/cmd\optiga_cmd.c ****                                            PARAM,
1238:C:/Workspace/DAVE-4.4.2-64Bit/optiga-trust-m/optiga/cmd\optiga_cmd.c ****                                            (uint16_t)(index_for_data - OPTIGA_CMD_APDU_INDATA_OFFSE
1239:C:/Workspace/DAVE-4.4.2-64Bit/optiga-trust-m/optiga/cmd\optiga_cmd.c ****                                            me->p_optiga->optiga_comms_buffer + OPTIGA_COMMS_DATA_OF
 791              	 .loc 1 1239 0
 792 0290 2368     	 ldr r3,[r4]
 793              	.LVL63:
1240:C:/Workspace/DAVE-4.4.2-64Bit/optiga-trust-m/optiga/cmd\optiga_cmd.c **** 
1241:C:/Workspace/DAVE-4.4.2-64Bit/optiga-trust-m/optiga/cmd\optiga_cmd.c ****             me->p_optiga->comms_tx_size = (uint16_t)(index_for_data - OPTIGA_COMMS_DATA_OFFSET);
1242:C:/Workspace/DAVE-4.4.2-64Bit/optiga-trust-m/optiga/cmd\optiga_cmd.c ****             SET_DEV_ERROR_HANDLER_STATE(OPTIGA_CMD_ERROR_CODE_TX);
 794              	 .loc 1 1242 0
 795 0292 0321     	 mov r1,#3
 796              	.LBB115:
 797              	.LBB114:
 422:C:/Workspace/DAVE-4.4.2-64Bit/optiga-trust-m/optiga/cmd\optiga_cmd.c ****     p_apdu_buffer [2] = (uint8_t)((in_data_length & 0xFF00) >> 8);
 798              	 .loc 1 422 0
 799 0294 DA74     	 strb r2,[r3,#19]
 423:C:/Workspace/DAVE-4.4.2-64Bit/optiga-trust-m/optiga/cmd\optiga_cmd.c ****     p_apdu_buffer [3] = (uint8_t)(in_data_length & 0x00FF);
 800              	 .loc 1 423 0
 801 0296 1A75     	 strb r2,[r3,#20]
 424:C:/Workspace/DAVE-4.4.2-64Bit/optiga-trust-m/optiga/cmd\optiga_cmd.c **** }
 802              	 .loc 1 424 0
 803 0298 0632     	 add r2,r2,#6
 421:C:/Workspace/DAVE-4.4.2-64Bit/optiga-trust-m/optiga/cmd\optiga_cmd.c ****     p_apdu_buffer [1] = param;
 804              	 .loc 1 421 0
 805 029a 9E74     	 strb r6,[r3,#18]
 424:C:/Workspace/DAVE-4.4.2-64Bit/optiga-trust-m/optiga/cmd\optiga_cmd.c **** }
 806              	 .loc 1 424 0
 807 029c 5A75     	 strb r2,[r3,#21]
 808              	.LBE114:
 809              	.LBE115:
1241:C:/Workspace/DAVE-4.4.2-64Bit/optiga-trust-m/optiga/cmd\optiga_cmd.c ****             SET_DEV_ERROR_HANDLER_STATE(OPTIGA_CMD_ERROR_CODE_TX);
 810              	 .loc 1 1241 0
 811 029e 0A23     	 mov r3,#10
 812              	.LVL64:
 813 02a0 2268     	 ldr r2,[r4]
 814 02a2 9380     	 strh r3,[r2,#4]
 815              	 .loc 1 1242 0
 816 02a4 237F     	 ldrb r3,[r4,#28]
 817 02a6 8B43     	 bic r3,r1
 818 02a8 0139     	 sub r1,r1,#1
 819 02aa 0B43     	 orr r3,r1
 820 02ac 2377     	 strb r3,[r4,#28]
1243:C:/Workspace/DAVE-4.4.2-64Bit/optiga-trust-m/optiga/cmd\optiga_cmd.c ****             pal_os_event_register_callback_oneshot(me->p_optiga->p_pal_os_event_ctx,
 821              	 .loc 1 1243 0
 822 02ae CF23     	 mov r3,#207
 823 02b0 DB00     	 lsl r3,r3,#3
 824 02b2 D058     	 ldr r0,[r2,r3]
 825 02b4 FA23     	 mov r3,#250
 826 02b6 2E49     	 ldr r1,.L80+4
 827 02b8 221C     	 mov r2,r4
 828 02ba 9B00     	 lsl r3,r3,#2
 829 02bc FFF7FEFF 	 bl pal_os_event_register_callback_oneshot
 830              	.LVL65:
 831 02c0 32E0     	 b .L57
 832              	.LVL66:
 833              	.L50:
1244:C:/Workspace/DAVE-4.4.2-64Bit/optiga-trust-m/optiga/cmd\optiga_cmd.c ****                                                    (register_callback)optiga_cmd_event_trigger_exec
1245:C:/Workspace/DAVE-4.4.2-64Bit/optiga-trust-m/optiga/cmd\optiga_cmd.c ****                                                    me, OPTIGA_CMD_SCHEDULER_IDLING_TIME_MS);
1246:C:/Workspace/DAVE-4.4.2-64Bit/optiga-trust-m/optiga/cmd\optiga_cmd.c ****         }
1247:C:/Workspace/DAVE-4.4.2-64Bit/optiga-trust-m/optiga/cmd\optiga_cmd.c ****         break;
1248:C:/Workspace/DAVE-4.4.2-64Bit/optiga-trust-m/optiga/cmd\optiga_cmd.c ****         case OPTIGA_CMD_ERROR_CODE_TX:
1249:C:/Workspace/DAVE-4.4.2-64Bit/optiga-trust-m/optiga/cmd\optiga_cmd.c ****         {
1250:C:/Workspace/DAVE-4.4.2-64Bit/optiga-trust-m/optiga/cmd\optiga_cmd.c ****             me->p_optiga->comms_rx_size = OPTIGA_CMD_TOTAL_COMMS_BUFFER_SIZE;
 834              	 .loc 1 1250 0
 835 02c2 2C4B     	 ldr r3,.L80+8
1251:C:/Workspace/DAVE-4.4.2-64Bit/optiga-trust-m/optiga/cmd\optiga_cmd.c **** 
1252:C:/Workspace/DAVE-4.4.2-64Bit/optiga-trust-m/optiga/cmd\optiga_cmd.c **** #ifdef OPTIGA_COMMS_SHIELDED_CONNECTION
1253:C:/Workspace/DAVE-4.4.2-64Bit/optiga-trust-m/optiga/cmd\optiga_cmd.c ****             me->p_optiga->p_optiga_comms->protection_level = me->protection_level;
 836              	 .loc 1 1253 0
 837 02c4 2A68     	 ldr r2,[r5]
1250:C:/Workspace/DAVE-4.4.2-64Bit/optiga-trust-m/optiga/cmd\optiga_cmd.c **** 
 838              	 .loc 1 1250 0
 839 02c6 EB80     	 strh r3,[r5,#6]
 840              	 .loc 1 1253 0
 841 02c8 637E     	 ldrb r3,[r4,#25]
1254:C:/Workspace/DAVE-4.4.2-64Bit/optiga-trust-m/optiga/cmd\optiga_cmd.c ****             me->p_optiga->p_optiga_comms->protocol_version = me->protocol_version;
1255:C:/Workspace/DAVE-4.4.2-64Bit/optiga-trust-m/optiga/cmd\optiga_cmd.c **** #endif //OPTIGA_COMMS_SHIELDED_CONNECTION
1256:C:/Workspace/DAVE-4.4.2-64Bit/optiga-trust-m/optiga/cmd\optiga_cmd.c **** 
1257:C:/Workspace/DAVE-4.4.2-64Bit/optiga-trust-m/optiga/cmd\optiga_cmd.c ****             (void)optiga_comms_set_callback_context(p_optiga->p_optiga_comms, (void*)me);
 842              	 .loc 1 1257 0
 843 02ca 211C     	 mov r1,r4
1253:C:/Workspace/DAVE-4.4.2-64Bit/optiga-trust-m/optiga/cmd\optiga_cmd.c ****             me->p_optiga->p_optiga_comms->protocol_version = me->protocol_version;
 844              	 .loc 1 1253 0
 845 02cc 9373     	 strb r3,[r2,#14]
1254:C:/Workspace/DAVE-4.4.2-64Bit/optiga-trust-m/optiga/cmd\optiga_cmd.c ****             me->p_optiga->p_optiga_comms->protocol_version = me->protocol_version;
 846              	 .loc 1 1254 0
 847 02ce 2368     	 ldr r3,[r4]
 848 02d0 A27E     	 ldrb r2,[r4,#26]
 849 02d2 1B68     	 ldr r3,[r3]
 850 02d4 DA73     	 strb r2,[r3,#15]
 851              	 .loc 1 1257 0
 852 02d6 2868     	 ldr r0,[r5]
 853 02d8 FFF7FEFF 	 bl optiga_comms_set_callback_context
 854              	.LVL67:
1258:C:/Workspace/DAVE-4.4.2-64Bit/optiga-trust-m/optiga/cmd\optiga_cmd.c ****             return_status = optiga_comms_transceive(p_optiga->p_optiga_comms,
1259:C:/Workspace/DAVE-4.4.2-64Bit/optiga-trust-m/optiga/cmd\optiga_cmd.c ****                                                     p_optiga->optiga_comms_buffer,
1260:C:/Workspace/DAVE-4.4.2-64Bit/optiga-trust-m/optiga/cmd\optiga_cmd.c ****                                                     p_optiga->comms_tx_size,
1261:C:/Workspace/DAVE-4.4.2-64Bit/optiga-trust-m/optiga/cmd\optiga_cmd.c ****                                                     p_optiga->optiga_comms_buffer,
 855              	 .loc 1 1261 0
 856 02dc 2B1C     	 mov r3,r5
1258:C:/Workspace/DAVE-4.4.2-64Bit/optiga-trust-m/optiga/cmd\optiga_cmd.c ****             return_status = optiga_comms_transceive(p_optiga->p_optiga_comms,
 857              	 .loc 1 1258 0
 858 02de A91D     	 add r1,r5,#6
 859              	 .loc 1 1261 0
 860 02e0 0D33     	 add r3,r3,#13
1258:C:/Workspace/DAVE-4.4.2-64Bit/optiga-trust-m/optiga/cmd\optiga_cmd.c ****             return_status = optiga_comms_transceive(p_optiga->p_optiga_comms,
 861              	 .loc 1 1258 0
 862 02e2 AA88     	 ldrh r2,[r5,#4]
 863 02e4 0091     	 str r1,[sp]
 864 02e6 2868     	 ldr r0,[r5]
 865 02e8 191C     	 mov r1,r3
 866 02ea FFF7FEFF 	 bl optiga_comms_transceive
 867              	.LVL68:
 868 02ee 061E     	 sub r6,r0,#0
 869              	.LVL69:
1262:C:/Workspace/DAVE-4.4.2-64Bit/optiga-trust-m/optiga/cmd\optiga_cmd.c ****                                                     &p_optiga->comms_rx_size);
1263:C:/Workspace/DAVE-4.4.2-64Bit/optiga-trust-m/optiga/cmd\optiga_cmd.c ****             if (OPTIGA_COMMS_SUCCESS != return_status)
 870              	 .loc 1 1263 0
 871 02f0 18D1     	 bne .L56
1264:C:/Workspace/DAVE-4.4.2-64Bit/optiga-trust-m/optiga/cmd\optiga_cmd.c ****             {
1265:C:/Workspace/DAVE-4.4.2-64Bit/optiga-trust-m/optiga/cmd\optiga_cmd.c ****                 return_status = OPTIGA_CMD_ERROR;
1266:C:/Workspace/DAVE-4.4.2-64Bit/optiga-trust-m/optiga/cmd\optiga_cmd.c ****                 break;
1267:C:/Workspace/DAVE-4.4.2-64Bit/optiga-trust-m/optiga/cmd\optiga_cmd.c ****             }
1268:C:/Workspace/DAVE-4.4.2-64Bit/optiga-trust-m/optiga/cmd\optiga_cmd.c ****             SET_DEV_ERROR_HANDLER_STATE(OPTIGA_CMD_ERROR_CODE_RX);
 872              	 .loc 1 1268 0
 873 02f2 0322     	 mov r2,#3
 874 02f4 237F     	 ldrb r3,[r4,#28]
 875 02f6 9343     	 bic r3,r2
 876 02f8 1343     	 orr r3,r2
 877 02fa 2377     	 strb r3,[r4,#28]
 878 02fc 16E0     	 b .L49
 879              	.LVL70:
 880              	.L51:
1269:C:/Workspace/DAVE-4.4.2-64Bit/optiga-trust-m/optiga/cmd\optiga_cmd.c ****         }
1270:C:/Workspace/DAVE-4.4.2-64Bit/optiga-trust-m/optiga/cmd\optiga_cmd.c ****         break;
1271:C:/Workspace/DAVE-4.4.2-64Bit/optiga-trust-m/optiga/cmd\optiga_cmd.c ****         case OPTIGA_CMD_ERROR_CODE_RX:
1272:C:/Workspace/DAVE-4.4.2-64Bit/optiga-trust-m/optiga/cmd\optiga_cmd.c ****         {
1273:C:/Workspace/DAVE-4.4.2-64Bit/optiga-trust-m/optiga/cmd\optiga_cmd.c ****             if (OPTIGA_CMD_APDU_FAILURE == me->p_optiga->optiga_comms_buffer[OPTIGA_COMMS_DATA_OFFS
 881              	 .loc 1 1273 0
 882 02fe AB7C     	 ldrb r3,[r5,#18]
 883 0300 FF2B     	 cmp r3,#255
 884 0302 11D0     	 beq .L57
1274:C:/Workspace/DAVE-4.4.2-64Bit/optiga-trust-m/optiga/cmd\optiga_cmd.c ****             {
1275:C:/Workspace/DAVE-4.4.2-64Bit/optiga-trust-m/optiga/cmd\optiga_cmd.c ****                 break;
1276:C:/Workspace/DAVE-4.4.2-64Bit/optiga-trust-m/optiga/cmd\optiga_cmd.c ****             }
1277:C:/Workspace/DAVE-4.4.2-64Bit/optiga-trust-m/optiga/cmd\optiga_cmd.c ****             return_status = me->p_optiga->optiga_comms_buffer[OPTIGA_CMD_APDU_INDATA_OFFSET];
1278:C:/Workspace/DAVE-4.4.2-64Bit/optiga-trust-m/optiga/cmd\optiga_cmd.c ****             return_status = return_status | OPTIGA_DEVICE_ERROR;
 885              	 .loc 1 1278 0
 886 0304 8023     	 mov r3,#128
1277:C:/Workspace/DAVE-4.4.2-64Bit/optiga-trust-m/optiga/cmd\optiga_cmd.c ****             return_status = return_status | OPTIGA_DEVICE_ERROR;
 887              	 .loc 1 1277 0
 888 0306 AE7D     	 ldrb r6,[r5,#22]
 889              	.LVL71:
 890              	 .loc 1 1278 0
 891 0308 1B02     	 lsl r3,r3,#8
 892 030a 1E43     	 orr r6,r3
 893              	.LVL72:
1279:C:/Workspace/DAVE-4.4.2-64Bit/optiga-trust-m/optiga/cmd\optiga_cmd.c ****             me->cmd_next_execution_state = OPTIGA_CMD_EXEC_PROCESS_RESPONSE;
 894              	 .loc 1 1279 0
 895 030c 0923     	 mov r3,#9
 896 030e A375     	 strb r3,[r4,#22]
1280:C:/Workspace/DAVE-4.4.2-64Bit/optiga-trust-m/optiga/cmd\optiga_cmd.c ****             pal_os_event_register_callback_oneshot(me->p_optiga->p_pal_os_event_ctx,
 897              	 .loc 1 1280 0
 898 0310 CF23     	 mov r3,#207
 899 0312 DB00     	 lsl r3,r3,#3
 900 0314 E858     	 ldr r0,[r5,r3]
 901 0316 FA23     	 mov r3,#250
 902 0318 1549     	 ldr r1,.L80+4
 903 031a 221C     	 mov r2,r4
 904 031c 9B00     	 lsl r3,r3,#2
 905 031e FFF7FEFF 	 bl pal_os_event_register_callback_oneshot
 906              	.LVL73:
 907 0322 03E0     	 b .L49
 908              	.LVL74:
 909              	.L56:
1265:C:/Workspace/DAVE-4.4.2-64Bit/optiga-trust-m/optiga/cmd\optiga_cmd.c ****                 break;
 910              	 .loc 1 1265 0
 911 0324 114E     	 ldr r6,.L80
 912 0326 01E0     	 b .L49
 913              	.LVL75:
 914              	.L57:
1215:C:/Workspace/DAVE-4.4.2-64Bit/optiga-trust-m/optiga/cmd\optiga_cmd.c ****     uint16_t index_for_data = OPTIGA_CMD_APDU_INDATA_OFFSET;
 915              	 .loc 1 1215 0
 916 0328 8026     	 mov r6,#128
 917 032a 3602     	 lsl r6,r6,#8
 918              	.LVL76:
 919              	.L49:
 920              	.LBE111:
 921              	.LBE110:
1121:C:/Workspace/DAVE-4.4.2-64Bit/optiga-trust-m/optiga/cmd\optiga_cmd.c ****                     ((OPTIGA_DEVICE_ERROR == me->exit_status) &&
 922              	 .loc 1 1121 0
 923 032c 33B2     	 sxth r3,r6
1120:C:/Workspace/DAVE-4.4.2-64Bit/optiga-trust-m/optiga/cmd\optiga_cmd.c ****                 if (((OPTIGA_LIB_SUCCESS != me->exit_status) && !(OPTIGA_DEVICE_ERROR & me->exit_st
 924              	 .loc 1 1120 0
 925 032e E683     	 strh r6,[r4,#30]
1121:C:/Workspace/DAVE-4.4.2-64Bit/optiga-trust-m/optiga/cmd\optiga_cmd.c ****                     ((OPTIGA_DEVICE_ERROR == me->exit_status) &&
 926              	 .loc 1 1121 0
 927 0330 002B     	 cmp r3,#0
 928 0332 00DD     	 ble .LCB887
 929 0334 2FE7     	 b .L45
 930              	.LCB887:
1121:C:/Workspace/DAVE-4.4.2-64Bit/optiga-trust-m/optiga/cmd\optiga_cmd.c ****                     ((OPTIGA_DEVICE_ERROR == me->exit_status) &&
 931              	 .loc 1 1121 0 is_stmt 0 discriminator 1
 932 0336 8023     	 mov r3,#128
 933 0338 1B02     	 lsl r3,r3,#8
 934 033a 9E42     	 cmp r6,r3
 935 033c 14D1     	 bne .L14
 936              	.LVL77:
1122:C:/Workspace/DAVE-4.4.2-64Bit/optiga-trust-m/optiga/cmd\optiga_cmd.c ****                     ((me->device_error_status & OPTIGA_CMD_ERROR_CODE_STATE_MASK) == OPTIGA_CMD_ERR
 937              	 .loc 1 1122 0 is_stmt 1
 938 033e 0323     	 mov r3,#3
1123:C:/Workspace/DAVE-4.4.2-64Bit/optiga-trust-m/optiga/cmd\optiga_cmd.c ****                 {
 939              	 .loc 1 1123 0
 940 0340 227F     	 ldrb r2,[r4,#28]
1122:C:/Workspace/DAVE-4.4.2-64Bit/optiga-trust-m/optiga/cmd\optiga_cmd.c ****                     ((me->device_error_status & OPTIGA_CMD_ERROR_CODE_STATE_MASK) == OPTIGA_CMD_ERR
 941              	 .loc 1 1122 0
 942 0342 1340     	 and r3,r2
 943 0344 032B     	 cmp r3,#3
 944 0346 00D1     	 bne .LCB899
 945 0348 25E7     	 b .L45
 946              	.LCB899:
 947 034a 0DE0     	 b .L14
 948              	.LVL78:
 949              	.L32:
 950              	.LBB116:
 951              	.LBB117:
 782:C:/Workspace/DAVE-4.4.2-64Bit/optiga-trust-m/optiga/cmd\optiga_cmd.c ****     return (OPTIGA_CMD_SUCCESS);
 952              	 .loc 1 782 0
 953 034c 201C     	 mov r0,r4
 954 034e FFF7FEFF 	 bl optiga_cmd_queue_reset_slot
 955              	.LVL79:
 956              	.LBE117:
 957              	.LBE116:
1134:C:/Workspace/DAVE-4.4.2-64Bit/optiga-trust-m/optiga/cmd\optiga_cmd.c ****                 exit_loop=FALSE;
 958              	 .loc 1 1134 0
 959 0352 0C23     	 mov r3,#12
 960              	.LVL80:
 961              	.L74:
 962 0354 A375     	 strb r3,[r4,#22]
 963              	.LVL81:
1136:C:/Workspace/DAVE-4.4.2-64Bit/optiga-trust-m/optiga/cmd\optiga_cmd.c ****             }
 964              	 .loc 1 1136 0
 965 0356 B6E6     	 b .L53
 966              	.LVL82:
 967              	.L33:
1140:C:/Workspace/DAVE-4.4.2-64Bit/optiga-trust-m/optiga/cmd\optiga_cmd.c ****                 exit_loop=TRUE;
 968              	 .loc 1 1140 0
 969 0358 E18B     	 ldrh r1,[r4,#30]
 970 035a 2369     	 ldr r3,[r4,#16]
 971 035c E068     	 ldr r0,[r4,#12]
 972 035e 9847     	 blx r3
 973              	.LVL83:
1142:C:/Workspace/DAVE-4.4.2-64Bit/optiga-trust-m/optiga/cmd\optiga_cmd.c ****             }
 974              	 .loc 1 1142 0
 975 0360 02E0     	 b .L14
 976              	.LVL84:
 977              	.L20:
1145:C:/Workspace/DAVE-4.4.2-64Bit/optiga-trust-m/optiga/cmd\optiga_cmd.c **** }
 978              	 .loc 1 1145 0
 979 0362 002E     	 cmp r6,#0
 980 0364 00D1     	 bne .LCB949
 981 0366 AEE6     	 b .L53
 982              	.LCB949:
 983              	.LVL85:
 984              	.L14:
1146:C:/Workspace/DAVE-4.4.2-64Bit/optiga-trust-m/optiga/cmd\optiga_cmd.c **** 
 985              	 .loc 1 1146 0
 986 0368 05B0     	 add sp,sp,#20
 987              	 
 988              	.LVL86:
 989              	.LVL87:
 990 036a F0BD     	 pop {r4,r5,r6,r7,pc}
 991              	.L81:
 992              	 .align 2
 993              	.L80:
 994 036c 02020000 	 .word 514
 995 0370 00000000 	 .word optiga_cmd_event_trigger_execute
 996 0374 22060000 	 .word 1570
 997 0378 C2F10000 	 .word 61890
 998              	 .cfi_endproc
 999              	.LFE21:
 1001              	 .section .text.optiga_cmd_event_trigger_execute,"ax",%progbits
 1002              	 .align 1
 1003              	 .code 16
 1004              	 .thumb_func
 1006              	optiga_cmd_event_trigger_execute:
 1007              	.LFB3:
 444:C:/Workspace/DAVE-4.4.2-64Bit/optiga-trust-m/optiga/cmd\optiga_cmd.c ****     optiga_cmd_execute_handler(p_ctx, OPTIGA_LIB_SUCCESS);
 1008              	 .loc 1 444 0
 1009              	 .cfi_startproc
 1010              	.LVL88:
 1011 0000 08B5     	 push {r3,lr}
 1012              	.LCFI5:
 1013              	 .cfi_def_cfa_offset 8
 1014              	 .cfi_offset 3,-8
 1015              	 .cfi_offset 14,-4
 445:C:/Workspace/DAVE-4.4.2-64Bit/optiga-trust-m/optiga/cmd\optiga_cmd.c **** }
 1016              	 .loc 1 445 0
 1017 0002 0021     	 mov r1,#0
 1018 0004 FFF7FEFF 	 bl optiga_cmd_execute_handler
 1019              	.LVL89:
 446:C:/Workspace/DAVE-4.4.2-64Bit/optiga-trust-m/optiga/cmd\optiga_cmd.c **** 
 1020              	 .loc 1 446 0
 1021              	 
 1022 0008 08BD     	 pop {r3,pc}
 1023              	 .cfi_endproc
 1024              	.LFE3:
 1026              	 .section .text.optiga_cmd_get_data_object_handler,"ax",%progbits
 1027              	 .align 1
 1028              	 .code 16
 1029              	 .thumb_func
 1031              	optiga_cmd_get_data_object_handler:
 1032              	.LFB29:
1281:C:/Workspace/DAVE-4.4.2-64Bit/optiga-trust-m/optiga/cmd\optiga_cmd.c ****                                                    (register_callback)optiga_cmd_event_trigger_exec
1282:C:/Workspace/DAVE-4.4.2-64Bit/optiga-trust-m/optiga/cmd\optiga_cmd.c ****                                                    me, OPTIGA_CMD_SCHEDULER_IDLING_TIME_MS);
1283:C:/Workspace/DAVE-4.4.2-64Bit/optiga-trust-m/optiga/cmd\optiga_cmd.c ****         }
1284:C:/Workspace/DAVE-4.4.2-64Bit/optiga-trust-m/optiga/cmd\optiga_cmd.c ****         break;
1285:C:/Workspace/DAVE-4.4.2-64Bit/optiga-trust-m/optiga/cmd\optiga_cmd.c ****         default:
1286:C:/Workspace/DAVE-4.4.2-64Bit/optiga-trust-m/optiga/cmd\optiga_cmd.c ****             break;
1287:C:/Workspace/DAVE-4.4.2-64Bit/optiga-trust-m/optiga/cmd\optiga_cmd.c ****     }
1288:C:/Workspace/DAVE-4.4.2-64Bit/optiga-trust-m/optiga/cmd\optiga_cmd.c **** 
1289:C:/Workspace/DAVE-4.4.2-64Bit/optiga-trust-m/optiga/cmd\optiga_cmd.c **** #undef OFFSET
1290:C:/Workspace/DAVE-4.4.2-64Bit/optiga-trust-m/optiga/cmd\optiga_cmd.c **** #undef BYTES_TO_READ
1291:C:/Workspace/DAVE-4.4.2-64Bit/optiga-trust-m/optiga/cmd\optiga_cmd.c **** #undef GET_DATA_OBJECT_CMD
1292:C:/Workspace/DAVE-4.4.2-64Bit/optiga-trust-m/optiga/cmd\optiga_cmd.c **** #undef PARAM
1293:C:/Workspace/DAVE-4.4.2-64Bit/optiga-trust-m/optiga/cmd\optiga_cmd.c ****     return (return_status);
1294:C:/Workspace/DAVE-4.4.2-64Bit/optiga-trust-m/optiga/cmd\optiga_cmd.c **** }
1295:C:/Workspace/DAVE-4.4.2-64Bit/optiga-trust-m/optiga/cmd\optiga_cmd.c **** 
1296:C:/Workspace/DAVE-4.4.2-64Bit/optiga-trust-m/optiga/cmd\optiga_cmd.c **** /*
1297:C:/Workspace/DAVE-4.4.2-64Bit/optiga-trust-m/optiga/cmd\optiga_cmd.c **** * Open Application handler
1298:C:/Workspace/DAVE-4.4.2-64Bit/optiga-trust-m/optiga/cmd\optiga_cmd.c **** */
1299:C:/Workspace/DAVE-4.4.2-64Bit/optiga-trust-m/optiga/cmd\optiga_cmd.c **** _STATIC_H optiga_lib_status_t optiga_cmd_open_application_handler(optiga_cmd_t * me)
1300:C:/Workspace/DAVE-4.4.2-64Bit/optiga-trust-m/optiga/cmd\optiga_cmd.c **** {
1301:C:/Workspace/DAVE-4.4.2-64Bit/optiga-trust-m/optiga/cmd\optiga_cmd.c ****     uint16_t total_apdu_length;
1302:C:/Workspace/DAVE-4.4.2-64Bit/optiga-trust-m/optiga/cmd\optiga_cmd.c ****     optiga_lib_status_t return_status = OPTIGA_CMD_ERROR;
1303:C:/Workspace/DAVE-4.4.2-64Bit/optiga-trust-m/optiga/cmd\optiga_cmd.c **** 
1304:C:/Workspace/DAVE-4.4.2-64Bit/optiga-trust-m/optiga/cmd\optiga_cmd.c ****     switch ((uint8_t)me->cmd_next_execution_state)
1305:C:/Workspace/DAVE-4.4.2-64Bit/optiga-trust-m/optiga/cmd\optiga_cmd.c ****     {
1306:C:/Workspace/DAVE-4.4.2-64Bit/optiga-trust-m/optiga/cmd\optiga_cmd.c ****         case OPTIGA_CMD_EXEC_PREPARE_COMMAND:
1307:C:/Workspace/DAVE-4.4.2-64Bit/optiga-trust-m/optiga/cmd\optiga_cmd.c ****         {
1308:C:/Workspace/DAVE-4.4.2-64Bit/optiga-trust-m/optiga/cmd\optiga_cmd.c **** 
1309:C:/Workspace/DAVE-4.4.2-64Bit/optiga-trust-m/optiga/cmd\optiga_cmd.c ****             OPTIGA_CMD_LOG_MESSAGE("Sending open app command...");
1310:C:/Workspace/DAVE-4.4.2-64Bit/optiga-trust-m/optiga/cmd\optiga_cmd.c **** 
1311:C:/Workspace/DAVE-4.4.2-64Bit/optiga-trust-m/optiga/cmd\optiga_cmd.c ****             total_apdu_length = OPTIGA_CMD_APDU_HEADER_SIZE + sizeof(g_optiga_unique_application_id
1312:C:/Workspace/DAVE-4.4.2-64Bit/optiga-trust-m/optiga/cmd\optiga_cmd.c ****             total_apdu_length += ((OPTIGA_CMD_PARAM_INITIALIZE_APP_CONTEXT == me->cmd_param) ? (0) 
1313:C:/Workspace/DAVE-4.4.2-64Bit/optiga-trust-m/optiga/cmd\optiga_cmd.c ****                                     (sizeof(me->p_optiga->optiga_context_handle_buffer)));
1314:C:/Workspace/DAVE-4.4.2-64Bit/optiga-trust-m/optiga/cmd\optiga_cmd.c ****             //lint --e{774} suppress "If OPTIGA_MAX_COMMS_BUFFER_SIZE is set to lesser value it wil
1315:C:/Workspace/DAVE-4.4.2-64Bit/optiga-trust-m/optiga/cmd\optiga_cmd.c ****             if (OPTIGA_MAX_COMMS_BUFFER_SIZE < total_apdu_length)
1316:C:/Workspace/DAVE-4.4.2-64Bit/optiga-trust-m/optiga/cmd\optiga_cmd.c ****             {
1317:C:/Workspace/DAVE-4.4.2-64Bit/optiga-trust-m/optiga/cmd\optiga_cmd.c ****                 return_status = OPTIGA_CMD_ERROR_MEMORY_INSUFFICIENT;
1318:C:/Workspace/DAVE-4.4.2-64Bit/optiga-trust-m/optiga/cmd\optiga_cmd.c ****                 break;
1319:C:/Workspace/DAVE-4.4.2-64Bit/optiga-trust-m/optiga/cmd\optiga_cmd.c ****             }
1320:C:/Workspace/DAVE-4.4.2-64Bit/optiga-trust-m/optiga/cmd\optiga_cmd.c ****             if (OPTIGA_CMD_PARAM_INITIALIZE_APP_CONTEXT != me->cmd_param)
1321:C:/Workspace/DAVE-4.4.2-64Bit/optiga-trust-m/optiga/cmd\optiga_cmd.c ****             {
1322:C:/Workspace/DAVE-4.4.2-64Bit/optiga-trust-m/optiga/cmd\optiga_cmd.c ****                 ///optiga context restore operation
1323:C:/Workspace/DAVE-4.4.2-64Bit/optiga-trust-m/optiga/cmd\optiga_cmd.c ****                 if (OPTIGA_LIB_SUCCESS != optiga_cmd_restore_context(me))
1324:C:/Workspace/DAVE-4.4.2-64Bit/optiga-trust-m/optiga/cmd\optiga_cmd.c ****                 {
1325:C:/Workspace/DAVE-4.4.2-64Bit/optiga-trust-m/optiga/cmd\optiga_cmd.c ****                     break;
1326:C:/Workspace/DAVE-4.4.2-64Bit/optiga-trust-m/optiga/cmd\optiga_cmd.c ****                 }
1327:C:/Workspace/DAVE-4.4.2-64Bit/optiga-trust-m/optiga/cmd\optiga_cmd.c ****             }
1328:C:/Workspace/DAVE-4.4.2-64Bit/optiga-trust-m/optiga/cmd\optiga_cmd.c ****             optiga_cmd_prepare_apdu_header(OPTIGA_CMD_OPEN_APPLICATION,
1329:C:/Workspace/DAVE-4.4.2-64Bit/optiga-trust-m/optiga/cmd\optiga_cmd.c ****                                            me->cmd_param,
1330:C:/Workspace/DAVE-4.4.2-64Bit/optiga-trust-m/optiga/cmd\optiga_cmd.c ****                                            ((OPTIGA_CMD_PARAM_INITIALIZE_APP_CONTEXT == me->cmd_par
1331:C:/Workspace/DAVE-4.4.2-64Bit/optiga-trust-m/optiga/cmd\optiga_cmd.c ****                                            (sizeof(g_optiga_unique_application_identifier)) :
1332:C:/Workspace/DAVE-4.4.2-64Bit/optiga-trust-m/optiga/cmd\optiga_cmd.c ****                                            (sizeof(g_optiga_unique_application_identifier) +
1333:C:/Workspace/DAVE-4.4.2-64Bit/optiga-trust-m/optiga/cmd\optiga_cmd.c ****                                            sizeof(me->p_optiga->optiga_context_handle_buffer))),
1334:C:/Workspace/DAVE-4.4.2-64Bit/optiga-trust-m/optiga/cmd\optiga_cmd.c ****                                            me->p_optiga->optiga_comms_buffer + OPTIGA_COMMS_DATA_OF
1335:C:/Workspace/DAVE-4.4.2-64Bit/optiga-trust-m/optiga/cmd\optiga_cmd.c **** 
1336:C:/Workspace/DAVE-4.4.2-64Bit/optiga-trust-m/optiga/cmd\optiga_cmd.c ****             pal_os_memcpy(me->p_optiga->optiga_comms_buffer + OPTIGA_CMD_APDU_INDATA_OFFSET,
1337:C:/Workspace/DAVE-4.4.2-64Bit/optiga-trust-m/optiga/cmd\optiga_cmd.c ****                           g_optiga_unique_application_identifier,
1338:C:/Workspace/DAVE-4.4.2-64Bit/optiga-trust-m/optiga/cmd\optiga_cmd.c ****                           sizeof(g_optiga_unique_application_identifier));
1339:C:/Workspace/DAVE-4.4.2-64Bit/optiga-trust-m/optiga/cmd\optiga_cmd.c ****             if (OPTIGA_CMD_PARAM_INITIALIZE_APP_CONTEXT != me->cmd_param)
1340:C:/Workspace/DAVE-4.4.2-64Bit/optiga-trust-m/optiga/cmd\optiga_cmd.c ****             {
1341:C:/Workspace/DAVE-4.4.2-64Bit/optiga-trust-m/optiga/cmd\optiga_cmd.c ****                 pal_os_memcpy(&me->p_optiga->optiga_comms_buffer[OPTIGA_CMD_APDU_INDATA_OFFSET +
1342:C:/Workspace/DAVE-4.4.2-64Bit/optiga-trust-m/optiga/cmd\optiga_cmd.c ****                               sizeof(g_optiga_unique_application_identifier)],
1343:C:/Workspace/DAVE-4.4.2-64Bit/optiga-trust-m/optiga/cmd\optiga_cmd.c ****                               me->p_optiga->optiga_context_handle_buffer,
1344:C:/Workspace/DAVE-4.4.2-64Bit/optiga-trust-m/optiga/cmd\optiga_cmd.c ****                               sizeof(me->p_optiga->optiga_context_handle_buffer));
1345:C:/Workspace/DAVE-4.4.2-64Bit/optiga-trust-m/optiga/cmd\optiga_cmd.c ****             }
1346:C:/Workspace/DAVE-4.4.2-64Bit/optiga-trust-m/optiga/cmd\optiga_cmd.c **** 
1347:C:/Workspace/DAVE-4.4.2-64Bit/optiga-trust-m/optiga/cmd\optiga_cmd.c ****             me->p_optiga->comms_tx_size = (OPTIGA_CMD_APDU_HEADER_SIZE +
1348:C:/Workspace/DAVE-4.4.2-64Bit/optiga-trust-m/optiga/cmd\optiga_cmd.c ****                                            ((OPTIGA_CMD_PARAM_INITIALIZE_APP_CONTEXT == me->cmd_par
1349:C:/Workspace/DAVE-4.4.2-64Bit/optiga-trust-m/optiga/cmd\optiga_cmd.c ****                                            sizeof(g_optiga_unique_application_identifier):
1350:C:/Workspace/DAVE-4.4.2-64Bit/optiga-trust-m/optiga/cmd\optiga_cmd.c ****                                            (sizeof(g_optiga_unique_application_identifier) +
1351:C:/Workspace/DAVE-4.4.2-64Bit/optiga-trust-m/optiga/cmd\optiga_cmd.c ****                                            sizeof(me->p_optiga->optiga_context_handle_buffer))));
1352:C:/Workspace/DAVE-4.4.2-64Bit/optiga-trust-m/optiga/cmd\optiga_cmd.c **** 
1353:C:/Workspace/DAVE-4.4.2-64Bit/optiga-trust-m/optiga/cmd\optiga_cmd.c ****             pal_os_memset(me->p_optiga->optiga_context_handle_buffer,
1354:C:/Workspace/DAVE-4.4.2-64Bit/optiga-trust-m/optiga/cmd\optiga_cmd.c ****                           0,
1355:C:/Workspace/DAVE-4.4.2-64Bit/optiga-trust-m/optiga/cmd\optiga_cmd.c ****                           sizeof(me->p_optiga->optiga_context_handle_buffer));
1356:C:/Workspace/DAVE-4.4.2-64Bit/optiga-trust-m/optiga/cmd\optiga_cmd.c ****             if (OPTIGA_LIB_PAL_DATA_STORE_NOT_CONFIGURED != me->optiga_context_datastore_id)
1357:C:/Workspace/DAVE-4.4.2-64Bit/optiga-trust-m/optiga/cmd\optiga_cmd.c ****             {
1358:C:/Workspace/DAVE-4.4.2-64Bit/optiga-trust-m/optiga/cmd\optiga_cmd.c ****                 //Clearing context handle secret from datastore
1359:C:/Workspace/DAVE-4.4.2-64Bit/optiga-trust-m/optiga/cmd\optiga_cmd.c ****                 return_status = pal_os_datastore_write(me->optiga_context_datastore_id,
1360:C:/Workspace/DAVE-4.4.2-64Bit/optiga-trust-m/optiga/cmd\optiga_cmd.c ****                                                        me->p_optiga->optiga_context_handle_buffer,
1361:C:/Workspace/DAVE-4.4.2-64Bit/optiga-trust-m/optiga/cmd\optiga_cmd.c ****                                                        sizeof(me->p_optiga->optiga_context_handle_b
1362:C:/Workspace/DAVE-4.4.2-64Bit/optiga-trust-m/optiga/cmd\optiga_cmd.c ****                 if (PAL_STATUS_SUCCESS != return_status)
1363:C:/Workspace/DAVE-4.4.2-64Bit/optiga-trust-m/optiga/cmd\optiga_cmd.c ****                 {
1364:C:/Workspace/DAVE-4.4.2-64Bit/optiga-trust-m/optiga/cmd\optiga_cmd.c ****                     return_status = OPTIGA_CMD_ERROR;
1365:C:/Workspace/DAVE-4.4.2-64Bit/optiga-trust-m/optiga/cmd\optiga_cmd.c ****                     break;
1366:C:/Workspace/DAVE-4.4.2-64Bit/optiga-trust-m/optiga/cmd\optiga_cmd.c ****                 }
1367:C:/Workspace/DAVE-4.4.2-64Bit/optiga-trust-m/optiga/cmd\optiga_cmd.c ****             }
1368:C:/Workspace/DAVE-4.4.2-64Bit/optiga-trust-m/optiga/cmd\optiga_cmd.c ****             return_status = OPTIGA_LIB_SUCCESS;
1369:C:/Workspace/DAVE-4.4.2-64Bit/optiga-trust-m/optiga/cmd\optiga_cmd.c ****         }
1370:C:/Workspace/DAVE-4.4.2-64Bit/optiga-trust-m/optiga/cmd\optiga_cmd.c ****         break;
1371:C:/Workspace/DAVE-4.4.2-64Bit/optiga-trust-m/optiga/cmd\optiga_cmd.c ****         case OPTIGA_CMD_EXEC_PROCESS_RESPONSE:
1372:C:/Workspace/DAVE-4.4.2-64Bit/optiga-trust-m/optiga/cmd\optiga_cmd.c ****         {
1373:C:/Workspace/DAVE-4.4.2-64Bit/optiga-trust-m/optiga/cmd\optiga_cmd.c ****             OPTIGA_CMD_LOG_MESSAGE("Processing response for open app command...");
1374:C:/Workspace/DAVE-4.4.2-64Bit/optiga-trust-m/optiga/cmd\optiga_cmd.c **** 
1375:C:/Workspace/DAVE-4.4.2-64Bit/optiga-trust-m/optiga/cmd\optiga_cmd.c ****             if (OPTIGA_CMD_APDU_SUCCESS != me->p_optiga->optiga_comms_buffer[OPTIGA_COMMS_DATA_OFFS
1376:C:/Workspace/DAVE-4.4.2-64Bit/optiga-trust-m/optiga/cmd\optiga_cmd.c ****             {
1377:C:/Workspace/DAVE-4.4.2-64Bit/optiga-trust-m/optiga/cmd\optiga_cmd.c ****                 OPTIGA_CMD_LOG_MESSAGE("Error in processing open app response...");
1378:C:/Workspace/DAVE-4.4.2-64Bit/optiga-trust-m/optiga/cmd\optiga_cmd.c ****                 SET_DEV_ERROR_NOTIFICATION(OPTIGA_CMD_EXIT_HANDLER_CALL);
1379:C:/Workspace/DAVE-4.4.2-64Bit/optiga-trust-m/optiga/cmd\optiga_cmd.c ****                 break;
1380:C:/Workspace/DAVE-4.4.2-64Bit/optiga-trust-m/optiga/cmd\optiga_cmd.c ****             }
1381:C:/Workspace/DAVE-4.4.2-64Bit/optiga-trust-m/optiga/cmd\optiga_cmd.c **** #ifdef OPTIGA_COMMS_SHIELDED_CONNECTION
1382:C:/Workspace/DAVE-4.4.2-64Bit/optiga-trust-m/optiga/cmd\optiga_cmd.c ****             me->p_optiga->p_optiga_comms->manage_context_operation = OPTIGA_COMMS_SESSION_CONTEXT_N
1383:C:/Workspace/DAVE-4.4.2-64Bit/optiga-trust-m/optiga/cmd\optiga_cmd.c **** #endif //OPTIGA_COMMS_SHIELDED_CONNECTION
1384:C:/Workspace/DAVE-4.4.2-64Bit/optiga-trust-m/optiga/cmd\optiga_cmd.c ****             OPTIGA_CMD_LOG_MESSAGE("Response of open app command is processed...");
1385:C:/Workspace/DAVE-4.4.2-64Bit/optiga-trust-m/optiga/cmd\optiga_cmd.c ****             return_status = OPTIGA_LIB_SUCCESS;
1386:C:/Workspace/DAVE-4.4.2-64Bit/optiga-trust-m/optiga/cmd\optiga_cmd.c **** 
1387:C:/Workspace/DAVE-4.4.2-64Bit/optiga-trust-m/optiga/cmd\optiga_cmd.c ****         }
1388:C:/Workspace/DAVE-4.4.2-64Bit/optiga-trust-m/optiga/cmd\optiga_cmd.c ****         break;
1389:C:/Workspace/DAVE-4.4.2-64Bit/optiga-trust-m/optiga/cmd\optiga_cmd.c ****         default:
1390:C:/Workspace/DAVE-4.4.2-64Bit/optiga-trust-m/optiga/cmd\optiga_cmd.c ****             break;
1391:C:/Workspace/DAVE-4.4.2-64Bit/optiga-trust-m/optiga/cmd\optiga_cmd.c ****     }
1392:C:/Workspace/DAVE-4.4.2-64Bit/optiga-trust-m/optiga/cmd\optiga_cmd.c **** 
1393:C:/Workspace/DAVE-4.4.2-64Bit/optiga-trust-m/optiga/cmd\optiga_cmd.c ****     return (return_status);
1394:C:/Workspace/DAVE-4.4.2-64Bit/optiga-trust-m/optiga/cmd\optiga_cmd.c **** }
1395:C:/Workspace/DAVE-4.4.2-64Bit/optiga-trust-m/optiga/cmd\optiga_cmd.c **** 
1396:C:/Workspace/DAVE-4.4.2-64Bit/optiga-trust-m/optiga/cmd\optiga_cmd.c **** 
1397:C:/Workspace/DAVE-4.4.2-64Bit/optiga-trust-m/optiga/cmd\optiga_cmd.c **** optiga_lib_status_t optiga_cmd_open_application(optiga_cmd_t * me, uint8_t cmd_param, void * params
1398:C:/Workspace/DAVE-4.4.2-64Bit/optiga-trust-m/optiga/cmd\optiga_cmd.c **** {
1399:C:/Workspace/DAVE-4.4.2-64Bit/optiga-trust-m/optiga/cmd\optiga_cmd.c ****     OPTIGA_CMD_LOG_MESSAGE(__FUNCTION__);
1400:C:/Workspace/DAVE-4.4.2-64Bit/optiga-trust-m/optiga/cmd\optiga_cmd.c ****     optiga_cmd_execute(me,
1401:C:/Workspace/DAVE-4.4.2-64Bit/optiga-trust-m/optiga/cmd\optiga_cmd.c ****                        cmd_param,
1402:C:/Workspace/DAVE-4.4.2-64Bit/optiga-trust-m/optiga/cmd\optiga_cmd.c ****                        optiga_cmd_open_application_handler,
1403:C:/Workspace/DAVE-4.4.2-64Bit/optiga-trust-m/optiga/cmd\optiga_cmd.c ****                        OPTIGA_CMD_EXEC_COMMS_OPEN,
1404:C:/Workspace/DAVE-4.4.2-64Bit/optiga-trust-m/optiga/cmd\optiga_cmd.c ****                        params);
1405:C:/Workspace/DAVE-4.4.2-64Bit/optiga-trust-m/optiga/cmd\optiga_cmd.c **** 
1406:C:/Workspace/DAVE-4.4.2-64Bit/optiga-trust-m/optiga/cmd\optiga_cmd.c ****     return (OPTIGA_LIB_SUCCESS);
1407:C:/Workspace/DAVE-4.4.2-64Bit/optiga-trust-m/optiga/cmd\optiga_cmd.c **** }
1408:C:/Workspace/DAVE-4.4.2-64Bit/optiga-trust-m/optiga/cmd\optiga_cmd.c **** 
1409:C:/Workspace/DAVE-4.4.2-64Bit/optiga-trust-m/optiga/cmd\optiga_cmd.c **** /*
1410:C:/Workspace/DAVE-4.4.2-64Bit/optiga-trust-m/optiga/cmd\optiga_cmd.c **** * Close Application handler
1411:C:/Workspace/DAVE-4.4.2-64Bit/optiga-trust-m/optiga/cmd\optiga_cmd.c **** */
1412:C:/Workspace/DAVE-4.4.2-64Bit/optiga-trust-m/optiga/cmd\optiga_cmd.c **** _STATIC_H optiga_lib_status_t optiga_cmd_close_application_handler(optiga_cmd_t * me)
1413:C:/Workspace/DAVE-4.4.2-64Bit/optiga-trust-m/optiga/cmd\optiga_cmd.c **** {
1414:C:/Workspace/DAVE-4.4.2-64Bit/optiga-trust-m/optiga/cmd\optiga_cmd.c ****     uint16_t total_apdu_length;
1415:C:/Workspace/DAVE-4.4.2-64Bit/optiga-trust-m/optiga/cmd\optiga_cmd.c ****     optiga_lib_status_t return_status = OPTIGA_CMD_ERROR;
1416:C:/Workspace/DAVE-4.4.2-64Bit/optiga-trust-m/optiga/cmd\optiga_cmd.c **** 
1417:C:/Workspace/DAVE-4.4.2-64Bit/optiga-trust-m/optiga/cmd\optiga_cmd.c ****     switch ((uint8_t)me->cmd_next_execution_state)
1418:C:/Workspace/DAVE-4.4.2-64Bit/optiga-trust-m/optiga/cmd\optiga_cmd.c ****     {
1419:C:/Workspace/DAVE-4.4.2-64Bit/optiga-trust-m/optiga/cmd\optiga_cmd.c ****         case OPTIGA_CMD_EXEC_PREPARE_COMMAND:
1420:C:/Workspace/DAVE-4.4.2-64Bit/optiga-trust-m/optiga/cmd\optiga_cmd.c ****         {
1421:C:/Workspace/DAVE-4.4.2-64Bit/optiga-trust-m/optiga/cmd\optiga_cmd.c **** 
1422:C:/Workspace/DAVE-4.4.2-64Bit/optiga-trust-m/optiga/cmd\optiga_cmd.c ****             OPTIGA_CMD_LOG_MESSAGE("Sending close app command..");
1423:C:/Workspace/DAVE-4.4.2-64Bit/optiga-trust-m/optiga/cmd\optiga_cmd.c **** 
1424:C:/Workspace/DAVE-4.4.2-64Bit/optiga-trust-m/optiga/cmd\optiga_cmd.c ****             total_apdu_length = OPTIGA_CMD_APDU_HEADER_SIZE;
1425:C:/Workspace/DAVE-4.4.2-64Bit/optiga-trust-m/optiga/cmd\optiga_cmd.c ****             //lint --e{774} suppress "If OPTIGA_MAX_COMMS_BUFFER_SIZE is set to lesser value it wil
1426:C:/Workspace/DAVE-4.4.2-64Bit/optiga-trust-m/optiga/cmd\optiga_cmd.c ****             if (OPTIGA_MAX_COMMS_BUFFER_SIZE < total_apdu_length)
1427:C:/Workspace/DAVE-4.4.2-64Bit/optiga-trust-m/optiga/cmd\optiga_cmd.c ****             {
1428:C:/Workspace/DAVE-4.4.2-64Bit/optiga-trust-m/optiga/cmd\optiga_cmd.c ****                 return_status = OPTIGA_CMD_ERROR_MEMORY_INSUFFICIENT;
1429:C:/Workspace/DAVE-4.4.2-64Bit/optiga-trust-m/optiga/cmd\optiga_cmd.c ****                 break;
1430:C:/Workspace/DAVE-4.4.2-64Bit/optiga-trust-m/optiga/cmd\optiga_cmd.c ****             }
1431:C:/Workspace/DAVE-4.4.2-64Bit/optiga-trust-m/optiga/cmd\optiga_cmd.c ****             optiga_cmd_prepare_apdu_header(OPTIGA_CMD_CLOSE_APPLICATION,
1432:C:/Workspace/DAVE-4.4.2-64Bit/optiga-trust-m/optiga/cmd\optiga_cmd.c ****                                            me->cmd_param,
1433:C:/Workspace/DAVE-4.4.2-64Bit/optiga-trust-m/optiga/cmd\optiga_cmd.c ****                                            OPTIGA_CMD_ZERO_LENGTH_OR_VALUE,
1434:C:/Workspace/DAVE-4.4.2-64Bit/optiga-trust-m/optiga/cmd\optiga_cmd.c ****                                            me->p_optiga->optiga_comms_buffer + OPTIGA_COMMS_DATA_OF
1435:C:/Workspace/DAVE-4.4.2-64Bit/optiga-trust-m/optiga/cmd\optiga_cmd.c **** 
1436:C:/Workspace/DAVE-4.4.2-64Bit/optiga-trust-m/optiga/cmd\optiga_cmd.c ****             me->p_optiga->comms_tx_size = OPTIGA_CMD_APDU_HEADER_SIZE;
1437:C:/Workspace/DAVE-4.4.2-64Bit/optiga-trust-m/optiga/cmd\optiga_cmd.c ****             return_status = OPTIGA_LIB_SUCCESS;
1438:C:/Workspace/DAVE-4.4.2-64Bit/optiga-trust-m/optiga/cmd\optiga_cmd.c ****         }
1439:C:/Workspace/DAVE-4.4.2-64Bit/optiga-trust-m/optiga/cmd\optiga_cmd.c ****         break;
1440:C:/Workspace/DAVE-4.4.2-64Bit/optiga-trust-m/optiga/cmd\optiga_cmd.c ****         case OPTIGA_CMD_EXEC_PROCESS_RESPONSE:
1441:C:/Workspace/DAVE-4.4.2-64Bit/optiga-trust-m/optiga/cmd\optiga_cmd.c ****         {
1442:C:/Workspace/DAVE-4.4.2-64Bit/optiga-trust-m/optiga/cmd\optiga_cmd.c ****             OPTIGA_CMD_LOG_MESSAGE("Processing response for close app command...");
1443:C:/Workspace/DAVE-4.4.2-64Bit/optiga-trust-m/optiga/cmd\optiga_cmd.c ****             // check if the close app was successful
1444:C:/Workspace/DAVE-4.4.2-64Bit/optiga-trust-m/optiga/cmd\optiga_cmd.c ****             if (OPTIGA_CMD_APDU_SUCCESS != me->p_optiga->optiga_comms_buffer[OPTIGA_COMMS_DATA_OFFS
1445:C:/Workspace/DAVE-4.4.2-64Bit/optiga-trust-m/optiga/cmd\optiga_cmd.c ****             {
1446:C:/Workspace/DAVE-4.4.2-64Bit/optiga-trust-m/optiga/cmd\optiga_cmd.c ****                 OPTIGA_CMD_LOG_MESSAGE("Error in processing close app response...");
1447:C:/Workspace/DAVE-4.4.2-64Bit/optiga-trust-m/optiga/cmd\optiga_cmd.c ****                 SET_DEV_ERROR_NOTIFICATION(OPTIGA_CMD_EXIT_HANDLER_CALL);
1448:C:/Workspace/DAVE-4.4.2-64Bit/optiga-trust-m/optiga/cmd\optiga_cmd.c ****                 break;
1449:C:/Workspace/DAVE-4.4.2-64Bit/optiga-trust-m/optiga/cmd\optiga_cmd.c ****             }
1450:C:/Workspace/DAVE-4.4.2-64Bit/optiga-trust-m/optiga/cmd\optiga_cmd.c ****             if (OPTIGA_CMD_PARAM_INITIALIZE_APP_CONTEXT != me->cmd_param)
1451:C:/Workspace/DAVE-4.4.2-64Bit/optiga-trust-m/optiga/cmd\optiga_cmd.c ****             {
1452:C:/Workspace/DAVE-4.4.2-64Bit/optiga-trust-m/optiga/cmd\optiga_cmd.c ****                 pal_os_memcpy(me->p_optiga->optiga_context_handle_buffer,
1453:C:/Workspace/DAVE-4.4.2-64Bit/optiga-trust-m/optiga/cmd\optiga_cmd.c ****                               me->p_optiga->optiga_comms_buffer + OPTIGA_CMD_APDU_INDATA_OFFSET,
1454:C:/Workspace/DAVE-4.4.2-64Bit/optiga-trust-m/optiga/cmd\optiga_cmd.c ****                               sizeof(me->p_optiga->optiga_context_handle_buffer));
1455:C:/Workspace/DAVE-4.4.2-64Bit/optiga-trust-m/optiga/cmd\optiga_cmd.c ****                 ///Optiga context store operation
1456:C:/Workspace/DAVE-4.4.2-64Bit/optiga-trust-m/optiga/cmd\optiga_cmd.c ****                 if (OPTIGA_LIB_SUCCESS != optiga_cmd_store_context(me))
1457:C:/Workspace/DAVE-4.4.2-64Bit/optiga-trust-m/optiga/cmd\optiga_cmd.c ****                 {
1458:C:/Workspace/DAVE-4.4.2-64Bit/optiga-trust-m/optiga/cmd\optiga_cmd.c ****                     pal_os_memset(me->p_optiga->optiga_context_handle_buffer,0,
1459:C:/Workspace/DAVE-4.4.2-64Bit/optiga-trust-m/optiga/cmd\optiga_cmd.c ****                                     sizeof(me->p_optiga->optiga_context_handle_buffer));
1460:C:/Workspace/DAVE-4.4.2-64Bit/optiga-trust-m/optiga/cmd\optiga_cmd.c ****                     break;
1461:C:/Workspace/DAVE-4.4.2-64Bit/optiga-trust-m/optiga/cmd\optiga_cmd.c ****                 }
1462:C:/Workspace/DAVE-4.4.2-64Bit/optiga-trust-m/optiga/cmd\optiga_cmd.c ****             }
1463:C:/Workspace/DAVE-4.4.2-64Bit/optiga-trust-m/optiga/cmd\optiga_cmd.c ****             OPTIGA_CMD_LOG_MESSAGE("Response of close app command is processed...");
1464:C:/Workspace/DAVE-4.4.2-64Bit/optiga-trust-m/optiga/cmd\optiga_cmd.c ****             return_status = OPTIGA_LIB_SUCCESS;
1465:C:/Workspace/DAVE-4.4.2-64Bit/optiga-trust-m/optiga/cmd\optiga_cmd.c **** 
1466:C:/Workspace/DAVE-4.4.2-64Bit/optiga-trust-m/optiga/cmd\optiga_cmd.c ****             // Close Application is successful, invoke optiga_comms_close next
1467:C:/Workspace/DAVE-4.4.2-64Bit/optiga-trust-m/optiga/cmd\optiga_cmd.c ****             me->chaining_ongoing = START_OPTIGA_COMMS_CLOSE;
1468:C:/Workspace/DAVE-4.4.2-64Bit/optiga-trust-m/optiga/cmd\optiga_cmd.c ****         }
1469:C:/Workspace/DAVE-4.4.2-64Bit/optiga-trust-m/optiga/cmd\optiga_cmd.c ****         break;
1470:C:/Workspace/DAVE-4.4.2-64Bit/optiga-trust-m/optiga/cmd\optiga_cmd.c ****         default:
1471:C:/Workspace/DAVE-4.4.2-64Bit/optiga-trust-m/optiga/cmd\optiga_cmd.c ****             break;
1472:C:/Workspace/DAVE-4.4.2-64Bit/optiga-trust-m/optiga/cmd\optiga_cmd.c ****     }
1473:C:/Workspace/DAVE-4.4.2-64Bit/optiga-trust-m/optiga/cmd\optiga_cmd.c **** 
1474:C:/Workspace/DAVE-4.4.2-64Bit/optiga-trust-m/optiga/cmd\optiga_cmd.c ****     return (return_status);
1475:C:/Workspace/DAVE-4.4.2-64Bit/optiga-trust-m/optiga/cmd\optiga_cmd.c **** }
1476:C:/Workspace/DAVE-4.4.2-64Bit/optiga-trust-m/optiga/cmd\optiga_cmd.c **** 
1477:C:/Workspace/DAVE-4.4.2-64Bit/optiga-trust-m/optiga/cmd\optiga_cmd.c **** optiga_lib_status_t optiga_cmd_close_application(optiga_cmd_t * me, uint8_t cmd_param, void * param
1478:C:/Workspace/DAVE-4.4.2-64Bit/optiga-trust-m/optiga/cmd\optiga_cmd.c **** {
1479:C:/Workspace/DAVE-4.4.2-64Bit/optiga-trust-m/optiga/cmd\optiga_cmd.c ****     OPTIGA_CMD_LOG_MESSAGE(__FUNCTION__);
1480:C:/Workspace/DAVE-4.4.2-64Bit/optiga-trust-m/optiga/cmd\optiga_cmd.c ****     optiga_cmd_execute(me,
1481:C:/Workspace/DAVE-4.4.2-64Bit/optiga-trust-m/optiga/cmd\optiga_cmd.c ****                        cmd_param,
1482:C:/Workspace/DAVE-4.4.2-64Bit/optiga-trust-m/optiga/cmd\optiga_cmd.c ****                        optiga_cmd_close_application_handler,
1483:C:/Workspace/DAVE-4.4.2-64Bit/optiga-trust-m/optiga/cmd\optiga_cmd.c ****                        OPTIGA_CMD_EXEC_REQUEST_LOCK,
1484:C:/Workspace/DAVE-4.4.2-64Bit/optiga-trust-m/optiga/cmd\optiga_cmd.c ****                        params);
1485:C:/Workspace/DAVE-4.4.2-64Bit/optiga-trust-m/optiga/cmd\optiga_cmd.c **** 
1486:C:/Workspace/DAVE-4.4.2-64Bit/optiga-trust-m/optiga/cmd\optiga_cmd.c ****     return (OPTIGA_LIB_SUCCESS);
1487:C:/Workspace/DAVE-4.4.2-64Bit/optiga-trust-m/optiga/cmd\optiga_cmd.c **** }
1488:C:/Workspace/DAVE-4.4.2-64Bit/optiga-trust-m/optiga/cmd\optiga_cmd.c **** 
1489:C:/Workspace/DAVE-4.4.2-64Bit/optiga-trust-m/optiga/cmd\optiga_cmd.c **** /*
1490:C:/Workspace/DAVE-4.4.2-64Bit/optiga-trust-m/optiga/cmd\optiga_cmd.c **** * Get Data Object handler
1491:C:/Workspace/DAVE-4.4.2-64Bit/optiga-trust-m/optiga/cmd\optiga_cmd.c **** */
1492:C:/Workspace/DAVE-4.4.2-64Bit/optiga-trust-m/optiga/cmd\optiga_cmd.c **** _STATIC_H optiga_lib_status_t optiga_cmd_get_data_object_handler(optiga_cmd_t * me)
1493:C:/Workspace/DAVE-4.4.2-64Bit/optiga-trust-m/optiga/cmd\optiga_cmd.c **** {
 1033              	 .loc 1 1493 0
 1034              	 .cfi_startproc
 1035              	.LVL90:
 1036 0000 F8B5     	 push {r3,r4,r5,r6,r7,lr}
 1037              	.LCFI6:
 1038              	 .cfi_def_cfa_offset 24
 1039              	 .cfi_offset 3,-24
 1040              	 .cfi_offset 4,-20
 1041              	 .cfi_offset 5,-16
 1042              	 .cfi_offset 6,-12
 1043              	 .cfi_offset 7,-8
 1044              	 .cfi_offset 14,-4
1494:C:/Workspace/DAVE-4.4.2-64Bit/optiga-trust-m/optiga/cmd\optiga_cmd.c ****     uint16_t total_apdu_length;
1495:C:/Workspace/DAVE-4.4.2-64Bit/optiga-trust-m/optiga/cmd\optiga_cmd.c ****     optiga_get_data_object_params_t * p_optiga_read_data = (optiga_get_data_object_params_t *)me->p
1496:C:/Workspace/DAVE-4.4.2-64Bit/optiga-trust-m/optiga/cmd\optiga_cmd.c ****     optiga_lib_status_t return_status = OPTIGA_CMD_ERROR;
1497:C:/Workspace/DAVE-4.4.2-64Bit/optiga-trust-m/optiga/cmd\optiga_cmd.c ****     uint16_t index_for_data = OPTIGA_CMD_APDU_INDATA_OFFSET;
1498:C:/Workspace/DAVE-4.4.2-64Bit/optiga-trust-m/optiga/cmd\optiga_cmd.c ****     uint16_t size_to_read, data_read;
1499:C:/Workspace/DAVE-4.4.2-64Bit/optiga-trust-m/optiga/cmd\optiga_cmd.c ****     uint8_t cmd = OPTIGA_CMD_GET_DATA_OBJECT;
1500:C:/Workspace/DAVE-4.4.2-64Bit/optiga-trust-m/optiga/cmd\optiga_cmd.c ****     switch ((uint8_t)me->cmd_next_execution_state)
 1045              	 .loc 1 1500 0
 1046 0002 837D     	 ldrb r3,[r0,#22]
1493:C:/Workspace/DAVE-4.4.2-64Bit/optiga-trust-m/optiga/cmd\optiga_cmd.c ****     uint16_t total_apdu_length;
 1047              	 .loc 1 1493 0
 1048 0004 061C     	 mov r6,r0
1495:C:/Workspace/DAVE-4.4.2-64Bit/optiga-trust-m/optiga/cmd\optiga_cmd.c ****     optiga_lib_status_t return_status = OPTIGA_CMD_ERROR;
 1049              	 .loc 1 1495 0
 1050 0006 8468     	 ldr r4,[r0,#8]
 1051              	.LVL91:
 1052              	 .loc 1 1500 0
 1053 0008 082B     	 cmp r3,#8
 1054 000a 02D0     	 beq .L85
 1055 000c 092B     	 cmp r3,#9
 1056 000e 32D0     	 beq .L86
 1057 0010 74E0     	 b .L99
 1058              	.L85:
 1059              	.LVL92:
1501:C:/Workspace/DAVE-4.4.2-64Bit/optiga-trust-m/optiga/cmd\optiga_cmd.c ****     {
1502:C:/Workspace/DAVE-4.4.2-64Bit/optiga-trust-m/optiga/cmd\optiga_cmd.c ****         case OPTIGA_CMD_EXEC_PREPARE_COMMAND:
1503:C:/Workspace/DAVE-4.4.2-64Bit/optiga-trust-m/optiga/cmd\optiga_cmd.c ****         {
1504:C:/Workspace/DAVE-4.4.2-64Bit/optiga-trust-m/optiga/cmd\optiga_cmd.c ****             OPTIGA_CMD_LOG_MESSAGE("Sending read data command...");
1505:C:/Workspace/DAVE-4.4.2-64Bit/optiga-trust-m/optiga/cmd\optiga_cmd.c ****             // APDU header size + oid 2bytes + offset 2 bytes + length 2 bytes
1506:C:/Workspace/DAVE-4.4.2-64Bit/optiga-trust-m/optiga/cmd\optiga_cmd.c ****             total_apdu_length = OPTIGA_CMD_APDU_HEADER_SIZE + OPTIGA_CMD_UINT16_SIZE_IN_BYTES +
1507:C:/Workspace/DAVE-4.4.2-64Bit/optiga-trust-m/optiga/cmd\optiga_cmd.c ****                                     OPTIGA_CMD_UINT16_SIZE_IN_BYTES + OPTIGA_CMD_UINT16_SIZE_IN_BYT
1508:C:/Workspace/DAVE-4.4.2-64Bit/optiga-trust-m/optiga/cmd\optiga_cmd.c ****             //lint --e{774} suppress "If OPTIGA_MAX_COMMS_BUFFER_SIZE is set to lesser value it wil
1509:C:/Workspace/DAVE-4.4.2-64Bit/optiga-trust-m/optiga/cmd\optiga_cmd.c ****             if (OPTIGA_MAX_COMMS_BUFFER_SIZE < total_apdu_length)
1510:C:/Workspace/DAVE-4.4.2-64Bit/optiga-trust-m/optiga/cmd\optiga_cmd.c ****             {
1511:C:/Workspace/DAVE-4.4.2-64Bit/optiga-trust-m/optiga/cmd\optiga_cmd.c ****                 return_status = OPTIGA_CMD_ERROR_MEMORY_INSUFFICIENT;
1512:C:/Workspace/DAVE-4.4.2-64Bit/optiga-trust-m/optiga/cmd\optiga_cmd.c ****                 *(p_optiga_read_data->ref_bytes_to_read) = 0x00;
1513:C:/Workspace/DAVE-4.4.2-64Bit/optiga-trust-m/optiga/cmd\optiga_cmd.c ****                 break;
1514:C:/Workspace/DAVE-4.4.2-64Bit/optiga-trust-m/optiga/cmd\optiga_cmd.c ****             }
1515:C:/Workspace/DAVE-4.4.2-64Bit/optiga-trust-m/optiga/cmd\optiga_cmd.c ****             //oid
1516:C:/Workspace/DAVE-4.4.2-64Bit/optiga-trust-m/optiga/cmd\optiga_cmd.c ****             optiga_common_set_uint16(&me->p_optiga->optiga_comms_buffer[index_for_data],
 1060              	 .loc 1 1516 0
 1061 0012 0068     	 ldr r0,[r0]
 1062              	.LVL93:
 1063 0014 2188     	 ldrh r1,[r4]
 1064 0016 1630     	 add r0,r0,#22
 1065 0018 FFF7FEFF 	 bl optiga_common_set_uint16
 1066              	.LVL94:
1517:C:/Workspace/DAVE-4.4.2-64Bit/optiga-trust-m/optiga/cmd\optiga_cmd.c ****                                      p_optiga_read_data->oid);
1518:C:/Workspace/DAVE-4.4.2-64Bit/optiga-trust-m/optiga/cmd\optiga_cmd.c ****             index_for_data += OPTIGA_CMD_UINT16_SIZE_IN_BYTES;
1519:C:/Workspace/DAVE-4.4.2-64Bit/optiga-trust-m/optiga/cmd\optiga_cmd.c **** 
1520:C:/Workspace/DAVE-4.4.2-64Bit/optiga-trust-m/optiga/cmd\optiga_cmd.c ****             size_to_read = MIN((OPTIGA_MAX_COMMS_BUFFER_SIZE - OPTIGA_CMD_APDU_HEADER_SIZE),
 1067              	 .loc 1 1520 0
 1068 001c E188     	 ldrh r1,[r4,#6]
 1069 001e A588     	 ldrh r5,[r4,#4]
 1070 0020 374B     	 ldr r3,.L101
 1071 0022 6D1A     	 sub r5,r5,r1
 1072 0024 9D42     	 cmp r5,r3
 1073 0026 00DD     	 ble .L87
 1074 0028 1D1C     	 mov r5,r3
 1075              	.L87:
1521:C:/Workspace/DAVE-4.4.2-64Bit/optiga-trust-m/optiga/cmd\optiga_cmd.c ****                                (p_optiga_read_data->bytes_to_read - p_optiga_read_data->accumulated
1522:C:/Workspace/DAVE-4.4.2-64Bit/optiga-trust-m/optiga/cmd\optiga_cmd.c **** 
1523:C:/Workspace/DAVE-4.4.2-64Bit/optiga-trust-m/optiga/cmd\optiga_cmd.c ****             if (CMD_READ_DATA == p_optiga_read_data->data_or_metadata)
 1076              	 .loc 1 1523 0
 1077 002a A27A     	 ldrb r2,[r4,#10]
1520:C:/Workspace/DAVE-4.4.2-64Bit/optiga-trust-m/optiga/cmd\optiga_cmd.c ****                                (p_optiga_read_data->bytes_to_read - p_optiga_read_data->accumulated
 1078              	 .loc 1 1520 0
 1079 002c ADB2     	 uxth r5,r5
 1080              	.LVL95:
1518:C:/Workspace/DAVE-4.4.2-64Bit/optiga-trust-m/optiga/cmd\optiga_cmd.c **** 
 1081              	 .loc 1 1518 0
 1082 002e 0B23     	 mov r3,#11
 1083              	 .loc 1 1523 0
 1084 0030 002A     	 cmp r2,#0
 1085 0032 0CD1     	 bne .L88
1524:C:/Workspace/DAVE-4.4.2-64Bit/optiga-trust-m/optiga/cmd\optiga_cmd.c ****             {
1525:C:/Workspace/DAVE-4.4.2-64Bit/optiga-trust-m/optiga/cmd\optiga_cmd.c ****                 //offset
1526:C:/Workspace/DAVE-4.4.2-64Bit/optiga-trust-m/optiga/cmd\optiga_cmd.c ****                 optiga_common_set_uint16(&me->p_optiga->optiga_comms_buffer[index_for_data],
 1086              	 .loc 1 1526 0
 1087 0034 6388     	 ldrh r3,[r4,#2]
 1088 0036 3068     	 ldr r0,[r6]
 1089 0038 C918     	 add r1,r1,r3
 1090 003a 1830     	 add r0,r0,#24
 1091 003c 89B2     	 uxth r1,r1
 1092 003e FFF7FEFF 	 bl optiga_common_set_uint16
 1093              	.LVL96:
1527:C:/Workspace/DAVE-4.4.2-64Bit/optiga-trust-m/optiga/cmd\optiga_cmd.c ****                            (p_optiga_read_data->offset + p_optiga_read_data->accumulated_size));
1528:C:/Workspace/DAVE-4.4.2-64Bit/optiga-trust-m/optiga/cmd\optiga_cmd.c ****                 index_for_data += OPTIGA_CMD_UINT16_SIZE_IN_BYTES;
1529:C:/Workspace/DAVE-4.4.2-64Bit/optiga-trust-m/optiga/cmd\optiga_cmd.c **** 
1530:C:/Workspace/DAVE-4.4.2-64Bit/optiga-trust-m/optiga/cmd\optiga_cmd.c ****                 //length
1531:C:/Workspace/DAVE-4.4.2-64Bit/optiga-trust-m/optiga/cmd\optiga_cmd.c ****                 optiga_common_set_uint16(&me->p_optiga->optiga_comms_buffer[index_for_data],
 1094              	 .loc 1 1531 0
 1095 0042 3068     	 ldr r0,[r6]
 1096 0044 291C     	 mov r1,r5
 1097 0046 1A30     	 add r0,r0,#26
 1098 0048 FFF7FEFF 	 bl optiga_common_set_uint16
 1099              	.LVL97:
1532:C:/Workspace/DAVE-4.4.2-64Bit/optiga-trust-m/optiga/cmd\optiga_cmd.c ****                                          size_to_read);
1533:C:/Workspace/DAVE-4.4.2-64Bit/optiga-trust-m/optiga/cmd\optiga_cmd.c ****                 index_for_data += OPTIGA_CMD_UINT16_SIZE_IN_BYTES;
 1100              	 .loc 1 1533 0
 1101 004c 0F23     	 mov r3,#15
 1102              	.LVL98:
 1103              	.L88:
1534:C:/Workspace/DAVE-4.4.2-64Bit/optiga-trust-m/optiga/cmd\optiga_cmd.c ****             }
1535:C:/Workspace/DAVE-4.4.2-64Bit/optiga-trust-m/optiga/cmd\optiga_cmd.c ****             // If OID is for Last error code, don't clear the error code in read
1536:C:/Workspace/DAVE-4.4.2-64Bit/optiga-trust-m/optiga/cmd\optiga_cmd.c ****             if (OPTIGA_CMD_LAST_ERROR_CODE == p_optiga_read_data->oid)
 1104              	 .loc 1 1536 0
 1105 004e 2088     	 ldrh r0,[r4]
 1106 0050 2C4A     	 ldr r2,.L101+4
1499:C:/Workspace/DAVE-4.4.2-64Bit/optiga-trust-m/optiga/cmd\optiga_cmd.c ****     switch ((uint8_t)me->cmd_next_execution_state)
 1107              	 .loc 1 1499 0
 1108 0052 8121     	 mov r1,#129
 1109              	 .loc 1 1536 0
 1110 0054 9042     	 cmp r0,r2
 1111 0056 00D1     	 bne .L89
1537:C:/Workspace/DAVE-4.4.2-64Bit/optiga-trust-m/optiga/cmd\optiga_cmd.c ****             {
1538:C:/Workspace/DAVE-4.4.2-64Bit/optiga-trust-m/optiga/cmd\optiga_cmd.c ****                 cmd = CMD_GET_DATA_OBJECT_NO_ERROR_CLEAR;
 1112              	 .loc 1 1538 0
 1113 0058 8039     	 sub r1,r1,#128
 1114              	.L89:
 1115              	.LVL99:
1539:C:/Workspace/DAVE-4.4.2-64Bit/optiga-trust-m/optiga/cmd\optiga_cmd.c ****             }
1540:C:/Workspace/DAVE-4.4.2-64Bit/optiga-trust-m/optiga/cmd\optiga_cmd.c ****             //prepare APDU header
1541:C:/Workspace/DAVE-4.4.2-64Bit/optiga-trust-m/optiga/cmd\optiga_cmd.c ****             optiga_cmd_prepare_apdu_header(cmd,
1542:C:/Workspace/DAVE-4.4.2-64Bit/optiga-trust-m/optiga/cmd\optiga_cmd.c ****                                            me->cmd_param,
1543:C:/Workspace/DAVE-4.4.2-64Bit/optiga-trust-m/optiga/cmd\optiga_cmd.c ****                                            (index_for_data - OPTIGA_CMD_APDU_INDATA_OFFSET),
1544:C:/Workspace/DAVE-4.4.2-64Bit/optiga-trust-m/optiga/cmd\optiga_cmd.c ****                                            (me->p_optiga->optiga_comms_buffer + OPTIGA_COMMS_DATA_O
 1116              	 .loc 1 1544 0
 1117 005a 3268     	 ldr r2,[r6]
 1118              	.LVL100:
1541:C:/Workspace/DAVE-4.4.2-64Bit/optiga-trust-m/optiga/cmd\optiga_cmd.c ****                                            me->cmd_param,
 1119              	 .loc 1 1541 0
 1120 005c 307E     	 ldrb r0,[r6,#24]
 1121              	.LVL101:
 1122              	.LBB118:
 1123              	.LBB119:
 421:C:/Workspace/DAVE-4.4.2-64Bit/optiga-trust-m/optiga/cmd\optiga_cmd.c ****     p_apdu_buffer [1] = param;
 1124              	 .loc 1 421 0
 1125 005e 9174     	 strb r1,[r2,#18]
 1126              	.LBE119:
 1127              	.LBE118:
1541:C:/Workspace/DAVE-4.4.2-64Bit/optiga-trust-m/optiga/cmd\optiga_cmd.c ****                                            me->cmd_param,
 1128              	 .loc 1 1541 0
 1129 0060 191C     	 mov r1,r3
 1130              	.LVL102:
 1131              	.LBB122:
 1132              	.LBB120:
 422:C:/Workspace/DAVE-4.4.2-64Bit/optiga-trust-m/optiga/cmd\optiga_cmd.c ****     p_apdu_buffer [2] = (uint8_t)((in_data_length & 0xFF00) >> 8);
 1133              	 .loc 1 422 0
 1134 0062 D074     	 strb r0,[r2,#19]
 423:C:/Workspace/DAVE-4.4.2-64Bit/optiga-trust-m/optiga/cmd\optiga_cmd.c ****     p_apdu_buffer [3] = (uint8_t)(in_data_length & 0x00FF);
 1135              	 .loc 1 423 0
 1136 0064 0020     	 mov r0,#0
 1137              	.LVL103:
 1138              	.LBE120:
 1139              	.LBE122:
1541:C:/Workspace/DAVE-4.4.2-64Bit/optiga-trust-m/optiga/cmd\optiga_cmd.c ****                                            me->cmd_param,
 1140              	 .loc 1 1541 0
 1141 0066 0939     	 sub r1,r1,#9
 1142              	.LBB123:
 1143              	.LBB121:
 423:C:/Workspace/DAVE-4.4.2-64Bit/optiga-trust-m/optiga/cmd\optiga_cmd.c ****     p_apdu_buffer [3] = (uint8_t)(in_data_length & 0x00FF);
 1144              	 .loc 1 423 0
 1145 0068 1075     	 strb r0,[r2,#20]
 424:C:/Workspace/DAVE-4.4.2-64Bit/optiga-trust-m/optiga/cmd\optiga_cmd.c **** }
 1146              	 .loc 1 424 0
 1147 006a 5175     	 strb r1,[r2,#21]
 1148              	.LBE121:
 1149              	.LBE123:
1545:C:/Workspace/DAVE-4.4.2-64Bit/optiga-trust-m/optiga/cmd\optiga_cmd.c **** 
1546:C:/Workspace/DAVE-4.4.2-64Bit/optiga-trust-m/optiga/cmd\optiga_cmd.c ****             me->p_optiga->comms_tx_size = index_for_data - OPTIGA_COMMS_DATA_OFFSET;
 1150              	 .loc 1 1546 0
 1151 006c 3268     	 ldr r2,[r6]
 1152              	.LVL104:
 1153 006e 053B     	 sub r3,r3,#5
 1154              	.LVL105:
 1155 0070 9380     	 strh r3,[r2,#4]
1547:C:/Workspace/DAVE-4.4.2-64Bit/optiga-trust-m/optiga/cmd\optiga_cmd.c ****             p_optiga_read_data->last_read_size = size_to_read;
 1156              	 .loc 1 1547 0
 1157 0072 2581     	 strh r5,[r4,#8]
 1158              	.LVL106:
1548:C:/Workspace/DAVE-4.4.2-64Bit/optiga-trust-m/optiga/cmd\optiga_cmd.c ****             return_status = OPTIGA_LIB_SUCCESS;
1549:C:/Workspace/DAVE-4.4.2-64Bit/optiga-trust-m/optiga/cmd\optiga_cmd.c ****         }
1550:C:/Workspace/DAVE-4.4.2-64Bit/optiga-trust-m/optiga/cmd\optiga_cmd.c ****         break;
 1159              	 .loc 1 1550 0
 1160 0074 43E0     	 b .L84
 1161              	.LVL107:
 1162              	.L86:
1551:C:/Workspace/DAVE-4.4.2-64Bit/optiga-trust-m/optiga/cmd\optiga_cmd.c ****         case OPTIGA_CMD_EXEC_PROCESS_RESPONSE:
1552:C:/Workspace/DAVE-4.4.2-64Bit/optiga-trust-m/optiga/cmd\optiga_cmd.c ****         {
1553:C:/Workspace/DAVE-4.4.2-64Bit/optiga-trust-m/optiga/cmd\optiga_cmd.c ****             OPTIGA_CMD_LOG_MESSAGE("Processing response for read data command...");
1554:C:/Workspace/DAVE-4.4.2-64Bit/optiga-trust-m/optiga/cmd\optiga_cmd.c ****             me->chaining_ongoing = FALSE;
 1163              	 .loc 1 1554 0
 1164 0076 0023     	 mov r3,#0
1555:C:/Workspace/DAVE-4.4.2-64Bit/optiga-trust-m/optiga/cmd\optiga_cmd.c ****             // check if the read was successful
1556:C:/Workspace/DAVE-4.4.2-64Bit/optiga-trust-m/optiga/cmd\optiga_cmd.c ****             if (OPTIGA_CMD_APDU_SUCCESS != me->p_optiga->optiga_comms_buffer[OPTIGA_COMMS_DATA_OFFS
 1165              	 .loc 1 1556 0
 1166 0078 0168     	 ldr r1,[r0]
1554:C:/Workspace/DAVE-4.4.2-64Bit/optiga-trust-m/optiga/cmd\optiga_cmd.c ****             // check if the read was successful
 1167              	 .loc 1 1554 0
 1168 007a C375     	 strb r3,[r0,#23]
 1169              	 .loc 1 1556 0
 1170 007c 8D7C     	 ldrb r5,[r1,#18]
 1171 007e 9D42     	 cmp r5,r3
 1172 0080 0ED0     	 beq .L90
 1173 0082 017F     	 ldrb r1,[r0,#28]
1557:C:/Workspace/DAVE-4.4.2-64Bit/optiga-trust-m/optiga/cmd\optiga_cmd.c ****             {
1558:C:/Workspace/DAVE-4.4.2-64Bit/optiga-trust-m/optiga/cmd\optiga_cmd.c ****                 OPTIGA_CMD_LOG_MESSAGE("Error in processing read data response...");
1559:C:/Workspace/DAVE-4.4.2-64Bit/optiga-trust-m/optiga/cmd\optiga_cmd.c ****                 //check if it is out of boundary issue
1560:C:/Workspace/DAVE-4.4.2-64Bit/optiga-trust-m/optiga/cmd\optiga_cmd.c ****                 if (OPTIGA_CMD_ZERO_LENGTH_OR_VALUE != p_optiga_read_data->accumulated_size)
 1174              	 .loc 1 1560 0
 1175 0084 E288     	 ldrh r2,[r4,#6]
 1176 0086 7F33     	 add r3,r3,#127
1561:C:/Workspace/DAVE-4.4.2-64Bit/optiga-trust-m/optiga/cmd\optiga_cmd.c ****                 {
1562:C:/Workspace/DAVE-4.4.2-64Bit/optiga-trust-m/optiga/cmd\optiga_cmd.c ****                     SET_DEV_ERROR_NOTIFICATION(OPTIGA_CMD_ENTER_HANDLER_CALL);
 1177              	 .loc 1 1562 0
 1178 0088 0B40     	 and r3,r1
1560:C:/Workspace/DAVE-4.4.2-64Bit/optiga-trust-m/optiga/cmd\optiga_cmd.c ****                 {
 1179              	 .loc 1 1560 0
 1180 008a 002A     	 cmp r2,#0
 1181 008c 04D0     	 beq .L91
 1182              	 .loc 1 1562 0
 1183 008e 8022     	 mov r2,#128
 1184 0090 5242     	 neg r2,r2
 1185 0092 1343     	 orr r3,r2
 1186 0094 0377     	 strb r3,[r0,#28]
 1187 0096 31E0     	 b .L99
 1188              	.L91:
1563:C:/Workspace/DAVE-4.4.2-64Bit/optiga-trust-m/optiga/cmd\optiga_cmd.c ****                 }
1564:C:/Workspace/DAVE-4.4.2-64Bit/optiga-trust-m/optiga/cmd\optiga_cmd.c ****                 //flag used to setting the received buffer length to 0, in case unexpected error
1565:C:/Workspace/DAVE-4.4.2-64Bit/optiga-trust-m/optiga/cmd\optiga_cmd.c ****                 else
1566:C:/Workspace/DAVE-4.4.2-64Bit/optiga-trust-m/optiga/cmd\optiga_cmd.c ****                 {
1567:C:/Workspace/DAVE-4.4.2-64Bit/optiga-trust-m/optiga/cmd\optiga_cmd.c ****                     SET_DEV_ERROR_NOTIFICATION(OPTIGA_CMD_EXIT_HANDLER_CALL);
 1189              	 .loc 1 1567 0
 1190 0098 0377     	 strb r3,[r0,#28]
1568:C:/Workspace/DAVE-4.4.2-64Bit/optiga-trust-m/optiga/cmd\optiga_cmd.c ****                     *(p_optiga_read_data->ref_bytes_to_read) = 0x00;
 1191              	 .loc 1 1568 0
 1192 009a E368     	 ldr r3,[r4,#12]
 1193 009c 1A80     	 strh r2,[r3]
 1194 009e 2DE0     	 b .L99
 1195              	.L90:
1569:C:/Workspace/DAVE-4.4.2-64Bit/optiga-trust-m/optiga/cmd\optiga_cmd.c ****                 }
1570:C:/Workspace/DAVE-4.4.2-64Bit/optiga-trust-m/optiga/cmd\optiga_cmd.c ****                 return_status = OPTIGA_CMD_ERROR;
1571:C:/Workspace/DAVE-4.4.2-64Bit/optiga-trust-m/optiga/cmd\optiga_cmd.c ****             }
1572:C:/Workspace/DAVE-4.4.2-64Bit/optiga-trust-m/optiga/cmd\optiga_cmd.c ****             else if (me->exit_status == (optiga_lib_status_t)(OPTIGA_CMD_OUT_OF_BOUNDARY_ERROR | OP
 1196              	 .loc 1 1572 0
 1197 00a0 C28B     	 ldrh r2,[r0,#30]
 1198 00a2 194B     	 ldr r3,.L101+8
 1199 00a4 9A42     	 cmp r2,r3
 1200 00a6 03D1     	 bne .L92
1573:C:/Workspace/DAVE-4.4.2-64Bit/optiga-trust-m/optiga/cmd\optiga_cmd.c ****             {
1574:C:/Workspace/DAVE-4.4.2-64Bit/optiga-trust-m/optiga/cmd\optiga_cmd.c ****                 *(p_optiga_read_data->ref_bytes_to_read) = p_optiga_read_data->accumulated_size;
 1201              	 .loc 1 1574 0
 1202 00a8 E288     	 ldrh r2,[r4,#6]
 1203 00aa E368     	 ldr r3,[r4,#12]
 1204 00ac 1A80     	 strh r2,[r3]
 1205              	.LVL108:
 1206 00ae 23E0     	 b .L100
 1207              	.LVL109:
 1208              	.L92:
1575:C:/Workspace/DAVE-4.4.2-64Bit/optiga-trust-m/optiga/cmd\optiga_cmd.c ****                 return_status = OPTIGA_LIB_SUCCESS;
1576:C:/Workspace/DAVE-4.4.2-64Bit/optiga-trust-m/optiga/cmd\optiga_cmd.c ****             }
1577:C:/Workspace/DAVE-4.4.2-64Bit/optiga-trust-m/optiga/cmd\optiga_cmd.c ****             else
1578:C:/Workspace/DAVE-4.4.2-64Bit/optiga-trust-m/optiga/cmd\optiga_cmd.c ****             {
1579:C:/Workspace/DAVE-4.4.2-64Bit/optiga-trust-m/optiga/cmd\optiga_cmd.c ****                 //copy data from optiga comms buffer to user provided buffer
1580:C:/Workspace/DAVE-4.4.2-64Bit/optiga-trust-m/optiga/cmd\optiga_cmd.c ****                 data_read = me->p_optiga->comms_rx_size - OPTIGA_CMD_APDU_HEADER_SIZE;
 1209              	 .loc 1 1580 0
 1210 00b0 CF88     	 ldrh r7,[r1,#6]
1581:C:/Workspace/DAVE-4.4.2-64Bit/optiga-trust-m/optiga/cmd\optiga_cmd.c **** 
1582:C:/Workspace/DAVE-4.4.2-64Bit/optiga-trust-m/optiga/cmd\optiga_cmd.c ****                 // check if the data received is greater than the size of read buffer
1583:C:/Workspace/DAVE-4.4.2-64Bit/optiga-trust-m/optiga/cmd\optiga_cmd.c ****                 if (p_optiga_read_data->bytes_to_read < data_read)
 1211              	 .loc 1 1583 0
 1212 00b2 A388     	 ldrh r3,[r4,#4]
1580:C:/Workspace/DAVE-4.4.2-64Bit/optiga-trust-m/optiga/cmd\optiga_cmd.c **** 
 1213              	 .loc 1 1580 0
 1214 00b4 043F     	 sub r7,r7,#4
 1215 00b6 BFB2     	 uxth r7,r7
 1216              	.LVL110:
 1217              	 .loc 1 1583 0
 1218 00b8 BB42     	 cmp r3,r7
 1219 00ba 04D2     	 bcs .L93
 1220              	.LVL111:
1584:C:/Workspace/DAVE-4.4.2-64Bit/optiga-trust-m/optiga/cmd\optiga_cmd.c ****                 {
1585:C:/Workspace/DAVE-4.4.2-64Bit/optiga-trust-m/optiga/cmd\optiga_cmd.c ****                     OPTIGA_CMD_LOG_MESSAGE("Error in processing read data response...");
1586:C:/Workspace/DAVE-4.4.2-64Bit/optiga-trust-m/optiga/cmd\optiga_cmd.c ****                     return_status = OPTIGA_CMD_ERROR_MEMORY_INSUFFICIENT;
 1221              	 .loc 1 1586 0
 1222 00bc 8120     	 mov r0,#129
 1223              	.LVL112:
1587:C:/Workspace/DAVE-4.4.2-64Bit/optiga-trust-m/optiga/cmd\optiga_cmd.c ****                     *(p_optiga_read_data->ref_bytes_to_read) = 0x00;
 1224              	 .loc 1 1587 0
 1225 00be E368     	 ldr r3,[r4,#12]
1586:C:/Workspace/DAVE-4.4.2-64Bit/optiga-trust-m/optiga/cmd\optiga_cmd.c ****                     *(p_optiga_read_data->ref_bytes_to_read) = 0x00;
 1226              	 .loc 1 1586 0
 1227 00c0 8000     	 lsl r0,r0,#2
 1228              	 .loc 1 1587 0
 1229 00c2 1D80     	 strh r5,[r3]
1588:C:/Workspace/DAVE-4.4.2-64Bit/optiga-trust-m/optiga/cmd\optiga_cmd.c ****                     break;
 1230              	 .loc 1 1588 0
 1231 00c4 1BE0     	 b .L84
 1232              	.LVL113:
 1233              	.L93:
1589:C:/Workspace/DAVE-4.4.2-64Bit/optiga-trust-m/optiga/cmd\optiga_cmd.c ****                 }
1590:C:/Workspace/DAVE-4.4.2-64Bit/optiga-trust-m/optiga/cmd\optiga_cmd.c **** 
1591:C:/Workspace/DAVE-4.4.2-64Bit/optiga-trust-m/optiga/cmd\optiga_cmd.c ****                 //copy data from optiga comms buffer to user provided buffer
1592:C:/Workspace/DAVE-4.4.2-64Bit/optiga-trust-m/optiga/cmd\optiga_cmd.c ****                 pal_os_memcpy(p_optiga_read_data->buffer + p_optiga_read_data->accumulated_size,
 1234              	 .loc 1 1592 0
 1235 00c6 2369     	 ldr r3,[r4,#16]
 1236 00c8 E088     	 ldrh r0,[r4,#6]
 1237              	.LVL114:
 1238 00ca 3A1C     	 mov r2,r7
 1239 00cc 1818     	 add r0,r3,r0
 1240 00ce 1631     	 add r1,r1,#22
 1241 00d0 FFF7FEFF 	 bl memcpy
 1242              	.LVL115:
1593:C:/Workspace/DAVE-4.4.2-64Bit/optiga-trust-m/optiga/cmd\optiga_cmd.c ****                               me->p_optiga->optiga_comms_buffer + OPTIGA_CMD_APDU_INDATA_OFFSET,
1594:C:/Workspace/DAVE-4.4.2-64Bit/optiga-trust-m/optiga/cmd\optiga_cmd.c ****                               data_read);
1595:C:/Workspace/DAVE-4.4.2-64Bit/optiga-trust-m/optiga/cmd\optiga_cmd.c **** 
1596:C:/Workspace/DAVE-4.4.2-64Bit/optiga-trust-m/optiga/cmd\optiga_cmd.c ****                 p_optiga_read_data->accumulated_size += data_read;
 1243              	 .loc 1 1596 0
 1244 00d4 E388     	 ldrh r3,[r4,#6]
1597:C:/Workspace/DAVE-4.4.2-64Bit/optiga-trust-m/optiga/cmd\optiga_cmd.c **** 
1598:C:/Workspace/DAVE-4.4.2-64Bit/optiga-trust-m/optiga/cmd\optiga_cmd.c ****                 if ((p_optiga_read_data->last_read_size > data_read) ||
 1245              	 .loc 1 1598 0
 1246 00d6 2289     	 ldrh r2,[r4,#8]
1596:C:/Workspace/DAVE-4.4.2-64Bit/optiga-trust-m/optiga/cmd\optiga_cmd.c **** 
 1247              	 .loc 1 1596 0
 1248 00d8 FB18     	 add r3,r7,r3
 1249 00da 9BB2     	 uxth r3,r3
 1250 00dc E380     	 strh r3,[r4,#6]
 1251              	 .loc 1 1598 0
 1252 00de BA42     	 cmp r2,r7
 1253 00e0 02D8     	 bhi .L94
 1254              	 .loc 1 1598 0 is_stmt 0 discriminator 1
 1255 00e2 A288     	 ldrh r2,[r4,#4]
 1256 00e4 9A42     	 cmp r2,r3
 1257 00e6 05D1     	 bne .L95
 1258              	.L94:
1599:C:/Workspace/DAVE-4.4.2-64Bit/optiga-trust-m/optiga/cmd\optiga_cmd.c ****                     (p_optiga_read_data->accumulated_size == p_optiga_read_data->bytes_to_read))
1600:C:/Workspace/DAVE-4.4.2-64Bit/optiga-trust-m/optiga/cmd\optiga_cmd.c ****                 {
1601:C:/Workspace/DAVE-4.4.2-64Bit/optiga-trust-m/optiga/cmd\optiga_cmd.c ****                     *(p_optiga_read_data->ref_bytes_to_read) = p_optiga_read_data->accumulated_size
1602:C:/Workspace/DAVE-4.4.2-64Bit/optiga-trust-m/optiga/cmd\optiga_cmd.c ****                     p_optiga_read_data->accumulated_size = 0;
 1259              	 .loc 1 1602 0 is_stmt 1
 1260 00e8 0020     	 mov r0,#0
1601:C:/Workspace/DAVE-4.4.2-64Bit/optiga-trust-m/optiga/cmd\optiga_cmd.c ****                     p_optiga_read_data->accumulated_size = 0;
 1261              	 .loc 1 1601 0
 1262 00ea E268     	 ldr r2,[r4,#12]
 1263 00ec 1380     	 strh r3,[r2]
 1264              	 .loc 1 1602 0
 1265 00ee E080     	 strh r0,[r4,#6]
1603:C:/Workspace/DAVE-4.4.2-64Bit/optiga-trust-m/optiga/cmd\optiga_cmd.c ****                     p_optiga_read_data->last_read_size = 0;
 1266              	 .loc 1 1603 0
 1267 00f0 2081     	 strh r0,[r4,#8]
 1268 00f2 04E0     	 b .L84
 1269              	.L95:
1604:C:/Workspace/DAVE-4.4.2-64Bit/optiga-trust-m/optiga/cmd\optiga_cmd.c ****                 }
1605:C:/Workspace/DAVE-4.4.2-64Bit/optiga-trust-m/optiga/cmd\optiga_cmd.c ****                 else
1606:C:/Workspace/DAVE-4.4.2-64Bit/optiga-trust-m/optiga/cmd\optiga_cmd.c ****                 {
1607:C:/Workspace/DAVE-4.4.2-64Bit/optiga-trust-m/optiga/cmd\optiga_cmd.c ****                     me->chaining_ongoing = TRUE;
 1270              	 .loc 1 1607 0
 1271 00f4 0123     	 mov r3,#1
 1272 00f6 F375     	 strb r3,[r6,#23]
 1273              	.LVL116:
 1274              	.L100:
1608:C:/Workspace/DAVE-4.4.2-64Bit/optiga-trust-m/optiga/cmd\optiga_cmd.c ****                 }
1609:C:/Workspace/DAVE-4.4.2-64Bit/optiga-trust-m/optiga/cmd\optiga_cmd.c ****                 OPTIGA_CMD_LOG_MESSAGE("Response of read data command is processed...");
1610:C:/Workspace/DAVE-4.4.2-64Bit/optiga-trust-m/optiga/cmd\optiga_cmd.c ****                 return_status = OPTIGA_LIB_SUCCESS;
 1275              	 .loc 1 1610 0
 1276 00f8 281C     	 mov r0,r5
 1277 00fa 00E0     	 b .L84
 1278              	.LVL117:
 1279              	.L99:
1496:C:/Workspace/DAVE-4.4.2-64Bit/optiga-trust-m/optiga/cmd\optiga_cmd.c ****     uint16_t index_for_data = OPTIGA_CMD_APDU_INDATA_OFFSET;
 1280              	 .loc 1 1496 0
 1281 00fc 0348     	 ldr r0,.L101+12
 1282              	.LVL118:
 1283              	.L84:
1611:C:/Workspace/DAVE-4.4.2-64Bit/optiga-trust-m/optiga/cmd\optiga_cmd.c ****             }
1612:C:/Workspace/DAVE-4.4.2-64Bit/optiga-trust-m/optiga/cmd\optiga_cmd.c ****         }
1613:C:/Workspace/DAVE-4.4.2-64Bit/optiga-trust-m/optiga/cmd\optiga_cmd.c ****         break;
1614:C:/Workspace/DAVE-4.4.2-64Bit/optiga-trust-m/optiga/cmd\optiga_cmd.c ****         default:
1615:C:/Workspace/DAVE-4.4.2-64Bit/optiga-trust-m/optiga/cmd\optiga_cmd.c ****             break;
1616:C:/Workspace/DAVE-4.4.2-64Bit/optiga-trust-m/optiga/cmd\optiga_cmd.c ****     }
1617:C:/Workspace/DAVE-4.4.2-64Bit/optiga-trust-m/optiga/cmd\optiga_cmd.c **** 
1618:C:/Workspace/DAVE-4.4.2-64Bit/optiga-trust-m/optiga/cmd\optiga_cmd.c ****     return (return_status);
1619:C:/Workspace/DAVE-4.4.2-64Bit/optiga-trust-m/optiga/cmd\optiga_cmd.c **** }
 1284              	 .loc 1 1619 0
 1285              	 
 1286              	.LVL119:
 1287              	.LVL120:
 1288 00fe F8BD     	 pop {r3,r4,r5,r6,r7,pc}
 1289              	.L102:
 1290              	 .align 2
 1291              	.L101:
 1292 0100 11060000 	 .word 1553
 1293 0104 C2F10000 	 .word 61890
 1294 0108 08800000 	 .word 32776
 1295 010c 02020000 	 .word 514
 1296              	 .cfi_endproc
 1297              	.LFE29:
 1299              	 .section .text.optiga_cmd_set_data_object_handler,"ax",%progbits
 1300              	 .align 1
 1301              	 .code 16
 1302              	 .thumb_func
 1304              	optiga_cmd_set_data_object_handler:
 1305              	.LFB31:
1620:C:/Workspace/DAVE-4.4.2-64Bit/optiga-trust-m/optiga/cmd\optiga_cmd.c **** 
1621:C:/Workspace/DAVE-4.4.2-64Bit/optiga-trust-m/optiga/cmd\optiga_cmd.c **** optiga_lib_status_t optiga_cmd_get_data_object(optiga_cmd_t * me, uint8_t cmd_param,
1622:C:/Workspace/DAVE-4.4.2-64Bit/optiga-trust-m/optiga/cmd\optiga_cmd.c ****                                                optiga_get_data_object_params_t * params)
1623:C:/Workspace/DAVE-4.4.2-64Bit/optiga-trust-m/optiga/cmd\optiga_cmd.c **** {
1624:C:/Workspace/DAVE-4.4.2-64Bit/optiga-trust-m/optiga/cmd\optiga_cmd.c ****     OPTIGA_CMD_LOG_MESSAGE(__FUNCTION__);
1625:C:/Workspace/DAVE-4.4.2-64Bit/optiga-trust-m/optiga/cmd\optiga_cmd.c ****     optiga_cmd_execute(me,
1626:C:/Workspace/DAVE-4.4.2-64Bit/optiga-trust-m/optiga/cmd\optiga_cmd.c ****                        cmd_param,
1627:C:/Workspace/DAVE-4.4.2-64Bit/optiga-trust-m/optiga/cmd\optiga_cmd.c ****                        optiga_cmd_get_data_object_handler,
1628:C:/Workspace/DAVE-4.4.2-64Bit/optiga-trust-m/optiga/cmd\optiga_cmd.c ****                        OPTIGA_CMD_EXEC_REQUEST_LOCK,
1629:C:/Workspace/DAVE-4.4.2-64Bit/optiga-trust-m/optiga/cmd\optiga_cmd.c ****                        params);
1630:C:/Workspace/DAVE-4.4.2-64Bit/optiga-trust-m/optiga/cmd\optiga_cmd.c **** 
1631:C:/Workspace/DAVE-4.4.2-64Bit/optiga-trust-m/optiga/cmd\optiga_cmd.c ****     return (OPTIGA_LIB_SUCCESS);
1632:C:/Workspace/DAVE-4.4.2-64Bit/optiga-trust-m/optiga/cmd\optiga_cmd.c **** }
1633:C:/Workspace/DAVE-4.4.2-64Bit/optiga-trust-m/optiga/cmd\optiga_cmd.c **** 
1634:C:/Workspace/DAVE-4.4.2-64Bit/optiga-trust-m/optiga/cmd\optiga_cmd.c **** /*
1635:C:/Workspace/DAVE-4.4.2-64Bit/optiga-trust-m/optiga/cmd\optiga_cmd.c **** * Set Data Object handler
1636:C:/Workspace/DAVE-4.4.2-64Bit/optiga-trust-m/optiga/cmd\optiga_cmd.c **** */
1637:C:/Workspace/DAVE-4.4.2-64Bit/optiga-trust-m/optiga/cmd\optiga_cmd.c **** _STATIC_H optiga_lib_status_t optiga_cmd_set_data_object_handler(optiga_cmd_t * me)
1638:C:/Workspace/DAVE-4.4.2-64Bit/optiga-trust-m/optiga/cmd\optiga_cmd.c **** {
 1306              	 .loc 1 1638 0
 1307              	 .cfi_startproc
 1308              	.LVL121:
 1309 0000 F7B5     	 push {r0,r1,r2,r4,r5,r6,r7,lr}
 1310              	.LCFI7:
 1311              	 .cfi_def_cfa_offset 32
 1312              	 .cfi_offset 0,-32
 1313              	 .cfi_offset 1,-28
 1314              	 .cfi_offset 2,-24
 1315              	 .cfi_offset 4,-20
 1316              	 .cfi_offset 5,-16
 1317              	 .cfi_offset 6,-12
 1318              	 .cfi_offset 7,-8
 1319              	 .cfi_offset 14,-4
1639:C:/Workspace/DAVE-4.4.2-64Bit/optiga-trust-m/optiga/cmd\optiga_cmd.c ****     uint16_t total_apdu_length;
1640:C:/Workspace/DAVE-4.4.2-64Bit/optiga-trust-m/optiga/cmd\optiga_cmd.c ****     optiga_set_data_object_params_t * p_optiga_write_data = (optiga_set_data_object_params_t *)me->
1641:C:/Workspace/DAVE-4.4.2-64Bit/optiga-trust-m/optiga/cmd\optiga_cmd.c ****     optiga_lib_status_t return_status = OPTIGA_CMD_ERROR;
1642:C:/Workspace/DAVE-4.4.2-64Bit/optiga-trust-m/optiga/cmd\optiga_cmd.c ****     uint16_t size_to_send;
1643:C:/Workspace/DAVE-4.4.2-64Bit/optiga-trust-m/optiga/cmd\optiga_cmd.c ****     uint16_t index_for_data = OPTIGA_CMD_APDU_INDATA_OFFSET;
1644:C:/Workspace/DAVE-4.4.2-64Bit/optiga-trust-m/optiga/cmd\optiga_cmd.c **** 
1645:C:/Workspace/DAVE-4.4.2-64Bit/optiga-trust-m/optiga/cmd\optiga_cmd.c ****     switch ((uint8_t)me->cmd_next_execution_state)
 1320              	 .loc 1 1645 0
 1321 0002 837D     	 ldrb r3,[r0,#22]
1640:C:/Workspace/DAVE-4.4.2-64Bit/optiga-trust-m/optiga/cmd\optiga_cmd.c ****     optiga_lib_status_t return_status = OPTIGA_CMD_ERROR;
 1322              	 .loc 1 1640 0
 1323 0004 8568     	 ldr r5,[r0,#8]
 1324              	.LVL122:
 1325              	 .loc 1 1645 0
 1326 0006 082B     	 cmp r3,#8
 1327 0008 02D0     	 beq .L105
 1328 000a 092B     	 cmp r3,#9
 1329 000c 49D0     	 beq .L106
 1330 000e 50E0     	 b .L117
 1331              	.L105:
1646:C:/Workspace/DAVE-4.4.2-64Bit/optiga-trust-m/optiga/cmd\optiga_cmd.c ****     {
1647:C:/Workspace/DAVE-4.4.2-64Bit/optiga-trust-m/optiga/cmd\optiga_cmd.c ****         case OPTIGA_CMD_EXEC_PREPARE_COMMAND:
1648:C:/Workspace/DAVE-4.4.2-64Bit/optiga-trust-m/optiga/cmd\optiga_cmd.c ****         {
1649:C:/Workspace/DAVE-4.4.2-64Bit/optiga-trust-m/optiga/cmd\optiga_cmd.c **** 
1650:C:/Workspace/DAVE-4.4.2-64Bit/optiga-trust-m/optiga/cmd\optiga_cmd.c ****             OPTIGA_CMD_LOG_MESSAGE("Sending set data command...");
1651:C:/Workspace/DAVE-4.4.2-64Bit/optiga-trust-m/optiga/cmd\optiga_cmd.c ****             me->chaining_ongoing = FALSE;
 1332              	 .loc 1 1651 0
 1333 0010 0023     	 mov r3,#0
 1334 0012 041C     	 mov r4,r0
 1335 0014 C375     	 strb r3,[r0,#23]
1652:C:/Workspace/DAVE-4.4.2-64Bit/optiga-trust-m/optiga/cmd\optiga_cmd.c ****             //oid
1653:C:/Workspace/DAVE-4.4.2-64Bit/optiga-trust-m/optiga/cmd\optiga_cmd.c ****             optiga_common_set_uint16(&me->p_optiga->optiga_comms_buffer[index_for_data],
 1336              	 .loc 1 1653 0
 1337 0016 0068     	 ldr r0,[r0]
 1338              	.LVL123:
 1339 0018 2988     	 ldrh r1,[r5]
 1340 001a 1630     	 add r0,r0,#22
 1341 001c FFF7FEFF 	 bl optiga_common_set_uint16
 1342              	.LVL124:
1654:C:/Workspace/DAVE-4.4.2-64Bit/optiga-trust-m/optiga/cmd\optiga_cmd.c ****                                      p_optiga_write_data->oid);
1655:C:/Workspace/DAVE-4.4.2-64Bit/optiga-trust-m/optiga/cmd\optiga_cmd.c ****             index_for_data += OPTIGA_CMD_UINT16_SIZE_IN_BYTES;
1656:C:/Workspace/DAVE-4.4.2-64Bit/optiga-trust-m/optiga/cmd\optiga_cmd.c **** 
1657:C:/Workspace/DAVE-4.4.2-64Bit/optiga-trust-m/optiga/cmd\optiga_cmd.c ****             //offset
1658:C:/Workspace/DAVE-4.4.2-64Bit/optiga-trust-m/optiga/cmd\optiga_cmd.c ****             optiga_common_set_uint16(&me->p_optiga->optiga_comms_buffer[index_for_data],
 1343              	 .loc 1 1658 0
 1344 0020 6B88     	 ldrh r3,[r5,#2]
 1345 0022 E988     	 ldrh r1,[r5,#6]
 1346 0024 2068     	 ldr r0,[r4]
 1347 0026 C918     	 add r1,r1,r3
 1348 0028 1830     	 add r0,r0,#24
 1349 002a 89B2     	 uxth r1,r1
 1350 002c FFF7FEFF 	 bl optiga_common_set_uint16
 1351              	.LVL125:
1659:C:/Workspace/DAVE-4.4.2-64Bit/optiga-trust-m/optiga/cmd\optiga_cmd.c ****                                      (p_optiga_write_data->offset + p_optiga_write_data->written_si
1660:C:/Workspace/DAVE-4.4.2-64Bit/optiga-trust-m/optiga/cmd\optiga_cmd.c ****             index_for_data += OPTIGA_CMD_UINT16_SIZE_IN_BYTES;
1661:C:/Workspace/DAVE-4.4.2-64Bit/optiga-trust-m/optiga/cmd\optiga_cmd.c **** 
1662:C:/Workspace/DAVE-4.4.2-64Bit/optiga-trust-m/optiga/cmd\optiga_cmd.c ****             // Check maximum size that can be written, based on optiga comms buffer size
1663:C:/Workspace/DAVE-4.4.2-64Bit/optiga-trust-m/optiga/cmd\optiga_cmd.c ****             size_to_send = MIN((OPTIGA_MAX_COMMS_BUFFER_SIZE + OPTIGA_COMMS_DATA_OFFSET - index_for
 1352              	 .loc 1 1663 0
 1353 0030 EB88     	 ldrh r3,[r5,#6]
 1354 0032 AA88     	 ldrh r2,[r5,#4]
 1355 0034 D21A     	 sub r2,r2,r3
 1356 0036 214B     	 ldr r3,.L118
 1357 0038 9A42     	 cmp r2,r3
 1358 003a 00DD     	 ble .L107
 1359 003c 1A1C     	 mov r2,r3
 1360              	.L107:
 1361 003e 97B2     	 uxth r7,r2
 1362              	.LVL126:
1664:C:/Workspace/DAVE-4.4.2-64Bit/optiga-trust-m/optiga/cmd\optiga_cmd.c ****                                ((p_optiga_write_data->size) - p_optiga_write_data->written_size));
1665:C:/Workspace/DAVE-4.4.2-64Bit/optiga-trust-m/optiga/cmd\optiga_cmd.c **** 
1666:C:/Workspace/DAVE-4.4.2-64Bit/optiga-trust-m/optiga/cmd\optiga_cmd.c ****             // APDU header size + oid 2 bytes + offset 2 bytes + size of data to send
1667:C:/Workspace/DAVE-4.4.2-64Bit/optiga-trust-m/optiga/cmd\optiga_cmd.c ****             total_apdu_length = OPTIGA_CMD_APDU_HEADER_SIZE + OPTIGA_CMD_UINT16_SIZE_IN_BYTES +
 1363              	 .loc 1 1667 0
 1364 0040 3E1C     	 mov r6,r7
1668:C:/Workspace/DAVE-4.4.2-64Bit/optiga-trust-m/optiga/cmd\optiga_cmd.c ****                                     OPTIGA_CMD_UINT16_SIZE_IN_BYTES + size_to_send;
1669:C:/Workspace/DAVE-4.4.2-64Bit/optiga-trust-m/optiga/cmd\optiga_cmd.c ****             if (OPTIGA_MAX_COMMS_BUFFER_SIZE < total_apdu_length)
 1365              	 .loc 1 1669 0
 1366 0042 1F4B     	 ldr r3,.L118+4
1667:C:/Workspace/DAVE-4.4.2-64Bit/optiga-trust-m/optiga/cmd\optiga_cmd.c ****                                     OPTIGA_CMD_UINT16_SIZE_IN_BYTES + size_to_send;
 1367              	 .loc 1 1667 0
 1368 0044 0836     	 add r6,r6,#8
 1369 0046 B6B2     	 uxth r6,r6
 1370              	.LVL127:
 1371              	 .loc 1 1669 0
 1372 0048 9E42     	 cmp r6,r3
 1373 004a 34D8     	 bhi .L113
 1374              	.LBB124:
 1375              	.LBB125:
 421:C:/Workspace/DAVE-4.4.2-64Bit/optiga-trust-m/optiga/cmd\optiga_cmd.c ****     p_apdu_buffer [1] = param;
 1376              	 .loc 1 421 0
 1377 004c 8220     	 mov r0,#130
 1378              	.LBE125:
 1379              	.LBE124:
1670:C:/Workspace/DAVE-4.4.2-64Bit/optiga-trust-m/optiga/cmd\optiga_cmd.c ****             {
1671:C:/Workspace/DAVE-4.4.2-64Bit/optiga-trust-m/optiga/cmd\optiga_cmd.c ****                 return_status = OPTIGA_CMD_ERROR_MEMORY_INSUFFICIENT;
1672:C:/Workspace/DAVE-4.4.2-64Bit/optiga-trust-m/optiga/cmd\optiga_cmd.c ****                 break;
1673:C:/Workspace/DAVE-4.4.2-64Bit/optiga-trust-m/optiga/cmd\optiga_cmd.c ****             }
1674:C:/Workspace/DAVE-4.4.2-64Bit/optiga-trust-m/optiga/cmd\optiga_cmd.c **** 
1675:C:/Workspace/DAVE-4.4.2-64Bit/optiga-trust-m/optiga/cmd\optiga_cmd.c ****             // prepare apdu
1676:C:/Workspace/DAVE-4.4.2-64Bit/optiga-trust-m/optiga/cmd\optiga_cmd.c ****             optiga_cmd_prepare_apdu_header(OPTIGA_CMD_SET_DATA_OBJECT,
 1380              	 .loc 1 1676 0
 1381 004e 237E     	 ldrb r3,[r4,#24]
 1382 0050 391D     	 add r1,r7,#4
 1383 0052 0193     	 str r3,[sp,#4]
1677:C:/Workspace/DAVE-4.4.2-64Bit/optiga-trust-m/optiga/cmd\optiga_cmd.c ****                                            me->cmd_param,
1678:C:/Workspace/DAVE-4.4.2-64Bit/optiga-trust-m/optiga/cmd\optiga_cmd.c ****                                            (OPTIGA_CMD_APDU_HEADER_SIZE + size_to_send),
1679:C:/Workspace/DAVE-4.4.2-64Bit/optiga-trust-m/optiga/cmd\optiga_cmd.c ****                                            me->p_optiga->optiga_comms_buffer + OPTIGA_COMMS_DATA_OF
 1384              	 .loc 1 1679 0
 1385 0054 2368     	 ldr r3,[r4]
 1386              	.LVL128:
1676:C:/Workspace/DAVE-4.4.2-64Bit/optiga-trust-m/optiga/cmd\optiga_cmd.c ****                                            me->cmd_param,
 1387              	 .loc 1 1676 0
 1388 0056 89B2     	 uxth r1,r1
 1389              	.LVL129:
 1390              	.LBB127:
 1391              	.LBB126:
 421:C:/Workspace/DAVE-4.4.2-64Bit/optiga-trust-m/optiga/cmd\optiga_cmd.c ****     p_apdu_buffer [1] = param;
 1392              	 .loc 1 421 0
 1393 0058 9874     	 strb r0,[r3,#18]
 422:C:/Workspace/DAVE-4.4.2-64Bit/optiga-trust-m/optiga/cmd\optiga_cmd.c ****     p_apdu_buffer [2] = (uint8_t)((in_data_length & 0xFF00) >> 8);
 1394              	 .loc 1 422 0
 1395 005a 6846     	 mov r0,sp
 1396 005c 0079     	 ldrb r0,[r0,#4]
 424:C:/Workspace/DAVE-4.4.2-64Bit/optiga-trust-m/optiga/cmd\optiga_cmd.c **** }
 1397              	 .loc 1 424 0
 1398 005e 5975     	 strb r1,[r3,#21]
 422:C:/Workspace/DAVE-4.4.2-64Bit/optiga-trust-m/optiga/cmd\optiga_cmd.c ****     p_apdu_buffer [2] = (uint8_t)((in_data_length & 0xFF00) >> 8);
 1399              	 .loc 1 422 0
 1400 0060 D874     	 strb r0,[r3,#19]
 423:C:/Workspace/DAVE-4.4.2-64Bit/optiga-trust-m/optiga/cmd\optiga_cmd.c ****     p_apdu_buffer [3] = (uint8_t)(in_data_length & 0x00FF);
 1401              	 .loc 1 423 0
 1402 0062 080A     	 lsr r0,r1,#8
 1403 0064 1875     	 strb r0,[r3,#20]
 1404              	.LBE126:
 1405              	.LBE127:
1680:C:/Workspace/DAVE-4.4.2-64Bit/optiga-trust-m/optiga/cmd\optiga_cmd.c ****             //data to be written
1681:C:/Workspace/DAVE-4.4.2-64Bit/optiga-trust-m/optiga/cmd\optiga_cmd.c ****             if (OPTIGA_UTIL_COUNT_DATA_OBJECT == me->cmd_param)
 1406              	 .loc 1 1681 0
 1407 0066 237E     	 ldrb r3,[r4,#24]
 1408              	.LVL130:
 1409 0068 2068     	 ldr r0,[r4]
 1410 006a 022B     	 cmp r3,#2
 1411 006c 02D1     	 bne .L108
1682:C:/Workspace/DAVE-4.4.2-64Bit/optiga-trust-m/optiga/cmd\optiga_cmd.c ****             {
1683:C:/Workspace/DAVE-4.4.2-64Bit/optiga-trust-m/optiga/cmd\optiga_cmd.c ****                 *(me->p_optiga->optiga_comms_buffer + index_for_data) = p_optiga_write_data->count;
 1412              	 .loc 1 1683 0
 1413 006e AB7B     	 ldrb r3,[r5,#14]
 1414 0070 8376     	 strb r3,[r0,#26]
 1415 0072 06E0     	 b .L109
 1416              	.L108:
1684:C:/Workspace/DAVE-4.4.2-64Bit/optiga-trust-m/optiga/cmd\optiga_cmd.c ****             }
1685:C:/Workspace/DAVE-4.4.2-64Bit/optiga-trust-m/optiga/cmd\optiga_cmd.c ****             else
1686:C:/Workspace/DAVE-4.4.2-64Bit/optiga-trust-m/optiga/cmd\optiga_cmd.c ****             {
1687:C:/Workspace/DAVE-4.4.2-64Bit/optiga-trust-m/optiga/cmd\optiga_cmd.c ****                 pal_os_memcpy(me->p_optiga->optiga_comms_buffer + index_for_data,
 1417              	 .loc 1 1687 0
 1418 0074 E988     	 ldrh r1,[r5,#6]
 1419              	.LVL131:
 1420 0076 AB68     	 ldr r3,[r5,#8]
 1421 0078 1A30     	 add r0,r0,#26
 1422 007a 92B2     	 uxth r2,r2
 1423 007c 5918     	 add r1,r3,r1
 1424 007e FFF7FEFF 	 bl memcpy
 1425              	.LVL132:
 1426              	.L109:
1688:C:/Workspace/DAVE-4.4.2-64Bit/optiga-trust-m/optiga/cmd\optiga_cmd.c ****                               p_optiga_write_data->buffer + p_optiga_write_data->written_size,
1689:C:/Workspace/DAVE-4.4.2-64Bit/optiga-trust-m/optiga/cmd\optiga_cmd.c ****                               size_to_send);
1690:C:/Workspace/DAVE-4.4.2-64Bit/optiga-trust-m/optiga/cmd\optiga_cmd.c ****             }
1691:C:/Workspace/DAVE-4.4.2-64Bit/optiga-trust-m/optiga/cmd\optiga_cmd.c ****             p_optiga_write_data->written_size += size_to_send;
 1427              	 .loc 1 1691 0
 1428 0082 EB88     	 ldrh r3,[r5,#6]
1692:C:/Workspace/DAVE-4.4.2-64Bit/optiga-trust-m/optiga/cmd\optiga_cmd.c **** 
1693:C:/Workspace/DAVE-4.4.2-64Bit/optiga-trust-m/optiga/cmd\optiga_cmd.c ****             me->p_optiga->comms_tx_size = (index_for_data + size_to_send - OPTIGA_COMMS_DATA_OFFSET
 1429              	 .loc 1 1693 0
 1430 0084 2268     	 ldr r2,[r4]
1691:C:/Workspace/DAVE-4.4.2-64Bit/optiga-trust-m/optiga/cmd\optiga_cmd.c **** 
 1431              	 .loc 1 1691 0
 1432 0086 FB18     	 add r3,r7,r3
 1433 0088 9BB2     	 uxth r3,r3
 1434 008a EB80     	 strh r3,[r5,#6]
 1435              	 .loc 1 1693 0
 1436 008c 9680     	 strh r6,[r2,#4]
1694:C:/Workspace/DAVE-4.4.2-64Bit/optiga-trust-m/optiga/cmd\optiga_cmd.c **** 
1695:C:/Workspace/DAVE-4.4.2-64Bit/optiga-trust-m/optiga/cmd\optiga_cmd.c ****             // check if chaining is required based on size written and the user requested write
1696:C:/Workspace/DAVE-4.4.2-64Bit/optiga-trust-m/optiga/cmd\optiga_cmd.c ****             if (p_optiga_write_data->written_size != p_optiga_write_data->size)
 1437              	 .loc 1 1696 0
 1438 008e AA88     	 ldrh r2,[r5,#4]
 1439 0090 9A42     	 cmp r2,r3
 1440 0092 01D1     	 bne .L110
 1441              	.LVL133:
 1442              	.L111:
1697:C:/Workspace/DAVE-4.4.2-64Bit/optiga-trust-m/optiga/cmd\optiga_cmd.c ****             {
1698:C:/Workspace/DAVE-4.4.2-64Bit/optiga-trust-m/optiga/cmd\optiga_cmd.c ****                 me->chaining_ongoing = TRUE;
1699:C:/Workspace/DAVE-4.4.2-64Bit/optiga-trust-m/optiga/cmd\optiga_cmd.c ****                 // For chaining, the 2nd loop will be Write only
1700:C:/Workspace/DAVE-4.4.2-64Bit/optiga-trust-m/optiga/cmd\optiga_cmd.c ****                 me->cmd_param = CMD_WRITE_ONLY;
1701:C:/Workspace/DAVE-4.4.2-64Bit/optiga-trust-m/optiga/cmd\optiga_cmd.c ****             }
1702:C:/Workspace/DAVE-4.4.2-64Bit/optiga-trust-m/optiga/cmd\optiga_cmd.c ****             return_status = OPTIGA_LIB_SUCCESS;
 1443              	 .loc 1 1702 0
 1444 0094 0020     	 mov r0,#0
 1445 0096 10E0     	 b .L104
 1446              	.LVL134:
 1447              	.L110:
1698:C:/Workspace/DAVE-4.4.2-64Bit/optiga-trust-m/optiga/cmd\optiga_cmd.c ****                 // For chaining, the 2nd loop will be Write only
 1448              	 .loc 1 1698 0
 1449 0098 0123     	 mov r3,#1
1700:C:/Workspace/DAVE-4.4.2-64Bit/optiga-trust-m/optiga/cmd\optiga_cmd.c ****             }
 1450              	 .loc 1 1700 0
 1451 009a 0020     	 mov r0,#0
1698:C:/Workspace/DAVE-4.4.2-64Bit/optiga-trust-m/optiga/cmd\optiga_cmd.c ****                 // For chaining, the 2nd loop will be Write only
 1452              	 .loc 1 1698 0
 1453 009c E375     	 strb r3,[r4,#23]
1700:C:/Workspace/DAVE-4.4.2-64Bit/optiga-trust-m/optiga/cmd\optiga_cmd.c ****             }
 1454              	 .loc 1 1700 0
 1455 009e 2076     	 strb r0,[r4,#24]
 1456 00a0 0BE0     	 b .L104
 1457              	.LVL135:
 1458              	.L106:
1703:C:/Workspace/DAVE-4.4.2-64Bit/optiga-trust-m/optiga/cmd\optiga_cmd.c ****         }
1704:C:/Workspace/DAVE-4.4.2-64Bit/optiga-trust-m/optiga/cmd\optiga_cmd.c ****         break;
1705:C:/Workspace/DAVE-4.4.2-64Bit/optiga-trust-m/optiga/cmd\optiga_cmd.c ****         case OPTIGA_CMD_EXEC_PROCESS_RESPONSE:
1706:C:/Workspace/DAVE-4.4.2-64Bit/optiga-trust-m/optiga/cmd\optiga_cmd.c ****         {
1707:C:/Workspace/DAVE-4.4.2-64Bit/optiga-trust-m/optiga/cmd\optiga_cmd.c ****             OPTIGA_CMD_LOG_MESSAGE("Processing response for set data command...");
1708:C:/Workspace/DAVE-4.4.2-64Bit/optiga-trust-m/optiga/cmd\optiga_cmd.c ****             // check if the write was successful
1709:C:/Workspace/DAVE-4.4.2-64Bit/optiga-trust-m/optiga/cmd\optiga_cmd.c ****             if (OPTIGA_CMD_APDU_SUCCESS != me->p_optiga->optiga_comms_buffer[OPTIGA_COMMS_DATA_OFFS
 1459              	 .loc 1 1709 0
 1460 00a2 0368     	 ldr r3,[r0]
 1461 00a4 9B7C     	 ldrb r3,[r3,#18]
 1462 00a6 002B     	 cmp r3,#0
 1463 00a8 F4D0     	 beq .L111
1710:C:/Workspace/DAVE-4.4.2-64Bit/optiga-trust-m/optiga/cmd\optiga_cmd.c ****             {
1711:C:/Workspace/DAVE-4.4.2-64Bit/optiga-trust-m/optiga/cmd\optiga_cmd.c ****                 OPTIGA_CMD_LOG_MESSAGE("Error in processing set data response...");
1712:C:/Workspace/DAVE-4.4.2-64Bit/optiga-trust-m/optiga/cmd\optiga_cmd.c ****                 SET_DEV_ERROR_NOTIFICATION(OPTIGA_CMD_EXIT_HANDLER_CALL);
 1464              	 .loc 1 1712 0
 1465 00aa 7F23     	 mov r3,#127
 1466 00ac 027F     	 ldrb r2,[r0,#28]
 1467 00ae 1340     	 and r3,r2
 1468 00b0 0377     	 strb r3,[r0,#28]
 1469              	.L117:
1641:C:/Workspace/DAVE-4.4.2-64Bit/optiga-trust-m/optiga/cmd\optiga_cmd.c ****     uint16_t size_to_send;
 1470              	 .loc 1 1641 0
 1471 00b2 0448     	 ldr r0,.L118+8
 1472              	.LVL136:
 1473 00b4 01E0     	 b .L104
 1474              	.LVL137:
 1475              	.L113:
1671:C:/Workspace/DAVE-4.4.2-64Bit/optiga-trust-m/optiga/cmd\optiga_cmd.c ****                 break;
 1476              	 .loc 1 1671 0
 1477 00b6 8120     	 mov r0,#129
 1478 00b8 8000     	 lsl r0,r0,#2
 1479              	.LVL138:
 1480              	.L104:
1713:C:/Workspace/DAVE-4.4.2-64Bit/optiga-trust-m/optiga/cmd\optiga_cmd.c ****                 break;
1714:C:/Workspace/DAVE-4.4.2-64Bit/optiga-trust-m/optiga/cmd\optiga_cmd.c ****             }
1715:C:/Workspace/DAVE-4.4.2-64Bit/optiga-trust-m/optiga/cmd\optiga_cmd.c ****             OPTIGA_CMD_LOG_MESSAGE("Response of set data command is processed...");
1716:C:/Workspace/DAVE-4.4.2-64Bit/optiga-trust-m/optiga/cmd\optiga_cmd.c ****             return_status = OPTIGA_LIB_SUCCESS;
1717:C:/Workspace/DAVE-4.4.2-64Bit/optiga-trust-m/optiga/cmd\optiga_cmd.c ****         }
1718:C:/Workspace/DAVE-4.4.2-64Bit/optiga-trust-m/optiga/cmd\optiga_cmd.c ****         break;
1719:C:/Workspace/DAVE-4.4.2-64Bit/optiga-trust-m/optiga/cmd\optiga_cmd.c ****         default:
1720:C:/Workspace/DAVE-4.4.2-64Bit/optiga-trust-m/optiga/cmd\optiga_cmd.c ****             break;
1721:C:/Workspace/DAVE-4.4.2-64Bit/optiga-trust-m/optiga/cmd\optiga_cmd.c ****     }
1722:C:/Workspace/DAVE-4.4.2-64Bit/optiga-trust-m/optiga/cmd\optiga_cmd.c ****     return (return_status);
1723:C:/Workspace/DAVE-4.4.2-64Bit/optiga-trust-m/optiga/cmd\optiga_cmd.c **** }
 1481              	 .loc 1 1723 0
 1482              	 
 1483              	.LVL139:
 1484 00ba FEBD     	 pop {r1,r2,r3,r4,r5,r6,r7,pc}
 1485              	.L119:
 1486              	 .align 2
 1487              	.L118:
 1488 00bc 0D060000 	 .word 1549
 1489 00c0 15060000 	 .word 1557
 1490 00c4 02020000 	 .word 514
 1491              	 .cfi_endproc
 1492              	.LFE31:
 1494              	 .section .text.optiga_cmd_get_random_handler,"ax",%progbits
 1495              	 .align 1
 1496              	 .code 16
 1497              	 .thumb_func
 1499              	optiga_cmd_get_random_handler:
 1500              	.LFB33:
1724:C:/Workspace/DAVE-4.4.2-64Bit/optiga-trust-m/optiga/cmd\optiga_cmd.c **** 
1725:C:/Workspace/DAVE-4.4.2-64Bit/optiga-trust-m/optiga/cmd\optiga_cmd.c **** 
1726:C:/Workspace/DAVE-4.4.2-64Bit/optiga-trust-m/optiga/cmd\optiga_cmd.c **** optiga_lib_status_t optiga_cmd_set_data_object(optiga_cmd_t * me, uint8_t cmd_param,
1727:C:/Workspace/DAVE-4.4.2-64Bit/optiga-trust-m/optiga/cmd\optiga_cmd.c ****                                                optiga_set_data_object_params_t * params)
1728:C:/Workspace/DAVE-4.4.2-64Bit/optiga-trust-m/optiga/cmd\optiga_cmd.c **** {
1729:C:/Workspace/DAVE-4.4.2-64Bit/optiga-trust-m/optiga/cmd\optiga_cmd.c ****     OPTIGA_CMD_LOG_MESSAGE(__FUNCTION__);
1730:C:/Workspace/DAVE-4.4.2-64Bit/optiga-trust-m/optiga/cmd\optiga_cmd.c ****     optiga_cmd_execute(me,
1731:C:/Workspace/DAVE-4.4.2-64Bit/optiga-trust-m/optiga/cmd\optiga_cmd.c ****                        cmd_param,
1732:C:/Workspace/DAVE-4.4.2-64Bit/optiga-trust-m/optiga/cmd\optiga_cmd.c ****                        optiga_cmd_set_data_object_handler,
1733:C:/Workspace/DAVE-4.4.2-64Bit/optiga-trust-m/optiga/cmd\optiga_cmd.c ****                        OPTIGA_CMD_EXEC_REQUEST_LOCK,
1734:C:/Workspace/DAVE-4.4.2-64Bit/optiga-trust-m/optiga/cmd\optiga_cmd.c ****                        params);
1735:C:/Workspace/DAVE-4.4.2-64Bit/optiga-trust-m/optiga/cmd\optiga_cmd.c **** 
1736:C:/Workspace/DAVE-4.4.2-64Bit/optiga-trust-m/optiga/cmd\optiga_cmd.c ****     return (OPTIGA_LIB_SUCCESS);
1737:C:/Workspace/DAVE-4.4.2-64Bit/optiga-trust-m/optiga/cmd\optiga_cmd.c **** }
1738:C:/Workspace/DAVE-4.4.2-64Bit/optiga-trust-m/optiga/cmd\optiga_cmd.c **** 
1739:C:/Workspace/DAVE-4.4.2-64Bit/optiga-trust-m/optiga/cmd\optiga_cmd.c **** #if defined (OPTIGA_CRYPT_RANDOM_ENABLED) || defined (OPTIGA_CRYPT_RSA_PRE_MASTER_SECRET_ENABLED)
1740:C:/Workspace/DAVE-4.4.2-64Bit/optiga-trust-m/optiga/cmd\optiga_cmd.c **** /*
1741:C:/Workspace/DAVE-4.4.2-64Bit/optiga-trust-m/optiga/cmd\optiga_cmd.c **** * Get Random handler
1742:C:/Workspace/DAVE-4.4.2-64Bit/optiga-trust-m/optiga/cmd\optiga_cmd.c **** */
1743:C:/Workspace/DAVE-4.4.2-64Bit/optiga-trust-m/optiga/cmd\optiga_cmd.c **** _STATIC_H optiga_lib_status_t optiga_cmd_get_random_handler(optiga_cmd_t * me)
1744:C:/Workspace/DAVE-4.4.2-64Bit/optiga-trust-m/optiga/cmd\optiga_cmd.c **** {
 1501              	 .loc 1 1744 0
 1502              	 .cfi_startproc
 1503              	.LVL140:
 1504 0000 73B5     	 push {r0,r1,r4,r5,r6,lr}
 1505              	.LCFI8:
 1506              	 .cfi_def_cfa_offset 24
 1507              	 .cfi_offset 0,-24
 1508              	 .cfi_offset 1,-20
 1509              	 .cfi_offset 4,-16
 1510              	 .cfi_offset 5,-12
 1511              	 .cfi_offset 6,-8
 1512              	 .cfi_offset 14,-4
1745:C:/Workspace/DAVE-4.4.2-64Bit/optiga-trust-m/optiga/cmd\optiga_cmd.c ****     uint16_t total_apdu_length;
1746:C:/Workspace/DAVE-4.4.2-64Bit/optiga-trust-m/optiga/cmd\optiga_cmd.c ****     optiga_get_random_params_t * p_random_params = (optiga_get_random_params_t *)me->p_input;
1747:C:/Workspace/DAVE-4.4.2-64Bit/optiga-trust-m/optiga/cmd\optiga_cmd.c ****     optiga_lib_status_t return_status = OPTIGA_CMD_ERROR;
1748:C:/Workspace/DAVE-4.4.2-64Bit/optiga-trust-m/optiga/cmd\optiga_cmd.c ****     uint16_t index_for_data = OPTIGA_CMD_APDU_INDATA_OFFSET;
 1513              	 .loc 1 1748 0
 1514 0002 6B46     	 mov r3,sp
 1515 0004 9D1D     	 add r5,r3,#6
 1516 0006 0923     	 mov r3,#9
 1517 0008 2B80     	 strh r3,[r5]
1749:C:/Workspace/DAVE-4.4.2-64Bit/optiga-trust-m/optiga/cmd\optiga_cmd.c **** 
1750:C:/Workspace/DAVE-4.4.2-64Bit/optiga-trust-m/optiga/cmd\optiga_cmd.c ****     switch ((uint8_t)me->cmd_next_execution_state)
 1518              	 .loc 1 1750 0
 1519 000a 837D     	 ldrb r3,[r0,#22]
1744:C:/Workspace/DAVE-4.4.2-64Bit/optiga-trust-m/optiga/cmd\optiga_cmd.c ****     uint16_t total_apdu_length;
 1520              	 .loc 1 1744 0
 1521 000c 041C     	 mov r4,r0
1746:C:/Workspace/DAVE-4.4.2-64Bit/optiga-trust-m/optiga/cmd\optiga_cmd.c ****     optiga_lib_status_t return_status = OPTIGA_CMD_ERROR;
 1522              	 .loc 1 1746 0
 1523 000e 8668     	 ldr r6,[r0,#8]
 1524              	.LVL141:
 1525              	 .loc 1 1750 0
 1526 0010 082B     	 cmp r3,#8
 1527 0012 02D0     	 beq .L122
 1528 0014 092B     	 cmp r3,#9
 1529 0016 4AD0     	 beq .L123
 1530 0018 5CE0     	 b .L139
 1531              	.L122:
 1532              	.LVL142:
1751:C:/Workspace/DAVE-4.4.2-64Bit/optiga-trust-m/optiga/cmd\optiga_cmd.c ****     {
1752:C:/Workspace/DAVE-4.4.2-64Bit/optiga-trust-m/optiga/cmd\optiga_cmd.c ****         case OPTIGA_CMD_EXEC_PREPARE_COMMAND:
1753:C:/Workspace/DAVE-4.4.2-64Bit/optiga-trust-m/optiga/cmd\optiga_cmd.c ****         {
1754:C:/Workspace/DAVE-4.4.2-64Bit/optiga-trust-m/optiga/cmd\optiga_cmd.c ****             OPTIGA_CMD_LOG_MESSAGE("Sending get random command...");
1755:C:/Workspace/DAVE-4.4.2-64Bit/optiga-trust-m/optiga/cmd\optiga_cmd.c ****             /// APDU header size + length of random
1756:C:/Workspace/DAVE-4.4.2-64Bit/optiga-trust-m/optiga/cmd\optiga_cmd.c ****             /// OID size in case of param 0x04
1757:C:/Workspace/DAVE-4.4.2-64Bit/optiga-trust-m/optiga/cmd\optiga_cmd.c ****             /// 0x41, Length and prepending optional data
1758:C:/Workspace/DAVE-4.4.2-64Bit/optiga-trust-m/optiga/cmd\optiga_cmd.c ****             total_apdu_length = OPTIGA_CMD_APDU_HEADER_SIZE + OPTIGA_CMD_UINT16_SIZE_IN_BYTES;
1759:C:/Workspace/DAVE-4.4.2-64Bit/optiga-trust-m/optiga/cmd\optiga_cmd.c ****             total_apdu_length += ((CMD_RANDOM_PARAM_TYPE_PRE_MASTER_SECRET == (uint8_t)me->cmd_para
 1533              	 .loc 1 1759 0
 1534 001a 027E     	 ldrb r2,[r0,#24]
 1535 001c 0023     	 mov r3,#0
 1536 001e 042A     	 cmp r2,#4
 1537 0020 02D1     	 bne .L124
 1538              	 .loc 1 1759 0 is_stmt 0 discriminator 1
 1539 0022 7388     	 ldrh r3,[r6,#2]
 1540 0024 0533     	 add r3,r3,#5
 1541 0026 9BB2     	 uxth r3,r3
 1542              	.L124:
 1543              	.LVL143:
 1544              	 .loc 1 1759 0 discriminator 4
 1545 0028 0633     	 add r3,r3,#6
 1546              	.LVL144:
1760:C:/Workspace/DAVE-4.4.2-64Bit/optiga-trust-m/optiga/cmd\optiga_cmd.c ****                                 (OPTIGA_CMD_UINT16_SIZE_IN_BYTES + OPTIGA_CMD_APDU_TL_LENGTH + p_ra
1761:C:/Workspace/DAVE-4.4.2-64Bit/optiga-trust-m/optiga/cmd\optiga_cmd.c **** 
1762:C:/Workspace/DAVE-4.4.2-64Bit/optiga-trust-m/optiga/cmd\optiga_cmd.c ****             if (OPTIGA_MAX_COMMS_BUFFER_SIZE < total_apdu_length)
 1547              	 .loc 1 1762 0 is_stmt 1 discriminator 4
 1548 002a 2D4A     	 ldr r2,.L140
 1549 002c 9BB2     	 uxth r3,r3
 1550 002e 9342     	 cmp r3,r2
 1551 0030 52D8     	 bhi .L132
1763:C:/Workspace/DAVE-4.4.2-64Bit/optiga-trust-m/optiga/cmd\optiga_cmd.c ****             {
1764:C:/Workspace/DAVE-4.4.2-64Bit/optiga-trust-m/optiga/cmd\optiga_cmd.c ****                 return_status = OPTIGA_CMD_ERROR_MEMORY_INSUFFICIENT;
1765:C:/Workspace/DAVE-4.4.2-64Bit/optiga-trust-m/optiga/cmd\optiga_cmd.c ****                 break;
1766:C:/Workspace/DAVE-4.4.2-64Bit/optiga-trust-m/optiga/cmd\optiga_cmd.c ****             }
1767:C:/Workspace/DAVE-4.4.2-64Bit/optiga-trust-m/optiga/cmd\optiga_cmd.c ****             /// Copy the random data length
1768:C:/Workspace/DAVE-4.4.2-64Bit/optiga-trust-m/optiga/cmd\optiga_cmd.c ****             optiga_common_set_uint16(&me->p_optiga->optiga_comms_buffer[index_for_data],
 1552              	 .loc 1 1768 0
 1553 0032 2068     	 ldr r0,[r4]
 1554              	.LVL145:
 1555 0034 3188     	 ldrh r1,[r6]
 1556 0036 1630     	 add r0,r0,#22
 1557 0038 FFF7FEFF 	 bl optiga_common_set_uint16
 1558              	.LVL146:
1769:C:/Workspace/DAVE-4.4.2-64Bit/optiga-trust-m/optiga/cmd\optiga_cmd.c ****                                      p_random_params->random_data_length);
1770:C:/Workspace/DAVE-4.4.2-64Bit/optiga-trust-m/optiga/cmd\optiga_cmd.c ****             index_for_data += OPTIGA_CMD_UINT16_SIZE_IN_BYTES;
 1559              	 .loc 1 1770 0
 1560 003c 2888     	 ldrh r0,[r5]
 1561 003e 0230     	 add r0,r0,#2
 1562 0040 80B2     	 uxth r0,r0
 1563 0042 2880     	 strh r0,[r5]
1771:C:/Workspace/DAVE-4.4.2-64Bit/optiga-trust-m/optiga/cmd\optiga_cmd.c **** 
1772:C:/Workspace/DAVE-4.4.2-64Bit/optiga-trust-m/optiga/cmd\optiga_cmd.c ****             if (CMD_RANDOM_PARAM_TYPE_PRE_MASTER_SECRET == (uint8_t)me->cmd_param)
 1564              	 .loc 1 1772 0
 1565 0044 237E     	 ldrb r3,[r4,#24]
 1566 0046 042B     	 cmp r3,#4
 1567 0048 20D1     	 bne .L126
1773:C:/Workspace/DAVE-4.4.2-64Bit/optiga-trust-m/optiga/cmd\optiga_cmd.c ****             {
1774:C:/Workspace/DAVE-4.4.2-64Bit/optiga-trust-m/optiga/cmd\optiga_cmd.c ****                 /// Copy the data to buffer
1775:C:/Workspace/DAVE-4.4.2-64Bit/optiga-trust-m/optiga/cmd\optiga_cmd.c ****                 optiga_common_set_uint16((me->p_optiga->optiga_comms_buffer + index_for_data),(me->
 1568              	 .loc 1 1775 0
 1569 004a 2368     	 ldr r3,[r4]
 1570 004c A18A     	 ldrh r1,[r4,#20]
 1571 004e 1818     	 add r0,r3,r0
 1572 0050 0D30     	 add r0,r0,#13
 1573 0052 FFF7FEFF 	 bl optiga_common_set_uint16
 1574              	.LVL147:
1776:C:/Workspace/DAVE-4.4.2-64Bit/optiga-trust-m/optiga/cmd\optiga_cmd.c ****                 index_for_data += OPTIGA_CMD_UINT16_SIZE_IN_BYTES;
 1575              	 .loc 1 1776 0
 1576 0056 2B88     	 ldrh r3,[r5]
1777:C:/Workspace/DAVE-4.4.2-64Bit/optiga-trust-m/optiga/cmd\optiga_cmd.c **** 
1778:C:/Workspace/DAVE-4.4.2-64Bit/optiga-trust-m/optiga/cmd\optiga_cmd.c ****                 ///TLV formation for key usage
1779:C:/Workspace/DAVE-4.4.2-64Bit/optiga-trust-m/optiga/cmd\optiga_cmd.c ****                 optiga_cmd_prepare_tag_header(CMD_RSA_PRE_MASTER_OPTIONAL_DATA_TAG,
 1577              	 .loc 1 1779 0
 1578 0058 B168     	 ldr r1,[r6,#8]
1776:C:/Workspace/DAVE-4.4.2-64Bit/optiga-trust-m/optiga/cmd\optiga_cmd.c ****                 index_for_data += OPTIGA_CMD_UINT16_SIZE_IN_BYTES;
 1579              	 .loc 1 1776 0
 1580 005a 0233     	 add r3,r3,#2
 1581 005c 2B80     	 strh r3,[r5]
 1582              	 .loc 1 1779 0
 1583 005e 0029     	 cmp r1,#0
 1584 0060 00D0     	 beq .L127
 1585              	 .loc 1 1779 0 is_stmt 0 discriminator 1
 1586 0062 7188     	 ldrh r1,[r6,#2]
 1587              	.L127:
1780:C:/Workspace/DAVE-4.4.2-64Bit/optiga-trust-m/optiga/cmd\optiga_cmd.c ****                                               ((NULL != p_random_params->optional_data) ?
1781:C:/Workspace/DAVE-4.4.2-64Bit/optiga-trust-m/optiga/cmd\optiga_cmd.c ****                                                 p_random_params->optional_data_length : 0x0000),
1782:C:/Workspace/DAVE-4.4.2-64Bit/optiga-trust-m/optiga/cmd\optiga_cmd.c ****                                               me->p_optiga->optiga_comms_buffer,
 1588              	 .loc 1 1782 0 is_stmt 1
 1589 0064 2268     	 ldr r2,[r4]
1779:C:/Workspace/DAVE-4.4.2-64Bit/optiga-trust-m/optiga/cmd\optiga_cmd.c ****                                               ((NULL != p_random_params->optional_data) ?
 1590              	 .loc 1 1779 0
 1591 0066 4120     	 mov r0,#65
 1592              	 .loc 1 1782 0
 1593 0068 0D32     	 add r2,r2,#13
1779:C:/Workspace/DAVE-4.4.2-64Bit/optiga-trust-m/optiga/cmd\optiga_cmd.c ****                                               ((NULL != p_random_params->optional_data) ?
 1594              	 .loc 1 1779 0
 1595 006a 2B1C     	 mov r3,r5
 1596 006c FFF7FEFF 	 bl optiga_cmd_prepare_tag_header
 1597              	.LVL148:
1783:C:/Workspace/DAVE-4.4.2-64Bit/optiga-trust-m/optiga/cmd\optiga_cmd.c ****                                               &index_for_data);
1784:C:/Workspace/DAVE-4.4.2-64Bit/optiga-trust-m/optiga/cmd\optiga_cmd.c **** 
1785:C:/Workspace/DAVE-4.4.2-64Bit/optiga-trust-m/optiga/cmd\optiga_cmd.c ****                 if ((NULL != p_random_params->optional_data))
 1598              	 .loc 1 1785 0
 1599 0070 B168     	 ldr r1,[r6,#8]
 1600 0072 0029     	 cmp r1,#0
 1601 0074 0AD0     	 beq .L126
1786:C:/Workspace/DAVE-4.4.2-64Bit/optiga-trust-m/optiga/cmd\optiga_cmd.c ****                 {
1787:C:/Workspace/DAVE-4.4.2-64Bit/optiga-trust-m/optiga/cmd\optiga_cmd.c ****                     pal_os_memcpy(me->p_optiga->optiga_comms_buffer + index_for_data, p_random_para
 1602              	 .loc 1 1787 0
 1603 0076 2368     	 ldr r3,[r4]
 1604 0078 2888     	 ldrh r0,[r5]
 1605 007a 7288     	 ldrh r2,[r6,#2]
 1606 007c 1818     	 add r0,r3,r0
 1607 007e 0D30     	 add r0,r0,#13
 1608 0080 FFF7FEFF 	 bl memcpy
 1609              	.LVL149:
1788:C:/Workspace/DAVE-4.4.2-64Bit/optiga-trust-m/optiga/cmd\optiga_cmd.c ****                                   p_random_params->optional_data_length);
1789:C:/Workspace/DAVE-4.4.2-64Bit/optiga-trust-m/optiga/cmd\optiga_cmd.c ****                     index_for_data += p_random_params->optional_data_length;
 1610              	 .loc 1 1789 0
 1611 0084 7288     	 ldrh r2,[r6,#2]
 1612 0086 2B88     	 ldrh r3,[r5]
 1613 0088 D318     	 add r3,r2,r3
 1614 008a 2B80     	 strh r3,[r5]
 1615              	.L126:
1790:C:/Workspace/DAVE-4.4.2-64Bit/optiga-trust-m/optiga/cmd\optiga_cmd.c ****                 }
1791:C:/Workspace/DAVE-4.4.2-64Bit/optiga-trust-m/optiga/cmd\optiga_cmd.c ****             }
1792:C:/Workspace/DAVE-4.4.2-64Bit/optiga-trust-m/optiga/cmd\optiga_cmd.c ****             optiga_cmd_prepare_apdu_header(OPTIGA_CMD_GET_RANDOM,
 1616              	 .loc 1 1792 0
 1617 008c 2B88     	 ldrh r3,[r5]
 1618              	.LBB128:
 1619              	.LBB129:
 421:C:/Workspace/DAVE-4.4.2-64Bit/optiga-trust-m/optiga/cmd\optiga_cmd.c ****     p_apdu_buffer [1] = param;
 1620              	 .loc 1 421 0
 1621 008e 8C25     	 mov r5,#140
 1622              	.LBE129:
 1623              	.LBE128:
 1624              	 .loc 1 1792 0
 1625 0090 191C     	 mov r1,r3
 1626 0092 207E     	 ldrb r0,[r4,#24]
1793:C:/Workspace/DAVE-4.4.2-64Bit/optiga-trust-m/optiga/cmd\optiga_cmd.c ****                                            me->cmd_param,
1794:C:/Workspace/DAVE-4.4.2-64Bit/optiga-trust-m/optiga/cmd\optiga_cmd.c ****                                            (index_for_data - OPTIGA_CMD_APDU_INDATA_OFFSET),
1795:C:/Workspace/DAVE-4.4.2-64Bit/optiga-trust-m/optiga/cmd\optiga_cmd.c ****                                            me->p_optiga->optiga_comms_buffer + OPTIGA_COMMS_DATA_OF
 1627              	 .loc 1 1795 0
 1628 0094 2268     	 ldr r2,[r4]
 1629              	.LVL150:
1792:C:/Workspace/DAVE-4.4.2-64Bit/optiga-trust-m/optiga/cmd\optiga_cmd.c ****                                            me->cmd_param,
 1630              	 .loc 1 1792 0
 1631 0096 0939     	 sub r1,r1,#9
 1632 0098 89B2     	 uxth r1,r1
 1633              	.LVL151:
 1634              	.LBB131:
 1635              	.LBB130:
 422:C:/Workspace/DAVE-4.4.2-64Bit/optiga-trust-m/optiga/cmd\optiga_cmd.c ****     p_apdu_buffer [2] = (uint8_t)((in_data_length & 0xFF00) >> 8);
 1636              	 .loc 1 422 0
 1637 009a D074     	 strb r0,[r2,#19]
 423:C:/Workspace/DAVE-4.4.2-64Bit/optiga-trust-m/optiga/cmd\optiga_cmd.c ****     p_apdu_buffer [3] = (uint8_t)(in_data_length & 0x00FF);
 1638              	 .loc 1 423 0
 1639 009c 080A     	 lsr r0,r1,#8
 1640              	.LVL152:
 421:C:/Workspace/DAVE-4.4.2-64Bit/optiga-trust-m/optiga/cmd\optiga_cmd.c ****     p_apdu_buffer [1] = param;
 1641              	 .loc 1 421 0
 1642 009e 9574     	 strb r5,[r2,#18]
 423:C:/Workspace/DAVE-4.4.2-64Bit/optiga-trust-m/optiga/cmd\optiga_cmd.c ****     p_apdu_buffer [3] = (uint8_t)(in_data_length & 0x00FF);
 1643              	 .loc 1 423 0
 1644 00a0 1075     	 strb r0,[r2,#20]
 424:C:/Workspace/DAVE-4.4.2-64Bit/optiga-trust-m/optiga/cmd\optiga_cmd.c **** }
 1645              	 .loc 1 424 0
 1646 00a2 5175     	 strb r1,[r2,#21]
 1647              	.LBE130:
 1648              	.LBE131:
1796:C:/Workspace/DAVE-4.4.2-64Bit/optiga-trust-m/optiga/cmd\optiga_cmd.c **** 
1797:C:/Workspace/DAVE-4.4.2-64Bit/optiga-trust-m/optiga/cmd\optiga_cmd.c ****             me->p_optiga->comms_tx_size = index_for_data - OPTIGA_COMMS_DATA_OFFSET;
 1649              	 .loc 1 1797 0
 1650 00a4 2268     	 ldr r2,[r4]
 1651              	.LVL153:
 1652 00a6 053B     	 sub r3,r3,#5
 1653 00a8 9380     	 strh r3,[r2,#4]
 1654              	.LVL154:
1798:C:/Workspace/DAVE-4.4.2-64Bit/optiga-trust-m/optiga/cmd\optiga_cmd.c **** 
1799:C:/Workspace/DAVE-4.4.2-64Bit/optiga-trust-m/optiga/cmd\optiga_cmd.c ****             return_status = OPTIGA_LIB_SUCCESS;
 1655              	 .loc 1 1799 0
 1656 00aa 0024     	 mov r4,#0
 1657              	.LVL155:
1800:C:/Workspace/DAVE-4.4.2-64Bit/optiga-trust-m/optiga/cmd\optiga_cmd.c ****         }
1801:C:/Workspace/DAVE-4.4.2-64Bit/optiga-trust-m/optiga/cmd\optiga_cmd.c ****         break;
 1658              	 .loc 1 1801 0
 1659 00ac 16E0     	 b .L121
 1660              	.LVL156:
 1661              	.L123:
1802:C:/Workspace/DAVE-4.4.2-64Bit/optiga-trust-m/optiga/cmd\optiga_cmd.c ****         case OPTIGA_CMD_EXEC_PROCESS_RESPONSE:
1803:C:/Workspace/DAVE-4.4.2-64Bit/optiga-trust-m/optiga/cmd\optiga_cmd.c ****         {
1804:C:/Workspace/DAVE-4.4.2-64Bit/optiga-trust-m/optiga/cmd\optiga_cmd.c ****             OPTIGA_CMD_LOG_MESSAGE("Processing response for get random command...");
1805:C:/Workspace/DAVE-4.4.2-64Bit/optiga-trust-m/optiga/cmd\optiga_cmd.c ****             // check if the random data retrieval app was successful
1806:C:/Workspace/DAVE-4.4.2-64Bit/optiga-trust-m/optiga/cmd\optiga_cmd.c ****             if (OPTIGA_CMD_APDU_SUCCESS != me->p_optiga->optiga_comms_buffer[OPTIGA_COMMS_DATA_OFFS
 1662              	 .loc 1 1806 0
 1663 00ae 0168     	 ldr r1,[r0]
 1664 00b0 8B7C     	 ldrb r3,[r1,#18]
 1665 00b2 002B     	 cmp r3,#0
 1666 00b4 04D0     	 beq .L129
1807:C:/Workspace/DAVE-4.4.2-64Bit/optiga-trust-m/optiga/cmd\optiga_cmd.c ****             {
1808:C:/Workspace/DAVE-4.4.2-64Bit/optiga-trust-m/optiga/cmd\optiga_cmd.c ****                 OPTIGA_CMD_LOG_MESSAGE("Error in processing get random response...");
1809:C:/Workspace/DAVE-4.4.2-64Bit/optiga-trust-m/optiga/cmd\optiga_cmd.c ****                 SET_DEV_ERROR_NOTIFICATION(OPTIGA_CMD_EXIT_HANDLER_CALL);
 1667              	 .loc 1 1809 0
 1668 00b6 7F23     	 mov r3,#127
 1669 00b8 027F     	 ldrb r2,[r0,#28]
 1670 00ba 1340     	 and r3,r2
 1671 00bc 0377     	 strb r3,[r0,#28]
 1672 00be 09E0     	 b .L139
 1673              	.L129:
1810:C:/Workspace/DAVE-4.4.2-64Bit/optiga-trust-m/optiga/cmd\optiga_cmd.c ****                 break;
1811:C:/Workspace/DAVE-4.4.2-64Bit/optiga-trust-m/optiga/cmd\optiga_cmd.c ****             }
1812:C:/Workspace/DAVE-4.4.2-64Bit/optiga-trust-m/optiga/cmd\optiga_cmd.c ****             if (CMD_RANDOM_PARAM_TYPE_PRE_MASTER_SECRET != (uint8_t)me->cmd_param)
 1674              	 .loc 1 1812 0
 1675 00c0 027E     	 ldrb r2,[r0,#24]
1813:C:/Workspace/DAVE-4.4.2-64Bit/optiga-trust-m/optiga/cmd\optiga_cmd.c ****             {
1814:C:/Workspace/DAVE-4.4.2-64Bit/optiga-trust-m/optiga/cmd\optiga_cmd.c ****                 //copy data from optiga comms buffer to user provided buffer
1815:C:/Workspace/DAVE-4.4.2-64Bit/optiga-trust-m/optiga/cmd\optiga_cmd.c ****                 pal_os_memcpy(p_random_params->random_data,
1816:C:/Workspace/DAVE-4.4.2-64Bit/optiga-trust-m/optiga/cmd\optiga_cmd.c ****                               me->p_optiga->optiga_comms_buffer + OPTIGA_CMD_APDU_INDATA_OFFSET,
1817:C:/Workspace/DAVE-4.4.2-64Bit/optiga-trust-m/optiga/cmd\optiga_cmd.c ****                               p_random_params->random_data_length);
1818:C:/Workspace/DAVE-4.4.2-64Bit/optiga-trust-m/optiga/cmd\optiga_cmd.c ****             }
1819:C:/Workspace/DAVE-4.4.2-64Bit/optiga-trust-m/optiga/cmd\optiga_cmd.c ****             OPTIGA_CMD_LOG_MESSAGE("Response of get random command is processed...");
1820:C:/Workspace/DAVE-4.4.2-64Bit/optiga-trust-m/optiga/cmd\optiga_cmd.c ****             return_status = OPTIGA_LIB_SUCCESS;
 1676              	 .loc 1 1820 0
 1677 00c2 1C1C     	 mov r4,r3
1812:C:/Workspace/DAVE-4.4.2-64Bit/optiga-trust-m/optiga/cmd\optiga_cmd.c ****             {
 1678              	 .loc 1 1812 0
 1679 00c4 042A     	 cmp r2,#4
 1680 00c6 09D0     	 beq .L121
1815:C:/Workspace/DAVE-4.4.2-64Bit/optiga-trust-m/optiga/cmd\optiga_cmd.c ****                               me->p_optiga->optiga_comms_buffer + OPTIGA_CMD_APDU_INDATA_OFFSET,
 1681              	 .loc 1 1815 0
 1682 00c8 7068     	 ldr r0,[r6,#4]
 1683              	.LVL157:
 1684 00ca 3288     	 ldrh r2,[r6]
 1685 00cc 1631     	 add r1,r1,#22
 1686 00ce FFF7FEFF 	 bl memcpy
 1687              	.LVL158:
 1688 00d2 03E0     	 b .L121
 1689              	.LVL159:
 1690              	.L139:
1747:C:/Workspace/DAVE-4.4.2-64Bit/optiga-trust-m/optiga/cmd\optiga_cmd.c ****     uint16_t index_for_data = OPTIGA_CMD_APDU_INDATA_OFFSET;
 1691              	 .loc 1 1747 0
 1692 00d4 034C     	 ldr r4,.L140+4
 1693 00d6 01E0     	 b .L121
 1694              	.L132:
1764:C:/Workspace/DAVE-4.4.2-64Bit/optiga-trust-m/optiga/cmd\optiga_cmd.c ****                 break;
 1695              	 .loc 1 1764 0
 1696 00d8 8124     	 mov r4,#129
 1697 00da A400     	 lsl r4,r4,#2
 1698              	.LVL160:
 1699              	.L121:
1821:C:/Workspace/DAVE-4.4.2-64Bit/optiga-trust-m/optiga/cmd\optiga_cmd.c ****         }
1822:C:/Workspace/DAVE-4.4.2-64Bit/optiga-trust-m/optiga/cmd\optiga_cmd.c ****         break;
1823:C:/Workspace/DAVE-4.4.2-64Bit/optiga-trust-m/optiga/cmd\optiga_cmd.c ****         default:
1824:C:/Workspace/DAVE-4.4.2-64Bit/optiga-trust-m/optiga/cmd\optiga_cmd.c ****             break;
1825:C:/Workspace/DAVE-4.4.2-64Bit/optiga-trust-m/optiga/cmd\optiga_cmd.c ****     }
1826:C:/Workspace/DAVE-4.4.2-64Bit/optiga-trust-m/optiga/cmd\optiga_cmd.c **** 
1827:C:/Workspace/DAVE-4.4.2-64Bit/optiga-trust-m/optiga/cmd\optiga_cmd.c ****     return (return_status);
1828:C:/Workspace/DAVE-4.4.2-64Bit/optiga-trust-m/optiga/cmd\optiga_cmd.c **** }
 1700              	 .loc 1 1828 0
 1701 00dc 201C     	 mov r0,r4
 1702              	 
 1703              	.LVL161:
 1704              	.LVL162:
 1705 00de 76BD     	 pop {r1,r2,r4,r5,r6,pc}
 1706              	.L141:
 1707              	 .align 2
 1708              	.L140:
 1709 00e0 15060000 	 .word 1557
 1710 00e4 02020000 	 .word 514
 1711              	 .cfi_endproc
 1712              	.LFE33:
 1714              	 .section .text.optiga_cmd_calc_sign_handler,"ax",%progbits
 1715              	 .align 1
 1716              	 .code 16
 1717              	 .thumb_func
 1719              	optiga_cmd_calc_sign_handler:
 1720              	.LFB35:
1829:C:/Workspace/DAVE-4.4.2-64Bit/optiga-trust-m/optiga/cmd\optiga_cmd.c **** 
1830:C:/Workspace/DAVE-4.4.2-64Bit/optiga-trust-m/optiga/cmd\optiga_cmd.c **** 
1831:C:/Workspace/DAVE-4.4.2-64Bit/optiga-trust-m/optiga/cmd\optiga_cmd.c **** optiga_lib_status_t optiga_cmd_get_random(optiga_cmd_t * me, uint8_t cmd_param, optiga_get_random_p
1832:C:/Workspace/DAVE-4.4.2-64Bit/optiga-trust-m/optiga/cmd\optiga_cmd.c **** {
1833:C:/Workspace/DAVE-4.4.2-64Bit/optiga-trust-m/optiga/cmd\optiga_cmd.c ****     optiga_cmd_state_t cmd_handler_state = OPTIGA_CMD_EXEC_REQUEST_LOCK;
1834:C:/Workspace/DAVE-4.4.2-64Bit/optiga-trust-m/optiga/cmd\optiga_cmd.c ****     OPTIGA_CMD_LOG_MESSAGE(__FUNCTION__);
1835:C:/Workspace/DAVE-4.4.2-64Bit/optiga-trust-m/optiga/cmd\optiga_cmd.c ****     if (CMD_RANDOM_PARAM_TYPE_PRE_MASTER_SECRET == cmd_param)
1836:C:/Workspace/DAVE-4.4.2-64Bit/optiga-trust-m/optiga/cmd\optiga_cmd.c ****     {
1837:C:/Workspace/DAVE-4.4.2-64Bit/optiga-trust-m/optiga/cmd\optiga_cmd.c ****         cmd_handler_state = OPTIGA_CMD_EXEC_REQUEST_SESSION;
1838:C:/Workspace/DAVE-4.4.2-64Bit/optiga-trust-m/optiga/cmd\optiga_cmd.c ****     }
1839:C:/Workspace/DAVE-4.4.2-64Bit/optiga-trust-m/optiga/cmd\optiga_cmd.c **** 
1840:C:/Workspace/DAVE-4.4.2-64Bit/optiga-trust-m/optiga/cmd\optiga_cmd.c ****     optiga_cmd_execute(me,
1841:C:/Workspace/DAVE-4.4.2-64Bit/optiga-trust-m/optiga/cmd\optiga_cmd.c ****                        cmd_param,
1842:C:/Workspace/DAVE-4.4.2-64Bit/optiga-trust-m/optiga/cmd\optiga_cmd.c ****                        optiga_cmd_get_random_handler,
1843:C:/Workspace/DAVE-4.4.2-64Bit/optiga-trust-m/optiga/cmd\optiga_cmd.c ****                        cmd_handler_state,
1844:C:/Workspace/DAVE-4.4.2-64Bit/optiga-trust-m/optiga/cmd\optiga_cmd.c ****                        params);
1845:C:/Workspace/DAVE-4.4.2-64Bit/optiga-trust-m/optiga/cmd\optiga_cmd.c **** 
1846:C:/Workspace/DAVE-4.4.2-64Bit/optiga-trust-m/optiga/cmd\optiga_cmd.c ****     return (OPTIGA_LIB_SUCCESS);
1847:C:/Workspace/DAVE-4.4.2-64Bit/optiga-trust-m/optiga/cmd\optiga_cmd.c **** }
1848:C:/Workspace/DAVE-4.4.2-64Bit/optiga-trust-m/optiga/cmd\optiga_cmd.c **** #endif //OPTIGA_CRYPT_RANDOM_ENABLED
1849:C:/Workspace/DAVE-4.4.2-64Bit/optiga-trust-m/optiga/cmd\optiga_cmd.c **** 
1850:C:/Workspace/DAVE-4.4.2-64Bit/optiga-trust-m/optiga/cmd\optiga_cmd.c **** #if defined (OPTIGA_CRYPT_ECDSA_SIGN_ENABLED) || defined (OPTIGA_CRYPT_RSA_SIGN_ENABLED)
1851:C:/Workspace/DAVE-4.4.2-64Bit/optiga-trust-m/optiga/cmd\optiga_cmd.c **** /*
1852:C:/Workspace/DAVE-4.4.2-64Bit/optiga-trust-m/optiga/cmd\optiga_cmd.c **** * CalcSign handler
1853:C:/Workspace/DAVE-4.4.2-64Bit/optiga-trust-m/optiga/cmd\optiga_cmd.c **** */
1854:C:/Workspace/DAVE-4.4.2-64Bit/optiga-trust-m/optiga/cmd\optiga_cmd.c **** _STATIC_H optiga_lib_status_t optiga_cmd_calc_sign_handler(optiga_cmd_t * me)
1855:C:/Workspace/DAVE-4.4.2-64Bit/optiga-trust-m/optiga/cmd\optiga_cmd.c **** {
 1721              	 .loc 1 1855 0
 1722              	 .cfi_startproc
 1723              	.LVL163:
 1724 0000 73B5     	 push {r0,r1,r4,r5,r6,lr}
 1725              	.LCFI9:
 1726              	 .cfi_def_cfa_offset 24
 1727              	 .cfi_offset 0,-24
 1728              	 .cfi_offset 1,-20
 1729              	 .cfi_offset 4,-16
 1730              	 .cfi_offset 5,-12
 1731              	 .cfi_offset 6,-8
 1732              	 .cfi_offset 14,-4
1856:C:/Workspace/DAVE-4.4.2-64Bit/optiga-trust-m/optiga/cmd\optiga_cmd.c ****     uint16_t total_apdu_length;
1857:C:/Workspace/DAVE-4.4.2-64Bit/optiga-trust-m/optiga/cmd\optiga_cmd.c ****     optiga_calc_sign_params_t * p_optiga_ecdsa_sign = (optiga_calc_sign_params_t *)me->p_input;
1858:C:/Workspace/DAVE-4.4.2-64Bit/optiga-trust-m/optiga/cmd\optiga_cmd.c ****     optiga_lib_status_t return_status = OPTIGA_CMD_ERROR;
1859:C:/Workspace/DAVE-4.4.2-64Bit/optiga-trust-m/optiga/cmd\optiga_cmd.c ****     uint16_t private_key_oid;
1860:C:/Workspace/DAVE-4.4.2-64Bit/optiga-trust-m/optiga/cmd\optiga_cmd.c ****     uint16_t index_for_data = OPTIGA_CMD_APDU_INDATA_OFFSET;
 1733              	 .loc 1 1860 0
 1734 0002 6B46     	 mov r3,sp
 1735 0004 9D1D     	 add r5,r3,#6
 1736 0006 0923     	 mov r3,#9
 1737 0008 2B80     	 strh r3,[r5]
1861:C:/Workspace/DAVE-4.4.2-64Bit/optiga-trust-m/optiga/cmd\optiga_cmd.c **** 
1862:C:/Workspace/DAVE-4.4.2-64Bit/optiga-trust-m/optiga/cmd\optiga_cmd.c ****     switch ((uint8_t)me->cmd_next_execution_state)
 1738              	 .loc 1 1862 0
 1739 000a 837D     	 ldrb r3,[r0,#22]
1855:C:/Workspace/DAVE-4.4.2-64Bit/optiga-trust-m/optiga/cmd\optiga_cmd.c ****     uint16_t total_apdu_length;
 1740              	 .loc 1 1855 0
 1741 000c 041C     	 mov r4,r0
1857:C:/Workspace/DAVE-4.4.2-64Bit/optiga-trust-m/optiga/cmd\optiga_cmd.c ****     optiga_lib_status_t return_status = OPTIGA_CMD_ERROR;
 1742              	 .loc 1 1857 0
 1743 000e 8668     	 ldr r6,[r0,#8]
 1744              	.LVL164:
 1745              	 .loc 1 1862 0
 1746 0010 082B     	 cmp r3,#8
 1747 0012 02D0     	 beq .L144
 1748 0014 092B     	 cmp r3,#9
 1749 0016 35D0     	 beq .L145
 1750 0018 50E0     	 b .L153
 1751              	.L144:
 1752              	.LVL165:
1863:C:/Workspace/DAVE-4.4.2-64Bit/optiga-trust-m/optiga/cmd\optiga_cmd.c ****     {
1864:C:/Workspace/DAVE-4.4.2-64Bit/optiga-trust-m/optiga/cmd\optiga_cmd.c ****         case OPTIGA_CMD_EXEC_PREPARE_COMMAND:
1865:C:/Workspace/DAVE-4.4.2-64Bit/optiga-trust-m/optiga/cmd\optiga_cmd.c ****         {
1866:C:/Workspace/DAVE-4.4.2-64Bit/optiga-trust-m/optiga/cmd\optiga_cmd.c ****             // APDU headed length + TLV of Digest + TLV of signature key OID
1867:C:/Workspace/DAVE-4.4.2-64Bit/optiga-trust-m/optiga/cmd\optiga_cmd.c ****             OPTIGA_CMD_LOG_MESSAGE("Sending calculate sign command..");
1868:C:/Workspace/DAVE-4.4.2-64Bit/optiga-trust-m/optiga/cmd\optiga_cmd.c ****             total_apdu_length = OPTIGA_CMD_APDU_HEADER_SIZE + OPTIGA_CMD_APDU_TL_LENGTH + p_optiga_
1869:C:/Workspace/DAVE-4.4.2-64Bit/optiga-trust-m/optiga/cmd\optiga_cmd.c ****                                     OPTIGA_CMD_APDU_TL_LENGTH + OPTIGA_CMD_UINT16_SIZE_IN_BYTES;
1870:C:/Workspace/DAVE-4.4.2-64Bit/optiga-trust-m/optiga/cmd\optiga_cmd.c ****             if (OPTIGA_MAX_COMMS_BUFFER_SIZE < total_apdu_length)
1871:C:/Workspace/DAVE-4.4.2-64Bit/optiga-trust-m/optiga/cmd\optiga_cmd.c ****             {
1872:C:/Workspace/DAVE-4.4.2-64Bit/optiga-trust-m/optiga/cmd\optiga_cmd.c ****                 return_status = OPTIGA_CMD_ERROR_MEMORY_INSUFFICIENT;
1873:C:/Workspace/DAVE-4.4.2-64Bit/optiga-trust-m/optiga/cmd\optiga_cmd.c ****                 *(p_optiga_ecdsa_sign->p_signature_length) = 0x00;
1874:C:/Workspace/DAVE-4.4.2-64Bit/optiga-trust-m/optiga/cmd\optiga_cmd.c ****                 break;
1875:C:/Workspace/DAVE-4.4.2-64Bit/optiga-trust-m/optiga/cmd\optiga_cmd.c ****             }
1876:C:/Workspace/DAVE-4.4.2-64Bit/optiga-trust-m/optiga/cmd\optiga_cmd.c ****             // Tag and length for digest
1877:C:/Workspace/DAVE-4.4.2-64Bit/optiga-trust-m/optiga/cmd\optiga_cmd.c ****             optiga_cmd_prepare_tag_header(CMD_SIGN_DIGEST_TAG,
1878:C:/Workspace/DAVE-4.4.2-64Bit/optiga-trust-m/optiga/cmd\optiga_cmd.c ****                                           p_optiga_ecdsa_sign->digest_length,
1879:C:/Workspace/DAVE-4.4.2-64Bit/optiga-trust-m/optiga/cmd\optiga_cmd.c ****                                           me->p_optiga->optiga_comms_buffer,
 1753              	 .loc 1 1879 0
 1754 001a 0268     	 ldr r2,[r0]
1877:C:/Workspace/DAVE-4.4.2-64Bit/optiga-trust-m/optiga/cmd\optiga_cmd.c ****                                           p_optiga_ecdsa_sign->digest_length,
 1755              	 .loc 1 1877 0
 1756 001c B17B     	 ldrb r1,[r6,#14]
 1757              	 .loc 1 1879 0
 1758 001e 0D32     	 add r2,r2,#13
1877:C:/Workspace/DAVE-4.4.2-64Bit/optiga-trust-m/optiga/cmd\optiga_cmd.c ****                                           p_optiga_ecdsa_sign->digest_length,
 1759              	 .loc 1 1877 0
 1760 0020 0120     	 mov r0,#1
 1761              	.LVL166:
 1762 0022 2B1C     	 mov r3,r5
 1763 0024 FFF7FEFF 	 bl optiga_cmd_prepare_tag_header
 1764              	.LVL167:
1880:C:/Workspace/DAVE-4.4.2-64Bit/optiga-trust-m/optiga/cmd\optiga_cmd.c ****                                           &index_for_data);
1881:C:/Workspace/DAVE-4.4.2-64Bit/optiga-trust-m/optiga/cmd\optiga_cmd.c ****             //Digest data
1882:C:/Workspace/DAVE-4.4.2-64Bit/optiga-trust-m/optiga/cmd\optiga_cmd.c ****             pal_os_memcpy(me->p_optiga->optiga_comms_buffer + index_for_data,
 1765              	 .loc 1 1882 0
 1766 0028 2368     	 ldr r3,[r4]
 1767 002a 2888     	 ldrh r0,[r5]
 1768 002c B27B     	 ldrb r2,[r6,#14]
 1769 002e 1818     	 add r0,r3,r0
 1770 0030 3168     	 ldr r1,[r6]
 1771 0032 0D30     	 add r0,r0,#13
 1772 0034 FFF7FEFF 	 bl memcpy
 1773              	.LVL168:
1883:C:/Workspace/DAVE-4.4.2-64Bit/optiga-trust-m/optiga/cmd\optiga_cmd.c ****                           p_optiga_ecdsa_sign->p_digest,
1884:C:/Workspace/DAVE-4.4.2-64Bit/optiga-trust-m/optiga/cmd\optiga_cmd.c ****                           p_optiga_ecdsa_sign->digest_length);
1885:C:/Workspace/DAVE-4.4.2-64Bit/optiga-trust-m/optiga/cmd\optiga_cmd.c **** 
1886:C:/Workspace/DAVE-4.4.2-64Bit/optiga-trust-m/optiga/cmd\optiga_cmd.c ****             index_for_data += p_optiga_ecdsa_sign->digest_length;
 1774              	 .loc 1 1886 0
 1775 0038 B27B     	 ldrb r2,[r6,#14]
 1776 003a 2B88     	 ldrh r3,[r5]
1887:C:/Workspace/DAVE-4.4.2-64Bit/optiga-trust-m/optiga/cmd\optiga_cmd.c **** 
1888:C:/Workspace/DAVE-4.4.2-64Bit/optiga-trust-m/optiga/cmd\optiga_cmd.c ****             // Tag and length for OID of signature key
1889:C:/Workspace/DAVE-4.4.2-64Bit/optiga-trust-m/optiga/cmd\optiga_cmd.c ****             optiga_cmd_prepare_tag_header(CMD_SIGN_OID_TAG,
 1777              	 .loc 1 1889 0
 1778 003c 0221     	 mov r1,#2
1886:C:/Workspace/DAVE-4.4.2-64Bit/optiga-trust-m/optiga/cmd\optiga_cmd.c **** 
 1779              	 .loc 1 1886 0
 1780 003e D318     	 add r3,r2,r3
1890:C:/Workspace/DAVE-4.4.2-64Bit/optiga-trust-m/optiga/cmd\optiga_cmd.c ****                                           CMD_SIGN_OID_LEN,
1891:C:/Workspace/DAVE-4.4.2-64Bit/optiga-trust-m/optiga/cmd\optiga_cmd.c ****                                           me->p_optiga->optiga_comms_buffer,
 1781              	 .loc 1 1891 0
 1782 0040 2268     	 ldr r2,[r4]
1886:C:/Workspace/DAVE-4.4.2-64Bit/optiga-trust-m/optiga/cmd\optiga_cmd.c **** 
 1783              	 .loc 1 1886 0
 1784 0042 2B80     	 strh r3,[r5]
 1785              	 .loc 1 1891 0
 1786 0044 0D32     	 add r2,r2,#13
1889:C:/Workspace/DAVE-4.4.2-64Bit/optiga-trust-m/optiga/cmd\optiga_cmd.c ****                                           CMD_SIGN_OID_LEN,
 1787              	 .loc 1 1889 0
 1788 0046 2B1C     	 mov r3,r5
 1789 0048 0320     	 mov r0,#3
 1790 004a FFF7FEFF 	 bl optiga_cmd_prepare_tag_header
 1791              	.LVL169:
1892:C:/Workspace/DAVE-4.4.2-64Bit/optiga-trust-m/optiga/cmd\optiga_cmd.c ****                                           &index_for_data);
1893:C:/Workspace/DAVE-4.4.2-64Bit/optiga-trust-m/optiga/cmd\optiga_cmd.c ****             //oid
1894:C:/Workspace/DAVE-4.4.2-64Bit/optiga-trust-m/optiga/cmd\optiga_cmd.c ****             private_key_oid = me->session_oid;
1895:C:/Workspace/DAVE-4.4.2-64Bit/optiga-trust-m/optiga/cmd\optiga_cmd.c ****             if (OPTIGA_KEY_ID_SESSION_BASED != p_optiga_ecdsa_sign->private_key_oid)
 1792              	 .loc 1 1895 0
 1793 004e B389     	 ldrh r3,[r6,#12]
1894:C:/Workspace/DAVE-4.4.2-64Bit/optiga-trust-m/optiga/cmd\optiga_cmd.c ****             if (OPTIGA_KEY_ID_SESSION_BASED != p_optiga_ecdsa_sign->private_key_oid)
 1794              	 .loc 1 1894 0
 1795 0050 A18A     	 ldrh r1,[r4,#20]
 1796              	.LVL170:
 1797              	 .loc 1 1895 0
 1798 0052 002B     	 cmp r3,#0
 1799 0054 00D0     	 beq .L146
 1800 0056 191C     	 mov r1,r3
 1801              	.LVL171:
 1802              	.L146:
1896:C:/Workspace/DAVE-4.4.2-64Bit/optiga-trust-m/optiga/cmd\optiga_cmd.c ****             {
1897:C:/Workspace/DAVE-4.4.2-64Bit/optiga-trust-m/optiga/cmd\optiga_cmd.c ****                 private_key_oid = (uint16_t)p_optiga_ecdsa_sign->private_key_oid;
1898:C:/Workspace/DAVE-4.4.2-64Bit/optiga-trust-m/optiga/cmd\optiga_cmd.c ****             }
1899:C:/Workspace/DAVE-4.4.2-64Bit/optiga-trust-m/optiga/cmd\optiga_cmd.c ****             optiga_common_set_uint16(&me->p_optiga->optiga_comms_buffer[index_for_data],
 1803              	 .loc 1 1899 0
 1804 0058 2888     	 ldrh r0,[r5]
 1805 005a 2368     	 ldr r3,[r4]
 1806 005c 1818     	 add r0,r3,r0
 1807 005e 0D30     	 add r0,r0,#13
 1808 0060 FFF7FEFF 	 bl optiga_common_set_uint16
 1809              	.LVL172:
1900:C:/Workspace/DAVE-4.4.2-64Bit/optiga-trust-m/optiga/cmd\optiga_cmd.c ****                                      private_key_oid);
1901:C:/Workspace/DAVE-4.4.2-64Bit/optiga-trust-m/optiga/cmd\optiga_cmd.c ****             index_for_data += OPTIGA_CMD_UINT16_SIZE_IN_BYTES;
 1810              	 .loc 1 1901 0
 1811 0064 2B88     	 ldrh r3,[r5]
 1812              	.LBB132:
 1813              	.LBB133:
 421:C:/Workspace/DAVE-4.4.2-64Bit/optiga-trust-m/optiga/cmd\optiga_cmd.c ****     p_apdu_buffer [1] = param;
 1814              	 .loc 1 421 0
 1815 0066 B125     	 mov r5,#177
 1816              	.LBE133:
 1817              	.LBE132:
1902:C:/Workspace/DAVE-4.4.2-64Bit/optiga-trust-m/optiga/cmd\optiga_cmd.c **** 
1903:C:/Workspace/DAVE-4.4.2-64Bit/optiga-trust-m/optiga/cmd\optiga_cmd.c ****             // prepare apdu
1904:C:/Workspace/DAVE-4.4.2-64Bit/optiga-trust-m/optiga/cmd\optiga_cmd.c ****             optiga_cmd_prepare_apdu_header(OPTIGA_CMD_CALC_SIGN,
 1818              	 .loc 1 1904 0
 1819 0068 207E     	 ldrb r0,[r4,#24]
1905:C:/Workspace/DAVE-4.4.2-64Bit/optiga-trust-m/optiga/cmd\optiga_cmd.c ****                                            me->cmd_param,
1906:C:/Workspace/DAVE-4.4.2-64Bit/optiga-trust-m/optiga/cmd\optiga_cmd.c ****                                            (index_for_data - OPTIGA_CMD_APDU_INDATA_OFFSET),
1907:C:/Workspace/DAVE-4.4.2-64Bit/optiga-trust-m/optiga/cmd\optiga_cmd.c ****                                            me->p_optiga->optiga_comms_buffer + OPTIGA_COMMS_DATA_OF
 1820              	 .loc 1 1907 0
 1821 006a 2268     	 ldr r2,[r4]
 1822              	.LVL173:
1904:C:/Workspace/DAVE-4.4.2-64Bit/optiga-trust-m/optiga/cmd\optiga_cmd.c ****                                            me->cmd_param,
 1823              	 .loc 1 1904 0
 1824 006c D91F     	 sub r1,r3,#7
 1825 006e 89B2     	 uxth r1,r1
 1826              	.LVL174:
 1827              	.LBB135:
 1828              	.LBB134:
 422:C:/Workspace/DAVE-4.4.2-64Bit/optiga-trust-m/optiga/cmd\optiga_cmd.c ****     p_apdu_buffer [2] = (uint8_t)((in_data_length & 0xFF00) >> 8);
 1829              	 .loc 1 422 0
 1830 0070 D074     	 strb r0,[r2,#19]
 423:C:/Workspace/DAVE-4.4.2-64Bit/optiga-trust-m/optiga/cmd\optiga_cmd.c ****     p_apdu_buffer [3] = (uint8_t)(in_data_length & 0x00FF);
 1831              	 .loc 1 423 0
 1832 0072 080A     	 lsr r0,r1,#8
 1833              	.LVL175:
 421:C:/Workspace/DAVE-4.4.2-64Bit/optiga-trust-m/optiga/cmd\optiga_cmd.c ****     p_apdu_buffer [1] = param;
 1834              	 .loc 1 421 0
 1835 0074 9574     	 strb r5,[r2,#18]
 423:C:/Workspace/DAVE-4.4.2-64Bit/optiga-trust-m/optiga/cmd\optiga_cmd.c ****     p_apdu_buffer [3] = (uint8_t)(in_data_length & 0x00FF);
 1836              	 .loc 1 423 0
 1837 0076 1075     	 strb r0,[r2,#20]
 424:C:/Workspace/DAVE-4.4.2-64Bit/optiga-trust-m/optiga/cmd\optiga_cmd.c **** }
 1838              	 .loc 1 424 0
 1839 0078 5175     	 strb r1,[r2,#21]
 1840              	.LBE134:
 1841              	.LBE135:
1908:C:/Workspace/DAVE-4.4.2-64Bit/optiga-trust-m/optiga/cmd\optiga_cmd.c **** 
1909:C:/Workspace/DAVE-4.4.2-64Bit/optiga-trust-m/optiga/cmd\optiga_cmd.c ****             me->p_optiga->comms_tx_size = (index_for_data - OPTIGA_COMMS_DATA_OFFSET);
 1842              	 .loc 1 1909 0
 1843 007a 2268     	 ldr r2,[r4]
 1844              	.LVL176:
 1845 007c 033B     	 sub r3,r3,#3
 1846 007e 9380     	 strh r3,[r2,#4]
 1847              	.LVL177:
 1848              	.L154:
1910:C:/Workspace/DAVE-4.4.2-64Bit/optiga-trust-m/optiga/cmd\optiga_cmd.c ****             return_status = OPTIGA_LIB_SUCCESS;
 1849              	 .loc 1 1910 0
 1850 0080 0020     	 mov r0,#0
1911:C:/Workspace/DAVE-4.4.2-64Bit/optiga-trust-m/optiga/cmd\optiga_cmd.c ****         }
1912:C:/Workspace/DAVE-4.4.2-64Bit/optiga-trust-m/optiga/cmd\optiga_cmd.c ****         break;
 1851              	 .loc 1 1912 0
 1852 0082 1CE0     	 b .L143
 1853              	.LVL178:
 1854              	.L145:
1913:C:/Workspace/DAVE-4.4.2-64Bit/optiga-trust-m/optiga/cmd\optiga_cmd.c ****         case OPTIGA_CMD_EXEC_PROCESS_RESPONSE:
1914:C:/Workspace/DAVE-4.4.2-64Bit/optiga-trust-m/optiga/cmd\optiga_cmd.c ****         {
1915:C:/Workspace/DAVE-4.4.2-64Bit/optiga-trust-m/optiga/cmd\optiga_cmd.c ****             OPTIGA_CMD_LOG_MESSAGE("Processing response for calculate sign command...");
1916:C:/Workspace/DAVE-4.4.2-64Bit/optiga-trust-m/optiga/cmd\optiga_cmd.c ****             // check if the calculate signature command was successful
1917:C:/Workspace/DAVE-4.4.2-64Bit/optiga-trust-m/optiga/cmd\optiga_cmd.c ****             if (OPTIGA_CMD_APDU_SUCCESS == me->p_optiga->optiga_comms_buffer[OPTIGA_COMMS_DATA_OFFS
 1855              	 .loc 1 1917 0
 1856 0084 0168     	 ldr r1,[r0]
 1857 0086 8D7C     	 ldrb r5,[r1,#18]
 1858 0088 002D     	 cmp r5,#0
 1859 008a 10D1     	 bne .L147
1918:C:/Workspace/DAVE-4.4.2-64Bit/optiga-trust-m/optiga/cmd\optiga_cmd.c ****             {
1919:C:/Workspace/DAVE-4.4.2-64Bit/optiga-trust-m/optiga/cmd\optiga_cmd.c ****                 // if the received signature length is greater than the user provided signature buf
1920:C:/Workspace/DAVE-4.4.2-64Bit/optiga-trust-m/optiga/cmd\optiga_cmd.c ****                 if ((*(p_optiga_ecdsa_sign->p_signature_length)) <
 1860              	 .loc 1 1920 0
 1861 008c B368     	 ldr r3,[r6,#8]
1921:C:/Workspace/DAVE-4.4.2-64Bit/optiga-trust-m/optiga/cmd\optiga_cmd.c ****                     (me->p_optiga->comms_rx_size - OPTIGA_CMD_APDU_HEADER_SIZE))
 1862              	 .loc 1 1921 0
 1863 008e CA88     	 ldrh r2,[r1,#6]
1920:C:/Workspace/DAVE-4.4.2-64Bit/optiga-trust-m/optiga/cmd\optiga_cmd.c ****                     (me->p_optiga->comms_rx_size - OPTIGA_CMD_APDU_HEADER_SIZE))
 1864              	 .loc 1 1920 0
 1865 0090 1888     	 ldrh r0,[r3]
 1866              	.LVL179:
 1867              	 .loc 1 1921 0
 1868 0092 043A     	 sub r2,r2,#4
1920:C:/Workspace/DAVE-4.4.2-64Bit/optiga-trust-m/optiga/cmd\optiga_cmd.c ****                     (me->p_optiga->comms_rx_size - OPTIGA_CMD_APDU_HEADER_SIZE))
 1869              	 .loc 1 1920 0
 1870 0094 9042     	 cmp r0,r2
 1871 0096 03DA     	 bge .L148
1922:C:/Workspace/DAVE-4.4.2-64Bit/optiga-trust-m/optiga/cmd\optiga_cmd.c ****                 {
1923:C:/Workspace/DAVE-4.4.2-64Bit/optiga-trust-m/optiga/cmd\optiga_cmd.c ****                     OPTIGA_CMD_LOG_MESSAGE("Error in processing calculate sign response...");
1924:C:/Workspace/DAVE-4.4.2-64Bit/optiga-trust-m/optiga/cmd\optiga_cmd.c ****                     *(p_optiga_ecdsa_sign->p_signature_length) = 0x00;
1925:C:/Workspace/DAVE-4.4.2-64Bit/optiga-trust-m/optiga/cmd\optiga_cmd.c ****                     return_status = OPTIGA_CMD_ERROR_MEMORY_INSUFFICIENT;
 1872              	 .loc 1 1925 0
 1873 0098 8120     	 mov r0,#129
1924:C:/Workspace/DAVE-4.4.2-64Bit/optiga-trust-m/optiga/cmd\optiga_cmd.c ****                     return_status = OPTIGA_CMD_ERROR_MEMORY_INSUFFICIENT;
 1874              	 .loc 1 1924 0
 1875 009a 1D80     	 strh r5,[r3]
 1876              	.LVL180:
 1877              	 .loc 1 1925 0
 1878 009c 8000     	 lsl r0,r0,#2
 1879 009e 0EE0     	 b .L143
 1880              	.LVL181:
 1881              	.L148:
1926:C:/Workspace/DAVE-4.4.2-64Bit/optiga-trust-m/optiga/cmd\optiga_cmd.c ****                 }
1927:C:/Workspace/DAVE-4.4.2-64Bit/optiga-trust-m/optiga/cmd\optiga_cmd.c ****                 else
1928:C:/Workspace/DAVE-4.4.2-64Bit/optiga-trust-m/optiga/cmd\optiga_cmd.c ****                 {
1929:C:/Workspace/DAVE-4.4.2-64Bit/optiga-trust-m/optiga/cmd\optiga_cmd.c ****                     *(p_optiga_ecdsa_sign->p_signature_length) = me->p_optiga->comms_rx_size - OPTI
 1882              	 .loc 1 1929 0
 1883 00a0 92B2     	 uxth r2,r2
 1884 00a2 1A80     	 strh r2,[r3]
1930:C:/Workspace/DAVE-4.4.2-64Bit/optiga-trust-m/optiga/cmd\optiga_cmd.c ****                     //copy signed data from optiga comms buffer to user provided buffer
1931:C:/Workspace/DAVE-4.4.2-64Bit/optiga-trust-m/optiga/cmd\optiga_cmd.c **** 
1932:C:/Workspace/DAVE-4.4.2-64Bit/optiga-trust-m/optiga/cmd\optiga_cmd.c ****                     pal_os_memcpy(p_optiga_ecdsa_sign->p_signature,
 1885              	 .loc 1 1932 0
 1886 00a4 7068     	 ldr r0,[r6,#4]
 1887 00a6 1631     	 add r1,r1,#22
 1888 00a8 FFF7FEFF 	 bl memcpy
 1889              	.LVL182:
 1890 00ac E8E7     	 b .L154
 1891              	.LVL183:
 1892              	.L147:
1933:C:/Workspace/DAVE-4.4.2-64Bit/optiga-trust-m/optiga/cmd\optiga_cmd.c ****                                   me->p_optiga->optiga_comms_buffer + OPTIGA_CMD_APDU_INDATA_OFFSET
1934:C:/Workspace/DAVE-4.4.2-64Bit/optiga-trust-m/optiga/cmd\optiga_cmd.c ****                                   *(p_optiga_ecdsa_sign->p_signature_length));
1935:C:/Workspace/DAVE-4.4.2-64Bit/optiga-trust-m/optiga/cmd\optiga_cmd.c ****                     OPTIGA_CMD_LOG_MESSAGE("Response of calculate sign command is processed...");
1936:C:/Workspace/DAVE-4.4.2-64Bit/optiga-trust-m/optiga/cmd\optiga_cmd.c ****                     return_status = OPTIGA_LIB_SUCCESS;
1937:C:/Workspace/DAVE-4.4.2-64Bit/optiga-trust-m/optiga/cmd\optiga_cmd.c ****                 }
1938:C:/Workspace/DAVE-4.4.2-64Bit/optiga-trust-m/optiga/cmd\optiga_cmd.c ****             }
1939:C:/Workspace/DAVE-4.4.2-64Bit/optiga-trust-m/optiga/cmd\optiga_cmd.c ****             else
1940:C:/Workspace/DAVE-4.4.2-64Bit/optiga-trust-m/optiga/cmd\optiga_cmd.c ****             {
1941:C:/Workspace/DAVE-4.4.2-64Bit/optiga-trust-m/optiga/cmd\optiga_cmd.c ****                 OPTIGA_CMD_LOG_MESSAGE("Error in processing calculate sign response...");
1942:C:/Workspace/DAVE-4.4.2-64Bit/optiga-trust-m/optiga/cmd\optiga_cmd.c ****                 SET_DEV_ERROR_NOTIFICATION(OPTIGA_CMD_EXIT_HANDLER_CALL);
 1893              	 .loc 1 1942 0
 1894 00ae 7F23     	 mov r3,#127
 1895 00b0 027F     	 ldrb r2,[r0,#28]
 1896 00b2 1340     	 and r3,r2
1943:C:/Workspace/DAVE-4.4.2-64Bit/optiga-trust-m/optiga/cmd\optiga_cmd.c ****                 *(p_optiga_ecdsa_sign->p_signature_length) = 0x00;
 1897              	 .loc 1 1943 0
 1898 00b4 0022     	 mov r2,#0
1942:C:/Workspace/DAVE-4.4.2-64Bit/optiga-trust-m/optiga/cmd\optiga_cmd.c ****                 *(p_optiga_ecdsa_sign->p_signature_length) = 0x00;
 1899              	 .loc 1 1942 0
 1900 00b6 0377     	 strb r3,[r0,#28]
 1901              	 .loc 1 1943 0
 1902 00b8 B368     	 ldr r3,[r6,#8]
 1903 00ba 1A80     	 strh r2,[r3]
 1904              	.L153:
1858:C:/Workspace/DAVE-4.4.2-64Bit/optiga-trust-m/optiga/cmd\optiga_cmd.c ****     uint16_t private_key_oid;
 1905              	 .loc 1 1858 0
 1906 00bc 0048     	 ldr r0,.L155
 1907              	.LVL184:
 1908              	.L143:
1944:C:/Workspace/DAVE-4.4.2-64Bit/optiga-trust-m/optiga/cmd\optiga_cmd.c ****             }
1945:C:/Workspace/DAVE-4.4.2-64Bit/optiga-trust-m/optiga/cmd\optiga_cmd.c ****         }
1946:C:/Workspace/DAVE-4.4.2-64Bit/optiga-trust-m/optiga/cmd\optiga_cmd.c ****         break;
1947:C:/Workspace/DAVE-4.4.2-64Bit/optiga-trust-m/optiga/cmd\optiga_cmd.c ****         default:
1948:C:/Workspace/DAVE-4.4.2-64Bit/optiga-trust-m/optiga/cmd\optiga_cmd.c ****             break;
1949:C:/Workspace/DAVE-4.4.2-64Bit/optiga-trust-m/optiga/cmd\optiga_cmd.c ****     }
1950:C:/Workspace/DAVE-4.4.2-64Bit/optiga-trust-m/optiga/cmd\optiga_cmd.c **** 
1951:C:/Workspace/DAVE-4.4.2-64Bit/optiga-trust-m/optiga/cmd\optiga_cmd.c ****     return (return_status);
1952:C:/Workspace/DAVE-4.4.2-64Bit/optiga-trust-m/optiga/cmd\optiga_cmd.c **** }
 1909              	 .loc 1 1952 0
 1910              	 
 1911              	.LVL185:
 1912              	.LVL186:
 1913 00be 76BD     	 pop {r1,r2,r4,r5,r6,pc}
 1914              	.L156:
 1915              	 .align 2
 1916              	.L155:
 1917 00c0 02020000 	 .word 514
 1918              	 .cfi_endproc
 1919              	.LFE35:
 1921              	 .section .text.optiga_cmd_verify_sign_handler,"ax",%progbits
 1922              	 .align 1
 1923              	 .code 16
 1924              	 .thumb_func
 1926              	optiga_cmd_verify_sign_handler:
 1927              	.LFB37:
1953:C:/Workspace/DAVE-4.4.2-64Bit/optiga-trust-m/optiga/cmd\optiga_cmd.c **** 
1954:C:/Workspace/DAVE-4.4.2-64Bit/optiga-trust-m/optiga/cmd\optiga_cmd.c **** 
1955:C:/Workspace/DAVE-4.4.2-64Bit/optiga-trust-m/optiga/cmd\optiga_cmd.c **** optiga_lib_status_t optiga_cmd_calc_sign(optiga_cmd_t * me, uint8_t cmd_param, optiga_calc_sign_par
1956:C:/Workspace/DAVE-4.4.2-64Bit/optiga-trust-m/optiga/cmd\optiga_cmd.c **** {
1957:C:/Workspace/DAVE-4.4.2-64Bit/optiga-trust-m/optiga/cmd\optiga_cmd.c ****     optiga_lib_status_t return_status = OPTIGA_CMD_ERROR_INVALID_INPUT;
1958:C:/Workspace/DAVE-4.4.2-64Bit/optiga-trust-m/optiga/cmd\optiga_cmd.c ****     optiga_calc_sign_params_t * p_optiga_ecdsa_sign = (optiga_calc_sign_params_t*)params;
1959:C:/Workspace/DAVE-4.4.2-64Bit/optiga-trust-m/optiga/cmd\optiga_cmd.c ****     optiga_cmd_state_t cmd_handler_state = OPTIGA_CMD_EXEC_REQUEST_LOCK;
1960:C:/Workspace/DAVE-4.4.2-64Bit/optiga-trust-m/optiga/cmd\optiga_cmd.c ****     OPTIGA_CMD_LOG_MESSAGE(__FUNCTION__);
1961:C:/Workspace/DAVE-4.4.2-64Bit/optiga-trust-m/optiga/cmd\optiga_cmd.c ****     do
1962:C:/Workspace/DAVE-4.4.2-64Bit/optiga-trust-m/optiga/cmd\optiga_cmd.c ****     {
1963:C:/Workspace/DAVE-4.4.2-64Bit/optiga-trust-m/optiga/cmd\optiga_cmd.c ****         if (OPTIGA_KEY_ID_SESSION_BASED == p_optiga_ecdsa_sign->private_key_oid)
1964:C:/Workspace/DAVE-4.4.2-64Bit/optiga-trust-m/optiga/cmd\optiga_cmd.c ****         {
1965:C:/Workspace/DAVE-4.4.2-64Bit/optiga-trust-m/optiga/cmd\optiga_cmd.c ****             if (OPTIGA_CMD_ZERO_LENGTH_OR_VALUE == me->session_oid)
1966:C:/Workspace/DAVE-4.4.2-64Bit/optiga-trust-m/optiga/cmd\optiga_cmd.c ****             {
1967:C:/Workspace/DAVE-4.4.2-64Bit/optiga-trust-m/optiga/cmd\optiga_cmd.c ****                 break;
1968:C:/Workspace/DAVE-4.4.2-64Bit/optiga-trust-m/optiga/cmd\optiga_cmd.c ****             }
1969:C:/Workspace/DAVE-4.4.2-64Bit/optiga-trust-m/optiga/cmd\optiga_cmd.c ****             cmd_handler_state = OPTIGA_CMD_EXEC_REQUEST_SESSION;
1970:C:/Workspace/DAVE-4.4.2-64Bit/optiga-trust-m/optiga/cmd\optiga_cmd.c ****         }
1971:C:/Workspace/DAVE-4.4.2-64Bit/optiga-trust-m/optiga/cmd\optiga_cmd.c **** 
1972:C:/Workspace/DAVE-4.4.2-64Bit/optiga-trust-m/optiga/cmd\optiga_cmd.c **** 
1973:C:/Workspace/DAVE-4.4.2-64Bit/optiga-trust-m/optiga/cmd\optiga_cmd.c ****         optiga_cmd_execute(me,
1974:C:/Workspace/DAVE-4.4.2-64Bit/optiga-trust-m/optiga/cmd\optiga_cmd.c ****                            cmd_param,
1975:C:/Workspace/DAVE-4.4.2-64Bit/optiga-trust-m/optiga/cmd\optiga_cmd.c ****                            optiga_cmd_calc_sign_handler,
1976:C:/Workspace/DAVE-4.4.2-64Bit/optiga-trust-m/optiga/cmd\optiga_cmd.c ****                            cmd_handler_state,
1977:C:/Workspace/DAVE-4.4.2-64Bit/optiga-trust-m/optiga/cmd\optiga_cmd.c ****                            params);
1978:C:/Workspace/DAVE-4.4.2-64Bit/optiga-trust-m/optiga/cmd\optiga_cmd.c **** 
1979:C:/Workspace/DAVE-4.4.2-64Bit/optiga-trust-m/optiga/cmd\optiga_cmd.c ****         return_status = OPTIGA_LIB_SUCCESS;
1980:C:/Workspace/DAVE-4.4.2-64Bit/optiga-trust-m/optiga/cmd\optiga_cmd.c ****     } while (FALSE);
1981:C:/Workspace/DAVE-4.4.2-64Bit/optiga-trust-m/optiga/cmd\optiga_cmd.c ****     return (return_status);
1982:C:/Workspace/DAVE-4.4.2-64Bit/optiga-trust-m/optiga/cmd\optiga_cmd.c **** }
1983:C:/Workspace/DAVE-4.4.2-64Bit/optiga-trust-m/optiga/cmd\optiga_cmd.c **** #endif //(OPTIGA_CRYPT_ECDSA_SIGN_ENABLED) ||(OPTIGA_CRYPT_RSA_SIGN_ENABLED)
1984:C:/Workspace/DAVE-4.4.2-64Bit/optiga-trust-m/optiga/cmd\optiga_cmd.c **** 
1985:C:/Workspace/DAVE-4.4.2-64Bit/optiga-trust-m/optiga/cmd\optiga_cmd.c **** #if defined (OPTIGA_CRYPT_ECDSA_VERIFY_ENABLED) || defined (OPTIGA_CRYPT_RSA_VERIFY_ENABLED)
1986:C:/Workspace/DAVE-4.4.2-64Bit/optiga-trust-m/optiga/cmd\optiga_cmd.c **** /*
1987:C:/Workspace/DAVE-4.4.2-64Bit/optiga-trust-m/optiga/cmd\optiga_cmd.c **** * VerifySign handler
1988:C:/Workspace/DAVE-4.4.2-64Bit/optiga-trust-m/optiga/cmd\optiga_cmd.c **** */
1989:C:/Workspace/DAVE-4.4.2-64Bit/optiga-trust-m/optiga/cmd\optiga_cmd.c **** _STATIC_H optiga_lib_status_t optiga_cmd_verify_sign_handler(optiga_cmd_t * me)
1990:C:/Workspace/DAVE-4.4.2-64Bit/optiga-trust-m/optiga/cmd\optiga_cmd.c **** {
 1928              	 .loc 1 1990 0
 1929              	 .cfi_startproc
 1930              	.LVL187:
 1931 0000 73B5     	 push {r0,r1,r4,r5,r6,lr}
 1932              	.LCFI10:
 1933              	 .cfi_def_cfa_offset 24
 1934              	 .cfi_offset 0,-24
 1935              	 .cfi_offset 1,-20
 1936              	 .cfi_offset 4,-16
 1937              	 .cfi_offset 5,-12
 1938              	 .cfi_offset 6,-8
 1939              	 .cfi_offset 14,-4
1991:C:/Workspace/DAVE-4.4.2-64Bit/optiga-trust-m/optiga/cmd\optiga_cmd.c ****     uint16_t total_apdu_length;
1992:C:/Workspace/DAVE-4.4.2-64Bit/optiga-trust-m/optiga/cmd\optiga_cmd.c ****     optiga_verify_sign_params_t * p_optiga_verify_sign = (optiga_verify_sign_params_t *)me->p_input
1993:C:/Workspace/DAVE-4.4.2-64Bit/optiga-trust-m/optiga/cmd\optiga_cmd.c ****     uint16_t index_for_data = OPTIGA_CMD_APDU_INDATA_OFFSET;
 1940              	 .loc 1 1993 0
 1941 0002 6B46     	 mov r3,sp
 1942 0004 9C1D     	 add r4,r3,#6
 1943 0006 0923     	 mov r3,#9
 1944 0008 2380     	 strh r3,[r4]
1994:C:/Workspace/DAVE-4.4.2-64Bit/optiga-trust-m/optiga/cmd\optiga_cmd.c ****     optiga_lib_status_t return_status = OPTIGA_CMD_ERROR;
1995:C:/Workspace/DAVE-4.4.2-64Bit/optiga-trust-m/optiga/cmd\optiga_cmd.c **** 
1996:C:/Workspace/DAVE-4.4.2-64Bit/optiga-trust-m/optiga/cmd\optiga_cmd.c ****     switch ((uint8_t)me->cmd_next_execution_state)
 1945              	 .loc 1 1996 0
 1946 000a 837D     	 ldrb r3,[r0,#22]
1990:C:/Workspace/DAVE-4.4.2-64Bit/optiga-trust-m/optiga/cmd\optiga_cmd.c ****     uint16_t total_apdu_length;
 1947              	 .loc 1 1990 0
 1948 000c 051C     	 mov r5,r0
1992:C:/Workspace/DAVE-4.4.2-64Bit/optiga-trust-m/optiga/cmd\optiga_cmd.c ****     uint16_t index_for_data = OPTIGA_CMD_APDU_INDATA_OFFSET;
 1949              	 .loc 1 1992 0
 1950 000e 8668     	 ldr r6,[r0,#8]
 1951              	.LVL188:
 1952              	 .loc 1 1996 0
 1953 0010 082B     	 cmp r3,#8
 1954 0012 03D0     	 beq .L159
 1955 0014 092B     	 cmp r3,#9
 1956 0016 00D1     	 bne .LCB1949
 1957 0018 82E0     	 b .L160
 1958              	.LCB1949:
 1959 001a 8AE0     	 b .L169
 1960              	.L159:
 1961 001c B289     	 ldrh r2,[r6,#12]
1997:C:/Workspace/DAVE-4.4.2-64Bit/optiga-trust-m/optiga/cmd\optiga_cmd.c ****     {
1998:C:/Workspace/DAVE-4.4.2-64Bit/optiga-trust-m/optiga/cmd\optiga_cmd.c ****         case OPTIGA_CMD_EXEC_PREPARE_COMMAND:
1999:C:/Workspace/DAVE-4.4.2-64Bit/optiga-trust-m/optiga/cmd\optiga_cmd.c ****         {
2000:C:/Workspace/DAVE-4.4.2-64Bit/optiga-trust-m/optiga/cmd\optiga_cmd.c ****             OPTIGA_CMD_LOG_MESSAGE("Sending verify sign command..");
2001:C:/Workspace/DAVE-4.4.2-64Bit/optiga-trust-m/optiga/cmd\optiga_cmd.c ****             // APDU header length + TLV of digest + TLV of signature +
2002:C:/Workspace/DAVE-4.4.2-64Bit/optiga-trust-m/optiga/cmd\optiga_cmd.c ****             // If public key from OID (TLV of public key OID)
2003:C:/Workspace/DAVE-4.4.2-64Bit/optiga-trust-m/optiga/cmd\optiga_cmd.c ****             // If public key from host (TLV of algo ID + TLV of public key)
2004:C:/Workspace/DAVE-4.4.2-64Bit/optiga-trust-m/optiga/cmd\optiga_cmd.c ****             total_apdu_length = OPTIGA_CMD_APDU_HEADER_SIZE + OPTIGA_CMD_APDU_TL_LENGTH + p_optiga_
 1962              	 .loc 1 2004 0
 1963 001e B07B     	 ldrb r0,[r6,#14]
 1964              	.LVL189:
 1965 0020 0A32     	 add r2,r2,#10
 1966 0022 3179     	 ldrb r1,[r6,#4]
 1967 0024 92B2     	 uxth r2,r2
 1968 0026 0523     	 mov r3,#5
 1969 0028 0028     	 cmp r0,#0
 1970 002a 03D0     	 beq .L161
 1971              	 .loc 1 2004 0 is_stmt 0 discriminator 1
 1972 002c 3369     	 ldr r3,[r6,#16]
 1973 002e 9B88     	 ldrh r3,[r3,#4]
 1974 0030 0933     	 add r3,r3,#9
 1975 0032 9BB2     	 uxth r3,r3
 1976              	.L161:
 1977              	.LVL190:
 1978 0034 5218     	 add r2,r2,r1
 1979              	.LVL191:
 1980              	 .loc 1 2004 0 discriminator 4
 1981 0036 9B18     	 add r3,r3,r2
2005:C:/Workspace/DAVE-4.4.2-64Bit/optiga-trust-m/optiga/cmd\optiga_cmd.c ****                                     OPTIGA_CMD_APDU_TL_LENGTH + (p_optiga_verify_sign->signature_le
2006:C:/Workspace/DAVE-4.4.2-64Bit/optiga-trust-m/optiga/cmd\optiga_cmd.c ****                                     (OPTIGA_CRYPT_OID_DATA == p_optiga_verify_sign->public_key_sour
2007:C:/Workspace/DAVE-4.4.2-64Bit/optiga-trust-m/optiga/cmd\optiga_cmd.c ****                                      (OPTIGA_CMD_APDU_TL_LENGTH + OPTIGA_CMD_UINT16_SIZE_IN_BYTES):
2008:C:/Workspace/DAVE-4.4.2-64Bit/optiga-trust-m/optiga/cmd\optiga_cmd.c ****                                     (OPTIGA_CMD_APDU_TL_LENGTH + OPTIGA_CMD_UINT16_SIZE_IN_BYTES + 
2009:C:/Workspace/DAVE-4.4.2-64Bit/optiga-trust-m/optiga/cmd\optiga_cmd.c ****                                      p_optiga_verify_sign->public_key->length));
2010:C:/Workspace/DAVE-4.4.2-64Bit/optiga-trust-m/optiga/cmd\optiga_cmd.c ****             if (OPTIGA_MAX_COMMS_BUFFER_SIZE < total_apdu_length)
 1982              	 .loc 1 2010 0 is_stmt 1 discriminator 4
 1983 0038 404A     	 ldr r2,.L171
 1984 003a 9BB2     	 uxth r3,r3
 1985 003c 9342     	 cmp r3,r2
 1986 003e 00D9     	 bls .LCB1978
 1987 0040 79E0     	 b .L166
 1988              	.LCB1978:
2011:C:/Workspace/DAVE-4.4.2-64Bit/optiga-trust-m/optiga/cmd\optiga_cmd.c ****             {
2012:C:/Workspace/DAVE-4.4.2-64Bit/optiga-trust-m/optiga/cmd\optiga_cmd.c ****                 return_status = OPTIGA_CMD_ERROR_MEMORY_INSUFFICIENT;
2013:C:/Workspace/DAVE-4.4.2-64Bit/optiga-trust-m/optiga/cmd\optiga_cmd.c ****                 break;
2014:C:/Workspace/DAVE-4.4.2-64Bit/optiga-trust-m/optiga/cmd\optiga_cmd.c ****             }
2015:C:/Workspace/DAVE-4.4.2-64Bit/optiga-trust-m/optiga/cmd\optiga_cmd.c ****             //TLV formation for digest
2016:C:/Workspace/DAVE-4.4.2-64Bit/optiga-trust-m/optiga/cmd\optiga_cmd.c ****             optiga_cmd_prepare_tag_header(CMD_VERIFY_SIGN_DIGEST_TAG,
2017:C:/Workspace/DAVE-4.4.2-64Bit/optiga-trust-m/optiga/cmd\optiga_cmd.c ****                                           p_optiga_verify_sign->digest_length,
2018:C:/Workspace/DAVE-4.4.2-64Bit/optiga-trust-m/optiga/cmd\optiga_cmd.c ****                                           me->p_optiga->optiga_comms_buffer,
 1989              	 .loc 1 2018 0
 1990 0042 2A68     	 ldr r2,[r5]
2016:C:/Workspace/DAVE-4.4.2-64Bit/optiga-trust-m/optiga/cmd\optiga_cmd.c ****                                           p_optiga_verify_sign->digest_length,
 1991              	 .loc 1 2016 0
 1992 0044 0120     	 mov r0,#1
 1993              	 .loc 1 2018 0
 1994 0046 0D32     	 add r2,r2,#13
2016:C:/Workspace/DAVE-4.4.2-64Bit/optiga-trust-m/optiga/cmd\optiga_cmd.c ****                                           p_optiga_verify_sign->digest_length,
 1995              	 .loc 1 2016 0
 1996 0048 231C     	 mov r3,r4
 1997 004a FFF7FEFF 	 bl optiga_cmd_prepare_tag_header
 1998              	.LVL192:
2019:C:/Workspace/DAVE-4.4.2-64Bit/optiga-trust-m/optiga/cmd\optiga_cmd.c ****                                           &index_for_data);
2020:C:/Workspace/DAVE-4.4.2-64Bit/optiga-trust-m/optiga/cmd\optiga_cmd.c **** 
2021:C:/Workspace/DAVE-4.4.2-64Bit/optiga-trust-m/optiga/cmd\optiga_cmd.c ****             pal_os_memcpy(me->p_optiga->optiga_comms_buffer + index_for_data,
 1999              	 .loc 1 2021 0
 2000 004e 2B68     	 ldr r3,[r5]
 2001 0050 2088     	 ldrh r0,[r4]
 2002 0052 3279     	 ldrb r2,[r6,#4]
 2003 0054 1818     	 add r0,r3,r0
 2004 0056 3168     	 ldr r1,[r6]
 2005 0058 0D30     	 add r0,r0,#13
 2006 005a FFF7FEFF 	 bl memcpy
 2007              	.LVL193:
2022:C:/Workspace/DAVE-4.4.2-64Bit/optiga-trust-m/optiga/cmd\optiga_cmd.c ****                           p_optiga_verify_sign->p_digest,
2023:C:/Workspace/DAVE-4.4.2-64Bit/optiga-trust-m/optiga/cmd\optiga_cmd.c ****                           p_optiga_verify_sign->digest_length);
2024:C:/Workspace/DAVE-4.4.2-64Bit/optiga-trust-m/optiga/cmd\optiga_cmd.c ****             index_for_data += p_optiga_verify_sign->digest_length;
 2008              	 .loc 1 2024 0
 2009 005e 3279     	 ldrb r2,[r6,#4]
 2010 0060 2388     	 ldrh r3,[r4]
2025:C:/Workspace/DAVE-4.4.2-64Bit/optiga-trust-m/optiga/cmd\optiga_cmd.c **** 
2026:C:/Workspace/DAVE-4.4.2-64Bit/optiga-trust-m/optiga/cmd\optiga_cmd.c ****             //TLV formation for signature
2027:C:/Workspace/DAVE-4.4.2-64Bit/optiga-trust-m/optiga/cmd\optiga_cmd.c ****             optiga_cmd_prepare_tag_header(CMD_VERIFY_SIGN_SIGNATURE_TAG,
 2011              	 .loc 1 2027 0
 2012 0062 0220     	 mov r0,#2
2024:C:/Workspace/DAVE-4.4.2-64Bit/optiga-trust-m/optiga/cmd\optiga_cmd.c **** 
 2013              	 .loc 1 2024 0
 2014 0064 D318     	 add r3,r2,r3
2028:C:/Workspace/DAVE-4.4.2-64Bit/optiga-trust-m/optiga/cmd\optiga_cmd.c ****                                           p_optiga_verify_sign->signature_length,
2029:C:/Workspace/DAVE-4.4.2-64Bit/optiga-trust-m/optiga/cmd\optiga_cmd.c ****                                           me->p_optiga->optiga_comms_buffer,
 2015              	 .loc 1 2029 0
 2016 0066 2A68     	 ldr r2,[r5]
2024:C:/Workspace/DAVE-4.4.2-64Bit/optiga-trust-m/optiga/cmd\optiga_cmd.c **** 
 2017              	 .loc 1 2024 0
 2018 0068 2380     	 strh r3,[r4]
2027:C:/Workspace/DAVE-4.4.2-64Bit/optiga-trust-m/optiga/cmd\optiga_cmd.c ****                                           p_optiga_verify_sign->signature_length,
 2019              	 .loc 1 2027 0
 2020 006a B189     	 ldrh r1,[r6,#12]
 2021              	 .loc 1 2029 0
 2022 006c 0D32     	 add r2,r2,#13
2027:C:/Workspace/DAVE-4.4.2-64Bit/optiga-trust-m/optiga/cmd\optiga_cmd.c ****                                           p_optiga_verify_sign->signature_length,
 2023              	 .loc 1 2027 0
 2024 006e 231C     	 mov r3,r4
 2025 0070 FFF7FEFF 	 bl optiga_cmd_prepare_tag_header
 2026              	.LVL194:
2030:C:/Workspace/DAVE-4.4.2-64Bit/optiga-trust-m/optiga/cmd\optiga_cmd.c ****                                           &index_for_data);
2031:C:/Workspace/DAVE-4.4.2-64Bit/optiga-trust-m/optiga/cmd\optiga_cmd.c **** 
2032:C:/Workspace/DAVE-4.4.2-64Bit/optiga-trust-m/optiga/cmd\optiga_cmd.c ****             pal_os_memcpy(me->p_optiga->optiga_comms_buffer + index_for_data,
 2027              	 .loc 1 2032 0
 2028 0074 2B68     	 ldr r3,[r5]
 2029 0076 2088     	 ldrh r0,[r4]
 2030 0078 B289     	 ldrh r2,[r6,#12]
 2031 007a 1818     	 add r0,r3,r0
 2032 007c 0D30     	 add r0,r0,#13
 2033 007e B168     	 ldr r1,[r6,#8]
 2034 0080 FFF7FEFF 	 bl memcpy
 2035              	.LVL195:
2033:C:/Workspace/DAVE-4.4.2-64Bit/optiga-trust-m/optiga/cmd\optiga_cmd.c ****                           p_optiga_verify_sign->p_signature,
2034:C:/Workspace/DAVE-4.4.2-64Bit/optiga-trust-m/optiga/cmd\optiga_cmd.c ****                           p_optiga_verify_sign->signature_length);
2035:C:/Workspace/DAVE-4.4.2-64Bit/optiga-trust-m/optiga/cmd\optiga_cmd.c ****             index_for_data += p_optiga_verify_sign->signature_length;
 2036              	 .loc 1 2035 0
 2037 0084 B289     	 ldrh r2,[r6,#12]
 2038 0086 2388     	 ldrh r3,[r4]
 2039 0088 D318     	 add r3,r2,r3
 2040 008a 2380     	 strh r3,[r4]
 2041 008c 2A68     	 ldr r2,[r5]
2036:C:/Workspace/DAVE-4.4.2-64Bit/optiga-trust-m/optiga/cmd\optiga_cmd.c **** 
2037:C:/Workspace/DAVE-4.4.2-64Bit/optiga-trust-m/optiga/cmd\optiga_cmd.c ****             if (OPTIGA_CRYPT_OID_DATA == p_optiga_verify_sign->public_key_source_type)
 2042              	 .loc 1 2037 0
 2043 008e B37B     	 ldrb r3,[r6,#14]
2038:C:/Workspace/DAVE-4.4.2-64Bit/optiga-trust-m/optiga/cmd\optiga_cmd.c ****             {
2039:C:/Workspace/DAVE-4.4.2-64Bit/optiga-trust-m/optiga/cmd\optiga_cmd.c ****                 //TLV formation for public key certificate OID
2040:C:/Workspace/DAVE-4.4.2-64Bit/optiga-trust-m/optiga/cmd\optiga_cmd.c ****                 optiga_cmd_prepare_tag_header(CMD_VERIFY_SIGN_PUB_KEY_CERT_OID_TAG,
2041:C:/Workspace/DAVE-4.4.2-64Bit/optiga-trust-m/optiga/cmd\optiga_cmd.c ****                                               CMD_VERIFY_SIGN_PUB_KEY_CERT_OID_LENGTH,
2042:C:/Workspace/DAVE-4.4.2-64Bit/optiga-trust-m/optiga/cmd\optiga_cmd.c ****                                               me->p_optiga->optiga_comms_buffer,
 2044              	 .loc 1 2042 0
 2045 0090 0D32     	 add r2,r2,#13
2037:C:/Workspace/DAVE-4.4.2-64Bit/optiga-trust-m/optiga/cmd\optiga_cmd.c ****             {
 2046              	 .loc 1 2037 0
 2047 0092 002B     	 cmp r3,#0
 2048 0094 0ED1     	 bne .L162
2040:C:/Workspace/DAVE-4.4.2-64Bit/optiga-trust-m/optiga/cmd\optiga_cmd.c ****                                               CMD_VERIFY_SIGN_PUB_KEY_CERT_OID_LENGTH,
 2049              	 .loc 1 2040 0
 2050 0096 0420     	 mov r0,#4
 2051 0098 0221     	 mov r1,#2
 2052 009a 231C     	 mov r3,r4
 2053 009c FFF7FEFF 	 bl optiga_cmd_prepare_tag_header
 2054              	.LVL196:
2043:C:/Workspace/DAVE-4.4.2-64Bit/optiga-trust-m/optiga/cmd\optiga_cmd.c ****                                               &index_for_data);
2044:C:/Workspace/DAVE-4.4.2-64Bit/optiga-trust-m/optiga/cmd\optiga_cmd.c **** 
2045:C:/Workspace/DAVE-4.4.2-64Bit/optiga-trust-m/optiga/cmd\optiga_cmd.c ****                 optiga_common_set_uint16((me->p_optiga->optiga_comms_buffer + index_for_data),
 2055              	 .loc 1 2045 0
 2056 00a0 2B68     	 ldr r3,[r5]
 2057 00a2 2088     	 ldrh r0,[r4]
 2058 00a4 B18A     	 ldrh r1,[r6,#20]
 2059 00a6 1818     	 add r0,r3,r0
 2060 00a8 0D30     	 add r0,r0,#13
 2061 00aa FFF7FEFF 	 bl optiga_common_set_uint16
 2062              	.LVL197:
2046:C:/Workspace/DAVE-4.4.2-64Bit/optiga-trust-m/optiga/cmd\optiga_cmd.c ****                                          p_optiga_verify_sign->certificate_oid);
2047:C:/Workspace/DAVE-4.4.2-64Bit/optiga-trust-m/optiga/cmd\optiga_cmd.c ****                 index_for_data += OPTIGA_CMD_UINT16_SIZE_IN_BYTES;
 2063              	 .loc 1 2047 0
 2064 00ae 2388     	 ldrh r3,[r4]
 2065 00b0 0233     	 add r3,r3,#2
 2066 00b2 21E0     	 b .L170
 2067              	.L162:
2048:C:/Workspace/DAVE-4.4.2-64Bit/optiga-trust-m/optiga/cmd\optiga_cmd.c ****             }
2049:C:/Workspace/DAVE-4.4.2-64Bit/optiga-trust-m/optiga/cmd\optiga_cmd.c ****             else
2050:C:/Workspace/DAVE-4.4.2-64Bit/optiga-trust-m/optiga/cmd\optiga_cmd.c ****             {
2051:C:/Workspace/DAVE-4.4.2-64Bit/optiga-trust-m/optiga/cmd\optiga_cmd.c ****                 //TLV formation for public key from host
2052:C:/Workspace/DAVE-4.4.2-64Bit/optiga-trust-m/optiga/cmd\optiga_cmd.c ****                 optiga_cmd_prepare_tag_header(CMD_VERIFY_ALGO_ID_TAG,
 2068              	 .loc 1 2052 0
 2069 00b4 0520     	 mov r0,#5
 2070 00b6 0121     	 mov r1,#1
 2071 00b8 231C     	 mov r3,r4
 2072 00ba FFF7FEFF 	 bl optiga_cmd_prepare_tag_header
 2073              	.LVL198:
2053:C:/Workspace/DAVE-4.4.2-64Bit/optiga-trust-m/optiga/cmd\optiga_cmd.c ****                                               CMD_VERIFY_ALGO_ID_LENGTH,
2054:C:/Workspace/DAVE-4.4.2-64Bit/optiga-trust-m/optiga/cmd\optiga_cmd.c ****                                               me->p_optiga->optiga_comms_buffer,
2055:C:/Workspace/DAVE-4.4.2-64Bit/optiga-trust-m/optiga/cmd\optiga_cmd.c ****                                               &index_for_data);
2056:C:/Workspace/DAVE-4.4.2-64Bit/optiga-trust-m/optiga/cmd\optiga_cmd.c **** 
2057:C:/Workspace/DAVE-4.4.2-64Bit/optiga-trust-m/optiga/cmd\optiga_cmd.c ****                 *(me->p_optiga->optiga_comms_buffer + index_for_data++) = (uint8_t)p_optiga_verify_
 2074              	 .loc 1 2057 0
 2075 00be 2388     	 ldrh r3,[r4]
 2076 00c0 2968     	 ldr r1,[r5]
 2077 00c2 5A1C     	 add r2,r3,#1
 2078 00c4 2280     	 strh r2,[r4]
 2079 00c6 3269     	 ldr r2,[r6,#16]
 2080 00c8 CB18     	 add r3,r1,r3
 2081 00ca 9279     	 ldrb r2,[r2,#6]
2058:C:/Workspace/DAVE-4.4.2-64Bit/optiga-trust-m/optiga/cmd\optiga_cmd.c **** 
2059:C:/Workspace/DAVE-4.4.2-64Bit/optiga-trust-m/optiga/cmd\optiga_cmd.c ****                 optiga_cmd_prepare_tag_header(CMD_VERIFY_PUBLIC_KEY_TAG,
 2082              	 .loc 1 2059 0
 2083 00cc 0620     	 mov r0,#6
2057:C:/Workspace/DAVE-4.4.2-64Bit/optiga-trust-m/optiga/cmd\optiga_cmd.c **** 
 2084              	 .loc 1 2057 0
 2085 00ce 5A73     	 strb r2,[r3,#13]
 2086              	 .loc 1 2059 0
 2087 00d0 3369     	 ldr r3,[r6,#16]
2060:C:/Workspace/DAVE-4.4.2-64Bit/optiga-trust-m/optiga/cmd\optiga_cmd.c ****                                               p_optiga_verify_sign->public_key->length,
2061:C:/Workspace/DAVE-4.4.2-64Bit/optiga-trust-m/optiga/cmd\optiga_cmd.c ****                                               me->p_optiga->optiga_comms_buffer,
 2088              	 .loc 1 2061 0
 2089 00d2 2A68     	 ldr r2,[r5]
2059:C:/Workspace/DAVE-4.4.2-64Bit/optiga-trust-m/optiga/cmd\optiga_cmd.c ****                                               p_optiga_verify_sign->public_key->length,
 2090              	 .loc 1 2059 0
 2091 00d4 9988     	 ldrh r1,[r3,#4]
 2092              	 .loc 1 2061 0
 2093 00d6 0D32     	 add r2,r2,#13
2059:C:/Workspace/DAVE-4.4.2-64Bit/optiga-trust-m/optiga/cmd\optiga_cmd.c ****                                               p_optiga_verify_sign->public_key->length,
 2094              	 .loc 1 2059 0
 2095 00d8 231C     	 mov r3,r4
 2096 00da FFF7FEFF 	 bl optiga_cmd_prepare_tag_header
 2097              	.LVL199:
2062:C:/Workspace/DAVE-4.4.2-64Bit/optiga-trust-m/optiga/cmd\optiga_cmd.c ****                                               &index_for_data);
2063:C:/Workspace/DAVE-4.4.2-64Bit/optiga-trust-m/optiga/cmd\optiga_cmd.c **** 
2064:C:/Workspace/DAVE-4.4.2-64Bit/optiga-trust-m/optiga/cmd\optiga_cmd.c ****                 pal_os_memcpy(me->p_optiga->optiga_comms_buffer + index_for_data,
 2098              	 .loc 1 2064 0
 2099 00de 2A68     	 ldr r2,[r5]
 2100 00e0 2088     	 ldrh r0,[r4]
 2101 00e2 3369     	 ldr r3,[r6,#16]
 2102 00e4 1018     	 add r0,r2,r0
 2103 00e6 1968     	 ldr r1,[r3]
 2104 00e8 9A88     	 ldrh r2,[r3,#4]
 2105 00ea 0D30     	 add r0,r0,#13
 2106 00ec FFF7FEFF 	 bl memcpy
 2107              	.LVL200:
2065:C:/Workspace/DAVE-4.4.2-64Bit/optiga-trust-m/optiga/cmd\optiga_cmd.c ****                               p_optiga_verify_sign->public_key->public_key,
2066:C:/Workspace/DAVE-4.4.2-64Bit/optiga-trust-m/optiga/cmd\optiga_cmd.c ****                               p_optiga_verify_sign->public_key->length);
2067:C:/Workspace/DAVE-4.4.2-64Bit/optiga-trust-m/optiga/cmd\optiga_cmd.c ****                 index_for_data += p_optiga_verify_sign->public_key->length;
 2108              	 .loc 1 2067 0
 2109 00f0 3369     	 ldr r3,[r6,#16]
 2110 00f2 9A88     	 ldrh r2,[r3,#4]
 2111 00f4 2388     	 ldrh r3,[r4]
 2112 00f6 D318     	 add r3,r2,r3
 2113              	.L170:
 2114 00f8 2380     	 strh r3,[r4]
2068:C:/Workspace/DAVE-4.4.2-64Bit/optiga-trust-m/optiga/cmd\optiga_cmd.c ****             }
2069:C:/Workspace/DAVE-4.4.2-64Bit/optiga-trust-m/optiga/cmd\optiga_cmd.c **** 
2070:C:/Workspace/DAVE-4.4.2-64Bit/optiga-trust-m/optiga/cmd\optiga_cmd.c ****             //form apdu header
2071:C:/Workspace/DAVE-4.4.2-64Bit/optiga-trust-m/optiga/cmd\optiga_cmd.c ****             optiga_cmd_prepare_apdu_header(OPTIGA_CMD_VERIFY_SIGN,
 2115              	 .loc 1 2071 0
 2116 00fa 2388     	 ldrh r3,[r4]
 2117              	.LBB136:
 2118              	.LBB137:
 421:C:/Workspace/DAVE-4.4.2-64Bit/optiga-trust-m/optiga/cmd\optiga_cmd.c ****     p_apdu_buffer [1] = param;
 2119              	 .loc 1 421 0
 2120 00fc B224     	 mov r4,#178
 2121              	.LBE137:
 2122              	.LBE136:
 2123              	 .loc 1 2071 0
 2124 00fe 191C     	 mov r1,r3
 2125 0100 287E     	 ldrb r0,[r5,#24]
2072:C:/Workspace/DAVE-4.4.2-64Bit/optiga-trust-m/optiga/cmd\optiga_cmd.c ****                                            me->cmd_param,
2073:C:/Workspace/DAVE-4.4.2-64Bit/optiga-trust-m/optiga/cmd\optiga_cmd.c ****                                            (uint16_t)(index_for_data - OPTIGA_CMD_APDU_INDATA_OFFSE
2074:C:/Workspace/DAVE-4.4.2-64Bit/optiga-trust-m/optiga/cmd\optiga_cmd.c ****                                            me->p_optiga->optiga_comms_buffer + OPTIGA_COMMS_DATA_OF
 2126              	 .loc 1 2074 0
 2127 0102 2A68     	 ldr r2,[r5]
 2128              	.LVL201:
2071:C:/Workspace/DAVE-4.4.2-64Bit/optiga-trust-m/optiga/cmd\optiga_cmd.c ****                                            me->cmd_param,
 2129              	 .loc 1 2071 0
 2130 0104 0939     	 sub r1,r1,#9
 2131 0106 89B2     	 uxth r1,r1
 2132              	.LVL202:
 2133              	.LBB139:
 2134              	.LBB138:
 422:C:/Workspace/DAVE-4.4.2-64Bit/optiga-trust-m/optiga/cmd\optiga_cmd.c ****     p_apdu_buffer [2] = (uint8_t)((in_data_length & 0xFF00) >> 8);
 2135              	 .loc 1 422 0
 2136 0108 D074     	 strb r0,[r2,#19]
 423:C:/Workspace/DAVE-4.4.2-64Bit/optiga-trust-m/optiga/cmd\optiga_cmd.c ****     p_apdu_buffer [3] = (uint8_t)(in_data_length & 0x00FF);
 2137              	 .loc 1 423 0
 2138 010a 080A     	 lsr r0,r1,#8
 2139              	.LVL203:
 2140 010c 1075     	 strb r0,[r2,#20]
 421:C:/Workspace/DAVE-4.4.2-64Bit/optiga-trust-m/optiga/cmd\optiga_cmd.c ****     p_apdu_buffer [1] = param;
 2141              	 .loc 1 421 0
 2142 010e 9474     	 strb r4,[r2,#18]
 424:C:/Workspace/DAVE-4.4.2-64Bit/optiga-trust-m/optiga/cmd\optiga_cmd.c **** }
 2143              	 .loc 1 424 0
 2144 0110 5175     	 strb r1,[r2,#21]
 2145              	.LBE138:
 2146              	.LBE139:
2075:C:/Workspace/DAVE-4.4.2-64Bit/optiga-trust-m/optiga/cmd\optiga_cmd.c **** 
2076:C:/Workspace/DAVE-4.4.2-64Bit/optiga-trust-m/optiga/cmd\optiga_cmd.c ****             me->p_optiga->comms_tx_size = (uint16_t)(index_for_data - OPTIGA_COMMS_DATA_OFFSET);
 2147              	 .loc 1 2076 0
 2148 0112 2A68     	 ldr r2,[r5]
 2149              	.LVL204:
 2150 0114 053B     	 sub r3,r3,#5
 2151 0116 9380     	 strh r3,[r2,#4]
2077:C:/Workspace/DAVE-4.4.2-64Bit/optiga-trust-m/optiga/cmd\optiga_cmd.c ****             me->cmd_next_execution_state = OPTIGA_CMD_EXEC_PROCESS_RESPONSE;
 2152              	 .loc 1 2077 0
 2153 0118 0923     	 mov r3,#9
2078:C:/Workspace/DAVE-4.4.2-64Bit/optiga-trust-m/optiga/cmd\optiga_cmd.c ****             return_status = OPTIGA_LIB_SUCCESS;
 2154              	 .loc 1 2078 0
 2155 011a 0020     	 mov r0,#0
2077:C:/Workspace/DAVE-4.4.2-64Bit/optiga-trust-m/optiga/cmd\optiga_cmd.c ****             me->cmd_next_execution_state = OPTIGA_CMD_EXEC_PROCESS_RESPONSE;
 2156              	 .loc 1 2077 0
 2157 011c AB75     	 strb r3,[r5,#22]
 2158              	.LVL205:
2079:C:/Workspace/DAVE-4.4.2-64Bit/optiga-trust-m/optiga/cmd\optiga_cmd.c ****         }
2080:C:/Workspace/DAVE-4.4.2-64Bit/optiga-trust-m/optiga/cmd\optiga_cmd.c ****         break;
 2159              	 .loc 1 2080 0
 2160 011e 0CE0     	 b .L158
 2161              	.LVL206:
 2162              	.L160:
2081:C:/Workspace/DAVE-4.4.2-64Bit/optiga-trust-m/optiga/cmd\optiga_cmd.c ****         case OPTIGA_CMD_EXEC_PROCESS_RESPONSE:
2082:C:/Workspace/DAVE-4.4.2-64Bit/optiga-trust-m/optiga/cmd\optiga_cmd.c ****         {
2083:C:/Workspace/DAVE-4.4.2-64Bit/optiga-trust-m/optiga/cmd\optiga_cmd.c ****             OPTIGA_CMD_LOG_MESSAGE("Processing response for verify sign command...");
2084:C:/Workspace/DAVE-4.4.2-64Bit/optiga-trust-m/optiga/cmd\optiga_cmd.c ****             if (OPTIGA_CMD_APDU_FAILURE == me->p_optiga->optiga_comms_buffer[OPTIGA_COMMS_DATA_OFFS
 2163              	 .loc 1 2084 0
 2164 0120 0368     	 ldr r3,[r0]
2085:C:/Workspace/DAVE-4.4.2-64Bit/optiga-trust-m/optiga/cmd\optiga_cmd.c ****             {
2086:C:/Workspace/DAVE-4.4.2-64Bit/optiga-trust-m/optiga/cmd\optiga_cmd.c ****                 OPTIGA_CMD_LOG_MESSAGE("Error in processing verify sign response...");
2087:C:/Workspace/DAVE-4.4.2-64Bit/optiga-trust-m/optiga/cmd\optiga_cmd.c ****                 SET_DEV_ERROR_NOTIFICATION(OPTIGA_CMD_EXIT_HANDLER_CALL);
2088:C:/Workspace/DAVE-4.4.2-64Bit/optiga-trust-m/optiga/cmd\optiga_cmd.c ****                 break;
2089:C:/Workspace/DAVE-4.4.2-64Bit/optiga-trust-m/optiga/cmd\optiga_cmd.c ****             }
2090:C:/Workspace/DAVE-4.4.2-64Bit/optiga-trust-m/optiga/cmd\optiga_cmd.c ****             OPTIGA_CMD_LOG_MESSAGE("Response of veriy sign command is processed...");
2091:C:/Workspace/DAVE-4.4.2-64Bit/optiga-trust-m/optiga/cmd\optiga_cmd.c ****             return_status = OPTIGA_LIB_SUCCESS;
 2165              	 .loc 1 2091 0
 2166 0122 0020     	 mov r0,#0
 2167              	.LVL207:
2084:C:/Workspace/DAVE-4.4.2-64Bit/optiga-trust-m/optiga/cmd\optiga_cmd.c ****             {
 2168              	 .loc 1 2084 0
 2169 0124 9B7C     	 ldrb r3,[r3,#18]
 2170 0126 FF2B     	 cmp r3,#255
 2171 0128 07D1     	 bne .L158
2087:C:/Workspace/DAVE-4.4.2-64Bit/optiga-trust-m/optiga/cmd\optiga_cmd.c ****                 break;
 2172              	 .loc 1 2087 0
 2173 012a 2A7F     	 ldrb r2,[r5,#28]
 2174 012c 803B     	 sub r3,r3,#128
 2175 012e 1340     	 and r3,r2
 2176 0130 2B77     	 strb r3,[r5,#28]
 2177              	.L169:
1994:C:/Workspace/DAVE-4.4.2-64Bit/optiga-trust-m/optiga/cmd\optiga_cmd.c **** 
 2178              	 .loc 1 1994 0
 2179 0132 0348     	 ldr r0,.L171+4
 2180 0134 01E0     	 b .L158
 2181              	.L166:
2012:C:/Workspace/DAVE-4.4.2-64Bit/optiga-trust-m/optiga/cmd\optiga_cmd.c ****                 break;
 2182              	 .loc 1 2012 0
 2183 0136 8120     	 mov r0,#129
 2184 0138 8000     	 lsl r0,r0,#2
 2185              	.LVL208:
 2186              	.L158:
2092:C:/Workspace/DAVE-4.4.2-64Bit/optiga-trust-m/optiga/cmd\optiga_cmd.c ****         }
2093:C:/Workspace/DAVE-4.4.2-64Bit/optiga-trust-m/optiga/cmd\optiga_cmd.c ****         break;
2094:C:/Workspace/DAVE-4.4.2-64Bit/optiga-trust-m/optiga/cmd\optiga_cmd.c ****         default:
2095:C:/Workspace/DAVE-4.4.2-64Bit/optiga-trust-m/optiga/cmd\optiga_cmd.c ****             break;
2096:C:/Workspace/DAVE-4.4.2-64Bit/optiga-trust-m/optiga/cmd\optiga_cmd.c ****     }
2097:C:/Workspace/DAVE-4.4.2-64Bit/optiga-trust-m/optiga/cmd\optiga_cmd.c **** 
2098:C:/Workspace/DAVE-4.4.2-64Bit/optiga-trust-m/optiga/cmd\optiga_cmd.c ****     return (return_status);
2099:C:/Workspace/DAVE-4.4.2-64Bit/optiga-trust-m/optiga/cmd\optiga_cmd.c **** }
 2187              	 .loc 1 2099 0
 2188              	 
 2189              	.LVL209:
 2190              	.LVL210:
 2191 013a 76BD     	 pop {r1,r2,r4,r5,r6,pc}
 2192              	.L172:
 2193              	 .align 2
 2194              	.L171:
 2195 013c 15060000 	 .word 1557
 2196 0140 02020000 	 .word 514
 2197              	 .cfi_endproc
 2198              	.LFE37:
 2200              	 .section .text.optiga_cmd_calc_ssec_handler,"ax",%progbits
 2201              	 .align 1
 2202              	 .code 16
 2203              	 .thumb_func
 2205              	optiga_cmd_calc_ssec_handler:
 2206              	.LFB39:
2100:C:/Workspace/DAVE-4.4.2-64Bit/optiga-trust-m/optiga/cmd\optiga_cmd.c **** 
2101:C:/Workspace/DAVE-4.4.2-64Bit/optiga-trust-m/optiga/cmd\optiga_cmd.c **** optiga_lib_status_t optiga_cmd_verify_sign(optiga_cmd_t * me,
2102:C:/Workspace/DAVE-4.4.2-64Bit/optiga-trust-m/optiga/cmd\optiga_cmd.c ****                                            uint8_t cmd_param,
2103:C:/Workspace/DAVE-4.4.2-64Bit/optiga-trust-m/optiga/cmd\optiga_cmd.c ****                                            optiga_verify_sign_params_t * params)
2104:C:/Workspace/DAVE-4.4.2-64Bit/optiga-trust-m/optiga/cmd\optiga_cmd.c **** {
2105:C:/Workspace/DAVE-4.4.2-64Bit/optiga-trust-m/optiga/cmd\optiga_cmd.c ****     OPTIGA_CMD_LOG_MESSAGE(__FUNCTION__);
2106:C:/Workspace/DAVE-4.4.2-64Bit/optiga-trust-m/optiga/cmd\optiga_cmd.c ****     optiga_cmd_execute(me,
2107:C:/Workspace/DAVE-4.4.2-64Bit/optiga-trust-m/optiga/cmd\optiga_cmd.c ****                        cmd_param,
2108:C:/Workspace/DAVE-4.4.2-64Bit/optiga-trust-m/optiga/cmd\optiga_cmd.c ****                        optiga_cmd_verify_sign_handler,
2109:C:/Workspace/DAVE-4.4.2-64Bit/optiga-trust-m/optiga/cmd\optiga_cmd.c ****                        OPTIGA_CMD_EXEC_REQUEST_LOCK,
2110:C:/Workspace/DAVE-4.4.2-64Bit/optiga-trust-m/optiga/cmd\optiga_cmd.c ****                        params);
2111:C:/Workspace/DAVE-4.4.2-64Bit/optiga-trust-m/optiga/cmd\optiga_cmd.c **** 
2112:C:/Workspace/DAVE-4.4.2-64Bit/optiga-trust-m/optiga/cmd\optiga_cmd.c ****     return (OPTIGA_LIB_SUCCESS);
2113:C:/Workspace/DAVE-4.4.2-64Bit/optiga-trust-m/optiga/cmd\optiga_cmd.c **** }
2114:C:/Workspace/DAVE-4.4.2-64Bit/optiga-trust-m/optiga/cmd\optiga_cmd.c **** #endif //OPTIGA_CRYPT_ECDSA_VERIFY_ENABLED
2115:C:/Workspace/DAVE-4.4.2-64Bit/optiga-trust-m/optiga/cmd\optiga_cmd.c **** 
2116:C:/Workspace/DAVE-4.4.2-64Bit/optiga-trust-m/optiga/cmd\optiga_cmd.c **** #ifdef OPTIGA_CRYPT_ECDH_ENABLED
2117:C:/Workspace/DAVE-4.4.2-64Bit/optiga-trust-m/optiga/cmd\optiga_cmd.c **** /*
2118:C:/Workspace/DAVE-4.4.2-64Bit/optiga-trust-m/optiga/cmd\optiga_cmd.c **** * CalcSSec handler
2119:C:/Workspace/DAVE-4.4.2-64Bit/optiga-trust-m/optiga/cmd\optiga_cmd.c **** */
2120:C:/Workspace/DAVE-4.4.2-64Bit/optiga-trust-m/optiga/cmd\optiga_cmd.c **** _STATIC_H optiga_lib_status_t optiga_cmd_calc_ssec_handler(optiga_cmd_t * me)
2121:C:/Workspace/DAVE-4.4.2-64Bit/optiga-trust-m/optiga/cmd\optiga_cmd.c **** {
 2207              	 .loc 1 2121 0
 2208              	 .cfi_startproc
 2209              	.LVL211:
 2210 0000 73B5     	 push {r0,r1,r4,r5,r6,lr}
 2211              	.LCFI11:
 2212              	 .cfi_def_cfa_offset 24
 2213              	 .cfi_offset 0,-24
 2214              	 .cfi_offset 1,-20
 2215              	 .cfi_offset 4,-16
 2216              	 .cfi_offset 5,-12
 2217              	 .cfi_offset 6,-8
 2218              	 .cfi_offset 14,-4
2122:C:/Workspace/DAVE-4.4.2-64Bit/optiga-trust-m/optiga/cmd\optiga_cmd.c ****     uint16_t total_apdu_length;
2123:C:/Workspace/DAVE-4.4.2-64Bit/optiga-trust-m/optiga/cmd\optiga_cmd.c ****     optiga_lib_status_t return_status = OPTIGA_CMD_ERROR;
2124:C:/Workspace/DAVE-4.4.2-64Bit/optiga-trust-m/optiga/cmd\optiga_cmd.c ****     optiga_calc_ssec_params_t * p_optiga_ecdh = (optiga_calc_ssec_params_t *)me->p_input;
2125:C:/Workspace/DAVE-4.4.2-64Bit/optiga-trust-m/optiga/cmd\optiga_cmd.c ****     uint16_t index_for_data = OPTIGA_CMD_APDU_INDATA_OFFSET;
 2219              	 .loc 1 2125 0
 2220 0002 6B46     	 mov r3,sp
 2221 0004 9D1D     	 add r5,r3,#6
 2222 0006 0923     	 mov r3,#9
 2223 0008 2B80     	 strh r3,[r5]
2126:C:/Workspace/DAVE-4.4.2-64Bit/optiga-trust-m/optiga/cmd\optiga_cmd.c ****     uint16_t private_key_oid;
2127:C:/Workspace/DAVE-4.4.2-64Bit/optiga-trust-m/optiga/cmd\optiga_cmd.c ****     
2128:C:/Workspace/DAVE-4.4.2-64Bit/optiga-trust-m/optiga/cmd\optiga_cmd.c ****     switch ((uint8_t)me->cmd_next_execution_state)
 2224              	 .loc 1 2128 0
 2225 000a 837D     	 ldrb r3,[r0,#22]
2121:C:/Workspace/DAVE-4.4.2-64Bit/optiga-trust-m/optiga/cmd\optiga_cmd.c ****     uint16_t total_apdu_length;
 2226              	 .loc 1 2121 0
 2227 000c 041C     	 mov r4,r0
2124:C:/Workspace/DAVE-4.4.2-64Bit/optiga-trust-m/optiga/cmd\optiga_cmd.c ****     uint16_t index_for_data = OPTIGA_CMD_APDU_INDATA_OFFSET;
 2228              	 .loc 1 2124 0
 2229 000e 8668     	 ldr r6,[r0,#8]
 2230              	.LVL212:
 2231              	 .loc 1 2128 0
 2232 0010 082B     	 cmp r3,#8
 2233 0012 03D0     	 beq .L175
 2234 0014 092B     	 cmp r3,#9
 2235 0016 00D1     	 bne .LCB2216
 2236 0018 72E0     	 b .L176
 2237              	.LCB2216:
 2238 001a 85E0     	 b .L187
 2239              	.L175:
2129:C:/Workspace/DAVE-4.4.2-64Bit/optiga-trust-m/optiga/cmd\optiga_cmd.c ****     {
2130:C:/Workspace/DAVE-4.4.2-64Bit/optiga-trust-m/optiga/cmd\optiga_cmd.c ****         case OPTIGA_CMD_EXEC_PREPARE_COMMAND:
2131:C:/Workspace/DAVE-4.4.2-64Bit/optiga-trust-m/optiga/cmd\optiga_cmd.c ****         {
2132:C:/Workspace/DAVE-4.4.2-64Bit/optiga-trust-m/optiga/cmd\optiga_cmd.c ****             OPTIGA_CMD_LOG_MESSAGE("Sending calculate shared secret command..");
2133:C:/Workspace/DAVE-4.4.2-64Bit/optiga-trust-m/optiga/cmd\optiga_cmd.c ****             // APDU header length + TLV of private key + TLV of algo id + TLV of public key
2134:C:/Workspace/DAVE-4.4.2-64Bit/optiga-trust-m/optiga/cmd\optiga_cmd.c ****             // If shared secret option to export (TLV of export shared secret)
2135:C:/Workspace/DAVE-4.4.2-64Bit/optiga-trust-m/optiga/cmd\optiga_cmd.c ****             // If shared secret store in OID (TLV of shared secret OID)
2136:C:/Workspace/DAVE-4.4.2-64Bit/optiga-trust-m/optiga/cmd\optiga_cmd.c ****             total_apdu_length = OPTIGA_CMD_APDU_HEADER_SIZE + OPTIGA_CMD_APDU_TL_LENGTH + OPTIGA_CM
2137:C:/Workspace/DAVE-4.4.2-64Bit/optiga-trust-m/optiga/cmd\optiga_cmd.c ****                                     OPTIGA_CMD_APDU_TL_LENGTH + OPTIGA_CMD_NO_OF_BYTES_IN_TAG + OPT
2138:C:/Workspace/DAVE-4.4.2-64Bit/optiga-trust-m/optiga/cmd\optiga_cmd.c ****                                     p_optiga_ecdh->public_key->length +
 2240              	 .loc 1 2138 0
 2241 001c 3368     	 ldr r3,[r6]
2136:C:/Workspace/DAVE-4.4.2-64Bit/optiga-trust-m/optiga/cmd\optiga_cmd.c ****                                     OPTIGA_CMD_APDU_TL_LENGTH + OPTIGA_CMD_NO_OF_BYTES_IN_TAG + OPT
 2242              	 .loc 1 2136 0
 2243 001e B17A     	 ldrb r1,[r6,#10]
 2244              	 .loc 1 2138 0
 2245 0020 9B88     	 ldrh r3,[r3,#4]
2136:C:/Workspace/DAVE-4.4.2-64Bit/optiga-trust-m/optiga/cmd\optiga_cmd.c ****                                     OPTIGA_CMD_APDU_TL_LENGTH + OPTIGA_CMD_NO_OF_BYTES_IN_TAG + OPT
 2246              	 .loc 1 2136 0
 2247 0022 0322     	 mov r2,#3
 2248 0024 0129     	 cmp r1,#1
 2249 0026 00D0     	 beq .L177
 2250 0028 0232     	 add r2,r2,#2
 2251              	.L177:
 2252              	.LVL213:
 2253 002a 1033     	 add r3,r3,#16
 2254              	.LVL214:
2136:C:/Workspace/DAVE-4.4.2-64Bit/optiga-trust-m/optiga/cmd\optiga_cmd.c ****                                     OPTIGA_CMD_APDU_TL_LENGTH + OPTIGA_CMD_NO_OF_BYTES_IN_TAG + OPT
 2255              	 .loc 1 2136 0 is_stmt 0 discriminator 4
 2256 002c D318     	 add r3,r2,r3
2139:C:/Workspace/DAVE-4.4.2-64Bit/optiga-trust-m/optiga/cmd\optiga_cmd.c ****                                     (TRUE == p_optiga_ecdh->export_to_host?(OPTIGA_CMD_APDU_TL_LENG
2140:C:/Workspace/DAVE-4.4.2-64Bit/optiga-trust-m/optiga/cmd\optiga_cmd.c ****                                     (OPTIGA_CMD_APDU_TL_LENGTH + OPTIGA_CMD_UINT16_SIZE_IN_BYTES));
2141:C:/Workspace/DAVE-4.4.2-64Bit/optiga-trust-m/optiga/cmd\optiga_cmd.c ****             if (OPTIGA_MAX_COMMS_BUFFER_SIZE < total_apdu_length)
 2257              	 .loc 1 2141 0 is_stmt 1 discriminator 4
 2258 002e 414A     	 ldr r2,.L188
 2259 0030 9BB2     	 uxth r3,r3
 2260 0032 9342     	 cmp r3,r2
 2261 0034 00D9     	 bls .LCB2238
 2262 0036 79E0     	 b .L184
 2263              	.LCB2238:
2142:C:/Workspace/DAVE-4.4.2-64Bit/optiga-trust-m/optiga/cmd\optiga_cmd.c ****             {
2143:C:/Workspace/DAVE-4.4.2-64Bit/optiga-trust-m/optiga/cmd\optiga_cmd.c ****                 return_status = OPTIGA_CMD_ERROR_MEMORY_INSUFFICIENT;
2144:C:/Workspace/DAVE-4.4.2-64Bit/optiga-trust-m/optiga/cmd\optiga_cmd.c ****                 break;
2145:C:/Workspace/DAVE-4.4.2-64Bit/optiga-trust-m/optiga/cmd\optiga_cmd.c ****             }
2146:C:/Workspace/DAVE-4.4.2-64Bit/optiga-trust-m/optiga/cmd\optiga_cmd.c ****             // Tag and length for private key OID
2147:C:/Workspace/DAVE-4.4.2-64Bit/optiga-trust-m/optiga/cmd\optiga_cmd.c ****             optiga_cmd_prepare_tag_header(CMD_SSEC_PRIVATE_KEY_TAG,
2148:C:/Workspace/DAVE-4.4.2-64Bit/optiga-trust-m/optiga/cmd\optiga_cmd.c ****                                           CMD_SSEC_PRIVATE_KEY_LEN,
2149:C:/Workspace/DAVE-4.4.2-64Bit/optiga-trust-m/optiga/cmd\optiga_cmd.c ****                                           me->p_optiga->optiga_comms_buffer,
 2264              	 .loc 1 2149 0
 2265 0038 2268     	 ldr r2,[r4]
2147:C:/Workspace/DAVE-4.4.2-64Bit/optiga-trust-m/optiga/cmd\optiga_cmd.c ****                                           CMD_SSEC_PRIVATE_KEY_LEN,
 2266              	 .loc 1 2147 0
 2267 003a 0221     	 mov r1,#2
 2268              	 .loc 1 2149 0
 2269 003c 0D32     	 add r2,r2,#13
2147:C:/Workspace/DAVE-4.4.2-64Bit/optiga-trust-m/optiga/cmd\optiga_cmd.c ****                                           CMD_SSEC_PRIVATE_KEY_LEN,
 2270              	 .loc 1 2147 0
 2271 003e 0120     	 mov r0,#1
 2272              	.LVL215:
 2273 0040 2B1C     	 mov r3,r5
 2274 0042 FFF7FEFF 	 bl optiga_cmd_prepare_tag_header
 2275              	.LVL216:
2150:C:/Workspace/DAVE-4.4.2-64Bit/optiga-trust-m/optiga/cmd\optiga_cmd.c ****                                           &index_for_data);
2151:C:/Workspace/DAVE-4.4.2-64Bit/optiga-trust-m/optiga/cmd\optiga_cmd.c **** 
2152:C:/Workspace/DAVE-4.4.2-64Bit/optiga-trust-m/optiga/cmd\optiga_cmd.c ****             private_key_oid = (uint16_t)p_optiga_ecdh->private_key;
 2276              	 .loc 1 2152 0
 2277 0046 3189     	 ldrh r1,[r6,#8]
 2278              	.LVL217:
2153:C:/Workspace/DAVE-4.4.2-64Bit/optiga-trust-m/optiga/cmd\optiga_cmd.c ****             if (OPTIGA_KEY_ID_SESSION_BASED == p_optiga_ecdh->private_key)
 2279              	 .loc 1 2153 0
 2280 0048 0029     	 cmp r1,#0
 2281 004a 00D1     	 bne .L178
2154:C:/Workspace/DAVE-4.4.2-64Bit/optiga-trust-m/optiga/cmd\optiga_cmd.c ****             {
2155:C:/Workspace/DAVE-4.4.2-64Bit/optiga-trust-m/optiga/cmd\optiga_cmd.c ****                 private_key_oid = me->session_oid;
 2282              	 .loc 1 2155 0
 2283 004c A18A     	 ldrh r1,[r4,#20]
 2284              	.LVL218:
 2285              	.L178:
2156:C:/Workspace/DAVE-4.4.2-64Bit/optiga-trust-m/optiga/cmd\optiga_cmd.c ****             }
2157:C:/Workspace/DAVE-4.4.2-64Bit/optiga-trust-m/optiga/cmd\optiga_cmd.c **** 
2158:C:/Workspace/DAVE-4.4.2-64Bit/optiga-trust-m/optiga/cmd\optiga_cmd.c ****             optiga_common_set_uint16(&me->p_optiga->optiga_comms_buffer[index_for_data], private_ke
 2286              	 .loc 1 2158 0
 2287 004e 2368     	 ldr r3,[r4]
 2288 0050 2888     	 ldrh r0,[r5]
 2289 0052 1818     	 add r0,r3,r0
 2290 0054 0D30     	 add r0,r0,#13
 2291 0056 FFF7FEFF 	 bl optiga_common_set_uint16
 2292              	.LVL219:
2159:C:/Workspace/DAVE-4.4.2-64Bit/optiga-trust-m/optiga/cmd\optiga_cmd.c ****             index_for_data += OPTIGA_CMD_UINT16_SIZE_IN_BYTES;
 2293              	 .loc 1 2159 0
 2294 005a 2B88     	 ldrh r3,[r5]
2160:C:/Workspace/DAVE-4.4.2-64Bit/optiga-trust-m/optiga/cmd\optiga_cmd.c **** 
2161:C:/Workspace/DAVE-4.4.2-64Bit/optiga-trust-m/optiga/cmd\optiga_cmd.c ****             // Tag and length for algorithm ID
2162:C:/Workspace/DAVE-4.4.2-64Bit/optiga-trust-m/optiga/cmd\optiga_cmd.c ****             optiga_cmd_prepare_tag_header(CMD_SSEC_ALG_ID_TAG,
2163:C:/Workspace/DAVE-4.4.2-64Bit/optiga-trust-m/optiga/cmd\optiga_cmd.c ****                                           CMD_SSEC_ALG_ID_LEN,
2164:C:/Workspace/DAVE-4.4.2-64Bit/optiga-trust-m/optiga/cmd\optiga_cmd.c ****                                           me->p_optiga->optiga_comms_buffer,
 2295              	 .loc 1 2164 0
 2296 005c 2268     	 ldr r2,[r4]
2159:C:/Workspace/DAVE-4.4.2-64Bit/optiga-trust-m/optiga/cmd\optiga_cmd.c ****             index_for_data += OPTIGA_CMD_UINT16_SIZE_IN_BYTES;
 2297              	 .loc 1 2159 0
 2298 005e 0233     	 add r3,r3,#2
 2299 0060 2B80     	 strh r3,[r5]
 2300              	 .loc 1 2164 0
 2301 0062 0D32     	 add r2,r2,#13
2162:C:/Workspace/DAVE-4.4.2-64Bit/optiga-trust-m/optiga/cmd\optiga_cmd.c ****                                           CMD_SSEC_ALG_ID_LEN,
 2302              	 .loc 1 2162 0
 2303 0064 0520     	 mov r0,#5
 2304 0066 0121     	 mov r1,#1
 2305 0068 2B1C     	 mov r3,r5
 2306 006a FFF7FEFF 	 bl optiga_cmd_prepare_tag_header
 2307              	.LVL220:
2165:C:/Workspace/DAVE-4.4.2-64Bit/optiga-trust-m/optiga/cmd\optiga_cmd.c ****                                           &index_for_data);
2166:C:/Workspace/DAVE-4.4.2-64Bit/optiga-trust-m/optiga/cmd\optiga_cmd.c **** 
2167:C:/Workspace/DAVE-4.4.2-64Bit/optiga-trust-m/optiga/cmd\optiga_cmd.c ****             me->p_optiga->optiga_comms_buffer[index_for_data++] = (uint8_t)p_optiga_ecdh->public_ke
 2308              	 .loc 1 2167 0
 2309 006e 2B88     	 ldrh r3,[r5]
 2310 0070 2168     	 ldr r1,[r4]
 2311 0072 5A1C     	 add r2,r3,#1
 2312 0074 2A80     	 strh r2,[r5]
 2313 0076 3268     	 ldr r2,[r6]
 2314 0078 CB18     	 add r3,r1,r3
 2315 007a 9279     	 ldrb r2,[r2,#6]
2168:C:/Workspace/DAVE-4.4.2-64Bit/optiga-trust-m/optiga/cmd\optiga_cmd.c **** 
2169:C:/Workspace/DAVE-4.4.2-64Bit/optiga-trust-m/optiga/cmd\optiga_cmd.c ****             // Tag and length for public key
2170:C:/Workspace/DAVE-4.4.2-64Bit/optiga-trust-m/optiga/cmd\optiga_cmd.c ****             optiga_cmd_prepare_tag_header(CMD_SSEC_PUB_KEY_TAG,
 2316              	 .loc 1 2170 0
 2317 007c 0620     	 mov r0,#6
2167:C:/Workspace/DAVE-4.4.2-64Bit/optiga-trust-m/optiga/cmd\optiga_cmd.c **** 
 2318              	 .loc 1 2167 0
 2319 007e 5A73     	 strb r2,[r3,#13]
 2320              	 .loc 1 2170 0
 2321 0080 3368     	 ldr r3,[r6]
2171:C:/Workspace/DAVE-4.4.2-64Bit/optiga-trust-m/optiga/cmd\optiga_cmd.c ****                                           p_optiga_ecdh->public_key->length,
2172:C:/Workspace/DAVE-4.4.2-64Bit/optiga-trust-m/optiga/cmd\optiga_cmd.c ****                                           me->p_optiga->optiga_comms_buffer,
 2322              	 .loc 1 2172 0
 2323 0082 2268     	 ldr r2,[r4]
2170:C:/Workspace/DAVE-4.4.2-64Bit/optiga-trust-m/optiga/cmd\optiga_cmd.c ****                                           p_optiga_ecdh->public_key->length,
 2324              	 .loc 1 2170 0
 2325 0084 9988     	 ldrh r1,[r3,#4]
 2326              	 .loc 1 2172 0
 2327 0086 0D32     	 add r2,r2,#13
2170:C:/Workspace/DAVE-4.4.2-64Bit/optiga-trust-m/optiga/cmd\optiga_cmd.c ****                                           p_optiga_ecdh->public_key->length,
 2328              	 .loc 1 2170 0
 2329 0088 2B1C     	 mov r3,r5
 2330 008a FFF7FEFF 	 bl optiga_cmd_prepare_tag_header
 2331              	.LVL221:
2173:C:/Workspace/DAVE-4.4.2-64Bit/optiga-trust-m/optiga/cmd\optiga_cmd.c ****                                           &index_for_data);
2174:C:/Workspace/DAVE-4.4.2-64Bit/optiga-trust-m/optiga/cmd\optiga_cmd.c **** 
2175:C:/Workspace/DAVE-4.4.2-64Bit/optiga-trust-m/optiga/cmd\optiga_cmd.c ****             //Copy the public key to APDU
2176:C:/Workspace/DAVE-4.4.2-64Bit/optiga-trust-m/optiga/cmd\optiga_cmd.c ****             pal_os_memcpy(&me->p_optiga->optiga_comms_buffer[index_for_data],
 2332              	 .loc 1 2176 0
 2333 008e 2268     	 ldr r2,[r4]
 2334 0090 2888     	 ldrh r0,[r5]
 2335 0092 3368     	 ldr r3,[r6]
 2336 0094 1018     	 add r0,r2,r0
 2337 0096 1968     	 ldr r1,[r3]
 2338 0098 9A88     	 ldrh r2,[r3,#4]
 2339 009a 0D30     	 add r0,r0,#13
 2340 009c FFF7FEFF 	 bl memcpy
 2341              	.LVL222:
2177:C:/Workspace/DAVE-4.4.2-64Bit/optiga-trust-m/optiga/cmd\optiga_cmd.c ****                           p_optiga_ecdh->public_key->public_key,
2178:C:/Workspace/DAVE-4.4.2-64Bit/optiga-trust-m/optiga/cmd\optiga_cmd.c ****                           p_optiga_ecdh->public_key->length);
2179:C:/Workspace/DAVE-4.4.2-64Bit/optiga-trust-m/optiga/cmd\optiga_cmd.c **** 
2180:C:/Workspace/DAVE-4.4.2-64Bit/optiga-trust-m/optiga/cmd\optiga_cmd.c ****             index_for_data += p_optiga_ecdh->public_key->length;
 2342              	 .loc 1 2180 0
 2343 00a0 3368     	 ldr r3,[r6]
 2344 00a2 9A88     	 ldrh r2,[r3,#4]
 2345 00a4 2B88     	 ldrh r3,[r5]
 2346 00a6 D318     	 add r3,r2,r3
 2347 00a8 2B80     	 strh r3,[r5]
 2348 00aa 2268     	 ldr r2,[r4]
2181:C:/Workspace/DAVE-4.4.2-64Bit/optiga-trust-m/optiga/cmd\optiga_cmd.c **** 
2182:C:/Workspace/DAVE-4.4.2-64Bit/optiga-trust-m/optiga/cmd\optiga_cmd.c ****             // check if shared secret needs to be exported or stored
2183:C:/Workspace/DAVE-4.4.2-64Bit/optiga-trust-m/optiga/cmd\optiga_cmd.c ****             if (FALSE == p_optiga_ecdh->export_to_host)
 2349              	 .loc 1 2183 0
 2350 00ac B37A     	 ldrb r3,[r6,#10]
2184:C:/Workspace/DAVE-4.4.2-64Bit/optiga-trust-m/optiga/cmd\optiga_cmd.c ****             {
2185:C:/Workspace/DAVE-4.4.2-64Bit/optiga-trust-m/optiga/cmd\optiga_cmd.c ****                 // Tag and length for storing shared secret in session OID
2186:C:/Workspace/DAVE-4.4.2-64Bit/optiga-trust-m/optiga/cmd\optiga_cmd.c ****                 optiga_cmd_prepare_tag_header(CMD_SSEC_STORE_SESSION_TAG,
2187:C:/Workspace/DAVE-4.4.2-64Bit/optiga-trust-m/optiga/cmd\optiga_cmd.c ****                                               CMD_SSEC_STORE_SESSION_LEN,
2188:C:/Workspace/DAVE-4.4.2-64Bit/optiga-trust-m/optiga/cmd\optiga_cmd.c ****                                               me->p_optiga->optiga_comms_buffer,
 2351              	 .loc 1 2188 0
 2352 00ae 0D32     	 add r2,r2,#13
2183:C:/Workspace/DAVE-4.4.2-64Bit/optiga-trust-m/optiga/cmd\optiga_cmd.c ****             {
 2353              	 .loc 1 2183 0
 2354 00b0 002B     	 cmp r3,#0
 2355 00b2 0FD1     	 bne .L179
2186:C:/Workspace/DAVE-4.4.2-64Bit/optiga-trust-m/optiga/cmd\optiga_cmd.c ****                                               CMD_SSEC_STORE_SESSION_LEN,
 2356              	 .loc 1 2186 0
 2357 00b4 0820     	 mov r0,#8
 2358 00b6 0221     	 mov r1,#2
 2359 00b8 2B1C     	 mov r3,r5
 2360 00ba FFF7FEFF 	 bl optiga_cmd_prepare_tag_header
 2361              	.LVL223:
2189:C:/Workspace/DAVE-4.4.2-64Bit/optiga-trust-m/optiga/cmd\optiga_cmd.c ****                                               &index_for_data);
2190:C:/Workspace/DAVE-4.4.2-64Bit/optiga-trust-m/optiga/cmd\optiga_cmd.c ****                 // store session secret oid
2191:C:/Workspace/DAVE-4.4.2-64Bit/optiga-trust-m/optiga/cmd\optiga_cmd.c ****                 optiga_common_set_uint16(&me->p_optiga->optiga_comms_buffer[index_for_data], me->se
 2362              	 .loc 1 2191 0
 2363 00be 2368     	 ldr r3,[r4]
 2364 00c0 2888     	 ldrh r0,[r5]
 2365 00c2 A18A     	 ldrh r1,[r4,#20]
 2366 00c4 1818     	 add r0,r3,r0
 2367 00c6 0D30     	 add r0,r0,#13
 2368 00c8 FFF7FEFF 	 bl optiga_common_set_uint16
 2369              	.LVL224:
2192:C:/Workspace/DAVE-4.4.2-64Bit/optiga-trust-m/optiga/cmd\optiga_cmd.c ****                 index_for_data += OPTIGA_CMD_UINT16_SIZE_IN_BYTES;
 2370              	 .loc 1 2192 0
 2371 00cc 2B88     	 ldrh r3,[r5]
 2372 00ce 0233     	 add r3,r3,#2
 2373 00d0 2B80     	 strh r3,[r5]
 2374 00d2 04E0     	 b .L180
 2375              	.L179:
2193:C:/Workspace/DAVE-4.4.2-64Bit/optiga-trust-m/optiga/cmd\optiga_cmd.c ****             }
2194:C:/Workspace/DAVE-4.4.2-64Bit/optiga-trust-m/optiga/cmd\optiga_cmd.c ****             else
2195:C:/Workspace/DAVE-4.4.2-64Bit/optiga-trust-m/optiga/cmd\optiga_cmd.c ****             {
2196:C:/Workspace/DAVE-4.4.2-64Bit/optiga-trust-m/optiga/cmd\optiga_cmd.c ****                 // Tag and length for exporting shared secret
2197:C:/Workspace/DAVE-4.4.2-64Bit/optiga-trust-m/optiga/cmd\optiga_cmd.c ****                 optiga_cmd_prepare_tag_header(CMD_SSEC_EXPORT_TAG,
 2376              	 .loc 1 2197 0
 2377 00d4 0720     	 mov r0,#7
 2378 00d6 0021     	 mov r1,#0
 2379 00d8 2B1C     	 mov r3,r5
 2380 00da FFF7FEFF 	 bl optiga_cmd_prepare_tag_header
 2381              	.LVL225:
 2382              	.L180:
2198:C:/Workspace/DAVE-4.4.2-64Bit/optiga-trust-m/optiga/cmd\optiga_cmd.c ****                                               CMD_SSEC_EXPORT_LEN,
2199:C:/Workspace/DAVE-4.4.2-64Bit/optiga-trust-m/optiga/cmd\optiga_cmd.c ****                                               me->p_optiga->optiga_comms_buffer,
2200:C:/Workspace/DAVE-4.4.2-64Bit/optiga-trust-m/optiga/cmd\optiga_cmd.c ****                                               &index_for_data);
2201:C:/Workspace/DAVE-4.4.2-64Bit/optiga-trust-m/optiga/cmd\optiga_cmd.c ****             }
2202:C:/Workspace/DAVE-4.4.2-64Bit/optiga-trust-m/optiga/cmd\optiga_cmd.c **** 
2203:C:/Workspace/DAVE-4.4.2-64Bit/optiga-trust-m/optiga/cmd\optiga_cmd.c ****             // prepare apdu
2204:C:/Workspace/DAVE-4.4.2-64Bit/optiga-trust-m/optiga/cmd\optiga_cmd.c ****             optiga_cmd_prepare_apdu_header(OPTIGA_CMD_CALC_SSEC,
 2383              	 .loc 1 2204 0
 2384 00de 2B88     	 ldrh r3,[r5]
 2385              	.LBB140:
 2386              	.LBB141:
 421:C:/Workspace/DAVE-4.4.2-64Bit/optiga-trust-m/optiga/cmd\optiga_cmd.c ****     p_apdu_buffer [1] = param;
 2387              	 .loc 1 421 0
 2388 00e0 B325     	 mov r5,#179
 2389              	.LBE141:
 2390              	.LBE140:
 2391              	 .loc 1 2204 0
 2392 00e2 191C     	 mov r1,r3
 2393 00e4 207E     	 ldrb r0,[r4,#24]
2205:C:/Workspace/DAVE-4.4.2-64Bit/optiga-trust-m/optiga/cmd\optiga_cmd.c ****                                            me->cmd_param,
2206:C:/Workspace/DAVE-4.4.2-64Bit/optiga-trust-m/optiga/cmd\optiga_cmd.c ****                                            (index_for_data - OPTIGA_CMD_APDU_INDATA_OFFSET),
2207:C:/Workspace/DAVE-4.4.2-64Bit/optiga-trust-m/optiga/cmd\optiga_cmd.c ****                                            me->p_optiga->optiga_comms_buffer + OPTIGA_COMMS_DATA_OF
 2394              	 .loc 1 2207 0
 2395 00e6 2268     	 ldr r2,[r4]
 2396              	.LVL226:
2204:C:/Workspace/DAVE-4.4.2-64Bit/optiga-trust-m/optiga/cmd\optiga_cmd.c ****                                            me->cmd_param,
 2397              	 .loc 1 2204 0
 2398 00e8 0939     	 sub r1,r1,#9
 2399 00ea 89B2     	 uxth r1,r1
 2400              	.LVL227:
 2401              	.LBB143:
 2402              	.LBB142:
 422:C:/Workspace/DAVE-4.4.2-64Bit/optiga-trust-m/optiga/cmd\optiga_cmd.c ****     p_apdu_buffer [2] = (uint8_t)((in_data_length & 0xFF00) >> 8);
 2403              	 .loc 1 422 0
 2404 00ec D074     	 strb r0,[r2,#19]
 423:C:/Workspace/DAVE-4.4.2-64Bit/optiga-trust-m/optiga/cmd\optiga_cmd.c ****     p_apdu_buffer [3] = (uint8_t)(in_data_length & 0x00FF);
 2405              	 .loc 1 423 0
 2406 00ee 080A     	 lsr r0,r1,#8
 2407              	.LVL228:
 421:C:/Workspace/DAVE-4.4.2-64Bit/optiga-trust-m/optiga/cmd\optiga_cmd.c ****     p_apdu_buffer [1] = param;
 2408              	 .loc 1 421 0
 2409 00f0 9574     	 strb r5,[r2,#18]
 423:C:/Workspace/DAVE-4.4.2-64Bit/optiga-trust-m/optiga/cmd\optiga_cmd.c ****     p_apdu_buffer [3] = (uint8_t)(in_data_length & 0x00FF);
 2410              	 .loc 1 423 0
 2411 00f2 1075     	 strb r0,[r2,#20]
 424:C:/Workspace/DAVE-4.4.2-64Bit/optiga-trust-m/optiga/cmd\optiga_cmd.c **** }
 2412              	 .loc 1 424 0
 2413 00f4 5175     	 strb r1,[r2,#21]
 2414              	.LBE142:
 2415              	.LBE143:
2208:C:/Workspace/DAVE-4.4.2-64Bit/optiga-trust-m/optiga/cmd\optiga_cmd.c **** 
2209:C:/Workspace/DAVE-4.4.2-64Bit/optiga-trust-m/optiga/cmd\optiga_cmd.c ****             me->p_optiga->comms_tx_size = (index_for_data - OPTIGA_COMMS_DATA_OFFSET);
 2416              	 .loc 1 2209 0
 2417 00f6 2268     	 ldr r2,[r4]
 2418              	.LVL229:
 2419 00f8 053B     	 sub r3,r3,#5
 2420 00fa 9380     	 strh r3,[r2,#4]
 2421              	.LVL230:
2210:C:/Workspace/DAVE-4.4.2-64Bit/optiga-trust-m/optiga/cmd\optiga_cmd.c ****             return_status = OPTIGA_LIB_SUCCESS;
 2422              	 .loc 1 2210 0
 2423 00fc 0024     	 mov r4,#0
 2424              	.LVL231:
2211:C:/Workspace/DAVE-4.4.2-64Bit/optiga-trust-m/optiga/cmd\optiga_cmd.c ****         }
2212:C:/Workspace/DAVE-4.4.2-64Bit/optiga-trust-m/optiga/cmd\optiga_cmd.c ****         break;
 2425              	 .loc 1 2212 0
 2426 00fe 17E0     	 b .L174
 2427              	.LVL232:
 2428              	.L176:
2213:C:/Workspace/DAVE-4.4.2-64Bit/optiga-trust-m/optiga/cmd\optiga_cmd.c ****         case OPTIGA_CMD_EXEC_PROCESS_RESPONSE:
2214:C:/Workspace/DAVE-4.4.2-64Bit/optiga-trust-m/optiga/cmd\optiga_cmd.c ****         {
2215:C:/Workspace/DAVE-4.4.2-64Bit/optiga-trust-m/optiga/cmd\optiga_cmd.c ****             OPTIGA_CMD_LOG_MESSAGE("Processing response for calculate shared secret command...");
2216:C:/Workspace/DAVE-4.4.2-64Bit/optiga-trust-m/optiga/cmd\optiga_cmd.c ****             // check if the shared secret transceive was successful
2217:C:/Workspace/DAVE-4.4.2-64Bit/optiga-trust-m/optiga/cmd\optiga_cmd.c ****             if (OPTIGA_CMD_APDU_SUCCESS != me->p_optiga->optiga_comms_buffer[OPTIGA_COMMS_DATA_OFFS
 2429              	 .loc 1 2217 0
 2430 0100 0168     	 ldr r1,[r0]
 2431 0102 8B7C     	 ldrb r3,[r1,#18]
 2432 0104 002B     	 cmp r3,#0
 2433 0106 04D0     	 beq .L181
2218:C:/Workspace/DAVE-4.4.2-64Bit/optiga-trust-m/optiga/cmd\optiga_cmd.c ****             {
2219:C:/Workspace/DAVE-4.4.2-64Bit/optiga-trust-m/optiga/cmd\optiga_cmd.c ****                 OPTIGA_CMD_LOG_MESSAGE("Error in processing calculate shared secret response...");
2220:C:/Workspace/DAVE-4.4.2-64Bit/optiga-trust-m/optiga/cmd\optiga_cmd.c ****                 SET_DEV_ERROR_NOTIFICATION(OPTIGA_CMD_EXIT_HANDLER_CALL);
 2434              	 .loc 1 2220 0
 2435 0108 7F23     	 mov r3,#127
 2436 010a 027F     	 ldrb r2,[r0,#28]
 2437 010c 1340     	 and r3,r2
 2438 010e 0377     	 strb r3,[r0,#28]
 2439 0110 0AE0     	 b .L187
 2440              	.L181:
2221:C:/Workspace/DAVE-4.4.2-64Bit/optiga-trust-m/optiga/cmd\optiga_cmd.c ****                 break;
2222:C:/Workspace/DAVE-4.4.2-64Bit/optiga-trust-m/optiga/cmd\optiga_cmd.c ****             }
2223:C:/Workspace/DAVE-4.4.2-64Bit/optiga-trust-m/optiga/cmd\optiga_cmd.c ****             if (FALSE != p_optiga_ecdh->export_to_host)
 2441              	 .loc 1 2223 0
 2442 0112 B27A     	 ldrb r2,[r6,#10]
2224:C:/Workspace/DAVE-4.4.2-64Bit/optiga-trust-m/optiga/cmd\optiga_cmd.c ****             {
2225:C:/Workspace/DAVE-4.4.2-64Bit/optiga-trust-m/optiga/cmd\optiga_cmd.c ****                 //copy shared secret from optiga comms buffer to user provided buffer
2226:C:/Workspace/DAVE-4.4.2-64Bit/optiga-trust-m/optiga/cmd\optiga_cmd.c ****                 pal_os_memcpy(p_optiga_ecdh->shared_secret,
2227:C:/Workspace/DAVE-4.4.2-64Bit/optiga-trust-m/optiga/cmd\optiga_cmd.c ****                               me->p_optiga->optiga_comms_buffer + OPTIGA_CMD_APDU_INDATA_OFFSET,
2228:C:/Workspace/DAVE-4.4.2-64Bit/optiga-trust-m/optiga/cmd\optiga_cmd.c ****                               (me->p_optiga->comms_rx_size - OPTIGA_CMD_APDU_HEADER_SIZE));
2229:C:/Workspace/DAVE-4.4.2-64Bit/optiga-trust-m/optiga/cmd\optiga_cmd.c ****             }
2230:C:/Workspace/DAVE-4.4.2-64Bit/optiga-trust-m/optiga/cmd\optiga_cmd.c ****             OPTIGA_CMD_LOG_MESSAGE("Response of calculate shared secret command is processed...");
2231:C:/Workspace/DAVE-4.4.2-64Bit/optiga-trust-m/optiga/cmd\optiga_cmd.c ****             return_status = OPTIGA_LIB_SUCCESS;
 2443              	 .loc 1 2231 0
 2444 0114 1C1C     	 mov r4,r3
2223:C:/Workspace/DAVE-4.4.2-64Bit/optiga-trust-m/optiga/cmd\optiga_cmd.c ****             {
 2445              	 .loc 1 2223 0
 2446 0116 002A     	 cmp r2,#0
 2447 0118 0AD0     	 beq .L174
2226:C:/Workspace/DAVE-4.4.2-64Bit/optiga-trust-m/optiga/cmd\optiga_cmd.c ****                               me->p_optiga->optiga_comms_buffer + OPTIGA_CMD_APDU_INDATA_OFFSET,
 2448              	 .loc 1 2226 0
 2449 011a CA88     	 ldrh r2,[r1,#6]
 2450 011c 7068     	 ldr r0,[r6,#4]
 2451              	.LVL233:
 2452 011e 043A     	 sub r2,r2,#4
 2453 0120 1631     	 add r1,r1,#22
 2454 0122 FFF7FEFF 	 bl memcpy
 2455              	.LVL234:
 2456 0126 03E0     	 b .L174
 2457              	.LVL235:
 2458              	.L187:
2123:C:/Workspace/DAVE-4.4.2-64Bit/optiga-trust-m/optiga/cmd\optiga_cmd.c ****     optiga_calc_ssec_params_t * p_optiga_ecdh = (optiga_calc_ssec_params_t *)me->p_input;
 2459              	 .loc 1 2123 0
 2460 0128 034C     	 ldr r4,.L188+4
 2461 012a 01E0     	 b .L174
 2462              	.L184:
2143:C:/Workspace/DAVE-4.4.2-64Bit/optiga-trust-m/optiga/cmd\optiga_cmd.c ****                 break;
 2463              	 .loc 1 2143 0
 2464 012c 8124     	 mov r4,#129
 2465 012e A400     	 lsl r4,r4,#2
 2466              	.LVL236:
 2467              	.L174:
2232:C:/Workspace/DAVE-4.4.2-64Bit/optiga-trust-m/optiga/cmd\optiga_cmd.c ****         }
2233:C:/Workspace/DAVE-4.4.2-64Bit/optiga-trust-m/optiga/cmd\optiga_cmd.c ****         break;
2234:C:/Workspace/DAVE-4.4.2-64Bit/optiga-trust-m/optiga/cmd\optiga_cmd.c ****         default:
2235:C:/Workspace/DAVE-4.4.2-64Bit/optiga-trust-m/optiga/cmd\optiga_cmd.c ****             break;
2236:C:/Workspace/DAVE-4.4.2-64Bit/optiga-trust-m/optiga/cmd\optiga_cmd.c ****     }
2237:C:/Workspace/DAVE-4.4.2-64Bit/optiga-trust-m/optiga/cmd\optiga_cmd.c **** 
2238:C:/Workspace/DAVE-4.4.2-64Bit/optiga-trust-m/optiga/cmd\optiga_cmd.c ****     return (return_status);
2239:C:/Workspace/DAVE-4.4.2-64Bit/optiga-trust-m/optiga/cmd\optiga_cmd.c **** }
 2468              	 .loc 1 2239 0
 2469 0130 201C     	 mov r0,r4
 2470              	 
 2471              	.LVL237:
 2472              	.LVL238:
 2473 0132 76BD     	 pop {r1,r2,r4,r5,r6,pc}
 2474              	.L189:
 2475              	 .align 2
 2476              	.L188:
 2477 0134 15060000 	 .word 1557
 2478 0138 02020000 	 .word 514
 2479              	 .cfi_endproc
 2480              	.LFE39:
 2482              	 .section .text.optiga_cmd_derive_key_handler,"ax",%progbits
 2483              	 .align 1
 2484              	 .code 16
 2485              	 .thumb_func
 2487              	optiga_cmd_derive_key_handler:
 2488              	.LFB41:
2240:C:/Workspace/DAVE-4.4.2-64Bit/optiga-trust-m/optiga/cmd\optiga_cmd.c **** 
2241:C:/Workspace/DAVE-4.4.2-64Bit/optiga-trust-m/optiga/cmd\optiga_cmd.c **** optiga_lib_status_t optiga_cmd_calc_ssec(optiga_cmd_t * me, uint8_t cmd_param, optiga_calc_ssec_par
2242:C:/Workspace/DAVE-4.4.2-64Bit/optiga-trust-m/optiga/cmd\optiga_cmd.c **** {
2243:C:/Workspace/DAVE-4.4.2-64Bit/optiga-trust-m/optiga/cmd\optiga_cmd.c ****     optiga_lib_status_t return_status = OPTIGA_CMD_ERROR_INVALID_INPUT;
2244:C:/Workspace/DAVE-4.4.2-64Bit/optiga-trust-m/optiga/cmd\optiga_cmd.c ****     optiga_calc_ssec_params_t * p_optiga_ecdh = (optiga_calc_ssec_params_t *)params;
2245:C:/Workspace/DAVE-4.4.2-64Bit/optiga-trust-m/optiga/cmd\optiga_cmd.c ****     optiga_cmd_state_t cmd_handler_state = OPTIGA_CMD_EXEC_REQUEST_SESSION;
2246:C:/Workspace/DAVE-4.4.2-64Bit/optiga-trust-m/optiga/cmd\optiga_cmd.c ****     OPTIGA_CMD_LOG_MESSAGE(__FUNCTION__);
2247:C:/Workspace/DAVE-4.4.2-64Bit/optiga-trust-m/optiga/cmd\optiga_cmd.c ****     
2248:C:/Workspace/DAVE-4.4.2-64Bit/optiga-trust-m/optiga/cmd\optiga_cmd.c ****     do
2249:C:/Workspace/DAVE-4.4.2-64Bit/optiga-trust-m/optiga/cmd\optiga_cmd.c ****     {
2250:C:/Workspace/DAVE-4.4.2-64Bit/optiga-trust-m/optiga/cmd\optiga_cmd.c ****         if ((OPTIGA_KEY_ID_SESSION_BASED == p_optiga_ecdh->private_key) &&
2251:C:/Workspace/DAVE-4.4.2-64Bit/optiga-trust-m/optiga/cmd\optiga_cmd.c ****             (OPTIGA_CMD_ZERO_LENGTH_OR_VALUE == me->session_oid))
2252:C:/Workspace/DAVE-4.4.2-64Bit/optiga-trust-m/optiga/cmd\optiga_cmd.c ****         {
2253:C:/Workspace/DAVE-4.4.2-64Bit/optiga-trust-m/optiga/cmd\optiga_cmd.c ****             break;
2254:C:/Workspace/DAVE-4.4.2-64Bit/optiga-trust-m/optiga/cmd\optiga_cmd.c ****         }
2255:C:/Workspace/DAVE-4.4.2-64Bit/optiga-trust-m/optiga/cmd\optiga_cmd.c ****         if ((OPTIGA_KEY_ID_SESSION_BASED != p_optiga_ecdh->private_key) &&
2256:C:/Workspace/DAVE-4.4.2-64Bit/optiga-trust-m/optiga/cmd\optiga_cmd.c ****             (FALSE != p_optiga_ecdh->export_to_host))
2257:C:/Workspace/DAVE-4.4.2-64Bit/optiga-trust-m/optiga/cmd\optiga_cmd.c ****         {
2258:C:/Workspace/DAVE-4.4.2-64Bit/optiga-trust-m/optiga/cmd\optiga_cmd.c ****             cmd_handler_state = OPTIGA_CMD_EXEC_REQUEST_LOCK;
2259:C:/Workspace/DAVE-4.4.2-64Bit/optiga-trust-m/optiga/cmd\optiga_cmd.c ****         }
2260:C:/Workspace/DAVE-4.4.2-64Bit/optiga-trust-m/optiga/cmd\optiga_cmd.c **** 
2261:C:/Workspace/DAVE-4.4.2-64Bit/optiga-trust-m/optiga/cmd\optiga_cmd.c ****         optiga_cmd_execute(me,
2262:C:/Workspace/DAVE-4.4.2-64Bit/optiga-trust-m/optiga/cmd\optiga_cmd.c ****                            cmd_param,
2263:C:/Workspace/DAVE-4.4.2-64Bit/optiga-trust-m/optiga/cmd\optiga_cmd.c ****                            optiga_cmd_calc_ssec_handler,
2264:C:/Workspace/DAVE-4.4.2-64Bit/optiga-trust-m/optiga/cmd\optiga_cmd.c ****                            cmd_handler_state,
2265:C:/Workspace/DAVE-4.4.2-64Bit/optiga-trust-m/optiga/cmd\optiga_cmd.c ****                            params);
2266:C:/Workspace/DAVE-4.4.2-64Bit/optiga-trust-m/optiga/cmd\optiga_cmd.c ****         return_status = OPTIGA_LIB_SUCCESS;
2267:C:/Workspace/DAVE-4.4.2-64Bit/optiga-trust-m/optiga/cmd\optiga_cmd.c **** 
2268:C:/Workspace/DAVE-4.4.2-64Bit/optiga-trust-m/optiga/cmd\optiga_cmd.c ****     } while (FALSE);
2269:C:/Workspace/DAVE-4.4.2-64Bit/optiga-trust-m/optiga/cmd\optiga_cmd.c **** 
2270:C:/Workspace/DAVE-4.4.2-64Bit/optiga-trust-m/optiga/cmd\optiga_cmd.c ****     return (return_status);
2271:C:/Workspace/DAVE-4.4.2-64Bit/optiga-trust-m/optiga/cmd\optiga_cmd.c **** }
2272:C:/Workspace/DAVE-4.4.2-64Bit/optiga-trust-m/optiga/cmd\optiga_cmd.c **** #endif //OPTIGA_CRYPT_ECDH_ENABLED
2273:C:/Workspace/DAVE-4.4.2-64Bit/optiga-trust-m/optiga/cmd\optiga_cmd.c **** 
2274:C:/Workspace/DAVE-4.4.2-64Bit/optiga-trust-m/optiga/cmd\optiga_cmd.c **** #ifdef OPTIGA_CRYPT_TLS_PRF_SHA256_ENABLED
2275:C:/Workspace/DAVE-4.4.2-64Bit/optiga-trust-m/optiga/cmd\optiga_cmd.c **** /*
2276:C:/Workspace/DAVE-4.4.2-64Bit/optiga-trust-m/optiga/cmd\optiga_cmd.c **** * DeriveKey
2277:C:/Workspace/DAVE-4.4.2-64Bit/optiga-trust-m/optiga/cmd\optiga_cmd.c **** */
2278:C:/Workspace/DAVE-4.4.2-64Bit/optiga-trust-m/optiga/cmd\optiga_cmd.c **** _STATIC_H optiga_lib_status_t optiga_cmd_derive_key_handler(optiga_cmd_t * me)
2279:C:/Workspace/DAVE-4.4.2-64Bit/optiga-trust-m/optiga/cmd\optiga_cmd.c **** {
 2489              	 .loc 1 2279 0
 2490              	 .cfi_startproc
 2491              	.LVL239:
 2492 0000 F7B5     	 push {r0,r1,r2,r4,r5,r6,r7,lr}
 2493              	.LCFI12:
 2494              	 .cfi_def_cfa_offset 32
 2495              	 .cfi_offset 0,-32
 2496              	 .cfi_offset 1,-28
 2497              	 .cfi_offset 2,-24
 2498              	 .cfi_offset 4,-20
 2499              	 .cfi_offset 5,-16
 2500              	 .cfi_offset 6,-12
 2501              	 .cfi_offset 7,-8
 2502              	 .cfi_offset 14,-4
2280:C:/Workspace/DAVE-4.4.2-64Bit/optiga-trust-m/optiga/cmd\optiga_cmd.c ****     uint16_t total_apdu_length;
2281:C:/Workspace/DAVE-4.4.2-64Bit/optiga-trust-m/optiga/cmd\optiga_cmd.c ****     optiga_lib_status_t return_status = OPTIGA_CMD_ERROR;
2282:C:/Workspace/DAVE-4.4.2-64Bit/optiga-trust-m/optiga/cmd\optiga_cmd.c ****     uint16_t index_for_data = OPTIGA_CMD_APDU_INDATA_OFFSET;
 2503              	 .loc 1 2282 0
 2504 0002 6B46     	 mov r3,sp
 2505 0004 9D1D     	 add r5,r3,#6
 2506 0006 0923     	 mov r3,#9
 2507 0008 2B80     	 strh r3,[r5]
2283:C:/Workspace/DAVE-4.4.2-64Bit/optiga-trust-m/optiga/cmd\optiga_cmd.c ****     optiga_derive_key_params_t * p_optiga_tls_prf_sha256 = (optiga_derive_key_params_t *)me->p_inpu
2284:C:/Workspace/DAVE-4.4.2-64Bit/optiga-trust-m/optiga/cmd\optiga_cmd.c ****     uint16_t actual_secret_length = 0;
2285:C:/Workspace/DAVE-4.4.2-64Bit/optiga-trust-m/optiga/cmd\optiga_cmd.c ****     uint16_t derive_key_length_sent;
2286:C:/Workspace/DAVE-4.4.2-64Bit/optiga-trust-m/optiga/cmd\optiga_cmd.c ****     uint16_t secret_oid;
2287:C:/Workspace/DAVE-4.4.2-64Bit/optiga-trust-m/optiga/cmd\optiga_cmd.c **** 
2288:C:/Workspace/DAVE-4.4.2-64Bit/optiga-trust-m/optiga/cmd\optiga_cmd.c ****     switch ((uint8_t)me->cmd_next_execution_state)
 2508              	 .loc 1 2288 0
 2509 000a 837D     	 ldrb r3,[r0,#22]
2279:C:/Workspace/DAVE-4.4.2-64Bit/optiga-trust-m/optiga/cmd\optiga_cmd.c ****     uint16_t total_apdu_length;
 2510              	 .loc 1 2279 0
 2511 000c 041C     	 mov r4,r0
2283:C:/Workspace/DAVE-4.4.2-64Bit/optiga-trust-m/optiga/cmd\optiga_cmd.c ****     optiga_derive_key_params_t * p_optiga_tls_prf_sha256 = (optiga_derive_key_params_t *)me->p_inpu
 2512              	 .loc 1 2283 0
 2513 000e 8668     	 ldr r6,[r0,#8]
 2514              	.LVL240:
 2515              	 .loc 1 2288 0
 2516 0010 082B     	 cmp r3,#8
 2517 0012 03D0     	 beq .L192
 2518 0014 092B     	 cmp r3,#9
 2519 0016 00D1     	 bne .LCB2491
 2520 0018 9DE0     	 b .L193
 2521              	.LCB2491:
 2522 001a ADE0     	 b .L229
 2523              	.L192:
2289:C:/Workspace/DAVE-4.4.2-64Bit/optiga-trust-m/optiga/cmd\optiga_cmd.c ****     {
2290:C:/Workspace/DAVE-4.4.2-64Bit/optiga-trust-m/optiga/cmd\optiga_cmd.c ****         case OPTIGA_CMD_EXEC_PREPARE_COMMAND:
2291:C:/Workspace/DAVE-4.4.2-64Bit/optiga-trust-m/optiga/cmd\optiga_cmd.c ****         {
2292:C:/Workspace/DAVE-4.4.2-64Bit/optiga-trust-m/optiga/cmd\optiga_cmd.c ****             OPTIGA_CMD_LOG_MESSAGE("Sending derive key command..");
2293:C:/Workspace/DAVE-4.4.2-64Bit/optiga-trust-m/optiga/cmd\optiga_cmd.c ****             // APDU header length + TLV of OID shared secret + TLV of secret derivation data +
2294:C:/Workspace/DAVE-4.4.2-64Bit/optiga-trust-m/optiga/cmd\optiga_cmd.c ****             // TLV of length of the key to be derived
2295:C:/Workspace/DAVE-4.4.2-64Bit/optiga-trust-m/optiga/cmd\optiga_cmd.c ****             // If derive key option to export (TLV of export derive key)
2296:C:/Workspace/DAVE-4.4.2-64Bit/optiga-trust-m/optiga/cmd\optiga_cmd.c ****             // If derive key store in OID (TLV of derive key OID)
2297:C:/Workspace/DAVE-4.4.2-64Bit/optiga-trust-m/optiga/cmd\optiga_cmd.c ****             total_apdu_length = OPTIGA_CMD_APDU_HEADER_SIZE + OPTIGA_CMD_APDU_TL_LENGTH + OPTIGA_CM
 2524              	 .loc 1 2297 0
 2525 001c 3269     	 ldr r2,[r6,#16]
 2526 001e 1423     	 mov r3,#20
 2527 0020 002A     	 cmp r2,#0
 2528 0022 00D1     	 bne .L194
 2529 0024 0233     	 add r3,r3,#2
 2530              	.L194:
 2531              	.LVL241:
2298:C:/Workspace/DAVE-4.4.2-64Bit/optiga-trust-m/optiga/cmd\optiga_cmd.c ****                                     OPTIGA_CMD_APDU_TL_LENGTH + OPTIGA_CMD_APDU_TL_LENGTH + OPTIGA_
2299:C:/Workspace/DAVE-4.4.2-64Bit/optiga-trust-m/optiga/cmd\optiga_cmd.c ****                                     (NULL != p_optiga_tls_prf_sha256->derived_key?(OPTIGA_CMD_APDU_
2300:C:/Workspace/DAVE-4.4.2-64Bit/optiga-trust-m/optiga/cmd\optiga_cmd.c ****                                     (OPTIGA_CMD_APDU_TL_LENGTH + OPTIGA_CMD_UINT16_SIZE_IN_BYTES));
2301:C:/Workspace/DAVE-4.4.2-64Bit/optiga-trust-m/optiga/cmd\optiga_cmd.c ****             if ((NULL != p_optiga_tls_prf_sha256->label) && (OPTIGA_CMD_ZERO_LENGTH_OR_VALUE != p_o
 2532              	 .loc 1 2301 0 discriminator 4
 2533 0026 F268     	 ldr r2,[r6,#12]
 2534 0028 002A     	 cmp r2,#0
 2535 002a 04D0     	 beq .L195
 2536              	 .loc 1 2301 0 is_stmt 0 discriminator 1
 2537 002c 7288     	 ldrh r2,[r6,#2]
 2538 002e 002A     	 cmp r2,#0
 2539 0030 01D0     	 beq .L195
2302:C:/Workspace/DAVE-4.4.2-64Bit/optiga-trust-m/optiga/cmd\optiga_cmd.c ****             {
2303:C:/Workspace/DAVE-4.4.2-64Bit/optiga-trust-m/optiga/cmd\optiga_cmd.c ****                 total_apdu_length += p_optiga_tls_prf_sha256->label_length;
 2540              	 .loc 1 2303 0 is_stmt 1
 2541 0032 9B18     	 add r3,r3,r2
 2542              	.LVL242:
 2543 0034 9BB2     	 uxth r3,r3
 2544              	.LVL243:
 2545              	.L195:
2304:C:/Workspace/DAVE-4.4.2-64Bit/optiga-trust-m/optiga/cmd\optiga_cmd.c ****             }
2305:C:/Workspace/DAVE-4.4.2-64Bit/optiga-trust-m/optiga/cmd\optiga_cmd.c ****             //copy seed(secret) if not NULL
2306:C:/Workspace/DAVE-4.4.2-64Bit/optiga-trust-m/optiga/cmd\optiga_cmd.c ****             if ((NULL != p_optiga_tls_prf_sha256->seed) && (OPTIGA_CMD_ZERO_LENGTH_OR_VALUE != p_op
 2546              	 .loc 1 2306 0
 2547 0036 B268     	 ldr r2,[r6,#8]
 2548 0038 002A     	 cmp r2,#0
 2549 003a 04D0     	 beq .L196
 2550              	 .loc 1 2306 0 is_stmt 0 discriminator 1
 2551 003c B288     	 ldrh r2,[r6,#4]
 2552 003e 002A     	 cmp r2,#0
 2553 0040 01D0     	 beq .L196
2307:C:/Workspace/DAVE-4.4.2-64Bit/optiga-trust-m/optiga/cmd\optiga_cmd.c ****             {
2308:C:/Workspace/DAVE-4.4.2-64Bit/optiga-trust-m/optiga/cmd\optiga_cmd.c ****                 total_apdu_length += p_optiga_tls_prf_sha256->seed_length;
 2554              	 .loc 1 2308 0 is_stmt 1
 2555 0042 9B18     	 add r3,r3,r2
 2556              	.LVL244:
 2557 0044 9BB2     	 uxth r3,r3
 2558              	.LVL245:
 2559              	.L196:
2309:C:/Workspace/DAVE-4.4.2-64Bit/optiga-trust-m/optiga/cmd\optiga_cmd.c ****             }
2310:C:/Workspace/DAVE-4.4.2-64Bit/optiga-trust-m/optiga/cmd\optiga_cmd.c ****             if (OPTIGA_MAX_COMMS_BUFFER_SIZE < total_apdu_length)
 2560              	 .loc 1 2310 0
 2561 0046 4F4A     	 ldr r2,.L231
 2562 0048 9342     	 cmp r3,r2
 2563 004a 00D9     	 bls .LCB2539
 2564 004c 96E0     	 b .L206
 2565              	.LCB2539:
2311:C:/Workspace/DAVE-4.4.2-64Bit/optiga-trust-m/optiga/cmd\optiga_cmd.c ****             {
2312:C:/Workspace/DAVE-4.4.2-64Bit/optiga-trust-m/optiga/cmd\optiga_cmd.c ****                 return_status = OPTIGA_CMD_ERROR_MEMORY_INSUFFICIENT;
2313:C:/Workspace/DAVE-4.4.2-64Bit/optiga-trust-m/optiga/cmd\optiga_cmd.c ****                 break;
2314:C:/Workspace/DAVE-4.4.2-64Bit/optiga-trust-m/optiga/cmd\optiga_cmd.c ****             }
2315:C:/Workspace/DAVE-4.4.2-64Bit/optiga-trust-m/optiga/cmd\optiga_cmd.c **** 
2316:C:/Workspace/DAVE-4.4.2-64Bit/optiga-trust-m/optiga/cmd\optiga_cmd.c ****             // OID of shared secret to derive new secret from
2317:C:/Workspace/DAVE-4.4.2-64Bit/optiga-trust-m/optiga/cmd\optiga_cmd.c ****             optiga_cmd_prepare_tag_header(CMD_DERIVE_KEY_SEC_OID_TAG,
2318:C:/Workspace/DAVE-4.4.2-64Bit/optiga-trust-m/optiga/cmd\optiga_cmd.c ****                                           CMD_DERIVE_KEY_SEC_OID_TAG_LENGTH,
2319:C:/Workspace/DAVE-4.4.2-64Bit/optiga-trust-m/optiga/cmd\optiga_cmd.c ****                                           me->p_optiga->optiga_comms_buffer,
 2566              	 .loc 1 2319 0
 2567 004e 2268     	 ldr r2,[r4]
2317:C:/Workspace/DAVE-4.4.2-64Bit/optiga-trust-m/optiga/cmd\optiga_cmd.c ****                                           CMD_DERIVE_KEY_SEC_OID_TAG_LENGTH,
 2568              	 .loc 1 2317 0
 2569 0050 0221     	 mov r1,#2
 2570              	 .loc 1 2319 0
 2571 0052 0D32     	 add r2,r2,#13
2317:C:/Workspace/DAVE-4.4.2-64Bit/optiga-trust-m/optiga/cmd\optiga_cmd.c ****                                           CMD_DERIVE_KEY_SEC_OID_TAG_LENGTH,
 2572              	 .loc 1 2317 0
 2573 0054 0120     	 mov r0,#1
 2574              	.LVL246:
 2575 0056 2B1C     	 mov r3,r5
 2576 0058 FFF7FEFF 	 bl optiga_cmd_prepare_tag_header
 2577              	.LVL247:
2320:C:/Workspace/DAVE-4.4.2-64Bit/optiga-trust-m/optiga/cmd\optiga_cmd.c ****                                           &index_for_data);
2321:C:/Workspace/DAVE-4.4.2-64Bit/optiga-trust-m/optiga/cmd\optiga_cmd.c ****             secret_oid = (p_optiga_tls_prf_sha256->input_shared_secret_oid == 0x00) ?
 2578              	 .loc 1 2321 0
 2579 005c 3188     	 ldrh r1,[r6]
 2580 005e 0029     	 cmp r1,#0
 2581 0060 00D1     	 bne .L197
 2582              	 .loc 1 2321 0 is_stmt 0 discriminator 1
 2583 0062 A18A     	 ldrh r1,[r4,#20]
 2584              	.L197:
 2585              	.LVL248:
2322:C:/Workspace/DAVE-4.4.2-64Bit/optiga-trust-m/optiga/cmd\optiga_cmd.c ****                           me->session_oid : p_optiga_tls_prf_sha256->input_shared_secret_oid;
2323:C:/Workspace/DAVE-4.4.2-64Bit/optiga-trust-m/optiga/cmd\optiga_cmd.c ****             optiga_common_set_uint16((me->p_optiga->optiga_comms_buffer + index_for_data), secret_o
 2586              	 .loc 1 2323 0 is_stmt 1 discriminator 4
 2587 0064 2368     	 ldr r3,[r4]
 2588 0066 2888     	 ldrh r0,[r5]
 2589 0068 1818     	 add r0,r3,r0
 2590 006a 0D30     	 add r0,r0,#13
 2591 006c FFF7FEFF 	 bl optiga_common_set_uint16
 2592              	.LVL249:
2324:C:/Workspace/DAVE-4.4.2-64Bit/optiga-trust-m/optiga/cmd\optiga_cmd.c ****             index_for_data += 2;
 2593              	 .loc 1 2324 0 discriminator 4
 2594 0070 2B88     	 ldrh r3,[r5]
2325:C:/Workspace/DAVE-4.4.2-64Bit/optiga-trust-m/optiga/cmd\optiga_cmd.c **** 
2326:C:/Workspace/DAVE-4.4.2-64Bit/optiga-trust-m/optiga/cmd\optiga_cmd.c ****             // Length of key to be derived
2327:C:/Workspace/DAVE-4.4.2-64Bit/optiga-trust-m/optiga/cmd\optiga_cmd.c ****             optiga_cmd_prepare_tag_header(CMD_DERIVE_KEY_KEY_LEN_TAG,
2328:C:/Workspace/DAVE-4.4.2-64Bit/optiga-trust-m/optiga/cmd\optiga_cmd.c ****                                           CMD_DERIVE_KEY_KEY_LEN_TAG_LENGTH,
2329:C:/Workspace/DAVE-4.4.2-64Bit/optiga-trust-m/optiga/cmd\optiga_cmd.c ****                                           me->p_optiga->optiga_comms_buffer,
 2595              	 .loc 1 2329 0 discriminator 4
 2596 0072 2268     	 ldr r2,[r4]
2324:C:/Workspace/DAVE-4.4.2-64Bit/optiga-trust-m/optiga/cmd\optiga_cmd.c ****             index_for_data += 2;
 2597              	 .loc 1 2324 0 discriminator 4
 2598 0074 0233     	 add r3,r3,#2
 2599 0076 2B80     	 strh r3,[r5]
2327:C:/Workspace/DAVE-4.4.2-64Bit/optiga-trust-m/optiga/cmd\optiga_cmd.c ****                                           CMD_DERIVE_KEY_KEY_LEN_TAG_LENGTH,
 2600              	 .loc 1 2327 0 discriminator 4
 2601 0078 0221     	 mov r1,#2
 2602 007a 2B1C     	 mov r3,r5
 2603              	 .loc 1 2329 0 discriminator 4
 2604 007c 0D32     	 add r2,r2,#13
2327:C:/Workspace/DAVE-4.4.2-64Bit/optiga-trust-m/optiga/cmd\optiga_cmd.c ****                                           CMD_DERIVE_KEY_KEY_LEN_TAG_LENGTH,
 2605              	 .loc 1 2327 0 discriminator 4
 2606 007e 0320     	 mov r0,#3
 2607 0080 FFF7FEFF 	 bl optiga_cmd_prepare_tag_header
 2608              	.LVL250:
2330:C:/Workspace/DAVE-4.4.2-64Bit/optiga-trust-m/optiga/cmd\optiga_cmd.c ****                                           &index_for_data);
2331:C:/Workspace/DAVE-4.4.2-64Bit/optiga-trust-m/optiga/cmd\optiga_cmd.c ****             derive_key_length_sent = p_optiga_tls_prf_sha256->derived_key_length;
 2609              	 .loc 1 2331 0 discriminator 4
 2610 0084 F188     	 ldrh r1,[r6,#6]
 2611              	.LVL251:
2332:C:/Workspace/DAVE-4.4.2-64Bit/optiga-trust-m/optiga/cmd\optiga_cmd.c ****             if ((derive_key_length_sent > OPTIGA_CMD_ZERO_LENGTH_OR_VALUE) &&
 2612              	 .loc 1 2332 0 discriminator 4
 2613 0086 4B1E     	 sub r3,r1,#1
 2614 0088 0E2B     	 cmp r3,#14
 2615 008a 00D8     	 bhi .L198
2333:C:/Workspace/DAVE-4.4.2-64Bit/optiga-trust-m/optiga/cmd\optiga_cmd.c ****                 (derive_key_length_sent < CMD_DERIVE_KEY_DERIVE_KEY_LEN_MIN))
2334:C:/Workspace/DAVE-4.4.2-64Bit/optiga-trust-m/optiga/cmd\optiga_cmd.c ****             {
2335:C:/Workspace/DAVE-4.4.2-64Bit/optiga-trust-m/optiga/cmd\optiga_cmd.c ****                 derive_key_length_sent = CMD_DERIVE_KEY_DERIVE_KEY_LEN_MIN;
 2616              	 .loc 1 2335 0
 2617 008c 1021     	 mov r1,#16
 2618              	.LVL252:
 2619              	.L198:
2336:C:/Workspace/DAVE-4.4.2-64Bit/optiga-trust-m/optiga/cmd\optiga_cmd.c ****             }
2337:C:/Workspace/DAVE-4.4.2-64Bit/optiga-trust-m/optiga/cmd\optiga_cmd.c ****             optiga_common_set_uint16((me->p_optiga->optiga_comms_buffer + index_for_data), derive_k
 2620              	 .loc 1 2337 0
 2621 008e 2368     	 ldr r3,[r4]
 2622 0090 2888     	 ldrh r0,[r5]
 2623 0092 1818     	 add r0,r3,r0
 2624 0094 0D30     	 add r0,r0,#13
 2625 0096 FFF7FEFF 	 bl optiga_common_set_uint16
 2626              	.LVL253:
2338:C:/Workspace/DAVE-4.4.2-64Bit/optiga-trust-m/optiga/cmd\optiga_cmd.c ****             index_for_data += 2;
 2627              	 .loc 1 2338 0
 2628 009a 2888     	 ldrh r0,[r5]
2339:C:/Workspace/DAVE-4.4.2-64Bit/optiga-trust-m/optiga/cmd\optiga_cmd.c **** 
2340:C:/Workspace/DAVE-4.4.2-64Bit/optiga-trust-m/optiga/cmd\optiga_cmd.c ****             //copy label(secret) if present
2341:C:/Workspace/DAVE-4.4.2-64Bit/optiga-trust-m/optiga/cmd\optiga_cmd.c ****             *(me->p_optiga->optiga_comms_buffer + index_for_data++) = CMD_DERIVE_KEY_DERIVATION_DAT
 2629              	 .loc 1 2341 0
 2630 009c 2268     	 ldr r2,[r4]
2338:C:/Workspace/DAVE-4.4.2-64Bit/optiga-trust-m/optiga/cmd\optiga_cmd.c ****             index_for_data += 2;
 2631              	 .loc 1 2338 0
 2632 009e 831C     	 add r3,r0,#2
 2633              	 .loc 1 2341 0
 2634 00a0 9BB2     	 uxth r3,r3
 2635 00a2 D318     	 add r3,r2,r3
 2636 00a4 0222     	 mov r2,#2
 2637 00a6 5A73     	 strb r2,[r3,#13]
2342:C:/Workspace/DAVE-4.4.2-64Bit/optiga-trust-m/optiga/cmd\optiga_cmd.c ****             index_for_data += 2;
 2638              	 .loc 1 2342 0
 2639 00a8 0530     	 add r0,r0,#5
2343:C:/Workspace/DAVE-4.4.2-64Bit/optiga-trust-m/optiga/cmd\optiga_cmd.c **** 
2344:C:/Workspace/DAVE-4.4.2-64Bit/optiga-trust-m/optiga/cmd\optiga_cmd.c ****             if ((NULL != p_optiga_tls_prf_sha256->label) && (OPTIGA_CMD_ZERO_LENGTH_OR_VALUE != p_o
 2640              	 .loc 1 2344 0
 2641 00aa F168     	 ldr r1,[r6,#12]
2342:C:/Workspace/DAVE-4.4.2-64Bit/optiga-trust-m/optiga/cmd\optiga_cmd.c ****             index_for_data += 2;
 2642              	 .loc 1 2342 0
 2643 00ac 80B2     	 uxth r0,r0
 2644 00ae 2880     	 strh r0,[r5]
2284:C:/Workspace/DAVE-4.4.2-64Bit/optiga-trust-m/optiga/cmd\optiga_cmd.c ****     uint16_t derive_key_length_sent;
 2645              	 .loc 1 2284 0
 2646 00b0 0F1E     	 sub r7,r1,#0
 2647              	 .loc 1 2344 0
 2648 00b2 09D0     	 beq .L199
2284:C:/Workspace/DAVE-4.4.2-64Bit/optiga-trust-m/optiga/cmd\optiga_cmd.c ****     uint16_t derive_key_length_sent;
 2649              	 .loc 1 2284 0 discriminator 1
 2650 00b4 0027     	 mov r7,#0
 2651              	 .loc 1 2344 0 discriminator 1
 2652 00b6 7288     	 ldrh r2,[r6,#2]
 2653 00b8 BA42     	 cmp r2,r7
 2654 00ba 05D0     	 beq .L199
2345:C:/Workspace/DAVE-4.4.2-64Bit/optiga-trust-m/optiga/cmd\optiga_cmd.c ****             {
2346:C:/Workspace/DAVE-4.4.2-64Bit/optiga-trust-m/optiga/cmd\optiga_cmd.c ****                 // pre increase index
2347:C:/Workspace/DAVE-4.4.2-64Bit/optiga-trust-m/optiga/cmd\optiga_cmd.c ****                 pal_os_memcpy(me->p_optiga->optiga_comms_buffer + index_for_data,
 2655              	 .loc 1 2347 0
 2656 00bc 2368     	 ldr r3,[r4]
 2657 00be 1818     	 add r0,r3,r0
 2658 00c0 0D30     	 add r0,r0,#13
 2659 00c2 FFF7FEFF 	 bl memcpy
 2660              	.LVL254:
2348:C:/Workspace/DAVE-4.4.2-64Bit/optiga-trust-m/optiga/cmd\optiga_cmd.c ****                               p_optiga_tls_prf_sha256->label,
2349:C:/Workspace/DAVE-4.4.2-64Bit/optiga-trust-m/optiga/cmd\optiga_cmd.c ****                               p_optiga_tls_prf_sha256->label_length);
2350:C:/Workspace/DAVE-4.4.2-64Bit/optiga-trust-m/optiga/cmd\optiga_cmd.c **** 
2351:C:/Workspace/DAVE-4.4.2-64Bit/optiga-trust-m/optiga/cmd\optiga_cmd.c ****                 actual_secret_length = p_optiga_tls_prf_sha256->label_length;
 2661              	 .loc 1 2351 0
 2662 00c6 7788     	 ldrh r7,[r6,#2]
 2663              	.LVL255:
 2664              	.L199:
2352:C:/Workspace/DAVE-4.4.2-64Bit/optiga-trust-m/optiga/cmd\optiga_cmd.c ****             }
2353:C:/Workspace/DAVE-4.4.2-64Bit/optiga-trust-m/optiga/cmd\optiga_cmd.c ****             //copy seed(secret) if not NULL
2354:C:/Workspace/DAVE-4.4.2-64Bit/optiga-trust-m/optiga/cmd\optiga_cmd.c ****             if ((NULL != p_optiga_tls_prf_sha256->seed) && (OPTIGA_CMD_ZERO_LENGTH_OR_VALUE != p_op
 2665              	 .loc 1 2354 0
 2666 00c8 B168     	 ldr r1,[r6,#8]
 2667 00ca 0029     	 cmp r1,#0
 2668 00cc 0CD0     	 beq .L200
 2669              	 .loc 1 2354 0 is_stmt 0 discriminator 1
 2670 00ce B288     	 ldrh r2,[r6,#4]
 2671 00d0 002A     	 cmp r2,#0
 2672 00d2 09D0     	 beq .L200
2355:C:/Workspace/DAVE-4.4.2-64Bit/optiga-trust-m/optiga/cmd\optiga_cmd.c ****             {
2356:C:/Workspace/DAVE-4.4.2-64Bit/optiga-trust-m/optiga/cmd\optiga_cmd.c ****                 pal_os_memcpy(me->p_optiga->optiga_comms_buffer + index_for_data+actual_secret_leng
 2673              	 .loc 1 2356 0 is_stmt 1
 2674 00d4 2888     	 ldrh r0,[r5]
 2675 00d6 2368     	 ldr r3,[r4]
 2676 00d8 3818     	 add r0,r7,r0
 2677 00da 1818     	 add r0,r3,r0
 2678 00dc 0D30     	 add r0,r0,#13
 2679 00de FFF7FEFF 	 bl memcpy
 2680              	.LVL256:
2357:C:/Workspace/DAVE-4.4.2-64Bit/optiga-trust-m/optiga/cmd\optiga_cmd.c ****                               p_optiga_tls_prf_sha256->seed,
2358:C:/Workspace/DAVE-4.4.2-64Bit/optiga-trust-m/optiga/cmd\optiga_cmd.c ****                               p_optiga_tls_prf_sha256->seed_length);
2359:C:/Workspace/DAVE-4.4.2-64Bit/optiga-trust-m/optiga/cmd\optiga_cmd.c **** 
2360:C:/Workspace/DAVE-4.4.2-64Bit/optiga-trust-m/optiga/cmd\optiga_cmd.c ****                 actual_secret_length += p_optiga_tls_prf_sha256->seed_length;
 2681              	 .loc 1 2360 0
 2682 00e2 B388     	 ldrh r3,[r6,#4]
 2683 00e4 FF18     	 add r7,r7,r3
 2684              	.LVL257:
 2685 00e6 BFB2     	 uxth r7,r7
 2686              	.LVL258:
 2687              	.L200:
2361:C:/Workspace/DAVE-4.4.2-64Bit/optiga-trust-m/optiga/cmd\optiga_cmd.c ****             }
2362:C:/Workspace/DAVE-4.4.2-64Bit/optiga-trust-m/optiga/cmd\optiga_cmd.c **** 
2363:C:/Workspace/DAVE-4.4.2-64Bit/optiga-trust-m/optiga/cmd\optiga_cmd.c ****             //Add secret length
2364:C:/Workspace/DAVE-4.4.2-64Bit/optiga-trust-m/optiga/cmd\optiga_cmd.c ****             optiga_common_set_uint16((me->p_optiga->optiga_comms_buffer + index_for_data - 2), (act
 2688              	 .loc 1 2364 0
 2689 00e8 2368     	 ldr r3,[r4]
 2690 00ea 2888     	 ldrh r0,[r5]
 2691 00ec 391C     	 mov r1,r7
 2692 00ee 1818     	 add r0,r3,r0
 2693 00f0 0B30     	 add r0,r0,#11
 2694 00f2 FFF7FEFF 	 bl optiga_common_set_uint16
 2695              	.LVL259:
2365:C:/Workspace/DAVE-4.4.2-64Bit/optiga-trust-m/optiga/cmd\optiga_cmd.c ****             index_for_data += actual_secret_length;
 2696              	 .loc 1 2365 0
 2697 00f6 2B88     	 ldrh r3,[r5]
 2698 00f8 2268     	 ldr r2,[r4]
 2699 00fa FF18     	 add r7,r7,r3
 2700              	.LVL260:
2366:C:/Workspace/DAVE-4.4.2-64Bit/optiga-trust-m/optiga/cmd\optiga_cmd.c **** 
2367:C:/Workspace/DAVE-4.4.2-64Bit/optiga-trust-m/optiga/cmd\optiga_cmd.c ****             // Alternate output options
2368:C:/Workspace/DAVE-4.4.2-64Bit/optiga-trust-m/optiga/cmd\optiga_cmd.c ****             if (NULL == p_optiga_tls_prf_sha256->derived_key)
 2701              	 .loc 1 2368 0
 2702 00fc 3369     	 ldr r3,[r6,#16]
2365:C:/Workspace/DAVE-4.4.2-64Bit/optiga-trust-m/optiga/cmd\optiga_cmd.c ****             index_for_data += actual_secret_length;
 2703              	 .loc 1 2365 0
 2704 00fe 2F80     	 strh r7,[r5]
2369:C:/Workspace/DAVE-4.4.2-64Bit/optiga-trust-m/optiga/cmd\optiga_cmd.c ****             {
2370:C:/Workspace/DAVE-4.4.2-64Bit/optiga-trust-m/optiga/cmd\optiga_cmd.c ****                 //store internal
2371:C:/Workspace/DAVE-4.4.2-64Bit/optiga-trust-m/optiga/cmd\optiga_cmd.c ****                 optiga_cmd_prepare_tag_header(CMD_DERIVE_KEY_STORE_TAG,
2372:C:/Workspace/DAVE-4.4.2-64Bit/optiga-trust-m/optiga/cmd\optiga_cmd.c ****                                               CMD_DERIVE_KEY_STORE_TAG_LENGTH,
2373:C:/Workspace/DAVE-4.4.2-64Bit/optiga-trust-m/optiga/cmd\optiga_cmd.c ****                                               me->p_optiga->optiga_comms_buffer,
 2705              	 .loc 1 2373 0
 2706 0100 0D32     	 add r2,r2,#13
2368:C:/Workspace/DAVE-4.4.2-64Bit/optiga-trust-m/optiga/cmd\optiga_cmd.c ****             {
 2707              	 .loc 1 2368 0
 2708 0102 002B     	 cmp r3,#0
 2709 0104 0FD1     	 bne .L201
2371:C:/Workspace/DAVE-4.4.2-64Bit/optiga-trust-m/optiga/cmd\optiga_cmd.c ****                                               CMD_DERIVE_KEY_STORE_TAG_LENGTH,
 2710              	 .loc 1 2371 0
 2711 0106 0820     	 mov r0,#8
 2712 0108 0221     	 mov r1,#2
 2713 010a 2B1C     	 mov r3,r5
 2714 010c FFF7FEFF 	 bl optiga_cmd_prepare_tag_header
 2715              	.LVL261:
2374:C:/Workspace/DAVE-4.4.2-64Bit/optiga-trust-m/optiga/cmd\optiga_cmd.c ****                                               &index_for_data);
2375:C:/Workspace/DAVE-4.4.2-64Bit/optiga-trust-m/optiga/cmd\optiga_cmd.c ****                 optiga_common_set_uint16((me->p_optiga->optiga_comms_buffer + index_for_data), (me-
 2716              	 .loc 1 2375 0
 2717 0110 2368     	 ldr r3,[r4]
 2718 0112 2888     	 ldrh r0,[r5]
 2719 0114 A18A     	 ldrh r1,[r4,#20]
 2720 0116 1818     	 add r0,r3,r0
 2721 0118 0D30     	 add r0,r0,#13
 2722 011a FFF7FEFF 	 bl optiga_common_set_uint16
 2723              	.LVL262:
2376:C:/Workspace/DAVE-4.4.2-64Bit/optiga-trust-m/optiga/cmd\optiga_cmd.c ****                 index_for_data += 2;
 2724              	 .loc 1 2376 0
 2725 011e 2B88     	 ldrh r3,[r5]
 2726 0120 0233     	 add r3,r3,#2
 2727 0122 2B80     	 strh r3,[r5]
 2728 0124 04E0     	 b .L202
 2729              	.L201:
2377:C:/Workspace/DAVE-4.4.2-64Bit/optiga-trust-m/optiga/cmd\optiga_cmd.c ****             }
2378:C:/Workspace/DAVE-4.4.2-64Bit/optiga-trust-m/optiga/cmd\optiga_cmd.c ****             else
2379:C:/Workspace/DAVE-4.4.2-64Bit/optiga-trust-m/optiga/cmd\optiga_cmd.c ****             {
2380:C:/Workspace/DAVE-4.4.2-64Bit/optiga-trust-m/optiga/cmd\optiga_cmd.c ****                 //export
2381:C:/Workspace/DAVE-4.4.2-64Bit/optiga-trust-m/optiga/cmd\optiga_cmd.c ****                 optiga_cmd_prepare_tag_header(CMD_DERIVE_KEY_EXPORT_TAG,
 2730              	 .loc 1 2381 0
 2731 0126 0720     	 mov r0,#7
 2732 0128 0021     	 mov r1,#0
 2733 012a 2B1C     	 mov r3,r5
 2734 012c FFF7FEFF 	 bl optiga_cmd_prepare_tag_header
 2735              	.LVL263:
 2736              	.L202:
2382:C:/Workspace/DAVE-4.4.2-64Bit/optiga-trust-m/optiga/cmd\optiga_cmd.c ****                                               OPTIGA_CMD_ZERO_LENGTH_OR_VALUE,
2383:C:/Workspace/DAVE-4.4.2-64Bit/optiga-trust-m/optiga/cmd\optiga_cmd.c ****                                               me->p_optiga->optiga_comms_buffer,
2384:C:/Workspace/DAVE-4.4.2-64Bit/optiga-trust-m/optiga/cmd\optiga_cmd.c ****                                               &index_for_data);
2385:C:/Workspace/DAVE-4.4.2-64Bit/optiga-trust-m/optiga/cmd\optiga_cmd.c ****             }
2386:C:/Workspace/DAVE-4.4.2-64Bit/optiga-trust-m/optiga/cmd\optiga_cmd.c **** 
2387:C:/Workspace/DAVE-4.4.2-64Bit/optiga-trust-m/optiga/cmd\optiga_cmd.c ****             optiga_cmd_prepare_apdu_header(OPTIGA_CMD_DERIVE_KEY,
 2737              	 .loc 1 2387 0
 2738 0130 2B88     	 ldrh r3,[r5]
 2739              	.LBB144:
 2740              	.LBB145:
 421:C:/Workspace/DAVE-4.4.2-64Bit/optiga-trust-m/optiga/cmd\optiga_cmd.c ****     p_apdu_buffer [1] = param;
 2741              	 .loc 1 421 0
 2742 0132 B425     	 mov r5,#180
 2743              	.LBE145:
 2744              	.LBE144:
 2745              	 .loc 1 2387 0
 2746 0134 191C     	 mov r1,r3
 2747 0136 207E     	 ldrb r0,[r4,#24]
2388:C:/Workspace/DAVE-4.4.2-64Bit/optiga-trust-m/optiga/cmd\optiga_cmd.c ****                                            me->cmd_param,
2389:C:/Workspace/DAVE-4.4.2-64Bit/optiga-trust-m/optiga/cmd\optiga_cmd.c ****                                           (index_for_data - OPTIGA_CMD_APDU_INDATA_OFFSET),
2390:C:/Workspace/DAVE-4.4.2-64Bit/optiga-trust-m/optiga/cmd\optiga_cmd.c ****                                            me->p_optiga->optiga_comms_buffer + OPTIGA_COMMS_DATA_OF
 2748              	 .loc 1 2390 0
 2749 0138 2268     	 ldr r2,[r4]
 2750              	.LVL264:
2387:C:/Workspace/DAVE-4.4.2-64Bit/optiga-trust-m/optiga/cmd\optiga_cmd.c ****                                            me->cmd_param,
 2751              	 .loc 1 2387 0
 2752 013a 0939     	 sub r1,r1,#9
 2753 013c 89B2     	 uxth r1,r1
 2754              	.LVL265:
 2755              	.LBB147:
 2756              	.LBB146:
 422:C:/Workspace/DAVE-4.4.2-64Bit/optiga-trust-m/optiga/cmd\optiga_cmd.c ****     p_apdu_buffer [2] = (uint8_t)((in_data_length & 0xFF00) >> 8);
 2757              	 .loc 1 422 0
 2758 013e D074     	 strb r0,[r2,#19]
 423:C:/Workspace/DAVE-4.4.2-64Bit/optiga-trust-m/optiga/cmd\optiga_cmd.c ****     p_apdu_buffer [3] = (uint8_t)(in_data_length & 0x00FF);
 2759              	 .loc 1 423 0
 2760 0140 080A     	 lsr r0,r1,#8
 2761              	.LVL266:
 421:C:/Workspace/DAVE-4.4.2-64Bit/optiga-trust-m/optiga/cmd\optiga_cmd.c ****     p_apdu_buffer [1] = param;
 2762              	 .loc 1 421 0
 2763 0142 9574     	 strb r5,[r2,#18]
 423:C:/Workspace/DAVE-4.4.2-64Bit/optiga-trust-m/optiga/cmd\optiga_cmd.c ****     p_apdu_buffer [3] = (uint8_t)(in_data_length & 0x00FF);
 2764              	 .loc 1 423 0
 2765 0144 1075     	 strb r0,[r2,#20]
 424:C:/Workspace/DAVE-4.4.2-64Bit/optiga-trust-m/optiga/cmd\optiga_cmd.c **** }
 2766              	 .loc 1 424 0
 2767 0146 5175     	 strb r1,[r2,#21]
 2768              	.LBE146:
 2769              	.LBE147:
2391:C:/Workspace/DAVE-4.4.2-64Bit/optiga-trust-m/optiga/cmd\optiga_cmd.c **** 
2392:C:/Workspace/DAVE-4.4.2-64Bit/optiga-trust-m/optiga/cmd\optiga_cmd.c ****             me->p_optiga->comms_tx_size = (index_for_data - OPTIGA_COMMS_DATA_OFFSET);
 2770              	 .loc 1 2392 0
 2771 0148 2268     	 ldr r2,[r4]
 2772              	.LVL267:
 2773 014a 053B     	 sub r3,r3,#5
 2774 014c 9380     	 strh r3,[r2,#4]
2393:C:/Workspace/DAVE-4.4.2-64Bit/optiga-trust-m/optiga/cmd\optiga_cmd.c ****             me->cmd_next_execution_state = OPTIGA_CMD_EXEC_PROCESS_RESPONSE;
 2775              	 .loc 1 2393 0
 2776 014e 0923     	 mov r3,#9
 2777 0150 A375     	 strb r3,[r4,#22]
 2778              	.LVL268:
 2779              	.L230:
2394:C:/Workspace/DAVE-4.4.2-64Bit/optiga-trust-m/optiga/cmd\optiga_cmd.c ****             return_status = OPTIGA_LIB_SUCCESS;
 2780              	 .loc 1 2394 0
 2781 0152 0023     	 mov r3,#0
2395:C:/Workspace/DAVE-4.4.2-64Bit/optiga-trust-m/optiga/cmd\optiga_cmd.c ****         }
2396:C:/Workspace/DAVE-4.4.2-64Bit/optiga-trust-m/optiga/cmd\optiga_cmd.c ****         break;
 2782              	 .loc 1 2396 0
 2783 0154 14E0     	 b .L191
 2784              	.LVL269:
 2785              	.L193:
2397:C:/Workspace/DAVE-4.4.2-64Bit/optiga-trust-m/optiga/cmd\optiga_cmd.c ****         case OPTIGA_CMD_EXEC_PROCESS_RESPONSE:
2398:C:/Workspace/DAVE-4.4.2-64Bit/optiga-trust-m/optiga/cmd\optiga_cmd.c ****         {
2399:C:/Workspace/DAVE-4.4.2-64Bit/optiga-trust-m/optiga/cmd\optiga_cmd.c ****             OPTIGA_CMD_LOG_MESSAGE("Processing response for derive key command...");
2400:C:/Workspace/DAVE-4.4.2-64Bit/optiga-trust-m/optiga/cmd\optiga_cmd.c ****             if (OPTIGA_CMD_APDU_SUCCESS != me->p_optiga->optiga_comms_buffer[OPTIGA_COMMS_DATA_OFFS
 2786              	 .loc 1 2400 0
 2787 0156 0168     	 ldr r1,[r0]
 2788 0158 8D7C     	 ldrb r5,[r1,#18]
 2789 015a 002D     	 cmp r5,#0
 2790 015c 04D0     	 beq .L203
2401:C:/Workspace/DAVE-4.4.2-64Bit/optiga-trust-m/optiga/cmd\optiga_cmd.c ****             {
2402:C:/Workspace/DAVE-4.4.2-64Bit/optiga-trust-m/optiga/cmd\optiga_cmd.c ****                 OPTIGA_CMD_LOG_MESSAGE("Error in processing derive key response...");
2403:C:/Workspace/DAVE-4.4.2-64Bit/optiga-trust-m/optiga/cmd\optiga_cmd.c ****                 SET_DEV_ERROR_NOTIFICATION(OPTIGA_CMD_EXIT_HANDLER_CALL);
 2791              	 .loc 1 2403 0
 2792 015e 7F23     	 mov r3,#127
 2793 0160 027F     	 ldrb r2,[r0,#28]
 2794 0162 1340     	 and r3,r2
 2795 0164 0377     	 strb r3,[r0,#28]
 2796 0166 07E0     	 b .L229
 2797              	.L203:
 2798              	.LVL270:
2404:C:/Workspace/DAVE-4.4.2-64Bit/optiga-trust-m/optiga/cmd\optiga_cmd.c ****                 break;
2405:C:/Workspace/DAVE-4.4.2-64Bit/optiga-trust-m/optiga/cmd\optiga_cmd.c ****             }
2406:C:/Workspace/DAVE-4.4.2-64Bit/optiga-trust-m/optiga/cmd\optiga_cmd.c ****             OPTIGA_CMD_LOG_MESSAGE("Response of derive key command is processed...");
2407:C:/Workspace/DAVE-4.4.2-64Bit/optiga-trust-m/optiga/cmd\optiga_cmd.c ****             // session release
2408:C:/Workspace/DAVE-4.4.2-64Bit/optiga-trust-m/optiga/cmd\optiga_cmd.c ****             return_status = OPTIGA_LIB_SUCCESS;
2409:C:/Workspace/DAVE-4.4.2-64Bit/optiga-trust-m/optiga/cmd\optiga_cmd.c ****             if (NULL != p_optiga_tls_prf_sha256->derived_key)
 2799              	 .loc 1 2409 0
 2800 0168 3069     	 ldr r0,[r6,#16]
 2801              	.LVL271:
2408:C:/Workspace/DAVE-4.4.2-64Bit/optiga-trust-m/optiga/cmd\optiga_cmd.c ****             if (NULL != p_optiga_tls_prf_sha256->derived_key)
 2802              	 .loc 1 2408 0
 2803 016a 031E     	 sub r3,r0,#0
 2804              	 .loc 1 2409 0
 2805 016c 08D0     	 beq .L191
2410:C:/Workspace/DAVE-4.4.2-64Bit/optiga-trust-m/optiga/cmd\optiga_cmd.c ****             {
2411:C:/Workspace/DAVE-4.4.2-64Bit/optiga-trust-m/optiga/cmd\optiga_cmd.c ****                 pal_os_memcpy(p_optiga_tls_prf_sha256->derived_key,
 2806              	 .loc 1 2411 0
 2807 016e F288     	 ldrh r2,[r6,#6]
 2808 0170 1631     	 add r1,r1,#22
 2809 0172 FFF7FEFF 	 bl memcpy
 2810              	.LVL272:
 2811 0176 ECE7     	 b .L230
 2812              	.LVL273:
 2813              	.L229:
2281:C:/Workspace/DAVE-4.4.2-64Bit/optiga-trust-m/optiga/cmd\optiga_cmd.c ****     uint16_t index_for_data = OPTIGA_CMD_APDU_INDATA_OFFSET;
 2814              	 .loc 1 2281 0
 2815 0178 034B     	 ldr r3,.L231+4
 2816 017a 01E0     	 b .L191
 2817              	.L206:
2312:C:/Workspace/DAVE-4.4.2-64Bit/optiga-trust-m/optiga/cmd\optiga_cmd.c ****                 break;
 2818              	 .loc 1 2312 0
 2819 017c 8123     	 mov r3,#129
 2820 017e 9B00     	 lsl r3,r3,#2
 2821              	.LVL274:
 2822              	.L191:
2412:C:/Workspace/DAVE-4.4.2-64Bit/optiga-trust-m/optiga/cmd\optiga_cmd.c ****                               me->p_optiga->optiga_comms_buffer + OPTIGA_CMD_APDU_INDATA_OFFSET,
2413:C:/Workspace/DAVE-4.4.2-64Bit/optiga-trust-m/optiga/cmd\optiga_cmd.c ****                               p_optiga_tls_prf_sha256->derived_key_length);
2414:C:/Workspace/DAVE-4.4.2-64Bit/optiga-trust-m/optiga/cmd\optiga_cmd.c ****             }
2415:C:/Workspace/DAVE-4.4.2-64Bit/optiga-trust-m/optiga/cmd\optiga_cmd.c ****         }
2416:C:/Workspace/DAVE-4.4.2-64Bit/optiga-trust-m/optiga/cmd\optiga_cmd.c ****         break;
2417:C:/Workspace/DAVE-4.4.2-64Bit/optiga-trust-m/optiga/cmd\optiga_cmd.c ****         default:
2418:C:/Workspace/DAVE-4.4.2-64Bit/optiga-trust-m/optiga/cmd\optiga_cmd.c ****             break;
2419:C:/Workspace/DAVE-4.4.2-64Bit/optiga-trust-m/optiga/cmd\optiga_cmd.c ****     }
2420:C:/Workspace/DAVE-4.4.2-64Bit/optiga-trust-m/optiga/cmd\optiga_cmd.c **** 
2421:C:/Workspace/DAVE-4.4.2-64Bit/optiga-trust-m/optiga/cmd\optiga_cmd.c ****     return (return_status);
2422:C:/Workspace/DAVE-4.4.2-64Bit/optiga-trust-m/optiga/cmd\optiga_cmd.c **** }
 2823              	 .loc 1 2422 0
 2824 0180 181C     	 mov r0,r3
 2825              	 
 2826              	.LVL275:
 2827              	.LVL276:
 2828 0182 FEBD     	 pop {r1,r2,r3,r4,r5,r6,r7,pc}
 2829              	.L232:
 2830              	 .align 2
 2831              	.L231:
 2832 0184 15060000 	 .word 1557
 2833 0188 02020000 	 .word 514
 2834              	 .cfi_endproc
 2835              	.LFE41:
 2837              	 .section .text.optiga_cmd_set_object_protected_handler,"ax",%progbits
 2838              	 .align 1
 2839              	 .code 16
 2840              	 .thumb_func
 2842              	optiga_cmd_set_object_protected_handler:
 2843              	.LFB51:
2423:C:/Workspace/DAVE-4.4.2-64Bit/optiga-trust-m/optiga/cmd\optiga_cmd.c **** 
2424:C:/Workspace/DAVE-4.4.2-64Bit/optiga-trust-m/optiga/cmd\optiga_cmd.c **** optiga_lib_status_t optiga_cmd_derive_key(optiga_cmd_t * me, uint8_t cmd_param, optiga_derive_key_p
2425:C:/Workspace/DAVE-4.4.2-64Bit/optiga-trust-m/optiga/cmd\optiga_cmd.c **** {
2426:C:/Workspace/DAVE-4.4.2-64Bit/optiga-trust-m/optiga/cmd\optiga_cmd.c ****     optiga_lib_status_t return_status = OPTIGA_CMD_ERROR_INVALID_INPUT;
2427:C:/Workspace/DAVE-4.4.2-64Bit/optiga-trust-m/optiga/cmd\optiga_cmd.c ****     optiga_derive_key_params_t * p_optiga_tls_prf_sha256 = (optiga_derive_key_params_t*)params;
2428:C:/Workspace/DAVE-4.4.2-64Bit/optiga-trust-m/optiga/cmd\optiga_cmd.c ****     optiga_cmd_state_t initial_state;
2429:C:/Workspace/DAVE-4.4.2-64Bit/optiga-trust-m/optiga/cmd\optiga_cmd.c ****     OPTIGA_CMD_LOG_MESSAGE(__FUNCTION__);
2430:C:/Workspace/DAVE-4.4.2-64Bit/optiga-trust-m/optiga/cmd\optiga_cmd.c ****     
2431:C:/Workspace/DAVE-4.4.2-64Bit/optiga-trust-m/optiga/cmd\optiga_cmd.c ****     do
2432:C:/Workspace/DAVE-4.4.2-64Bit/optiga-trust-m/optiga/cmd\optiga_cmd.c ****     {
2433:C:/Workspace/DAVE-4.4.2-64Bit/optiga-trust-m/optiga/cmd\optiga_cmd.c ****         if ((OPTIGA_KEY_ID_SESSION_BASED == (optiga_key_id_t)p_optiga_tls_prf_sha256->input_shared_
2434:C:/Workspace/DAVE-4.4.2-64Bit/optiga-trust-m/optiga/cmd\optiga_cmd.c ****             (OPTIGA_CMD_ZERO_LENGTH_OR_VALUE == me->session_oid))
2435:C:/Workspace/DAVE-4.4.2-64Bit/optiga-trust-m/optiga/cmd\optiga_cmd.c ****         {
2436:C:/Workspace/DAVE-4.4.2-64Bit/optiga-trust-m/optiga/cmd\optiga_cmd.c ****             break;
2437:C:/Workspace/DAVE-4.4.2-64Bit/optiga-trust-m/optiga/cmd\optiga_cmd.c ****         }
2438:C:/Workspace/DAVE-4.4.2-64Bit/optiga-trust-m/optiga/cmd\optiga_cmd.c **** 
2439:C:/Workspace/DAVE-4.4.2-64Bit/optiga-trust-m/optiga/cmd\optiga_cmd.c ****         me->chaining_ongoing = FALSE;
2440:C:/Workspace/DAVE-4.4.2-64Bit/optiga-trust-m/optiga/cmd\optiga_cmd.c ****         me->cmd_param = cmd_param;
2441:C:/Workspace/DAVE-4.4.2-64Bit/optiga-trust-m/optiga/cmd\optiga_cmd.c ****         initial_state = OPTIGA_CMD_EXEC_REQUEST_LOCK;
2442:C:/Workspace/DAVE-4.4.2-64Bit/optiga-trust-m/optiga/cmd\optiga_cmd.c **** 
2443:C:/Workspace/DAVE-4.4.2-64Bit/optiga-trust-m/optiga/cmd\optiga_cmd.c ****         if ((NULL == p_optiga_tls_prf_sha256->derived_key) ||
2444:C:/Workspace/DAVE-4.4.2-64Bit/optiga-trust-m/optiga/cmd\optiga_cmd.c ****             (0x00 == p_optiga_tls_prf_sha256->input_shared_secret_oid))
2445:C:/Workspace/DAVE-4.4.2-64Bit/optiga-trust-m/optiga/cmd\optiga_cmd.c ****         {
2446:C:/Workspace/DAVE-4.4.2-64Bit/optiga-trust-m/optiga/cmd\optiga_cmd.c ****             initial_state = OPTIGA_CMD_EXEC_REQUEST_SESSION;
2447:C:/Workspace/DAVE-4.4.2-64Bit/optiga-trust-m/optiga/cmd\optiga_cmd.c ****         }
2448:C:/Workspace/DAVE-4.4.2-64Bit/optiga-trust-m/optiga/cmd\optiga_cmd.c **** 
2449:C:/Workspace/DAVE-4.4.2-64Bit/optiga-trust-m/optiga/cmd\optiga_cmd.c ****         optiga_cmd_execute(me,
2450:C:/Workspace/DAVE-4.4.2-64Bit/optiga-trust-m/optiga/cmd\optiga_cmd.c ****                            me->cmd_param,
2451:C:/Workspace/DAVE-4.4.2-64Bit/optiga-trust-m/optiga/cmd\optiga_cmd.c ****                            optiga_cmd_derive_key_handler,
2452:C:/Workspace/DAVE-4.4.2-64Bit/optiga-trust-m/optiga/cmd\optiga_cmd.c ****                            initial_state,
2453:C:/Workspace/DAVE-4.4.2-64Bit/optiga-trust-m/optiga/cmd\optiga_cmd.c ****                            params);
2454:C:/Workspace/DAVE-4.4.2-64Bit/optiga-trust-m/optiga/cmd\optiga_cmd.c **** 
2455:C:/Workspace/DAVE-4.4.2-64Bit/optiga-trust-m/optiga/cmd\optiga_cmd.c ****         return_status = OPTIGA_LIB_SUCCESS;
2456:C:/Workspace/DAVE-4.4.2-64Bit/optiga-trust-m/optiga/cmd\optiga_cmd.c **** 
2457:C:/Workspace/DAVE-4.4.2-64Bit/optiga-trust-m/optiga/cmd\optiga_cmd.c ****     } while (FALSE);
2458:C:/Workspace/DAVE-4.4.2-64Bit/optiga-trust-m/optiga/cmd\optiga_cmd.c ****     return (return_status);
2459:C:/Workspace/DAVE-4.4.2-64Bit/optiga-trust-m/optiga/cmd\optiga_cmd.c **** }
2460:C:/Workspace/DAVE-4.4.2-64Bit/optiga-trust-m/optiga/cmd\optiga_cmd.c **** #endif //OPTIGA_CRYPT_TLS_PRF_SHA256_ENABLED
2461:C:/Workspace/DAVE-4.4.2-64Bit/optiga-trust-m/optiga/cmd\optiga_cmd.c **** 
2462:C:/Workspace/DAVE-4.4.2-64Bit/optiga-trust-m/optiga/cmd\optiga_cmd.c **** #if defined (OPTIGA_CRYPT_ECC_GENERATE_KEYPAIR_ENABLED) || defined (OPTIGA_CRYPT_RSA_GENERATE_KEYPA
2463:C:/Workspace/DAVE-4.4.2-64Bit/optiga-trust-m/optiga/cmd\optiga_cmd.c **** /*
2464:C:/Workspace/DAVE-4.4.2-64Bit/optiga-trust-m/optiga/cmd\optiga_cmd.c **** * GenKeyPair handler
2465:C:/Workspace/DAVE-4.4.2-64Bit/optiga-trust-m/optiga/cmd\optiga_cmd.c **** */
2466:C:/Workspace/DAVE-4.4.2-64Bit/optiga-trust-m/optiga/cmd\optiga_cmd.c **** _STATIC_H optiga_lib_status_t optiga_cmd_gen_keypair_handler(optiga_cmd_t * me)
2467:C:/Workspace/DAVE-4.4.2-64Bit/optiga-trust-m/optiga/cmd\optiga_cmd.c **** {
2468:C:/Workspace/DAVE-4.4.2-64Bit/optiga-trust-m/optiga/cmd\optiga_cmd.c ****     uint16_t total_apdu_length;
2469:C:/Workspace/DAVE-4.4.2-64Bit/optiga-trust-m/optiga/cmd\optiga_cmd.c ****     optiga_gen_keypair_params_t * p_optiga_ecc_gen_keypair = (optiga_gen_keypair_params_t *)me->p_i
2470:C:/Workspace/DAVE-4.4.2-64Bit/optiga-trust-m/optiga/cmd\optiga_cmd.c ****     uint16_t header_offset;
2471:C:/Workspace/DAVE-4.4.2-64Bit/optiga-trust-m/optiga/cmd\optiga_cmd.c ****     uint16_t private_key_length;
2472:C:/Workspace/DAVE-4.4.2-64Bit/optiga-trust-m/optiga/cmd\optiga_cmd.c ****     uint16_t index_for_data = OPTIGA_CMD_APDU_INDATA_OFFSET;
2473:C:/Workspace/DAVE-4.4.2-64Bit/optiga-trust-m/optiga/cmd\optiga_cmd.c ****     uint16_t out_data_size;
2474:C:/Workspace/DAVE-4.4.2-64Bit/optiga-trust-m/optiga/cmd\optiga_cmd.c ****     uint16_t public_key_length;
2475:C:/Workspace/DAVE-4.4.2-64Bit/optiga-trust-m/optiga/cmd\optiga_cmd.c ****     optiga_lib_status_t return_status = OPTIGA_CMD_ERROR;
2476:C:/Workspace/DAVE-4.4.2-64Bit/optiga-trust-m/optiga/cmd\optiga_cmd.c **** 
2477:C:/Workspace/DAVE-4.4.2-64Bit/optiga-trust-m/optiga/cmd\optiga_cmd.c ****     switch ((uint8_t)me->cmd_next_execution_state)
2478:C:/Workspace/DAVE-4.4.2-64Bit/optiga-trust-m/optiga/cmd\optiga_cmd.c ****     {
2479:C:/Workspace/DAVE-4.4.2-64Bit/optiga-trust-m/optiga/cmd\optiga_cmd.c ****         case OPTIGA_CMD_EXEC_PREPARE_COMMAND:
2480:C:/Workspace/DAVE-4.4.2-64Bit/optiga-trust-m/optiga/cmd\optiga_cmd.c ****         {
2481:C:/Workspace/DAVE-4.4.2-64Bit/optiga-trust-m/optiga/cmd\optiga_cmd.c ****             OPTIGA_CMD_LOG_MESSAGE("Sending generate keypair command..");
2482:C:/Workspace/DAVE-4.4.2-64Bit/optiga-trust-m/optiga/cmd\optiga_cmd.c ****             // APDU header length +
2483:C:/Workspace/DAVE-4.4.2-64Bit/optiga-trust-m/optiga/cmd\optiga_cmd.c ****             // If private key option to store in OID (TLV of private key + TLV of key usages)
2484:C:/Workspace/DAVE-4.4.2-64Bit/optiga-trust-m/optiga/cmd\optiga_cmd.c ****             // If private key option to export (TLV of export key pair)
2485:C:/Workspace/DAVE-4.4.2-64Bit/optiga-trust-m/optiga/cmd\optiga_cmd.c ****             total_apdu_length = OPTIGA_CMD_APDU_HEADER_SIZE +
2486:C:/Workspace/DAVE-4.4.2-64Bit/optiga-trust-m/optiga/cmd\optiga_cmd.c ****                                     (FALSE == p_optiga_ecc_gen_keypair->export_private_key ?
2487:C:/Workspace/DAVE-4.4.2-64Bit/optiga-trust-m/optiga/cmd\optiga_cmd.c ****                                     (OPTIGA_CMD_APDU_TL_LENGTH + OPTIGA_CMD_UINT16_SIZE_IN_BYTES + 
2488:C:/Workspace/DAVE-4.4.2-64Bit/optiga-trust-m/optiga/cmd\optiga_cmd.c ****                                     (OPTIGA_CMD_APDU_TL_LENGTH ));
2489:C:/Workspace/DAVE-4.4.2-64Bit/optiga-trust-m/optiga/cmd\optiga_cmd.c ****             if (OPTIGA_MAX_COMMS_BUFFER_SIZE < total_apdu_length)
2490:C:/Workspace/DAVE-4.4.2-64Bit/optiga-trust-m/optiga/cmd\optiga_cmd.c ****             {
2491:C:/Workspace/DAVE-4.4.2-64Bit/optiga-trust-m/optiga/cmd\optiga_cmd.c ****                 return_status = OPTIGA_CMD_ERROR_MEMORY_INSUFFICIENT;
2492:C:/Workspace/DAVE-4.4.2-64Bit/optiga-trust-m/optiga/cmd\optiga_cmd.c ****                 *p_optiga_ecc_gen_keypair->public_key_length = 0;
2493:C:/Workspace/DAVE-4.4.2-64Bit/optiga-trust-m/optiga/cmd\optiga_cmd.c ****                 break;
2494:C:/Workspace/DAVE-4.4.2-64Bit/optiga-trust-m/optiga/cmd\optiga_cmd.c ****             }
2495:C:/Workspace/DAVE-4.4.2-64Bit/optiga-trust-m/optiga/cmd\optiga_cmd.c ****             if (FALSE == p_optiga_ecc_gen_keypair->export_private_key)
2496:C:/Workspace/DAVE-4.4.2-64Bit/optiga-trust-m/optiga/cmd\optiga_cmd.c ****             {
2497:C:/Workspace/DAVE-4.4.2-64Bit/optiga-trust-m/optiga/cmd\optiga_cmd.c ****                 ///TLV formation for private key OID
2498:C:/Workspace/DAVE-4.4.2-64Bit/optiga-trust-m/optiga/cmd\optiga_cmd.c ****                 optiga_cmd_prepare_tag_header (CMD_GEN_KEY_PAIR_PRIVATE_KEY_OID_TAG,
2499:C:/Workspace/DAVE-4.4.2-64Bit/optiga-trust-m/optiga/cmd\optiga_cmd.c ****                                                CMD_GEN_KEY_PAIR_PRIVATE_KEY_OID_LENGTH,
2500:C:/Workspace/DAVE-4.4.2-64Bit/optiga-trust-m/optiga/cmd\optiga_cmd.c ****                                                me->p_optiga->optiga_comms_buffer,
2501:C:/Workspace/DAVE-4.4.2-64Bit/optiga-trust-m/optiga/cmd\optiga_cmd.c ****                                                &index_for_data);
2502:C:/Workspace/DAVE-4.4.2-64Bit/optiga-trust-m/optiga/cmd\optiga_cmd.c ****                 ///Update OID based on input param
2503:C:/Workspace/DAVE-4.4.2-64Bit/optiga-trust-m/optiga/cmd\optiga_cmd.c ****                 optiga_common_set_uint16((me->p_optiga->optiga_comms_buffer + index_for_data),
2504:C:/Workspace/DAVE-4.4.2-64Bit/optiga-trust-m/optiga/cmd\optiga_cmd.c ****                                          ((OPTIGA_KEY_ID_SESSION_BASED == p_optiga_ecc_gen_keypair-
2505:C:/Workspace/DAVE-4.4.2-64Bit/optiga-trust-m/optiga/cmd\optiga_cmd.c ****                                          me->session_oid:(uint16_t)p_optiga_ecc_gen_keypair->privat
2506:C:/Workspace/DAVE-4.4.2-64Bit/optiga-trust-m/optiga/cmd\optiga_cmd.c **** 
2507:C:/Workspace/DAVE-4.4.2-64Bit/optiga-trust-m/optiga/cmd\optiga_cmd.c ****                 index_for_data += OPTIGA_CMD_UINT16_SIZE_IN_BYTES;
2508:C:/Workspace/DAVE-4.4.2-64Bit/optiga-trust-m/optiga/cmd\optiga_cmd.c ****                 ///TLV formation for key usage
2509:C:/Workspace/DAVE-4.4.2-64Bit/optiga-trust-m/optiga/cmd\optiga_cmd.c ****                 optiga_cmd_prepare_tag_header (CMD_GEN_KEY_PAIR_KEY_USAGE_TAG,
2510:C:/Workspace/DAVE-4.4.2-64Bit/optiga-trust-m/optiga/cmd\optiga_cmd.c ****                                                CMD_GEN_KEY_PAIR_KEY_USAGE_LENGTH,
2511:C:/Workspace/DAVE-4.4.2-64Bit/optiga-trust-m/optiga/cmd\optiga_cmd.c ****                                                me->p_optiga->optiga_comms_buffer,
2512:C:/Workspace/DAVE-4.4.2-64Bit/optiga-trust-m/optiga/cmd\optiga_cmd.c ****                                                &index_for_data);
2513:C:/Workspace/DAVE-4.4.2-64Bit/optiga-trust-m/optiga/cmd\optiga_cmd.c **** 
2514:C:/Workspace/DAVE-4.4.2-64Bit/optiga-trust-m/optiga/cmd\optiga_cmd.c ****                 *(me->p_optiga->optiga_comms_buffer + index_for_data++) = p_optiga_ecc_gen_keypair-
2515:C:/Workspace/DAVE-4.4.2-64Bit/optiga-trust-m/optiga/cmd\optiga_cmd.c ****             }
2516:C:/Workspace/DAVE-4.4.2-64Bit/optiga-trust-m/optiga/cmd\optiga_cmd.c ****             else
2517:C:/Workspace/DAVE-4.4.2-64Bit/optiga-trust-m/optiga/cmd\optiga_cmd.c ****             {
2518:C:/Workspace/DAVE-4.4.2-64Bit/optiga-trust-m/optiga/cmd\optiga_cmd.c ****                 ///TLV formation for export key
2519:C:/Workspace/DAVE-4.4.2-64Bit/optiga-trust-m/optiga/cmd\optiga_cmd.c ****                 optiga_cmd_prepare_tag_header (CMD_GEN_KEY_PAIR_EXPORT_KEY_TAG,
2520:C:/Workspace/DAVE-4.4.2-64Bit/optiga-trust-m/optiga/cmd\optiga_cmd.c ****                                                CMD_GEN_KEY_PAIR_EXPORT_KEY_LENGTH,
2521:C:/Workspace/DAVE-4.4.2-64Bit/optiga-trust-m/optiga/cmd\optiga_cmd.c ****                                                me->p_optiga->optiga_comms_buffer,
2522:C:/Workspace/DAVE-4.4.2-64Bit/optiga-trust-m/optiga/cmd\optiga_cmd.c ****                                                &index_for_data);
2523:C:/Workspace/DAVE-4.4.2-64Bit/optiga-trust-m/optiga/cmd\optiga_cmd.c ****             }
2524:C:/Workspace/DAVE-4.4.2-64Bit/optiga-trust-m/optiga/cmd\optiga_cmd.c **** 
2525:C:/Workspace/DAVE-4.4.2-64Bit/optiga-trust-m/optiga/cmd\optiga_cmd.c ****             //form apdu header
2526:C:/Workspace/DAVE-4.4.2-64Bit/optiga-trust-m/optiga/cmd\optiga_cmd.c ****             optiga_cmd_prepare_apdu_header(OPTIGA_CMD_GEN_KEYPAIR, me->cmd_param,
2527:C:/Workspace/DAVE-4.4.2-64Bit/optiga-trust-m/optiga/cmd\optiga_cmd.c ****                                             (uint16_t)(index_for_data - OPTIGA_CMD_APDU_INDATA_OFFS
2528:C:/Workspace/DAVE-4.4.2-64Bit/optiga-trust-m/optiga/cmd\optiga_cmd.c ****             me->p_optiga->optiga_comms_buffer + OPTIGA_COMMS_DATA_OFFSET);
2529:C:/Workspace/DAVE-4.4.2-64Bit/optiga-trust-m/optiga/cmd\optiga_cmd.c **** 
2530:C:/Workspace/DAVE-4.4.2-64Bit/optiga-trust-m/optiga/cmd\optiga_cmd.c ****             me->p_optiga->comms_tx_size = (uint16_t)(index_for_data - OPTIGA_COMMS_DATA_OFFSET);
2531:C:/Workspace/DAVE-4.4.2-64Bit/optiga-trust-m/optiga/cmd\optiga_cmd.c ****             me->cmd_next_execution_state = OPTIGA_CMD_EXEC_PROCESS_RESPONSE;
2532:C:/Workspace/DAVE-4.4.2-64Bit/optiga-trust-m/optiga/cmd\optiga_cmd.c ****             return_status = OPTIGA_LIB_SUCCESS;
2533:C:/Workspace/DAVE-4.4.2-64Bit/optiga-trust-m/optiga/cmd\optiga_cmd.c ****         }
2534:C:/Workspace/DAVE-4.4.2-64Bit/optiga-trust-m/optiga/cmd\optiga_cmd.c ****         break;
2535:C:/Workspace/DAVE-4.4.2-64Bit/optiga-trust-m/optiga/cmd\optiga_cmd.c ****         case OPTIGA_CMD_EXEC_PROCESS_RESPONSE:
2536:C:/Workspace/DAVE-4.4.2-64Bit/optiga-trust-m/optiga/cmd\optiga_cmd.c ****         {
2537:C:/Workspace/DAVE-4.4.2-64Bit/optiga-trust-m/optiga/cmd\optiga_cmd.c ****             OPTIGA_CMD_LOG_MESSAGE("Processing response for generate keypair command...");
2538:C:/Workspace/DAVE-4.4.2-64Bit/optiga-trust-m/optiga/cmd\optiga_cmd.c ****             // check if the write was successful
2539:C:/Workspace/DAVE-4.4.2-64Bit/optiga-trust-m/optiga/cmd\optiga_cmd.c ****             if (OPTIGA_CMD_APDU_FAILURE == me->p_optiga->optiga_comms_buffer[OPTIGA_COMMS_DATA_OFFS
2540:C:/Workspace/DAVE-4.4.2-64Bit/optiga-trust-m/optiga/cmd\optiga_cmd.c ****             {
2541:C:/Workspace/DAVE-4.4.2-64Bit/optiga-trust-m/optiga/cmd\optiga_cmd.c ****                 OPTIGA_CMD_LOG_MESSAGE("Error in processing generate keypair response...");
2542:C:/Workspace/DAVE-4.4.2-64Bit/optiga-trust-m/optiga/cmd\optiga_cmd.c ****                 *p_optiga_ecc_gen_keypair->public_key_length = 0;
2543:C:/Workspace/DAVE-4.4.2-64Bit/optiga-trust-m/optiga/cmd\optiga_cmd.c ****                 SET_DEV_ERROR_NOTIFICATION(OPTIGA_CMD_EXIT_HANDLER_CALL);
2544:C:/Workspace/DAVE-4.4.2-64Bit/optiga-trust-m/optiga/cmd\optiga_cmd.c ****                 break;
2545:C:/Workspace/DAVE-4.4.2-64Bit/optiga-trust-m/optiga/cmd\optiga_cmd.c ****             }
2546:C:/Workspace/DAVE-4.4.2-64Bit/optiga-trust-m/optiga/cmd\optiga_cmd.c ****             header_offset = 0;
2547:C:/Workspace/DAVE-4.4.2-64Bit/optiga-trust-m/optiga/cmd\optiga_cmd.c ****             optiga_common_get_uint16(&me->p_optiga->optiga_comms_buffer[OPTIGA_CMD_APDU_INDATA_OFFS
2548:C:/Workspace/DAVE-4.4.2-64Bit/optiga-trust-m/optiga/cmd\optiga_cmd.c ****                                      &out_data_size);
2549:C:/Workspace/DAVE-4.4.2-64Bit/optiga-trust-m/optiga/cmd\optiga_cmd.c **** 
2550:C:/Workspace/DAVE-4.4.2-64Bit/optiga-trust-m/optiga/cmd\optiga_cmd.c ****             while (out_data_size > header_offset)
2551:C:/Workspace/DAVE-4.4.2-64Bit/optiga-trust-m/optiga/cmd\optiga_cmd.c ****             {
2552:C:/Workspace/DAVE-4.4.2-64Bit/optiga-trust-m/optiga/cmd\optiga_cmd.c ****                 if (CMD_GEN_KEY_PAIR_PUBLIC_KEY_TAG ==
2553:C:/Workspace/DAVE-4.4.2-64Bit/optiga-trust-m/optiga/cmd\optiga_cmd.c ****                     me->p_optiga->optiga_comms_buffer[OPTIGA_CMD_APDU_INDATA_OFFSET + header_offset
2554:C:/Workspace/DAVE-4.4.2-64Bit/optiga-trust-m/optiga/cmd\optiga_cmd.c ****                 {
2555:C:/Workspace/DAVE-4.4.2-64Bit/optiga-trust-m/optiga/cmd\optiga_cmd.c ****                     optiga_common_get_uint16(&me->p_optiga->optiga_comms_buffer[OPTIGA_CMD_APDU_IND
2556:C:/Workspace/DAVE-4.4.2-64Bit/optiga-trust-m/optiga/cmd\optiga_cmd.c ****                                                 header_offset + OPTIGA_CMD_NO_OF_BYTES_IN_TAG], &pu
2557:C:/Workspace/DAVE-4.4.2-64Bit/optiga-trust-m/optiga/cmd\optiga_cmd.c ****                     if (public_key_length > *p_optiga_ecc_gen_keypair->public_key_length)
2558:C:/Workspace/DAVE-4.4.2-64Bit/optiga-trust-m/optiga/cmd\optiga_cmd.c ****                     {
2559:C:/Workspace/DAVE-4.4.2-64Bit/optiga-trust-m/optiga/cmd\optiga_cmd.c ****                         OPTIGA_CMD_LOG_MESSAGE("Error in processing generate keypair response...");
2560:C:/Workspace/DAVE-4.4.2-64Bit/optiga-trust-m/optiga/cmd\optiga_cmd.c ****                         return_status = OPTIGA_CMD_ERROR_MEMORY_INSUFFICIENT;
2561:C:/Workspace/DAVE-4.4.2-64Bit/optiga-trust-m/optiga/cmd\optiga_cmd.c ****                         *p_optiga_ecc_gen_keypair->public_key_length = 0;
2562:C:/Workspace/DAVE-4.4.2-64Bit/optiga-trust-m/optiga/cmd\optiga_cmd.c ****                         break;
2563:C:/Workspace/DAVE-4.4.2-64Bit/optiga-trust-m/optiga/cmd\optiga_cmd.c ****                     }
2564:C:/Workspace/DAVE-4.4.2-64Bit/optiga-trust-m/optiga/cmd\optiga_cmd.c ****                     *p_optiga_ecc_gen_keypair->public_key_length = public_key_length;
2565:C:/Workspace/DAVE-4.4.2-64Bit/optiga-trust-m/optiga/cmd\optiga_cmd.c ****                     pal_os_memcpy(p_optiga_ecc_gen_keypair->public_key,
2566:C:/Workspace/DAVE-4.4.2-64Bit/optiga-trust-m/optiga/cmd\optiga_cmd.c ****                                   &me->p_optiga->optiga_comms_buffer[OPTIGA_CMD_APDU_INDATA_OFFSET 
2567:C:/Workspace/DAVE-4.4.2-64Bit/optiga-trust-m/optiga/cmd\optiga_cmd.c ****                                    OPTIGA_CMD_UINT16_SIZE_IN_BYTES + OPTIGA_CMD_NO_OF_BYTES_IN_TAG]
2568:C:/Workspace/DAVE-4.4.2-64Bit/optiga-trust-m/optiga/cmd\optiga_cmd.c ****                                    *p_optiga_ecc_gen_keypair->public_key_length);
2569:C:/Workspace/DAVE-4.4.2-64Bit/optiga-trust-m/optiga/cmd\optiga_cmd.c ****                     header_offset +=  (uint16_t)OPTIGA_CMD_UINT16_SIZE_IN_BYTES+ OPTIGA_CMD_NO_OF_B
2570:C:/Workspace/DAVE-4.4.2-64Bit/optiga-trust-m/optiga/cmd\optiga_cmd.c ****                                         *p_optiga_ecc_gen_keypair->public_key_length;
2571:C:/Workspace/DAVE-4.4.2-64Bit/optiga-trust-m/optiga/cmd\optiga_cmd.c ****                     return_status = OPTIGA_LIB_SUCCESS;
2572:C:/Workspace/DAVE-4.4.2-64Bit/optiga-trust-m/optiga/cmd\optiga_cmd.c ****                 }
2573:C:/Workspace/DAVE-4.4.2-64Bit/optiga-trust-m/optiga/cmd\optiga_cmd.c ****                 else if (CMD_GEN_KEY_PAIR_PRIVATE_KEY_TAG == me->p_optiga->optiga_comms_buffer[OPTI
2574:C:/Workspace/DAVE-4.4.2-64Bit/optiga-trust-m/optiga/cmd\optiga_cmd.c ****                                                              header_offset])
2575:C:/Workspace/DAVE-4.4.2-64Bit/optiga-trust-m/optiga/cmd\optiga_cmd.c ****                 {
2576:C:/Workspace/DAVE-4.4.2-64Bit/optiga-trust-m/optiga/cmd\optiga_cmd.c ****                     optiga_common_get_uint16(&me->p_optiga->optiga_comms_buffer[OPTIGA_CMD_APDU_IND
2577:C:/Workspace/DAVE-4.4.2-64Bit/optiga-trust-m/optiga/cmd\optiga_cmd.c ****                                              + OPTIGA_CMD_NO_OF_BYTES_IN_TAG], &private_key_length)
2578:C:/Workspace/DAVE-4.4.2-64Bit/optiga-trust-m/optiga/cmd\optiga_cmd.c **** 
2579:C:/Workspace/DAVE-4.4.2-64Bit/optiga-trust-m/optiga/cmd\optiga_cmd.c ****                     pal_os_memcpy(p_optiga_ecc_gen_keypair->private_key,
2580:C:/Workspace/DAVE-4.4.2-64Bit/optiga-trust-m/optiga/cmd\optiga_cmd.c ****                                   &me->p_optiga->optiga_comms_buffer[OPTIGA_CMD_APDU_INDATA_OFFSET 
2581:C:/Workspace/DAVE-4.4.2-64Bit/optiga-trust-m/optiga/cmd\optiga_cmd.c ****                                   OPTIGA_CMD_UINT16_SIZE_IN_BYTES+ OPTIGA_CMD_NO_OF_BYTES_IN_TAG], 
2582:C:/Workspace/DAVE-4.4.2-64Bit/optiga-trust-m/optiga/cmd\optiga_cmd.c ****                     header_offset +=  OPTIGA_CMD_UINT16_SIZE_IN_BYTES+ OPTIGA_CMD_NO_OF_BYTES_IN_TA
2583:C:/Workspace/DAVE-4.4.2-64Bit/optiga-trust-m/optiga/cmd\optiga_cmd.c ****                     return_status = OPTIGA_LIB_SUCCESS;
2584:C:/Workspace/DAVE-4.4.2-64Bit/optiga-trust-m/optiga/cmd\optiga_cmd.c ****                 }
2585:C:/Workspace/DAVE-4.4.2-64Bit/optiga-trust-m/optiga/cmd\optiga_cmd.c ****                 else
2586:C:/Workspace/DAVE-4.4.2-64Bit/optiga-trust-m/optiga/cmd\optiga_cmd.c ****                 {
2587:C:/Workspace/DAVE-4.4.2-64Bit/optiga-trust-m/optiga/cmd\optiga_cmd.c ****                     break;
2588:C:/Workspace/DAVE-4.4.2-64Bit/optiga-trust-m/optiga/cmd\optiga_cmd.c ****                 }
2589:C:/Workspace/DAVE-4.4.2-64Bit/optiga-trust-m/optiga/cmd\optiga_cmd.c ****             }
2590:C:/Workspace/DAVE-4.4.2-64Bit/optiga-trust-m/optiga/cmd\optiga_cmd.c ****             OPTIGA_CMD_LOG_MESSAGE("Response of generate keypair command is processed...");
2591:C:/Workspace/DAVE-4.4.2-64Bit/optiga-trust-m/optiga/cmd\optiga_cmd.c ****         }
2592:C:/Workspace/DAVE-4.4.2-64Bit/optiga-trust-m/optiga/cmd\optiga_cmd.c ****         break;
2593:C:/Workspace/DAVE-4.4.2-64Bit/optiga-trust-m/optiga/cmd\optiga_cmd.c ****         default:
2594:C:/Workspace/DAVE-4.4.2-64Bit/optiga-trust-m/optiga/cmd\optiga_cmd.c ****             break;
2595:C:/Workspace/DAVE-4.4.2-64Bit/optiga-trust-m/optiga/cmd\optiga_cmd.c ****     }
2596:C:/Workspace/DAVE-4.4.2-64Bit/optiga-trust-m/optiga/cmd\optiga_cmd.c **** 
2597:C:/Workspace/DAVE-4.4.2-64Bit/optiga-trust-m/optiga/cmd\optiga_cmd.c ****     return (return_status);
2598:C:/Workspace/DAVE-4.4.2-64Bit/optiga-trust-m/optiga/cmd\optiga_cmd.c **** }
2599:C:/Workspace/DAVE-4.4.2-64Bit/optiga-trust-m/optiga/cmd\optiga_cmd.c **** 
2600:C:/Workspace/DAVE-4.4.2-64Bit/optiga-trust-m/optiga/cmd\optiga_cmd.c **** optiga_lib_status_t optiga_cmd_gen_keypair(optiga_cmd_t * me, uint8_t cmd_param, optiga_gen_keypair
2601:C:/Workspace/DAVE-4.4.2-64Bit/optiga-trust-m/optiga/cmd\optiga_cmd.c **** {
2602:C:/Workspace/DAVE-4.4.2-64Bit/optiga-trust-m/optiga/cmd\optiga_cmd.c ****     optiga_gen_keypair_params_t * p_optiga_ecc_gen_keypair = (optiga_gen_keypair_params_t*)params;
2603:C:/Workspace/DAVE-4.4.2-64Bit/optiga-trust-m/optiga/cmd\optiga_cmd.c ****     OPTIGA_CMD_LOG_MESSAGE(__FUNCTION__);
2604:C:/Workspace/DAVE-4.4.2-64Bit/optiga-trust-m/optiga/cmd\optiga_cmd.c ****     
2605:C:/Workspace/DAVE-4.4.2-64Bit/optiga-trust-m/optiga/cmd\optiga_cmd.c ****     if ((OPTIGA_KEY_ID_SESSION_BASED == p_optiga_ecc_gen_keypair->private_key_oid)
2606:C:/Workspace/DAVE-4.4.2-64Bit/optiga-trust-m/optiga/cmd\optiga_cmd.c ****         && (FALSE == p_optiga_ecc_gen_keypair->export_private_key))
2607:C:/Workspace/DAVE-4.4.2-64Bit/optiga-trust-m/optiga/cmd\optiga_cmd.c ****     {
2608:C:/Workspace/DAVE-4.4.2-64Bit/optiga-trust-m/optiga/cmd\optiga_cmd.c ****         optiga_cmd_execute(me, cmd_param, optiga_cmd_gen_keypair_handler, OPTIGA_CMD_EXEC_REQUEST_S
2609:C:/Workspace/DAVE-4.4.2-64Bit/optiga-trust-m/optiga/cmd\optiga_cmd.c ****     }
2610:C:/Workspace/DAVE-4.4.2-64Bit/optiga-trust-m/optiga/cmd\optiga_cmd.c ****     else
2611:C:/Workspace/DAVE-4.4.2-64Bit/optiga-trust-m/optiga/cmd\optiga_cmd.c ****     {
2612:C:/Workspace/DAVE-4.4.2-64Bit/optiga-trust-m/optiga/cmd\optiga_cmd.c ****         optiga_cmd_execute(me, cmd_param, optiga_cmd_gen_keypair_handler, OPTIGA_CMD_EXEC_REQUEST_L
2613:C:/Workspace/DAVE-4.4.2-64Bit/optiga-trust-m/optiga/cmd\optiga_cmd.c ****     }
2614:C:/Workspace/DAVE-4.4.2-64Bit/optiga-trust-m/optiga/cmd\optiga_cmd.c **** 
2615:C:/Workspace/DAVE-4.4.2-64Bit/optiga-trust-m/optiga/cmd\optiga_cmd.c ****     return (OPTIGA_LIB_SUCCESS);
2616:C:/Workspace/DAVE-4.4.2-64Bit/optiga-trust-m/optiga/cmd\optiga_cmd.c **** }
2617:C:/Workspace/DAVE-4.4.2-64Bit/optiga-trust-m/optiga/cmd\optiga_cmd.c **** #endif //OPTIGA_CRYPT_ECC_GENERATE_KEYPAIR_ENABLED
2618:C:/Workspace/DAVE-4.4.2-64Bit/optiga-trust-m/optiga/cmd\optiga_cmd.c **** 
2619:C:/Workspace/DAVE-4.4.2-64Bit/optiga-trust-m/optiga/cmd\optiga_cmd.c **** #ifdef OPTIGA_CRYPT_RSA_ENCRYPT_ENABLED
2620:C:/Workspace/DAVE-4.4.2-64Bit/optiga-trust-m/optiga/cmd\optiga_cmd.c **** 
2621:C:/Workspace/DAVE-4.4.2-64Bit/optiga-trust-m/optiga/cmd\optiga_cmd.c **** /*
2622:C:/Workspace/DAVE-4.4.2-64Bit/optiga-trust-m/optiga/cmd\optiga_cmd.c **** * EncryptAsym handler
2623:C:/Workspace/DAVE-4.4.2-64Bit/optiga-trust-m/optiga/cmd\optiga_cmd.c **** */
2624:C:/Workspace/DAVE-4.4.2-64Bit/optiga-trust-m/optiga/cmd\optiga_cmd.c **** _STATIC_H optiga_lib_status_t optiga_cmd_encrypt_asym_handler(optiga_cmd_t * me)
2625:C:/Workspace/DAVE-4.4.2-64Bit/optiga-trust-m/optiga/cmd\optiga_cmd.c **** {
2626:C:/Workspace/DAVE-4.4.2-64Bit/optiga-trust-m/optiga/cmd\optiga_cmd.c ****     uint16_t total_apdu_length;
2627:C:/Workspace/DAVE-4.4.2-64Bit/optiga-trust-m/optiga/cmd\optiga_cmd.c ****     optiga_encrypt_asym_params_t * p_optiga_encrypt_asym = (optiga_encrypt_asym_params_t *)me->p_in
2628:C:/Workspace/DAVE-4.4.2-64Bit/optiga-trust-m/optiga/cmd\optiga_cmd.c ****     uint16_t index_for_data = OPTIGA_CMD_APDU_INDATA_OFFSET;
2629:C:/Workspace/DAVE-4.4.2-64Bit/optiga-trust-m/optiga/cmd\optiga_cmd.c ****     optiga_lib_status_t return_status = OPTIGA_CMD_ERROR;
2630:C:/Workspace/DAVE-4.4.2-64Bit/optiga-trust-m/optiga/cmd\optiga_cmd.c ****     uint16_t out_data_size;
2631:C:/Workspace/DAVE-4.4.2-64Bit/optiga-trust-m/optiga/cmd\optiga_cmd.c **** 
2632:C:/Workspace/DAVE-4.4.2-64Bit/optiga-trust-m/optiga/cmd\optiga_cmd.c **** #define PUBLIC_KEY_HOST ((public_key_from_host_t *)(p_optiga_encrypt_asym->key))
2633:C:/Workspace/DAVE-4.4.2-64Bit/optiga-trust-m/optiga/cmd\optiga_cmd.c **** 
2634:C:/Workspace/DAVE-4.4.2-64Bit/optiga-trust-m/optiga/cmd\optiga_cmd.c ****     switch ((uint8_t)me->cmd_next_execution_state)
2635:C:/Workspace/DAVE-4.4.2-64Bit/optiga-trust-m/optiga/cmd\optiga_cmd.c ****     {
2636:C:/Workspace/DAVE-4.4.2-64Bit/optiga-trust-m/optiga/cmd\optiga_cmd.c ****         case OPTIGA_CMD_EXEC_PREPARE_COMMAND:
2637:C:/Workspace/DAVE-4.4.2-64Bit/optiga-trust-m/optiga/cmd\optiga_cmd.c ****         {
2638:C:/Workspace/DAVE-4.4.2-64Bit/optiga-trust-m/optiga/cmd\optiga_cmd.c ****             OPTIGA_CMD_LOG_MESSAGE("Sending asymmetric encryption command..");
2639:C:/Workspace/DAVE-4.4.2-64Bit/optiga-trust-m/optiga/cmd\optiga_cmd.c ****             // APDU header length + default TLV of OID of session + default TLV of OID of public ke
2640:C:/Workspace/DAVE-4.4.2-64Bit/optiga-trust-m/optiga/cmd\optiga_cmd.c ****             total_apdu_length = OPTIGA_CMD_APDU_HEADER_SIZE + (OPTIGA_CMD_APDU_TL_LENGTH + OPTIGA_C
2641:C:/Workspace/DAVE-4.4.2-64Bit/optiga-trust-m/optiga/cmd\optiga_cmd.c ****                                 OPTIGA_CMD_UINT16_SIZE_IN_BYTES);
2642:C:/Workspace/DAVE-4.4.2-64Bit/optiga-trust-m/optiga/cmd\optiga_cmd.c ****             if (NULL != p_optiga_encrypt_asym->message)
2643:C:/Workspace/DAVE-4.4.2-64Bit/optiga-trust-m/optiga/cmd\optiga_cmd.c ****             {
2644:C:/Workspace/DAVE-4.4.2-64Bit/optiga-trust-m/optiga/cmd\optiga_cmd.c ****                 // Add TLV of message and reduce 2 it is already added by default
2645:C:/Workspace/DAVE-4.4.2-64Bit/optiga-trust-m/optiga/cmd\optiga_cmd.c ****                 total_apdu_length += (p_optiga_encrypt_asym->message_length - OPTIGA_CMD_UINT16_SIZ
2646:C:/Workspace/DAVE-4.4.2-64Bit/optiga-trust-m/optiga/cmd\optiga_cmd.c ****             }
2647:C:/Workspace/DAVE-4.4.2-64Bit/optiga-trust-m/optiga/cmd\optiga_cmd.c ****             if (p_optiga_encrypt_asym->public_key_source_type)
2648:C:/Workspace/DAVE-4.4.2-64Bit/optiga-trust-m/optiga/cmd\optiga_cmd.c ****             {
2649:C:/Workspace/DAVE-4.4.2-64Bit/optiga-trust-m/optiga/cmd\optiga_cmd.c ****                 // Add TLV of public key and reduce 1 because alg id is only 1 byte
2650:C:/Workspace/DAVE-4.4.2-64Bit/optiga-trust-m/optiga/cmd\optiga_cmd.c ****                 total_apdu_length += (OPTIGA_CMD_APDU_TL_LENGTH +(PUBLIC_KEY_HOST->length));
2651:C:/Workspace/DAVE-4.4.2-64Bit/optiga-trust-m/optiga/cmd\optiga_cmd.c ****                 total_apdu_length--;
2652:C:/Workspace/DAVE-4.4.2-64Bit/optiga-trust-m/optiga/cmd\optiga_cmd.c ****             }
2653:C:/Workspace/DAVE-4.4.2-64Bit/optiga-trust-m/optiga/cmd\optiga_cmd.c ****             if (OPTIGA_MAX_COMMS_BUFFER_SIZE < total_apdu_length)
2654:C:/Workspace/DAVE-4.4.2-64Bit/optiga-trust-m/optiga/cmd\optiga_cmd.c ****             {
2655:C:/Workspace/DAVE-4.4.2-64Bit/optiga-trust-m/optiga/cmd\optiga_cmd.c ****                 *(p_optiga_encrypt_asym->processed_message_length) = 0;
2656:C:/Workspace/DAVE-4.4.2-64Bit/optiga-trust-m/optiga/cmd\optiga_cmd.c ****                 return_status = OPTIGA_CMD_ERROR_MEMORY_INSUFFICIENT;
2657:C:/Workspace/DAVE-4.4.2-64Bit/optiga-trust-m/optiga/cmd\optiga_cmd.c ****                 break;
2658:C:/Workspace/DAVE-4.4.2-64Bit/optiga-trust-m/optiga/cmd\optiga_cmd.c ****             }
2659:C:/Workspace/DAVE-4.4.2-64Bit/optiga-trust-m/optiga/cmd\optiga_cmd.c **** 
2660:C:/Workspace/DAVE-4.4.2-64Bit/optiga-trust-m/optiga/cmd\optiga_cmd.c ****             // message for encryption
2661:C:/Workspace/DAVE-4.4.2-64Bit/optiga-trust-m/optiga/cmd\optiga_cmd.c ****             if ((NULL == p_optiga_encrypt_asym->message) && (0 == p_optiga_encrypt_asym->message_le
2662:C:/Workspace/DAVE-4.4.2-64Bit/optiga-trust-m/optiga/cmd\optiga_cmd.c ****             {
2663:C:/Workspace/DAVE-4.4.2-64Bit/optiga-trust-m/optiga/cmd\optiga_cmd.c ****                 //TLV formation for session
2664:C:/Workspace/DAVE-4.4.2-64Bit/optiga-trust-m/optiga/cmd\optiga_cmd.c ****                 optiga_cmd_prepare_tag_header(CMD_ENCRYPT_ASYM_SESSION_OID_TAG,
2665:C:/Workspace/DAVE-4.4.2-64Bit/optiga-trust-m/optiga/cmd\optiga_cmd.c ****                                               CMD_ENCRYPT_ASYM_SESSION_OID_LENGTH,
2666:C:/Workspace/DAVE-4.4.2-64Bit/optiga-trust-m/optiga/cmd\optiga_cmd.c ****                                               me->p_optiga->optiga_comms_buffer,
2667:C:/Workspace/DAVE-4.4.2-64Bit/optiga-trust-m/optiga/cmd\optiga_cmd.c ****                                               &index_for_data);
2668:C:/Workspace/DAVE-4.4.2-64Bit/optiga-trust-m/optiga/cmd\optiga_cmd.c **** 
2669:C:/Workspace/DAVE-4.4.2-64Bit/optiga-trust-m/optiga/cmd\optiga_cmd.c ****                 //Add session OID
2670:C:/Workspace/DAVE-4.4.2-64Bit/optiga-trust-m/optiga/cmd\optiga_cmd.c ****                 optiga_common_set_uint16((me->p_optiga->optiga_comms_buffer + index_for_data ), (me
2671:C:/Workspace/DAVE-4.4.2-64Bit/optiga-trust-m/optiga/cmd\optiga_cmd.c ****                 index_for_data += 2;
2672:C:/Workspace/DAVE-4.4.2-64Bit/optiga-trust-m/optiga/cmd\optiga_cmd.c ****             }
2673:C:/Workspace/DAVE-4.4.2-64Bit/optiga-trust-m/optiga/cmd\optiga_cmd.c ****             else
2674:C:/Workspace/DAVE-4.4.2-64Bit/optiga-trust-m/optiga/cmd\optiga_cmd.c ****             {
2675:C:/Workspace/DAVE-4.4.2-64Bit/optiga-trust-m/optiga/cmd\optiga_cmd.c ****                 //TLV formation for message
2676:C:/Workspace/DAVE-4.4.2-64Bit/optiga-trust-m/optiga/cmd\optiga_cmd.c ****                 optiga_cmd_prepare_tag_header(CMD_ENCRYPT_ASYM_MESSAGE_TAG,
2677:C:/Workspace/DAVE-4.4.2-64Bit/optiga-trust-m/optiga/cmd\optiga_cmd.c ****                                               p_optiga_encrypt_asym->message_length,
2678:C:/Workspace/DAVE-4.4.2-64Bit/optiga-trust-m/optiga/cmd\optiga_cmd.c ****                                               me->p_optiga->optiga_comms_buffer,
2679:C:/Workspace/DAVE-4.4.2-64Bit/optiga-trust-m/optiga/cmd\optiga_cmd.c ****                                               &index_for_data);
2680:C:/Workspace/DAVE-4.4.2-64Bit/optiga-trust-m/optiga/cmd\optiga_cmd.c **** 
2681:C:/Workspace/DAVE-4.4.2-64Bit/optiga-trust-m/optiga/cmd\optiga_cmd.c ****                 pal_os_memcpy(me->p_optiga->optiga_comms_buffer + index_for_data,
2682:C:/Workspace/DAVE-4.4.2-64Bit/optiga-trust-m/optiga/cmd\optiga_cmd.c ****                                 p_optiga_encrypt_asym->message,
2683:C:/Workspace/DAVE-4.4.2-64Bit/optiga-trust-m/optiga/cmd\optiga_cmd.c ****                                 p_optiga_encrypt_asym->message_length);
2684:C:/Workspace/DAVE-4.4.2-64Bit/optiga-trust-m/optiga/cmd\optiga_cmd.c ****                 index_for_data += p_optiga_encrypt_asym->message_length;
2685:C:/Workspace/DAVE-4.4.2-64Bit/optiga-trust-m/optiga/cmd\optiga_cmd.c **** 
2686:C:/Workspace/DAVE-4.4.2-64Bit/optiga-trust-m/optiga/cmd\optiga_cmd.c ****             }
2687:C:/Workspace/DAVE-4.4.2-64Bit/optiga-trust-m/optiga/cmd\optiga_cmd.c **** 
2688:C:/Workspace/DAVE-4.4.2-64Bit/optiga-trust-m/optiga/cmd\optiga_cmd.c ****             // key for encryption
2689:C:/Workspace/DAVE-4.4.2-64Bit/optiga-trust-m/optiga/cmd\optiga_cmd.c **** 
2690:C:/Workspace/DAVE-4.4.2-64Bit/optiga-trust-m/optiga/cmd\optiga_cmd.c ****             if (p_optiga_encrypt_asym->public_key_source_type)
2691:C:/Workspace/DAVE-4.4.2-64Bit/optiga-trust-m/optiga/cmd\optiga_cmd.c ****             {
2692:C:/Workspace/DAVE-4.4.2-64Bit/optiga-trust-m/optiga/cmd\optiga_cmd.c **** 
2693:C:/Workspace/DAVE-4.4.2-64Bit/optiga-trust-m/optiga/cmd\optiga_cmd.c ****                 //TLV formation for public key from host
2694:C:/Workspace/DAVE-4.4.2-64Bit/optiga-trust-m/optiga/cmd\optiga_cmd.c ****                 optiga_cmd_prepare_tag_header(CMD_ENCRYPT_ASYM_ALGO_ID_TAG,
2695:C:/Workspace/DAVE-4.4.2-64Bit/optiga-trust-m/optiga/cmd\optiga_cmd.c ****                                               CMD_ENCRYPT_ASYM_ALGO_ID_LENGTH,
2696:C:/Workspace/DAVE-4.4.2-64Bit/optiga-trust-m/optiga/cmd\optiga_cmd.c ****                                               me->p_optiga->optiga_comms_buffer,
2697:C:/Workspace/DAVE-4.4.2-64Bit/optiga-trust-m/optiga/cmd\optiga_cmd.c ****                                               &index_for_data);
2698:C:/Workspace/DAVE-4.4.2-64Bit/optiga-trust-m/optiga/cmd\optiga_cmd.c **** 
2699:C:/Workspace/DAVE-4.4.2-64Bit/optiga-trust-m/optiga/cmd\optiga_cmd.c ****                 *(me->p_optiga->optiga_comms_buffer + index_for_data++) = (uint8_t)PUBLIC_KEY_HOST-
2700:C:/Workspace/DAVE-4.4.2-64Bit/optiga-trust-m/optiga/cmd\optiga_cmd.c **** 
2701:C:/Workspace/DAVE-4.4.2-64Bit/optiga-trust-m/optiga/cmd\optiga_cmd.c ****                 optiga_cmd_prepare_tag_header(CMD_ENCRYPT_ASYM_PUBLIC_KEY_TAG,
2702:C:/Workspace/DAVE-4.4.2-64Bit/optiga-trust-m/optiga/cmd\optiga_cmd.c ****                                               PUBLIC_KEY_HOST->length,
2703:C:/Workspace/DAVE-4.4.2-64Bit/optiga-trust-m/optiga/cmd\optiga_cmd.c ****                                               me->p_optiga->optiga_comms_buffer,
2704:C:/Workspace/DAVE-4.4.2-64Bit/optiga-trust-m/optiga/cmd\optiga_cmd.c ****                                               &index_for_data);
2705:C:/Workspace/DAVE-4.4.2-64Bit/optiga-trust-m/optiga/cmd\optiga_cmd.c **** 
2706:C:/Workspace/DAVE-4.4.2-64Bit/optiga-trust-m/optiga/cmd\optiga_cmd.c ****                 pal_os_memcpy(me->p_optiga->optiga_comms_buffer + index_for_data,
2707:C:/Workspace/DAVE-4.4.2-64Bit/optiga-trust-m/optiga/cmd\optiga_cmd.c ****                               PUBLIC_KEY_HOST->public_key,
2708:C:/Workspace/DAVE-4.4.2-64Bit/optiga-trust-m/optiga/cmd\optiga_cmd.c ****                               PUBLIC_KEY_HOST->length);
2709:C:/Workspace/DAVE-4.4.2-64Bit/optiga-trust-m/optiga/cmd\optiga_cmd.c **** 
2710:C:/Workspace/DAVE-4.4.2-64Bit/optiga-trust-m/optiga/cmd\optiga_cmd.c ****                 index_for_data += PUBLIC_KEY_HOST->length;
2711:C:/Workspace/DAVE-4.4.2-64Bit/optiga-trust-m/optiga/cmd\optiga_cmd.c **** #undef PUBLIC_KEY_HOST
2712:C:/Workspace/DAVE-4.4.2-64Bit/optiga-trust-m/optiga/cmd\optiga_cmd.c ****             }
2713:C:/Workspace/DAVE-4.4.2-64Bit/optiga-trust-m/optiga/cmd\optiga_cmd.c ****             else
2714:C:/Workspace/DAVE-4.4.2-64Bit/optiga-trust-m/optiga/cmd\optiga_cmd.c ****             {
2715:C:/Workspace/DAVE-4.4.2-64Bit/optiga-trust-m/optiga/cmd\optiga_cmd.c ****                 //TLV for public key from OID
2716:C:/Workspace/DAVE-4.4.2-64Bit/optiga-trust-m/optiga/cmd\optiga_cmd.c ****                 optiga_cmd_prepare_tag_header(CMD_ENCRYPT_ASYM_PUB_KEY_CERT_OID_TAG,
2717:C:/Workspace/DAVE-4.4.2-64Bit/optiga-trust-m/optiga/cmd\optiga_cmd.c ****                                               CMD_ENCRYPT_ASYM_PUB_KEY_CERT_OID_LENGTH,
2718:C:/Workspace/DAVE-4.4.2-64Bit/optiga-trust-m/optiga/cmd\optiga_cmd.c ****                                               me->p_optiga->optiga_comms_buffer,
2719:C:/Workspace/DAVE-4.4.2-64Bit/optiga-trust-m/optiga/cmd\optiga_cmd.c ****                                               &index_for_data);
2720:C:/Workspace/DAVE-4.4.2-64Bit/optiga-trust-m/optiga/cmd\optiga_cmd.c **** 
2721:C:/Workspace/DAVE-4.4.2-64Bit/optiga-trust-m/optiga/cmd\optiga_cmd.c ****                 //Add session OID
2722:C:/Workspace/DAVE-4.4.2-64Bit/optiga-trust-m/optiga/cmd\optiga_cmd.c ****                 optiga_common_set_uint16(me->p_optiga->optiga_comms_buffer + index_for_data,
2723:C:/Workspace/DAVE-4.4.2-64Bit/optiga-trust-m/optiga/cmd\optiga_cmd.c ****                                         *((uint16_t * )(p_optiga_encrypt_asym->key)));
2724:C:/Workspace/DAVE-4.4.2-64Bit/optiga-trust-m/optiga/cmd\optiga_cmd.c ****                 index_for_data += CMD_ENCRYPT_ASYM_PUB_KEY_CERT_OID_LENGTH;
2725:C:/Workspace/DAVE-4.4.2-64Bit/optiga-trust-m/optiga/cmd\optiga_cmd.c ****             }
2726:C:/Workspace/DAVE-4.4.2-64Bit/optiga-trust-m/optiga/cmd\optiga_cmd.c **** 
2727:C:/Workspace/DAVE-4.4.2-64Bit/optiga-trust-m/optiga/cmd\optiga_cmd.c **** 
2728:C:/Workspace/DAVE-4.4.2-64Bit/optiga-trust-m/optiga/cmd\optiga_cmd.c ****             //form apdu header
2729:C:/Workspace/DAVE-4.4.2-64Bit/optiga-trust-m/optiga/cmd\optiga_cmd.c ****             optiga_cmd_prepare_apdu_header(OPTIGA_CMD_ENCRYPT_ASYM,
2730:C:/Workspace/DAVE-4.4.2-64Bit/optiga-trust-m/optiga/cmd\optiga_cmd.c ****                                            me->cmd_param,
2731:C:/Workspace/DAVE-4.4.2-64Bit/optiga-trust-m/optiga/cmd\optiga_cmd.c ****                                            (uint16_t)(index_for_data - OPTIGA_CMD_APDU_INDATA_OFFSE
2732:C:/Workspace/DAVE-4.4.2-64Bit/optiga-trust-m/optiga/cmd\optiga_cmd.c ****                                            me->p_optiga->optiga_comms_buffer + OPTIGA_COMMS_DATA_OF
2733:C:/Workspace/DAVE-4.4.2-64Bit/optiga-trust-m/optiga/cmd\optiga_cmd.c **** 
2734:C:/Workspace/DAVE-4.4.2-64Bit/optiga-trust-m/optiga/cmd\optiga_cmd.c ****             me->p_optiga->comms_tx_size = (uint16_t)(index_for_data - OPTIGA_COMMS_DATA_OFFSET);
2735:C:/Workspace/DAVE-4.4.2-64Bit/optiga-trust-m/optiga/cmd\optiga_cmd.c ****             me->cmd_next_execution_state = OPTIGA_CMD_EXEC_PROCESS_RESPONSE;
2736:C:/Workspace/DAVE-4.4.2-64Bit/optiga-trust-m/optiga/cmd\optiga_cmd.c ****             return_status = OPTIGA_LIB_SUCCESS;
2737:C:/Workspace/DAVE-4.4.2-64Bit/optiga-trust-m/optiga/cmd\optiga_cmd.c ****         }
2738:C:/Workspace/DAVE-4.4.2-64Bit/optiga-trust-m/optiga/cmd\optiga_cmd.c ****         break;
2739:C:/Workspace/DAVE-4.4.2-64Bit/optiga-trust-m/optiga/cmd\optiga_cmd.c ****         case OPTIGA_CMD_EXEC_PROCESS_RESPONSE:
2740:C:/Workspace/DAVE-4.4.2-64Bit/optiga-trust-m/optiga/cmd\optiga_cmd.c ****         {
2741:C:/Workspace/DAVE-4.4.2-64Bit/optiga-trust-m/optiga/cmd\optiga_cmd.c ****             OPTIGA_CMD_LOG_MESSAGE("Processing response for asymmetric encryption command...");
2742:C:/Workspace/DAVE-4.4.2-64Bit/optiga-trust-m/optiga/cmd\optiga_cmd.c ****             // check if the random data retrieval app was successful
2743:C:/Workspace/DAVE-4.4.2-64Bit/optiga-trust-m/optiga/cmd\optiga_cmd.c ****             if (OPTIGA_CMD_APDU_SUCCESS != me->p_optiga->optiga_comms_buffer[OPTIGA_COMMS_DATA_OFFS
2744:C:/Workspace/DAVE-4.4.2-64Bit/optiga-trust-m/optiga/cmd\optiga_cmd.c ****             {
2745:C:/Workspace/DAVE-4.4.2-64Bit/optiga-trust-m/optiga/cmd\optiga_cmd.c ****                 OPTIGA_CMD_LOG_MESSAGE("Error in processing asymmetric encryption response...");
2746:C:/Workspace/DAVE-4.4.2-64Bit/optiga-trust-m/optiga/cmd\optiga_cmd.c ****                 *(p_optiga_encrypt_asym->processed_message_length) = 0;
2747:C:/Workspace/DAVE-4.4.2-64Bit/optiga-trust-m/optiga/cmd\optiga_cmd.c ****                 SET_DEV_ERROR_NOTIFICATION(OPTIGA_CMD_EXIT_HANDLER_CALL);
2748:C:/Workspace/DAVE-4.4.2-64Bit/optiga-trust-m/optiga/cmd\optiga_cmd.c ****                 break;
2749:C:/Workspace/DAVE-4.4.2-64Bit/optiga-trust-m/optiga/cmd\optiga_cmd.c ****             }
2750:C:/Workspace/DAVE-4.4.2-64Bit/optiga-trust-m/optiga/cmd\optiga_cmd.c ****             optiga_common_get_uint16(&me->p_optiga->optiga_comms_buffer[OPTIGA_CMD_APDU_INDATA_OFFS
2751:C:/Workspace/DAVE-4.4.2-64Bit/optiga-trust-m/optiga/cmd\optiga_cmd.c ****                                      &out_data_size);
2752:C:/Workspace/DAVE-4.4.2-64Bit/optiga-trust-m/optiga/cmd\optiga_cmd.c ****             if ((*(p_optiga_encrypt_asym->processed_message_length )) < out_data_size)
2753:C:/Workspace/DAVE-4.4.2-64Bit/optiga-trust-m/optiga/cmd\optiga_cmd.c ****             {
2754:C:/Workspace/DAVE-4.4.2-64Bit/optiga-trust-m/optiga/cmd\optiga_cmd.c ****                 OPTIGA_CMD_LOG_MESSAGE("Error in processing asymmetric encryption response...");
2755:C:/Workspace/DAVE-4.4.2-64Bit/optiga-trust-m/optiga/cmd\optiga_cmd.c ****                 *(p_optiga_encrypt_asym->processed_message_length) = 0;
2756:C:/Workspace/DAVE-4.4.2-64Bit/optiga-trust-m/optiga/cmd\optiga_cmd.c ****                 return_status = OPTIGA_CMD_ERROR_MEMORY_INSUFFICIENT;
2757:C:/Workspace/DAVE-4.4.2-64Bit/optiga-trust-m/optiga/cmd\optiga_cmd.c ****                 break;
2758:C:/Workspace/DAVE-4.4.2-64Bit/optiga-trust-m/optiga/cmd\optiga_cmd.c ****             }
2759:C:/Workspace/DAVE-4.4.2-64Bit/optiga-trust-m/optiga/cmd\optiga_cmd.c ****             //copy data from optiga comms buffer to user provided buffer
2760:C:/Workspace/DAVE-4.4.2-64Bit/optiga-trust-m/optiga/cmd\optiga_cmd.c ****             pal_os_memcpy(p_optiga_encrypt_asym->processed_message,
2761:C:/Workspace/DAVE-4.4.2-64Bit/optiga-trust-m/optiga/cmd\optiga_cmd.c ****                           &me->p_optiga->optiga_comms_buffer[OPTIGA_CMD_APDU_INDATA_OFFSET + OPTIGA
2762:C:/Workspace/DAVE-4.4.2-64Bit/optiga-trust-m/optiga/cmd\optiga_cmd.c ****                           OPTIGA_CMD_NO_OF_BYTES_IN_TAG], out_data_size);
2763:C:/Workspace/DAVE-4.4.2-64Bit/optiga-trust-m/optiga/cmd\optiga_cmd.c ****             *(p_optiga_encrypt_asym->processed_message_length) = out_data_size ;
2764:C:/Workspace/DAVE-4.4.2-64Bit/optiga-trust-m/optiga/cmd\optiga_cmd.c ****             OPTIGA_CMD_LOG_MESSAGE("Response of asymmetric encryption command is processed...");
2765:C:/Workspace/DAVE-4.4.2-64Bit/optiga-trust-m/optiga/cmd\optiga_cmd.c ****             return_status = OPTIGA_LIB_SUCCESS;
2766:C:/Workspace/DAVE-4.4.2-64Bit/optiga-trust-m/optiga/cmd\optiga_cmd.c ****         }
2767:C:/Workspace/DAVE-4.4.2-64Bit/optiga-trust-m/optiga/cmd\optiga_cmd.c ****         break;
2768:C:/Workspace/DAVE-4.4.2-64Bit/optiga-trust-m/optiga/cmd\optiga_cmd.c ****         default:
2769:C:/Workspace/DAVE-4.4.2-64Bit/optiga-trust-m/optiga/cmd\optiga_cmd.c ****             break;
2770:C:/Workspace/DAVE-4.4.2-64Bit/optiga-trust-m/optiga/cmd\optiga_cmd.c ****     }
2771:C:/Workspace/DAVE-4.4.2-64Bit/optiga-trust-m/optiga/cmd\optiga_cmd.c **** 
2772:C:/Workspace/DAVE-4.4.2-64Bit/optiga-trust-m/optiga/cmd\optiga_cmd.c ****     return (return_status);
2773:C:/Workspace/DAVE-4.4.2-64Bit/optiga-trust-m/optiga/cmd\optiga_cmd.c **** }
2774:C:/Workspace/DAVE-4.4.2-64Bit/optiga-trust-m/optiga/cmd\optiga_cmd.c **** 
2775:C:/Workspace/DAVE-4.4.2-64Bit/optiga-trust-m/optiga/cmd\optiga_cmd.c **** optiga_lib_status_t optiga_cmd_encrypt_asym(optiga_cmd_t * me, uint8_t cmd_param, optiga_encrypt_as
2776:C:/Workspace/DAVE-4.4.2-64Bit/optiga-trust-m/optiga/cmd\optiga_cmd.c **** {
2777:C:/Workspace/DAVE-4.4.2-64Bit/optiga-trust-m/optiga/cmd\optiga_cmd.c ****     optiga_lib_status_t return_status = OPTIGA_CMD_ERROR_INVALID_INPUT;
2778:C:/Workspace/DAVE-4.4.2-64Bit/optiga-trust-m/optiga/cmd\optiga_cmd.c ****     OPTIGA_CMD_LOG_MESSAGE(__FUNCTION__);
2779:C:/Workspace/DAVE-4.4.2-64Bit/optiga-trust-m/optiga/cmd\optiga_cmd.c ****     
2780:C:/Workspace/DAVE-4.4.2-64Bit/optiga-trust-m/optiga/cmd\optiga_cmd.c ****     // for encrypting session data, instance must have session.
2781:C:/Workspace/DAVE-4.4.2-64Bit/optiga-trust-m/optiga/cmd\optiga_cmd.c ****     if (((NULL == params->message) && (0 == params->message_length) && (0x0000 != me->session_oid))
2782:C:/Workspace/DAVE-4.4.2-64Bit/optiga-trust-m/optiga/cmd\optiga_cmd.c ****         (NULL != params->message))
2783:C:/Workspace/DAVE-4.4.2-64Bit/optiga-trust-m/optiga/cmd\optiga_cmd.c ****     {
2784:C:/Workspace/DAVE-4.4.2-64Bit/optiga-trust-m/optiga/cmd\optiga_cmd.c ****         optiga_cmd_execute(me, cmd_param, optiga_cmd_encrypt_asym_handler, OPTIGA_CMD_EXEC_REQUEST_
2785:C:/Workspace/DAVE-4.4.2-64Bit/optiga-trust-m/optiga/cmd\optiga_cmd.c ****         return_status = OPTIGA_LIB_SUCCESS;
2786:C:/Workspace/DAVE-4.4.2-64Bit/optiga-trust-m/optiga/cmd\optiga_cmd.c ****     }
2787:C:/Workspace/DAVE-4.4.2-64Bit/optiga-trust-m/optiga/cmd\optiga_cmd.c ****     return (return_status);
2788:C:/Workspace/DAVE-4.4.2-64Bit/optiga-trust-m/optiga/cmd\optiga_cmd.c **** }
2789:C:/Workspace/DAVE-4.4.2-64Bit/optiga-trust-m/optiga/cmd\optiga_cmd.c **** #endif // OPTIGA_CRYPT_RSA_ENCRYPT_ENABLED
2790:C:/Workspace/DAVE-4.4.2-64Bit/optiga-trust-m/optiga/cmd\optiga_cmd.c **** 
2791:C:/Workspace/DAVE-4.4.2-64Bit/optiga-trust-m/optiga/cmd\optiga_cmd.c **** #ifdef OPTIGA_CRYPT_RSA_DECRYPT_ENABLED
2792:C:/Workspace/DAVE-4.4.2-64Bit/optiga-trust-m/optiga/cmd\optiga_cmd.c **** 
2793:C:/Workspace/DAVE-4.4.2-64Bit/optiga-trust-m/optiga/cmd\optiga_cmd.c **** /*
2794:C:/Workspace/DAVE-4.4.2-64Bit/optiga-trust-m/optiga/cmd\optiga_cmd.c **** * EncryptAsym handler
2795:C:/Workspace/DAVE-4.4.2-64Bit/optiga-trust-m/optiga/cmd\optiga_cmd.c **** */
2796:C:/Workspace/DAVE-4.4.2-64Bit/optiga-trust-m/optiga/cmd\optiga_cmd.c **** _STATIC_H optiga_lib_status_t optiga_cmd_decrypt_asym_handler(optiga_cmd_t * me)
2797:C:/Workspace/DAVE-4.4.2-64Bit/optiga-trust-m/optiga/cmd\optiga_cmd.c **** {
2798:C:/Workspace/DAVE-4.4.2-64Bit/optiga-trust-m/optiga/cmd\optiga_cmd.c ****     uint16_t total_apdu_length;
2799:C:/Workspace/DAVE-4.4.2-64Bit/optiga-trust-m/optiga/cmd\optiga_cmd.c ****     optiga_decrypt_asym_params_t * p_optiga_decrypt_asym = (optiga_decrypt_asym_params_t *)me->p_in
2800:C:/Workspace/DAVE-4.4.2-64Bit/optiga-trust-m/optiga/cmd\optiga_cmd.c ****     optiga_lib_status_t return_status = OPTIGA_CMD_ERROR;
2801:C:/Workspace/DAVE-4.4.2-64Bit/optiga-trust-m/optiga/cmd\optiga_cmd.c ****     uint16_t index_for_data = OPTIGA_CMD_APDU_INDATA_OFFSET;
2802:C:/Workspace/DAVE-4.4.2-64Bit/optiga-trust-m/optiga/cmd\optiga_cmd.c ****     uint16_t out_data_size;
2803:C:/Workspace/DAVE-4.4.2-64Bit/optiga-trust-m/optiga/cmd\optiga_cmd.c **** 
2804:C:/Workspace/DAVE-4.4.2-64Bit/optiga-trust-m/optiga/cmd\optiga_cmd.c ****     switch ((uint8_t)me->cmd_next_execution_state)
2805:C:/Workspace/DAVE-4.4.2-64Bit/optiga-trust-m/optiga/cmd\optiga_cmd.c ****     {
2806:C:/Workspace/DAVE-4.4.2-64Bit/optiga-trust-m/optiga/cmd\optiga_cmd.c ****         case OPTIGA_CMD_EXEC_PREPARE_COMMAND:
2807:C:/Workspace/DAVE-4.4.2-64Bit/optiga-trust-m/optiga/cmd\optiga_cmd.c ****         {
2808:C:/Workspace/DAVE-4.4.2-64Bit/optiga-trust-m/optiga/cmd\optiga_cmd.c ****             OPTIGA_CMD_LOG_MESSAGE("Sending asymmetric decryption command..");
2809:C:/Workspace/DAVE-4.4.2-64Bit/optiga-trust-m/optiga/cmd\optiga_cmd.c ****             // APDU headed length + TLV of encrypt message + TLV of decrypt key OID + (optional)TLV
2810:C:/Workspace/DAVE-4.4.2-64Bit/optiga-trust-m/optiga/cmd\optiga_cmd.c ****             total_apdu_length = OPTIGA_CMD_APDU_HEADER_SIZE + OPTIGA_CMD_APDU_TL_LENGTH + p_optiga_
2811:C:/Workspace/DAVE-4.4.2-64Bit/optiga-trust-m/optiga/cmd\optiga_cmd.c ****                                 OPTIGA_CMD_APDU_TL_LENGTH + OPTIGA_CMD_UINT16_SIZE_IN_BYTES +
2812:C:/Workspace/DAVE-4.4.2-64Bit/optiga-trust-m/optiga/cmd\optiga_cmd.c ****                                 ((NULL != p_optiga_decrypt_asym->processed_message) &&
2813:C:/Workspace/DAVE-4.4.2-64Bit/optiga-trust-m/optiga/cmd\optiga_cmd.c ****                                 (NULL != p_optiga_decrypt_asym->processed_message_length)
2814:C:/Workspace/DAVE-4.4.2-64Bit/optiga-trust-m/optiga/cmd\optiga_cmd.c ****                                 ? 0 : OPTIGA_CMD_APDU_TL_LENGTH + OPTIGA_CMD_UINT16_SIZE_IN_BYTES);
2815:C:/Workspace/DAVE-4.4.2-64Bit/optiga-trust-m/optiga/cmd\optiga_cmd.c ****             if (OPTIGA_MAX_COMMS_BUFFER_SIZE < total_apdu_length)
2816:C:/Workspace/DAVE-4.4.2-64Bit/optiga-trust-m/optiga/cmd\optiga_cmd.c ****             {
2817:C:/Workspace/DAVE-4.4.2-64Bit/optiga-trust-m/optiga/cmd\optiga_cmd.c ****                 if (NULL != p_optiga_decrypt_asym->processed_message_length)
2818:C:/Workspace/DAVE-4.4.2-64Bit/optiga-trust-m/optiga/cmd\optiga_cmd.c ****                 {
2819:C:/Workspace/DAVE-4.4.2-64Bit/optiga-trust-m/optiga/cmd\optiga_cmd.c ****                     *(p_optiga_decrypt_asym->processed_message_length) = 0;
2820:C:/Workspace/DAVE-4.4.2-64Bit/optiga-trust-m/optiga/cmd\optiga_cmd.c ****                 }
2821:C:/Workspace/DAVE-4.4.2-64Bit/optiga-trust-m/optiga/cmd\optiga_cmd.c ****                 return_status = OPTIGA_CMD_ERROR_MEMORY_INSUFFICIENT;
2822:C:/Workspace/DAVE-4.4.2-64Bit/optiga-trust-m/optiga/cmd\optiga_cmd.c ****                 break;
2823:C:/Workspace/DAVE-4.4.2-64Bit/optiga-trust-m/optiga/cmd\optiga_cmd.c ****             }
2824:C:/Workspace/DAVE-4.4.2-64Bit/optiga-trust-m/optiga/cmd\optiga_cmd.c ****             // Tag and length for encrypt message
2825:C:/Workspace/DAVE-4.4.2-64Bit/optiga-trust-m/optiga/cmd\optiga_cmd.c ****             optiga_cmd_prepare_tag_header(CMD_DECRYPT_ASYM_ENCRYPT_MESSAGE_TAG,
2826:C:/Workspace/DAVE-4.4.2-64Bit/optiga-trust-m/optiga/cmd\optiga_cmd.c ****                                           p_optiga_decrypt_asym->message_length,
2827:C:/Workspace/DAVE-4.4.2-64Bit/optiga-trust-m/optiga/cmd\optiga_cmd.c ****                                           me->p_optiga->optiga_comms_buffer,
2828:C:/Workspace/DAVE-4.4.2-64Bit/optiga-trust-m/optiga/cmd\optiga_cmd.c ****                                           &index_for_data);
2829:C:/Workspace/DAVE-4.4.2-64Bit/optiga-trust-m/optiga/cmd\optiga_cmd.c ****             //Encrypt data
2830:C:/Workspace/DAVE-4.4.2-64Bit/optiga-trust-m/optiga/cmd\optiga_cmd.c ****             pal_os_memcpy(me->p_optiga->optiga_comms_buffer + index_for_data,
2831:C:/Workspace/DAVE-4.4.2-64Bit/optiga-trust-m/optiga/cmd\optiga_cmd.c ****                           p_optiga_decrypt_asym->message,
2832:C:/Workspace/DAVE-4.4.2-64Bit/optiga-trust-m/optiga/cmd\optiga_cmd.c ****                           p_optiga_decrypt_asym->message_length);
2833:C:/Workspace/DAVE-4.4.2-64Bit/optiga-trust-m/optiga/cmd\optiga_cmd.c **** 
2834:C:/Workspace/DAVE-4.4.2-64Bit/optiga-trust-m/optiga/cmd\optiga_cmd.c ****             index_for_data += p_optiga_decrypt_asym->message_length;
2835:C:/Workspace/DAVE-4.4.2-64Bit/optiga-trust-m/optiga/cmd\optiga_cmd.c **** 
2836:C:/Workspace/DAVE-4.4.2-64Bit/optiga-trust-m/optiga/cmd\optiga_cmd.c ****             // Tag and length for OID of decrypt key
2837:C:/Workspace/DAVE-4.4.2-64Bit/optiga-trust-m/optiga/cmd\optiga_cmd.c ****             optiga_cmd_prepare_tag_header(CMD_DECRYPT_ASYM_DECRYPT_KEY_TAG,
2838:C:/Workspace/DAVE-4.4.2-64Bit/optiga-trust-m/optiga/cmd\optiga_cmd.c ****                                           CMD_DECRYPT_ASYM_DECRYPT_KEY_LENGTH,
2839:C:/Workspace/DAVE-4.4.2-64Bit/optiga-trust-m/optiga/cmd\optiga_cmd.c ****                                           me->p_optiga->optiga_comms_buffer,
2840:C:/Workspace/DAVE-4.4.2-64Bit/optiga-trust-m/optiga/cmd\optiga_cmd.c ****                                           &index_for_data);
2841:C:/Workspace/DAVE-4.4.2-64Bit/optiga-trust-m/optiga/cmd\optiga_cmd.c ****             //OID of decrypt key
2842:C:/Workspace/DAVE-4.4.2-64Bit/optiga-trust-m/optiga/cmd\optiga_cmd.c ****             optiga_common_set_uint16(&me->p_optiga->optiga_comms_buffer[index_for_data],
2843:C:/Workspace/DAVE-4.4.2-64Bit/optiga-trust-m/optiga/cmd\optiga_cmd.c ****                                      (uint16_t)*((optiga_key_id_t*)p_optiga_decrypt_asym->key));
2844:C:/Workspace/DAVE-4.4.2-64Bit/optiga-trust-m/optiga/cmd\optiga_cmd.c ****             index_for_data += OPTIGA_CMD_UINT16_SIZE_IN_BYTES;
2845:C:/Workspace/DAVE-4.4.2-64Bit/optiga-trust-m/optiga/cmd\optiga_cmd.c **** 
2846:C:/Workspace/DAVE-4.4.2-64Bit/optiga-trust-m/optiga/cmd\optiga_cmd.c ****             if ((NULL == p_optiga_decrypt_asym->processed_message) &&
2847:C:/Workspace/DAVE-4.4.2-64Bit/optiga-trust-m/optiga/cmd\optiga_cmd.c ****                 (NULL == p_optiga_decrypt_asym->processed_message_length))
2848:C:/Workspace/DAVE-4.4.2-64Bit/optiga-trust-m/optiga/cmd\optiga_cmd.c ****             {
2849:C:/Workspace/DAVE-4.4.2-64Bit/optiga-trust-m/optiga/cmd\optiga_cmd.c ****                 // Tag and length for session OID
2850:C:/Workspace/DAVE-4.4.2-64Bit/optiga-trust-m/optiga/cmd\optiga_cmd.c ****                 optiga_cmd_prepare_tag_header(CMD_DECRYPT_ASYM_SESSION_OID_TAG,
2851:C:/Workspace/DAVE-4.4.2-64Bit/optiga-trust-m/optiga/cmd\optiga_cmd.c ****                                               CMD_DECRYPT_ASYM_SESSION_OID_LENGTH,
2852:C:/Workspace/DAVE-4.4.2-64Bit/optiga-trust-m/optiga/cmd\optiga_cmd.c ****                                               me->p_optiga->optiga_comms_buffer,
2853:C:/Workspace/DAVE-4.4.2-64Bit/optiga-trust-m/optiga/cmd\optiga_cmd.c ****                                               &index_for_data);
2854:C:/Workspace/DAVE-4.4.2-64Bit/optiga-trust-m/optiga/cmd\optiga_cmd.c ****                 //OID of decrypt key
2855:C:/Workspace/DAVE-4.4.2-64Bit/optiga-trust-m/optiga/cmd\optiga_cmd.c ****                 optiga_common_set_uint16(&me->p_optiga->optiga_comms_buffer[index_for_data],
2856:C:/Workspace/DAVE-4.4.2-64Bit/optiga-trust-m/optiga/cmd\optiga_cmd.c ****                                          me->session_oid);
2857:C:/Workspace/DAVE-4.4.2-64Bit/optiga-trust-m/optiga/cmd\optiga_cmd.c ****                 index_for_data += OPTIGA_CMD_UINT16_SIZE_IN_BYTES;
2858:C:/Workspace/DAVE-4.4.2-64Bit/optiga-trust-m/optiga/cmd\optiga_cmd.c ****             }
2859:C:/Workspace/DAVE-4.4.2-64Bit/optiga-trust-m/optiga/cmd\optiga_cmd.c **** 
2860:C:/Workspace/DAVE-4.4.2-64Bit/optiga-trust-m/optiga/cmd\optiga_cmd.c ****             // prepare apdu
2861:C:/Workspace/DAVE-4.4.2-64Bit/optiga-trust-m/optiga/cmd\optiga_cmd.c ****             optiga_cmd_prepare_apdu_header(OPTIGA_CMD_DECRYPT_ASYM,
2862:C:/Workspace/DAVE-4.4.2-64Bit/optiga-trust-m/optiga/cmd\optiga_cmd.c ****                                            me->cmd_param,
2863:C:/Workspace/DAVE-4.4.2-64Bit/optiga-trust-m/optiga/cmd\optiga_cmd.c ****                                            (index_for_data - OPTIGA_CMD_APDU_INDATA_OFFSET),
2864:C:/Workspace/DAVE-4.4.2-64Bit/optiga-trust-m/optiga/cmd\optiga_cmd.c ****                                            me->p_optiga->optiga_comms_buffer + OPTIGA_COMMS_DATA_OF
2865:C:/Workspace/DAVE-4.4.2-64Bit/optiga-trust-m/optiga/cmd\optiga_cmd.c **** 
2866:C:/Workspace/DAVE-4.4.2-64Bit/optiga-trust-m/optiga/cmd\optiga_cmd.c ****             me->p_optiga->comms_tx_size = (index_for_data - OPTIGA_COMMS_DATA_OFFSET);
2867:C:/Workspace/DAVE-4.4.2-64Bit/optiga-trust-m/optiga/cmd\optiga_cmd.c ****             return_status = OPTIGA_LIB_SUCCESS;
2868:C:/Workspace/DAVE-4.4.2-64Bit/optiga-trust-m/optiga/cmd\optiga_cmd.c ****         }
2869:C:/Workspace/DAVE-4.4.2-64Bit/optiga-trust-m/optiga/cmd\optiga_cmd.c ****         break;
2870:C:/Workspace/DAVE-4.4.2-64Bit/optiga-trust-m/optiga/cmd\optiga_cmd.c ****         case OPTIGA_CMD_EXEC_PROCESS_RESPONSE:
2871:C:/Workspace/DAVE-4.4.2-64Bit/optiga-trust-m/optiga/cmd\optiga_cmd.c ****         {
2872:C:/Workspace/DAVE-4.4.2-64Bit/optiga-trust-m/optiga/cmd\optiga_cmd.c ****             OPTIGA_CMD_LOG_MESSAGE("Processing response for asymmetric decryption command...");
2873:C:/Workspace/DAVE-4.4.2-64Bit/optiga-trust-m/optiga/cmd\optiga_cmd.c ****             // check if the write was successful
2874:C:/Workspace/DAVE-4.4.2-64Bit/optiga-trust-m/optiga/cmd\optiga_cmd.c ****             if (OPTIGA_CMD_APDU_FAILURE == me->p_optiga->optiga_comms_buffer[OPTIGA_COMMS_DATA_OFFS
2875:C:/Workspace/DAVE-4.4.2-64Bit/optiga-trust-m/optiga/cmd\optiga_cmd.c ****             {
2876:C:/Workspace/DAVE-4.4.2-64Bit/optiga-trust-m/optiga/cmd\optiga_cmd.c ****                 if (NULL != p_optiga_decrypt_asym->processed_message_length)
2877:C:/Workspace/DAVE-4.4.2-64Bit/optiga-trust-m/optiga/cmd\optiga_cmd.c ****                 {
2878:C:/Workspace/DAVE-4.4.2-64Bit/optiga-trust-m/optiga/cmd\optiga_cmd.c ****                     *p_optiga_decrypt_asym->processed_message_length = 0;
2879:C:/Workspace/DAVE-4.4.2-64Bit/optiga-trust-m/optiga/cmd\optiga_cmd.c ****                 }
2880:C:/Workspace/DAVE-4.4.2-64Bit/optiga-trust-m/optiga/cmd\optiga_cmd.c ****                 OPTIGA_CMD_LOG_MESSAGE("Error in processing asymmetric decryption response...");
2881:C:/Workspace/DAVE-4.4.2-64Bit/optiga-trust-m/optiga/cmd\optiga_cmd.c ****                 SET_DEV_ERROR_NOTIFICATION(OPTIGA_CMD_EXIT_HANDLER_CALL);
2882:C:/Workspace/DAVE-4.4.2-64Bit/optiga-trust-m/optiga/cmd\optiga_cmd.c ****                 break;
2883:C:/Workspace/DAVE-4.4.2-64Bit/optiga-trust-m/optiga/cmd\optiga_cmd.c ****             }
2884:C:/Workspace/DAVE-4.4.2-64Bit/optiga-trust-m/optiga/cmd\optiga_cmd.c ****             if ((NULL != p_optiga_decrypt_asym->processed_message) &&
2885:C:/Workspace/DAVE-4.4.2-64Bit/optiga-trust-m/optiga/cmd\optiga_cmd.c ****                 (NULL != p_optiga_decrypt_asym->processed_message_length))
2886:C:/Workspace/DAVE-4.4.2-64Bit/optiga-trust-m/optiga/cmd\optiga_cmd.c ****             {
2887:C:/Workspace/DAVE-4.4.2-64Bit/optiga-trust-m/optiga/cmd\optiga_cmd.c ****                 optiga_common_get_uint16(&me->p_optiga->optiga_comms_buffer[OPTIGA_CMD_APDU_INDATA_
2888:C:/Workspace/DAVE-4.4.2-64Bit/optiga-trust-m/optiga/cmd\optiga_cmd.c ****                                          OPTIGA_CMD_NO_OF_BYTES_IN_TAG], &out_data_size);
2889:C:/Workspace/DAVE-4.4.2-64Bit/optiga-trust-m/optiga/cmd\optiga_cmd.c ****                 // if the received decrypted length is greater than the user provided decrypt buffe
2890:C:/Workspace/DAVE-4.4.2-64Bit/optiga-trust-m/optiga/cmd\optiga_cmd.c ****                 if ((*(p_optiga_decrypt_asym->processed_message_length )) < out_data_size)
2891:C:/Workspace/DAVE-4.4.2-64Bit/optiga-trust-m/optiga/cmd\optiga_cmd.c ****                 {
2892:C:/Workspace/DAVE-4.4.2-64Bit/optiga-trust-m/optiga/cmd\optiga_cmd.c ****                     OPTIGA_CMD_LOG_MESSAGE("Error in processing asymmetric decryption response...")
2893:C:/Workspace/DAVE-4.4.2-64Bit/optiga-trust-m/optiga/cmd\optiga_cmd.c ****                     *(p_optiga_decrypt_asym->processed_message_length) = 0;
2894:C:/Workspace/DAVE-4.4.2-64Bit/optiga-trust-m/optiga/cmd\optiga_cmd.c ****                     return_status = OPTIGA_CMD_ERROR_MEMORY_INSUFFICIENT;
2895:C:/Workspace/DAVE-4.4.2-64Bit/optiga-trust-m/optiga/cmd\optiga_cmd.c ****                     break;
2896:C:/Workspace/DAVE-4.4.2-64Bit/optiga-trust-m/optiga/cmd\optiga_cmd.c ****                 }
2897:C:/Workspace/DAVE-4.4.2-64Bit/optiga-trust-m/optiga/cmd\optiga_cmd.c **** 
2898:C:/Workspace/DAVE-4.4.2-64Bit/optiga-trust-m/optiga/cmd\optiga_cmd.c ****                 pal_os_memcpy(p_optiga_decrypt_asym->processed_message,
2899:C:/Workspace/DAVE-4.4.2-64Bit/optiga-trust-m/optiga/cmd\optiga_cmd.c ****                               &me->p_optiga->optiga_comms_buffer[OPTIGA_CMD_APDU_INDATA_OFFSET + OP
2900:C:/Workspace/DAVE-4.4.2-64Bit/optiga-trust-m/optiga/cmd\optiga_cmd.c ****                               out_data_size);
2901:C:/Workspace/DAVE-4.4.2-64Bit/optiga-trust-m/optiga/cmd\optiga_cmd.c ****                 *p_optiga_decrypt_asym->processed_message_length = out_data_size;
2902:C:/Workspace/DAVE-4.4.2-64Bit/optiga-trust-m/optiga/cmd\optiga_cmd.c ****             }
2903:C:/Workspace/DAVE-4.4.2-64Bit/optiga-trust-m/optiga/cmd\optiga_cmd.c ****             OPTIGA_CMD_LOG_MESSAGE("Response of asymmetric decryption command is processed...");
2904:C:/Workspace/DAVE-4.4.2-64Bit/optiga-trust-m/optiga/cmd\optiga_cmd.c ****             return_status = OPTIGA_LIB_SUCCESS;
2905:C:/Workspace/DAVE-4.4.2-64Bit/optiga-trust-m/optiga/cmd\optiga_cmd.c ****         }
2906:C:/Workspace/DAVE-4.4.2-64Bit/optiga-trust-m/optiga/cmd\optiga_cmd.c ****         break;
2907:C:/Workspace/DAVE-4.4.2-64Bit/optiga-trust-m/optiga/cmd\optiga_cmd.c ****         default:
2908:C:/Workspace/DAVE-4.4.2-64Bit/optiga-trust-m/optiga/cmd\optiga_cmd.c ****             break;
2909:C:/Workspace/DAVE-4.4.2-64Bit/optiga-trust-m/optiga/cmd\optiga_cmd.c ****     }
2910:C:/Workspace/DAVE-4.4.2-64Bit/optiga-trust-m/optiga/cmd\optiga_cmd.c **** 
2911:C:/Workspace/DAVE-4.4.2-64Bit/optiga-trust-m/optiga/cmd\optiga_cmd.c ****     return (return_status);
2912:C:/Workspace/DAVE-4.4.2-64Bit/optiga-trust-m/optiga/cmd\optiga_cmd.c **** }
2913:C:/Workspace/DAVE-4.4.2-64Bit/optiga-trust-m/optiga/cmd\optiga_cmd.c **** 
2914:C:/Workspace/DAVE-4.4.2-64Bit/optiga-trust-m/optiga/cmd\optiga_cmd.c **** optiga_lib_status_t optiga_cmd_decrypt_asym(optiga_cmd_t * me, uint8_t cmd_param, optiga_decrypt_as
2915:C:/Workspace/DAVE-4.4.2-64Bit/optiga-trust-m/optiga/cmd\optiga_cmd.c **** {
2916:C:/Workspace/DAVE-4.4.2-64Bit/optiga-trust-m/optiga/cmd\optiga_cmd.c ****     optiga_lib_status_t return_status = OPTIGA_CMD_ERROR;
2917:C:/Workspace/DAVE-4.4.2-64Bit/optiga-trust-m/optiga/cmd\optiga_cmd.c ****     optiga_decrypt_asym_params_t * p_optiga_decrypt_asym = (optiga_decrypt_asym_params_t*)params;
2918:C:/Workspace/DAVE-4.4.2-64Bit/optiga-trust-m/optiga/cmd\optiga_cmd.c ****     optiga_cmd_state_t cmd_handler_state = OPTIGA_CMD_EXEC_REQUEST_LOCK;
2919:C:/Workspace/DAVE-4.4.2-64Bit/optiga-trust-m/optiga/cmd\optiga_cmd.c ****     OPTIGA_CMD_LOG_MESSAGE(__FUNCTION__);
2920:C:/Workspace/DAVE-4.4.2-64Bit/optiga-trust-m/optiga/cmd\optiga_cmd.c ****     do
2921:C:/Workspace/DAVE-4.4.2-64Bit/optiga-trust-m/optiga/cmd\optiga_cmd.c ****     {
2922:C:/Workspace/DAVE-4.4.2-64Bit/optiga-trust-m/optiga/cmd\optiga_cmd.c ****         if ((NULL == p_optiga_decrypt_asym->processed_message) &&
2923:C:/Workspace/DAVE-4.4.2-64Bit/optiga-trust-m/optiga/cmd\optiga_cmd.c ****             (NULL == p_optiga_decrypt_asym->processed_message_length))
2924:C:/Workspace/DAVE-4.4.2-64Bit/optiga-trust-m/optiga/cmd\optiga_cmd.c ****         {
2925:C:/Workspace/DAVE-4.4.2-64Bit/optiga-trust-m/optiga/cmd\optiga_cmd.c ****             cmd_handler_state = OPTIGA_CMD_EXEC_REQUEST_SESSION;
2926:C:/Workspace/DAVE-4.4.2-64Bit/optiga-trust-m/optiga/cmd\optiga_cmd.c ****         }
2927:C:/Workspace/DAVE-4.4.2-64Bit/optiga-trust-m/optiga/cmd\optiga_cmd.c ****         optiga_cmd_execute(me,
2928:C:/Workspace/DAVE-4.4.2-64Bit/optiga-trust-m/optiga/cmd\optiga_cmd.c ****                            cmd_param,
2929:C:/Workspace/DAVE-4.4.2-64Bit/optiga-trust-m/optiga/cmd\optiga_cmd.c ****                            optiga_cmd_decrypt_asym_handler,
2930:C:/Workspace/DAVE-4.4.2-64Bit/optiga-trust-m/optiga/cmd\optiga_cmd.c ****                            cmd_handler_state,
2931:C:/Workspace/DAVE-4.4.2-64Bit/optiga-trust-m/optiga/cmd\optiga_cmd.c ****                            params);
2932:C:/Workspace/DAVE-4.4.2-64Bit/optiga-trust-m/optiga/cmd\optiga_cmd.c **** 
2933:C:/Workspace/DAVE-4.4.2-64Bit/optiga-trust-m/optiga/cmd\optiga_cmd.c ****         return_status = OPTIGA_LIB_SUCCESS;
2934:C:/Workspace/DAVE-4.4.2-64Bit/optiga-trust-m/optiga/cmd\optiga_cmd.c ****     } while (FALSE);
2935:C:/Workspace/DAVE-4.4.2-64Bit/optiga-trust-m/optiga/cmd\optiga_cmd.c ****     return (return_status);
2936:C:/Workspace/DAVE-4.4.2-64Bit/optiga-trust-m/optiga/cmd\optiga_cmd.c **** }
2937:C:/Workspace/DAVE-4.4.2-64Bit/optiga-trust-m/optiga/cmd\optiga_cmd.c **** #endif // OPTIGA_CRYPT_RSA_DECRYPT_ENABLED
2938:C:/Workspace/DAVE-4.4.2-64Bit/optiga-trust-m/optiga/cmd\optiga_cmd.c **** 
2939:C:/Workspace/DAVE-4.4.2-64Bit/optiga-trust-m/optiga/cmd\optiga_cmd.c **** #ifdef OPTIGA_CRYPT_HASH_ENABLED
2940:C:/Workspace/DAVE-4.4.2-64Bit/optiga-trust-m/optiga/cmd\optiga_cmd.c **** /*
2941:C:/Workspace/DAVE-4.4.2-64Bit/optiga-trust-m/optiga/cmd\optiga_cmd.c **** * CalCHash handler
2942:C:/Workspace/DAVE-4.4.2-64Bit/optiga-trust-m/optiga/cmd\optiga_cmd.c **** */
2943:C:/Workspace/DAVE-4.4.2-64Bit/optiga-trust-m/optiga/cmd\optiga_cmd.c **** _STATIC_H optiga_lib_status_t optiga_cmd_calc_hash_handler(optiga_cmd_t * me)
2944:C:/Workspace/DAVE-4.4.2-64Bit/optiga-trust-m/optiga/cmd\optiga_cmd.c **** {
2945:C:/Workspace/DAVE-4.4.2-64Bit/optiga-trust-m/optiga/cmd\optiga_cmd.c ****     optiga_calc_hash_params_t * p_optiga_calc_hash = (optiga_calc_hash_params_t *)me->p_input;
2946:C:/Workspace/DAVE-4.4.2-64Bit/optiga-trust-m/optiga/cmd\optiga_cmd.c ****     uint16_t index_for_data = OPTIGA_CMD_APDU_INDATA_OFFSET;
2947:C:/Workspace/DAVE-4.4.2-64Bit/optiga-trust-m/optiga/cmd\optiga_cmd.c ****     uint16_t out_data_size;
2948:C:/Workspace/DAVE-4.4.2-64Bit/optiga-trust-m/optiga/cmd\optiga_cmd.c ****     uint16_t length_to_hash;
2949:C:/Workspace/DAVE-4.4.2-64Bit/optiga-trust-m/optiga/cmd\optiga_cmd.c ****     optiga_lib_status_t return_status = OPTIGA_CMD_ERROR;
2950:C:/Workspace/DAVE-4.4.2-64Bit/optiga-trust-m/optiga/cmd\optiga_cmd.c **** 
2951:C:/Workspace/DAVE-4.4.2-64Bit/optiga-trust-m/optiga/cmd\optiga_cmd.c ****     switch ((uint8_t)me->cmd_next_execution_state)
2952:C:/Workspace/DAVE-4.4.2-64Bit/optiga-trust-m/optiga/cmd\optiga_cmd.c ****     {
2953:C:/Workspace/DAVE-4.4.2-64Bit/optiga-trust-m/optiga/cmd\optiga_cmd.c ****         case OPTIGA_CMD_EXEC_PREPARE_COMMAND:
2954:C:/Workspace/DAVE-4.4.2-64Bit/optiga-trust-m/optiga/cmd\optiga_cmd.c ****         {
2955:C:/Workspace/DAVE-4.4.2-64Bit/optiga-trust-m/optiga/cmd\optiga_cmd.c ****             OPTIGA_CMD_LOG_MESSAGE("Sending calculate hash command..");
2956:C:/Workspace/DAVE-4.4.2-64Bit/optiga-trust-m/optiga/cmd\optiga_cmd.c ****             //Hash Input
2957:C:/Workspace/DAVE-4.4.2-64Bit/optiga-trust-m/optiga/cmd\optiga_cmd.c ****             // tag setting
2958:C:/Workspace/DAVE-4.4.2-64Bit/optiga-trust-m/optiga/cmd\optiga_cmd.c ****             me->chaining_ongoing = FALSE;
2959:C:/Workspace/DAVE-4.4.2-64Bit/optiga-trust-m/optiga/cmd\optiga_cmd.c ****             p_optiga_calc_hash->chaining_status = FALSE;
2960:C:/Workspace/DAVE-4.4.2-64Bit/optiga-trust-m/optiga/cmd\optiga_cmd.c **** 
2961:C:/Workspace/DAVE-4.4.2-64Bit/optiga-trust-m/optiga/cmd\optiga_cmd.c **** 
2962:C:/Workspace/DAVE-4.4.2-64Bit/optiga-trust-m/optiga/cmd\optiga_cmd.c ****             // add data if available
2963:C:/Workspace/DAVE-4.4.2-64Bit/optiga-trust-m/optiga/cmd\optiga_cmd.c ****             if (NULL != p_optiga_calc_hash->p_hash_data)
2964:C:/Workspace/DAVE-4.4.2-64Bit/optiga-trust-m/optiga/cmd\optiga_cmd.c ****             {
2965:C:/Workspace/DAVE-4.4.2-64Bit/optiga-trust-m/optiga/cmd\optiga_cmd.c ****                 //continue
2966:C:/Workspace/DAVE-4.4.2-64Bit/optiga-trust-m/optiga/cmd\optiga_cmd.c ****                  *(me->p_optiga->optiga_comms_buffer + index_for_data++) = p_optiga_calc_hash->hash
2967:C:/Workspace/DAVE-4.4.2-64Bit/optiga-trust-m/optiga/cmd\optiga_cmd.c ****                  //lint --e{734} suppress "length_to_hash parameter is of uint16 type, while the ar
2968:C:/Workspace/DAVE-4.4.2-64Bit/optiga-trust-m/optiga/cmd\optiga_cmd.c ****                  //calculating are of uint32 type. The final value calculated never crosses uint16 
2969:C:/Workspace/DAVE-4.4.2-64Bit/optiga-trust-m/optiga/cmd\optiga_cmd.c ****                  // future use case, explicit type-casting is not done "
2970:C:/Workspace/DAVE-4.4.2-64Bit/optiga-trust-m/optiga/cmd\optiga_cmd.c ****                 length_to_hash = MIN(((OPTIGA_MAX_COMMS_BUFFER_SIZE - (index_for_data + OPTIGA_CMD_
2971:C:/Workspace/DAVE-4.4.2-64Bit/optiga-trust-m/optiga/cmd\optiga_cmd.c ****                                        p_optiga_calc_hash->apparent_context_size),(p_optiga_calc_ha
2972:C:/Workspace/DAVE-4.4.2-64Bit/optiga-trust-m/optiga/cmd\optiga_cmd.c **** 
2973:C:/Workspace/DAVE-4.4.2-64Bit/optiga-trust-m/optiga/cmd\optiga_cmd.c ****                 // add length
2974:C:/Workspace/DAVE-4.4.2-64Bit/optiga-trust-m/optiga/cmd\optiga_cmd.c ****                 optiga_common_set_uint16((me->p_optiga->optiga_comms_buffer + index_for_data), leng
2975:C:/Workspace/DAVE-4.4.2-64Bit/optiga-trust-m/optiga/cmd\optiga_cmd.c ****                 index_for_data += OPTIGA_CMD_UINT16_SIZE_IN_BYTES;
2976:C:/Workspace/DAVE-4.4.2-64Bit/optiga-trust-m/optiga/cmd\optiga_cmd.c **** 
2977:C:/Workspace/DAVE-4.4.2-64Bit/optiga-trust-m/optiga/cmd\optiga_cmd.c ****                 pal_os_memcpy(me->p_optiga->optiga_comms_buffer + index_for_data,
2978:C:/Workspace/DAVE-4.4.2-64Bit/optiga-trust-m/optiga/cmd\optiga_cmd.c ****                               p_optiga_calc_hash->p_hash_data->buffer + p_optiga_calc_hash->data_se
2979:C:/Workspace/DAVE-4.4.2-64Bit/optiga-trust-m/optiga/cmd\optiga_cmd.c ****                               length_to_hash);
2980:C:/Workspace/DAVE-4.4.2-64Bit/optiga-trust-m/optiga/cmd\optiga_cmd.c ****                 index_for_data += length_to_hash;
2981:C:/Workspace/DAVE-4.4.2-64Bit/optiga-trust-m/optiga/cmd\optiga_cmd.c **** 
2982:C:/Workspace/DAVE-4.4.2-64Bit/optiga-trust-m/optiga/cmd\optiga_cmd.c ****                 p_optiga_calc_hash->data_sent += length_to_hash;
2983:C:/Workspace/DAVE-4.4.2-64Bit/optiga-trust-m/optiga/cmd\optiga_cmd.c ****                 if (p_optiga_calc_hash->data_sent != p_optiga_calc_hash->p_hash_data->length)
2984:C:/Workspace/DAVE-4.4.2-64Bit/optiga-trust-m/optiga/cmd\optiga_cmd.c ****                 {
2985:C:/Workspace/DAVE-4.4.2-64Bit/optiga-trust-m/optiga/cmd\optiga_cmd.c ****                     me->chaining_ongoing = TRUE;
2986:C:/Workspace/DAVE-4.4.2-64Bit/optiga-trust-m/optiga/cmd\optiga_cmd.c ****                     p_optiga_calc_hash->chaining_status = TRUE;
2987:C:/Workspace/DAVE-4.4.2-64Bit/optiga-trust-m/optiga/cmd\optiga_cmd.c ****                 }
2988:C:/Workspace/DAVE-4.4.2-64Bit/optiga-trust-m/optiga/cmd\optiga_cmd.c ****             }
2989:C:/Workspace/DAVE-4.4.2-64Bit/optiga-trust-m/optiga/cmd\optiga_cmd.c ****             else if (NULL != p_optiga_calc_hash->p_hash_oid)
2990:C:/Workspace/DAVE-4.4.2-64Bit/optiga-trust-m/optiga/cmd\optiga_cmd.c ****             {
2991:C:/Workspace/DAVE-4.4.2-64Bit/optiga-trust-m/optiga/cmd\optiga_cmd.c ****                 //OID data
2992:C:/Workspace/DAVE-4.4.2-64Bit/optiga-trust-m/optiga/cmd\optiga_cmd.c ****                 optiga_cmd_prepare_tag_header(p_optiga_calc_hash->hash_sequence,
2993:C:/Workspace/DAVE-4.4.2-64Bit/optiga-trust-m/optiga/cmd\optiga_cmd.c ****                                               OPTIGA_CMD_OID_DATA_LENGTH,
2994:C:/Workspace/DAVE-4.4.2-64Bit/optiga-trust-m/optiga/cmd\optiga_cmd.c ****                                               me->p_optiga->optiga_comms_buffer,
2995:C:/Workspace/DAVE-4.4.2-64Bit/optiga-trust-m/optiga/cmd\optiga_cmd.c ****                                               (uint16_t*)&index_for_data);
2996:C:/Workspace/DAVE-4.4.2-64Bit/optiga-trust-m/optiga/cmd\optiga_cmd.c **** 
2997:C:/Workspace/DAVE-4.4.2-64Bit/optiga-trust-m/optiga/cmd\optiga_cmd.c ****                 optiga_common_set_uint16((me->p_optiga->optiga_comms_buffer + index_for_data),
2998:C:/Workspace/DAVE-4.4.2-64Bit/optiga-trust-m/optiga/cmd\optiga_cmd.c ****                                           p_optiga_calc_hash->p_hash_oid->oid);
2999:C:/Workspace/DAVE-4.4.2-64Bit/optiga-trust-m/optiga/cmd\optiga_cmd.c ****                 index_for_data += OPTIGA_CMD_UINT16_SIZE_IN_BYTES;
3000:C:/Workspace/DAVE-4.4.2-64Bit/optiga-trust-m/optiga/cmd\optiga_cmd.c ****                 optiga_common_set_uint16((me->p_optiga->optiga_comms_buffer + index_for_data),
3001:C:/Workspace/DAVE-4.4.2-64Bit/optiga-trust-m/optiga/cmd\optiga_cmd.c ****                                           p_optiga_calc_hash->p_hash_oid->offset);
3002:C:/Workspace/DAVE-4.4.2-64Bit/optiga-trust-m/optiga/cmd\optiga_cmd.c ****                 index_for_data += OPTIGA_CMD_UINT16_SIZE_IN_BYTES;
3003:C:/Workspace/DAVE-4.4.2-64Bit/optiga-trust-m/optiga/cmd\optiga_cmd.c ****                 optiga_common_set_uint16((me->p_optiga->optiga_comms_buffer + index_for_data),
3004:C:/Workspace/DAVE-4.4.2-64Bit/optiga-trust-m/optiga/cmd\optiga_cmd.c ****                                           p_optiga_calc_hash->p_hash_oid->length);
3005:C:/Workspace/DAVE-4.4.2-64Bit/optiga-trust-m/optiga/cmd\optiga_cmd.c ****                 index_for_data += OPTIGA_CMD_UINT16_SIZE_IN_BYTES;
3006:C:/Workspace/DAVE-4.4.2-64Bit/optiga-trust-m/optiga/cmd\optiga_cmd.c ****             }
3007:C:/Workspace/DAVE-4.4.2-64Bit/optiga-trust-m/optiga/cmd\optiga_cmd.c ****             else
3008:C:/Workspace/DAVE-4.4.2-64Bit/optiga-trust-m/optiga/cmd\optiga_cmd.c ****             {
3009:C:/Workspace/DAVE-4.4.2-64Bit/optiga-trust-m/optiga/cmd\optiga_cmd.c ****                 optiga_cmd_prepare_tag_header (p_optiga_calc_hash->hash_sequence,
3010:C:/Workspace/DAVE-4.4.2-64Bit/optiga-trust-m/optiga/cmd\optiga_cmd.c ****                                                OPTIGA_CMD_ZERO_LENGTH_OR_VALUE,
3011:C:/Workspace/DAVE-4.4.2-64Bit/optiga-trust-m/optiga/cmd\optiga_cmd.c ****                                                me->p_optiga->optiga_comms_buffer,
3012:C:/Workspace/DAVE-4.4.2-64Bit/optiga-trust-m/optiga/cmd\optiga_cmd.c ****                                                (uint16_t*)&index_for_data);
3013:C:/Workspace/DAVE-4.4.2-64Bit/optiga-trust-m/optiga/cmd\optiga_cmd.c ****             }
3014:C:/Workspace/DAVE-4.4.2-64Bit/optiga-trust-m/optiga/cmd\optiga_cmd.c ****             //Hash Context
3015:C:/Workspace/DAVE-4.4.2-64Bit/optiga-trust-m/optiga/cmd\optiga_cmd.c ****             if ((NULL != p_optiga_calc_hash->p_hash_context) &&
3016:C:/Workspace/DAVE-4.4.2-64Bit/optiga-trust-m/optiga/cmd\optiga_cmd.c ****                 (0 != p_optiga_calc_hash->apparent_context_size))
3017:C:/Workspace/DAVE-4.4.2-64Bit/optiga-trust-m/optiga/cmd\optiga_cmd.c ****             {
3018:C:/Workspace/DAVE-4.4.2-64Bit/optiga-trust-m/optiga/cmd\optiga_cmd.c ****                 *(me->p_optiga->optiga_comms_buffer + index_for_data++) = OPTIGA_CRYPT_INTERMEDIATE
3019:C:/Workspace/DAVE-4.4.2-64Bit/optiga-trust-m/optiga/cmd\optiga_cmd.c ****                 optiga_common_set_uint16((me->p_optiga->optiga_comms_buffer + index_for_data),
3020:C:/Workspace/DAVE-4.4.2-64Bit/optiga-trust-m/optiga/cmd\optiga_cmd.c ****                                           p_optiga_calc_hash->p_hash_context->context_buffer_length
3021:C:/Workspace/DAVE-4.4.2-64Bit/optiga-trust-m/optiga/cmd\optiga_cmd.c ****                 index_for_data += OPTIGA_CMD_UINT16_SIZE_IN_BYTES;
3022:C:/Workspace/DAVE-4.4.2-64Bit/optiga-trust-m/optiga/cmd\optiga_cmd.c **** 
3023:C:/Workspace/DAVE-4.4.2-64Bit/optiga-trust-m/optiga/cmd\optiga_cmd.c ****                 pal_os_memcpy(me->p_optiga->optiga_comms_buffer + index_for_data,
3024:C:/Workspace/DAVE-4.4.2-64Bit/optiga-trust-m/optiga/cmd\optiga_cmd.c ****                               p_optiga_calc_hash->p_hash_context->context_buffer,
3025:C:/Workspace/DAVE-4.4.2-64Bit/optiga-trust-m/optiga/cmd\optiga_cmd.c ****                               p_optiga_calc_hash->p_hash_context->context_buffer_length);
3026:C:/Workspace/DAVE-4.4.2-64Bit/optiga-trust-m/optiga/cmd\optiga_cmd.c **** 
3027:C:/Workspace/DAVE-4.4.2-64Bit/optiga-trust-m/optiga/cmd\optiga_cmd.c ****                 index_for_data += p_optiga_calc_hash->p_hash_context->context_buffer_length;
3028:C:/Workspace/DAVE-4.4.2-64Bit/optiga-trust-m/optiga/cmd\optiga_cmd.c ****                 p_optiga_calc_hash->apparent_context_size = 0;
3029:C:/Workspace/DAVE-4.4.2-64Bit/optiga-trust-m/optiga/cmd\optiga_cmd.c ****             }
3030:C:/Workspace/DAVE-4.4.2-64Bit/optiga-trust-m/optiga/cmd\optiga_cmd.c **** 
3031:C:/Workspace/DAVE-4.4.2-64Bit/optiga-trust-m/optiga/cmd\optiga_cmd.c ****             //Export Option
3032:C:/Workspace/DAVE-4.4.2-64Bit/optiga-trust-m/optiga/cmd\optiga_cmd.c ****             if ((OPTIGA_CRYPT_HASH_FINAL != p_optiga_calc_hash->hash_sequence)&&
3033:C:/Workspace/DAVE-4.4.2-64Bit/optiga-trust-m/optiga/cmd\optiga_cmd.c ****                 (FALSE == me->chaining_ongoing))
3034:C:/Workspace/DAVE-4.4.2-64Bit/optiga-trust-m/optiga/cmd\optiga_cmd.c ****             {
3035:C:/Workspace/DAVE-4.4.2-64Bit/optiga-trust-m/optiga/cmd\optiga_cmd.c ****                 optiga_cmd_prepare_tag_header(OPTIGA_CRYPT_HASH_CONTX_OUT,
3036:C:/Workspace/DAVE-4.4.2-64Bit/optiga-trust-m/optiga/cmd\optiga_cmd.c ****                                               OPTIGA_CMD_ZERO_LENGTH_OR_VALUE,
3037:C:/Workspace/DAVE-4.4.2-64Bit/optiga-trust-m/optiga/cmd\optiga_cmd.c ****                                               me->p_optiga->optiga_comms_buffer,
3038:C:/Workspace/DAVE-4.4.2-64Bit/optiga-trust-m/optiga/cmd\optiga_cmd.c ****                                               (uint16_t*)&index_for_data);
3039:C:/Workspace/DAVE-4.4.2-64Bit/optiga-trust-m/optiga/cmd\optiga_cmd.c ****             }
3040:C:/Workspace/DAVE-4.4.2-64Bit/optiga-trust-m/optiga/cmd\optiga_cmd.c **** 
3041:C:/Workspace/DAVE-4.4.2-64Bit/optiga-trust-m/optiga/cmd\optiga_cmd.c ****             //form apdu header
3042:C:/Workspace/DAVE-4.4.2-64Bit/optiga-trust-m/optiga/cmd\optiga_cmd.c ****             optiga_cmd_prepare_apdu_header(OPTIGA_CMD_CALC_HASH,
3043:C:/Workspace/DAVE-4.4.2-64Bit/optiga-trust-m/optiga/cmd\optiga_cmd.c ****                                            me->cmd_param,
3044:C:/Workspace/DAVE-4.4.2-64Bit/optiga-trust-m/optiga/cmd\optiga_cmd.c ****                                            (uint16_t)(index_for_data - OPTIGA_CMD_APDU_INDATA_OFFSE
3045:C:/Workspace/DAVE-4.4.2-64Bit/optiga-trust-m/optiga/cmd\optiga_cmd.c ****                                            me->p_optiga->optiga_comms_buffer + OPTIGA_COMMS_DATA_OF
3046:C:/Workspace/DAVE-4.4.2-64Bit/optiga-trust-m/optiga/cmd\optiga_cmd.c **** 
3047:C:/Workspace/DAVE-4.4.2-64Bit/optiga-trust-m/optiga/cmd\optiga_cmd.c ****             me->p_optiga->comms_tx_size = (uint16_t)(index_for_data - OPTIGA_COMMS_DATA_OFFSET);
3048:C:/Workspace/DAVE-4.4.2-64Bit/optiga-trust-m/optiga/cmd\optiga_cmd.c ****             me->cmd_next_execution_state = OPTIGA_CMD_EXEC_PROCESS_RESPONSE;
3049:C:/Workspace/DAVE-4.4.2-64Bit/optiga-trust-m/optiga/cmd\optiga_cmd.c ****             return_status = OPTIGA_LIB_SUCCESS;
3050:C:/Workspace/DAVE-4.4.2-64Bit/optiga-trust-m/optiga/cmd\optiga_cmd.c ****         }
3051:C:/Workspace/DAVE-4.4.2-64Bit/optiga-trust-m/optiga/cmd\optiga_cmd.c ****         break;
3052:C:/Workspace/DAVE-4.4.2-64Bit/optiga-trust-m/optiga/cmd\optiga_cmd.c ****         case OPTIGA_CMD_EXEC_PROCESS_RESPONSE:
3053:C:/Workspace/DAVE-4.4.2-64Bit/optiga-trust-m/optiga/cmd\optiga_cmd.c ****         {
3054:C:/Workspace/DAVE-4.4.2-64Bit/optiga-trust-m/optiga/cmd\optiga_cmd.c ****             OPTIGA_CMD_LOG_MESSAGE("Processing response for calculate hash command...");
3055:C:/Workspace/DAVE-4.4.2-64Bit/optiga-trust-m/optiga/cmd\optiga_cmd.c ****             // check if the write was successful
3056:C:/Workspace/DAVE-4.4.2-64Bit/optiga-trust-m/optiga/cmd\optiga_cmd.c ****             if (OPTIGA_CMD_APDU_FAILURE == me->p_optiga->optiga_comms_buffer[OPTIGA_COMMS_DATA_OFFS
3057:C:/Workspace/DAVE-4.4.2-64Bit/optiga-trust-m/optiga/cmd\optiga_cmd.c ****             {
3058:C:/Workspace/DAVE-4.4.2-64Bit/optiga-trust-m/optiga/cmd\optiga_cmd.c ****                 OPTIGA_CMD_LOG_MESSAGE("Error in processing calculate hash response...");
3059:C:/Workspace/DAVE-4.4.2-64Bit/optiga-trust-m/optiga/cmd\optiga_cmd.c ****                 SET_DEV_ERROR_NOTIFICATION(OPTIGA_CMD_EXIT_HANDLER_CALL);
3060:C:/Workspace/DAVE-4.4.2-64Bit/optiga-trust-m/optiga/cmd\optiga_cmd.c ****                 break;
3061:C:/Workspace/DAVE-4.4.2-64Bit/optiga-trust-m/optiga/cmd\optiga_cmd.c ****             }
3062:C:/Workspace/DAVE-4.4.2-64Bit/optiga-trust-m/optiga/cmd\optiga_cmd.c ****             if (OPTIGA_CRYPT_HASH_FINAL == p_optiga_calc_hash->hash_sequence)
3063:C:/Workspace/DAVE-4.4.2-64Bit/optiga-trust-m/optiga/cmd\optiga_cmd.c ****             {
3064:C:/Workspace/DAVE-4.4.2-64Bit/optiga-trust-m/optiga/cmd\optiga_cmd.c ****                 if (OPTIGA_CRYPT_HASH_DIGEST_OUT != me->p_optiga->optiga_comms_buffer[OPTIGA_CMD_AP
3065:C:/Workspace/DAVE-4.4.2-64Bit/optiga-trust-m/optiga/cmd\optiga_cmd.c ****                 {
3066:C:/Workspace/DAVE-4.4.2-64Bit/optiga-trust-m/optiga/cmd\optiga_cmd.c ****                    break;
3067:C:/Workspace/DAVE-4.4.2-64Bit/optiga-trust-m/optiga/cmd\optiga_cmd.c ****                 }
3068:C:/Workspace/DAVE-4.4.2-64Bit/optiga-trust-m/optiga/cmd\optiga_cmd.c ****                 optiga_common_get_uint16(&me->p_optiga->optiga_comms_buffer[OPTIGA_CMD_APDU_INDATA_
3069:C:/Workspace/DAVE-4.4.2-64Bit/optiga-trust-m/optiga/cmd\optiga_cmd.c ****                                          OPTIGA_CMD_NO_OF_BYTES_IN_TAG], &out_data_size);
3070:C:/Workspace/DAVE-4.4.2-64Bit/optiga-trust-m/optiga/cmd\optiga_cmd.c **** 
3071:C:/Workspace/DAVE-4.4.2-64Bit/optiga-trust-m/optiga/cmd\optiga_cmd.c ****                 pal_os_memcpy(p_optiga_calc_hash->p_out_digest,
3072:C:/Workspace/DAVE-4.4.2-64Bit/optiga-trust-m/optiga/cmd\optiga_cmd.c ****                               &me->p_optiga->optiga_comms_buffer[OPTIGA_CMD_APDU_INDATA_OFFSET + OP
3073:C:/Workspace/DAVE-4.4.2-64Bit/optiga-trust-m/optiga/cmd\optiga_cmd.c ****                               OPTIGA_CMD_NO_OF_BYTES_IN_TAG], out_data_size);
3074:C:/Workspace/DAVE-4.4.2-64Bit/optiga-trust-m/optiga/cmd\optiga_cmd.c ****             }
3075:C:/Workspace/DAVE-4.4.2-64Bit/optiga-trust-m/optiga/cmd\optiga_cmd.c ****             else if ((OPTIGA_CRYPT_HASH_FINAL != p_optiga_calc_hash->hash_sequence) &&
3076:C:/Workspace/DAVE-4.4.2-64Bit/optiga-trust-m/optiga/cmd\optiga_cmd.c ****                     (FALSE == p_optiga_calc_hash->chaining_status))
3077:C:/Workspace/DAVE-4.4.2-64Bit/optiga-trust-m/optiga/cmd\optiga_cmd.c ****             {
3078:C:/Workspace/DAVE-4.4.2-64Bit/optiga-trust-m/optiga/cmd\optiga_cmd.c ****                 if (OPTIGA_CRYPT_INTERMEDIATE != me->p_optiga->optiga_comms_buffer[OPTIGA_CMD_APDU_
3079:C:/Workspace/DAVE-4.4.2-64Bit/optiga-trust-m/optiga/cmd\optiga_cmd.c ****                 {
3080:C:/Workspace/DAVE-4.4.2-64Bit/optiga-trust-m/optiga/cmd\optiga_cmd.c ****                     break;
3081:C:/Workspace/DAVE-4.4.2-64Bit/optiga-trust-m/optiga/cmd\optiga_cmd.c ****                 }
3082:C:/Workspace/DAVE-4.4.2-64Bit/optiga-trust-m/optiga/cmd\optiga_cmd.c **** 
3083:C:/Workspace/DAVE-4.4.2-64Bit/optiga-trust-m/optiga/cmd\optiga_cmd.c ****                 optiga_common_get_uint16(&me->p_optiga->optiga_comms_buffer[OPTIGA_CMD_APDU_INDATA_
3084:C:/Workspace/DAVE-4.4.2-64Bit/optiga-trust-m/optiga/cmd\optiga_cmd.c ****                                          OPTIGA_CMD_NO_OF_BYTES_IN_TAG], &out_data_size);
3085:C:/Workspace/DAVE-4.4.2-64Bit/optiga-trust-m/optiga/cmd\optiga_cmd.c ****                 if (p_optiga_calc_hash->p_hash_context->context_buffer_length < out_data_size)
3086:C:/Workspace/DAVE-4.4.2-64Bit/optiga-trust-m/optiga/cmd\optiga_cmd.c ****                 {
3087:C:/Workspace/DAVE-4.4.2-64Bit/optiga-trust-m/optiga/cmd\optiga_cmd.c ****                     OPTIGA_CMD_LOG_MESSAGE("Error in processing calculate hash response...");
3088:C:/Workspace/DAVE-4.4.2-64Bit/optiga-trust-m/optiga/cmd\optiga_cmd.c ****                     return_status = OPTIGA_CMD_ERROR_MEMORY_INSUFFICIENT;
3089:C:/Workspace/DAVE-4.4.2-64Bit/optiga-trust-m/optiga/cmd\optiga_cmd.c ****                     break;
3090:C:/Workspace/DAVE-4.4.2-64Bit/optiga-trust-m/optiga/cmd\optiga_cmd.c ****                 }
3091:C:/Workspace/DAVE-4.4.2-64Bit/optiga-trust-m/optiga/cmd\optiga_cmd.c **** 
3092:C:/Workspace/DAVE-4.4.2-64Bit/optiga-trust-m/optiga/cmd\optiga_cmd.c ****                 pal_os_memcpy(p_optiga_calc_hash->p_hash_context->context_buffer,
3093:C:/Workspace/DAVE-4.4.2-64Bit/optiga-trust-m/optiga/cmd\optiga_cmd.c ****                               &me->p_optiga->optiga_comms_buffer[OPTIGA_CMD_APDU_INDATA_OFFSET + OP
3094:C:/Workspace/DAVE-4.4.2-64Bit/optiga-trust-m/optiga/cmd\optiga_cmd.c ****                               OPTIGA_CMD_NO_OF_BYTES_IN_TAG], out_data_size);
3095:C:/Workspace/DAVE-4.4.2-64Bit/optiga-trust-m/optiga/cmd\optiga_cmd.c ****                 p_optiga_calc_hash->p_hash_context->context_buffer_length = out_data_size;
3096:C:/Workspace/DAVE-4.4.2-64Bit/optiga-trust-m/optiga/cmd\optiga_cmd.c ****             }
3097:C:/Workspace/DAVE-4.4.2-64Bit/optiga-trust-m/optiga/cmd\optiga_cmd.c ****             OPTIGA_CMD_LOG_MESSAGE("Response of calculate hash command is processed...");
3098:C:/Workspace/DAVE-4.4.2-64Bit/optiga-trust-m/optiga/cmd\optiga_cmd.c ****             return_status = OPTIGA_LIB_SUCCESS;
3099:C:/Workspace/DAVE-4.4.2-64Bit/optiga-trust-m/optiga/cmd\optiga_cmd.c ****         }
3100:C:/Workspace/DAVE-4.4.2-64Bit/optiga-trust-m/optiga/cmd\optiga_cmd.c ****         break;
3101:C:/Workspace/DAVE-4.4.2-64Bit/optiga-trust-m/optiga/cmd\optiga_cmd.c ****         default:
3102:C:/Workspace/DAVE-4.4.2-64Bit/optiga-trust-m/optiga/cmd\optiga_cmd.c ****             break;
3103:C:/Workspace/DAVE-4.4.2-64Bit/optiga-trust-m/optiga/cmd\optiga_cmd.c ****     }
3104:C:/Workspace/DAVE-4.4.2-64Bit/optiga-trust-m/optiga/cmd\optiga_cmd.c **** 
3105:C:/Workspace/DAVE-4.4.2-64Bit/optiga-trust-m/optiga/cmd\optiga_cmd.c ****     return (return_status);
3106:C:/Workspace/DAVE-4.4.2-64Bit/optiga-trust-m/optiga/cmd\optiga_cmd.c **** }
3107:C:/Workspace/DAVE-4.4.2-64Bit/optiga-trust-m/optiga/cmd\optiga_cmd.c **** 
3108:C:/Workspace/DAVE-4.4.2-64Bit/optiga-trust-m/optiga/cmd\optiga_cmd.c **** optiga_lib_status_t optiga_cmd_calc_hash(optiga_cmd_t * me,
3109:C:/Workspace/DAVE-4.4.2-64Bit/optiga-trust-m/optiga/cmd\optiga_cmd.c ****                                          uint8_t cmd_param,
3110:C:/Workspace/DAVE-4.4.2-64Bit/optiga-trust-m/optiga/cmd\optiga_cmd.c ****                                          optiga_calc_hash_params_t * params)
3111:C:/Workspace/DAVE-4.4.2-64Bit/optiga-trust-m/optiga/cmd\optiga_cmd.c **** {
3112:C:/Workspace/DAVE-4.4.2-64Bit/optiga-trust-m/optiga/cmd\optiga_cmd.c ****     optiga_calc_hash_params_t * p_optiga_calc_hash = (optiga_calc_hash_params_t*)params;
3113:C:/Workspace/DAVE-4.4.2-64Bit/optiga-trust-m/optiga/cmd\optiga_cmd.c ****     OPTIGA_CMD_LOG_MESSAGE(__FUNCTION__);
3114:C:/Workspace/DAVE-4.4.2-64Bit/optiga-trust-m/optiga/cmd\optiga_cmd.c ****     
3115:C:/Workspace/DAVE-4.4.2-64Bit/optiga-trust-m/optiga/cmd\optiga_cmd.c ****     p_optiga_calc_hash->data_sent = 0;
3116:C:/Workspace/DAVE-4.4.2-64Bit/optiga-trust-m/optiga/cmd\optiga_cmd.c **** 
3117:C:/Workspace/DAVE-4.4.2-64Bit/optiga-trust-m/optiga/cmd\optiga_cmd.c ****     optiga_cmd_execute(me,
3118:C:/Workspace/DAVE-4.4.2-64Bit/optiga-trust-m/optiga/cmd\optiga_cmd.c ****                        cmd_param,
3119:C:/Workspace/DAVE-4.4.2-64Bit/optiga-trust-m/optiga/cmd\optiga_cmd.c ****                        optiga_cmd_calc_hash_handler,
3120:C:/Workspace/DAVE-4.4.2-64Bit/optiga-trust-m/optiga/cmd\optiga_cmd.c ****                        OPTIGA_CMD_EXEC_REQUEST_LOCK,
3121:C:/Workspace/DAVE-4.4.2-64Bit/optiga-trust-m/optiga/cmd\optiga_cmd.c ****                        params);
3122:C:/Workspace/DAVE-4.4.2-64Bit/optiga-trust-m/optiga/cmd\optiga_cmd.c **** 
3123:C:/Workspace/DAVE-4.4.2-64Bit/optiga-trust-m/optiga/cmd\optiga_cmd.c ****     return (OPTIGA_LIB_SUCCESS);
3124:C:/Workspace/DAVE-4.4.2-64Bit/optiga-trust-m/optiga/cmd\optiga_cmd.c **** }
3125:C:/Workspace/DAVE-4.4.2-64Bit/optiga-trust-m/optiga/cmd\optiga_cmd.c **** #endif //OPTIGA_CRYPT_HASH_ENABLED
3126:C:/Workspace/DAVE-4.4.2-64Bit/optiga-trust-m/optiga/cmd\optiga_cmd.c **** 
3127:C:/Workspace/DAVE-4.4.2-64Bit/optiga-trust-m/optiga/cmd\optiga_cmd.c **** 
3128:C:/Workspace/DAVE-4.4.2-64Bit/optiga-trust-m/optiga/cmd\optiga_cmd.c **** 
3129:C:/Workspace/DAVE-4.4.2-64Bit/optiga-trust-m/optiga/cmd\optiga_cmd.c **** /*
3130:C:/Workspace/DAVE-4.4.2-64Bit/optiga-trust-m/optiga/cmd\optiga_cmd.c **** * Set Data Object handler for protected update
3131:C:/Workspace/DAVE-4.4.2-64Bit/optiga-trust-m/optiga/cmd\optiga_cmd.c **** */
3132:C:/Workspace/DAVE-4.4.2-64Bit/optiga-trust-m/optiga/cmd\optiga_cmd.c **** _STATIC_H optiga_lib_status_t optiga_cmd_set_object_protected_handler(optiga_cmd_t * me)
3133:C:/Workspace/DAVE-4.4.2-64Bit/optiga-trust-m/optiga/cmd\optiga_cmd.c **** {
 2844              	 .loc 1 3133 0
 2845              	 .cfi_startproc
 2846              	.LVL277:
 2847 0000 F7B5     	 push {r0,r1,r2,r4,r5,r6,r7,lr}
 2848              	.LCFI13:
 2849              	 .cfi_def_cfa_offset 32
 2850              	 .cfi_offset 0,-32
 2851              	 .cfi_offset 1,-28
 2852              	 .cfi_offset 2,-24
 2853              	 .cfi_offset 4,-20
 2854              	 .cfi_offset 5,-16
 2855              	 .cfi_offset 6,-12
 2856              	 .cfi_offset 7,-8
 2857              	 .cfi_offset 14,-4
3134:C:/Workspace/DAVE-4.4.2-64Bit/optiga-trust-m/optiga/cmd\optiga_cmd.c ****     uint16_t total_apdu_length;
3135:C:/Workspace/DAVE-4.4.2-64Bit/optiga-trust-m/optiga/cmd\optiga_cmd.c ****     optiga_set_object_protected_params_t * p_optiga_write_protected_data = (optiga_set_object_prote
3136:C:/Workspace/DAVE-4.4.2-64Bit/optiga-trust-m/optiga/cmd\optiga_cmd.c ****     optiga_lib_status_t return_status = OPTIGA_CMD_ERROR;
3137:C:/Workspace/DAVE-4.4.2-64Bit/optiga-trust-m/optiga/cmd\optiga_cmd.c ****     uint16_t index_for_data = OPTIGA_CMD_APDU_INDATA_OFFSET;
 2858              	 .loc 1 3137 0
 2859 0002 6B46     	 mov r3,sp
 2860 0004 9F1D     	 add r7,r3,#6
 2861 0006 0923     	 mov r3,#9
 2862 0008 3B80     	 strh r3,[r7]
3138:C:/Workspace/DAVE-4.4.2-64Bit/optiga-trust-m/optiga/cmd\optiga_cmd.c **** 
3139:C:/Workspace/DAVE-4.4.2-64Bit/optiga-trust-m/optiga/cmd\optiga_cmd.c ****     switch ((uint8_t)me->cmd_next_execution_state)
 2863              	 .loc 1 3139 0
 2864 000a 837D     	 ldrb r3,[r0,#22]
3133:C:/Workspace/DAVE-4.4.2-64Bit/optiga-trust-m/optiga/cmd\optiga_cmd.c ****     uint16_t total_apdu_length;
 2865              	 .loc 1 3133 0
 2866 000c 051C     	 mov r5,r0
3135:C:/Workspace/DAVE-4.4.2-64Bit/optiga-trust-m/optiga/cmd\optiga_cmd.c ****     optiga_lib_status_t return_status = OPTIGA_CMD_ERROR;
 2867              	 .loc 1 3135 0
 2868 000e 8668     	 ldr r6,[r0,#8]
 2869              	.LVL278:
 2870              	 .loc 1 3139 0
 2871 0010 082B     	 cmp r3,#8
 2872 0012 02D0     	 beq .L235
 2873 0014 092B     	 cmp r3,#9
 2874 0016 2BD0     	 beq .L236
 2875 0018 43E0     	 b .L241
 2876              	.L235:
3140:C:/Workspace/DAVE-4.4.2-64Bit/optiga-trust-m/optiga/cmd\optiga_cmd.c ****     {
3141:C:/Workspace/DAVE-4.4.2-64Bit/optiga-trust-m/optiga/cmd\optiga_cmd.c ****         case OPTIGA_CMD_EXEC_PREPARE_COMMAND:
3142:C:/Workspace/DAVE-4.4.2-64Bit/optiga-trust-m/optiga/cmd\optiga_cmd.c ****         {
3143:C:/Workspace/DAVE-4.4.2-64Bit/optiga-trust-m/optiga/cmd\optiga_cmd.c ****             OPTIGA_CMD_LOG_MESSAGE("Sending set data object command..");
3144:C:/Workspace/DAVE-4.4.2-64Bit/optiga-trust-m/optiga/cmd\optiga_cmd.c ****             me->chaining_ongoing = FALSE;
 2877              	 .loc 1 3144 0
 2878 001a 0024     	 mov r4,#0
 2879 001c C475     	 strb r4,[r0,#23]
3145:C:/Workspace/DAVE-4.4.2-64Bit/optiga-trust-m/optiga/cmd\optiga_cmd.c **** 
3146:C:/Workspace/DAVE-4.4.2-64Bit/optiga-trust-m/optiga/cmd\optiga_cmd.c ****             // APDU header size + Set Object protected tag 1 bytes + length of buffer 2 bytes + siz
3147:C:/Workspace/DAVE-4.4.2-64Bit/optiga-trust-m/optiga/cmd\optiga_cmd.c ****             total_apdu_length = OPTIGA_CMD_APDU_HEADER_SIZE + OPTIGA_CMD_NO_OF_BYTES_IN_TAG + OPTIG
3148:C:/Workspace/DAVE-4.4.2-64Bit/optiga-trust-m/optiga/cmd\optiga_cmd.c ****                                 p_optiga_write_protected_data->p_protected_update_buffer_length;
 2880              	 .loc 1 3148 0
 2881 001e B188     	 ldrh r1,[r6,#4]
 2882              	.LVL279:
3149:C:/Workspace/DAVE-4.4.2-64Bit/optiga-trust-m/optiga/cmd\optiga_cmd.c ****             if (OPTIGA_MAX_COMMS_BUFFER_SIZE < total_apdu_length)
 2883              	 .loc 1 3149 0
 2884 0020 224A     	 ldr r2,.L243
3147:C:/Workspace/DAVE-4.4.2-64Bit/optiga-trust-m/optiga/cmd\optiga_cmd.c ****                                 p_optiga_write_protected_data->p_protected_update_buffer_length;
 2885              	 .loc 1 3147 0
 2886 0022 CB1D     	 add r3,r1,#7
 2887              	 .loc 1 3149 0
 2888 0024 9BB2     	 uxth r3,r3
 2889 0026 9342     	 cmp r3,r2
 2890 0028 3DD8     	 bhi .L240
3150:C:/Workspace/DAVE-4.4.2-64Bit/optiga-trust-m/optiga/cmd\optiga_cmd.c ****             {
3151:C:/Workspace/DAVE-4.4.2-64Bit/optiga-trust-m/optiga/cmd\optiga_cmd.c ****                 return_status = OPTIGA_CMD_ERROR_MEMORY_INSUFFICIENT;
3152:C:/Workspace/DAVE-4.4.2-64Bit/optiga-trust-m/optiga/cmd\optiga_cmd.c ****                 break;
3153:C:/Workspace/DAVE-4.4.2-64Bit/optiga-trust-m/optiga/cmd\optiga_cmd.c ****             }
3154:C:/Workspace/DAVE-4.4.2-64Bit/optiga-trust-m/optiga/cmd\optiga_cmd.c **** 
3155:C:/Workspace/DAVE-4.4.2-64Bit/optiga-trust-m/optiga/cmd\optiga_cmd.c ****             // Copy the tag and protected length
3156:C:/Workspace/DAVE-4.4.2-64Bit/optiga-trust-m/optiga/cmd\optiga_cmd.c ****             optiga_cmd_prepare_tag_header((CMD_SET_OBJECT_PROTECTED_TAG |
 2891              	 .loc 1 3156 0
 2892 002a 3020     	 mov r0,#48
 2893              	.LVL280:
 2894 002c B379     	 ldrb r3,[r6,#6]
3157:C:/Workspace/DAVE-4.4.2-64Bit/optiga-trust-m/optiga/cmd\optiga_cmd.c ****                                            (uint8_t)p_optiga_write_protected_data->set_obj_protecte
3158:C:/Workspace/DAVE-4.4.2-64Bit/optiga-trust-m/optiga/cmd\optiga_cmd.c ****                                           p_optiga_write_protected_data->p_protected_update_buffer_
3159:C:/Workspace/DAVE-4.4.2-64Bit/optiga-trust-m/optiga/cmd\optiga_cmd.c ****                                           me->p_optiga->optiga_comms_buffer,
 2895              	 .loc 1 3159 0
 2896 002e 2A68     	 ldr r2,[r5]
3156:C:/Workspace/DAVE-4.4.2-64Bit/optiga-trust-m/optiga/cmd\optiga_cmd.c ****                                            (uint8_t)p_optiga_write_protected_data->set_obj_protecte
 2897              	 .loc 1 3156 0
 2898 0030 1843     	 orr r0,r3
 2899              	 .loc 1 3159 0
 2900 0032 0D32     	 add r2,r2,#13
3156:C:/Workspace/DAVE-4.4.2-64Bit/optiga-trust-m/optiga/cmd\optiga_cmd.c ****                                            (uint8_t)p_optiga_write_protected_data->set_obj_protecte
 2901              	 .loc 1 3156 0
 2902 0034 3B1C     	 mov r3,r7
 2903 0036 FFF7FEFF 	 bl optiga_cmd_prepare_tag_header
 2904              	.LVL281:
3160:C:/Workspace/DAVE-4.4.2-64Bit/optiga-trust-m/optiga/cmd\optiga_cmd.c ****                                           &index_for_data);
3161:C:/Workspace/DAVE-4.4.2-64Bit/optiga-trust-m/optiga/cmd\optiga_cmd.c ****             // data to be written
3162:C:/Workspace/DAVE-4.4.2-64Bit/optiga-trust-m/optiga/cmd\optiga_cmd.c ****             pal_os_memcpy(me->p_optiga->optiga_comms_buffer + index_for_data,
 2905              	 .loc 1 3162 0
 2906 003a 2B68     	 ldr r3,[r5]
 2907 003c 3888     	 ldrh r0,[r7]
 2908 003e B288     	 ldrh r2,[r6,#4]
 2909 0040 1818     	 add r0,r3,r0
 2910 0042 3168     	 ldr r1,[r6]
 2911 0044 0D30     	 add r0,r0,#13
 2912 0046 FFF7FEFF 	 bl memcpy
 2913              	.LVL282:
3163:C:/Workspace/DAVE-4.4.2-64Bit/optiga-trust-m/optiga/cmd\optiga_cmd.c ****                           p_optiga_write_protected_data->p_protected_update_buffer,
3164:C:/Workspace/DAVE-4.4.2-64Bit/optiga-trust-m/optiga/cmd\optiga_cmd.c ****                           p_optiga_write_protected_data->p_protected_update_buffer_length);
3165:C:/Workspace/DAVE-4.4.2-64Bit/optiga-trust-m/optiga/cmd\optiga_cmd.c **** 
3166:C:/Workspace/DAVE-4.4.2-64Bit/optiga-trust-m/optiga/cmd\optiga_cmd.c ****             index_for_data += p_optiga_write_protected_data->p_protected_update_buffer_length;
 2914              	 .loc 1 3166 0
 2915 004a B288     	 ldrh r2,[r6,#4]
 2916 004c 3B88     	 ldrh r3,[r7]
 2917              	.LBB148:
 2918              	.LBB149:
 421:C:/Workspace/DAVE-4.4.2-64Bit/optiga-trust-m/optiga/cmd\optiga_cmd.c ****     p_apdu_buffer [1] = param;
 2919              	 .loc 1 421 0
 2920 004e 8326     	 mov r6,#131
 2921              	.LVL283:
 2922              	.LBE149:
 2923              	.LBE148:
 2924              	 .loc 1 3166 0
 2925 0050 D318     	 add r3,r2,r3
 2926 0052 9BB2     	 uxth r3,r3
3167:C:/Workspace/DAVE-4.4.2-64Bit/optiga-trust-m/optiga/cmd\optiga_cmd.c ****             // prepare apdu
3168:C:/Workspace/DAVE-4.4.2-64Bit/optiga-trust-m/optiga/cmd\optiga_cmd.c ****             optiga_cmd_prepare_apdu_header(OPTIGA_CMD_SET_OBJECT_PROTECTED,
 2927              	 .loc 1 3168 0
 2928 0054 191C     	 mov r1,r3
 2929 0056 287E     	 ldrb r0,[r5,#24]
3169:C:/Workspace/DAVE-4.4.2-64Bit/optiga-trust-m/optiga/cmd\optiga_cmd.c ****                                            me->cmd_param,
3170:C:/Workspace/DAVE-4.4.2-64Bit/optiga-trust-m/optiga/cmd\optiga_cmd.c ****                                            (index_for_data - OPTIGA_CMD_APDU_INDATA_OFFSET),
3171:C:/Workspace/DAVE-4.4.2-64Bit/optiga-trust-m/optiga/cmd\optiga_cmd.c ****                                            me->p_optiga->optiga_comms_buffer + OPTIGA_COMMS_DATA_OF
 2930              	 .loc 1 3171 0
 2931 0058 2A68     	 ldr r2,[r5]
 2932              	.LVL284:
3168:C:/Workspace/DAVE-4.4.2-64Bit/optiga-trust-m/optiga/cmd\optiga_cmd.c ****                                            me->cmd_param,
 2933              	 .loc 1 3168 0
 2934 005a 0939     	 sub r1,r1,#9
 2935 005c 89B2     	 uxth r1,r1
 2936              	.LVL285:
 2937              	.LBB151:
 2938              	.LBB150:
 422:C:/Workspace/DAVE-4.4.2-64Bit/optiga-trust-m/optiga/cmd\optiga_cmd.c ****     p_apdu_buffer [2] = (uint8_t)((in_data_length & 0xFF00) >> 8);
 2939              	 .loc 1 422 0
 2940 005e D074     	 strb r0,[r2,#19]
 423:C:/Workspace/DAVE-4.4.2-64Bit/optiga-trust-m/optiga/cmd\optiga_cmd.c ****     p_apdu_buffer [3] = (uint8_t)(in_data_length & 0x00FF);
 2941              	 .loc 1 423 0
 2942 0060 080A     	 lsr r0,r1,#8
 2943              	.LVL286:
 421:C:/Workspace/DAVE-4.4.2-64Bit/optiga-trust-m/optiga/cmd\optiga_cmd.c ****     p_apdu_buffer [1] = param;
 2944              	 .loc 1 421 0
 2945 0062 9674     	 strb r6,[r2,#18]
 423:C:/Workspace/DAVE-4.4.2-64Bit/optiga-trust-m/optiga/cmd\optiga_cmd.c ****     p_apdu_buffer [3] = (uint8_t)(in_data_length & 0x00FF);
 2946              	 .loc 1 423 0
 2947 0064 1075     	 strb r0,[r2,#20]
 424:C:/Workspace/DAVE-4.4.2-64Bit/optiga-trust-m/optiga/cmd\optiga_cmd.c **** }
 2948              	 .loc 1 424 0
 2949 0066 5175     	 strb r1,[r2,#21]
 2950              	.LBE150:
 2951              	.LBE151:
3172:C:/Workspace/DAVE-4.4.2-64Bit/optiga-trust-m/optiga/cmd\optiga_cmd.c **** 
3173:C:/Workspace/DAVE-4.4.2-64Bit/optiga-trust-m/optiga/cmd\optiga_cmd.c ****             me->p_optiga->comms_tx_size = (index_for_data - OPTIGA_COMMS_DATA_OFFSET);
 2952              	 .loc 1 3173 0
 2953 0068 2A68     	 ldr r2,[r5]
 2954              	.LVL287:
 2955 006a 053B     	 sub r3,r3,#5
 2956 006c 9380     	 strh r3,[r2,#4]
 2957              	.LVL288:
 2958 006e 16E0     	 b .L242
 2959              	.LVL289:
 2960              	.L236:
3174:C:/Workspace/DAVE-4.4.2-64Bit/optiga-trust-m/optiga/cmd\optiga_cmd.c **** 
3175:C:/Workspace/DAVE-4.4.2-64Bit/optiga-trust-m/optiga/cmd\optiga_cmd.c ****             return_status = OPTIGA_LIB_SUCCESS;
3176:C:/Workspace/DAVE-4.4.2-64Bit/optiga-trust-m/optiga/cmd\optiga_cmd.c ****         }
3177:C:/Workspace/DAVE-4.4.2-64Bit/optiga-trust-m/optiga/cmd\optiga_cmd.c ****         break;
3178:C:/Workspace/DAVE-4.4.2-64Bit/optiga-trust-m/optiga/cmd\optiga_cmd.c **** 
3179:C:/Workspace/DAVE-4.4.2-64Bit/optiga-trust-m/optiga/cmd\optiga_cmd.c ****         case OPTIGA_CMD_EXEC_PROCESS_RESPONSE:
3180:C:/Workspace/DAVE-4.4.2-64Bit/optiga-trust-m/optiga/cmd\optiga_cmd.c ****         {
3181:C:/Workspace/DAVE-4.4.2-64Bit/optiga-trust-m/optiga/cmd\optiga_cmd.c ****             OPTIGA_CMD_LOG_MESSAGE("Processing response for set data object data command...");
3182:C:/Workspace/DAVE-4.4.2-64Bit/optiga-trust-m/optiga/cmd\optiga_cmd.c ****             // check if the write was successful
3183:C:/Workspace/DAVE-4.4.2-64Bit/optiga-trust-m/optiga/cmd\optiga_cmd.c ****             if (OPTIGA_CMD_APDU_SUCCESS != me->p_optiga->optiga_comms_buffer[OPTIGA_COMMS_DATA_OFFS
 2961              	 .loc 1 3183 0
 2962 0070 0268     	 ldr r2,[r0]
 2963 0072 947C     	 ldrb r4,[r2,#18]
 2964 0074 002C     	 cmp r4,#0
 2965 0076 04D0     	 beq .L237
3184:C:/Workspace/DAVE-4.4.2-64Bit/optiga-trust-m/optiga/cmd\optiga_cmd.c ****             {
3185:C:/Workspace/DAVE-4.4.2-64Bit/optiga-trust-m/optiga/cmd\optiga_cmd.c ****                 OPTIGA_CMD_LOG_MESSAGE("Error in processing set data object response...");
3186:C:/Workspace/DAVE-4.4.2-64Bit/optiga-trust-m/optiga/cmd\optiga_cmd.c ****                 SET_DEV_ERROR_NOTIFICATION(OPTIGA_CMD_EXIT_HANDLER_CALL);
 2966              	 .loc 1 3186 0
 2967 0078 7F23     	 mov r3,#127
 2968 007a 027F     	 ldrb r2,[r0,#28]
 2969 007c 1340     	 and r3,r2
 2970 007e 0377     	 strb r3,[r0,#28]
 2971 0080 0FE0     	 b .L241
 2972              	.L237:
3187:C:/Workspace/DAVE-4.4.2-64Bit/optiga-trust-m/optiga/cmd\optiga_cmd.c ****                 break;
3188:C:/Workspace/DAVE-4.4.2-64Bit/optiga-trust-m/optiga/cmd\optiga_cmd.c ****             }
3189:C:/Workspace/DAVE-4.4.2-64Bit/optiga-trust-m/optiga/cmd\optiga_cmd.c ****             if (OPTIGA_SET_PROTECTED_UPDATE_FINAL == p_optiga_write_protected_data->set_obj_protect
 2973              	 .loc 1 3189 0
 2974 0082 B379     	 ldrb r3,[r6,#6]
 2975 0084 012B     	 cmp r3,#1
 2976 0086 02D1     	 bne .L238
3190:C:/Workspace/DAVE-4.4.2-64Bit/optiga-trust-m/optiga/cmd\optiga_cmd.c ****             {
3191:C:/Workspace/DAVE-4.4.2-64Bit/optiga-trust-m/optiga/cmd\optiga_cmd.c ****                 me->cmd_next_execution_state = OPTIGA_CMD_EXEC_RELEASE_LOCK;
 2977              	 .loc 1 3191 0
 2978 0088 0A33     	 add r3,r3,#10
 2979 008a 8375     	 strb r3,[r0,#22]
 2980 008c 07E0     	 b .L242
 2981              	.L238:
3192:C:/Workspace/DAVE-4.4.2-64Bit/optiga-trust-m/optiga/cmd\optiga_cmd.c ****             }
3193:C:/Workspace/DAVE-4.4.2-64Bit/optiga-trust-m/optiga/cmd\optiga_cmd.c ****             else
3194:C:/Workspace/DAVE-4.4.2-64Bit/optiga-trust-m/optiga/cmd\optiga_cmd.c ****             {
3195:C:/Workspace/DAVE-4.4.2-64Bit/optiga-trust-m/optiga/cmd\optiga_cmd.c ****                 me->cmd_next_execution_state = OPTIGA_CMD_STATE_EXIT;
 2982              	 .loc 1 3195 0
 2983 008e 0C23     	 mov r3,#12
 2984 0090 8375     	 strb r3,[r0,#22]
3196:C:/Workspace/DAVE-4.4.2-64Bit/optiga-trust-m/optiga/cmd\optiga_cmd.c ****                 pal_os_event_start(me->p_optiga->p_pal_os_event_ctx, optiga_cmd_queue_scheduler, me
 2985              	 .loc 1 3196 0
 2986 0092 CF23     	 mov r3,#207
 2987 0094 DB00     	 lsl r3,r3,#3
 2988 0096 D058     	 ldr r0,[r2,r3]
 2989              	.LVL290:
 2990 0098 0549     	 ldr r1,.L243+4
 2991 009a FFF7FEFF 	 bl pal_os_event_start
 2992              	.LVL291:
 2993              	.L242:
3197:C:/Workspace/DAVE-4.4.2-64Bit/optiga-trust-m/optiga/cmd\optiga_cmd.c ****             }
3198:C:/Workspace/DAVE-4.4.2-64Bit/optiga-trust-m/optiga/cmd\optiga_cmd.c ****             OPTIGA_CMD_LOG_MESSAGE("Response of set data object command is processed...");
3199:C:/Workspace/DAVE-4.4.2-64Bit/optiga-trust-m/optiga/cmd\optiga_cmd.c ****             return_status = OPTIGA_LIB_SUCCESS;
 2994              	 .loc 1 3199 0
 2995 009e 201C     	 mov r0,r4
 2996 00a0 03E0     	 b .L234
 2997              	.LVL292:
 2998              	.L241:
3136:C:/Workspace/DAVE-4.4.2-64Bit/optiga-trust-m/optiga/cmd\optiga_cmd.c ****     uint16_t index_for_data = OPTIGA_CMD_APDU_INDATA_OFFSET;
 2999              	 .loc 1 3136 0
 3000 00a2 0448     	 ldr r0,.L243+8
 3001              	.LVL293:
 3002 00a4 01E0     	 b .L234
 3003              	.LVL294:
 3004              	.L240:
3151:C:/Workspace/DAVE-4.4.2-64Bit/optiga-trust-m/optiga/cmd\optiga_cmd.c ****                 break;
 3005              	 .loc 1 3151 0
 3006 00a6 8120     	 mov r0,#129
 3007              	.LVL295:
 3008 00a8 8000     	 lsl r0,r0,#2
 3009              	.LVL296:
 3010              	.L234:
3200:C:/Workspace/DAVE-4.4.2-64Bit/optiga-trust-m/optiga/cmd\optiga_cmd.c ****         }
3201:C:/Workspace/DAVE-4.4.2-64Bit/optiga-trust-m/optiga/cmd\optiga_cmd.c ****         break;
3202:C:/Workspace/DAVE-4.4.2-64Bit/optiga-trust-m/optiga/cmd\optiga_cmd.c ****         default:
3203:C:/Workspace/DAVE-4.4.2-64Bit/optiga-trust-m/optiga/cmd\optiga_cmd.c ****             break;
3204:C:/Workspace/DAVE-4.4.2-64Bit/optiga-trust-m/optiga/cmd\optiga_cmd.c ****     }
3205:C:/Workspace/DAVE-4.4.2-64Bit/optiga-trust-m/optiga/cmd\optiga_cmd.c ****     return (return_status);
3206:C:/Workspace/DAVE-4.4.2-64Bit/optiga-trust-m/optiga/cmd\optiga_cmd.c **** }
 3011              	 .loc 1 3206 0
 3012              	 
 3013              	.LVL297:
 3014 00aa FEBD     	 pop {r1,r2,r3,r4,r5,r6,r7,pc}
 3015              	.L244:
 3016              	 .align 2
 3017              	.L243:
 3018 00ac 15060000 	 .word 1557
 3019 00b0 00000000 	 .word optiga_cmd_queue_scheduler
 3020 00b4 02020000 	 .word 514
 3021              	 .cfi_endproc
 3022              	.LFE51:
 3024              	 .section .text.optiga_cmd_gen_keypair_handler,"ax",%progbits
 3025              	 .align 1
 3026              	 .code 16
 3027              	 .thumb_func
 3029              	optiga_cmd_gen_keypair_handler:
 3030              	.LFB43:
2467:C:/Workspace/DAVE-4.4.2-64Bit/optiga-trust-m/optiga/cmd\optiga_cmd.c ****     uint16_t total_apdu_length;
 3031              	 .loc 1 2467 0
 3032              	 .cfi_startproc
 3033              	.LVL298:
 3034 0000 F7B5     	 push {r0,r1,r2,r4,r5,r6,r7,lr}
 3035              	.LCFI14:
 3036              	 .cfi_def_cfa_offset 32
 3037              	 .cfi_offset 0,-32
 3038              	 .cfi_offset 1,-28
 3039              	 .cfi_offset 2,-24
 3040              	 .cfi_offset 4,-20
 3041              	 .cfi_offset 5,-16
 3042              	 .cfi_offset 6,-12
 3043              	 .cfi_offset 7,-8
 3044              	 .cfi_offset 14,-4
2472:C:/Workspace/DAVE-4.4.2-64Bit/optiga-trust-m/optiga/cmd\optiga_cmd.c ****     uint16_t out_data_size;
 3045              	 .loc 1 2472 0
 3046 0002 6B46     	 mov r3,sp
 3047 0004 9D1C     	 add r5,r3,#2
 3048 0006 0923     	 mov r3,#9
 3049 0008 2B80     	 strh r3,[r5]
2477:C:/Workspace/DAVE-4.4.2-64Bit/optiga-trust-m/optiga/cmd\optiga_cmd.c ****     {
 3050              	 .loc 1 2477 0
 3051 000a 837D     	 ldrb r3,[r0,#22]
2467:C:/Workspace/DAVE-4.4.2-64Bit/optiga-trust-m/optiga/cmd\optiga_cmd.c ****     uint16_t total_apdu_length;
 3052              	 .loc 1 2467 0
 3053 000c 041C     	 mov r4,r0
2469:C:/Workspace/DAVE-4.4.2-64Bit/optiga-trust-m/optiga/cmd\optiga_cmd.c ****     uint16_t header_offset;
 3054              	 .loc 1 2469 0
 3055 000e 8668     	 ldr r6,[r0,#8]
 3056              	.LVL299:
2477:C:/Workspace/DAVE-4.4.2-64Bit/optiga-trust-m/optiga/cmd\optiga_cmd.c ****     {
 3057              	 .loc 1 2477 0
 3058 0010 082B     	 cmp r3,#8
 3059 0012 02D0     	 beq .L247
 3060 0014 092B     	 cmp r3,#9
 3061 0016 3ED0     	 beq .L248
 3062 0018 88E0     	 b .L260
 3063              	.L247:
 3064              	.LVL300:
 3065 001a 0268     	 ldr r2,[r0]
2495:C:/Workspace/DAVE-4.4.2-64Bit/optiga-trust-m/optiga/cmd\optiga_cmd.c ****             {
 3066              	 .loc 1 2495 0
 3067 001c 7378     	 ldrb r3,[r6,#1]
2500:C:/Workspace/DAVE-4.4.2-64Bit/optiga-trust-m/optiga/cmd\optiga_cmd.c ****                                                &index_for_data);
 3068              	 .loc 1 2500 0
 3069 001e 0D32     	 add r2,r2,#13
2495:C:/Workspace/DAVE-4.4.2-64Bit/optiga-trust-m/optiga/cmd\optiga_cmd.c ****             {
 3070              	 .loc 1 2495 0
 3071 0020 002B     	 cmp r3,#0
 3072 0022 20D1     	 bne .L249
2498:C:/Workspace/DAVE-4.4.2-64Bit/optiga-trust-m/optiga/cmd\optiga_cmd.c ****                                                CMD_GEN_KEY_PAIR_PRIVATE_KEY_OID_LENGTH,
 3073              	 .loc 1 2498 0
 3074 0024 0120     	 mov r0,#1
 3075              	.LVL301:
 3076 0026 0221     	 mov r1,#2
 3077 0028 2B1C     	 mov r3,r5
 3078 002a FFF7FEFF 	 bl optiga_cmd_prepare_tag_header
 3079              	.LVL302:
2503:C:/Workspace/DAVE-4.4.2-64Bit/optiga-trust-m/optiga/cmd\optiga_cmd.c ****                                          ((OPTIGA_KEY_ID_SESSION_BASED == p_optiga_ecc_gen_keypair-
 3080              	 .loc 1 2503 0
 3081 002e 2888     	 ldrh r0,[r5]
 3082 0030 2368     	 ldr r3,[r4]
2504:C:/Workspace/DAVE-4.4.2-64Bit/optiga-trust-m/optiga/cmd\optiga_cmd.c ****                                          me->session_oid:(uint16_t)p_optiga_ecc_gen_keypair->privat
 3083              	 .loc 1 2504 0
 3084 0032 7188     	 ldrh r1,[r6,#2]
2503:C:/Workspace/DAVE-4.4.2-64Bit/optiga-trust-m/optiga/cmd\optiga_cmd.c ****                                          ((OPTIGA_KEY_ID_SESSION_BASED == p_optiga_ecc_gen_keypair-
 3085              	 .loc 1 2503 0
 3086 0034 1818     	 add r0,r3,r0
 3087 0036 0D30     	 add r0,r0,#13
 3088 0038 0029     	 cmp r1,#0
 3089 003a 00D1     	 bne .L250
2503:C:/Workspace/DAVE-4.4.2-64Bit/optiga-trust-m/optiga/cmd\optiga_cmd.c ****                                          ((OPTIGA_KEY_ID_SESSION_BASED == p_optiga_ecc_gen_keypair-
 3090              	 .loc 1 2503 0 is_stmt 0 discriminator 1
 3091 003c A18A     	 ldrh r1,[r4,#20]
 3092              	.L250:
2503:C:/Workspace/DAVE-4.4.2-64Bit/optiga-trust-m/optiga/cmd\optiga_cmd.c ****                                          ((OPTIGA_KEY_ID_SESSION_BASED == p_optiga_ecc_gen_keypair-
 3093              	 .loc 1 2503 0 discriminator 4
 3094 003e FFF7FEFF 	 bl optiga_common_set_uint16
 3095              	.LVL303:
2507:C:/Workspace/DAVE-4.4.2-64Bit/optiga-trust-m/optiga/cmd\optiga_cmd.c ****                 ///TLV formation for key usage
 3096              	 .loc 1 2507 0 is_stmt 1 discriminator 4
 3097 0042 2B88     	 ldrh r3,[r5]
2511:C:/Workspace/DAVE-4.4.2-64Bit/optiga-trust-m/optiga/cmd\optiga_cmd.c ****                                                &index_for_data);
 3098              	 .loc 1 2511 0 discriminator 4
 3099 0044 2268     	 ldr r2,[r4]
2507:C:/Workspace/DAVE-4.4.2-64Bit/optiga-trust-m/optiga/cmd\optiga_cmd.c ****                 ///TLV formation for key usage
 3100              	 .loc 1 2507 0 discriminator 4
 3101 0046 0233     	 add r3,r3,#2
 3102 0048 2B80     	 strh r3,[r5]
2511:C:/Workspace/DAVE-4.4.2-64Bit/optiga-trust-m/optiga/cmd\optiga_cmd.c ****                                                &index_for_data);
 3103              	 .loc 1 2511 0 discriminator 4
 3104 004a 0D32     	 add r2,r2,#13
2509:C:/Workspace/DAVE-4.4.2-64Bit/optiga-trust-m/optiga/cmd\optiga_cmd.c ****                                                CMD_GEN_KEY_PAIR_KEY_USAGE_LENGTH,
 3105              	 .loc 1 2509 0 discriminator 4
 3106 004c 0121     	 mov r1,#1
 3107 004e 2B1C     	 mov r3,r5
 3108 0050 0220     	 mov r0,#2
 3109 0052 FFF7FEFF 	 bl optiga_cmd_prepare_tag_header
 3110              	.LVL304:
2514:C:/Workspace/DAVE-4.4.2-64Bit/optiga-trust-m/optiga/cmd\optiga_cmd.c ****             }
 3111              	 .loc 1 2514 0 discriminator 4
 3112 0056 2B88     	 ldrh r3,[r5]
 3113 0058 2168     	 ldr r1,[r4]
 3114 005a 5A1C     	 add r2,r3,#1
 3115 005c 2A80     	 strh r2,[r5]
 3116 005e 3278     	 ldrb r2,[r6]
 3117 0060 CB18     	 add r3,r1,r3
 3118 0062 5A73     	 strb r2,[r3,#13]
 3119 0064 04E0     	 b .L251
 3120              	.LVL305:
 3121              	.L249:
2519:C:/Workspace/DAVE-4.4.2-64Bit/optiga-trust-m/optiga/cmd\optiga_cmd.c ****                                                CMD_GEN_KEY_PAIR_EXPORT_KEY_LENGTH,
 3122              	 .loc 1 2519 0
 3123 0066 0720     	 mov r0,#7
 3124              	.LVL306:
 3125 0068 0021     	 mov r1,#0
 3126 006a 2B1C     	 mov r3,r5
 3127 006c FFF7FEFF 	 bl optiga_cmd_prepare_tag_header
 3128              	.LVL307:
 3129              	.L251:
2526:C:/Workspace/DAVE-4.4.2-64Bit/optiga-trust-m/optiga/cmd\optiga_cmd.c ****                                             (uint16_t)(index_for_data - OPTIGA_CMD_APDU_INDATA_OFFS
 3130              	 .loc 1 2526 0
 3131 0070 2B88     	 ldrh r3,[r5]
 3132              	.LBB152:
 3133              	.LBB153:
 421:C:/Workspace/DAVE-4.4.2-64Bit/optiga-trust-m/optiga/cmd\optiga_cmd.c ****     p_apdu_buffer [1] = param;
 3134              	 .loc 1 421 0
 3135 0072 B825     	 mov r5,#184
 3136              	.LBE153:
 3137              	.LBE152:
2526:C:/Workspace/DAVE-4.4.2-64Bit/optiga-trust-m/optiga/cmd\optiga_cmd.c ****                                             (uint16_t)(index_for_data - OPTIGA_CMD_APDU_INDATA_OFFS
 3138              	 .loc 1 2526 0
 3139 0074 191C     	 mov r1,r3
 3140 0076 207E     	 ldrb r0,[r4,#24]
2528:C:/Workspace/DAVE-4.4.2-64Bit/optiga-trust-m/optiga/cmd\optiga_cmd.c **** 
 3141              	 .loc 1 2528 0
 3142 0078 2268     	 ldr r2,[r4]
 3143              	.LVL308:
2526:C:/Workspace/DAVE-4.4.2-64Bit/optiga-trust-m/optiga/cmd\optiga_cmd.c ****                                             (uint16_t)(index_for_data - OPTIGA_CMD_APDU_INDATA_OFFS
 3144              	 .loc 1 2526 0
 3145 007a 0939     	 sub r1,r1,#9
 3146 007c 89B2     	 uxth r1,r1
 3147              	.LVL309:
 3148              	.LBB155:
 3149              	.LBB154:
 422:C:/Workspace/DAVE-4.4.2-64Bit/optiga-trust-m/optiga/cmd\optiga_cmd.c ****     p_apdu_buffer [2] = (uint8_t)((in_data_length & 0xFF00) >> 8);
 3150              	 .loc 1 422 0
 3151 007e D074     	 strb r0,[r2,#19]
 423:C:/Workspace/DAVE-4.4.2-64Bit/optiga-trust-m/optiga/cmd\optiga_cmd.c ****     p_apdu_buffer [3] = (uint8_t)(in_data_length & 0x00FF);
 3152              	 .loc 1 423 0
 3153 0080 080A     	 lsr r0,r1,#8
 3154              	.LVL310:
 3155 0082 1075     	 strb r0,[r2,#20]
 421:C:/Workspace/DAVE-4.4.2-64Bit/optiga-trust-m/optiga/cmd\optiga_cmd.c ****     p_apdu_buffer [1] = param;
 3156              	 .loc 1 421 0
 3157 0084 9574     	 strb r5,[r2,#18]
 424:C:/Workspace/DAVE-4.4.2-64Bit/optiga-trust-m/optiga/cmd\optiga_cmd.c **** }
 3158              	 .loc 1 424 0
 3159 0086 5175     	 strb r1,[r2,#21]
 3160              	.LBE154:
 3161              	.LBE155:
2530:C:/Workspace/DAVE-4.4.2-64Bit/optiga-trust-m/optiga/cmd\optiga_cmd.c ****             me->cmd_next_execution_state = OPTIGA_CMD_EXEC_PROCESS_RESPONSE;
 3162              	 .loc 1 2530 0
 3163 0088 2268     	 ldr r2,[r4]
 3164              	.LVL311:
 3165 008a 053B     	 sub r3,r3,#5
 3166 008c 9380     	 strh r3,[r2,#4]
2531:C:/Workspace/DAVE-4.4.2-64Bit/optiga-trust-m/optiga/cmd\optiga_cmd.c ****             return_status = OPTIGA_LIB_SUCCESS;
 3167              	 .loc 1 2531 0
 3168 008e 0923     	 mov r3,#9
2532:C:/Workspace/DAVE-4.4.2-64Bit/optiga-trust-m/optiga/cmd\optiga_cmd.c ****         }
 3169              	 .loc 1 2532 0
 3170 0090 0020     	 mov r0,#0
2531:C:/Workspace/DAVE-4.4.2-64Bit/optiga-trust-m/optiga/cmd\optiga_cmd.c ****             return_status = OPTIGA_LIB_SUCCESS;
 3171              	 .loc 1 2531 0
 3172 0092 A375     	 strb r3,[r4,#22]
 3173              	.LVL312:
2534:C:/Workspace/DAVE-4.4.2-64Bit/optiga-trust-m/optiga/cmd\optiga_cmd.c ****         case OPTIGA_CMD_EXEC_PROCESS_RESPONSE:
 3174              	 .loc 1 2534 0
 3175 0094 4BE0     	 b .L246
 3176              	.LVL313:
 3177              	.L248:
2539:C:/Workspace/DAVE-4.4.2-64Bit/optiga-trust-m/optiga/cmd\optiga_cmd.c ****             {
 3178              	 .loc 1 2539 0
 3179 0096 0068     	 ldr r0,[r0]
 3180              	.LVL314:
 3181 0098 837C     	 ldrb r3,[r0,#18]
 3182 009a FF2B     	 cmp r3,#255
 3183 009c 07D1     	 bne .L252
2542:C:/Workspace/DAVE-4.4.2-64Bit/optiga-trust-m/optiga/cmd\optiga_cmd.c ****                 SET_DEV_ERROR_NOTIFICATION(OPTIGA_CMD_EXIT_HANDLER_CALL);
 3184              	 .loc 1 2542 0
 3185 009e 0022     	 mov r2,#0
 3186 00a0 3369     	 ldr r3,[r6,#16]
 3187 00a2 1A80     	 strh r2,[r3]
2543:C:/Workspace/DAVE-4.4.2-64Bit/optiga-trust-m/optiga/cmd\optiga_cmd.c ****                 break;
 3188              	 .loc 1 2543 0
 3189 00a4 7F23     	 mov r3,#127
 3190 00a6 227F     	 ldrb r2,[r4,#28]
 3191 00a8 1340     	 and r3,r2
 3192 00aa 2377     	 strb r3,[r4,#28]
 3193 00ac 3EE0     	 b .L260
 3194              	.L252:
 3195              	.LVL315:
2546:C:/Workspace/DAVE-4.4.2-64Bit/optiga-trust-m/optiga/cmd\optiga_cmd.c ****             optiga_common_get_uint16(&me->p_optiga->optiga_comms_buffer[OPTIGA_CMD_APDU_INDATA_OFFS
 3196              	 .loc 1 2546 0
 3197 00ae 0025     	 mov r5,#0
2547:C:/Workspace/DAVE-4.4.2-64Bit/optiga-trust-m/optiga/cmd\optiga_cmd.c ****                                      &out_data_size);
 3198              	 .loc 1 2547 0
 3199 00b0 1430     	 add r0,r0,#20
 3200 00b2 01A9     	 add r1,sp,#4
 3201 00b4 FFF7FEFF 	 bl optiga_common_get_uint16
 3202              	.LVL316:
2475:C:/Workspace/DAVE-4.4.2-64Bit/optiga-trust-m/optiga/cmd\optiga_cmd.c **** 
 3203              	 .loc 1 2475 0
 3204 00b8 1D48     	 ldr r0,.L262
 3205              	.LVL317:
 3206              	.L253:
2550:C:/Workspace/DAVE-4.4.2-64Bit/optiga-trust-m/optiga/cmd\optiga_cmd.c ****             {
 3207              	 .loc 1 2550 0
 3208 00ba 6B46     	 mov r3,sp
 3209 00bc 9B88     	 ldrh r3,[r3,#4]
 3210 00be AB42     	 cmp r3,r5
 3211 00c0 35D9     	 bls .L246
2553:C:/Workspace/DAVE-4.4.2-64Bit/optiga-trust-m/optiga/cmd\optiga_cmd.c ****                 {
 3212              	 .loc 1 2553 0
 3213 00c2 2368     	 ldr r3,[r4]
 3214 00c4 5A19     	 add r2,r3,r5
 3215 00c6 927D     	 ldrb r2,[r2,#22]
2552:C:/Workspace/DAVE-4.4.2-64Bit/optiga-trust-m/optiga/cmd\optiga_cmd.c ****                     me->p_optiga->optiga_comms_buffer[OPTIGA_CMD_APDU_INDATA_OFFSET + header_offset
 3216              	 .loc 1 2552 0
 3217 00c8 022A     	 cmp r2,#2
 3218 00ca 19D1     	 bne .L254
2555:C:/Workspace/DAVE-4.4.2-64Bit/optiga-trust-m/optiga/cmd\optiga_cmd.c ****                                                 header_offset + OPTIGA_CMD_NO_OF_BYTES_IN_TAG], &pu
 3219              	 .loc 1 2555 0
 3220 00cc 5819     	 add r0,r3,r5
 3221              	.LVL318:
 3222 00ce 6B46     	 mov r3,sp
 3223 00d0 9F1D     	 add r7,r3,#6
 3224 00d2 391C     	 mov r1,r7
 3225 00d4 1730     	 add r0,r0,#23
 3226 00d6 FFF7FEFF 	 bl optiga_common_get_uint16
 3227              	.LVL319:
2557:C:/Workspace/DAVE-4.4.2-64Bit/optiga-trust-m/optiga/cmd\optiga_cmd.c ****                     {
 3228              	 .loc 1 2557 0
 3229 00da 3369     	 ldr r3,[r6,#16]
 3230 00dc 3A88     	 ldrh r2,[r7]
 3231 00de 1988     	 ldrh r1,[r3]
 3232 00e0 9142     	 cmp r1,r2
 3233 00e2 04D2     	 bcs .L255
 3234              	.LVL320:
2561:C:/Workspace/DAVE-4.4.2-64Bit/optiga-trust-m/optiga/cmd\optiga_cmd.c ****                         break;
 3235              	 .loc 1 2561 0
 3236 00e4 0022     	 mov r2,#0
2560:C:/Workspace/DAVE-4.4.2-64Bit/optiga-trust-m/optiga/cmd\optiga_cmd.c ****                         *p_optiga_ecc_gen_keypair->public_key_length = 0;
 3237              	 .loc 1 2560 0
 3238 00e6 8120     	 mov r0,#129
2561:C:/Workspace/DAVE-4.4.2-64Bit/optiga-trust-m/optiga/cmd\optiga_cmd.c ****                         break;
 3239              	 .loc 1 2561 0
 3240 00e8 1A80     	 strh r2,[r3]
2560:C:/Workspace/DAVE-4.4.2-64Bit/optiga-trust-m/optiga/cmd\optiga_cmd.c ****                         *p_optiga_ecc_gen_keypair->public_key_length = 0;
 3241              	 .loc 1 2560 0
 3242 00ea 8000     	 lsl r0,r0,#2
2562:C:/Workspace/DAVE-4.4.2-64Bit/optiga-trust-m/optiga/cmd\optiga_cmd.c ****                     }
 3243              	 .loc 1 2562 0
 3244 00ec 1FE0     	 b .L246
 3245              	.LVL321:
 3246              	.L255:
2564:C:/Workspace/DAVE-4.4.2-64Bit/optiga-trust-m/optiga/cmd\optiga_cmd.c ****                     pal_os_memcpy(p_optiga_ecc_gen_keypair->public_key,
 3247              	 .loc 1 2564 0
 3248 00ee 1A80     	 strh r2,[r3]
2565:C:/Workspace/DAVE-4.4.2-64Bit/optiga-trust-m/optiga/cmd\optiga_cmd.c ****                                   &me->p_optiga->optiga_comms_buffer[OPTIGA_CMD_APDU_INDATA_OFFSET 
 3249              	 .loc 1 2565 0
 3250 00f0 2368     	 ldr r3,[r4]
 3251 00f2 F068     	 ldr r0,[r6,#12]
 3252 00f4 5919     	 add r1,r3,r5
 3253 00f6 1931     	 add r1,r1,#25
 3254 00f8 FFF7FEFF 	 bl memcpy
 3255              	.LVL322:
 3256 00fc 3369     	 ldr r3,[r6,#16]
 3257 00fe 0FE0     	 b .L261
 3258              	.LVL323:
 3259              	.L254:
2573:C:/Workspace/DAVE-4.4.2-64Bit/optiga-trust-m/optiga/cmd\optiga_cmd.c ****                                                              header_offset])
 3260              	 .loc 1 2573 0
 3261 0100 012A     	 cmp r2,#1
 3262 0102 14D1     	 bne .L246
2576:C:/Workspace/DAVE-4.4.2-64Bit/optiga-trust-m/optiga/cmd\optiga_cmd.c ****                                              + OPTIGA_CMD_NO_OF_BYTES_IN_TAG], &private_key_length)
 3263              	 .loc 1 2576 0
 3264 0104 5819     	 add r0,r3,r5
 3265              	.LVL324:
 3266 0106 1730     	 add r0,r0,#23
 3267 0108 6946     	 mov r1,sp
 3268 010a FFF7FEFF 	 bl optiga_common_get_uint16
 3269              	.LVL325:
2579:C:/Workspace/DAVE-4.4.2-64Bit/optiga-trust-m/optiga/cmd\optiga_cmd.c ****                                   &me->p_optiga->optiga_comms_buffer[OPTIGA_CMD_APDU_INDATA_OFFSET 
 3270              	 .loc 1 2579 0
 3271 010e 6B46     	 mov r3,sp
 3272 0110 1A88     	 ldrh r2,[r3]
 3273 0112 2368     	 ldr r3,[r4]
 3274 0114 7068     	 ldr r0,[r6,#4]
 3275 0116 5919     	 add r1,r3,r5
 3276 0118 1931     	 add r1,r1,#25
 3277 011a FFF7FEFF 	 bl memcpy
 3278              	.LVL326:
 3279 011e 6B46     	 mov r3,sp
 3280              	.L261:
 3281 0120 1B88     	 ldrh r3,[r3]
 3282 0122 0020     	 mov r0,#0
 3283 0124 0333     	 add r3,r3,#3
2582:C:/Workspace/DAVE-4.4.2-64Bit/optiga-trust-m/optiga/cmd\optiga_cmd.c ****                     return_status = OPTIGA_LIB_SUCCESS;
 3284              	 .loc 1 2582 0
 3285 0126 ED18     	 add r5,r5,r3
 3286              	.LVL327:
 3287 0128 ADB2     	 uxth r5,r5
 3288              	.LVL328:
 3289 012a C6E7     	 b .L253
 3290              	.LVL329:
 3291              	.L260:
2475:C:/Workspace/DAVE-4.4.2-64Bit/optiga-trust-m/optiga/cmd\optiga_cmd.c **** 
 3292              	 .loc 1 2475 0
 3293 012c 0048     	 ldr r0,.L262
 3294              	.LVL330:
 3295              	.L246:
2598:C:/Workspace/DAVE-4.4.2-64Bit/optiga-trust-m/optiga/cmd\optiga_cmd.c **** 
 3296              	 .loc 1 2598 0
 3297              	 
 3298              	.LVL331:
 3299              	.LVL332:
 3300 012e FEBD     	 pop {r1,r2,r3,r4,r5,r6,r7,pc}
 3301              	.L263:
 3302              	 .align 2
 3303              	.L262:
 3304 0130 02020000 	 .word 514
 3305              	 .cfi_endproc
 3306              	.LFE43:
 3308              	 .section .text.optiga_cmd_encrypt_asym_handler,"ax",%progbits
 3309              	 .align 1
 3310              	 .code 16
 3311              	 .thumb_func
 3313              	optiga_cmd_encrypt_asym_handler:
 3314              	.LFB45:
2625:C:/Workspace/DAVE-4.4.2-64Bit/optiga-trust-m/optiga/cmd\optiga_cmd.c ****     uint16_t total_apdu_length;
 3315              	 .loc 1 2625 0
 3316              	 .cfi_startproc
 3317              	.LVL333:
2628:C:/Workspace/DAVE-4.4.2-64Bit/optiga-trust-m/optiga/cmd\optiga_cmd.c ****     optiga_lib_status_t return_status = OPTIGA_CMD_ERROR;
 3318              	 .loc 1 2628 0
 3319 0000 0923     	 mov r3,#9
2625:C:/Workspace/DAVE-4.4.2-64Bit/optiga-trust-m/optiga/cmd\optiga_cmd.c ****     uint16_t total_apdu_length;
 3320              	 .loc 1 2625 0
 3321 0002 F7B5     	 push {r0,r1,r2,r4,r5,r6,r7,lr}
 3322              	.LCFI15:
 3323              	 .cfi_def_cfa_offset 32
 3324              	 .cfi_offset 0,-32
 3325              	 .cfi_offset 1,-28
 3326              	 .cfi_offset 2,-24
 3327              	 .cfi_offset 4,-20
 3328              	 .cfi_offset 5,-16
 3329              	 .cfi_offset 6,-12
 3330              	 .cfi_offset 7,-8
 3331              	 .cfi_offset 14,-4
2628:C:/Workspace/DAVE-4.4.2-64Bit/optiga-trust-m/optiga/cmd\optiga_cmd.c ****     optiga_lib_status_t return_status = OPTIGA_CMD_ERROR;
 3332              	 .loc 1 2628 0
 3333 0004 01AC     	 add r4,sp,#4
 3334 0006 2380     	 strh r3,[r4]
2634:C:/Workspace/DAVE-4.4.2-64Bit/optiga-trust-m/optiga/cmd\optiga_cmd.c ****     {
 3335              	 .loc 1 2634 0
 3336 0008 837D     	 ldrb r3,[r0,#22]
2625:C:/Workspace/DAVE-4.4.2-64Bit/optiga-trust-m/optiga/cmd\optiga_cmd.c ****     uint16_t total_apdu_length;
 3337              	 .loc 1 2625 0
 3338 000a 061C     	 mov r6,r0
2627:C:/Workspace/DAVE-4.4.2-64Bit/optiga-trust-m/optiga/cmd\optiga_cmd.c ****     uint16_t index_for_data = OPTIGA_CMD_APDU_INDATA_OFFSET;
 3339              	 .loc 1 2627 0
 3340 000c 8568     	 ldr r5,[r0,#8]
 3341              	.LVL334:
2634:C:/Workspace/DAVE-4.4.2-64Bit/optiga-trust-m/optiga/cmd\optiga_cmd.c ****     {
 3342              	 .loc 1 2634 0
 3343 000e 082B     	 cmp r3,#8
 3344 0010 03D0     	 beq .L266
 3345 0012 092B     	 cmp r3,#9
 3346 0014 00D1     	 bne .LCB3338
 3347 0016 87E0     	 b .L267
 3348              	.LCB3338:
 3349 0018 AAE0     	 b .L282
 3350              	.L266:
 3351              	.LVL335:
2642:C:/Workspace/DAVE-4.4.2-64Bit/optiga-trust-m/optiga/cmd\optiga_cmd.c ****             {
 3352              	 .loc 1 2642 0
 3353 001a A868     	 ldr r0,[r5,#8]
 3354              	.LVL336:
2640:C:/Workspace/DAVE-4.4.2-64Bit/optiga-trust-m/optiga/cmd\optiga_cmd.c ****                                 OPTIGA_CMD_UINT16_SIZE_IN_BYTES);
 3355              	 .loc 1 2640 0
 3356 001c 0E23     	 mov r3,#14
2642:C:/Workspace/DAVE-4.4.2-64Bit/optiga-trust-m/optiga/cmd\optiga_cmd.c ****             {
 3357              	 .loc 1 2642 0
 3358 001e 0028     	 cmp r0,#0
 3359 0020 02D0     	 beq .L268
2645:C:/Workspace/DAVE-4.4.2-64Bit/optiga-trust-m/optiga/cmd\optiga_cmd.c ****             }
 3360              	 .loc 1 2645 0
 3361 0022 2B88     	 ldrh r3,[r5]
 3362 0024 0C33     	 add r3,r3,#12
 3363 0026 9BB2     	 uxth r3,r3
 3364              	.LVL337:
 3365              	.L268:
2647:C:/Workspace/DAVE-4.4.2-64Bit/optiga-trust-m/optiga/cmd\optiga_cmd.c ****             {
 3366              	 .loc 1 2647 0
 3367 0028 2A7B     	 ldrb r2,[r5,#12]
 3368 002a 002A     	 cmp r2,#0
 3369 002c 04D0     	 beq .L269
 3370 002e 2A69     	 ldr r2,[r5,#16]
 3371 0030 9288     	 ldrh r2,[r2,#4]
 3372 0032 0232     	 add r2,r2,#2
2651:C:/Workspace/DAVE-4.4.2-64Bit/optiga-trust-m/optiga/cmd\optiga_cmd.c ****             }
 3373              	 .loc 1 2651 0
 3374 0034 9B18     	 add r3,r3,r2
 3375              	.LVL338:
 3376 0036 9BB2     	 uxth r3,r3
 3377              	.LVL339:
 3378              	.L269:
2653:C:/Workspace/DAVE-4.4.2-64Bit/optiga-trust-m/optiga/cmd\optiga_cmd.c ****             {
 3379              	 .loc 1 2653 0
 3380 0038 4E4A     	 ldr r2,.L287
 3381 003a 9342     	 cmp r3,r2
 3382 003c 03D9     	 bls .L270
2655:C:/Workspace/DAVE-4.4.2-64Bit/optiga-trust-m/optiga/cmd\optiga_cmd.c ****                 return_status = OPTIGA_CMD_ERROR_MEMORY_INSUFFICIENT;
 3383              	 .loc 1 2655 0
 3384 003e 0022     	 mov r2,#0
 3385 0040 6B68     	 ldr r3,[r5,#4]
 3386 0042 1A80     	 strh r2,[r3]
 3387              	.LVL340:
 3388 0044 88E0     	 b .L285
 3389              	.LVL341:
 3390              	.L270:
 3391 0046 3268     	 ldr r2,[r6]
 3392 0048 2988     	 ldrh r1,[r5]
2666:C:/Workspace/DAVE-4.4.2-64Bit/optiga-trust-m/optiga/cmd\optiga_cmd.c ****                                               &index_for_data);
 3393              	 .loc 1 2666 0
 3394 004a 0D32     	 add r2,r2,#13
2661:C:/Workspace/DAVE-4.4.2-64Bit/optiga-trust-m/optiga/cmd\optiga_cmd.c ****             {
 3395              	 .loc 1 2661 0
 3396 004c 0028     	 cmp r0,#0
 3397 004e 10D1     	 bne .L271
2661:C:/Workspace/DAVE-4.4.2-64Bit/optiga-trust-m/optiga/cmd\optiga_cmd.c ****             {
 3398              	 .loc 1 2661 0 is_stmt 0 discriminator 1
 3399 0050 0029     	 cmp r1,#0
 3400 0052 0ED1     	 bne .L271
2664:C:/Workspace/DAVE-4.4.2-64Bit/optiga-trust-m/optiga/cmd\optiga_cmd.c ****                                               CMD_ENCRYPT_ASYM_SESSION_OID_LENGTH,
 3401              	 .loc 1 2664 0 is_stmt 1
 3402 0054 0230     	 add r0,r0,#2
 3403 0056 011C     	 mov r1,r0
 3404 0058 231C     	 mov r3,r4
 3405 005a FFF7FEFF 	 bl optiga_cmd_prepare_tag_header
 3406              	.LVL342:
2670:C:/Workspace/DAVE-4.4.2-64Bit/optiga-trust-m/optiga/cmd\optiga_cmd.c ****                 index_for_data += 2;
 3407              	 .loc 1 2670 0
 3408 005e 3368     	 ldr r3,[r6]
 3409 0060 2088     	 ldrh r0,[r4]
 3410 0062 B18A     	 ldrh r1,[r6,#20]
 3411 0064 1818     	 add r0,r3,r0
 3412 0066 0D30     	 add r0,r0,#13
 3413 0068 FFF7FEFF 	 bl optiga_common_set_uint16
 3414              	.LVL343:
2671:C:/Workspace/DAVE-4.4.2-64Bit/optiga-trust-m/optiga/cmd\optiga_cmd.c ****             }
 3415              	 .loc 1 2671 0
 3416 006c 2388     	 ldrh r3,[r4]
 3417 006e 0233     	 add r3,r3,#2
 3418 0070 0EE0     	 b .L283
 3419              	.L271:
2676:C:/Workspace/DAVE-4.4.2-64Bit/optiga-trust-m/optiga/cmd\optiga_cmd.c ****                                               p_optiga_encrypt_asym->message_length,
 3420              	 .loc 1 2676 0
 3421 0072 6120     	 mov r0,#97
 3422 0074 231C     	 mov r3,r4
 3423 0076 FFF7FEFF 	 bl optiga_cmd_prepare_tag_header
 3424              	.LVL344:
2681:C:/Workspace/DAVE-4.4.2-64Bit/optiga-trust-m/optiga/cmd\optiga_cmd.c ****                                 p_optiga_encrypt_asym->message,
 3425              	 .loc 1 2681 0
 3426 007a 3368     	 ldr r3,[r6]
 3427 007c 2088     	 ldrh r0,[r4]
 3428 007e 2A88     	 ldrh r2,[r5]
 3429 0080 1818     	 add r0,r3,r0
 3430 0082 0D30     	 add r0,r0,#13
 3431 0084 A968     	 ldr r1,[r5,#8]
 3432 0086 FFF7FEFF 	 bl memcpy
 3433              	.LVL345:
2684:C:/Workspace/DAVE-4.4.2-64Bit/optiga-trust-m/optiga/cmd\optiga_cmd.c **** 
 3434              	 .loc 1 2684 0
 3435 008a 2A88     	 ldrh r2,[r5]
 3436 008c 2388     	 ldrh r3,[r4]
 3437 008e D318     	 add r3,r2,r3
 3438              	.L283:
 3439 0090 2380     	 strh r3,[r4]
 3440 0092 3268     	 ldr r2,[r6]
2690:C:/Workspace/DAVE-4.4.2-64Bit/optiga-trust-m/optiga/cmd\optiga_cmd.c ****             {
 3441              	 .loc 1 2690 0
 3442 0094 2B7B     	 ldrb r3,[r5,#12]
2696:C:/Workspace/DAVE-4.4.2-64Bit/optiga-trust-m/optiga/cmd\optiga_cmd.c ****                                               &index_for_data);
 3443              	 .loc 1 2696 0
 3444 0096 0D32     	 add r2,r2,#13
2690:C:/Workspace/DAVE-4.4.2-64Bit/optiga-trust-m/optiga/cmd\optiga_cmd.c ****             {
 3445              	 .loc 1 2690 0
 3446 0098 002B     	 cmp r3,#0
 3447 009a 22D0     	 beq .L273
2694:C:/Workspace/DAVE-4.4.2-64Bit/optiga-trust-m/optiga/cmd\optiga_cmd.c ****                                               CMD_ENCRYPT_ASYM_ALGO_ID_LENGTH,
 3448              	 .loc 1 2694 0
 3449 009c 0520     	 mov r0,#5
 3450 009e 0121     	 mov r1,#1
 3451 00a0 231C     	 mov r3,r4
 3452 00a2 FFF7FEFF 	 bl optiga_cmd_prepare_tag_header
 3453              	.LVL346:
2699:C:/Workspace/DAVE-4.4.2-64Bit/optiga-trust-m/optiga/cmd\optiga_cmd.c **** 
 3454              	 .loc 1 2699 0
 3455 00a6 2388     	 ldrh r3,[r4]
 3456 00a8 3168     	 ldr r1,[r6]
 3457 00aa 5A1C     	 add r2,r3,#1
 3458 00ac 2280     	 strh r2,[r4]
 3459 00ae 2A69     	 ldr r2,[r5,#16]
 3460 00b0 CB18     	 add r3,r1,r3
 3461 00b2 9279     	 ldrb r2,[r2,#6]
2701:C:/Workspace/DAVE-4.4.2-64Bit/optiga-trust-m/optiga/cmd\optiga_cmd.c ****                                               PUBLIC_KEY_HOST->length,
 3462              	 .loc 1 2701 0
 3463 00b4 0620     	 mov r0,#6
2699:C:/Workspace/DAVE-4.4.2-64Bit/optiga-trust-m/optiga/cmd\optiga_cmd.c **** 
 3464              	 .loc 1 2699 0
 3465 00b6 5A73     	 strb r2,[r3,#13]
2701:C:/Workspace/DAVE-4.4.2-64Bit/optiga-trust-m/optiga/cmd\optiga_cmd.c ****                                               PUBLIC_KEY_HOST->length,
 3466              	 .loc 1 2701 0
 3467 00b8 2B69     	 ldr r3,[r5,#16]
2703:C:/Workspace/DAVE-4.4.2-64Bit/optiga-trust-m/optiga/cmd\optiga_cmd.c ****                                               &index_for_data);
 3468              	 .loc 1 2703 0
 3469 00ba 3268     	 ldr r2,[r6]
2701:C:/Workspace/DAVE-4.4.2-64Bit/optiga-trust-m/optiga/cmd\optiga_cmd.c ****                                               PUBLIC_KEY_HOST->length,
 3470              	 .loc 1 2701 0
 3471 00bc 9988     	 ldrh r1,[r3,#4]
2703:C:/Workspace/DAVE-4.4.2-64Bit/optiga-trust-m/optiga/cmd\optiga_cmd.c ****                                               &index_for_data);
 3472              	 .loc 1 2703 0
 3473 00be 0D32     	 add r2,r2,#13
2701:C:/Workspace/DAVE-4.4.2-64Bit/optiga-trust-m/optiga/cmd\optiga_cmd.c ****                                               PUBLIC_KEY_HOST->length,
 3474              	 .loc 1 2701 0
 3475 00c0 231C     	 mov r3,r4
 3476 00c2 FFF7FEFF 	 bl optiga_cmd_prepare_tag_header
 3477              	.LVL347:
2706:C:/Workspace/DAVE-4.4.2-64Bit/optiga-trust-m/optiga/cmd\optiga_cmd.c ****                               PUBLIC_KEY_HOST->public_key,
 3478              	 .loc 1 2706 0
 3479 00c6 3268     	 ldr r2,[r6]
 3480 00c8 2088     	 ldrh r0,[r4]
 3481 00ca 2B69     	 ldr r3,[r5,#16]
 3482 00cc 1018     	 add r0,r2,r0
 3483 00ce 1968     	 ldr r1,[r3]
 3484 00d0 9A88     	 ldrh r2,[r3,#4]
 3485 00d2 0D30     	 add r0,r0,#13
 3486 00d4 FFF7FEFF 	 bl memcpy
 3487              	.LVL348:
2710:C:/Workspace/DAVE-4.4.2-64Bit/optiga-trust-m/optiga/cmd\optiga_cmd.c **** #undef PUBLIC_KEY_HOST
 3488              	 .loc 1 2710 0
 3489 00d8 2B69     	 ldr r3,[r5,#16]
 3490 00da 9A88     	 ldrh r2,[r3,#4]
 3491 00dc 2388     	 ldrh r3,[r4]
 3492 00de D318     	 add r3,r2,r3
 3493 00e0 0EE0     	 b .L284
 3494              	.L273:
2716:C:/Workspace/DAVE-4.4.2-64Bit/optiga-trust-m/optiga/cmd\optiga_cmd.c ****                                               CMD_ENCRYPT_ASYM_PUB_KEY_CERT_OID_LENGTH,
 3495              	 .loc 1 2716 0
 3496 00e2 0420     	 mov r0,#4
 3497 00e4 0221     	 mov r1,#2
 3498 00e6 231C     	 mov r3,r4
 3499 00e8 FFF7FEFF 	 bl optiga_cmd_prepare_tag_header
 3500              	.LVL349:
2722:C:/Workspace/DAVE-4.4.2-64Bit/optiga-trust-m/optiga/cmd\optiga_cmd.c ****                                         *((uint16_t * )(p_optiga_encrypt_asym->key)));
 3501              	 .loc 1 2722 0
 3502 00ec 3368     	 ldr r3,[r6]
 3503 00ee 2088     	 ldrh r0,[r4]
 3504 00f0 1818     	 add r0,r3,r0
 3505 00f2 2B69     	 ldr r3,[r5,#16]
 3506 00f4 0D30     	 add r0,r0,#13
 3507 00f6 1988     	 ldrh r1,[r3]
 3508 00f8 FFF7FEFF 	 bl optiga_common_set_uint16
 3509              	.LVL350:
2724:C:/Workspace/DAVE-4.4.2-64Bit/optiga-trust-m/optiga/cmd\optiga_cmd.c ****             }
 3510              	 .loc 1 2724 0
 3511 00fc 2388     	 ldrh r3,[r4]
 3512 00fe 0233     	 add r3,r3,#2
 3513              	.L284:
 3514 0100 2380     	 strh r3,[r4]
2729:C:/Workspace/DAVE-4.4.2-64Bit/optiga-trust-m/optiga/cmd\optiga_cmd.c ****                                            me->cmd_param,
 3515              	 .loc 1 2729 0
 3516 0102 2388     	 ldrh r3,[r4]
 3517              	.LBB156:
 3518              	.LBB157:
 421:C:/Workspace/DAVE-4.4.2-64Bit/optiga-trust-m/optiga/cmd\optiga_cmd.c ****     p_apdu_buffer [1] = param;
 3519              	 .loc 1 421 0
 3520 0104 9E24     	 mov r4,#158
 3521              	.LBE157:
 3522              	.LBE156:
2729:C:/Workspace/DAVE-4.4.2-64Bit/optiga-trust-m/optiga/cmd\optiga_cmd.c ****                                            me->cmd_param,
 3523              	 .loc 1 2729 0
 3524 0106 191C     	 mov r1,r3
 3525 0108 307E     	 ldrb r0,[r6,#24]
2732:C:/Workspace/DAVE-4.4.2-64Bit/optiga-trust-m/optiga/cmd\optiga_cmd.c **** 
 3526              	 .loc 1 2732 0
 3527 010a 3268     	 ldr r2,[r6]
 3528              	.LVL351:
2729:C:/Workspace/DAVE-4.4.2-64Bit/optiga-trust-m/optiga/cmd\optiga_cmd.c ****                                            me->cmd_param,
 3529              	 .loc 1 2729 0
 3530 010c 0939     	 sub r1,r1,#9
 3531 010e 89B2     	 uxth r1,r1
 3532              	.LVL352:
 3533              	.LBB159:
 3534              	.LBB158:
 422:C:/Workspace/DAVE-4.4.2-64Bit/optiga-trust-m/optiga/cmd\optiga_cmd.c ****     p_apdu_buffer [2] = (uint8_t)((in_data_length & 0xFF00) >> 8);
 3535              	 .loc 1 422 0
 3536 0110 D074     	 strb r0,[r2,#19]
 423:C:/Workspace/DAVE-4.4.2-64Bit/optiga-trust-m/optiga/cmd\optiga_cmd.c ****     p_apdu_buffer [3] = (uint8_t)(in_data_length & 0x00FF);
 3537              	 .loc 1 423 0
 3538 0112 080A     	 lsr r0,r1,#8
 3539              	.LVL353:
 421:C:/Workspace/DAVE-4.4.2-64Bit/optiga-trust-m/optiga/cmd\optiga_cmd.c ****     p_apdu_buffer [1] = param;
 3540              	 .loc 1 421 0
 3541 0114 9474     	 strb r4,[r2,#18]
 423:C:/Workspace/DAVE-4.4.2-64Bit/optiga-trust-m/optiga/cmd\optiga_cmd.c ****     p_apdu_buffer [3] = (uint8_t)(in_data_length & 0x00FF);
 3542              	 .loc 1 423 0
 3543 0116 1075     	 strb r0,[r2,#20]
 424:C:/Workspace/DAVE-4.4.2-64Bit/optiga-trust-m/optiga/cmd\optiga_cmd.c **** }
 3544              	 .loc 1 424 0
 3545 0118 5175     	 strb r1,[r2,#21]
 3546              	.LBE158:
 3547              	.LBE159:
2734:C:/Workspace/DAVE-4.4.2-64Bit/optiga-trust-m/optiga/cmd\optiga_cmd.c ****             me->cmd_next_execution_state = OPTIGA_CMD_EXEC_PROCESS_RESPONSE;
 3548              	 .loc 1 2734 0
 3549 011a 3268     	 ldr r2,[r6]
 3550              	.LVL354:
 3551 011c 053B     	 sub r3,r3,#5
 3552 011e 9380     	 strh r3,[r2,#4]
2735:C:/Workspace/DAVE-4.4.2-64Bit/optiga-trust-m/optiga/cmd\optiga_cmd.c ****             return_status = OPTIGA_LIB_SUCCESS;
 3553              	 .loc 1 2735 0
 3554 0120 0923     	 mov r3,#9
 3555 0122 B375     	 strb r3,[r6,#22]
 3556              	.LVL355:
 3557              	.L286:
2736:C:/Workspace/DAVE-4.4.2-64Bit/optiga-trust-m/optiga/cmd\optiga_cmd.c ****         }
 3558              	 .loc 1 2736 0
 3559 0124 0020     	 mov r0,#0
2738:C:/Workspace/DAVE-4.4.2-64Bit/optiga-trust-m/optiga/cmd\optiga_cmd.c ****         case OPTIGA_CMD_EXEC_PROCESS_RESPONSE:
 3560              	 .loc 1 2738 0
 3561 0126 24E0     	 b .L265
 3562              	.LVL356:
 3563              	.L267:
2743:C:/Workspace/DAVE-4.4.2-64Bit/optiga-trust-m/optiga/cmd\optiga_cmd.c ****             {
 3564              	 .loc 1 2743 0
 3565 0128 0068     	 ldr r0,[r0]
 3566              	.LVL357:
 3567 012a 847C     	 ldrb r4,[r0,#18]
 3568 012c 002C     	 cmp r4,#0
 3569 012e 07D0     	 beq .L275
2746:C:/Workspace/DAVE-4.4.2-64Bit/optiga-trust-m/optiga/cmd\optiga_cmd.c ****                 SET_DEV_ERROR_NOTIFICATION(OPTIGA_CMD_EXIT_HANDLER_CALL);
 3570              	 .loc 1 2746 0
 3571 0130 0022     	 mov r2,#0
 3572 0132 6B68     	 ldr r3,[r5,#4]
 3573 0134 1A80     	 strh r2,[r3]
2747:C:/Workspace/DAVE-4.4.2-64Bit/optiga-trust-m/optiga/cmd\optiga_cmd.c ****                 break;
 3574              	 .loc 1 2747 0
 3575 0136 7F23     	 mov r3,#127
 3576 0138 327F     	 ldrb r2,[r6,#28]
 3577 013a 1340     	 and r3,r2
 3578 013c 3377     	 strb r3,[r6,#28]
 3579 013e 17E0     	 b .L282
 3580              	.L275:
2750:C:/Workspace/DAVE-4.4.2-64Bit/optiga-trust-m/optiga/cmd\optiga_cmd.c ****                                      &out_data_size);
 3581              	 .loc 1 2750 0
 3582 0140 6B46     	 mov r3,sp
 3583 0142 9F1D     	 add r7,r3,#6
 3584 0144 391C     	 mov r1,r7
 3585 0146 1730     	 add r0,r0,#23
 3586 0148 FFF7FEFF 	 bl optiga_common_get_uint16
 3587              	.LVL358:
2752:C:/Workspace/DAVE-4.4.2-64Bit/optiga-trust-m/optiga/cmd\optiga_cmd.c ****             {
 3588              	 .loc 1 2752 0
 3589 014c 6B68     	 ldr r3,[r5,#4]
 3590 014e 3A88     	 ldrh r2,[r7]
 3591 0150 1988     	 ldrh r1,[r3]
 3592 0152 9142     	 cmp r1,r2
 3593 0154 03D2     	 bcs .L276
2755:C:/Workspace/DAVE-4.4.2-64Bit/optiga-trust-m/optiga/cmd\optiga_cmd.c ****                 return_status = OPTIGA_CMD_ERROR_MEMORY_INSUFFICIENT;
 3594              	 .loc 1 2755 0
 3595 0156 1C80     	 strh r4,[r3]
 3596              	.LVL359:
 3597              	.L285:
2756:C:/Workspace/DAVE-4.4.2-64Bit/optiga-trust-m/optiga/cmd\optiga_cmd.c ****                 break;
 3598              	 .loc 1 2756 0
 3599 0158 8120     	 mov r0,#129
 3600 015a 8000     	 lsl r0,r0,#2
2757:C:/Workspace/DAVE-4.4.2-64Bit/optiga-trust-m/optiga/cmd\optiga_cmd.c ****             }
 3601              	 .loc 1 2757 0
 3602 015c 09E0     	 b .L265
 3603              	.LVL360:
 3604              	.L276:
2760:C:/Workspace/DAVE-4.4.2-64Bit/optiga-trust-m/optiga/cmd\optiga_cmd.c ****                           &me->p_optiga->optiga_comms_buffer[OPTIGA_CMD_APDU_INDATA_OFFSET + OPTIGA
 3605              	 .loc 1 2760 0
 3606 015e 3168     	 ldr r1,[r6]
 3607 0160 6869     	 ldr r0,[r5,#20]
 3608 0162 1931     	 add r1,r1,#25
 3609 0164 FFF7FEFF 	 bl memcpy
 3610              	.LVL361:
2763:C:/Workspace/DAVE-4.4.2-64Bit/optiga-trust-m/optiga/cmd\optiga_cmd.c ****             OPTIGA_CMD_LOG_MESSAGE("Response of asymmetric encryption command is processed...");
 3611              	 .loc 1 2763 0
 3612 0168 3A88     	 ldrh r2,[r7]
 3613 016a 6B68     	 ldr r3,[r5,#4]
 3614 016c 1A80     	 strh r2,[r3]
 3615              	.LVL362:
 3616 016e D9E7     	 b .L286
 3617              	.LVL363:
 3618              	.L282:
2629:C:/Workspace/DAVE-4.4.2-64Bit/optiga-trust-m/optiga/cmd\optiga_cmd.c ****     uint16_t out_data_size;
 3619              	 .loc 1 2629 0
 3620 0170 0148     	 ldr r0,.L287+4
 3621              	.LVL364:
 3622              	.L265:
2773:C:/Workspace/DAVE-4.4.2-64Bit/optiga-trust-m/optiga/cmd\optiga_cmd.c **** 
 3623              	 .loc 1 2773 0
 3624              	 
 3625              	.LVL365:
 3626              	.LVL366:
 3627 0172 FEBD     	 pop {r1,r2,r3,r4,r5,r6,r7,pc}
 3628              	.L288:
 3629              	 .align 2
 3630              	.L287:
 3631 0174 15060000 	 .word 1557
 3632 0178 02020000 	 .word 514
 3633              	 .cfi_endproc
 3634              	.LFE45:
 3636              	 .section .text.optiga_cmd_decrypt_asym_handler,"ax",%progbits
 3637              	 .align 1
 3638              	 .code 16
 3639              	 .thumb_func
 3641              	optiga_cmd_decrypt_asym_handler:
 3642              	.LFB47:
2797:C:/Workspace/DAVE-4.4.2-64Bit/optiga-trust-m/optiga/cmd\optiga_cmd.c ****     uint16_t total_apdu_length;
 3643              	 .loc 1 2797 0
 3644              	 .cfi_startproc
 3645              	.LVL367:
2801:C:/Workspace/DAVE-4.4.2-64Bit/optiga-trust-m/optiga/cmd\optiga_cmd.c ****     uint16_t out_data_size;
 3646              	 .loc 1 2801 0
 3647 0000 0923     	 mov r3,#9
2797:C:/Workspace/DAVE-4.4.2-64Bit/optiga-trust-m/optiga/cmd\optiga_cmd.c ****     uint16_t total_apdu_length;
 3648              	 .loc 1 2797 0
 3649 0002 73B5     	 push {r0,r1,r4,r5,r6,lr}
 3650              	.LCFI16:
 3651              	 .cfi_def_cfa_offset 24
 3652              	 .cfi_offset 0,-24
 3653              	 .cfi_offset 1,-20
 3654              	 .cfi_offset 4,-16
 3655              	 .cfi_offset 5,-12
 3656              	 .cfi_offset 6,-8
 3657              	 .cfi_offset 14,-4
2801:C:/Workspace/DAVE-4.4.2-64Bit/optiga-trust-m/optiga/cmd\optiga_cmd.c ****     uint16_t out_data_size;
 3658              	 .loc 1 2801 0
 3659 0004 01AE     	 add r6,sp,#4
 3660 0006 3380     	 strh r3,[r6]
2804:C:/Workspace/DAVE-4.4.2-64Bit/optiga-trust-m/optiga/cmd\optiga_cmd.c ****     {
 3661              	 .loc 1 2804 0
 3662 0008 837D     	 ldrb r3,[r0,#22]
2797:C:/Workspace/DAVE-4.4.2-64Bit/optiga-trust-m/optiga/cmd\optiga_cmd.c ****     uint16_t total_apdu_length;
 3663              	 .loc 1 2797 0
 3664 000a 051C     	 mov r5,r0
2799:C:/Workspace/DAVE-4.4.2-64Bit/optiga-trust-m/optiga/cmd\optiga_cmd.c ****     optiga_lib_status_t return_status = OPTIGA_CMD_ERROR;
 3665              	 .loc 1 2799 0
 3666 000c 8468     	 ldr r4,[r0,#8]
 3667              	.LVL368:
2804:C:/Workspace/DAVE-4.4.2-64Bit/optiga-trust-m/optiga/cmd\optiga_cmd.c ****     {
 3668              	 .loc 1 2804 0
 3669 000e 082B     	 cmp r3,#8
 3670 0010 02D0     	 beq .L291
 3671 0012 092B     	 cmp r3,#9
 3672 0014 60D0     	 beq .L292
 3673 0016 8CE0     	 b .L308
 3674              	.L291:
2810:C:/Workspace/DAVE-4.4.2-64Bit/optiga-trust-m/optiga/cmd\optiga_cmd.c ****                                 OPTIGA_CMD_APDU_TL_LENGTH + OPTIGA_CMD_UINT16_SIZE_IN_BYTES +
 3675              	 .loc 1 2810 0
 3676 0018 6369     	 ldr r3,[r4,#20]
 3677 001a 2188     	 ldrh r1,[r4]
 3678 001c 0520     	 mov r0,#5
 3679              	.LVL369:
 3680 001e 002B     	 cmp r3,#0
 3681 0020 04D0     	 beq .L293
 3682 0022 6268     	 ldr r2,[r4,#4]
 3683 0024 5342     	 neg r3,r2
 3684 0026 5A41     	 adc r2,r2,r3
 3685 0028 5242     	 neg r2,r2
 3686 002a 1040     	 and r0,r2
 3687              	.L293:
 3688              	.LVL370:
 3689 002c 0B1C     	 mov r3,r1
 3690 002e 0C33     	 add r3,r3,#12
2810:C:/Workspace/DAVE-4.4.2-64Bit/optiga-trust-m/optiga/cmd\optiga_cmd.c ****                                 OPTIGA_CMD_APDU_TL_LENGTH + OPTIGA_CMD_UINT16_SIZE_IN_BYTES +
 3691              	 .loc 1 2810 0 is_stmt 0 discriminator 3
 3692 0030 C318     	 add r3,r0,r3
2815:C:/Workspace/DAVE-4.4.2-64Bit/optiga-trust-m/optiga/cmd\optiga_cmd.c ****             {
 3693              	 .loc 1 2815 0 is_stmt 1 discriminator 3
 3694 0032 424A     	 ldr r2,.L311
 3695 0034 9BB2     	 uxth r3,r3
 3696 0036 9342     	 cmp r3,r2
 3697 0038 03D9     	 bls .L294
2817:C:/Workspace/DAVE-4.4.2-64Bit/optiga-trust-m/optiga/cmd\optiga_cmd.c ****                 {
 3698              	 .loc 1 2817 0
 3699 003a 6368     	 ldr r3,[r4,#4]
 3700 003c 002B     	 cmp r3,#0
 3701 003e 6BD1     	 bne .L310
 3702 0040 79E0     	 b .L302
 3703              	.L294:
2827:C:/Workspace/DAVE-4.4.2-64Bit/optiga-trust-m/optiga/cmd\optiga_cmd.c ****                                           &index_for_data);
 3704              	 .loc 1 2827 0
 3705 0042 2A68     	 ldr r2,[r5]
2825:C:/Workspace/DAVE-4.4.2-64Bit/optiga-trust-m/optiga/cmd\optiga_cmd.c ****                                           p_optiga_decrypt_asym->message_length,
 3706              	 .loc 1 2825 0
 3707 0044 6120     	 mov r0,#97
 3708              	.LVL371:
2827:C:/Workspace/DAVE-4.4.2-64Bit/optiga-trust-m/optiga/cmd\optiga_cmd.c ****                                           &index_for_data);
 3709              	 .loc 1 2827 0
 3710 0046 0D32     	 add r2,r2,#13
2825:C:/Workspace/DAVE-4.4.2-64Bit/optiga-trust-m/optiga/cmd\optiga_cmd.c ****                                           p_optiga_decrypt_asym->message_length,
 3711              	 .loc 1 2825 0
 3712 0048 331C     	 mov r3,r6
 3713 004a FFF7FEFF 	 bl optiga_cmd_prepare_tag_header
 3714              	.LVL372:
2830:C:/Workspace/DAVE-4.4.2-64Bit/optiga-trust-m/optiga/cmd\optiga_cmd.c ****                           p_optiga_decrypt_asym->message,
 3715              	 .loc 1 2830 0
 3716 004e 2B68     	 ldr r3,[r5]
 3717 0050 3088     	 ldrh r0,[r6]
 3718 0052 2288     	 ldrh r2,[r4]
 3719 0054 1818     	 add r0,r3,r0
 3720 0056 A168     	 ldr r1,[r4,#8]
 3721 0058 0D30     	 add r0,r0,#13
 3722 005a FFF7FEFF 	 bl memcpy
 3723              	.LVL373:
2834:C:/Workspace/DAVE-4.4.2-64Bit/optiga-trust-m/optiga/cmd\optiga_cmd.c **** 
 3724              	 .loc 1 2834 0
 3725 005e 2288     	 ldrh r2,[r4]
 3726 0060 3388     	 ldrh r3,[r6]
2837:C:/Workspace/DAVE-4.4.2-64Bit/optiga-trust-m/optiga/cmd\optiga_cmd.c ****                                           CMD_DECRYPT_ASYM_DECRYPT_KEY_LENGTH,
 3727              	 .loc 1 2837 0
 3728 0062 0320     	 mov r0,#3
2834:C:/Workspace/DAVE-4.4.2-64Bit/optiga-trust-m/optiga/cmd\optiga_cmd.c **** 
 3729              	 .loc 1 2834 0
 3730 0064 D318     	 add r3,r2,r3
2839:C:/Workspace/DAVE-4.4.2-64Bit/optiga-trust-m/optiga/cmd\optiga_cmd.c ****                                           &index_for_data);
 3731              	 .loc 1 2839 0
 3732 0066 2A68     	 ldr r2,[r5]
2834:C:/Workspace/DAVE-4.4.2-64Bit/optiga-trust-m/optiga/cmd\optiga_cmd.c **** 
 3733              	 .loc 1 2834 0
 3734 0068 3380     	 strh r3,[r6]
2839:C:/Workspace/DAVE-4.4.2-64Bit/optiga-trust-m/optiga/cmd\optiga_cmd.c ****                                           &index_for_data);
 3735              	 .loc 1 2839 0
 3736 006a 0D32     	 add r2,r2,#13
2837:C:/Workspace/DAVE-4.4.2-64Bit/optiga-trust-m/optiga/cmd\optiga_cmd.c ****                                           CMD_DECRYPT_ASYM_DECRYPT_KEY_LENGTH,
 3737              	 .loc 1 2837 0
 3738 006c 0221     	 mov r1,#2
 3739 006e 331C     	 mov r3,r6
 3740 0070 FFF7FEFF 	 bl optiga_cmd_prepare_tag_header
 3741              	.LVL374:
2842:C:/Workspace/DAVE-4.4.2-64Bit/optiga-trust-m/optiga/cmd\optiga_cmd.c ****                                      (uint16_t)*((optiga_key_id_t*)p_optiga_decrypt_asym->key));
 3742              	 .loc 1 2842 0
 3743 0074 2B68     	 ldr r3,[r5]
 3744 0076 3088     	 ldrh r0,[r6]
 3745 0078 1818     	 add r0,r3,r0
 3746 007a 2369     	 ldr r3,[r4,#16]
 3747 007c 0D30     	 add r0,r0,#13
 3748 007e 1988     	 ldrh r1,[r3]
 3749 0080 FFF7FEFF 	 bl optiga_common_set_uint16
 3750              	.LVL375:
2844:C:/Workspace/DAVE-4.4.2-64Bit/optiga-trust-m/optiga/cmd\optiga_cmd.c **** 
 3751              	 .loc 1 2844 0
 3752 0084 3388     	 ldrh r3,[r6]
 3753 0086 0233     	 add r3,r3,#2
 3754 0088 3380     	 strh r3,[r6]
2846:C:/Workspace/DAVE-4.4.2-64Bit/optiga-trust-m/optiga/cmd\optiga_cmd.c ****                 (NULL == p_optiga_decrypt_asym->processed_message_length))
 3755              	 .loc 1 2846 0
 3756 008a 6369     	 ldr r3,[r4,#20]
 3757 008c 002B     	 cmp r3,#0
 3758 008e 13D1     	 bne .L295
2846:C:/Workspace/DAVE-4.4.2-64Bit/optiga-trust-m/optiga/cmd\optiga_cmd.c ****                 (NULL == p_optiga_decrypt_asym->processed_message_length))
 3759              	 .loc 1 2846 0 is_stmt 0 discriminator 1
 3760 0090 6368     	 ldr r3,[r4,#4]
 3761 0092 002B     	 cmp r3,#0
 3762 0094 10D1     	 bne .L295
2850:C:/Workspace/DAVE-4.4.2-64Bit/optiga-trust-m/optiga/cmd\optiga_cmd.c ****                                               CMD_DECRYPT_ASYM_SESSION_OID_LENGTH,
 3763              	 .loc 1 2850 0 is_stmt 1
 3764 0096 0220     	 mov r0,#2
2852:C:/Workspace/DAVE-4.4.2-64Bit/optiga-trust-m/optiga/cmd\optiga_cmd.c ****                                               &index_for_data);
 3765              	 .loc 1 2852 0
 3766 0098 2A68     	 ldr r2,[r5]
2850:C:/Workspace/DAVE-4.4.2-64Bit/optiga-trust-m/optiga/cmd\optiga_cmd.c ****                                               CMD_DECRYPT_ASYM_SESSION_OID_LENGTH,
 3767              	 .loc 1 2850 0
 3768 009a 011C     	 mov r1,r0
2852:C:/Workspace/DAVE-4.4.2-64Bit/optiga-trust-m/optiga/cmd\optiga_cmd.c ****                                               &index_for_data);
 3769              	 .loc 1 2852 0
 3770 009c 0D32     	 add r2,r2,#13
2850:C:/Workspace/DAVE-4.4.2-64Bit/optiga-trust-m/optiga/cmd\optiga_cmd.c ****                                               CMD_DECRYPT_ASYM_SESSION_OID_LENGTH,
 3771              	 .loc 1 2850 0
 3772 009e 331C     	 mov r3,r6
 3773 00a0 FFF7FEFF 	 bl optiga_cmd_prepare_tag_header
 3774              	.LVL376:
2855:C:/Workspace/DAVE-4.4.2-64Bit/optiga-trust-m/optiga/cmd\optiga_cmd.c ****                                          me->session_oid);
 3775              	 .loc 1 2855 0
 3776 00a4 2B68     	 ldr r3,[r5]
 3777 00a6 3088     	 ldrh r0,[r6]
 3778 00a8 A98A     	 ldrh r1,[r5,#20]
 3779 00aa 1818     	 add r0,r3,r0
 3780 00ac 0D30     	 add r0,r0,#13
 3781 00ae FFF7FEFF 	 bl optiga_common_set_uint16
 3782              	.LVL377:
2857:C:/Workspace/DAVE-4.4.2-64Bit/optiga-trust-m/optiga/cmd\optiga_cmd.c ****             }
 3783              	 .loc 1 2857 0
 3784 00b2 3388     	 ldrh r3,[r6]
 3785 00b4 0233     	 add r3,r3,#2
 3786 00b6 3380     	 strh r3,[r6]
 3787              	.L295:
2861:C:/Workspace/DAVE-4.4.2-64Bit/optiga-trust-m/optiga/cmd\optiga_cmd.c ****                                            me->cmd_param,
 3788              	 .loc 1 2861 0
 3789 00b8 3388     	 ldrh r3,[r6]
 3790              	.LBB160:
 3791              	.LBB161:
 421:C:/Workspace/DAVE-4.4.2-64Bit/optiga-trust-m/optiga/cmd\optiga_cmd.c ****     p_apdu_buffer [1] = param;
 3792              	 .loc 1 421 0
 3793 00ba 9F24     	 mov r4,#159
 3794              	.LVL378:
 3795              	.LBE161:
 3796              	.LBE160:
2861:C:/Workspace/DAVE-4.4.2-64Bit/optiga-trust-m/optiga/cmd\optiga_cmd.c ****                                            me->cmd_param,
 3797              	 .loc 1 2861 0
 3798 00bc 191C     	 mov r1,r3
 3799 00be 287E     	 ldrb r0,[r5,#24]
2864:C:/Workspace/DAVE-4.4.2-64Bit/optiga-trust-m/optiga/cmd\optiga_cmd.c **** 
 3800              	 .loc 1 2864 0
 3801 00c0 2A68     	 ldr r2,[r5]
 3802              	.LVL379:
2861:C:/Workspace/DAVE-4.4.2-64Bit/optiga-trust-m/optiga/cmd\optiga_cmd.c ****                                            me->cmd_param,
 3803              	 .loc 1 2861 0
 3804 00c2 0939     	 sub r1,r1,#9
 3805 00c4 89B2     	 uxth r1,r1
 3806              	.LVL380:
 3807              	.LBB163:
 3808              	.LBB162:
 422:C:/Workspace/DAVE-4.4.2-64Bit/optiga-trust-m/optiga/cmd\optiga_cmd.c ****     p_apdu_buffer [2] = (uint8_t)((in_data_length & 0xFF00) >> 8);
 3809              	 .loc 1 422 0
 3810 00c6 D074     	 strb r0,[r2,#19]
 423:C:/Workspace/DAVE-4.4.2-64Bit/optiga-trust-m/optiga/cmd\optiga_cmd.c ****     p_apdu_buffer [3] = (uint8_t)(in_data_length & 0x00FF);
 3811              	 .loc 1 423 0
 3812 00c8 080A     	 lsr r0,r1,#8
 3813              	.LVL381:
 421:C:/Workspace/DAVE-4.4.2-64Bit/optiga-trust-m/optiga/cmd\optiga_cmd.c ****     p_apdu_buffer [1] = param;
 3814              	 .loc 1 421 0
 3815 00ca 9474     	 strb r4,[r2,#18]
 423:C:/Workspace/DAVE-4.4.2-64Bit/optiga-trust-m/optiga/cmd\optiga_cmd.c ****     p_apdu_buffer [3] = (uint8_t)(in_data_length & 0x00FF);
 3816              	 .loc 1 423 0
 3817 00cc 1075     	 strb r0,[r2,#20]
 424:C:/Workspace/DAVE-4.4.2-64Bit/optiga-trust-m/optiga/cmd\optiga_cmd.c **** }
 3818              	 .loc 1 424 0
 3819 00ce 5175     	 strb r1,[r2,#21]
 3820              	.LBE162:
 3821              	.LBE163:
2866:C:/Workspace/DAVE-4.4.2-64Bit/optiga-trust-m/optiga/cmd\optiga_cmd.c ****             return_status = OPTIGA_LIB_SUCCESS;
 3822              	 .loc 1 2866 0
 3823 00d0 2A68     	 ldr r2,[r5]
 3824              	.LVL382:
 3825 00d2 053B     	 sub r3,r3,#5
 3826 00d4 9380     	 strh r3,[r2,#4]
 3827              	.LVL383:
 3828 00d6 2AE0     	 b .L309
 3829              	.LVL384:
 3830              	.L292:
2874:C:/Workspace/DAVE-4.4.2-64Bit/optiga-trust-m/optiga/cmd\optiga_cmd.c ****             {
 3831              	 .loc 1 2874 0
 3832 00d8 0368     	 ldr r3,[r0]
 3833 00da 9A7C     	 ldrb r2,[r3,#18]
 3834 00dc FF2A     	 cmp r2,#255
 3835 00de 09D1     	 bne .L296
2876:C:/Workspace/DAVE-4.4.2-64Bit/optiga-trust-m/optiga/cmd\optiga_cmd.c ****                 {
 3836              	 .loc 1 2876 0
 3837 00e0 6368     	 ldr r3,[r4,#4]
 3838 00e2 002B     	 cmp r3,#0
 3839 00e4 01D0     	 beq .L297
2878:C:/Workspace/DAVE-4.4.2-64Bit/optiga-trust-m/optiga/cmd\optiga_cmd.c ****                 }
 3840              	 .loc 1 2878 0
 3841 00e6 0022     	 mov r2,#0
 3842 00e8 1A80     	 strh r2,[r3]
 3843              	.L297:
2881:C:/Workspace/DAVE-4.4.2-64Bit/optiga-trust-m/optiga/cmd\optiga_cmd.c ****                 break;
 3844              	 .loc 1 2881 0
 3845 00ea 7F23     	 mov r3,#127
 3846 00ec 2A7F     	 ldrb r2,[r5,#28]
 3847 00ee 1340     	 and r3,r2
 3848 00f0 2B77     	 strb r3,[r5,#28]
 3849 00f2 1EE0     	 b .L308
 3850              	.L296:
2904:C:/Workspace/DAVE-4.4.2-64Bit/optiga-trust-m/optiga/cmd\optiga_cmd.c ****         }
 3851              	 .loc 1 2904 0
 3852 00f4 6069     	 ldr r0,[r4,#20]
 3853              	.LVL385:
2884:C:/Workspace/DAVE-4.4.2-64Bit/optiga-trust-m/optiga/cmd\optiga_cmd.c ****                 (NULL != p_optiga_decrypt_asym->processed_message_length))
 3854              	 .loc 1 2884 0
 3855 00f6 0028     	 cmp r0,#0
 3856 00f8 1FD0     	 beq .L290
2904:C:/Workspace/DAVE-4.4.2-64Bit/optiga-trust-m/optiga/cmd\optiga_cmd.c ****         }
 3857              	 .loc 1 2904 0 discriminator 1
 3858 00fa 6068     	 ldr r0,[r4,#4]
2884:C:/Workspace/DAVE-4.4.2-64Bit/optiga-trust-m/optiga/cmd\optiga_cmd.c ****                 (NULL != p_optiga_decrypt_asym->processed_message_length))
 3859              	 .loc 1 2884 0 discriminator 1
 3860 00fc 0028     	 cmp r0,#0
 3861 00fe 1CD0     	 beq .L290
2887:C:/Workspace/DAVE-4.4.2-64Bit/optiga-trust-m/optiga/cmd\optiga_cmd.c ****                                          OPTIGA_CMD_NO_OF_BYTES_IN_TAG], &out_data_size);
 3862              	 .loc 1 2887 0
 3863 0100 1733     	 add r3,r3,#23
 3864 0102 181C     	 mov r0,r3
 3865 0104 6B46     	 mov r3,sp
 3866 0106 9E1D     	 add r6,r3,#6
 3867 0108 311C     	 mov r1,r6
 3868 010a FFF7FEFF 	 bl optiga_common_get_uint16
 3869              	.LVL386:
2890:C:/Workspace/DAVE-4.4.2-64Bit/optiga-trust-m/optiga/cmd\optiga_cmd.c ****                 {
 3870              	 .loc 1 2890 0
 3871 010e 6368     	 ldr r3,[r4,#4]
 3872 0110 3288     	 ldrh r2,[r6]
 3873 0112 1988     	 ldrh r1,[r3]
 3874 0114 9142     	 cmp r1,r2
 3875 0116 02D2     	 bcs .L298
 3876              	.L310:
2893:C:/Workspace/DAVE-4.4.2-64Bit/optiga-trust-m/optiga/cmd\optiga_cmd.c ****                     return_status = OPTIGA_CMD_ERROR_MEMORY_INSUFFICIENT;
 3877              	 .loc 1 2893 0
 3878 0118 0022     	 mov r2,#0
 3879 011a 1A80     	 strh r2,[r3]
 3880              	.LVL387:
 3881 011c 0BE0     	 b .L302
 3882              	.LVL388:
 3883              	.L298:
2898:C:/Workspace/DAVE-4.4.2-64Bit/optiga-trust-m/optiga/cmd\optiga_cmd.c ****                               &me->p_optiga->optiga_comms_buffer[OPTIGA_CMD_APDU_INDATA_OFFSET + OP
 3884              	 .loc 1 2898 0
 3885 011e 2968     	 ldr r1,[r5]
 3886 0120 6069     	 ldr r0,[r4,#20]
 3887 0122 1931     	 add r1,r1,#25
 3888 0124 FFF7FEFF 	 bl memcpy
 3889              	.LVL389:
2901:C:/Workspace/DAVE-4.4.2-64Bit/optiga-trust-m/optiga/cmd\optiga_cmd.c ****             }
 3890              	 .loc 1 2901 0
 3891 0128 3288     	 ldrh r2,[r6]
 3892 012a 6368     	 ldr r3,[r4,#4]
 3893 012c 1A80     	 strh r2,[r3]
 3894              	.LVL390:
 3895              	.L309:
2904:C:/Workspace/DAVE-4.4.2-64Bit/optiga-trust-m/optiga/cmd\optiga_cmd.c ****         }
 3896              	 .loc 1 2904 0
 3897 012e 0020     	 mov r0,#0
 3898 0130 03E0     	 b .L290
 3899              	.LVL391:
 3900              	.L308:
2800:C:/Workspace/DAVE-4.4.2-64Bit/optiga-trust-m/optiga/cmd\optiga_cmd.c ****     uint16_t index_for_data = OPTIGA_CMD_APDU_INDATA_OFFSET;
 3901              	 .loc 1 2800 0
 3902 0132 0348     	 ldr r0,.L311+4
 3903              	.LVL392:
 3904 0134 01E0     	 b .L290
 3905              	.LVL393:
 3906              	.L302:
2821:C:/Workspace/DAVE-4.4.2-64Bit/optiga-trust-m/optiga/cmd\optiga_cmd.c ****                 break;
 3907              	 .loc 1 2821 0
 3908 0136 8120     	 mov r0,#129
 3909 0138 8000     	 lsl r0,r0,#2
 3910              	.LVL394:
 3911              	.L290:
2912:C:/Workspace/DAVE-4.4.2-64Bit/optiga-trust-m/optiga/cmd\optiga_cmd.c **** 
 3912              	 .loc 1 2912 0
 3913              	 
 3914              	.LVL395:
 3915 013a 76BD     	 pop {r1,r2,r4,r5,r6,pc}
 3916              	.L312:
 3917              	 .align 2
 3918              	.L311:
 3919 013c 15060000 	 .word 1557
 3920 0140 02020000 	 .word 514
 3921              	 .cfi_endproc
 3922              	.LFE47:
 3924              	 .section .text.optiga_cmd_calc_hash_handler,"ax",%progbits
 3925              	 .align 1
 3926              	 .code 16
 3927              	 .thumb_func
 3929              	optiga_cmd_calc_hash_handler:
 3930              	.LFB49:
2944:C:/Workspace/DAVE-4.4.2-64Bit/optiga-trust-m/optiga/cmd\optiga_cmd.c ****     optiga_calc_hash_params_t * p_optiga_calc_hash = (optiga_calc_hash_params_t *)me->p_input;
 3931              	 .loc 1 2944 0
 3932              	 .cfi_startproc
 3933              	.LVL396:
2946:C:/Workspace/DAVE-4.4.2-64Bit/optiga-trust-m/optiga/cmd\optiga_cmd.c ****     uint16_t out_data_size;
 3934              	 .loc 1 2946 0
 3935 0000 0923     	 mov r3,#9
2944:C:/Workspace/DAVE-4.4.2-64Bit/optiga-trust-m/optiga/cmd\optiga_cmd.c ****     optiga_calc_hash_params_t * p_optiga_calc_hash = (optiga_calc_hash_params_t *)me->p_input;
 3936              	 .loc 1 2944 0
 3937 0002 F0B5     	 push {r4,r5,r6,r7,lr}
 3938              	.LCFI17:
 3939              	 .cfi_def_cfa_offset 20
 3940              	 .cfi_offset 4,-20
 3941              	 .cfi_offset 5,-16
 3942              	 .cfi_offset 6,-12
 3943              	 .cfi_offset 7,-8
 3944              	 .cfi_offset 14,-4
 3945 0004 85B0     	 sub sp,sp,#20
 3946              	.LCFI18:
 3947              	 .cfi_def_cfa_offset 40
2946:C:/Workspace/DAVE-4.4.2-64Bit/optiga-trust-m/optiga/cmd\optiga_cmd.c ****     uint16_t out_data_size;
 3948              	 .loc 1 2946 0
 3949 0006 03AE     	 add r6,sp,#12
 3950 0008 3380     	 strh r3,[r6]
2951:C:/Workspace/DAVE-4.4.2-64Bit/optiga-trust-m/optiga/cmd\optiga_cmd.c ****     {
 3951              	 .loc 1 2951 0
 3952 000a 837D     	 ldrb r3,[r0,#22]
2944:C:/Workspace/DAVE-4.4.2-64Bit/optiga-trust-m/optiga/cmd\optiga_cmd.c ****     optiga_calc_hash_params_t * p_optiga_calc_hash = (optiga_calc_hash_params_t *)me->p_input;
 3953              	 .loc 1 2944 0
 3954 000c 051C     	 mov r5,r0
2945:C:/Workspace/DAVE-4.4.2-64Bit/optiga-trust-m/optiga/cmd\optiga_cmd.c ****     uint16_t index_for_data = OPTIGA_CMD_APDU_INDATA_OFFSET;
 3955              	 .loc 1 2945 0
 3956 000e 8468     	 ldr r4,[r0,#8]
 3957              	.LVL397:
2951:C:/Workspace/DAVE-4.4.2-64Bit/optiga-trust-m/optiga/cmd\optiga_cmd.c ****     {
 3958              	 .loc 1 2951 0
 3959 0010 082B     	 cmp r3,#8
 3960 0012 03D0     	 beq .L315
 3961 0014 092B     	 cmp r3,#9
 3962 0016 00D1     	 bne .LCB3968
 3963 0018 AEE0     	 b .L316
 3964              	.LCB3968:
 3965 001a E5E0     	 b .L328
 3966              	.L315:
2958:C:/Workspace/DAVE-4.4.2-64Bit/optiga-trust-m/optiga/cmd\optiga_cmd.c ****             p_optiga_calc_hash->chaining_status = FALSE;
 3967              	 .loc 1 2958 0
 3968 001c 0023     	 mov r3,#0
 3969 001e C375     	 strb r3,[r0,#23]
2959:C:/Workspace/DAVE-4.4.2-64Bit/optiga-trust-m/optiga/cmd\optiga_cmd.c **** 
 3970              	 .loc 1 2959 0
 3971 0020 2376     	 strb r3,[r4,#24]
2963:C:/Workspace/DAVE-4.4.2-64Bit/optiga-trust-m/optiga/cmd\optiga_cmd.c ****             {
 3972              	 .loc 1 2963 0
 3973 0022 6368     	 ldr r3,[r4,#4]
 3974 0024 0268     	 ldr r2,[r0]
 3975 0026 002B     	 cmp r3,#0
 3976 0028 32D0     	 beq .L317
2966:C:/Workspace/DAVE-4.4.2-64Bit/optiga-trust-m/optiga/cmd\optiga_cmd.c ****                  //lint --e{734} suppress "length_to_hash parameter is of uint16 type, while the ar
 3977              	 .loc 1 2966 0
 3978 002a 0A23     	 mov r3,#10
 3979 002c 3380     	 strh r3,[r6]
 3980 002e 237B     	 ldrb r3,[r4,#12]
2970:C:/Workspace/DAVE-4.4.2-64Bit/optiga-trust-m/optiga/cmd\optiga_cmd.c ****                                        p_optiga_calc_hash->apparent_context_size),(p_optiga_calc_ha
 3981              	 .loc 1 2970 0
 3982 0030 714F     	 ldr r7,.L341
2966:C:/Workspace/DAVE-4.4.2-64Bit/optiga-trust-m/optiga/cmd\optiga_cmd.c ****                  //lint --e{734} suppress "length_to_hash parameter is of uint16 type, while the ar
 3983              	 .loc 1 2966 0
 3984 0032 9375     	 strb r3,[r2,#22]
2970:C:/Workspace/DAVE-4.4.2-64Bit/optiga-trust-m/optiga/cmd\optiga_cmd.c ****                                        p_optiga_calc_hash->apparent_context_size),(p_optiga_calc_ha
 3985              	 .loc 1 2970 0
 3986 0034 6368     	 ldr r3,[r4,#4]
 3987 0036 2269     	 ldr r2,[r4,#16]
 3988 0038 5B68     	 ldr r3,[r3,#4]
 3989 003a 9B1A     	 sub r3,r3,r2
 3990 003c E269     	 ldr r2,[r4,#28]
 3991 003e BF1A     	 sub r7,r7,r2
 3992 0040 9F42     	 cmp r7,r3
 3993 0042 00D9     	 bls .L318
 3994 0044 1F1C     	 mov r7,r3
 3995              	.L318:
2974:C:/Workspace/DAVE-4.4.2-64Bit/optiga-trust-m/optiga/cmd\optiga_cmd.c ****                 index_for_data += OPTIGA_CMD_UINT16_SIZE_IN_BYTES;
 3996              	 .loc 1 2974 0
 3997 0046 2868     	 ldr r0,[r5]
 3998              	.LVL398:
2970:C:/Workspace/DAVE-4.4.2-64Bit/optiga-trust-m/optiga/cmd\optiga_cmd.c ****                                        p_optiga_calc_hash->apparent_context_size),(p_optiga_calc_ha
 3999              	 .loc 1 2970 0
 4000 0048 BBB2     	 uxth r3,r7
2974:C:/Workspace/DAVE-4.4.2-64Bit/optiga-trust-m/optiga/cmd\optiga_cmd.c ****                 index_for_data += OPTIGA_CMD_UINT16_SIZE_IN_BYTES;
 4001              	 .loc 1 2974 0
 4002 004a 191C     	 mov r1,r3
 4003 004c 1730     	 add r0,r0,#23
2970:C:/Workspace/DAVE-4.4.2-64Bit/optiga-trust-m/optiga/cmd\optiga_cmd.c ****                                        p_optiga_calc_hash->apparent_context_size),(p_optiga_calc_ha
 4004              	 .loc 1 2970 0
 4005 004e 0193     	 str r3,[sp,#4]
 4006              	.LVL399:
2974:C:/Workspace/DAVE-4.4.2-64Bit/optiga-trust-m/optiga/cmd\optiga_cmd.c ****                 index_for_data += OPTIGA_CMD_UINT16_SIZE_IN_BYTES;
 4007              	 .loc 1 2974 0
 4008 0050 FFF7FEFF 	 bl optiga_common_set_uint16
 4009              	.LVL400:
2975:C:/Workspace/DAVE-4.4.2-64Bit/optiga-trust-m/optiga/cmd\optiga_cmd.c **** 
 4010              	 .loc 1 2975 0
 4011 0054 3088     	 ldrh r0,[r6]
2977:C:/Workspace/DAVE-4.4.2-64Bit/optiga-trust-m/optiga/cmd\optiga_cmd.c ****                               p_optiga_calc_hash->p_hash_data->buffer + p_optiga_calc_hash->data_se
 4012              	 .loc 1 2977 0
 4013 0056 2B68     	 ldr r3,[r5]
2975:C:/Workspace/DAVE-4.4.2-64Bit/optiga-trust-m/optiga/cmd\optiga_cmd.c **** 
 4014              	 .loc 1 2975 0
 4015 0058 0230     	 add r0,r0,#2
 4016 005a 80B2     	 uxth r0,r0
 4017 005c 3080     	 strh r0,[r6]
2977:C:/Workspace/DAVE-4.4.2-64Bit/optiga-trust-m/optiga/cmd\optiga_cmd.c ****                               p_optiga_calc_hash->p_hash_data->buffer + p_optiga_calc_hash->data_se
 4018              	 .loc 1 2977 0
 4019 005e 1818     	 add r0,r3,r0
 4020 0060 6368     	 ldr r3,[r4,#4]
 4021 0062 BFB2     	 uxth r7,r7
 4022 0064 1968     	 ldr r1,[r3]
 4023 0066 2369     	 ldr r3,[r4,#16]
 4024 0068 3A1C     	 mov r2,r7
 4025 006a C918     	 add r1,r1,r3
 4026 006c 0D30     	 add r0,r0,#13
 4027 006e FFF7FEFF 	 bl memcpy
 4028              	.LVL401:
2980:C:/Workspace/DAVE-4.4.2-64Bit/optiga-trust-m/optiga/cmd\optiga_cmd.c **** 
 4029              	 .loc 1 2980 0
 4030 0072 3388     	 ldrh r3,[r6]
 4031 0074 019A     	 ldr r2,[sp,#4]
 4032 0076 D318     	 add r3,r2,r3
 4033 0078 3380     	 strh r3,[r6]
2982:C:/Workspace/DAVE-4.4.2-64Bit/optiga-trust-m/optiga/cmd\optiga_cmd.c ****                 if (p_optiga_calc_hash->data_sent != p_optiga_calc_hash->p_hash_data->length)
 4034              	 .loc 1 2982 0
 4035 007a 2369     	 ldr r3,[r4,#16]
 4036 007c FF18     	 add r7,r7,r3
2983:C:/Workspace/DAVE-4.4.2-64Bit/optiga-trust-m/optiga/cmd\optiga_cmd.c ****                 {
 4037              	 .loc 1 2983 0
 4038 007e 6368     	 ldr r3,[r4,#4]
2982:C:/Workspace/DAVE-4.4.2-64Bit/optiga-trust-m/optiga/cmd\optiga_cmd.c ****                 if (p_optiga_calc_hash->data_sent != p_optiga_calc_hash->p_hash_data->length)
 4039              	 .loc 1 2982 0
 4040 0080 2761     	 str r7,[r4,#16]
2983:C:/Workspace/DAVE-4.4.2-64Bit/optiga-trust-m/optiga/cmd\optiga_cmd.c ****                 {
 4041              	 .loc 1 2983 0
 4042 0082 5B68     	 ldr r3,[r3,#4]
 4043 0084 9F42     	 cmp r7,r3
 4044 0086 31D0     	 beq .L319
2985:C:/Workspace/DAVE-4.4.2-64Bit/optiga-trust-m/optiga/cmd\optiga_cmd.c ****                     p_optiga_calc_hash->chaining_status = TRUE;
 4045              	 .loc 1 2985 0
 4046 0088 0123     	 mov r3,#1
 4047 008a EB75     	 strb r3,[r5,#23]
2986:C:/Workspace/DAVE-4.4.2-64Bit/optiga-trust-m/optiga/cmd\optiga_cmd.c ****                 }
 4048              	 .loc 1 2986 0
 4049 008c 2376     	 strb r3,[r4,#24]
 4050 008e 2DE0     	 b .L319
 4051              	.LVL402:
 4052              	.L317:
2989:C:/Workspace/DAVE-4.4.2-64Bit/optiga-trust-m/optiga/cmd\optiga_cmd.c ****             {
 4053              	 .loc 1 2989 0
 4054 0090 2168     	 ldr r1,[r4]
 4055 0092 207B     	 ldrb r0,[r4,#12]
 4056              	.LVL403:
2994:C:/Workspace/DAVE-4.4.2-64Bit/optiga-trust-m/optiga/cmd\optiga_cmd.c ****                                               (uint16_t*)&index_for_data);
 4057              	 .loc 1 2994 0
 4058 0094 0D32     	 add r2,r2,#13
2989:C:/Workspace/DAVE-4.4.2-64Bit/optiga-trust-m/optiga/cmd\optiga_cmd.c ****             {
 4059              	 .loc 1 2989 0
 4060 0096 0029     	 cmp r1,#0
 4061 0098 25D0     	 beq .L320
2992:C:/Workspace/DAVE-4.4.2-64Bit/optiga-trust-m/optiga/cmd\optiga_cmd.c ****                                               OPTIGA_CMD_OID_DATA_LENGTH,
 4062              	 .loc 1 2992 0
 4063 009a 0621     	 mov r1,#6
 4064 009c 331C     	 mov r3,r6
 4065 009e FFF7FEFF 	 bl optiga_cmd_prepare_tag_header
 4066              	.LVL404:
2997:C:/Workspace/DAVE-4.4.2-64Bit/optiga-trust-m/optiga/cmd\optiga_cmd.c ****                                           p_optiga_calc_hash->p_hash_oid->oid);
 4067              	 .loc 1 2997 0
 4068 00a2 2B68     	 ldr r3,[r5]
 4069 00a4 3088     	 ldrh r0,[r6]
 4070 00a6 1818     	 add r0,r3,r0
 4071 00a8 2368     	 ldr r3,[r4]
 4072 00aa 0D30     	 add r0,r0,#13
 4073 00ac 1988     	 ldrh r1,[r3]
 4074 00ae FFF7FEFF 	 bl optiga_common_set_uint16
 4075              	.LVL405:
2999:C:/Workspace/DAVE-4.4.2-64Bit/optiga-trust-m/optiga/cmd\optiga_cmd.c ****                 optiga_common_set_uint16((me->p_optiga->optiga_comms_buffer + index_for_data),
 4076              	 .loc 1 2999 0
 4077 00b2 3088     	 ldrh r0,[r6]
3000:C:/Workspace/DAVE-4.4.2-64Bit/optiga-trust-m/optiga/cmd\optiga_cmd.c ****                                           p_optiga_calc_hash->p_hash_oid->offset);
 4078              	 .loc 1 3000 0
 4079 00b4 2B68     	 ldr r3,[r5]
2999:C:/Workspace/DAVE-4.4.2-64Bit/optiga-trust-m/optiga/cmd\optiga_cmd.c ****                 optiga_common_set_uint16((me->p_optiga->optiga_comms_buffer + index_for_data),
 4080              	 .loc 1 2999 0
 4081 00b6 0230     	 add r0,r0,#2
 4082 00b8 80B2     	 uxth r0,r0
 4083 00ba 3080     	 strh r0,[r6]
3000:C:/Workspace/DAVE-4.4.2-64Bit/optiga-trust-m/optiga/cmd\optiga_cmd.c ****                                           p_optiga_calc_hash->p_hash_oid->offset);
 4084              	 .loc 1 3000 0
 4085 00bc 1818     	 add r0,r3,r0
 4086 00be 2368     	 ldr r3,[r4]
 4087 00c0 0D30     	 add r0,r0,#13
 4088 00c2 5988     	 ldrh r1,[r3,#2]
 4089 00c4 FFF7FEFF 	 bl optiga_common_set_uint16
 4090              	.LVL406:
3002:C:/Workspace/DAVE-4.4.2-64Bit/optiga-trust-m/optiga/cmd\optiga_cmd.c ****                 optiga_common_set_uint16((me->p_optiga->optiga_comms_buffer + index_for_data),
 4091              	 .loc 1 3002 0
 4092 00c8 3088     	 ldrh r0,[r6]
3003:C:/Workspace/DAVE-4.4.2-64Bit/optiga-trust-m/optiga/cmd\optiga_cmd.c ****                                           p_optiga_calc_hash->p_hash_oid->length);
 4093              	 .loc 1 3003 0
 4094 00ca 2B68     	 ldr r3,[r5]
3002:C:/Workspace/DAVE-4.4.2-64Bit/optiga-trust-m/optiga/cmd\optiga_cmd.c ****                 optiga_common_set_uint16((me->p_optiga->optiga_comms_buffer + index_for_data),
 4095              	 .loc 1 3002 0
 4096 00cc 0230     	 add r0,r0,#2
 4097 00ce 80B2     	 uxth r0,r0
 4098 00d0 3080     	 strh r0,[r6]
3003:C:/Workspace/DAVE-4.4.2-64Bit/optiga-trust-m/optiga/cmd\optiga_cmd.c ****                                           p_optiga_calc_hash->p_hash_oid->length);
 4099              	 .loc 1 3003 0
 4100 00d2 1818     	 add r0,r3,r0
 4101 00d4 2368     	 ldr r3,[r4]
 4102 00d6 0D30     	 add r0,r0,#13
 4103 00d8 9988     	 ldrh r1,[r3,#4]
 4104 00da FFF7FEFF 	 bl optiga_common_set_uint16
 4105              	.LVL407:
3005:C:/Workspace/DAVE-4.4.2-64Bit/optiga-trust-m/optiga/cmd\optiga_cmd.c ****             }
 4106              	 .loc 1 3005 0
 4107 00de 3388     	 ldrh r3,[r6]
 4108 00e0 0233     	 add r3,r3,#2
 4109 00e2 3380     	 strh r3,[r6]
 4110 00e4 02E0     	 b .L319
 4111              	.L320:
3009:C:/Workspace/DAVE-4.4.2-64Bit/optiga-trust-m/optiga/cmd\optiga_cmd.c ****                                                OPTIGA_CMD_ZERO_LENGTH_OR_VALUE,
 4112              	 .loc 1 3009 0
 4113 00e6 331C     	 mov r3,r6
 4114 00e8 FFF7FEFF 	 bl optiga_cmd_prepare_tag_header
 4115              	.LVL408:
 4116              	.L319:
3015:C:/Workspace/DAVE-4.4.2-64Bit/optiga-trust-m/optiga/cmd\optiga_cmd.c ****                 (0 != p_optiga_calc_hash->apparent_context_size))
 4117              	 .loc 1 3015 0
 4118 00ec A368     	 ldr r3,[r4,#8]
 4119 00ee 002B     	 cmp r3,#0
 4120 00f0 24D0     	 beq .L321
3015:C:/Workspace/DAVE-4.4.2-64Bit/optiga-trust-m/optiga/cmd\optiga_cmd.c ****                 (0 != p_optiga_calc_hash->apparent_context_size))
 4121              	 .loc 1 3015 0 is_stmt 0 discriminator 1
 4122 00f2 E369     	 ldr r3,[r4,#28]
 4123 00f4 002B     	 cmp r3,#0
 4124 00f6 21D0     	 beq .L321
3018:C:/Workspace/DAVE-4.4.2-64Bit/optiga-trust-m/optiga/cmd\optiga_cmd.c ****                 optiga_common_set_uint16((me->p_optiga->optiga_comms_buffer + index_for_data),
 4125              	 .loc 1 3018 0 is_stmt 1
 4126 00f8 3388     	 ldrh r3,[r6]
 4127 00fa 2A68     	 ldr r2,[r5]
 4128 00fc 581C     	 add r0,r3,#1
 4129 00fe D318     	 add r3,r2,r3
 4130 0100 0622     	 mov r2,#6
 4131 0102 80B2     	 uxth r0,r0
 4132 0104 3080     	 strh r0,[r6]
 4133 0106 5A73     	 strb r2,[r3,#13]
3019:C:/Workspace/DAVE-4.4.2-64Bit/optiga-trust-m/optiga/cmd\optiga_cmd.c ****                                           p_optiga_calc_hash->p_hash_context->context_buffer_length
 4134              	 .loc 1 3019 0
 4135 0108 2B68     	 ldr r3,[r5]
 4136 010a 1818     	 add r0,r3,r0
 4137 010c A368     	 ldr r3,[r4,#8]
 4138 010e 0D30     	 add r0,r0,#13
 4139 0110 9988     	 ldrh r1,[r3,#4]
 4140 0112 FFF7FEFF 	 bl optiga_common_set_uint16
 4141              	.LVL409:
3021:C:/Workspace/DAVE-4.4.2-64Bit/optiga-trust-m/optiga/cmd\optiga_cmd.c **** 
 4142              	 .loc 1 3021 0
 4143 0116 3088     	 ldrh r0,[r6]
3023:C:/Workspace/DAVE-4.4.2-64Bit/optiga-trust-m/optiga/cmd\optiga_cmd.c ****                               p_optiga_calc_hash->p_hash_context->context_buffer,
 4144              	 .loc 1 3023 0
 4145 0118 2A68     	 ldr r2,[r5]
3021:C:/Workspace/DAVE-4.4.2-64Bit/optiga-trust-m/optiga/cmd\optiga_cmd.c **** 
 4146              	 .loc 1 3021 0
 4147 011a 0230     	 add r0,r0,#2
3023:C:/Workspace/DAVE-4.4.2-64Bit/optiga-trust-m/optiga/cmd\optiga_cmd.c ****                               p_optiga_calc_hash->p_hash_context->context_buffer,
 4148              	 .loc 1 3023 0
 4149 011c A368     	 ldr r3,[r4,#8]
3021:C:/Workspace/DAVE-4.4.2-64Bit/optiga-trust-m/optiga/cmd\optiga_cmd.c **** 
 4150              	 .loc 1 3021 0
 4151 011e 80B2     	 uxth r0,r0
 4152 0120 3080     	 strh r0,[r6]
3023:C:/Workspace/DAVE-4.4.2-64Bit/optiga-trust-m/optiga/cmd\optiga_cmd.c ****                               p_optiga_calc_hash->p_hash_context->context_buffer,
 4153              	 .loc 1 3023 0
 4154 0122 1018     	 add r0,r2,r0
 4155 0124 1968     	 ldr r1,[r3]
 4156 0126 9A88     	 ldrh r2,[r3,#4]
 4157 0128 0D30     	 add r0,r0,#13
 4158 012a FFF7FEFF 	 bl memcpy
 4159              	.LVL410:
3027:C:/Workspace/DAVE-4.4.2-64Bit/optiga-trust-m/optiga/cmd\optiga_cmd.c ****                 p_optiga_calc_hash->apparent_context_size = 0;
 4160              	 .loc 1 3027 0
 4161 012e A368     	 ldr r3,[r4,#8]
 4162 0130 9A88     	 ldrh r2,[r3,#4]
 4163 0132 3388     	 ldrh r3,[r6]
 4164 0134 D318     	 add r3,r2,r3
 4165 0136 3380     	 strh r3,[r6]
3028:C:/Workspace/DAVE-4.4.2-64Bit/optiga-trust-m/optiga/cmd\optiga_cmd.c ****             }
 4166              	 .loc 1 3028 0
 4167 0138 0023     	 mov r3,#0
 4168 013a E361     	 str r3,[r4,#28]
 4169              	.L321:
3032:C:/Workspace/DAVE-4.4.2-64Bit/optiga-trust-m/optiga/cmd\optiga_cmd.c ****                 (FALSE == me->chaining_ongoing))
 4170              	 .loc 1 3032 0
 4171 013c 237B     	 ldrb r3,[r4,#12]
 4172 013e 032B     	 cmp r3,#3
 4173 0140 08D0     	 beq .L322
3032:C:/Workspace/DAVE-4.4.2-64Bit/optiga-trust-m/optiga/cmd\optiga_cmd.c ****                 (FALSE == me->chaining_ongoing))
 4174              	 .loc 1 3032 0 is_stmt 0 discriminator 1
 4175 0142 E97D     	 ldrb r1,[r5,#23]
 4176 0144 0029     	 cmp r1,#0
 4177 0146 05D1     	 bne .L322
3037:C:/Workspace/DAVE-4.4.2-64Bit/optiga-trust-m/optiga/cmd\optiga_cmd.c ****                                               (uint16_t*)&index_for_data);
 4178              	 .loc 1 3037 0 is_stmt 1
 4179 0148 2A68     	 ldr r2,[r5]
3035:C:/Workspace/DAVE-4.4.2-64Bit/optiga-trust-m/optiga/cmd\optiga_cmd.c ****                                               OPTIGA_CMD_ZERO_LENGTH_OR_VALUE,
 4180              	 .loc 1 3035 0
 4181 014a 0720     	 mov r0,#7
3037:C:/Workspace/DAVE-4.4.2-64Bit/optiga-trust-m/optiga/cmd\optiga_cmd.c ****                                               (uint16_t*)&index_for_data);
 4182              	 .loc 1 3037 0
 4183 014c 0D32     	 add r2,r2,#13
3035:C:/Workspace/DAVE-4.4.2-64Bit/optiga-trust-m/optiga/cmd\optiga_cmd.c ****                                               OPTIGA_CMD_ZERO_LENGTH_OR_VALUE,
 4184              	 .loc 1 3035 0
 4185 014e 331C     	 mov r3,r6
 4186 0150 FFF7FEFF 	 bl optiga_cmd_prepare_tag_header
 4187              	.LVL411:
 4188              	.L322:
3042:C:/Workspace/DAVE-4.4.2-64Bit/optiga-trust-m/optiga/cmd\optiga_cmd.c ****                                            me->cmd_param,
 4189              	 .loc 1 3042 0
 4190 0154 3388     	 ldrh r3,[r6]
 4191              	.LBB164:
 4192              	.LBB165:
 421:C:/Workspace/DAVE-4.4.2-64Bit/optiga-trust-m/optiga/cmd\optiga_cmd.c ****     p_apdu_buffer [1] = param;
 4193              	 .loc 1 421 0
 4194 0156 B024     	 mov r4,#176
 4195              	.LVL412:
 4196              	.LBE165:
 4197              	.LBE164:
3042:C:/Workspace/DAVE-4.4.2-64Bit/optiga-trust-m/optiga/cmd\optiga_cmd.c ****                                            me->cmd_param,
 4198              	 .loc 1 3042 0
 4199 0158 191C     	 mov r1,r3
 4200 015a 287E     	 ldrb r0,[r5,#24]
3045:C:/Workspace/DAVE-4.4.2-64Bit/optiga-trust-m/optiga/cmd\optiga_cmd.c **** 
 4201              	 .loc 1 3045 0
 4202 015c 2A68     	 ldr r2,[r5]
 4203              	.LVL413:
3042:C:/Workspace/DAVE-4.4.2-64Bit/optiga-trust-m/optiga/cmd\optiga_cmd.c ****                                            me->cmd_param,
 4204              	 .loc 1 3042 0
 4205 015e 0939     	 sub r1,r1,#9
 4206 0160 89B2     	 uxth r1,r1
 4207              	.LVL414:
 4208              	.LBB167:
 4209              	.LBB166:
 422:C:/Workspace/DAVE-4.4.2-64Bit/optiga-trust-m/optiga/cmd\optiga_cmd.c ****     p_apdu_buffer [2] = (uint8_t)((in_data_length & 0xFF00) >> 8);
 4210              	 .loc 1 422 0
 4211 0162 D074     	 strb r0,[r2,#19]
 423:C:/Workspace/DAVE-4.4.2-64Bit/optiga-trust-m/optiga/cmd\optiga_cmd.c ****     p_apdu_buffer [3] = (uint8_t)(in_data_length & 0x00FF);
 4212              	 .loc 1 423 0
 4213 0164 080A     	 lsr r0,r1,#8
 4214              	.LVL415:
 421:C:/Workspace/DAVE-4.4.2-64Bit/optiga-trust-m/optiga/cmd\optiga_cmd.c ****     p_apdu_buffer [1] = param;
 4215              	 .loc 1 421 0
 4216 0166 9474     	 strb r4,[r2,#18]
 423:C:/Workspace/DAVE-4.4.2-64Bit/optiga-trust-m/optiga/cmd\optiga_cmd.c ****     p_apdu_buffer [3] = (uint8_t)(in_data_length & 0x00FF);
 4217              	 .loc 1 423 0
 4218 0168 1075     	 strb r0,[r2,#20]
 424:C:/Workspace/DAVE-4.4.2-64Bit/optiga-trust-m/optiga/cmd\optiga_cmd.c **** }
 4219              	 .loc 1 424 0
 4220 016a 5175     	 strb r1,[r2,#21]
 4221              	.LBE166:
 4222              	.LBE167:
3047:C:/Workspace/DAVE-4.4.2-64Bit/optiga-trust-m/optiga/cmd\optiga_cmd.c ****             me->cmd_next_execution_state = OPTIGA_CMD_EXEC_PROCESS_RESPONSE;
 4223              	 .loc 1 3047 0
 4224 016c 2A68     	 ldr r2,[r5]
 4225              	.LVL416:
 4226 016e 053B     	 sub r3,r3,#5
 4227 0170 9380     	 strh r3,[r2,#4]
3048:C:/Workspace/DAVE-4.4.2-64Bit/optiga-trust-m/optiga/cmd\optiga_cmd.c ****             return_status = OPTIGA_LIB_SUCCESS;
 4228              	 .loc 1 3048 0
 4229 0172 0923     	 mov r3,#9
 4230 0174 AB75     	 strb r3,[r5,#22]
 4231              	.LVL417:
 4232 0176 1AE0     	 b .L340
 4233              	.LVL418:
 4234              	.L316:
3056:C:/Workspace/DAVE-4.4.2-64Bit/optiga-trust-m/optiga/cmd\optiga_cmd.c ****             {
 4235              	 .loc 1 3056 0
 4236 0178 0068     	 ldr r0,[r0]
 4237              	.LVL419:
 4238 017a 837C     	 ldrb r3,[r0,#18]
 4239 017c FF2B     	 cmp r3,#255
 4240 017e 04D1     	 bne .L323
3059:C:/Workspace/DAVE-4.4.2-64Bit/optiga-trust-m/optiga/cmd\optiga_cmd.c ****                 break;
 4241              	 .loc 1 3059 0
 4242 0180 2A7F     	 ldrb r2,[r5,#28]
 4243 0182 803B     	 sub r3,r3,#128
 4244 0184 1340     	 and r3,r2
 4245 0186 2B77     	 strb r3,[r5,#28]
 4246 0188 2EE0     	 b .L328
 4247              	.L323:
3062:C:/Workspace/DAVE-4.4.2-64Bit/optiga-trust-m/optiga/cmd\optiga_cmd.c ****             {
 4248              	 .loc 1 3062 0
 4249 018a 237B     	 ldrb r3,[r4,#12]
 4250 018c 032B     	 cmp r3,#3
 4251 018e 10D1     	 bne .L324
3064:C:/Workspace/DAVE-4.4.2-64Bit/optiga-trust-m/optiga/cmd\optiga_cmd.c ****                 {
 4252              	 .loc 1 3064 0
 4253 0190 837D     	 ldrb r3,[r0,#22]
 4254 0192 012B     	 cmp r3,#1
 4255 0194 28D1     	 bne .L328
3068:C:/Workspace/DAVE-4.4.2-64Bit/optiga-trust-m/optiga/cmd\optiga_cmd.c ****                                          OPTIGA_CMD_NO_OF_BYTES_IN_TAG], &out_data_size);
 4256              	 .loc 1 3068 0
 4257 0196 02AB     	 add r3,sp,#8
 4258 0198 9E1D     	 add r6,r3,#6
 4259 019a 1730     	 add r0,r0,#23
 4260 019c 311C     	 mov r1,r6
 4261 019e FFF7FEFF 	 bl optiga_common_get_uint16
 4262              	.LVL420:
3071:C:/Workspace/DAVE-4.4.2-64Bit/optiga-trust-m/optiga/cmd\optiga_cmd.c ****                               &me->p_optiga->optiga_comms_buffer[OPTIGA_CMD_APDU_INDATA_OFFSET + OP
 4263              	 .loc 1 3071 0
 4264 01a2 2968     	 ldr r1,[r5]
 4265 01a4 6069     	 ldr r0,[r4,#20]
 4266 01a6 3288     	 ldrh r2,[r6]
 4267 01a8 1931     	 add r1,r1,#25
 4268 01aa FFF7FEFF 	 bl memcpy
 4269              	.LVL421:
 4270              	.L340:
3098:C:/Workspace/DAVE-4.4.2-64Bit/optiga-trust-m/optiga/cmd\optiga_cmd.c ****         }
 4271              	 .loc 1 3098 0
 4272 01ae 0026     	 mov r6,#0
 4273 01b0 1EE0     	 b .L314
 4274              	.LVL422:
 4275              	.L324:
3098:C:/Workspace/DAVE-4.4.2-64Bit/optiga-trust-m/optiga/cmd\optiga_cmd.c ****         }
 4276              	 .loc 1 3098 0 is_stmt 0 discriminator 1
 4277 01b2 0026     	 mov r6,#0
3075:C:/Workspace/DAVE-4.4.2-64Bit/optiga-trust-m/optiga/cmd\optiga_cmd.c ****                     (FALSE == p_optiga_calc_hash->chaining_status))
 4278              	 .loc 1 3075 0 is_stmt 1 discriminator 1
 4279 01b4 237E     	 ldrb r3,[r4,#24]
 4280 01b6 B342     	 cmp r3,r6
 4281 01b8 1AD1     	 bne .L314
3078:C:/Workspace/DAVE-4.4.2-64Bit/optiga-trust-m/optiga/cmd\optiga_cmd.c ****                 {
 4282              	 .loc 1 3078 0
 4283 01ba 837D     	 ldrb r3,[r0,#22]
 4284 01bc 062B     	 cmp r3,#6
 4285 01be 13D1     	 bne .L328
3083:C:/Workspace/DAVE-4.4.2-64Bit/optiga-trust-m/optiga/cmd\optiga_cmd.c ****                                          OPTIGA_CMD_NO_OF_BYTES_IN_TAG], &out_data_size);
 4286              	 .loc 1 3083 0
 4287 01c0 02AB     	 add r3,sp,#8
 4288 01c2 9F1D     	 add r7,r3,#6
 4289 01c4 391C     	 mov r1,r7
 4290 01c6 1730     	 add r0,r0,#23
 4291 01c8 FFF7FEFF 	 bl optiga_common_get_uint16
 4292              	.LVL423:
3085:C:/Workspace/DAVE-4.4.2-64Bit/optiga-trust-m/optiga/cmd\optiga_cmd.c ****                 {
 4293              	 .loc 1 3085 0
 4294 01cc A368     	 ldr r3,[r4,#8]
 4295 01ce 3A88     	 ldrh r2,[r7]
 4296 01d0 9988     	 ldrh r1,[r3,#4]
 4297 01d2 9142     	 cmp r1,r2
 4298 01d4 0AD3     	 bcc .L329
3092:C:/Workspace/DAVE-4.4.2-64Bit/optiga-trust-m/optiga/cmd\optiga_cmd.c ****                               &me->p_optiga->optiga_comms_buffer[OPTIGA_CMD_APDU_INDATA_OFFSET + OP
 4299              	 .loc 1 3092 0
 4300 01d6 2968     	 ldr r1,[r5]
 4301 01d8 1868     	 ldr r0,[r3]
 4302 01da 1931     	 add r1,r1,#25
 4303 01dc FFF7FEFF 	 bl memcpy
 4304              	.LVL424:
3095:C:/Workspace/DAVE-4.4.2-64Bit/optiga-trust-m/optiga/cmd\optiga_cmd.c ****             }
 4305              	 .loc 1 3095 0
 4306 01e0 A368     	 ldr r3,[r4,#8]
 4307 01e2 3A88     	 ldrh r2,[r7]
 4308 01e4 9A80     	 strh r2,[r3,#4]
 4309 01e6 03E0     	 b .L314
 4310              	.L328:
2949:C:/Workspace/DAVE-4.4.2-64Bit/optiga-trust-m/optiga/cmd\optiga_cmd.c **** 
 4311              	 .loc 1 2949 0
 4312 01e8 044E     	 ldr r6,.L341+4
 4313 01ea 01E0     	 b .L314
 4314              	.L329:
3088:C:/Workspace/DAVE-4.4.2-64Bit/optiga-trust-m/optiga/cmd\optiga_cmd.c ****                     break;
 4315              	 .loc 1 3088 0
 4316 01ec 8126     	 mov r6,#129
 4317 01ee B600     	 lsl r6,r6,#2
 4318              	.LVL425:
 4319              	.L314:
3106:C:/Workspace/DAVE-4.4.2-64Bit/optiga-trust-m/optiga/cmd\optiga_cmd.c **** 
 4320              	 .loc 1 3106 0
 4321 01f0 301C     	 mov r0,r6
 4322 01f2 05B0     	 add sp,sp,#20
 4323              	 
 4324              	.LVL426:
 4325              	.LVL427:
 4326 01f4 F0BD     	 pop {r4,r5,r6,r7,pc}
 4327              	.L342:
 4328 01f6 C046     	 .align 2
 4329              	.L341:
 4330 01f8 02060000 	 .word 1538
 4331 01fc 02020000 	 .word 514
 4332              	 .cfi_endproc
 4333              	.LFE49:
 4335              	 .section .text.optiga_cmd_close_application_handler,"ax",%progbits
 4336              	 .align 1
 4337              	 .code 16
 4338              	 .thumb_func
 4340              	optiga_cmd_close_application_handler:
 4341              	.LFB27:
1413:C:/Workspace/DAVE-4.4.2-64Bit/optiga-trust-m/optiga/cmd\optiga_cmd.c ****     uint16_t total_apdu_length;
 4342              	 .loc 1 1413 0
 4343              	 .cfi_startproc
 4344              	.LVL428:
 4345 0000 38B5     	 push {r3,r4,r5,lr}
 4346              	.LCFI19:
 4347              	 .cfi_def_cfa_offset 16
 4348              	 .cfi_offset 3,-16
 4349              	 .cfi_offset 4,-12
 4350              	 .cfi_offset 5,-8
 4351              	 .cfi_offset 14,-4
1417:C:/Workspace/DAVE-4.4.2-64Bit/optiga-trust-m/optiga/cmd\optiga_cmd.c ****     {
 4352              	 .loc 1 1417 0
 4353 0002 837D     	 ldrb r3,[r0,#22]
 4354 0004 082B     	 cmp r3,#8
 4355 0006 02D0     	 beq .L345
 4356 0008 092B     	 cmp r3,#9
 4357 000a 0CD0     	 beq .L346
 4358 000c 37E0     	 b .L361
 4359              	.L345:
 4360              	.LVL429:
1431:C:/Workspace/DAVE-4.4.2-64Bit/optiga-trust-m/optiga/cmd\optiga_cmd.c ****                                            me->cmd_param,
 4361              	 .loc 1 1431 0
 4362 000e 037E     	 ldrb r3,[r0,#24]
1434:C:/Workspace/DAVE-4.4.2-64Bit/optiga-trust-m/optiga/cmd\optiga_cmd.c **** 
 4363              	 .loc 1 1434 0
 4364 0010 0268     	 ldr r2,[r0]
 4365              	.LVL430:
 4366              	.LBB176:
 4367              	.LBB177:
 421:C:/Workspace/DAVE-4.4.2-64Bit/optiga-trust-m/optiga/cmd\optiga_cmd.c ****     p_apdu_buffer [1] = param;
 4368              	 .loc 1 421 0
 4369 0012 F121     	 mov r1,#241
 422:C:/Workspace/DAVE-4.4.2-64Bit/optiga-trust-m/optiga/cmd\optiga_cmd.c ****     p_apdu_buffer [2] = (uint8_t)((in_data_length & 0xFF00) >> 8);
 4370              	 .loc 1 422 0
 4371 0014 D374     	 strb r3,[r2,#19]
 423:C:/Workspace/DAVE-4.4.2-64Bit/optiga-trust-m/optiga/cmd\optiga_cmd.c ****     p_apdu_buffer [3] = (uint8_t)(in_data_length & 0x00FF);
 4372              	 .loc 1 423 0
 4373 0016 0023     	 mov r3,#0
 4374              	.LVL431:
 421:C:/Workspace/DAVE-4.4.2-64Bit/optiga-trust-m/optiga/cmd\optiga_cmd.c ****     p_apdu_buffer [1] = param;
 4375              	 .loc 1 421 0
 4376 0018 9174     	 strb r1,[r2,#18]
 423:C:/Workspace/DAVE-4.4.2-64Bit/optiga-trust-m/optiga/cmd\optiga_cmd.c ****     p_apdu_buffer [3] = (uint8_t)(in_data_length & 0x00FF);
 4377              	 .loc 1 423 0
 4378 001a 1375     	 strb r3,[r2,#20]
 424:C:/Workspace/DAVE-4.4.2-64Bit/optiga-trust-m/optiga/cmd\optiga_cmd.c **** }
 4379              	 .loc 1 424 0
 4380 001c 5375     	 strb r3,[r2,#21]
 4381              	.LBE177:
 4382              	.LBE176:
1436:C:/Workspace/DAVE-4.4.2-64Bit/optiga-trust-m/optiga/cmd\optiga_cmd.c ****             return_status = OPTIGA_LIB_SUCCESS;
 4383              	 .loc 1 1436 0
 4384 001e 0268     	 ldr r2,[r0]
 4385              	.LVL432:
 4386 0020 ED39     	 sub r1,r1,#237
 4387 0022 9180     	 strh r1,[r2,#4]
 4388              	.LVL433:
 4389 0024 21E0     	 b .L360
 4390              	.LVL434:
 4391              	.L346:
1444:C:/Workspace/DAVE-4.4.2-64Bit/optiga-trust-m/optiga/cmd\optiga_cmd.c ****             {
 4392              	 .loc 1 1444 0
 4393 0026 0168     	 ldr r1,[r0]
 4394 0028 8D7C     	 ldrb r5,[r1,#18]
 4395 002a 002D     	 cmp r5,#0
 4396 002c 04D0     	 beq .L347
1447:C:/Workspace/DAVE-4.4.2-64Bit/optiga-trust-m/optiga/cmd\optiga_cmd.c ****                 break;
 4397              	 .loc 1 1447 0
 4398 002e 7F23     	 mov r3,#127
 4399 0030 027F     	 ldrb r2,[r0,#28]
 4400 0032 1340     	 and r3,r2
 4401 0034 0377     	 strb r3,[r0,#28]
 4402 0036 22E0     	 b .L361
 4403              	.L347:
1450:C:/Workspace/DAVE-4.4.2-64Bit/optiga-trust-m/optiga/cmd\optiga_cmd.c ****             {
 4404              	 .loc 1 1450 0
 4405 0038 037E     	 ldrb r3,[r0,#24]
 4406 003a 041C     	 mov r4,r0
 4407 003c 002B     	 cmp r3,#0
 4408 003e 12D0     	 beq .L348
1452:C:/Workspace/DAVE-4.4.2-64Bit/optiga-trust-m/optiga/cmd\optiga_cmd.c ****                               me->p_optiga->optiga_comms_buffer + OPTIGA_CMD_APDU_INDATA_OFFSET,
 4409              	 .loc 1 1452 0
 4410 0040 D023     	 mov r3,#208
 4411 0042 DB00     	 lsl r3,r3,#3
 4412 0044 C818     	 add r0,r1,r3
 4413              	.LVL435:
 4414 0046 0822     	 mov r2,#8
 4415 0048 1631     	 add r1,r1,#22
 4416 004a FFF7FEFF 	 bl memcpy
 4417              	.LVL436:
 4418              	.LBB178:
 4419              	.LBB179:
 820:C:/Workspace/DAVE-4.4.2-64Bit/optiga-trust-m/optiga/cmd\optiga_cmd.c ****         {
 4420              	 .loc 1 820 0
 4421 004e 208C     	 ldrh r0,[r4,#32]
 4422 0050 0028     	 cmp r0,#0
 4423 0052 08D0     	 beq .L348
 824:C:/Workspace/DAVE-4.4.2-64Bit/optiga-trust-m/optiga/cmd\optiga_cmd.c ****                                                    sizeof(me->p_optiga->optiga_context_handle_buffe
 4424              	 .loc 1 824 0
 4425 0054 D022     	 mov r2,#208
 4426 0056 2368     	 ldr r3,[r4]
 4427 0058 D200     	 lsl r2,r2,#3
 4428 005a 9918     	 add r1,r3,r2
 823:C:/Workspace/DAVE-4.4.2-64Bit/optiga-trust-m/optiga/cmd\optiga_cmd.c ****                                                    me->p_optiga->optiga_context_handle_buffer,
 4429              	 .loc 1 823 0
 4430 005c 0822     	 mov r2,#8
 4431 005e FFF7FEFF 	 bl pal_os_datastore_write
 4432              	.LVL437:
 826:C:/Workspace/DAVE-4.4.2-64Bit/optiga-trust-m/optiga/cmd\optiga_cmd.c ****             {
 4433              	 .loc 1 826 0
 4434 0062 0028     	 cmp r0,#0
 4435 0064 03D1     	 bne .L350
 4436              	.LVL438:
 4437              	.L348:
 4438              	.LBE179:
 4439              	.LBE178:
1467:C:/Workspace/DAVE-4.4.2-64Bit/optiga-trust-m/optiga/cmd\optiga_cmd.c ****         }
 4440              	 .loc 1 1467 0
 4441 0066 0223     	 mov r3,#2
 4442 0068 E375     	 strb r3,[r4,#23]
 4443              	.LVL439:
 4444              	.L360:
1464:C:/Workspace/DAVE-4.4.2-64Bit/optiga-trust-m/optiga/cmd\optiga_cmd.c **** 
 4445              	 .loc 1 1464 0
 4446 006a 0020     	 mov r0,#0
1469:C:/Workspace/DAVE-4.4.2-64Bit/optiga-trust-m/optiga/cmd\optiga_cmd.c ****         default:
 4447              	 .loc 1 1469 0
 4448 006c 08E0     	 b .L359
 4449              	.LVL440:
 4450              	.L350:
 4451              	.LBB180:
 4452              	.LBB181:
1458:C:/Workspace/DAVE-4.4.2-64Bit/optiga-trust-m/optiga/cmd\optiga_cmd.c ****                                     sizeof(me->p_optiga->optiga_context_handle_buffer));
 4453              	 .loc 1 1458 0
 4454 006e D023     	 mov r3,#208
 4455 0070 2068     	 ldr r0,[r4]
 4456              	.LVL441:
 4457 0072 DB00     	 lsl r3,r3,#3
 4458 0074 C018     	 add r0,r0,r3
 4459 0076 291C     	 mov r1,r5
 4460 0078 0822     	 mov r2,#8
 4461 007a FFF7FEFF 	 bl memset
 4462              	.LVL442:
 4463              	.L361:
 4464 007e 0148     	 ldr r0,.L362
 4465              	.LVL443:
 4466              	.L359:
 4467              	.LBE181:
 4468              	.LBE180:
1475:C:/Workspace/DAVE-4.4.2-64Bit/optiga-trust-m/optiga/cmd\optiga_cmd.c **** 
 4469              	 .loc 1 1475 0
 4470              	 
 4471 0080 38BD     	 pop {r3,r4,r5,pc}
 4472              	.L363:
 4473 0082 C046     	 .align 2
 4474              	.L362:
 4475 0084 02020000 	 .word 514
 4476              	 .cfi_endproc
 4477              	.LFE27:
 4479              	 .section .text.optiga_cmd_open_application_handler,"ax",%progbits
 4480              	 .align 1
 4481              	 .code 16
 4482              	 .thumb_func
 4484              	optiga_cmd_open_application_handler:
 4485              	.LFB25:
1300:C:/Workspace/DAVE-4.4.2-64Bit/optiga-trust-m/optiga/cmd\optiga_cmd.c ****     uint16_t total_apdu_length;
 4486              	 .loc 1 1300 0
 4487              	 .cfi_startproc
 4488              	.LVL444:
 4489 0000 37B5     	 push {r0,r1,r2,r4,r5,lr}
 4490              	.LCFI20:
 4491              	 .cfi_def_cfa_offset 24
 4492              	 .cfi_offset 0,-24
 4493              	 .cfi_offset 1,-20
 4494              	 .cfi_offset 2,-16
 4495              	 .cfi_offset 4,-12
 4496              	 .cfi_offset 5,-8
 4497              	 .cfi_offset 14,-4
1304:C:/Workspace/DAVE-4.4.2-64Bit/optiga-trust-m/optiga/cmd\optiga_cmd.c ****     {
 4498              	 .loc 1 1304 0
 4499 0002 837D     	 ldrb r3,[r0,#22]
 4500 0004 082B     	 cmp r3,#8
 4501 0006 02D0     	 beq .L366
 4502 0008 092B     	 cmp r3,#9
 4503 000a 5FD0     	 beq .L367
 4504 000c 6BE0     	 b .L394
 4505              	.L366:
1320:C:/Workspace/DAVE-4.4.2-64Bit/optiga-trust-m/optiga/cmd\optiga_cmd.c ****             {
 4506              	 .loc 1 1320 0
 4507 000e 027E     	 ldrb r2,[r0,#24]
 4508 0010 041C     	 mov r4,r0
 4509              	.LVL445:
 4510 0012 002A     	 cmp r2,#0
 4511 0014 05D1     	 bne .L368
 4512              	.LVL446:
 4513              	.L375:
 4514              	.LBB188:
 4515              	.LBB189:
1330:C:/Workspace/DAVE-4.4.2-64Bit/optiga-trust-m/optiga/cmd\optiga_cmd.c ****                                            (sizeof(g_optiga_unique_application_identifier)) :
 4516              	 .loc 1 1330 0
 4517 0016 217E     	 ldrb r1,[r4,#24]
1328:C:/Workspace/DAVE-4.4.2-64Bit/optiga-trust-m/optiga/cmd\optiga_cmd.c ****                                            me->cmd_param,
 4518              	 .loc 1 1328 0
 4519 0018 1022     	 mov r2,#16
 4520 001a 0029     	 cmp r1,#0
 4521 001c 21D0     	 beq .L369
 4522 001e 1822     	 mov r2,#24
 4523 0020 1FE0     	 b .L369
 4524              	.LVL447:
 4525              	.L368:
 4526              	.LBE189:
 4527              	.LBE188:
 4528              	.LBB193:
 4529              	.LBB194:
 792:C:/Workspace/DAVE-4.4.2-64Bit/optiga-trust-m/optiga/cmd\optiga_cmd.c ****         {
 4530              	 .loc 1 792 0
 4531 0022 008C     	 ldrh r0,[r0,#32]
 4532              	.LVL448:
 4533 0024 0028     	 cmp r0,#0
 4534 0026 08D1     	 bne .L371
 4535              	.LVL449:
 4536              	.L374:
 804:C:/Workspace/DAVE-4.4.2-64Bit/optiga-trust-m/optiga/cmd\optiga_cmd.c ****             0 == optiga_common_get_uint32(&me->p_optiga->optiga_context_handle_buffer[4]))
 4537              	 .loc 1 804 0
 4538 0028 D022     	 mov r2,#208
 4539 002a 2368     	 ldr r3,[r4]
 4540 002c D200     	 lsl r2,r2,#3
 4541 002e 9818     	 add r0,r3,r2
 4542 0030 FFF7FEFF 	 bl optiga_common_get_uint32
 4543              	.LVL450:
 4544 0034 0028     	 cmp r0,#0
 4545 0036 EED1     	 bne .L375
 4546 0038 0BE0     	 b .L396
 4547              	.LVL451:
 4548              	.L371:
 794:C:/Workspace/DAVE-4.4.2-64Bit/optiga-trust-m/optiga/cmd\optiga_cmd.c ****             //Reading context handle secret from datastore
 4549              	 .loc 1 794 0
 4550 003a 6A46     	 mov r2,sp
 797:C:/Workspace/DAVE-4.4.2-64Bit/optiga-trust-m/optiga/cmd\optiga_cmd.c ****                                                   &context_handle_length);
 4551              	 .loc 1 797 0
 4552 003c D021     	 mov r1,#208
 794:C:/Workspace/DAVE-4.4.2-64Bit/optiga-trust-m/optiga/cmd\optiga_cmd.c ****             //Reading context handle secret from datastore
 4553              	 .loc 1 794 0
 4554 003e 0632     	 add r2,r2,#6
 4555 0040 1380     	 strh r3,[r2]
 797:C:/Workspace/DAVE-4.4.2-64Bit/optiga-trust-m/optiga/cmd\optiga_cmd.c ****                                                   &context_handle_length);
 4556              	 .loc 1 797 0
 4557 0042 2368     	 ldr r3,[r4]
 4558 0044 C900     	 lsl r1,r1,#3
 4559 0046 5918     	 add r1,r3,r1
 796:C:/Workspace/DAVE-4.4.2-64Bit/optiga-trust-m/optiga/cmd\optiga_cmd.c ****                                                   me->p_optiga->optiga_context_handle_buffer,
 4560              	 .loc 1 796 0
 4561 0048 FFF7FEFF 	 bl pal_os_datastore_read
 4562              	.LVL452:
 799:C:/Workspace/DAVE-4.4.2-64Bit/optiga-trust-m/optiga/cmd\optiga_cmd.c ****             {
 4563              	 .loc 1 799 0
 4564 004c 0028     	 cmp r0,#0
 4565 004e EBD0     	 beq .L374
 4566 0050 49E0     	 b .L394
 4567              	.LVL453:
 4568              	.L396:
 805:C:/Workspace/DAVE-4.4.2-64Bit/optiga-trust-m/optiga/cmd\optiga_cmd.c ****         {
 4569              	 .loc 1 805 0
 4570 0052 2368     	 ldr r3,[r4]
 4571 0054 254A     	 ldr r2,.L397
 4572 0056 9818     	 add r0,r3,r2
 4573 0058 FFF7FEFF 	 bl optiga_common_get_uint32
 4574              	.LVL454:
 804:C:/Workspace/DAVE-4.4.2-64Bit/optiga-trust-m/optiga/cmd\optiga_cmd.c ****             0 == optiga_common_get_uint32(&me->p_optiga->optiga_context_handle_buffer[4]))
 4575              	 .loc 1 804 0
 4576 005c 0028     	 cmp r0,#0
 4577 005e 42D0     	 beq .L394
 4578 0060 D9E7     	 b .L375
 4579              	.LVL455:
 4580              	.L369:
 4581              	.LBE194:
 4582              	.LBE193:
 4583              	.LBB195:
 4584              	.LBB192:
1334:C:/Workspace/DAVE-4.4.2-64Bit/optiga-trust-m/optiga/cmd\optiga_cmd.c **** 
 4585              	 .loc 1 1334 0
 4586 0062 2368     	 ldr r3,[r4]
 4587              	.LVL456:
 4588              	.LBB190:
 4589              	.LBB191:
 421:C:/Workspace/DAVE-4.4.2-64Bit/optiga-trust-m/optiga/cmd\optiga_cmd.c ****     p_apdu_buffer [1] = param;
 4590              	 .loc 1 421 0
 4591 0064 F020     	 mov r0,#240
 422:C:/Workspace/DAVE-4.4.2-64Bit/optiga-trust-m/optiga/cmd\optiga_cmd.c ****     p_apdu_buffer [2] = (uint8_t)((in_data_length & 0xFF00) >> 8);
 4592              	 .loc 1 422 0
 4593 0066 D974     	 strb r1,[r3,#19]
 423:C:/Workspace/DAVE-4.4.2-64Bit/optiga-trust-m/optiga/cmd\optiga_cmd.c ****     p_apdu_buffer [3] = (uint8_t)(in_data_length & 0x00FF);
 4594              	 .loc 1 423 0
 4595 0068 0021     	 mov r1,#0
 4596              	.LVL457:
 424:C:/Workspace/DAVE-4.4.2-64Bit/optiga-trust-m/optiga/cmd\optiga_cmd.c **** }
 4597              	 .loc 1 424 0
 4598 006a 5A75     	 strb r2,[r3,#21]
 423:C:/Workspace/DAVE-4.4.2-64Bit/optiga-trust-m/optiga/cmd\optiga_cmd.c ****     p_apdu_buffer [3] = (uint8_t)(in_data_length & 0x00FF);
 4599              	 .loc 1 423 0
 4600 006c 1975     	 strb r1,[r3,#20]
 421:C:/Workspace/DAVE-4.4.2-64Bit/optiga-trust-m/optiga/cmd\optiga_cmd.c ****     p_apdu_buffer [1] = param;
 4601              	 .loc 1 421 0
 4602 006e 9874     	 strb r0,[r3,#18]
 4603              	.LBE191:
 4604              	.LBE190:
1336:C:/Workspace/DAVE-4.4.2-64Bit/optiga-trust-m/optiga/cmd\optiga_cmd.c ****                           g_optiga_unique_application_identifier,
 4605              	 .loc 1 1336 0
 4606 0070 2068     	 ldr r0,[r4]
 4607 0072 1F49     	 ldr r1,.L397+4
 4608 0074 1630     	 add r0,r0,#22
 4609 0076 1022     	 mov r2,#16
 4610              	.LVL458:
 4611 0078 FFF7FEFF 	 bl memcpy
 4612              	.LVL459:
1339:C:/Workspace/DAVE-4.4.2-64Bit/optiga-trust-m/optiga/cmd\optiga_cmd.c ****             {
 4613              	 .loc 1 1339 0
 4614 007c 237E     	 ldrb r3,[r4,#24]
 4615 007e 002B     	 cmp r3,#0
 4616 0080 08D0     	 beq .L376
1341:C:/Workspace/DAVE-4.4.2-64Bit/optiga-trust-m/optiga/cmd\optiga_cmd.c ****                               sizeof(g_optiga_unique_application_identifier)],
 4617              	 .loc 1 1341 0
 4618 0082 2168     	 ldr r1,[r4]
 4619 0084 D023     	 mov r3,#208
 4620 0086 081C     	 mov r0,r1
 4621 0088 DB00     	 lsl r3,r3,#3
 4622 008a 2630     	 add r0,r0,#38
 4623 008c C918     	 add r1,r1,r3
 4624 008e 0822     	 mov r2,#8
 4625 0090 FFF7FEFF 	 bl memcpy
 4626              	.LVL460:
 4627              	.L376:
1347:C:/Workspace/DAVE-4.4.2-64Bit/optiga-trust-m/optiga/cmd\optiga_cmd.c ****                                            ((OPTIGA_CMD_PARAM_INITIALIZE_APP_CONTEXT == me->cmd_par
 4628              	 .loc 1 1347 0
 4629 0094 227E     	 ldrb r2,[r4,#24]
 4630 0096 2068     	 ldr r0,[r4]
 4631 0098 1423     	 mov r3,#20
 4632 009a 002A     	 cmp r2,#0
 4633 009c 00D0     	 beq .L377
 4634 009e 0833     	 add r3,r3,#8
 4635              	.L377:
 4636 00a0 8380     	 strh r3,[r0,#4]
1353:C:/Workspace/DAVE-4.4.2-64Bit/optiga-trust-m/optiga/cmd\optiga_cmd.c ****                           0,
 4637              	 .loc 1 1353 0
 4638 00a2 D023     	 mov r3,#208
1368:C:/Workspace/DAVE-4.4.2-64Bit/optiga-trust-m/optiga/cmd\optiga_cmd.c ****         }
 4639              	 .loc 1 1368 0
 4640 00a4 0025     	 mov r5,#0
1353:C:/Workspace/DAVE-4.4.2-64Bit/optiga-trust-m/optiga/cmd\optiga_cmd.c ****                           0,
 4641              	 .loc 1 1353 0
 4642 00a6 DB00     	 lsl r3,r3,#3
 4643 00a8 C018     	 add r0,r0,r3
 4644 00aa 0021     	 mov r1,#0
 4645 00ac 0822     	 mov r2,#8
 4646 00ae FFF7FEFF 	 bl memset
 4647              	.LVL461:
1356:C:/Workspace/DAVE-4.4.2-64Bit/optiga-trust-m/optiga/cmd\optiga_cmd.c ****             {
 4648              	 .loc 1 1356 0
 4649 00b2 208C     	 ldrh r0,[r4,#32]
 4650 00b4 A842     	 cmp r0,r5
 4651 00b6 17D0     	 beq .L365
1360:C:/Workspace/DAVE-4.4.2-64Bit/optiga-trust-m/optiga/cmd\optiga_cmd.c ****                                                        sizeof(me->p_optiga->optiga_context_handle_b
 4652              	 .loc 1 1360 0
 4653 00b8 D023     	 mov r3,#208
 4654 00ba 2168     	 ldr r1,[r4]
 4655 00bc DB00     	 lsl r3,r3,#3
 4656 00be C918     	 add r1,r1,r3
1359:C:/Workspace/DAVE-4.4.2-64Bit/optiga-trust-m/optiga/cmd\optiga_cmd.c ****                                                        me->p_optiga->optiga_context_handle_buffer,
 4657              	 .loc 1 1359 0
 4658 00c0 0822     	 mov r2,#8
 4659 00c2 FFF7FEFF 	 bl pal_os_datastore_write
 4660              	.LVL462:
1362:C:/Workspace/DAVE-4.4.2-64Bit/optiga-trust-m/optiga/cmd\optiga_cmd.c ****                 {
 4661              	 .loc 1 1362 0
 4662 00c6 A842     	 cmp r0,r5
 4663 00c8 0DD1     	 bne .L394
 4664 00ca 0DE0     	 b .L365
 4665              	.LVL463:
 4666              	.L367:
 4667              	.LBE192:
 4668              	.LBE195:
1375:C:/Workspace/DAVE-4.4.2-64Bit/optiga-trust-m/optiga/cmd\optiga_cmd.c ****             {
 4669              	 .loc 1 1375 0
 4670 00cc 0368     	 ldr r3,[r0]
 4671 00ce 9D7C     	 ldrb r5,[r3,#18]
 4672 00d0 002D     	 cmp r5,#0
 4673 00d2 04D0     	 beq .L379
1378:C:/Workspace/DAVE-4.4.2-64Bit/optiga-trust-m/optiga/cmd\optiga_cmd.c ****                 break;
 4674              	 .loc 1 1378 0
 4675 00d4 7F23     	 mov r3,#127
 4676 00d6 027F     	 ldrb r2,[r0,#28]
 4677 00d8 1340     	 and r3,r2
 4678 00da 0377     	 strb r3,[r0,#28]
 4679 00dc 03E0     	 b .L394
 4680              	.L379:
1382:C:/Workspace/DAVE-4.4.2-64Bit/optiga-trust-m/optiga/cmd\optiga_cmd.c **** #endif //OPTIGA_COMMS_SHIELDED_CONNECTION
 4681              	 .loc 1 1382 0
 4682 00de 3322     	 mov r2,#51
 4683 00e0 1B68     	 ldr r3,[r3]
 4684 00e2 1A74     	 strb r2,[r3,#16]
 4685              	.LVL464:
1388:C:/Workspace/DAVE-4.4.2-64Bit/optiga-trust-m/optiga/cmd\optiga_cmd.c ****         default:
 4686              	 .loc 1 1388 0
 4687 00e4 00E0     	 b .L365
 4688              	.LVL465:
 4689              	.L394:
1302:C:/Workspace/DAVE-4.4.2-64Bit/optiga-trust-m/optiga/cmd\optiga_cmd.c **** 
 4690              	 .loc 1 1302 0
 4691 00e6 034D     	 ldr r5,.L397+8
 4692              	.LVL466:
 4693              	.L365:
1394:C:/Workspace/DAVE-4.4.2-64Bit/optiga-trust-m/optiga/cmd\optiga_cmd.c **** 
 4694              	 .loc 1 1394 0
 4695 00e8 281C     	 mov r0,r5
 4696              	 
 4697              	.LVL467:
 4698 00ea 3EBD     	 pop {r1,r2,r3,r4,r5,pc}
 4699              	.L398:
 4700              	 .align 2
 4701              	.L397:
 4702 00ec 84060000 	 .word 1668
 4703 00f0 00000000 	 .word .LANCHOR0
 4704 00f4 02020000 	 .word 514
 4705              	 .cfi_endproc
 4706              	.LFE25:
 4708              	 .section .text.optiga_cmd_queue_scheduler,"ax",%progbits
 4709              	 .align 1
 4710              	 .code 16
 4711              	 .thumb_func
 4713              	optiga_cmd_queue_scheduler:
 4714              	.LFB12:
 608:C:/Workspace/DAVE-4.4.2-64Bit/optiga-trust-m/optiga/cmd\optiga_cmd.c ****     uint32_t reference_time_stamp = 0xFFFFFFFF;
 4715              	 .loc 1 608 0
 4716              	 .cfi_startproc
 4717              	.LVL468:
 617:C:/Workspace/DAVE-4.4.2-64Bit/optiga-trust-m/optiga/cmd\optiga_cmd.c **** 
 4718              	 .loc 1 617 0
 4719 0000 CF23     	 mov r3,#207
 608:C:/Workspace/DAVE-4.4.2-64Bit/optiga-trust-m/optiga/cmd\optiga_cmd.c ****     uint32_t reference_time_stamp = 0xFFFFFFFF;
 4720              	 .loc 1 608 0
 4721 0002 F0B5     	 push {r4,r5,r6,r7,lr}
 4722              	.LCFI21:
 4723              	 .cfi_def_cfa_offset 20
 4724              	 .cfi_offset 4,-20
 4725              	 .cfi_offset 5,-16
 4726              	 .cfi_offset 6,-12
 4727              	 .cfi_offset 7,-8
 4728              	 .cfi_offset 14,-4
 617:C:/Workspace/DAVE-4.4.2-64Bit/optiga-trust-m/optiga/cmd\optiga_cmd.c **** 
 4729              	 .loc 1 617 0
 4730 0004 DB00     	 lsl r3,r3,#3
 4731 0006 C358     	 ldr r3,[r0,r3]
 608:C:/Workspace/DAVE-4.4.2-64Bit/optiga-trust-m/optiga/cmd\optiga_cmd.c ****     uint32_t reference_time_stamp = 0xFFFFFFFF;
 4732              	 .loc 1 608 0
 4733 0008 8BB0     	 sub sp,sp,#44
 4734              	.LCFI22:
 4735              	 .cfi_def_cfa_offset 64
 617:C:/Workspace/DAVE-4.4.2-64Bit/optiga-trust-m/optiga/cmd\optiga_cmd.c **** 
 4736              	 .loc 1 617 0
 4737 000a 0493     	 str r3,[sp,#16]
 4738              	.LVL469:
 4739 000c 744B     	 ldr r3,.L445
 4740              	.LVL470:
 608:C:/Workspace/DAVE-4.4.2-64Bit/optiga-trust-m/optiga/cmd\optiga_cmd.c ****     uint32_t reference_time_stamp = 0xFFFFFFFF;
 4741              	 .loc 1 608 0
 4742 000e 041C     	 mov r4,r0
 4743 0010 C718     	 add r7,r0,r3
 4744 0012 744B     	 ldr r3,.L445+4
 617:C:/Workspace/DAVE-4.4.2-64Bit/optiga-trust-m/optiga/cmd\optiga_cmd.c **** 
 4745              	 .loc 1 617 0
 4746 0014 3A1C     	 mov r2,r7
 4747 0016 C318     	 add r3,r0,r3
 4748 0018 0393     	 str r3,[sp,#12]
 4749              	.LBB210:
 4750              	.LBB211:
 542:C:/Workspace/DAVE-4.4.2-64Bit/optiga-trust-m/optiga/cmd\optiga_cmd.c ****     uint8_t slot_value = 0;
 4751              	 .loc 1 542 0
 4752 001a 0023     	 mov r3,#0
 4753              	.LVL471:
 4754              	.L401:
 561:C:/Workspace/DAVE-4.4.2-64Bit/optiga-trust-m/optiga/cmd\optiga_cmd.c ****         {
 4755              	 .loc 1 561 0
 4756 001c 1178     	 ldrb r1,[r2]
 4757 001e 0229     	 cmp r1,#2
 4758 0020 01D1     	 bne .L400
 563:C:/Workspace/DAVE-4.4.2-64Bit/optiga-trust-m/optiga/cmd\optiga_cmd.c ****         }
 4759              	 .loc 1 563 0
 4760 0022 0133     	 add r3,r3,#1
 4761              	.LVL472:
 4762 0024 DBB2     	 uxtb r3,r3
 4763              	.LVL473:
 4764              	.L400:
 544:C:/Workspace/DAVE-4.4.2-64Bit/optiga-trust-m/optiga/cmd\optiga_cmd.c ****     {
 4765              	 .loc 1 544 0
 4766 0026 0399     	 ldr r1,[sp,#12]
 4767 0028 0C32     	 add r2,r2,#12
 4768              	.LVL474:
 4769 002a 8A42     	 cmp r2,r1
 4770 002c F6D1     	 bne .L401
 4771              	.LBE211:
 4772              	.LBE210:
 4773 002e 3A1C     	 mov r2,r7
 4774              	.LVL475:
 620:C:/Workspace/DAVE-4.4.2-64Bit/optiga-trust-m/optiga/cmd\optiga_cmd.c ****          (0 == optiga_cmd_queue_get_count_of(p_optiga_ctx, OPTIGA_CMD_QUEUE_SLOT_STATE, OPTIGA_CMD_
 4775              	 .loc 1 620 0
 4776 0030 002B     	 cmp r3,#0
 4777 0032 0CD1     	 bne .L430
 4778              	.LVL476:
 4779              	.L404:
 4780              	.LBB212:
 4781              	.LBB213:
 561:C:/Workspace/DAVE-4.4.2-64Bit/optiga-trust-m/optiga/cmd\optiga_cmd.c ****         {
 4782              	 .loc 1 561 0
 4783 0034 1178     	 ldrb r1,[r2]
 4784 0036 0829     	 cmp r1,#8
 4785 0038 01D1     	 bne .L403
 563:C:/Workspace/DAVE-4.4.2-64Bit/optiga-trust-m/optiga/cmd\optiga_cmd.c ****         }
 4786              	 .loc 1 563 0
 4787 003a 0133     	 add r3,r3,#1
 4788              	.LVL477:
 4789 003c DBB2     	 uxtb r3,r3
 4790              	.LVL478:
 4791              	.L403:
 544:C:/Workspace/DAVE-4.4.2-64Bit/optiga-trust-m/optiga/cmd\optiga_cmd.c ****     {
 4792              	 .loc 1 544 0
 4793 003e 0399     	 ldr r1,[sp,#12]
 4794 0040 0C32     	 add r2,r2,#12
 4795              	.LVL479:
 4796 0042 8A42     	 cmp r2,r1
 4797 0044 F6D1     	 bne .L404
 4798              	.LBE213:
 4799              	.LBE212:
 620:C:/Workspace/DAVE-4.4.2-64Bit/optiga-trust-m/optiga/cmd\optiga_cmd.c ****          (0 == optiga_cmd_queue_get_count_of(p_optiga_ctx, OPTIGA_CMD_QUEUE_SLOT_STATE, OPTIGA_CMD_
 4800              	 .loc 1 620 0
 4801 0046 002B     	 cmp r3,#0
 4802 0048 00D1     	 bne .LCB4853
 4803 004a A0E0     	 b .L443
 4804              	.LCB4853:
 4805 004c 3A1C     	 mov r2,r7
 4806              	.LVL480:
 4807              	.L430:
 4808 004e 0023     	 mov r3,#0
 4809              	.L402:
 4810              	.LVL481:
 4811              	.LBB214:
 4812              	.LBB215:
 561:C:/Workspace/DAVE-4.4.2-64Bit/optiga-trust-m/optiga/cmd\optiga_cmd.c ****         {
 4813              	 .loc 1 561 0
 4814 0050 1178     	 ldrb r1,[r2]
 4815 0052 0429     	 cmp r1,#4
 4816 0054 01D1     	 bne .L406
 563:C:/Workspace/DAVE-4.4.2-64Bit/optiga-trust-m/optiga/cmd\optiga_cmd.c ****         }
 4817              	 .loc 1 563 0
 4818 0056 0133     	 add r3,r3,#1
 4819              	.LVL482:
 4820 0058 DBB2     	 uxtb r3,r3
 4821              	.LVL483:
 4822              	.L406:
 544:C:/Workspace/DAVE-4.4.2-64Bit/optiga-trust-m/optiga/cmd\optiga_cmd.c ****     {
 4823              	 .loc 1 544 0
 4824 005a 0399     	 ldr r1,[sp,#12]
 4825 005c 0C32     	 add r2,r2,#12
 4826              	.LVL484:
 4827 005e 8A42     	 cmp r2,r1
 4828 0060 F6D1     	 bne .L402
 4829              	.LBE215:
 4830              	.LBE214:
 621:C:/Workspace/DAVE-4.4.2-64Bit/optiga-trust-m/optiga/cmd\optiga_cmd.c ****          ((1 == optiga_cmd_queue_get_count_of(p_optiga_ctx, OPTIGA_CMD_QUEUE_SLOT_STATE , OPTIGA_CM
 4831              	 .loc 1 621 0
 4832 0062 012B     	 cmp r3,#1
 4833 0064 10D1     	 bne .L407
 4834 0066 C723     	 mov r3,#199
 4835              	.LVL485:
 4836 0068 DB00     	 lsl r3,r3,#3
 4837 006a E218     	 add r2,r4,r3
 4838              	.LVL486:
 4839 006c 4833     	 add r3,r3,#72
 4840 006e E118     	 add r1,r4,r3
 4841 0070 0023     	 mov r3,#0
 4842              	.LVL487:
 4843              	.L409:
 4844              	.LBB216:
 4845              	.LBB217:
 561:C:/Workspace/DAVE-4.4.2-64Bit/optiga-trust-m/optiga/cmd\optiga_cmd.c ****         {
 4846              	 .loc 1 561 0
 4847 0072 1078     	 ldrb r0,[r2]
 4848 0074 2328     	 cmp r0,#35
 4849 0076 01D1     	 bne .L408
 563:C:/Workspace/DAVE-4.4.2-64Bit/optiga-trust-m/optiga/cmd\optiga_cmd.c ****         }
 4850              	 .loc 1 563 0
 4851 0078 0133     	 add r3,r3,#1
 4852              	.LVL488:
 4853 007a DBB2     	 uxtb r3,r3
 4854              	.LVL489:
 4855              	.L408:
 4856 007c 0C32     	 add r2,r2,#12
 4857              	.LVL490:
 544:C:/Workspace/DAVE-4.4.2-64Bit/optiga-trust-m/optiga/cmd\optiga_cmd.c ****     {
 4858              	 .loc 1 544 0
 4859 007e 8A42     	 cmp r2,r1
 4860 0080 F7D1     	 bne .L409
 4861              	.LBE217:
 4862              	.LBE216:
 622:C:/Workspace/DAVE-4.4.2-64Bit/optiga-trust-m/optiga/cmd\optiga_cmd.c ****          (0 < optiga_cmd_queue_get_count_of(p_optiga_ctx, OPTIGA_CMD_QUEUE_SLOT_LOCK_TYPE, OPTIGA_C
 4863              	 .loc 1 622 0
 4864 0082 002B     	 cmp r3,#0
 4865 0084 00D0     	 beq .LCB4930
 4866 0086 82E0     	 b .L443
 4867              	.LCB4930:
 4868              	.LVL491:
 4869              	.L407:
 631:C:/Workspace/DAVE-4.4.2-64Bit/optiga-trust-m/optiga/cmd\optiga_cmd.c ****         // continue checking if no context selected and overflow detected
 4870              	 .loc 1 631 0
 4871 0088 0498     	 ldr r0,[sp,#16]
 4872 008a FFF7FEFF 	 bl pal_os_event_stop
 4873              	.LVL492:
 609:C:/Workspace/DAVE-4.4.2-64Bit/optiga-trust-m/optiga/cmd\optiga_cmd.c ****     optiga_cmd_queue_slot_t * p_queue_entry;
 4874              	 .loc 1 609 0
 4875 008e 0123     	 mov r3,#1
 4876 0090 5B42     	 neg r3,r3
 4877 0092 0293     	 str r3,[sp,#8]
 4878              	.LVL493:
 4879              	.L411:
 4880 0094 C623     	 mov r3,#198
 4881 0096 DB00     	 lsl r3,r3,#3
 4882 0098 E518     	 add r5,r4,r3
 609:C:/Workspace/DAVE-4.4.2-64Bit/optiga-trust-m/optiga/cmd\optiga_cmd.c ****     optiga_cmd_queue_slot_t * p_queue_entry;
 4883              	 .loc 1 609 0 is_stmt 0 discriminator 1
 4884 009a 0026     	 mov r6,#0
 4885 009c FF23     	 mov r3,#255
 4886 009e 0696     	 str r6,[sp,#24]
 4887 00a0 0193     	 str r3,[sp,#4]
 4888              	.LVL494:
 4889              	.L420:
 4890 00a2 F3B2     	 uxtb r3,r6
 4891 00a4 0793     	 str r3,[sp,#28]
 4892              	.LVL495:
 645:C:/Workspace/DAVE-4.4.2-64Bit/optiga-trust-m/optiga/cmd\optiga_cmd.c **** 
 4893              	 .loc 1 645 0 is_stmt 1
 4894 00a6 3A1C     	 mov r2,r7
 4895              	.LBB218:
 4896              	.LBB219:
 542:C:/Workspace/DAVE-4.4.2-64Bit/optiga-trust-m/optiga/cmd\optiga_cmd.c ****     uint8_t slot_value = 0;
 4897              	 .loc 1 542 0
 4898 00a8 0023     	 mov r3,#0
 4899              	.LVL496:
 4900              	.L414:
 561:C:/Workspace/DAVE-4.4.2-64Bit/optiga-trust-m/optiga/cmd\optiga_cmd.c ****         {
 4901              	 .loc 1 561 0
 4902 00aa 1178     	 ldrb r1,[r2]
 4903 00ac 0829     	 cmp r1,#8
 4904 00ae 01D1     	 bne .L413
 563:C:/Workspace/DAVE-4.4.2-64Bit/optiga-trust-m/optiga/cmd\optiga_cmd.c ****         }
 4905              	 .loc 1 563 0
 4906 00b0 0133     	 add r3,r3,#1
 4907              	.LVL497:
 4908 00b2 DBB2     	 uxtb r3,r3
 4909              	.LVL498:
 4910              	.L413:
 544:C:/Workspace/DAVE-4.4.2-64Bit/optiga-trust-m/optiga/cmd\optiga_cmd.c ****     {
 4911              	 .loc 1 544 0
 4912 00b4 0399     	 ldr r1,[sp,#12]
 4913 00b6 0C32     	 add r2,r2,#12
 4914              	.LVL499:
 4915 00b8 8A42     	 cmp r2,r1
 4916 00ba F6D1     	 bne .L414
 4917              	.LBE219:
 4918              	.LBE218:
 648:C:/Workspace/DAVE-4.4.2-64Bit/optiga-trust-m/optiga/cmd\optiga_cmd.c ****                 {
 4919              	 .loc 1 648 0
 4920 00bc 012B     	 cmp r3,#1
 4921 00be 0ED1     	 bne .L415
 651:C:/Workspace/DAVE-4.4.2-64Bit/optiga-trust-m/optiga/cmd\optiga_cmd.c ****                         (OPTIGA_CMD_QUEUE_REQUEST_STRICT_LOCK == p_queue_entry->request_type))
 4922              	 .loc 1 651 0
 4923 00c0 C622     	 mov r2,#198
 4924              	.LVL500:
 4925 00c2 0B33     	 add r3,r3,#11
 4926              	.LVL501:
 4927 00c4 7343     	 mul r3,r6
 4928 00c6 D200     	 lsl r2,r2,#3
 4929 00c8 E318     	 add r3,r4,r3
 4930 00ca 9B18     	 add r3,r3,r2
 4931 00cc 1A89     	 ldrh r2,[r3,#8]
 4932 00ce 464B     	 ldr r3,.L445+8
 4933 00d0 9A42     	 cmp r2,r3
 4934 00d2 10D1     	 bne .L416
 654:C:/Workspace/DAVE-4.4.2-64Bit/optiga-trust-m/optiga/cmd\optiga_cmd.c ****                         prefered_index = index;
 4935              	 .loc 1 654 0
 4936 00d4 6B68     	 ldr r3,[r5,#4]
 4937 00d6 0293     	 str r3,[sp,#8]
 4938              	.LVL502:
 4939 00d8 079B     	 ldr r3,[sp,#28]
 4940              	.LVL503:
 4941 00da 0193     	 str r3,[sp,#4]
 4942 00dc 0BE0     	 b .L416
 4943              	.LVL504:
 4944              	.L415:
 662:C:/Workspace/DAVE-4.4.2-64Bit/optiga-trust-m/optiga/cmd\optiga_cmd.c ****                     {
 4945              	 .loc 1 662 0
 4946 00de 6A7A     	 ldrb r2,[r5,#9]
 4947              	.LVL505:
 4948 00e0 022A     	 cmp r2,#2
 4949 00e2 08D1     	 bne .L416
 665:C:/Workspace/DAVE-4.4.2-64Bit/optiga-trust-m/optiga/cmd\optiga_cmd.c ****                         {
 4950              	 .loc 1 665 0
 4951 00e4 6B68     	 ldr r3,[r5,#4]
 4952              	.LVL506:
 4953 00e6 0593     	 str r3,[sp,#20]
 4954 00e8 404B     	 ldr r3,.L445+12
 4955 00ea 0599     	 ldr r1,[sp,#20]
 4956 00ec E358     	 ldr r3,[r4,r3]
 4957 00ee 9942     	 cmp r1,r3
 4958 00f0 55D2     	 bcs .L444
 667:C:/Workspace/DAVE-4.4.2-64Bit/optiga-trust-m/optiga/cmd\optiga_cmd.c ****                         }
 4959              	 .loc 1 667 0
 4960 00f2 0123     	 mov r3,#1
 4961 00f4 0693     	 str r3,[sp,#24]
 4962              	.LVL507:
 4963              	.L416:
 4964 00f6 0136     	 add r6,r6,#1
 4965              	.LVL508:
 4966 00f8 0C35     	 add r5,r5,#12
 643:C:/Workspace/DAVE-4.4.2-64Bit/optiga-trust-m/optiga/cmd\optiga_cmd.c ****             {
 4967              	 .loc 1 643 0 discriminator 2
 4968 00fa 062E     	 cmp r6,#6
 4969 00fc D1D1     	 bne .L420
 685:C:/Workspace/DAVE-4.4.2-64Bit/optiga-trust-m/optiga/cmd\optiga_cmd.c **** 
 4970              	 .loc 1 685 0
 4971 00fe 019B     	 ldr r3,[sp,#4]
 4972 0100 FF2B     	 cmp r3,#255
 4973 0102 06D1     	 bne .L421
 685:C:/Workspace/DAVE-4.4.2-64Bit/optiga-trust-m/optiga/cmd\optiga_cmd.c **** 
 4974              	 .loc 1 685 0 is_stmt 0 discriminator 1
 4975 0104 069B     	 ldr r3,[sp,#24]
 4976 0106 012B     	 cmp r3,#1
 4977 0108 41D1     	 bne .L443
 4978              	.LVL509:
 638:C:/Workspace/DAVE-4.4.2-64Bit/optiga-trust-m/optiga/cmd\optiga_cmd.c ****                 overflow_detected = FALSE;
 4979              	 .loc 1 638 0 is_stmt 1
 4980 010a 0022     	 mov r2,#0
 4981 010c 374B     	 ldr r3,.L445+12
 4982 010e E250     	 str r2,[r4,r3]
 4983              	.LVL510:
 4984 0110 C0E7     	 b .L411
 4985              	.LVL511:
 4986              	.L421:
 693:C:/Workspace/DAVE-4.4.2-64Bit/optiga-trust-m/optiga/cmd\optiga_cmd.c ****                 (OPTIGA_CMD_NO_SESSION_OID == ((optiga_cmd_t *)p_queue_entry->registered_ctx)->sess
 4987              	 .loc 1 693 0
 4988 0112 0C23     	 mov r3,#12
 4989 0114 019A     	 ldr r2,[sp,#4]
 4990 0116 5343     	 mul r3,r2
 4991 0118 C722     	 mov r2,#199
 4992 011a E318     	 add r3,r4,r3
 4993 011c D200     	 lsl r2,r2,#3
 4994 011e 9A18     	 add r2,r3,r2
 4995 0120 1278     	 ldrb r2,[r2]
 4996 0122 222A     	 cmp r2,#34
 4997 0124 1AD1     	 bne .L424
 694:C:/Workspace/DAVE-4.4.2-64Bit/optiga-trust-m/optiga/cmd\optiga_cmd.c ****             {
 4998              	 .loc 1 694 0 discriminator 1
 4999 0126 C622     	 mov r2,#198
 5000 0128 D200     	 lsl r2,r2,#3
 5001 012a 9B18     	 add r3,r3,r2
 5002 012c 1868     	 ldr r0,[r3]
 693:C:/Workspace/DAVE-4.4.2-64Bit/optiga-trust-m/optiga/cmd\optiga_cmd.c ****                 (OPTIGA_CMD_NO_SESSION_OID == ((optiga_cmd_t *)p_queue_entry->registered_ctx)->sess
 5003              	 .loc 1 693 0 discriminator 1
 5004 012e 838A     	 ldrh r3,[r0,#20]
 5005 0130 002B     	 cmp r3,#0
 5006 0132 13D1     	 bne .L424
 5007              	.LVL512:
 5008              	.LBB220:
 5009              	.LBB221:
 481:C:/Workspace/DAVE-4.4.2-64Bit/optiga-trust-m/optiga/cmd\optiga_cmd.c ****     uint8_t count;
 5010              	 .loc 1 481 0
 5011 0134 0368     	 ldr r3,[r0]
 5012              	.LVL513:
 5013 0136 1D1C     	 mov r5,r3
 5014 0138 0C33     	 add r3,r3,#12
 5015              	.LVL514:
 5016 013a 0835     	 add r5,r5,#8
 5017              	.LVL515:
 5018 013c 191C     	 mov r1,r3
 5019 013e 2B1C     	 mov r3,r5
 5020              	.LVL516:
 5021              	.L426:
 487:C:/Workspace/DAVE-4.4.2-64Bit/optiga-trust-m/optiga/cmd\optiga_cmd.c ****             {
 5022              	 .loc 1 487 0
 5023 0140 1E78     	 ldrb r6,[r3]
 5024 0142 5A1B     	 sub r2,r3,r5
 5025 0144 D2B2     	 uxtb r2,r2
 5026              	.LVL517:
 5027 0146 102E     	 cmp r6,#16
 5028 0148 05D0     	 beq .L425
 489:C:/Workspace/DAVE-4.4.2-64Bit/optiga-trust-m/optiga/cmd\optiga_cmd.c ****                 p_optiga_sessions[count] = OPTIGA_CMD_SESSION_ASSIGNED;
 5029              	 .loc 1 489 0
 5030 014a 2949     	 ldr r1,.L445+16
 5031 014c 0A43     	 orr r2,r1
 5032              	.LVL518:
 5033 014e 8282     	 strh r2,[r0,#20]
 490:C:/Workspace/DAVE-4.4.2-64Bit/optiga-trust-m/optiga/cmd\optiga_cmd.c ****                 break;
 5034              	 .loc 1 490 0
 5035 0150 1022     	 mov r2,#16
 5036 0152 1A70     	 strb r2,[r3]
 5037 0154 02E0     	 b .L424
 5038              	.LVL519:
 5039              	.L425:
 5040 0156 0133     	 add r3,r3,#1
 5041              	.LVL520:
 485:C:/Workspace/DAVE-4.4.2-64Bit/optiga-trust-m/optiga/cmd\optiga_cmd.c ****         {
 5042              	 .loc 1 485 0
 5043 0158 8B42     	 cmp r3,r1
 5044 015a F1D1     	 bne .L426
 5045              	.LVL521:
 5046              	.L424:
 5047              	.LBE221:
 5048              	.LBE220:
 701:C:/Workspace/DAVE-4.4.2-64Bit/optiga-trust-m/optiga/cmd\optiga_cmd.c ****             pal_os_event_register_callback_oneshot(my_os_event,
 5049              	 .loc 1 701 0
 5050 015c 0C25     	 mov r5,#12
 5051 015e 019B     	 ldr r3,[sp,#4]
 5052 0160 5D43     	 mul r5,r3
 5053 0162 C623     	 mov r3,#198
 5054 0164 6519     	 add r5,r4,r5
 5055 0166 DB00     	 lsl r3,r3,#3
 5056 0168 EB18     	 add r3,r5,r3
 5057 016a 1A68     	 ldr r2,[r3]
 5058              	.LVL522:
 5059 016c CF23     	 mov r3,#207
 702:C:/Workspace/DAVE-4.4.2-64Bit/optiga-trust-m/optiga/cmd\optiga_cmd.c ****                                                    optiga_cmd_event_trigger_execute,
 5060              	 .loc 1 702 0
 5061 016e 1168     	 ldr r1,[r2]
 701:C:/Workspace/DAVE-4.4.2-64Bit/optiga-trust-m/optiga/cmd\optiga_cmd.c ****             pal_os_event_register_callback_oneshot(my_os_event,
 5062              	 .loc 1 701 0
 5063 0170 DB00     	 lsl r3,r3,#3
 702:C:/Workspace/DAVE-4.4.2-64Bit/optiga-trust-m/optiga/cmd\optiga_cmd.c ****                                                    optiga_cmd_event_trigger_execute,
 5064              	 .loc 1 702 0
 5065 0172 C858     	 ldr r0,[r1,r3]
 5066 0174 3223     	 mov r3,#50
 5067 0176 1F49     	 ldr r1,.L445+20
 5068 0178 FFF7FEFF 	 bl pal_os_event_register_callback_oneshot
 5069              	.LVL523:
 706:C:/Workspace/DAVE-4.4.2-64Bit/optiga-trust-m/optiga/cmd\optiga_cmd.c ****             p_optiga_ctx->last_time_stamp = reference_time_stamp;
 5070              	 .loc 1 706 0
 5071 017c C723     	 mov r3,#199
 5072 017e DB00     	 lsl r3,r3,#3
 5073 0180 ED18     	 add r5,r5,r3
 5074 0182 0423     	 mov r3,#4
 707:C:/Workspace/DAVE-4.4.2-64Bit/optiga-trust-m/optiga/cmd\optiga_cmd.c ****         }
 5075              	 .loc 1 707 0
 5076 0184 029A     	 ldr r2,[sp,#8]
 706:C:/Workspace/DAVE-4.4.2-64Bit/optiga-trust-m/optiga/cmd\optiga_cmd.c ****             p_optiga_ctx->last_time_stamp = reference_time_stamp;
 5077              	 .loc 1 706 0
 5078 0186 6B70     	 strb r3,[r5,#1]
 707:C:/Workspace/DAVE-4.4.2-64Bit/optiga-trust-m/optiga/cmd\optiga_cmd.c ****         }
 5079              	 .loc 1 707 0
 5080 0188 184B     	 ldr r3,.L445+12
 5081 018a E250     	 str r2,[r4,r3]
 5082 018c 26E0     	 b .L399
 5083              	.LVL524:
 5084              	.L443:
 711:C:/Workspace/DAVE-4.4.2-64Bit/optiga-trust-m/optiga/cmd\optiga_cmd.c ****                                                     p_optiga_ctx,OPTIGA_CMD_SCHEDULER_IDLING_TIME_M
 5085              	 .loc 1 711 0
 5086 018e FA23     	 mov r3,#250
 5087 0190 0498     	 ldr r0,[sp,#16]
 5088 0192 1949     	 ldr r1,.L445+24
 5089 0194 221C     	 mov r2,r4
 5090 0196 9B00     	 lsl r3,r3,#2
 5091 0198 FFF7FEFF 	 bl pal_os_event_register_callback_oneshot
 5092              	.LVL525:
 5093 019c 1EE0     	 b .L399
 5094              	.LVL526:
 5095              	.L444:
 671:C:/Workspace/DAVE-4.4.2-64Bit/optiga-trust-m/optiga/cmd\optiga_cmd.c ****                             (((OPTIGA_CMD_QUEUE_REQUEST_SESSION == p_queue_entry->request_type) && 
 5096              	 .loc 1 671 0
 5097 019e 059B     	 ldr r3,[sp,#20]
 5098 01a0 0299     	 ldr r1,[sp,#8]
 5099 01a2 8B42     	 cmp r3,r1
 5100 01a4 A7D8     	 bhi .L416
 672:C:/Workspace/DAVE-4.4.2-64Bit/optiga-trust-m/optiga/cmd\optiga_cmd.c ****                             ((OPTIGA_CMD_QUEUE_REQUEST_SESSION == p_queue_entry->request_type) && (
 5101              	 .loc 1 672 0 discriminator 2
 5102 01a6 2B7A     	 ldrb r3,[r5,#8]
 671:C:/Workspace/DAVE-4.4.2-64Bit/optiga-trust-m/optiga/cmd\optiga_cmd.c ****                             (((OPTIGA_CMD_QUEUE_REQUEST_SESSION == p_queue_entry->request_type) && 
 5103              	 .loc 1 671 0 discriminator 2
 5104 01a8 222B     	 cmp r3,#34
 5105 01aa 13D1     	 bne .L418
 5106              	.LVL527:
 5107              	.LBB222:
 5108              	.LBB223:
 472:C:/Workspace/DAVE-4.4.2-64Bit/optiga-trust-m/optiga/cmd\optiga_cmd.c ****     return ((status_check < OPTIGA_CMD_ALL_SESSION_ASSIGNED)? (TRUE):(FALSE));
 5109              	 .loc 1 472 0
 5110 01ac 211C     	 mov r1,r4
 5111 01ae 0422     	 mov r2,#4
 5112 01b0 09A8     	 add r0,sp,#36
 5113 01b2 0831     	 add r1,r1,#8
 5114 01b4 FFF7FEFF 	 bl memcpy
 5115              	.LVL528:
 5116              	.LBE223:
 5117              	.LBE222:
 672:C:/Workspace/DAVE-4.4.2-64Bit/optiga-trust-m/optiga/cmd\optiga_cmd.c ****                             ((OPTIGA_CMD_QUEUE_REQUEST_SESSION == p_queue_entry->request_type) && (
 5118              	 .loc 1 672 0
 5119 01b8 104B     	 ldr r3,.L445+28
 5120 01ba 099A     	 ldr r2,[sp,#36]
 5121 01bc 9A42     	 cmp r2,r3
 5122 01be 04D8     	 bhi .L419
 5123              	.LVL529:
 5124              	.L429:
 667:C:/Workspace/DAVE-4.4.2-64Bit/optiga-trust-m/optiga/cmd\optiga_cmd.c ****                         }
 5125              	 .loc 1 667 0
 5126 01c0 079B     	 ldr r3,[sp,#28]
 5127 01c2 0193     	 str r3,[sp,#4]
 5128 01c4 059B     	 ldr r3,[sp,#20]
 5129 01c6 0293     	 str r3,[sp,#8]
 5130 01c8 95E7     	 b .L416
 5131              	.LVL530:
 5132              	.L419:
 673:C:/Workspace/DAVE-4.4.2-64Bit/optiga-trust-m/optiga/cmd\optiga_cmd.c ****                             (OPTIGA_CMD_QUEUE_REQUEST_LOCK == p_queue_entry->request_type) ||
 5133              	 .loc 1 673 0
 5134 01ca 2B68     	 ldr r3,[r5]
 5135 01cc 9B8A     	 ldrh r3,[r3,#20]
 5136 01ce 002B     	 cmp r3,#0
 5137 01d0 F6D1     	 bne .L429
 5138 01d2 90E7     	 b .L416
 5139              	.LVL531:
 5140              	.L418:
 5141 01d4 9343     	 bic r3,r2
 5142 01d6 212B     	 cmp r3,#33
 5143 01d8 8DD1     	 bne .L416
 5144 01da F1E7     	 b .L429
 5145              	.LVL532:
 5146              	.L399:
 715:C:/Workspace/DAVE-4.4.2-64Bit/optiga-trust-m/optiga/cmd\optiga_cmd.c **** 
 5147              	 .loc 1 715 0
 5148 01dc 0BB0     	 add sp,sp,#44
 5149              	 
 5150              	.LVL533:
 5151 01de F0BD     	 pop {r4,r5,r6,r7,pc}
 5152              	.L446:
 5153              	 .align 2
 5154              	.L445:
 5155 01e0 39060000 	 .word 1593
 5156 01e4 81060000 	 .word 1665
 5157 01e8 23080000 	 .word 2083
 5158 01ec 7C060000 	 .word 1660
 5159 01f0 00E1FFFF 	 .word -7936
 5160 01f4 00000000 	 .word optiga_cmd_event_trigger_execute
 5161 01f8 00000000 	 .word optiga_cmd_queue_scheduler
 5162 01fc 0F101010 	 .word 269488143
 5163              	 .cfi_endproc
 5164              	.LFE12:
 5166              	 .section .text.optiga_cmd_set_shielded_connection_option,"ax",%progbits
 5167              	 .align 1
 5168              	 .global optiga_cmd_set_shielded_connection_option
 5169              	 .code 16
 5170              	 .thumb_func
 5172              	optiga_cmd_set_shielded_connection_option:
 5173              	.LFB0:
 377:C:/Workspace/DAVE-4.4.2-64Bit/optiga-trust-m/optiga/cmd\optiga_cmd.c ****     switch (shielded_connection_option)
 5174              	 .loc 1 377 0
 5175              	 .cfi_startproc
 5176              	.LVL534:
 378:C:/Workspace/DAVE-4.4.2-64Bit/optiga-trust-m/optiga/cmd\optiga_cmd.c ****     {
 5177              	 .loc 1 378 0
 5178 0000 012A     	 cmp r2,#1
 5179 0002 07D0     	 beq .L449
 5180 0004 002A     	 cmp r2,#0
 5181 0006 03D0     	 beq .L450
 5182 0008 022A     	 cmp r2,#2
 5183 000a 04D1     	 bne .L447
 395:C:/Workspace/DAVE-4.4.2-64Bit/optiga-trust-m/optiga/cmd\optiga_cmd.c ****         }
 5184              	 .loc 1 395 0
 5185 000c C176     	 strb r1,[r0,#27]
 397:C:/Workspace/DAVE-4.4.2-64Bit/optiga-trust-m/optiga/cmd\optiga_cmd.c ****         default:
 5186              	 .loc 1 397 0
 5187 000e 02E0     	 b .L447
 5188              	.L450:
 383:C:/Workspace/DAVE-4.4.2-64Bit/optiga-trust-m/optiga/cmd\optiga_cmd.c ****         }
 5189              	 .loc 1 383 0
 5190 0010 4176     	 strb r1,[r0,#25]
 385:C:/Workspace/DAVE-4.4.2-64Bit/optiga-trust-m/optiga/cmd\optiga_cmd.c ****         // Protocol Version
 5191              	 .loc 1 385 0
 5192 0012 00E0     	 b .L447
 5193              	.L449:
 389:C:/Workspace/DAVE-4.4.2-64Bit/optiga-trust-m/optiga/cmd\optiga_cmd.c ****         }
 5194              	 .loc 1 389 0
 5195 0014 8176     	 strb r1,[r0,#26]
 5196              	.L447:
 401:C:/Workspace/DAVE-4.4.2-64Bit/optiga-trust-m/optiga/cmd\optiga_cmd.c **** 
 5197              	 .loc 1 401 0
 5198              	 
 5199 0016 7047     	 bx lr
 5200              	 .cfi_endproc
 5201              	.LFE0:
 5203              	 .section .text.optiga_cmd_request_session,"ax",%progbits
 5204              	 .align 1
 5205              	 .global optiga_cmd_request_session
 5206              	 .code 16
 5207              	 .thumb_func
 5209              	optiga_cmd_request_session:
 5210              	.LFB15:
 763:C:/Workspace/DAVE-4.4.2-64Bit/optiga-trust-m/optiga/cmd\optiga_cmd.c ****     optiga_cmd_queue_update_slot(me , OPTIGA_CMD_QUEUE_REQUEST_SESSION);
 5211              	 .loc 1 763 0
 5212              	 .cfi_startproc
 5213              	.LVL535:
 5214 0000 08B5     	 push {r3,lr}
 5215              	.LCFI23:
 5216              	 .cfi_def_cfa_offset 8
 5217              	 .cfi_offset 3,-8
 5218              	 .cfi_offset 14,-4
 764:C:/Workspace/DAVE-4.4.2-64Bit/optiga-trust-m/optiga/cmd\optiga_cmd.c ****     return (OPTIGA_CMD_SUCCESS);
 5219              	 .loc 1 764 0
 5220 0002 2221     	 mov r1,#34
 5221 0004 FFF7FEFF 	 bl optiga_cmd_queue_update_slot
 5222              	.LVL536:
 766:C:/Workspace/DAVE-4.4.2-64Bit/optiga-trust-m/optiga/cmd\optiga_cmd.c **** 
 5223              	 .loc 1 766 0
 5224              	 
 5225 0008 0020     	 mov r0,#0
 5226 000a 08BD     	 pop {r3,pc}
 5227              	 .cfi_endproc
 5228              	.LFE15:
 5230              	 .section .text.optiga_cmd_release_session,"ax",%progbits
 5231              	 .align 1
 5232              	 .global optiga_cmd_release_session
 5233              	 .code 16
 5234              	 .thumb_func
 5236              	optiga_cmd_release_session:
 5237              	.LFB16:
 769:C:/Workspace/DAVE-4.4.2-64Bit/optiga-trust-m/optiga/cmd\optiga_cmd.c ****     optiga_cmd_session_free(me);
 5238              	 .loc 1 769 0
 5239              	 .cfi_startproc
 5240              	.LVL537:
 5241 0000 10B5     	 push {r4,lr}
 5242              	.LCFI24:
 5243              	 .cfi_def_cfa_offset 8
 5244              	 .cfi_offset 4,-8
 5245              	 .cfi_offset 14,-4
 5246              	.LBB226:
 5247              	.LBB227:
 504:C:/Workspace/DAVE-4.4.2-64Bit/optiga-trust-m/optiga/cmd\optiga_cmd.c ****     {
 5248              	 .loc 1 504 0
 5249 0002 838A     	 ldrh r3,[r0,#20]
 502:C:/Workspace/DAVE-4.4.2-64Bit/optiga-trust-m/optiga/cmd\optiga_cmd.c ****     uint8_t count;
 5250              	 .loc 1 502 0
 5251 0004 0468     	 ldr r4,[r0]
 5252              	.LVL538:
 504:C:/Workspace/DAVE-4.4.2-64Bit/optiga-trust-m/optiga/cmd\optiga_cmd.c ****     {
 5253              	 .loc 1 504 0
 5254 0006 002B     	 cmp r3,#0
 5255 0008 05D0     	 beq .L454
 5256              	.LVL539:
 508:C:/Workspace/DAVE-4.4.2-64Bit/optiga-trust-m/optiga/cmd\optiga_cmd.c ****     }
 5257              	 .loc 1 508 0
 5258 000a 0F22     	 mov r2,#15
 507:C:/Workspace/DAVE-4.4.2-64Bit/optiga-trust-m/optiga/cmd\optiga_cmd.c ****         p_optiga_sessions[count] = OPTIGA_CMD_SESSION_NOT_ASSIGNED;
 5259              	 .loc 1 507 0
 5260 000c 0021     	 mov r1,#0
 508:C:/Workspace/DAVE-4.4.2-64Bit/optiga-trust-m/optiga/cmd\optiga_cmd.c ****     }
 5261              	 .loc 1 508 0
 5262 000e 1340     	 and r3,r2
 5263              	.LVL540:
 5264 0010 E318     	 add r3,r4,r3
 507:C:/Workspace/DAVE-4.4.2-64Bit/optiga-trust-m/optiga/cmd\optiga_cmd.c ****         p_optiga_sessions[count] = OPTIGA_CMD_SESSION_NOT_ASSIGNED;
 5265              	 .loc 1 507 0
 5266 0012 8182     	 strh r1,[r0,#20]
 5267              	.LVL541:
 508:C:/Workspace/DAVE-4.4.2-64Bit/optiga-trust-m/optiga/cmd\optiga_cmd.c ****     }
 5268              	 .loc 1 508 0
 5269 0014 1972     	 strb r1,[r3,#8]
 5270              	.L454:
 5271              	.LBE227:
 5272              	.LBE226:
 772:C:/Workspace/DAVE-4.4.2-64Bit/optiga-trust-m/optiga/cmd\optiga_cmd.c **** 
 5273              	 .loc 1 772 0
 5274 0016 0020     	 mov r0,#0
 5275              	.LVL542:
 5276              	 
 5277              	.LVL543:
 5278 0018 10BD     	 pop {r4,pc}
 5279              	 .cfi_endproc
 5280              	.LFE16:
 5282              	 .section .text.optiga_cmd_request_lock,"ax",%progbits
 5283              	 .align 1
 5284              	 .global optiga_cmd_request_lock
 5285              	 .code 16
 5286              	 .thumb_func
 5288              	optiga_cmd_request_lock:
 5289              	.LFB17:
 775:C:/Workspace/DAVE-4.4.2-64Bit/optiga-trust-m/optiga/cmd\optiga_cmd.c ****     optiga_cmd_queue_update_slot(me , lock_type);
 5290              	 .loc 1 775 0
 5291              	 .cfi_startproc
 5292              	.LVL544:
 5293 0000 08B5     	 push {r3,lr}
 5294              	.LCFI25:
 5295              	 .cfi_def_cfa_offset 8
 5296              	 .cfi_offset 3,-8
 5297              	 .cfi_offset 14,-4
 776:C:/Workspace/DAVE-4.4.2-64Bit/optiga-trust-m/optiga/cmd\optiga_cmd.c ****     return (OPTIGA_CMD_SUCCESS);
 5298              	 .loc 1 776 0
 5299 0002 FFF7FEFF 	 bl optiga_cmd_queue_update_slot
 5300              	.LVL545:
 778:C:/Workspace/DAVE-4.4.2-64Bit/optiga-trust-m/optiga/cmd\optiga_cmd.c **** 
 5301              	 .loc 1 778 0
 5302              	 
 5303 0006 0020     	 mov r0,#0
 5304 0008 08BD     	 pop {r3,pc}
 5305              	 .cfi_endproc
 5306              	.LFE17:
 5308              	 .section .text.optiga_cmd_release_lock,"ax",%progbits
 5309              	 .align 1
 5310              	 .global optiga_cmd_release_lock
 5311              	 .code 16
 5312              	 .thumb_func
 5314              	optiga_cmd_release_lock:
 5315              	.LFB18:
 781:C:/Workspace/DAVE-4.4.2-64Bit/optiga-trust-m/optiga/cmd\optiga_cmd.c ****     optiga_cmd_queue_reset_slot(me);
 5316              	 .loc 1 781 0
 5317              	 .cfi_startproc
 5318              	.LVL546:
 5319 0000 08B5     	 push {r3,lr}
 5320              	.LCFI26:
 5321              	 .cfi_def_cfa_offset 8
 5322              	 .cfi_offset 3,-8
 5323              	 .cfi_offset 14,-4
 782:C:/Workspace/DAVE-4.4.2-64Bit/optiga-trust-m/optiga/cmd\optiga_cmd.c ****     return (OPTIGA_CMD_SUCCESS);
 5324              	 .loc 1 782 0
 5325 0002 FFF7FEFF 	 bl optiga_cmd_queue_reset_slot
 5326              	.LVL547:
 784:C:/Workspace/DAVE-4.4.2-64Bit/optiga-trust-m/optiga/cmd\optiga_cmd.c **** 
 5327              	 .loc 1 784 0
 5328              	 
 5329 0006 0020     	 mov r0,#0
 5330 0008 08BD     	 pop {r3,pc}
 5331              	 .cfi_endproc
 5332              	.LFE18:
 5334              	 .section .text.optiga_cmd_create,"ax",%progbits
 5335              	 .align 1
 5336              	 .global optiga_cmd_create
 5337              	 .code 16
 5338              	 .thumb_func
 5340              	optiga_cmd_create:
 5341              	.LFB22:
1149:C:/Workspace/DAVE-4.4.2-64Bit/optiga-trust-m/optiga/cmd\optiga_cmd.c ****     optiga_cmd_t * me = NULL;
 5342              	 .loc 1 1149 0
 5343              	 .cfi_startproc
 5344              	.LVL548:
 5345 0000 F8B5     	 push {r3,r4,r5,r6,r7,lr}
 5346              	.LCFI27:
 5347              	 .cfi_def_cfa_offset 24
 5348              	 .cfi_offset 3,-24
 5349              	 .cfi_offset 4,-20
 5350              	 .cfi_offset 5,-16
 5351              	 .cfi_offset 6,-12
 5352              	 .cfi_offset 7,-8
 5353              	 .cfi_offset 14,-4
1149:C:/Workspace/DAVE-4.4.2-64Bit/optiga-trust-m/optiga/cmd\optiga_cmd.c ****     optiga_cmd_t * me = NULL;
 5354              	 .loc 1 1149 0
 5355 0002 161C     	 mov r6,r2
 5356 0004 0F1C     	 mov r7,r1
1152:C:/Workspace/DAVE-4.4.2-64Bit/optiga-trust-m/optiga/cmd\optiga_cmd.c ****     do
 5357              	 .loc 1 1152 0
 5358 0006 FFF7FEFF 	 bl pal_os_lock_enter_critical_section
 5359              	.LVL549:
 5360 000a 0022     	 mov r2,#0
 5361              	.LBB232:
 5362              	.LBB233:
 542:C:/Workspace/DAVE-4.4.2-64Bit/optiga-trust-m/optiga/cmd\optiga_cmd.c ****     uint8_t slot_value = 0;
 5363              	 .loc 1 542 0
 5364 000c 131C     	 mov r3,r2
 5365              	.LVL550:
 5366              	.L462:
 5367 000e 2549     	 ldr r1,.L472
 5368 0010 254D     	 ldr r5,.L472+4
 5369 0012 5118     	 add r1,r2,r1
 561:C:/Workspace/DAVE-4.4.2-64Bit/optiga-trust-m/optiga/cmd\optiga_cmd.c ****         {
 5370              	 .loc 1 561 0
 5371 0014 695C     	 ldrb r1,[r5,r1]
 5372 0016 0029     	 cmp r1,#0
 5373 0018 01D1     	 bne .L461
 563:C:/Workspace/DAVE-4.4.2-64Bit/optiga-trust-m/optiga/cmd\optiga_cmd.c ****         }
 5374              	 .loc 1 563 0
 5375 001a 0133     	 add r3,r3,#1
 5376              	.LVL551:
 5377 001c DBB2     	 uxtb r3,r3
 5378              	.LVL552:
 5379              	.L461:
 5380 001e 0C32     	 add r2,r2,#12
 5381              	.LVL553:
 544:C:/Workspace/DAVE-4.4.2-64Bit/optiga-trust-m/optiga/cmd\optiga_cmd.c ****     {
 5382              	 .loc 1 544 0
 5383 0020 482A     	 cmp r2,#72
 5384 0022 F4D1     	 bne .L462
 5385              	.LBE233:
 5386              	.LBE232:
1156:C:/Workspace/DAVE-4.4.2-64Bit/optiga-trust-m/optiga/cmd\optiga_cmd.c ****                                                OPTIGA_CMD_QUEUE_SLOT_STATE,
 5387              	 .loc 1 1156 0
 5388 0024 002B     	 cmp r3,#0
 5389 0026 01D1     	 bne .L463
 5390              	.LVL554:
 5391              	.L465:
1150:C:/Workspace/DAVE-4.4.2-64Bit/optiga-trust-m/optiga/cmd\optiga_cmd.c **** 
 5392              	 .loc 1 1150 0
 5393 0028 0024     	 mov r4,#0
 5394 002a 36E0     	 b .L464
 5395              	.LVL555:
 5396              	.L463:
1163:C:/Workspace/DAVE-4.4.2-64Bit/optiga-trust-m/optiga/cmd\optiga_cmd.c ****         if (NULL == me)
 5397              	 .loc 1 1163 0
 5398 002c 0120     	 mov r0,#1
 5399 002e 2421     	 mov r1,#36
 5400 0030 FFF7FEFF 	 bl calloc
 5401              	.LVL556:
 5402 0034 041E     	 sub r4,r0,#0
 5403              	.LVL557:
1164:C:/Workspace/DAVE-4.4.2-64Bit/optiga-trust-m/optiga/cmd\optiga_cmd.c ****         {
 5404              	 .loc 1 1164 0
 5405 0036 F7D0     	 beq .L465
1173:C:/Workspace/DAVE-4.4.2-64Bit/optiga-trust-m/optiga/cmd\optiga_cmd.c **** 
 5406              	 .loc 1 1173 0
 5407 0038 3323     	 mov r3,#51
1169:C:/Workspace/DAVE-4.4.2-64Bit/optiga-trust-m/optiga/cmd\optiga_cmd.c ****         me->caller_context = caller_context;
 5408              	 .loc 1 1169 0
 5409 003a 0761     	 str r7,[r0,#16]
1170:C:/Workspace/DAVE-4.4.2-64Bit/optiga-trust-m/optiga/cmd\optiga_cmd.c **** 
 5410              	 .loc 1 1170 0
 5411 003c C660     	 str r6,[r0,#12]
1172:C:/Workspace/DAVE-4.4.2-64Bit/optiga-trust-m/optiga/cmd\optiga_cmd.c ****         me->optiga_context_datastore_id = g_hibernate_datastore_id_list[optiga_instance_id];
 5412              	 .loc 1 1172 0
 5413 003e 0560     	 str r5,[r0]
1173:C:/Workspace/DAVE-4.4.2-64Bit/optiga-trust-m/optiga/cmd\optiga_cmd.c **** 
 5414              	 .loc 1 1173 0
 5415 0040 0384     	 strh r3,[r0,#32]
1175:C:/Workspace/DAVE-4.4.2-64Bit/optiga-trust-m/optiga/cmd\optiga_cmd.c ****         {
 5416              	 .loc 1 1175 0
 5417 0042 2B7B     	 ldrb r3,[r5,#12]
 5418 0044 002B     	 cmp r3,#0
 5419 0046 12D1     	 bne .L466
1177:C:/Workspace/DAVE-4.4.2-64Bit/optiga-trust-m/optiga/cmd\optiga_cmd.c ****             //create pal os event
 5420              	 .loc 1 1177 0
 5421 0048 0133     	 add r3,r3,#1
1179:C:/Workspace/DAVE-4.4.2-64Bit/optiga-trust-m/optiga/cmd\optiga_cmd.c ****             me->p_optiga->p_optiga_comms = optiga_comms_create(optiga_cmd_execute_handler, me);
 5422              	 .loc 1 1179 0
 5423 004a 291C     	 mov r1,r5
 5424 004c 1748     	 ldr r0,.L472+8
 5425              	.LVL558:
 5426 004e CF26     	 mov r6,#207
 5427              	.LVL559:
1177:C:/Workspace/DAVE-4.4.2-64Bit/optiga-trust-m/optiga/cmd\optiga_cmd.c ****             //create pal os event
 5428              	 .loc 1 1177 0
 5429 0050 2B73     	 strb r3,[r5,#12]
1179:C:/Workspace/DAVE-4.4.2-64Bit/optiga-trust-m/optiga/cmd\optiga_cmd.c ****             me->p_optiga->p_optiga_comms = optiga_comms_create(optiga_cmd_execute_handler, me);
 5430              	 .loc 1 1179 0
 5431 0052 FFF7FEFF 	 bl pal_os_event_create
 5432              	.LVL560:
 5433 0056 F600     	 lsl r6,r6,#3
 5434 0058 A851     	 str r0,[r5,r6]
1180:C:/Workspace/DAVE-4.4.2-64Bit/optiga-trust-m/optiga/cmd\optiga_cmd.c ****             me->p_optiga->p_optiga_comms->p_pal_os_event_ctx = me->p_optiga->p_pal_os_event_ctx;
 5435              	 .loc 1 1180 0
 5436 005a 211C     	 mov r1,r4
 5437 005c 1448     	 ldr r0,.L472+12
 5438 005e 2568     	 ldr r5,[r4]
 5439 0060 FFF7FEFF 	 bl optiga_comms_create
 5440              	.LVL561:
1181:C:/Workspace/DAVE-4.4.2-64Bit/optiga-trust-m/optiga/cmd\optiga_cmd.c ****         }
 5441              	 .loc 1 1181 0
 5442 0064 2368     	 ldr r3,[r4]
1180:C:/Workspace/DAVE-4.4.2-64Bit/optiga-trust-m/optiga/cmd\optiga_cmd.c ****             me->p_optiga->p_optiga_comms->p_pal_os_event_ctx = me->p_optiga->p_pal_os_event_ctx;
 5443              	 .loc 1 1180 0
 5444 0066 2860     	 str r0,[r5]
1181:C:/Workspace/DAVE-4.4.2-64Bit/optiga-trust-m/optiga/cmd\optiga_cmd.c ****         }
 5445              	 .loc 1 1181 0
 5446 0068 1A68     	 ldr r2,[r3]
 5447 006a 9B59     	 ldr r3,[r3,r6]
 5448 006c 5361     	 str r3,[r2,#20]
 5449              	.L466:
 5450              	.LVL562:
 5451 006e 0D4B     	 ldr r3,.L472
 5452              	.LBB234:
 5453              	.LBB235:
 577:C:/Workspace/DAVE-4.4.2-64Bit/optiga-trust-m/optiga/cmd\optiga_cmd.c ****         {
 5454              	 .loc 1 577 0
 5455 0070 2168     	 ldr r1,[r4]
 5456 0072 CA18     	 add r2,r1,r3
 5457 0074 0023     	 mov r3,#0
 5458              	.LVL563:
 5459              	.L468:
 5460 0076 1578     	 ldrb r5,[r2]
 5461 0078 D8B2     	 uxtb r0,r3
 5462              	.LVL564:
 5463 007a 002D     	 cmp r5,#0
 5464 007c 09D1     	 bne .L467
 580:C:/Workspace/DAVE-4.4.2-64Bit/optiga-trust-m/optiga/cmd\optiga_cmd.c ****            break;
 5465              	 .loc 1 580 0
 5466 007e 0C22     	 mov r2,#12
 5467 0080 5343     	 mul r3,r2
 5468 0082 C722     	 mov r2,#199
 5469 0084 CB18     	 add r3,r1,r3
 5470 0086 D200     	 lsl r2,r2,#3
 5471 0088 9B18     	 add r3,r3,r2
 5472 008a 0122     	 mov r2,#1
 579:C:/Workspace/DAVE-4.4.2-64Bit/optiga-trust-m/optiga/cmd\optiga_cmd.c ****             me->p_optiga->optiga_cmd_execution_queue[index].state_of_entry = OPTIGA_CMD_QUEUE_ASSIG
 5473              	 .loc 1 579 0
 5474 008c 6077     	 strb r0,[r4,#29]
 580:C:/Workspace/DAVE-4.4.2-64Bit/optiga-trust-m/optiga/cmd\optiga_cmd.c ****            break;
 5475              	 .loc 1 580 0
 5476 008e 5A70     	 strb r2,[r3,#1]
 5477 0090 03E0     	 b .L464
 5478              	.L467:
 5479              	.LVL565:
 5480 0092 0133     	 add r3,r3,#1
 5481              	.LVL566:
 5482 0094 0C32     	 add r2,r2,#12
 575:C:/Workspace/DAVE-4.4.2-64Bit/optiga-trust-m/optiga/cmd\optiga_cmd.c ****     {
 5483              	 .loc 1 575 0
 5484 0096 062B     	 cmp r3,#6
 5485 0098 EDD1     	 bne .L468
 5486              	.LVL567:
 5487              	.L464:
 5488              	.LBE235:
 5489              	.LBE234:
1187:C:/Workspace/DAVE-4.4.2-64Bit/optiga-trust-m/optiga/cmd\optiga_cmd.c ****     return (me);
 5490              	 .loc 1 1187 0
 5491 009a FFF7FEFF 	 bl pal_os_lock_exit_critical_section
 5492              	.LVL568:
1189:C:/Workspace/DAVE-4.4.2-64Bit/optiga-trust-m/optiga/cmd\optiga_cmd.c **** 
 5493              	 .loc 1 1189 0
 5494              	 
 5495 009e 201C     	 mov r0,r4
 5496              	.LVL569:
 5497              	.LVL570:
 5498 00a0 F8BD     	 pop {r3,r4,r5,r6,r7,pc}
 5499              	.L473:
 5500 00a2 C046     	 .align 2
 5501              	.L472:
 5502 00a4 39060000 	 .word 1593
 5503 00a8 00000000 	 .word .LANCHOR1
 5504 00ac 00000000 	 .word optiga_cmd_queue_scheduler
 5505 00b0 00000000 	 .word optiga_cmd_execute_handler
 5506              	 .cfi_endproc
 5507              	.LFE22:
 5509              	 .section .text.optiga_cmd_destroy,"ax",%progbits
 5510              	 .align 1
 5511              	 .global optiga_cmd_destroy
 5512              	 .code 16
 5513              	 .thumb_func
 5515              	optiga_cmd_destroy:
 5516              	.LFB23:
1192:C:/Workspace/DAVE-4.4.2-64Bit/optiga-trust-m/optiga/cmd\optiga_cmd.c ****     optiga_lib_status_t return_status = OPTIGA_CMD_ERROR;
 5517              	 .loc 1 1192 0
 5518              	 .cfi_startproc
 5519              	.LVL571:
 5520 0000 10B5     	 push {r4,lr}
 5521              	.LCFI28:
 5522              	 .cfi_def_cfa_offset 8
 5523              	 .cfi_offset 4,-8
 5524              	 .cfi_offset 14,-4
1196:C:/Workspace/DAVE-4.4.2-64Bit/optiga-trust-m/optiga/cmd\optiga_cmd.c ****         {
 5525              	 .loc 1 1196 0
 5526 0002 0028     	 cmp r0,#0
 5527 0004 1DD0     	 beq .L477
 5528              	.LVL572:
 5529              	.LBB242:
 5530              	.LBB243:
 5531              	.LBB244:
 504:C:/Workspace/DAVE-4.4.2-64Bit/optiga-trust-m/optiga/cmd\optiga_cmd.c ****     {
 5532              	 .loc 1 504 0
 5533 0006 838A     	 ldrh r3,[r0,#20]
 502:C:/Workspace/DAVE-4.4.2-64Bit/optiga-trust-m/optiga/cmd\optiga_cmd.c ****     uint8_t count;
 5534              	 .loc 1 502 0
 5535 0008 0468     	 ldr r4,[r0]
 5536              	.LVL573:
 504:C:/Workspace/DAVE-4.4.2-64Bit/optiga-trust-m/optiga/cmd\optiga_cmd.c ****     {
 5537              	 .loc 1 504 0
 5538 000a 002B     	 cmp r3,#0
 5539 000c 05D0     	 beq .L476
 5540              	.LVL574:
 508:C:/Workspace/DAVE-4.4.2-64Bit/optiga-trust-m/optiga/cmd\optiga_cmd.c ****     }
 5541              	 .loc 1 508 0
 5542 000e 0F22     	 mov r2,#15
 507:C:/Workspace/DAVE-4.4.2-64Bit/optiga-trust-m/optiga/cmd\optiga_cmd.c ****         p_optiga_sessions[count] = OPTIGA_CMD_SESSION_NOT_ASSIGNED;
 5543              	 .loc 1 507 0
 5544 0010 0021     	 mov r1,#0
 508:C:/Workspace/DAVE-4.4.2-64Bit/optiga-trust-m/optiga/cmd\optiga_cmd.c ****     }
 5545              	 .loc 1 508 0
 5546 0012 1340     	 and r3,r2
 5547              	.LVL575:
 5548 0014 E318     	 add r3,r4,r3
 507:C:/Workspace/DAVE-4.4.2-64Bit/optiga-trust-m/optiga/cmd\optiga_cmd.c ****         p_optiga_sessions[count] = OPTIGA_CMD_SESSION_NOT_ASSIGNED;
 5549              	 .loc 1 507 0
 5550 0016 8182     	 strh r1,[r0,#20]
 5551              	.LVL576:
 508:C:/Workspace/DAVE-4.4.2-64Bit/optiga-trust-m/optiga/cmd\optiga_cmd.c ****     }
 5552              	 .loc 1 508 0
 5553 0018 1972     	 strb r1,[r3,#8]
 5554              	.L476:
 5555              	.LVL577:
 5556              	.LBE244:
 5557              	.LBE243:
 5558              	.LBE242:
 5559              	.LBB245:
 5560              	.LBB246:
 592:C:/Workspace/DAVE-4.4.2-64Bit/optiga-trust-m/optiga/cmd\optiga_cmd.c ****     me->p_optiga->optiga_cmd_execution_queue[me->queue_id].request_type = OPTIGA_CMD_QUEUE_NO_REQUE
 5561              	 .loc 1 592 0
 5562 001a 0C23     	 mov r3,#12
 5563 001c 427F     	 ldrb r2,[r0,#29]
 5564 001e 0168     	 ldr r1,[r0]
 5565 0020 5A43     	 mul r2,r3
 5566 0022 8A18     	 add r2,r1,r2
 5567 0024 C721     	 mov r1,#199
 5568 0026 0024     	 mov r4,#0
 5569              	.LVL578:
 5570 0028 C900     	 lsl r1,r1,#3
 5571 002a 5218     	 add r2,r2,r1
 5572 002c 5470     	 strb r4,[r2,#1]
 593:C:/Workspace/DAVE-4.4.2-64Bit/optiga-trust-m/optiga/cmd\optiga_cmd.c ****     me->queue_id = 0;
 5573              	 .loc 1 593 0
 5574 002e 427F     	 ldrb r2,[r0,#29]
 5575 0030 5343     	 mul r3,r2
 5576 0032 0268     	 ldr r2,[r0]
 5577 0034 D318     	 add r3,r2,r3
 5578 0036 5B18     	 add r3,r3,r1
 5579 0038 1C70     	 strb r4,[r3]
 5580              	.LBE246:
 5581              	.LBE245:
1201:C:/Workspace/DAVE-4.4.2-64Bit/optiga-trust-m/optiga/cmd\optiga_cmd.c ****             return_status = OPTIGA_LIB_SUCCESS;
 5582              	 .loc 1 1201 0
 5583 003a FFF7FEFF 	 bl free
 5584              	.LVL579:
1202:C:/Workspace/DAVE-4.4.2-64Bit/optiga-trust-m/optiga/cmd\optiga_cmd.c ****         }
 5585              	 .loc 1 1202 0
 5586 003e 201C     	 mov r0,r4
 5587 0040 00E0     	 b .L475
 5588              	.LVL580:
 5589              	.L477:
1193:C:/Workspace/DAVE-4.4.2-64Bit/optiga-trust-m/optiga/cmd\optiga_cmd.c ****     do
 5590              	 .loc 1 1193 0
 5591 0042 0148     	 ldr r0,.L481
 5592              	.LVL581:
 5593              	.L475:
1206:C:/Workspace/DAVE-4.4.2-64Bit/optiga-trust-m/optiga/cmd\optiga_cmd.c **** 
 5594              	 .loc 1 1206 0
 5595              	 
 5596 0044 10BD     	 pop {r4,pc}
 5597              	.L482:
 5598 0046 C046     	 .align 2
 5599              	.L481:
 5600 0048 02020000 	 .word 514
 5601              	 .cfi_endproc
 5602              	.LFE23:
 5604              	 .section .text.optiga_cmd_open_application,"ax",%progbits
 5605              	 .align 1
 5606              	 .global optiga_cmd_open_application
 5607              	 .code 16
 5608              	 .thumb_func
 5610              	optiga_cmd_open_application:
 5611              	.LFB26:
1398:C:/Workspace/DAVE-4.4.2-64Bit/optiga-trust-m/optiga/cmd\optiga_cmd.c ****     OPTIGA_CMD_LOG_MESSAGE(__FUNCTION__);
 5612              	 .loc 1 1398 0
 5613              	 .cfi_startproc
 5614              	.LVL582:
 5615 0000 10B5     	 push {r4,lr}
 5616              	.LCFI29:
 5617              	 .cfi_def_cfa_offset 8
 5618              	 .cfi_offset 4,-8
 5619              	 .cfi_offset 14,-4
 5620              	.LBB247:
 5621              	.LBB248:
 455:C:/Workspace/DAVE-4.4.2-64Bit/optiga-trust-m/optiga/cmd\optiga_cmd.c ****     me->cmd_hdlrs = cmd_hdlrs;
 5622              	 .loc 1 455 0
 5623 0002 0024     	 mov r4,#0
 456:C:/Workspace/DAVE-4.4.2-64Bit/optiga-trust-m/optiga/cmd\optiga_cmd.c ****     me->chaining_ongoing = FALSE;
 5624              	 .loc 1 456 0
 5625 0004 054B     	 ldr r3,.L484
 454:C:/Workspace/DAVE-4.4.2-64Bit/optiga-trust-m/optiga/cmd\optiga_cmd.c ****     me->cmd_next_execution_state = start_state;
 5626              	 .loc 1 454 0
 5627 0006 8260     	 str r2,[r0,#8]
 455:C:/Workspace/DAVE-4.4.2-64Bit/optiga-trust-m/optiga/cmd\optiga_cmd.c ****     me->cmd_hdlrs = cmd_hdlrs;
 5628              	 .loc 1 455 0
 5629 0008 8475     	 strb r4,[r0,#22]
 456:C:/Workspace/DAVE-4.4.2-64Bit/optiga-trust-m/optiga/cmd\optiga_cmd.c ****     me->chaining_ongoing = FALSE;
 5630              	 .loc 1 456 0
 5631 000a 4360     	 str r3,[r0,#4]
 457:C:/Workspace/DAVE-4.4.2-64Bit/optiga-trust-m/optiga/cmd\optiga_cmd.c ****     me->cmd_param = cmd_param;
 5632              	 .loc 1 457 0
 5633 000c C475     	 strb r4,[r0,#23]
 458:C:/Workspace/DAVE-4.4.2-64Bit/optiga-trust-m/optiga/cmd\optiga_cmd.c ****     optiga_cmd_execute_handler(me, OPTIGA_LIB_SUCCESS);
 5634              	 .loc 1 458 0
 5635 000e 0176     	 strb r1,[r0,#24]
 459:C:/Workspace/DAVE-4.4.2-64Bit/optiga-trust-m/optiga/cmd\optiga_cmd.c **** }
 5636              	 .loc 1 459 0
 5637 0010 211C     	 mov r1,r4
 5638              	.LVL583:
 5639 0012 FFF7FEFF 	 bl optiga_cmd_execute_handler
 5640              	.LVL584:
 5641              	.LBE248:
 5642              	.LBE247:
1407:C:/Workspace/DAVE-4.4.2-64Bit/optiga-trust-m/optiga/cmd\optiga_cmd.c **** 
 5643              	 .loc 1 1407 0
 5644              	 
 5645 0016 201C     	 mov r0,r4
 5646 0018 10BD     	 pop {r4,pc}
 5647              	.L485:
 5648 001a C046     	 .align 2
 5649              	.L484:
 5650 001c 00000000 	 .word optiga_cmd_open_application_handler
 5651              	 .cfi_endproc
 5652              	.LFE26:
 5654              	 .section .text.optiga_cmd_close_application,"ax",%progbits
 5655              	 .align 1
 5656              	 .global optiga_cmd_close_application
 5657              	 .code 16
 5658              	 .thumb_func
 5660              	optiga_cmd_close_application:
 5661              	.LFB28:
1478:C:/Workspace/DAVE-4.4.2-64Bit/optiga-trust-m/optiga/cmd\optiga_cmd.c ****     OPTIGA_CMD_LOG_MESSAGE(__FUNCTION__);
 5662              	 .loc 1 1478 0
 5663              	 .cfi_startproc
 5664              	.LVL585:
 5665              	.LBB249:
 5666              	.LBB250:
 455:C:/Workspace/DAVE-4.4.2-64Bit/optiga-trust-m/optiga/cmd\optiga_cmd.c ****     me->cmd_hdlrs = cmd_hdlrs;
 5667              	 .loc 1 455 0
 5668 0000 0623     	 mov r3,#6
 5669              	.LBE250:
 5670              	.LBE249:
1478:C:/Workspace/DAVE-4.4.2-64Bit/optiga-trust-m/optiga/cmd\optiga_cmd.c ****     OPTIGA_CMD_LOG_MESSAGE(__FUNCTION__);
 5671              	 .loc 1 1478 0
 5672 0002 10B5     	 push {r4,lr}
 5673              	.LCFI30:
 5674              	 .cfi_def_cfa_offset 8
 5675              	 .cfi_offset 4,-8
 5676              	 .cfi_offset 14,-4
 5677              	.LBB252:
 5678              	.LBB251:
 457:C:/Workspace/DAVE-4.4.2-64Bit/optiga-trust-m/optiga/cmd\optiga_cmd.c ****     me->cmd_param = cmd_param;
 5679              	 .loc 1 457 0
 5680 0004 0024     	 mov r4,#0
 455:C:/Workspace/DAVE-4.4.2-64Bit/optiga-trust-m/optiga/cmd\optiga_cmd.c ****     me->cmd_hdlrs = cmd_hdlrs;
 5681              	 .loc 1 455 0
 5682 0006 8375     	 strb r3,[r0,#22]
 456:C:/Workspace/DAVE-4.4.2-64Bit/optiga-trust-m/optiga/cmd\optiga_cmd.c ****     me->chaining_ongoing = FALSE;
 5683              	 .loc 1 456 0
 5684 0008 044B     	 ldr r3,.L487
 454:C:/Workspace/DAVE-4.4.2-64Bit/optiga-trust-m/optiga/cmd\optiga_cmd.c ****     me->cmd_next_execution_state = start_state;
 5685              	 .loc 1 454 0
 5686 000a 8260     	 str r2,[r0,#8]
 456:C:/Workspace/DAVE-4.4.2-64Bit/optiga-trust-m/optiga/cmd\optiga_cmd.c ****     me->chaining_ongoing = FALSE;
 5687              	 .loc 1 456 0
 5688 000c 4360     	 str r3,[r0,#4]
 457:C:/Workspace/DAVE-4.4.2-64Bit/optiga-trust-m/optiga/cmd\optiga_cmd.c ****     me->cmd_param = cmd_param;
 5689              	 .loc 1 457 0
 5690 000e C475     	 strb r4,[r0,#23]
 458:C:/Workspace/DAVE-4.4.2-64Bit/optiga-trust-m/optiga/cmd\optiga_cmd.c ****     optiga_cmd_execute_handler(me, OPTIGA_LIB_SUCCESS);
 5691              	 .loc 1 458 0
 5692 0010 0176     	 strb r1,[r0,#24]
 459:C:/Workspace/DAVE-4.4.2-64Bit/optiga-trust-m/optiga/cmd\optiga_cmd.c **** }
 5693              	 .loc 1 459 0
 5694 0012 211C     	 mov r1,r4
 5695              	.LVL586:
 5696 0014 FFF7FEFF 	 bl optiga_cmd_execute_handler
 5697              	.LVL587:
 5698              	.LBE251:
 5699              	.LBE252:
1487:C:/Workspace/DAVE-4.4.2-64Bit/optiga-trust-m/optiga/cmd\optiga_cmd.c **** 
 5700              	 .loc 1 1487 0
 5701              	 
 5702 0018 201C     	 mov r0,r4
 5703 001a 10BD     	 pop {r4,pc}
 5704              	.L488:
 5705              	 .align 2
 5706              	.L487:
 5707 001c 00000000 	 .word optiga_cmd_close_application_handler
 5708              	 .cfi_endproc
 5709              	.LFE28:
 5711              	 .section .text.optiga_cmd_get_data_object,"ax",%progbits
 5712              	 .align 1
 5713              	 .global optiga_cmd_get_data_object
 5714              	 .code 16
 5715              	 .thumb_func
 5717              	optiga_cmd_get_data_object:
 5718              	.LFB30:
1623:C:/Workspace/DAVE-4.4.2-64Bit/optiga-trust-m/optiga/cmd\optiga_cmd.c ****     OPTIGA_CMD_LOG_MESSAGE(__FUNCTION__);
 5719              	 .loc 1 1623 0
 5720              	 .cfi_startproc
 5721              	.LVL588:
 5722              	.LBB253:
 5723              	.LBB254:
 455:C:/Workspace/DAVE-4.4.2-64Bit/optiga-trust-m/optiga/cmd\optiga_cmd.c ****     me->cmd_hdlrs = cmd_hdlrs;
 5724              	 .loc 1 455 0
 5725 0000 0623     	 mov r3,#6
 5726              	.LBE254:
 5727              	.LBE253:
1623:C:/Workspace/DAVE-4.4.2-64Bit/optiga-trust-m/optiga/cmd\optiga_cmd.c ****     OPTIGA_CMD_LOG_MESSAGE(__FUNCTION__);
 5728              	 .loc 1 1623 0
 5729 0002 10B5     	 push {r4,lr}
 5730              	.LCFI31:
 5731              	 .cfi_def_cfa_offset 8
 5732              	 .cfi_offset 4,-8
 5733              	 .cfi_offset 14,-4
 5734              	.LBB256:
 5735              	.LBB255:
 457:C:/Workspace/DAVE-4.4.2-64Bit/optiga-trust-m/optiga/cmd\optiga_cmd.c ****     me->cmd_param = cmd_param;
 5736              	 .loc 1 457 0
 5737 0004 0024     	 mov r4,#0
 455:C:/Workspace/DAVE-4.4.2-64Bit/optiga-trust-m/optiga/cmd\optiga_cmd.c ****     me->cmd_hdlrs = cmd_hdlrs;
 5738              	 .loc 1 455 0
 5739 0006 8375     	 strb r3,[r0,#22]
 456:C:/Workspace/DAVE-4.4.2-64Bit/optiga-trust-m/optiga/cmd\optiga_cmd.c ****     me->chaining_ongoing = FALSE;
 5740              	 .loc 1 456 0
 5741 0008 044B     	 ldr r3,.L490
 454:C:/Workspace/DAVE-4.4.2-64Bit/optiga-trust-m/optiga/cmd\optiga_cmd.c ****     me->cmd_next_execution_state = start_state;
 5742              	 .loc 1 454 0
 5743 000a 8260     	 str r2,[r0,#8]
 456:C:/Workspace/DAVE-4.4.2-64Bit/optiga-trust-m/optiga/cmd\optiga_cmd.c ****     me->chaining_ongoing = FALSE;
 5744              	 .loc 1 456 0
 5745 000c 4360     	 str r3,[r0,#4]
 457:C:/Workspace/DAVE-4.4.2-64Bit/optiga-trust-m/optiga/cmd\optiga_cmd.c ****     me->cmd_param = cmd_param;
 5746              	 .loc 1 457 0
 5747 000e C475     	 strb r4,[r0,#23]
 458:C:/Workspace/DAVE-4.4.2-64Bit/optiga-trust-m/optiga/cmd\optiga_cmd.c ****     optiga_cmd_execute_handler(me, OPTIGA_LIB_SUCCESS);
 5748              	 .loc 1 458 0
 5749 0010 0176     	 strb r1,[r0,#24]
 459:C:/Workspace/DAVE-4.4.2-64Bit/optiga-trust-m/optiga/cmd\optiga_cmd.c **** }
 5750              	 .loc 1 459 0
 5751 0012 211C     	 mov r1,r4
 5752              	.LVL589:
 5753 0014 FFF7FEFF 	 bl optiga_cmd_execute_handler
 5754              	.LVL590:
 5755              	.LBE255:
 5756              	.LBE256:
1632:C:/Workspace/DAVE-4.4.2-64Bit/optiga-trust-m/optiga/cmd\optiga_cmd.c **** 
 5757              	 .loc 1 1632 0
 5758              	 
 5759 0018 201C     	 mov r0,r4
 5760 001a 10BD     	 pop {r4,pc}
 5761              	.L491:
 5762              	 .align 2
 5763              	.L490:
 5764 001c 00000000 	 .word optiga_cmd_get_data_object_handler
 5765              	 .cfi_endproc
 5766              	.LFE30:
 5768              	 .section .text.optiga_cmd_set_data_object,"ax",%progbits
 5769              	 .align 1
 5770              	 .global optiga_cmd_set_data_object
 5771              	 .code 16
 5772              	 .thumb_func
 5774              	optiga_cmd_set_data_object:
 5775              	.LFB32:
1728:C:/Workspace/DAVE-4.4.2-64Bit/optiga-trust-m/optiga/cmd\optiga_cmd.c ****     OPTIGA_CMD_LOG_MESSAGE(__FUNCTION__);
 5776              	 .loc 1 1728 0
 5777              	 .cfi_startproc
 5778              	.LVL591:
 5779              	.LBB257:
 5780              	.LBB258:
 455:C:/Workspace/DAVE-4.4.2-64Bit/optiga-trust-m/optiga/cmd\optiga_cmd.c ****     me->cmd_hdlrs = cmd_hdlrs;
 5781              	 .loc 1 455 0
 5782 0000 0623     	 mov r3,#6
 5783              	.LBE258:
 5784              	.LBE257:
1728:C:/Workspace/DAVE-4.4.2-64Bit/optiga-trust-m/optiga/cmd\optiga_cmd.c ****     OPTIGA_CMD_LOG_MESSAGE(__FUNCTION__);
 5785              	 .loc 1 1728 0
 5786 0002 10B5     	 push {r4,lr}
 5787              	.LCFI32:
 5788              	 .cfi_def_cfa_offset 8
 5789              	 .cfi_offset 4,-8
 5790              	 .cfi_offset 14,-4
 5791              	.LBB260:
 5792              	.LBB259:
 457:C:/Workspace/DAVE-4.4.2-64Bit/optiga-trust-m/optiga/cmd\optiga_cmd.c ****     me->cmd_param = cmd_param;
 5793              	 .loc 1 457 0
 5794 0004 0024     	 mov r4,#0
 455:C:/Workspace/DAVE-4.4.2-64Bit/optiga-trust-m/optiga/cmd\optiga_cmd.c ****     me->cmd_hdlrs = cmd_hdlrs;
 5795              	 .loc 1 455 0
 5796 0006 8375     	 strb r3,[r0,#22]
 456:C:/Workspace/DAVE-4.4.2-64Bit/optiga-trust-m/optiga/cmd\optiga_cmd.c ****     me->chaining_ongoing = FALSE;
 5797              	 .loc 1 456 0
 5798 0008 044B     	 ldr r3,.L493
 454:C:/Workspace/DAVE-4.4.2-64Bit/optiga-trust-m/optiga/cmd\optiga_cmd.c ****     me->cmd_next_execution_state = start_state;
 5799              	 .loc 1 454 0
 5800 000a 8260     	 str r2,[r0,#8]
 456:C:/Workspace/DAVE-4.4.2-64Bit/optiga-trust-m/optiga/cmd\optiga_cmd.c ****     me->chaining_ongoing = FALSE;
 5801              	 .loc 1 456 0
 5802 000c 4360     	 str r3,[r0,#4]
 457:C:/Workspace/DAVE-4.4.2-64Bit/optiga-trust-m/optiga/cmd\optiga_cmd.c ****     me->cmd_param = cmd_param;
 5803              	 .loc 1 457 0
 5804 000e C475     	 strb r4,[r0,#23]
 458:C:/Workspace/DAVE-4.4.2-64Bit/optiga-trust-m/optiga/cmd\optiga_cmd.c ****     optiga_cmd_execute_handler(me, OPTIGA_LIB_SUCCESS);
 5805              	 .loc 1 458 0
 5806 0010 0176     	 strb r1,[r0,#24]
 459:C:/Workspace/DAVE-4.4.2-64Bit/optiga-trust-m/optiga/cmd\optiga_cmd.c **** }
 5807              	 .loc 1 459 0
 5808 0012 211C     	 mov r1,r4
 5809              	.LVL592:
 5810 0014 FFF7FEFF 	 bl optiga_cmd_execute_handler
 5811              	.LVL593:
 5812              	.LBE259:
 5813              	.LBE260:
1737:C:/Workspace/DAVE-4.4.2-64Bit/optiga-trust-m/optiga/cmd\optiga_cmd.c **** 
 5814              	 .loc 1 1737 0
 5815              	 
 5816 0018 201C     	 mov r0,r4
 5817 001a 10BD     	 pop {r4,pc}
 5818              	.L494:
 5819              	 .align 2
 5820              	.L493:
 5821 001c 00000000 	 .word optiga_cmd_set_data_object_handler
 5822              	 .cfi_endproc
 5823              	.LFE32:
 5825              	 .section .text.optiga_cmd_get_random,"ax",%progbits
 5826              	 .align 1
 5827              	 .global optiga_cmd_get_random
 5828              	 .code 16
 5829              	 .thumb_func
 5831              	optiga_cmd_get_random:
 5832              	.LFB34:
1832:C:/Workspace/DAVE-4.4.2-64Bit/optiga-trust-m/optiga/cmd\optiga_cmd.c ****     optiga_cmd_state_t cmd_handler_state = OPTIGA_CMD_EXEC_REQUEST_LOCK;
 5833              	 .loc 1 1832 0
 5834              	 .cfi_startproc
 5835              	.LVL594:
1837:C:/Workspace/DAVE-4.4.2-64Bit/optiga-trust-m/optiga/cmd\optiga_cmd.c ****     }
 5836              	 .loc 1 1837 0
 5837 0000 0B1F     	 sub r3,r1,#4
1832:C:/Workspace/DAVE-4.4.2-64Bit/optiga-trust-m/optiga/cmd\optiga_cmd.c ****     optiga_cmd_state_t cmd_handler_state = OPTIGA_CMD_EXEC_REQUEST_LOCK;
 5838              	 .loc 1 1832 0
 5839 0002 10B5     	 push {r4,lr}
 5840              	.LCFI33:
 5841              	 .cfi_def_cfa_offset 8
 5842              	 .cfi_offset 4,-8
 5843              	 .cfi_offset 14,-4
1837:C:/Workspace/DAVE-4.4.2-64Bit/optiga-trust-m/optiga/cmd\optiga_cmd.c ****     }
 5844              	 .loc 1 1837 0
 5845 0004 5C1E     	 sub r4,r3,#1
 5846 0006 A341     	 sbc r3,r3,r4
 5847              	.LBB261:
 5848              	.LBB262:
 457:C:/Workspace/DAVE-4.4.2-64Bit/optiga-trust-m/optiga/cmd\optiga_cmd.c ****     me->cmd_param = cmd_param;
 5849              	 .loc 1 457 0
 5850 0008 0024     	 mov r4,#0
 5851              	.LBE262:
 5852              	.LBE261:
1837:C:/Workspace/DAVE-4.4.2-64Bit/optiga-trust-m/optiga/cmd\optiga_cmd.c ****     }
 5853              	 .loc 1 1837 0
 5854 000a 0533     	 add r3,r3,#5
 5855              	.LVL595:
 5856              	.LBB264:
 5857              	.LBB263:
 455:C:/Workspace/DAVE-4.4.2-64Bit/optiga-trust-m/optiga/cmd\optiga_cmd.c ****     me->cmd_hdlrs = cmd_hdlrs;
 5858              	 .loc 1 455 0
 5859 000c 8375     	 strb r3,[r0,#22]
 456:C:/Workspace/DAVE-4.4.2-64Bit/optiga-trust-m/optiga/cmd\optiga_cmd.c ****     me->chaining_ongoing = FALSE;
 5860              	 .loc 1 456 0
 5861 000e 054B     	 ldr r3,.L498
 5862              	.LVL596:
 454:C:/Workspace/DAVE-4.4.2-64Bit/optiga-trust-m/optiga/cmd\optiga_cmd.c ****     me->cmd_next_execution_state = start_state;
 5863              	 .loc 1 454 0
 5864 0010 8260     	 str r2,[r0,#8]
 456:C:/Workspace/DAVE-4.4.2-64Bit/optiga-trust-m/optiga/cmd\optiga_cmd.c ****     me->chaining_ongoing = FALSE;
 5865              	 .loc 1 456 0
 5866 0012 4360     	 str r3,[r0,#4]
 457:C:/Workspace/DAVE-4.4.2-64Bit/optiga-trust-m/optiga/cmd\optiga_cmd.c ****     me->cmd_param = cmd_param;
 5867              	 .loc 1 457 0
 5868 0014 C475     	 strb r4,[r0,#23]
 458:C:/Workspace/DAVE-4.4.2-64Bit/optiga-trust-m/optiga/cmd\optiga_cmd.c ****     optiga_cmd_execute_handler(me, OPTIGA_LIB_SUCCESS);
 5869              	 .loc 1 458 0
 5870 0016 0176     	 strb r1,[r0,#24]
 459:C:/Workspace/DAVE-4.4.2-64Bit/optiga-trust-m/optiga/cmd\optiga_cmd.c **** }
 5871              	 .loc 1 459 0
 5872 0018 211C     	 mov r1,r4
 5873              	.LVL597:
 5874 001a FFF7FEFF 	 bl optiga_cmd_execute_handler
 5875              	.LVL598:
 5876              	.LBE263:
 5877              	.LBE264:
1847:C:/Workspace/DAVE-4.4.2-64Bit/optiga-trust-m/optiga/cmd\optiga_cmd.c **** #endif //OPTIGA_CRYPT_RANDOM_ENABLED
 5878              	 .loc 1 1847 0
 5879              	 
 5880 001e 201C     	 mov r0,r4
 5881 0020 10BD     	 pop {r4,pc}
 5882              	.L499:
 5883 0022 C046     	 .align 2
 5884              	.L498:
 5885 0024 00000000 	 .word optiga_cmd_get_random_handler
 5886              	 .cfi_endproc
 5887              	.LFE34:
 5889              	 .section .text.optiga_cmd_calc_sign,"ax",%progbits
 5890              	 .align 1
 5891              	 .global optiga_cmd_calc_sign
 5892              	 .code 16
 5893              	 .thumb_func
 5895              	optiga_cmd_calc_sign:
 5896              	.LFB36:
1956:C:/Workspace/DAVE-4.4.2-64Bit/optiga-trust-m/optiga/cmd\optiga_cmd.c ****     optiga_lib_status_t return_status = OPTIGA_CMD_ERROR_INVALID_INPUT;
 5897              	 .loc 1 1956 0
 5898              	 .cfi_startproc
 5899              	.LVL599:
1963:C:/Workspace/DAVE-4.4.2-64Bit/optiga-trust-m/optiga/cmd\optiga_cmd.c ****         {
 5900              	 .loc 1 1963 0
 5901 0000 9389     	 ldrh r3,[r2,#12]
1956:C:/Workspace/DAVE-4.4.2-64Bit/optiga-trust-m/optiga/cmd\optiga_cmd.c ****     optiga_lib_status_t return_status = OPTIGA_CMD_ERROR_INVALID_INPUT;
 5902              	 .loc 1 1956 0
 5903 0002 10B5     	 push {r4,lr}
 5904              	.LCFI34:
 5905              	 .cfi_def_cfa_offset 8
 5906              	 .cfi_offset 4,-8
 5907              	 .cfi_offset 14,-4
1963:C:/Workspace/DAVE-4.4.2-64Bit/optiga-trust-m/optiga/cmd\optiga_cmd.c ****         {
 5908              	 .loc 1 1963 0
 5909 0004 002B     	 cmp r3,#0
 5910 0006 04D1     	 bne .L503
1965:C:/Workspace/DAVE-4.4.2-64Bit/optiga-trust-m/optiga/cmd\optiga_cmd.c ****             {
 5911              	 .loc 1 1965 0
 5912 0008 838A     	 ldrh r3,[r0,#20]
 5913 000a 002B     	 cmp r3,#0
 5914 000c 0ED0     	 beq .L504
1969:C:/Workspace/DAVE-4.4.2-64Bit/optiga-trust-m/optiga/cmd\optiga_cmd.c ****         }
 5915              	 .loc 1 1969 0
 5916 000e 0523     	 mov r3,#5
 5917 0010 00E0     	 b .L501
 5918              	.L503:
1959:C:/Workspace/DAVE-4.4.2-64Bit/optiga-trust-m/optiga/cmd\optiga_cmd.c ****     OPTIGA_CMD_LOG_MESSAGE(__FUNCTION__);
 5919              	 .loc 1 1959 0
 5920 0012 0623     	 mov r3,#6
 5921              	.L501:
 5922              	.LVL600:
 5923              	.LBB265:
 5924              	.LBB266:
 457:C:/Workspace/DAVE-4.4.2-64Bit/optiga-trust-m/optiga/cmd\optiga_cmd.c ****     me->cmd_param = cmd_param;
 5925              	 .loc 1 457 0
 5926 0014 0024     	 mov r4,#0
 455:C:/Workspace/DAVE-4.4.2-64Bit/optiga-trust-m/optiga/cmd\optiga_cmd.c ****     me->cmd_hdlrs = cmd_hdlrs;
 5927              	 .loc 1 455 0
 5928 0016 8375     	 strb r3,[r0,#22]
 456:C:/Workspace/DAVE-4.4.2-64Bit/optiga-trust-m/optiga/cmd\optiga_cmd.c ****     me->chaining_ongoing = FALSE;
 5929              	 .loc 1 456 0
 5930 0018 054B     	 ldr r3,.L505
 5931              	.LVL601:
 458:C:/Workspace/DAVE-4.4.2-64Bit/optiga-trust-m/optiga/cmd\optiga_cmd.c ****     optiga_cmd_execute_handler(me, OPTIGA_LIB_SUCCESS);
 5932              	 .loc 1 458 0
 5933 001a 0176     	 strb r1,[r0,#24]
 454:C:/Workspace/DAVE-4.4.2-64Bit/optiga-trust-m/optiga/cmd\optiga_cmd.c ****     me->cmd_next_execution_state = start_state;
 5934              	 .loc 1 454 0
 5935 001c 8260     	 str r2,[r0,#8]
 456:C:/Workspace/DAVE-4.4.2-64Bit/optiga-trust-m/optiga/cmd\optiga_cmd.c ****     me->chaining_ongoing = FALSE;
 5936              	 .loc 1 456 0
 5937 001e 4360     	 str r3,[r0,#4]
 457:C:/Workspace/DAVE-4.4.2-64Bit/optiga-trust-m/optiga/cmd\optiga_cmd.c ****     me->cmd_param = cmd_param;
 5938              	 .loc 1 457 0
 5939 0020 C475     	 strb r4,[r0,#23]
 459:C:/Workspace/DAVE-4.4.2-64Bit/optiga-trust-m/optiga/cmd\optiga_cmd.c **** }
 5940              	 .loc 1 459 0
 5941 0022 211C     	 mov r1,r4
 5942              	.LVL602:
 5943 0024 FFF7FEFF 	 bl optiga_cmd_execute_handler
 5944              	.LVL603:
 5945              	.LBE266:
 5946              	.LBE265:
1979:C:/Workspace/DAVE-4.4.2-64Bit/optiga-trust-m/optiga/cmd\optiga_cmd.c ****     } while (FALSE);
 5947              	 .loc 1 1979 0
 5948 0028 201C     	 mov r0,r4
 5949 002a 00E0     	 b .L502
 5950              	.LVL604:
 5951              	.L504:
1957:C:/Workspace/DAVE-4.4.2-64Bit/optiga-trust-m/optiga/cmd\optiga_cmd.c ****     optiga_calc_sign_params_t * p_optiga_ecdsa_sign = (optiga_calc_sign_params_t*)params;
 5952              	 .loc 1 1957 0
 5953 002c 0148     	 ldr r0,.L505+4
 5954              	.LVL605:
 5955              	.L502:
1982:C:/Workspace/DAVE-4.4.2-64Bit/optiga-trust-m/optiga/cmd\optiga_cmd.c **** #endif //(OPTIGA_CRYPT_ECDSA_SIGN_ENABLED) ||(OPTIGA_CRYPT_RSA_SIGN_ENABLED)
 5956              	 .loc 1 1982 0
 5957              	 
 5958 002e 10BD     	 pop {r4,pc}
 5959              	.L506:
 5960              	 .align 2
 5961              	.L505:
 5962 0030 00000000 	 .word optiga_cmd_calc_sign_handler
 5963 0034 03020000 	 .word 515
 5964              	 .cfi_endproc
 5965              	.LFE36:
 5967              	 .section .text.optiga_cmd_verify_sign,"ax",%progbits
 5968              	 .align 1
 5969              	 .global optiga_cmd_verify_sign
 5970              	 .code 16
 5971              	 .thumb_func
 5973              	optiga_cmd_verify_sign:
 5974              	.LFB38:
2104:C:/Workspace/DAVE-4.4.2-64Bit/optiga-trust-m/optiga/cmd\optiga_cmd.c ****     OPTIGA_CMD_LOG_MESSAGE(__FUNCTION__);
 5975              	 .loc 1 2104 0
 5976              	 .cfi_startproc
 5977              	.LVL606:
 5978              	.LBB267:
 5979              	.LBB268:
 455:C:/Workspace/DAVE-4.4.2-64Bit/optiga-trust-m/optiga/cmd\optiga_cmd.c ****     me->cmd_hdlrs = cmd_hdlrs;
 5980              	 .loc 1 455 0
 5981 0000 0623     	 mov r3,#6
 5982              	.LBE268:
 5983              	.LBE267:
2104:C:/Workspace/DAVE-4.4.2-64Bit/optiga-trust-m/optiga/cmd\optiga_cmd.c ****     OPTIGA_CMD_LOG_MESSAGE(__FUNCTION__);
 5984              	 .loc 1 2104 0
 5985 0002 10B5     	 push {r4,lr}
 5986              	.LCFI35:
 5987              	 .cfi_def_cfa_offset 8
 5988              	 .cfi_offset 4,-8
 5989              	 .cfi_offset 14,-4
 5990              	.LBB270:
 5991              	.LBB269:
 457:C:/Workspace/DAVE-4.4.2-64Bit/optiga-trust-m/optiga/cmd\optiga_cmd.c ****     me->cmd_param = cmd_param;
 5992              	 .loc 1 457 0
 5993 0004 0024     	 mov r4,#0
 455:C:/Workspace/DAVE-4.4.2-64Bit/optiga-trust-m/optiga/cmd\optiga_cmd.c ****     me->cmd_hdlrs = cmd_hdlrs;
 5994              	 .loc 1 455 0
 5995 0006 8375     	 strb r3,[r0,#22]
 456:C:/Workspace/DAVE-4.4.2-64Bit/optiga-trust-m/optiga/cmd\optiga_cmd.c ****     me->chaining_ongoing = FALSE;
 5996              	 .loc 1 456 0
 5997 0008 044B     	 ldr r3,.L508
 454:C:/Workspace/DAVE-4.4.2-64Bit/optiga-trust-m/optiga/cmd\optiga_cmd.c ****     me->cmd_next_execution_state = start_state;
 5998              	 .loc 1 454 0
 5999 000a 8260     	 str r2,[r0,#8]
 456:C:/Workspace/DAVE-4.4.2-64Bit/optiga-trust-m/optiga/cmd\optiga_cmd.c ****     me->chaining_ongoing = FALSE;
 6000              	 .loc 1 456 0
 6001 000c 4360     	 str r3,[r0,#4]
 457:C:/Workspace/DAVE-4.4.2-64Bit/optiga-trust-m/optiga/cmd\optiga_cmd.c ****     me->cmd_param = cmd_param;
 6002              	 .loc 1 457 0
 6003 000e C475     	 strb r4,[r0,#23]
 458:C:/Workspace/DAVE-4.4.2-64Bit/optiga-trust-m/optiga/cmd\optiga_cmd.c ****     optiga_cmd_execute_handler(me, OPTIGA_LIB_SUCCESS);
 6004              	 .loc 1 458 0
 6005 0010 0176     	 strb r1,[r0,#24]
 459:C:/Workspace/DAVE-4.4.2-64Bit/optiga-trust-m/optiga/cmd\optiga_cmd.c **** }
 6006              	 .loc 1 459 0
 6007 0012 211C     	 mov r1,r4
 6008              	.LVL607:
 6009 0014 FFF7FEFF 	 bl optiga_cmd_execute_handler
 6010              	.LVL608:
 6011              	.LBE269:
 6012              	.LBE270:
2113:C:/Workspace/DAVE-4.4.2-64Bit/optiga-trust-m/optiga/cmd\optiga_cmd.c **** #endif //OPTIGA_CRYPT_ECDSA_VERIFY_ENABLED
 6013              	 .loc 1 2113 0
 6014              	 
 6015 0018 201C     	 mov r0,r4
 6016 001a 10BD     	 pop {r4,pc}
 6017              	.L509:
 6018              	 .align 2
 6019              	.L508:
 6020 001c 00000000 	 .word optiga_cmd_verify_sign_handler
 6021              	 .cfi_endproc
 6022              	.LFE38:
 6024              	 .section .text.optiga_cmd_calc_ssec,"ax",%progbits
 6025              	 .align 1
 6026              	 .global optiga_cmd_calc_ssec
 6027              	 .code 16
 6028              	 .thumb_func
 6030              	optiga_cmd_calc_ssec:
 6031              	.LFB40:
2242:C:/Workspace/DAVE-4.4.2-64Bit/optiga-trust-m/optiga/cmd\optiga_cmd.c ****     optiga_lib_status_t return_status = OPTIGA_CMD_ERROR_INVALID_INPUT;
 6032              	 .loc 1 2242 0
 6033              	 .cfi_startproc
 6034              	.LVL609:
2250:C:/Workspace/DAVE-4.4.2-64Bit/optiga-trust-m/optiga/cmd\optiga_cmd.c ****             (OPTIGA_CMD_ZERO_LENGTH_OR_VALUE == me->session_oid))
 6035              	 .loc 1 2250 0
 6036 0000 1389     	 ldrh r3,[r2,#8]
2242:C:/Workspace/DAVE-4.4.2-64Bit/optiga-trust-m/optiga/cmd\optiga_cmd.c ****     optiga_lib_status_t return_status = OPTIGA_CMD_ERROR_INVALID_INPUT;
 6037              	 .loc 1 2242 0
 6038 0002 10B5     	 push {r4,lr}
 6039              	.LCFI36:
 6040              	 .cfi_def_cfa_offset 8
 6041              	 .cfi_offset 4,-8
 6042              	 .cfi_offset 14,-4
2250:C:/Workspace/DAVE-4.4.2-64Bit/optiga-trust-m/optiga/cmd\optiga_cmd.c ****             (OPTIGA_CMD_ZERO_LENGTH_OR_VALUE == me->session_oid))
 6043              	 .loc 1 2250 0
 6044 0004 002B     	 cmp r3,#0
 6045 0006 04D1     	 bne .L511
2250:C:/Workspace/DAVE-4.4.2-64Bit/optiga-trust-m/optiga/cmd\optiga_cmd.c ****             (OPTIGA_CMD_ZERO_LENGTH_OR_VALUE == me->session_oid))
 6046              	 .loc 1 2250 0 is_stmt 0 discriminator 1
 6047 0008 838A     	 ldrh r3,[r0,#20]
 6048 000a 002B     	 cmp r3,#0
 6049 000c 12D0     	 beq .L514
2245:C:/Workspace/DAVE-4.4.2-64Bit/optiga-trust-m/optiga/cmd\optiga_cmd.c ****     OPTIGA_CMD_LOG_MESSAGE(__FUNCTION__);
 6050              	 .loc 1 2245 0 is_stmt 1
 6051 000e 0523     	 mov r3,#5
 6052 0010 04E0     	 b .L513
 6053              	.L511:
2255:C:/Workspace/DAVE-4.4.2-64Bit/optiga-trust-m/optiga/cmd\optiga_cmd.c ****             (FALSE != p_optiga_ecdh->export_to_host))
 6054              	 .loc 1 2255 0 discriminator 1
 6055 0012 937A     	 ldrb r3,[r2,#10]
2258:C:/Workspace/DAVE-4.4.2-64Bit/optiga-trust-m/optiga/cmd\optiga_cmd.c ****         }
 6056              	 .loc 1 2258 0 discriminator 1
 6057 0014 5C42     	 neg r4,r3
 6058 0016 6341     	 adc r3,r3,r4
 6059 0018 0624     	 mov r4,#6
 6060 001a E31A     	 sub r3,r4,r3
 6061              	.L513:
 6062              	.LVL610:
 6063              	.LBB271:
 6064              	.LBB272:
 457:C:/Workspace/DAVE-4.4.2-64Bit/optiga-trust-m/optiga/cmd\optiga_cmd.c ****     me->cmd_param = cmd_param;
 6065              	 .loc 1 457 0
 6066 001c 0024     	 mov r4,#0
 455:C:/Workspace/DAVE-4.4.2-64Bit/optiga-trust-m/optiga/cmd\optiga_cmd.c ****     me->cmd_hdlrs = cmd_hdlrs;
 6067              	 .loc 1 455 0
 6068 001e 8375     	 strb r3,[r0,#22]
 456:C:/Workspace/DAVE-4.4.2-64Bit/optiga-trust-m/optiga/cmd\optiga_cmd.c ****     me->chaining_ongoing = FALSE;
 6069              	 .loc 1 456 0
 6070 0020 054B     	 ldr r3,.L516
 6071              	.LVL611:
 458:C:/Workspace/DAVE-4.4.2-64Bit/optiga-trust-m/optiga/cmd\optiga_cmd.c ****     optiga_cmd_execute_handler(me, OPTIGA_LIB_SUCCESS);
 6072              	 .loc 1 458 0
 6073 0022 0176     	 strb r1,[r0,#24]
 454:C:/Workspace/DAVE-4.4.2-64Bit/optiga-trust-m/optiga/cmd\optiga_cmd.c ****     me->cmd_next_execution_state = start_state;
 6074              	 .loc 1 454 0
 6075 0024 8260     	 str r2,[r0,#8]
 456:C:/Workspace/DAVE-4.4.2-64Bit/optiga-trust-m/optiga/cmd\optiga_cmd.c ****     me->chaining_ongoing = FALSE;
 6076              	 .loc 1 456 0
 6077 0026 4360     	 str r3,[r0,#4]
 457:C:/Workspace/DAVE-4.4.2-64Bit/optiga-trust-m/optiga/cmd\optiga_cmd.c ****     me->cmd_param = cmd_param;
 6078              	 .loc 1 457 0
 6079 0028 C475     	 strb r4,[r0,#23]
 459:C:/Workspace/DAVE-4.4.2-64Bit/optiga-trust-m/optiga/cmd\optiga_cmd.c **** }
 6080              	 .loc 1 459 0
 6081 002a 211C     	 mov r1,r4
 6082              	.LVL612:
 6083 002c FFF7FEFF 	 bl optiga_cmd_execute_handler
 6084              	.LVL613:
 6085              	.LBE272:
 6086              	.LBE271:
2266:C:/Workspace/DAVE-4.4.2-64Bit/optiga-trust-m/optiga/cmd\optiga_cmd.c **** 
 6087              	 .loc 1 2266 0
 6088 0030 201C     	 mov r0,r4
 6089 0032 00E0     	 b .L512
 6090              	.LVL614:
 6091              	.L514:
2243:C:/Workspace/DAVE-4.4.2-64Bit/optiga-trust-m/optiga/cmd\optiga_cmd.c ****     optiga_calc_ssec_params_t * p_optiga_ecdh = (optiga_calc_ssec_params_t *)params;
 6092              	 .loc 1 2243 0
 6093 0034 0148     	 ldr r0,.L516+4
 6094              	.LVL615:
 6095              	.L512:
2271:C:/Workspace/DAVE-4.4.2-64Bit/optiga-trust-m/optiga/cmd\optiga_cmd.c **** #endif //OPTIGA_CRYPT_ECDH_ENABLED
 6096              	 .loc 1 2271 0
 6097              	 
 6098 0036 10BD     	 pop {r4,pc}
 6099              	.L517:
 6100              	 .align 2
 6101              	.L516:
 6102 0038 00000000 	 .word optiga_cmd_calc_ssec_handler
 6103 003c 03020000 	 .word 515
 6104              	 .cfi_endproc
 6105              	.LFE40:
 6107              	 .section .text.optiga_cmd_derive_key,"ax",%progbits
 6108              	 .align 1
 6109              	 .global optiga_cmd_derive_key
 6110              	 .code 16
 6111              	 .thumb_func
 6113              	optiga_cmd_derive_key:
 6114              	.LFB42:
2425:C:/Workspace/DAVE-4.4.2-64Bit/optiga-trust-m/optiga/cmd\optiga_cmd.c ****     optiga_lib_status_t return_status = OPTIGA_CMD_ERROR_INVALID_INPUT;
 6115              	 .loc 1 2425 0
 6116              	 .cfi_startproc
 6117              	.LVL616:
 6118 0000 08B5     	 push {r3,lr}
 6119              	.LCFI37:
 6120              	 .cfi_def_cfa_offset 8
 6121              	 .cfi_offset 3,-8
 6122              	 .cfi_offset 14,-4
2433:C:/Workspace/DAVE-4.4.2-64Bit/optiga-trust-m/optiga/cmd\optiga_cmd.c ****             (OPTIGA_CMD_ZERO_LENGTH_OR_VALUE == me->session_oid))
 6123              	 .loc 1 2433 0
 6124 0002 1388     	 ldrh r3,[r2]
 6125 0004 002B     	 cmp r3,#0
 6126 0006 02D1     	 bne .L519
2433:C:/Workspace/DAVE-4.4.2-64Bit/optiga-trust-m/optiga/cmd\optiga_cmd.c ****             (OPTIGA_CMD_ZERO_LENGTH_OR_VALUE == me->session_oid))
 6127              	 .loc 1 2433 0 is_stmt 0 discriminator 1
 6128 0008 838A     	 ldrh r3,[r0,#20]
 6129 000a 002B     	 cmp r3,#0
 6130 000c 14D0     	 beq .L522
 6131              	.L519:
2439:C:/Workspace/DAVE-4.4.2-64Bit/optiga-trust-m/optiga/cmd\optiga_cmd.c ****         me->cmd_param = cmd_param;
 6132              	 .loc 1 2439 0 is_stmt 1
 6133 000e 0023     	 mov r3,#0
2440:C:/Workspace/DAVE-4.4.2-64Bit/optiga-trust-m/optiga/cmd\optiga_cmd.c ****         initial_state = OPTIGA_CMD_EXEC_REQUEST_LOCK;
 6134              	 .loc 1 2440 0
 6135 0010 0176     	 strb r1,[r0,#24]
 6136              	.LVL617:
2439:C:/Workspace/DAVE-4.4.2-64Bit/optiga-trust-m/optiga/cmd\optiga_cmd.c ****         me->cmd_param = cmd_param;
 6137              	 .loc 1 2439 0
 6138 0012 C375     	 strb r3,[r0,#23]
2443:C:/Workspace/DAVE-4.4.2-64Bit/optiga-trust-m/optiga/cmd\optiga_cmd.c ****             (0x00 == p_optiga_tls_prf_sha256->input_shared_secret_oid))
 6139              	 .loc 1 2443 0
 6140 0014 1169     	 ldr r1,[r2,#16]
 6141              	.LVL618:
2446:C:/Workspace/DAVE-4.4.2-64Bit/optiga-trust-m/optiga/cmd\optiga_cmd.c ****         }
 6142              	 .loc 1 2446 0
 6143 0016 0533     	 add r3,r3,#5
2443:C:/Workspace/DAVE-4.4.2-64Bit/optiga-trust-m/optiga/cmd\optiga_cmd.c ****             (0x00 == p_optiga_tls_prf_sha256->input_shared_secret_oid))
 6144              	 .loc 1 2443 0
 6145 0018 0029     	 cmp r1,#0
 6146 001a 04D0     	 beq .L521
2443:C:/Workspace/DAVE-4.4.2-64Bit/optiga-trust-m/optiga/cmd\optiga_cmd.c ****             (0x00 == p_optiga_tls_prf_sha256->input_shared_secret_oid))
 6147              	 .loc 1 2443 0 is_stmt 0 discriminator 1
 6148 001c 1188     	 ldrh r1,[r2]
2441:C:/Workspace/DAVE-4.4.2-64Bit/optiga-trust-m/optiga/cmd\optiga_cmd.c **** 
 6149              	 .loc 1 2441 0 is_stmt 1 discriminator 1
 6150 001e 4B42     	 neg r3,r1
 6151 0020 4B41     	 adc r3,r3,r1
 6152 0022 0621     	 mov r1,#6
 6153 0024 CB1A     	 sub r3,r1,r3
 6154              	.L521:
 6155              	.LVL619:
 6156              	.LBB273:
 6157              	.LBB274:
 455:C:/Workspace/DAVE-4.4.2-64Bit/optiga-trust-m/optiga/cmd\optiga_cmd.c ****     me->cmd_hdlrs = cmd_hdlrs;
 6158              	 .loc 1 455 0
 6159 0026 8375     	 strb r3,[r0,#22]
 456:C:/Workspace/DAVE-4.4.2-64Bit/optiga-trust-m/optiga/cmd\optiga_cmd.c ****     me->chaining_ongoing = FALSE;
 6160              	 .loc 1 456 0
 6161 0028 044B     	 ldr r3,.L525
 6162              	.LVL620:
 454:C:/Workspace/DAVE-4.4.2-64Bit/optiga-trust-m/optiga/cmd\optiga_cmd.c ****     me->cmd_next_execution_state = start_state;
 6163              	 .loc 1 454 0
 6164 002a 8260     	 str r2,[r0,#8]
 456:C:/Workspace/DAVE-4.4.2-64Bit/optiga-trust-m/optiga/cmd\optiga_cmd.c ****     me->chaining_ongoing = FALSE;
 6165              	 .loc 1 456 0
 6166 002c 4360     	 str r3,[r0,#4]
 459:C:/Workspace/DAVE-4.4.2-64Bit/optiga-trust-m/optiga/cmd\optiga_cmd.c **** }
 6167              	 .loc 1 459 0
 6168 002e 0021     	 mov r1,#0
 6169 0030 FFF7FEFF 	 bl optiga_cmd_execute_handler
 6170              	.LVL621:
 6171              	.LBE274:
 6172              	.LBE273:
2455:C:/Workspace/DAVE-4.4.2-64Bit/optiga-trust-m/optiga/cmd\optiga_cmd.c **** 
 6173              	 .loc 1 2455 0
 6174 0034 0020     	 mov r0,#0
 6175 0036 00E0     	 b .L520
 6176              	.LVL622:
 6177              	.L522:
2426:C:/Workspace/DAVE-4.4.2-64Bit/optiga-trust-m/optiga/cmd\optiga_cmd.c ****     optiga_derive_key_params_t * p_optiga_tls_prf_sha256 = (optiga_derive_key_params_t*)params;
 6178              	 .loc 1 2426 0
 6179 0038 0148     	 ldr r0,.L525+4
 6180              	.LVL623:
 6181              	.L520:
2459:C:/Workspace/DAVE-4.4.2-64Bit/optiga-trust-m/optiga/cmd\optiga_cmd.c **** #endif //OPTIGA_CRYPT_TLS_PRF_SHA256_ENABLED
 6182              	 .loc 1 2459 0
 6183              	 
 6184 003a 08BD     	 pop {r3,pc}
 6185              	.L526:
 6186              	 .align 2
 6187              	.L525:
 6188 003c 00000000 	 .word optiga_cmd_derive_key_handler
 6189 0040 03020000 	 .word 515
 6190              	 .cfi_endproc
 6191              	.LFE42:
 6193              	 .section .text.optiga_cmd_gen_keypair,"ax",%progbits
 6194              	 .align 1
 6195              	 .global optiga_cmd_gen_keypair
 6196              	 .code 16
 6197              	 .thumb_func
 6199              	optiga_cmd_gen_keypair:
 6200              	.LFB44:
2601:C:/Workspace/DAVE-4.4.2-64Bit/optiga-trust-m/optiga/cmd\optiga_cmd.c ****     optiga_gen_keypair_params_t * p_optiga_ecc_gen_keypair = (optiga_gen_keypair_params_t*)params;
 6201              	 .loc 1 2601 0
 6202              	 .cfi_startproc
 6203              	.LVL624:
2606:C:/Workspace/DAVE-4.4.2-64Bit/optiga-trust-m/optiga/cmd\optiga_cmd.c ****     {
 6204              	 .loc 1 2606 0
 6205 0000 FF23     	 mov r3,#255
2601:C:/Workspace/DAVE-4.4.2-64Bit/optiga-trust-m/optiga/cmd\optiga_cmd.c ****     optiga_gen_keypair_params_t * p_optiga_ecc_gen_keypair = (optiga_gen_keypair_params_t*)params;
 6206              	 .loc 1 2601 0
 6207 0002 10B5     	 push {r4,lr}
 6208              	.LCFI38:
 6209              	 .cfi_def_cfa_offset 8
 6210              	 .cfi_offset 4,-8
 6211              	 .cfi_offset 14,-4
2606:C:/Workspace/DAVE-4.4.2-64Bit/optiga-trust-m/optiga/cmd\optiga_cmd.c ****     {
 6212              	 .loc 1 2606 0
 6213 0004 1468     	 ldr r4,[r2]
 6214              	.LBB275:
 6215              	.LBB276:
 454:C:/Workspace/DAVE-4.4.2-64Bit/optiga-trust-m/optiga/cmd\optiga_cmd.c ****     me->cmd_next_execution_state = start_state;
 6216              	 .loc 1 454 0
 6217 0006 8260     	 str r2,[r0,#8]
 6218              	.LBE276:
 6219              	.LBE275:
2606:C:/Workspace/DAVE-4.4.2-64Bit/optiga-trust-m/optiga/cmd\optiga_cmd.c ****     {
 6220              	 .loc 1 2606 0
 6221 0008 9C43     	 bic r4,r3
 6222 000a 231E     	 sub r3,r4,#0
 6223 000c 084C     	 ldr r4,.L531
2605:C:/Workspace/DAVE-4.4.2-64Bit/optiga-trust-m/optiga/cmd\optiga_cmd.c ****         && (FALSE == p_optiga_ecc_gen_keypair->export_private_key))
 6224              	 .loc 1 2605 0
 6225 000e 03D1     	 bne .L528
 6226              	.LVL625:
 6227              	.LBB278:
 6228              	.LBB277:
 455:C:/Workspace/DAVE-4.4.2-64Bit/optiga-trust-m/optiga/cmd\optiga_cmd.c ****     me->cmd_hdlrs = cmd_hdlrs;
 6229              	 .loc 1 455 0
 6230 0010 0522     	 mov r2,#5
 6231              	.LVL626:
 456:C:/Workspace/DAVE-4.4.2-64Bit/optiga-trust-m/optiga/cmd\optiga_cmd.c ****     me->chaining_ongoing = FALSE;
 6232              	 .loc 1 456 0
 6233 0012 4460     	 str r4,[r0,#4]
 455:C:/Workspace/DAVE-4.4.2-64Bit/optiga-trust-m/optiga/cmd\optiga_cmd.c ****     me->cmd_hdlrs = cmd_hdlrs;
 6234              	 .loc 1 455 0
 6235 0014 8275     	 strb r2,[r0,#22]
 6236 0016 03E0     	 b .L530
 6237              	.LVL627:
 6238              	.L528:
 6239              	.LBE277:
 6240              	.LBE278:
 6241              	.LBB279:
 6242              	.LBB280:
 6243 0018 0623     	 mov r3,#6
 6244 001a 8375     	 strb r3,[r0,#22]
 457:C:/Workspace/DAVE-4.4.2-64Bit/optiga-trust-m/optiga/cmd\optiga_cmd.c ****     me->cmd_param = cmd_param;
 6245              	 .loc 1 457 0
 6246 001c 0023     	 mov r3,#0
 456:C:/Workspace/DAVE-4.4.2-64Bit/optiga-trust-m/optiga/cmd\optiga_cmd.c ****     me->chaining_ongoing = FALSE;
 6247              	 .loc 1 456 0
 6248 001e 4460     	 str r4,[r0,#4]
 6249              	.LVL628:
 6250              	.L530:
 457:C:/Workspace/DAVE-4.4.2-64Bit/optiga-trust-m/optiga/cmd\optiga_cmd.c ****     me->cmd_param = cmd_param;
 6251              	 .loc 1 457 0
 6252 0020 C375     	 strb r3,[r0,#23]
 458:C:/Workspace/DAVE-4.4.2-64Bit/optiga-trust-m/optiga/cmd\optiga_cmd.c ****     optiga_cmd_execute_handler(me, OPTIGA_LIB_SUCCESS);
 6253              	 .loc 1 458 0
 6254 0022 0176     	 strb r1,[r0,#24]
 459:C:/Workspace/DAVE-4.4.2-64Bit/optiga-trust-m/optiga/cmd\optiga_cmd.c **** }
 6255              	 .loc 1 459 0
 6256 0024 191C     	 mov r1,r3
 6257              	.LVL629:
 6258 0026 FFF7FEFF 	 bl optiga_cmd_execute_handler
 6259              	.LVL630:
 6260              	.LBE280:
 6261              	.LBE279:
2616:C:/Workspace/DAVE-4.4.2-64Bit/optiga-trust-m/optiga/cmd\optiga_cmd.c **** #endif //OPTIGA_CRYPT_ECC_GENERATE_KEYPAIR_ENABLED
 6262              	 .loc 1 2616 0
 6263              	 
 6264 002a 0020     	 mov r0,#0
 6265 002c 10BD     	 pop {r4,pc}
 6266              	.L532:
 6267 002e C046     	 .align 2
 6268              	.L531:
 6269 0030 00000000 	 .word optiga_cmd_gen_keypair_handler
 6270              	 .cfi_endproc
 6271              	.LFE44:
 6273              	 .section .text.optiga_cmd_encrypt_asym,"ax",%progbits
 6274              	 .align 1
 6275              	 .global optiga_cmd_encrypt_asym
 6276              	 .code 16
 6277              	 .thumb_func
 6279              	optiga_cmd_encrypt_asym:
 6280              	.LFB46:
2776:C:/Workspace/DAVE-4.4.2-64Bit/optiga-trust-m/optiga/cmd\optiga_cmd.c ****     optiga_lib_status_t return_status = OPTIGA_CMD_ERROR_INVALID_INPUT;
 6281              	 .loc 1 2776 0
 6282              	 .cfi_startproc
 6283              	.LVL631:
2781:C:/Workspace/DAVE-4.4.2-64Bit/optiga-trust-m/optiga/cmd\optiga_cmd.c ****         (NULL != params->message))
 6284              	 .loc 1 2781 0
 6285 0000 9368     	 ldr r3,[r2,#8]
2776:C:/Workspace/DAVE-4.4.2-64Bit/optiga-trust-m/optiga/cmd\optiga_cmd.c ****     optiga_lib_status_t return_status = OPTIGA_CMD_ERROR_INVALID_INPUT;
 6286              	 .loc 1 2776 0
 6287 0002 10B5     	 push {r4,lr}
 6288              	.LCFI39:
 6289              	 .cfi_def_cfa_offset 8
 6290              	 .cfi_offset 4,-8
 6291              	 .cfi_offset 14,-4
2781:C:/Workspace/DAVE-4.4.2-64Bit/optiga-trust-m/optiga/cmd\optiga_cmd.c ****         (NULL != params->message))
 6292              	 .loc 1 2781 0
 6293 0004 002B     	 cmp r3,#0
 6294 0006 05D1     	 bne .L534
2781:C:/Workspace/DAVE-4.4.2-64Bit/optiga-trust-m/optiga/cmd\optiga_cmd.c ****         (NULL != params->message))
 6295              	 .loc 1 2781 0 is_stmt 0 discriminator 1
 6296 0008 1388     	 ldrh r3,[r2]
 6297 000a 002B     	 cmp r3,#0
 6298 000c 0FD1     	 bne .L537
2781:C:/Workspace/DAVE-4.4.2-64Bit/optiga-trust-m/optiga/cmd\optiga_cmd.c ****         (NULL != params->message))
 6299              	 .loc 1 2781 0 discriminator 3
 6300 000e 838A     	 ldrh r3,[r0,#20]
 6301 0010 002B     	 cmp r3,#0
 6302 0012 0CD0     	 beq .L537
 6303              	.L534:
 6304              	.LVL632:
 6305              	.LBB281:
 6306              	.LBB282:
 455:C:/Workspace/DAVE-4.4.2-64Bit/optiga-trust-m/optiga/cmd\optiga_cmd.c ****     me->cmd_hdlrs = cmd_hdlrs;
 6307              	 .loc 1 455 0 is_stmt 1
 6308 0014 0623     	 mov r3,#6
 457:C:/Workspace/DAVE-4.4.2-64Bit/optiga-trust-m/optiga/cmd\optiga_cmd.c ****     me->cmd_param = cmd_param;
 6309              	 .loc 1 457 0
 6310 0016 0024     	 mov r4,#0
 455:C:/Workspace/DAVE-4.4.2-64Bit/optiga-trust-m/optiga/cmd\optiga_cmd.c ****     me->cmd_hdlrs = cmd_hdlrs;
 6311              	 .loc 1 455 0
 6312 0018 8375     	 strb r3,[r0,#22]
 456:C:/Workspace/DAVE-4.4.2-64Bit/optiga-trust-m/optiga/cmd\optiga_cmd.c ****     me->chaining_ongoing = FALSE;
 6313              	 .loc 1 456 0
 6314 001a 064B     	 ldr r3,.L538
 458:C:/Workspace/DAVE-4.4.2-64Bit/optiga-trust-m/optiga/cmd\optiga_cmd.c ****     optiga_cmd_execute_handler(me, OPTIGA_LIB_SUCCESS);
 6315              	 .loc 1 458 0
 6316 001c 0176     	 strb r1,[r0,#24]
 454:C:/Workspace/DAVE-4.4.2-64Bit/optiga-trust-m/optiga/cmd\optiga_cmd.c ****     me->cmd_next_execution_state = start_state;
 6317              	 .loc 1 454 0
 6318 001e 8260     	 str r2,[r0,#8]
 456:C:/Workspace/DAVE-4.4.2-64Bit/optiga-trust-m/optiga/cmd\optiga_cmd.c ****     me->chaining_ongoing = FALSE;
 6319              	 .loc 1 456 0
 6320 0020 4360     	 str r3,[r0,#4]
 457:C:/Workspace/DAVE-4.4.2-64Bit/optiga-trust-m/optiga/cmd\optiga_cmd.c ****     me->cmd_param = cmd_param;
 6321              	 .loc 1 457 0
 6322 0022 C475     	 strb r4,[r0,#23]
 459:C:/Workspace/DAVE-4.4.2-64Bit/optiga-trust-m/optiga/cmd\optiga_cmd.c **** }
 6323              	 .loc 1 459 0
 6324 0024 211C     	 mov r1,r4
 6325              	.LVL633:
 6326 0026 FFF7FEFF 	 bl optiga_cmd_execute_handler
 6327              	.LVL634:
 6328              	.LBE282:
 6329              	.LBE281:
2785:C:/Workspace/DAVE-4.4.2-64Bit/optiga-trust-m/optiga/cmd\optiga_cmd.c ****     }
 6330              	 .loc 1 2785 0
 6331 002a 201C     	 mov r0,r4
 6332 002c 00E0     	 b .L535
 6333              	.LVL635:
 6334              	.L537:
2777:C:/Workspace/DAVE-4.4.2-64Bit/optiga-trust-m/optiga/cmd\optiga_cmd.c ****     OPTIGA_CMD_LOG_MESSAGE(__FUNCTION__);
 6335              	 .loc 1 2777 0
 6336 002e 0248     	 ldr r0,.L538+4
 6337              	.LVL636:
 6338              	.L535:
2788:C:/Workspace/DAVE-4.4.2-64Bit/optiga-trust-m/optiga/cmd\optiga_cmd.c **** #endif // OPTIGA_CRYPT_RSA_ENCRYPT_ENABLED
 6339              	 .loc 1 2788 0
 6340              	 
 6341 0030 10BD     	 pop {r4,pc}
 6342              	.L539:
 6343 0032 C046     	 .align 2
 6344              	.L538:
 6345 0034 00000000 	 .word optiga_cmd_encrypt_asym_handler
 6346 0038 03020000 	 .word 515
 6347              	 .cfi_endproc
 6348              	.LFE46:
 6350              	 .section .text.optiga_cmd_decrypt_asym,"ax",%progbits
 6351              	 .align 1
 6352              	 .global optiga_cmd_decrypt_asym
 6353              	 .code 16
 6354              	 .thumb_func
 6356              	optiga_cmd_decrypt_asym:
 6357              	.LFB48:
2915:C:/Workspace/DAVE-4.4.2-64Bit/optiga-trust-m/optiga/cmd\optiga_cmd.c ****     optiga_lib_status_t return_status = OPTIGA_CMD_ERROR;
 6358              	 .loc 1 2915 0
 6359              	 .cfi_startproc
 6360              	.LVL637:
 6361 0000 10B5     	 push {r4,lr}
 6362              	.LCFI40:
 6363              	 .cfi_def_cfa_offset 8
 6364              	 .cfi_offset 4,-8
 6365              	 .cfi_offset 14,-4
2922:C:/Workspace/DAVE-4.4.2-64Bit/optiga-trust-m/optiga/cmd\optiga_cmd.c ****             (NULL == p_optiga_decrypt_asym->processed_message_length))
 6366              	 .loc 1 2922 0
 6367 0002 5469     	 ldr r4,[r2,#20]
2918:C:/Workspace/DAVE-4.4.2-64Bit/optiga-trust-m/optiga/cmd\optiga_cmd.c ****     OPTIGA_CMD_LOG_MESSAGE(__FUNCTION__);
 6368              	 .loc 1 2918 0
 6369 0004 0623     	 mov r3,#6
2922:C:/Workspace/DAVE-4.4.2-64Bit/optiga-trust-m/optiga/cmd\optiga_cmd.c ****             (NULL == p_optiga_decrypt_asym->processed_message_length))
 6370              	 .loc 1 2922 0
 6371 0006 002C     	 cmp r4,#0
 6372 0008 03D1     	 bne .L541
2925:C:/Workspace/DAVE-4.4.2-64Bit/optiga-trust-m/optiga/cmd\optiga_cmd.c ****         }
 6373              	 .loc 1 2925 0 discriminator 1
 6374 000a 5368     	 ldr r3,[r2,#4]
 6375 000c 5C1E     	 sub r4,r3,#1
 6376 000e A341     	 sbc r3,r3,r4
 6377 0010 0533     	 add r3,r3,#5
 6378              	.L541:
 6379              	.LVL638:
 6380              	.LBB283:
 6381              	.LBB284:
 457:C:/Workspace/DAVE-4.4.2-64Bit/optiga-trust-m/optiga/cmd\optiga_cmd.c ****     me->cmd_param = cmd_param;
 6382              	 .loc 1 457 0
 6383 0012 0024     	 mov r4,#0
 455:C:/Workspace/DAVE-4.4.2-64Bit/optiga-trust-m/optiga/cmd\optiga_cmd.c ****     me->cmd_hdlrs = cmd_hdlrs;
 6384              	 .loc 1 455 0
 6385 0014 8375     	 strb r3,[r0,#22]
 456:C:/Workspace/DAVE-4.4.2-64Bit/optiga-trust-m/optiga/cmd\optiga_cmd.c ****     me->chaining_ongoing = FALSE;
 6386              	 .loc 1 456 0
 6387 0016 054B     	 ldr r3,.L544
 6388              	.LVL639:
 454:C:/Workspace/DAVE-4.4.2-64Bit/optiga-trust-m/optiga/cmd\optiga_cmd.c ****     me->cmd_next_execution_state = start_state;
 6389              	 .loc 1 454 0
 6390 0018 8260     	 str r2,[r0,#8]
 456:C:/Workspace/DAVE-4.4.2-64Bit/optiga-trust-m/optiga/cmd\optiga_cmd.c ****     me->chaining_ongoing = FALSE;
 6391              	 .loc 1 456 0
 6392 001a 4360     	 str r3,[r0,#4]
 457:C:/Workspace/DAVE-4.4.2-64Bit/optiga-trust-m/optiga/cmd\optiga_cmd.c ****     me->cmd_param = cmd_param;
 6393              	 .loc 1 457 0
 6394 001c C475     	 strb r4,[r0,#23]
 458:C:/Workspace/DAVE-4.4.2-64Bit/optiga-trust-m/optiga/cmd\optiga_cmd.c ****     optiga_cmd_execute_handler(me, OPTIGA_LIB_SUCCESS);
 6395              	 .loc 1 458 0
 6396 001e 0176     	 strb r1,[r0,#24]
 459:C:/Workspace/DAVE-4.4.2-64Bit/optiga-trust-m/optiga/cmd\optiga_cmd.c **** }
 6397              	 .loc 1 459 0
 6398 0020 211C     	 mov r1,r4
 6399              	.LVL640:
 6400 0022 FFF7FEFF 	 bl optiga_cmd_execute_handler
 6401              	.LVL641:
 6402              	.LBE284:
 6403              	.LBE283:
2936:C:/Workspace/DAVE-4.4.2-64Bit/optiga-trust-m/optiga/cmd\optiga_cmd.c **** #endif // OPTIGA_CRYPT_RSA_DECRYPT_ENABLED
 6404              	 .loc 1 2936 0
 6405              	 
 6406 0026 201C     	 mov r0,r4
 6407 0028 10BD     	 pop {r4,pc}
 6408              	.L545:
 6409 002a C046     	 .align 2
 6410              	.L544:
 6411 002c 00000000 	 .word optiga_cmd_decrypt_asym_handler
 6412              	 .cfi_endproc
 6413              	.LFE48:
 6415              	 .section .text.optiga_cmd_calc_hash,"ax",%progbits
 6416              	 .align 1
 6417              	 .global optiga_cmd_calc_hash
 6418              	 .code 16
 6419              	 .thumb_func
 6421              	optiga_cmd_calc_hash:
 6422              	.LFB50:
3111:C:/Workspace/DAVE-4.4.2-64Bit/optiga-trust-m/optiga/cmd\optiga_cmd.c ****     optiga_calc_hash_params_t * p_optiga_calc_hash = (optiga_calc_hash_params_t*)params;
 6423              	 .loc 1 3111 0
 6424              	 .cfi_startproc
 6425              	.LVL642:
 6426 0000 10B5     	 push {r4,lr}
 6427              	.LCFI41:
 6428              	 .cfi_def_cfa_offset 8
 6429              	 .cfi_offset 4,-8
 6430              	 .cfi_offset 14,-4
 6431              	.LBB285:
 6432              	.LBB286:
 455:C:/Workspace/DAVE-4.4.2-64Bit/optiga-trust-m/optiga/cmd\optiga_cmd.c ****     me->cmd_hdlrs = cmd_hdlrs;
 6433              	 .loc 1 455 0
 6434 0002 0623     	 mov r3,#6
 6435              	.LBE286:
 6436              	.LBE285:
3115:C:/Workspace/DAVE-4.4.2-64Bit/optiga-trust-m/optiga/cmd\optiga_cmd.c **** 
 6437              	 .loc 1 3115 0
 6438 0004 0024     	 mov r4,#0
 6439 0006 1461     	 str r4,[r2,#16]
 6440              	.LVL643:
 6441              	.LBB288:
 6442              	.LBB287:
 455:C:/Workspace/DAVE-4.4.2-64Bit/optiga-trust-m/optiga/cmd\optiga_cmd.c ****     me->cmd_hdlrs = cmd_hdlrs;
 6443              	 .loc 1 455 0
 6444 0008 8375     	 strb r3,[r0,#22]
 456:C:/Workspace/DAVE-4.4.2-64Bit/optiga-trust-m/optiga/cmd\optiga_cmd.c ****     me->chaining_ongoing = FALSE;
 6445              	 .loc 1 456 0
 6446 000a 054B     	 ldr r3,.L547
 454:C:/Workspace/DAVE-4.4.2-64Bit/optiga-trust-m/optiga/cmd\optiga_cmd.c ****     me->cmd_next_execution_state = start_state;
 6447              	 .loc 1 454 0
 6448 000c 8260     	 str r2,[r0,#8]
 456:C:/Workspace/DAVE-4.4.2-64Bit/optiga-trust-m/optiga/cmd\optiga_cmd.c ****     me->chaining_ongoing = FALSE;
 6449              	 .loc 1 456 0
 6450 000e 4360     	 str r3,[r0,#4]
 457:C:/Workspace/DAVE-4.4.2-64Bit/optiga-trust-m/optiga/cmd\optiga_cmd.c ****     me->cmd_param = cmd_param;
 6451              	 .loc 1 457 0
 6452 0010 C475     	 strb r4,[r0,#23]
 458:C:/Workspace/DAVE-4.4.2-64Bit/optiga-trust-m/optiga/cmd\optiga_cmd.c ****     optiga_cmd_execute_handler(me, OPTIGA_LIB_SUCCESS);
 6453              	 .loc 1 458 0
 6454 0012 0176     	 strb r1,[r0,#24]
 459:C:/Workspace/DAVE-4.4.2-64Bit/optiga-trust-m/optiga/cmd\optiga_cmd.c **** }
 6455              	 .loc 1 459 0
 6456 0014 211C     	 mov r1,r4
 6457              	.LVL644:
 6458 0016 FFF7FEFF 	 bl optiga_cmd_execute_handler
 6459              	.LVL645:
 6460              	.LBE287:
 6461              	.LBE288:
3124:C:/Workspace/DAVE-4.4.2-64Bit/optiga-trust-m/optiga/cmd\optiga_cmd.c **** #endif //OPTIGA_CRYPT_HASH_ENABLED
 6462              	 .loc 1 3124 0
 6463              	 
 6464 001a 201C     	 mov r0,r4
 6465 001c 10BD     	 pop {r4,pc}
 6466              	.L548:
 6467 001e C046     	 .align 2
 6468              	.L547:
 6469 0020 00000000 	 .word optiga_cmd_calc_hash_handler
 6470              	 .cfi_endproc
 6471              	.LFE50:
 6473              	 .section .text.optiga_cmd_set_object_protected,"ax",%progbits
 6474              	 .align 1
 6475              	 .global optiga_cmd_set_object_protected
 6476              	 .code 16
 6477              	 .thumb_func
 6479              	optiga_cmd_set_object_protected:
 6480              	.LFB52:
3207:C:/Workspace/DAVE-4.4.2-64Bit/optiga-trust-m/optiga/cmd\optiga_cmd.c **** 
3208:C:/Workspace/DAVE-4.4.2-64Bit/optiga-trust-m/optiga/cmd\optiga_cmd.c **** optiga_lib_status_t optiga_cmd_set_object_protected(optiga_cmd_t * me, uint8_t cmd_param,
3209:C:/Workspace/DAVE-4.4.2-64Bit/optiga-trust-m/optiga/cmd\optiga_cmd.c ****                                                     optiga_set_object_protected_params_t * params)
3210:C:/Workspace/DAVE-4.4.2-64Bit/optiga-trust-m/optiga/cmd\optiga_cmd.c **** {
 6481              	 .loc 1 3210 0
 6482              	 .cfi_startproc
 6483              	.LVL646:
 6484 0000 38B5     	 push {r3,r4,r5,lr}
 6485              	.LCFI42:
 6486              	 .cfi_def_cfa_offset 16
 6487              	 .cfi_offset 3,-16
 6488              	 .cfi_offset 4,-12
 6489              	 .cfi_offset 5,-8
 6490              	 .cfi_offset 14,-4
3211:C:/Workspace/DAVE-4.4.2-64Bit/optiga-trust-m/optiga/cmd\optiga_cmd.c ****     optiga_cmd_state_t next_execution_state = OPTIGA_CMD_EXEC_REQUEST_STRICT_LOCK;
3212:C:/Workspace/DAVE-4.4.2-64Bit/optiga-trust-m/optiga/cmd\optiga_cmd.c ****     optiga_lib_status_t return_status = OPTIGA_LIB_SUCCESS;
3213:C:/Workspace/DAVE-4.4.2-64Bit/optiga-trust-m/optiga/cmd\optiga_cmd.c ****     OPTIGA_CMD_LOG_MESSAGE(__FUNCTION__);
3214:C:/Workspace/DAVE-4.4.2-64Bit/optiga-trust-m/optiga/cmd\optiga_cmd.c ****     
3215:C:/Workspace/DAVE-4.4.2-64Bit/optiga-trust-m/optiga/cmd\optiga_cmd.c ****     if (((OPTIGA_SET_PROTECTED_UPDATE_FINAL == params->set_obj_protected_tag) ||
 6491              	 .loc 1 3215 0
 6492 0002 9479     	 ldrb r4,[r2,#6]
 6493 0004 631E     	 sub r3,r4,#1
 6494 0006 012B     	 cmp r3,#1
 6495 0008 0DD8     	 bhi .L550
 6496              	.LVL647:
 6497              	.LBB295:
 6498              	.LBB296:
 522:C:/Workspace/DAVE-4.4.2-64Bit/optiga-trust-m/optiga/cmd\optiga_cmd.c ****         }
 6499              	 .loc 1 522 0
 6500 000a 0C23     	 mov r3,#12
 6501 000c 457F     	 ldrb r5,[r0,#29]
 6502              	.LVL648:
 6503 000e 6B43     	 mul r3,r5
 6504 0010 0568     	 ldr r5,[r0]
 6505              	.LVL649:
 6506 0012 EB18     	 add r3,r5,r3
 6507 0014 C725     	 mov r5,#199
 6508 0016 ED00     	 lsl r5,r5,#3
 6509 0018 5B19     	 add r3,r3,r5
 6510              	.LBE296:
 6511              	.LBE295:
3216:C:/Workspace/DAVE-4.4.2-64Bit/optiga-trust-m/optiga/cmd\optiga_cmd.c ****        (OPTIGA_SET_PROTECTED_UPDATE_CONTINUE == params->set_obj_protected_tag)) &&
 6512              	 .loc 1 3216 0
 6513 001a 1D78     	 ldrb r5,[r3]
 6514 001c 232D     	 cmp r5,#35
 6515 001e 15D1     	 bne .L554
 6516              	.LVL650:
3217:C:/Workspace/DAVE-4.4.2-64Bit/optiga-trust-m/optiga/cmd\optiga_cmd.c ****        ((OPTIGA_CMD_QUEUE_REQUEST_STRICT_LOCK != optiga_cmd_queue_get_state_of(me, OPTIGA_CMD_QUEUE
 6517              	 .loc 1 3217 0
 6518 0020 5B78     	 ldrb r3,[r3,#1]
 6519 0022 042B     	 cmp r3,#4
 6520 0024 12D1     	 bne .L554
 6521              	.LVL651:
 6522              	.L550:
3218:C:/Workspace/DAVE-4.4.2-64Bit/optiga-trust-m/optiga/cmd\optiga_cmd.c ****        (OPTIGA_CMD_QUEUE_PROCESSING != optiga_cmd_queue_get_state_of(me, OPTIGA_CMD_QUEUE_SLOT_STAT
3219:C:/Workspace/DAVE-4.4.2-64Bit/optiga-trust-m/optiga/cmd\optiga_cmd.c ****     {
3220:C:/Workspace/DAVE-4.4.2-64Bit/optiga-trust-m/optiga/cmd\optiga_cmd.c ****         return_status = OPTIGA_CMD_ERROR_INVALID_INPUT;
3221:C:/Workspace/DAVE-4.4.2-64Bit/optiga-trust-m/optiga/cmd\optiga_cmd.c ****     }
3222:C:/Workspace/DAVE-4.4.2-64Bit/optiga-trust-m/optiga/cmd\optiga_cmd.c ****     else
3223:C:/Workspace/DAVE-4.4.2-64Bit/optiga-trust-m/optiga/cmd\optiga_cmd.c ****     {
3224:C:/Workspace/DAVE-4.4.2-64Bit/optiga-trust-m/optiga/cmd\optiga_cmd.c ****         if (( NULL == params->p_protected_update_buffer ) &&
 6523              	 .loc 1 3224 0
 6524 0026 1568     	 ldr r5,[r2]
3211:C:/Workspace/DAVE-4.4.2-64Bit/optiga-trust-m/optiga/cmd\optiga_cmd.c ****     optiga_lib_status_t return_status = OPTIGA_LIB_SUCCESS;
 6525              	 .loc 1 3211 0
 6526 0028 0723     	 mov r3,#7
 6527              	 .loc 1 3224 0
 6528 002a 002D     	 cmp r5,#0
 6529 002c 02D1     	 bne .L552
 6530              	 .loc 1 3224 0 is_stmt 0 discriminator 1
 6531 002e 012C     	 cmp r4,#1
 6532 0030 00D1     	 bne .L552
3225:C:/Workspace/DAVE-4.4.2-64Bit/optiga-trust-m/optiga/cmd\optiga_cmd.c ****             (OPTIGA_SET_PROTECTED_UPDATE_FINAL == params->set_obj_protected_tag))
3226:C:/Workspace/DAVE-4.4.2-64Bit/optiga-trust-m/optiga/cmd\optiga_cmd.c ****         {
3227:C:/Workspace/DAVE-4.4.2-64Bit/optiga-trust-m/optiga/cmd\optiga_cmd.c ****             /// Release the strict sequence
3228:C:/Workspace/DAVE-4.4.2-64Bit/optiga-trust-m/optiga/cmd\optiga_cmd.c ****             next_execution_state = OPTIGA_CMD_EXEC_RELEASE_LOCK;
 6533              	 .loc 1 3228 0 is_stmt 1
 6534 0032 0433     	 add r3,r3,#4
 6535              	.L552:
 6536              	.LVL652:
 6537              	.LBB297:
 6538              	.LBB298:
 457:C:/Workspace/DAVE-4.4.2-64Bit/optiga-trust-m/optiga/cmd\optiga_cmd.c ****     me->cmd_param = cmd_param;
 6539              	 .loc 1 457 0
 6540 0034 0024     	 mov r4,#0
 455:C:/Workspace/DAVE-4.4.2-64Bit/optiga-trust-m/optiga/cmd\optiga_cmd.c ****     me->cmd_hdlrs = cmd_hdlrs;
 6541              	 .loc 1 455 0
 6542 0036 8375     	 strb r3,[r0,#22]
 456:C:/Workspace/DAVE-4.4.2-64Bit/optiga-trust-m/optiga/cmd\optiga_cmd.c ****     me->chaining_ongoing = FALSE;
 6543              	 .loc 1 456 0
 6544 0038 054B     	 ldr r3,.L557
 6545              	.LVL653:
 458:C:/Workspace/DAVE-4.4.2-64Bit/optiga-trust-m/optiga/cmd\optiga_cmd.c ****     optiga_cmd_execute_handler(me, OPTIGA_LIB_SUCCESS);
 6546              	 .loc 1 458 0
 6547 003a 0176     	 strb r1,[r0,#24]
 454:C:/Workspace/DAVE-4.4.2-64Bit/optiga-trust-m/optiga/cmd\optiga_cmd.c ****     me->cmd_next_execution_state = start_state;
 6548              	 .loc 1 454 0
 6549 003c 8260     	 str r2,[r0,#8]
 456:C:/Workspace/DAVE-4.4.2-64Bit/optiga-trust-m/optiga/cmd\optiga_cmd.c ****     me->chaining_ongoing = FALSE;
 6550              	 .loc 1 456 0
 6551 003e 4360     	 str r3,[r0,#4]
 457:C:/Workspace/DAVE-4.4.2-64Bit/optiga-trust-m/optiga/cmd\optiga_cmd.c ****     me->cmd_param = cmd_param;
 6552              	 .loc 1 457 0
 6553 0040 C475     	 strb r4,[r0,#23]
 459:C:/Workspace/DAVE-4.4.2-64Bit/optiga-trust-m/optiga/cmd\optiga_cmd.c **** }
 6554              	 .loc 1 459 0
 6555 0042 211C     	 mov r1,r4
 6556              	.LVL654:
 6557 0044 FFF7FEFF 	 bl optiga_cmd_execute_handler
 6558              	.LVL655:
 6559              	.LBE298:
 6560              	.LBE297:
3212:C:/Workspace/DAVE-4.4.2-64Bit/optiga-trust-m/optiga/cmd\optiga_cmd.c ****     OPTIGA_CMD_LOG_MESSAGE(__FUNCTION__);
 6561              	 .loc 1 3212 0
 6562 0048 201C     	 mov r0,r4
 6563 004a 00E0     	 b .L551
 6564              	.LVL656:
 6565              	.L554:
3220:C:/Workspace/DAVE-4.4.2-64Bit/optiga-trust-m/optiga/cmd\optiga_cmd.c ****     }
 6566              	 .loc 1 3220 0
 6567 004c 0148     	 ldr r0,.L557+4
 6568              	.LVL657:
 6569              	.L551:
3229:C:/Workspace/DAVE-4.4.2-64Bit/optiga-trust-m/optiga/cmd\optiga_cmd.c ****         }
3230:C:/Workspace/DAVE-4.4.2-64Bit/optiga-trust-m/optiga/cmd\optiga_cmd.c ****         optiga_cmd_execute(me,
3231:C:/Workspace/DAVE-4.4.2-64Bit/optiga-trust-m/optiga/cmd\optiga_cmd.c ****                            cmd_param,
3232:C:/Workspace/DAVE-4.4.2-64Bit/optiga-trust-m/optiga/cmd\optiga_cmd.c ****                            optiga_cmd_set_object_protected_handler,
3233:C:/Workspace/DAVE-4.4.2-64Bit/optiga-trust-m/optiga/cmd\optiga_cmd.c ****                            next_execution_state,
3234:C:/Workspace/DAVE-4.4.2-64Bit/optiga-trust-m/optiga/cmd\optiga_cmd.c ****                            params);
3235:C:/Workspace/DAVE-4.4.2-64Bit/optiga-trust-m/optiga/cmd\optiga_cmd.c ****     }
3236:C:/Workspace/DAVE-4.4.2-64Bit/optiga-trust-m/optiga/cmd\optiga_cmd.c **** 
3237:C:/Workspace/DAVE-4.4.2-64Bit/optiga-trust-m/optiga/cmd\optiga_cmd.c ****     return (return_status);
3238:C:/Workspace/DAVE-4.4.2-64Bit/optiga-trust-m/optiga/cmd\optiga_cmd.c **** }
 6570              	 .loc 1 3238 0
 6571              	 
 6572 004e 38BD     	 pop {r3,r4,r5,pc}
 6573              	.L558:
 6574              	 .align 2
 6575              	.L557:
 6576 0050 00000000 	 .word optiga_cmd_set_object_protected_handler
 6577 0054 03020000 	 .word 515
 6578              	 .cfi_endproc
 6579              	.LFE52:
 6581              	 .global g_optiga_unique_application_identifier
 6582              	 .section .rodata.g_optiga_unique_application_identifier,"a",%progbits
 6583              	 .set .LANCHOR0,.+0
 6586              	g_optiga_unique_application_identifier:
 6587 0000 D2       	 .byte -46
 6588 0001 76       	 .byte 118
 6589 0002 00       	 .byte 0
 6590 0003 00       	 .byte 0
 6591 0004 04       	 .byte 4
 6592 0005 47       	 .byte 71
 6593 0006 65       	 .byte 101
 6594 0007 6E       	 .byte 110
 6595 0008 41       	 .byte 65
 6596 0009 75       	 .byte 117
 6597 000a 74       	 .byte 116
 6598 000b 68       	 .byte 104
 6599 000c 41       	 .byte 65
 6600 000d 70       	 .byte 112
 6601 000e 70       	 .byte 112
 6602 000f 6C       	 .byte 108
 6603              	 .section .bss.g_optiga,"aw",%nobits
 6604              	 .align 2
 6605              	 .set .LANCHOR1,.+0
 6608              	g_optiga:
 6609 0000 00000000 	 .space 1676
 6609      00000000 
 6609      00000000 
 6609      00000000 
 6609      00000000 
 6610              	 .text
 6611              	.Letext0:
 6612              	 .file 2 "c:\\dave_4-4-2_64bit\\dave-ide-4.4.2-64bit\\eclipse\\arm-gcc-49\\arm-none-eabi\\include\\machine\\_default_types.h"
 6613              	 .file 3 "c:\\dave_4-4-2_64bit\\dave-ide-4.4.2-64bit\\eclipse\\arm-gcc-49\\lib\\gcc\\arm-none-eabi\\4.9.3\\include\\stddef.h"
 6614              	 .file 4 "c:\\dave_4-4-2_64bit\\dave-ide-4.4.2-64bit\\eclipse\\arm-gcc-49\\arm-none-eabi\\include\\stdint.h"
 6615              	 .file 5 "C:/Workspace/DAVE-4.4.2-64Bit/optiga-trust-m/optiga/include/optiga/common/optiga_lib_types.h"
 6616              	 .file 6 "C:/Workspace/DAVE-4.4.2-64Bit/optiga-trust-m/optiga/include/optiga/common/optiga_lib_common.h"
 6617              	 .file 7 "C:/Workspace/DAVE-4.4.2-64Bit/optiga-trust-m/optiga/include/optiga/cmd/optiga_cmd.h"
 6618              	 .file 8 "C:/Workspace/DAVE-4.4.2-64Bit/optiga-trust-m/optiga/include/optiga/comms/optiga_comms.h"
 6619              	 .file 9 "C:/Workspace/DAVE-4.4.2-64Bit/optiga-trust-m/optiga/include/optiga/pal/pal_os_event.h"
 6620              	 .file 10 "C:/Workspace/DAVE-4.4.2-64Bit/optiga-trust-m/optiga/include/optiga/pal/pal.h"
 6621              	 .file 11 "C:/Workspace/DAVE-4.4.2-64Bit/optiga-trust-m/optiga/include/optiga/pal/pal_os_datastore.h"
 6622              	 .file 12 "c:\\dave_4-4-2_64bit\\dave-ide-4.4.2-64bit\\eclipse\\arm-gcc-49\\arm-none-eabi\\include\\stdlib.h"
 6623              	 .file 13 "C:/Workspace/DAVE-4.4.2-64Bit/optiga-trust-m/optiga/include/optiga/pal/pal_os_lock.h"
 6624              	 .file 14 "C:/Workspace/DAVE-4.4.2-64Bit/optiga-trust-m/optiga/include/optiga/pal/pal_os_timer.h"
DEFINED SYMBOLS
                            *ABS*:00000000 optiga_cmd.c
    {standard input}:18     .text.optiga_cmd_prepare_tag_header:00000000 $t
    {standard input}:22     .text.optiga_cmd_prepare_tag_header:00000000 optiga_cmd_prepare_tag_header
    {standard input}:65     .text.optiga_cmd_queue_update_slot:00000000 $t
    {standard input}:69     .text.optiga_cmd_queue_update_slot:00000000 optiga_cmd_queue_update_slot
    {standard input}:177    .text.optiga_cmd_queue_reset_slot:00000000 $t
    {standard input}:181    .text.optiga_cmd_queue_reset_slot:00000000 optiga_cmd_queue_reset_slot
    {standard input}:247    .text.optiga_cmd_queue_reset_slot:00000054 $d
    {standard input}:4713   .text.optiga_cmd_queue_scheduler:00000000 optiga_cmd_queue_scheduler
    {standard input}:252    .text.optiga_cmd_execute_handler:00000000 $t
    {standard input}:256    .text.optiga_cmd_execute_handler:00000000 optiga_cmd_execute_handler
    {standard input}:341    .text.optiga_cmd_execute_handler:0000005a $d
    {standard input}:354    .text.optiga_cmd_execute_handler:00000074 $t
    {standard input}:994    .text.optiga_cmd_execute_handler:0000036c $d
    {standard input}:1006   .text.optiga_cmd_event_trigger_execute:00000000 optiga_cmd_event_trigger_execute
    {standard input}:1002   .text.optiga_cmd_event_trigger_execute:00000000 $t
    {standard input}:1027   .text.optiga_cmd_get_data_object_handler:00000000 $t
    {standard input}:1031   .text.optiga_cmd_get_data_object_handler:00000000 optiga_cmd_get_data_object_handler
    {standard input}:1292   .text.optiga_cmd_get_data_object_handler:00000100 $d
    {standard input}:1300   .text.optiga_cmd_set_data_object_handler:00000000 $t
    {standard input}:1304   .text.optiga_cmd_set_data_object_handler:00000000 optiga_cmd_set_data_object_handler
    {standard input}:1488   .text.optiga_cmd_set_data_object_handler:000000bc $d
    {standard input}:1495   .text.optiga_cmd_get_random_handler:00000000 $t
    {standard input}:1499   .text.optiga_cmd_get_random_handler:00000000 optiga_cmd_get_random_handler
    {standard input}:1709   .text.optiga_cmd_get_random_handler:000000e0 $d
    {standard input}:1715   .text.optiga_cmd_calc_sign_handler:00000000 $t
    {standard input}:1719   .text.optiga_cmd_calc_sign_handler:00000000 optiga_cmd_calc_sign_handler
    {standard input}:1917   .text.optiga_cmd_calc_sign_handler:000000c0 $d
    {standard input}:1922   .text.optiga_cmd_verify_sign_handler:00000000 $t
    {standard input}:1926   .text.optiga_cmd_verify_sign_handler:00000000 optiga_cmd_verify_sign_handler
    {standard input}:2195   .text.optiga_cmd_verify_sign_handler:0000013c $d
    {standard input}:2201   .text.optiga_cmd_calc_ssec_handler:00000000 $t
    {standard input}:2205   .text.optiga_cmd_calc_ssec_handler:00000000 optiga_cmd_calc_ssec_handler
    {standard input}:2477   .text.optiga_cmd_calc_ssec_handler:00000134 $d
    {standard input}:2483   .text.optiga_cmd_derive_key_handler:00000000 $t
    {standard input}:2487   .text.optiga_cmd_derive_key_handler:00000000 optiga_cmd_derive_key_handler
    {standard input}:2832   .text.optiga_cmd_derive_key_handler:00000184 $d
    {standard input}:2838   .text.optiga_cmd_set_object_protected_handler:00000000 $t
    {standard input}:2842   .text.optiga_cmd_set_object_protected_handler:00000000 optiga_cmd_set_object_protected_handler
    {standard input}:3018   .text.optiga_cmd_set_object_protected_handler:000000ac $d
    {standard input}:3025   .text.optiga_cmd_gen_keypair_handler:00000000 $t
    {standard input}:3029   .text.optiga_cmd_gen_keypair_handler:00000000 optiga_cmd_gen_keypair_handler
    {standard input}:3304   .text.optiga_cmd_gen_keypair_handler:00000130 $d
    {standard input}:3309   .text.optiga_cmd_encrypt_asym_handler:00000000 $t
    {standard input}:3313   .text.optiga_cmd_encrypt_asym_handler:00000000 optiga_cmd_encrypt_asym_handler
    {standard input}:3631   .text.optiga_cmd_encrypt_asym_handler:00000174 $d
    {standard input}:3637   .text.optiga_cmd_decrypt_asym_handler:00000000 $t
    {standard input}:3641   .text.optiga_cmd_decrypt_asym_handler:00000000 optiga_cmd_decrypt_asym_handler
    {standard input}:3919   .text.optiga_cmd_decrypt_asym_handler:0000013c $d
    {standard input}:3925   .text.optiga_cmd_calc_hash_handler:00000000 $t
    {standard input}:3929   .text.optiga_cmd_calc_hash_handler:00000000 optiga_cmd_calc_hash_handler
    {standard input}:4330   .text.optiga_cmd_calc_hash_handler:000001f8 $d
    {standard input}:4336   .text.optiga_cmd_close_application_handler:00000000 $t
    {standard input}:4340   .text.optiga_cmd_close_application_handler:00000000 optiga_cmd_close_application_handler
    {standard input}:4475   .text.optiga_cmd_close_application_handler:00000084 $d
    {standard input}:4480   .text.optiga_cmd_open_application_handler:00000000 $t
    {standard input}:4484   .text.optiga_cmd_open_application_handler:00000000 optiga_cmd_open_application_handler
    {standard input}:4702   .text.optiga_cmd_open_application_handler:000000ec $d
    {standard input}:4709   .text.optiga_cmd_queue_scheduler:00000000 $t
    {standard input}:5155   .text.optiga_cmd_queue_scheduler:000001e0 $d
    {standard input}:5167   .text.optiga_cmd_set_shielded_connection_option:00000000 $t
    {standard input}:5172   .text.optiga_cmd_set_shielded_connection_option:00000000 optiga_cmd_set_shielded_connection_option
    {standard input}:5204   .text.optiga_cmd_request_session:00000000 $t
    {standard input}:5209   .text.optiga_cmd_request_session:00000000 optiga_cmd_request_session
    {standard input}:5231   .text.optiga_cmd_release_session:00000000 $t
    {standard input}:5236   .text.optiga_cmd_release_session:00000000 optiga_cmd_release_session
    {standard input}:5283   .text.optiga_cmd_request_lock:00000000 $t
    {standard input}:5288   .text.optiga_cmd_request_lock:00000000 optiga_cmd_request_lock
    {standard input}:5309   .text.optiga_cmd_release_lock:00000000 $t
    {standard input}:5314   .text.optiga_cmd_release_lock:00000000 optiga_cmd_release_lock
    {standard input}:5335   .text.optiga_cmd_create:00000000 $t
    {standard input}:5340   .text.optiga_cmd_create:00000000 optiga_cmd_create
    {standard input}:5502   .text.optiga_cmd_create:000000a4 $d
    {standard input}:5510   .text.optiga_cmd_destroy:00000000 $t
    {standard input}:5515   .text.optiga_cmd_destroy:00000000 optiga_cmd_destroy
    {standard input}:5600   .text.optiga_cmd_destroy:00000048 $d
    {standard input}:5605   .text.optiga_cmd_open_application:00000000 $t
    {standard input}:5610   .text.optiga_cmd_open_application:00000000 optiga_cmd_open_application
    {standard input}:5650   .text.optiga_cmd_open_application:0000001c $d
    {standard input}:5655   .text.optiga_cmd_close_application:00000000 $t
    {standard input}:5660   .text.optiga_cmd_close_application:00000000 optiga_cmd_close_application
    {standard input}:5707   .text.optiga_cmd_close_application:0000001c $d
    {standard input}:5712   .text.optiga_cmd_get_data_object:00000000 $t
    {standard input}:5717   .text.optiga_cmd_get_data_object:00000000 optiga_cmd_get_data_object
    {standard input}:5764   .text.optiga_cmd_get_data_object:0000001c $d
    {standard input}:5769   .text.optiga_cmd_set_data_object:00000000 $t
    {standard input}:5774   .text.optiga_cmd_set_data_object:00000000 optiga_cmd_set_data_object
    {standard input}:5821   .text.optiga_cmd_set_data_object:0000001c $d
    {standard input}:5826   .text.optiga_cmd_get_random:00000000 $t
    {standard input}:5831   .text.optiga_cmd_get_random:00000000 optiga_cmd_get_random
    {standard input}:5885   .text.optiga_cmd_get_random:00000024 $d
    {standard input}:5890   .text.optiga_cmd_calc_sign:00000000 $t
    {standard input}:5895   .text.optiga_cmd_calc_sign:00000000 optiga_cmd_calc_sign
    {standard input}:5962   .text.optiga_cmd_calc_sign:00000030 $d
    {standard input}:5968   .text.optiga_cmd_verify_sign:00000000 $t
    {standard input}:5973   .text.optiga_cmd_verify_sign:00000000 optiga_cmd_verify_sign
    {standard input}:6020   .text.optiga_cmd_verify_sign:0000001c $d
    {standard input}:6025   .text.optiga_cmd_calc_ssec:00000000 $t
    {standard input}:6030   .text.optiga_cmd_calc_ssec:00000000 optiga_cmd_calc_ssec
    {standard input}:6102   .text.optiga_cmd_calc_ssec:00000038 $d
    {standard input}:6108   .text.optiga_cmd_derive_key:00000000 $t
    {standard input}:6113   .text.optiga_cmd_derive_key:00000000 optiga_cmd_derive_key
    {standard input}:6188   .text.optiga_cmd_derive_key:0000003c $d
    {standard input}:6194   .text.optiga_cmd_gen_keypair:00000000 $t
    {standard input}:6199   .text.optiga_cmd_gen_keypair:00000000 optiga_cmd_gen_keypair
    {standard input}:6269   .text.optiga_cmd_gen_keypair:00000030 $d
    {standard input}:6274   .text.optiga_cmd_encrypt_asym:00000000 $t
    {standard input}:6279   .text.optiga_cmd_encrypt_asym:00000000 optiga_cmd_encrypt_asym
    {standard input}:6345   .text.optiga_cmd_encrypt_asym:00000034 $d
    {standard input}:6351   .text.optiga_cmd_decrypt_asym:00000000 $t
    {standard input}:6356   .text.optiga_cmd_decrypt_asym:00000000 optiga_cmd_decrypt_asym
    {standard input}:6411   .text.optiga_cmd_decrypt_asym:0000002c $d
    {standard input}:6416   .text.optiga_cmd_calc_hash:00000000 $t
    {standard input}:6421   .text.optiga_cmd_calc_hash:00000000 optiga_cmd_calc_hash
    {standard input}:6469   .text.optiga_cmd_calc_hash:00000020 $d
    {standard input}:6474   .text.optiga_cmd_set_object_protected:00000000 $t
    {standard input}:6479   .text.optiga_cmd_set_object_protected:00000000 optiga_cmd_set_object_protected
    {standard input}:6576   .text.optiga_cmd_set_object_protected:00000050 $d
    {standard input}:6586   .rodata.g_optiga_unique_application_identifier:00000000 g_optiga_unique_application_identifier
    {standard input}:6604   .bss.g_optiga:00000000 $d
    {standard input}:6608   .bss.g_optiga:00000000 g_optiga
                     .debug_frame:00000010 $d

UNDEFINED SYMBOLS
pal_os_timer_get_time_in_microseconds
pal_os_event_start
memset
pal_os_datastore_write
__gnu_thumb1_case_uhi
optiga_comms_set_callback_context
optiga_comms_open
pal_os_event_register_callback_oneshot
optiga_comms_close
optiga_comms_transceive
optiga_common_set_uint16
memcpy
optiga_common_get_uint16
optiga_common_get_uint32
pal_os_datastore_read
pal_os_event_stop
pal_os_lock_enter_critical_section
calloc
pal_os_event_create
optiga_comms_create
pal_os_lock_exit_critical_section
free
