   1              	 .cpu cortex-m0
   2              	 .fpu softvfp
   3              	 .eabi_attribute 20,1
   4              	 .eabi_attribute 21,1
   5              	 .eabi_attribute 23,3
   6              	 .eabi_attribute 24,1
   7              	 .eabi_attribute 25,1
   8              	 .eabi_attribute 26,1
   9              	 .eabi_attribute 30,4
  10              	 .eabi_attribute 34,0
  11              	 .eabi_attribute 18,4
  12              	 .code 16
  13              	 .file "optiga_cmd.c"
  14              	 .text
  15              	.Ltext0:
  16              	 .cfi_sections .debug_frame
  17              	 .section .text.optiga_cmd_prepare_tag_header,"ax",%progbits
  18              	 .align 1
  19              	 .code 16
  20              	 .thumb_func
  22              	optiga_cmd_prepare_tag_header:
  23              	.LFB2:
  24              	 .file 1 "C:/Workspace/DAVE-4.4.2-64Bit/optiga-trust-m/optiga/cmd/optiga_cmd.c"
   1:C:/Workspace/DAVE-4.4.2-64Bit/optiga-trust-m/optiga/cmd\optiga_cmd.c **** /**
   2:C:/Workspace/DAVE-4.4.2-64Bit/optiga-trust-m/optiga/cmd\optiga_cmd.c **** * \copyright
   3:C:/Workspace/DAVE-4.4.2-64Bit/optiga-trust-m/optiga/cmd\optiga_cmd.c **** * MIT License
   4:C:/Workspace/DAVE-4.4.2-64Bit/optiga-trust-m/optiga/cmd\optiga_cmd.c **** *
   5:C:/Workspace/DAVE-4.4.2-64Bit/optiga-trust-m/optiga/cmd\optiga_cmd.c **** * Copyright (c) 2019 Infineon Technologies AG
   6:C:/Workspace/DAVE-4.4.2-64Bit/optiga-trust-m/optiga/cmd\optiga_cmd.c **** *
   7:C:/Workspace/DAVE-4.4.2-64Bit/optiga-trust-m/optiga/cmd\optiga_cmd.c **** * Permission is hereby granted, free of charge, to any person obtaining a copy
   8:C:/Workspace/DAVE-4.4.2-64Bit/optiga-trust-m/optiga/cmd\optiga_cmd.c **** * of this software and associated documentation files (the "Software"), to deal
   9:C:/Workspace/DAVE-4.4.2-64Bit/optiga-trust-m/optiga/cmd\optiga_cmd.c **** * in the Software without restriction, including without limitation the rights
  10:C:/Workspace/DAVE-4.4.2-64Bit/optiga-trust-m/optiga/cmd\optiga_cmd.c **** * to use, copy, modify, merge, publish, distribute, sublicense, and/or sell
  11:C:/Workspace/DAVE-4.4.2-64Bit/optiga-trust-m/optiga/cmd\optiga_cmd.c **** * copies of the Software, and to permit persons to whom the Software is
  12:C:/Workspace/DAVE-4.4.2-64Bit/optiga-trust-m/optiga/cmd\optiga_cmd.c **** * furnished to do so, subject to the following conditions:
  13:C:/Workspace/DAVE-4.4.2-64Bit/optiga-trust-m/optiga/cmd\optiga_cmd.c **** *
  14:C:/Workspace/DAVE-4.4.2-64Bit/optiga-trust-m/optiga/cmd\optiga_cmd.c **** * The above copyright notice and this permission notice shall be included in all
  15:C:/Workspace/DAVE-4.4.2-64Bit/optiga-trust-m/optiga/cmd\optiga_cmd.c **** * copies or substantial portions of the Software.
  16:C:/Workspace/DAVE-4.4.2-64Bit/optiga-trust-m/optiga/cmd\optiga_cmd.c **** *
  17:C:/Workspace/DAVE-4.4.2-64Bit/optiga-trust-m/optiga/cmd\optiga_cmd.c **** * THE SOFTWARE IS PROVIDED "AS IS", WITHOUT WARRANTY OF ANY KIND, EXPRESS OR
  18:C:/Workspace/DAVE-4.4.2-64Bit/optiga-trust-m/optiga/cmd\optiga_cmd.c **** * IMPLIED, INCLUDING BUT NOT LIMITED TO THE WARRANTIES OF MERCHANTABILITY,
  19:C:/Workspace/DAVE-4.4.2-64Bit/optiga-trust-m/optiga/cmd\optiga_cmd.c **** * FITNESS FOR A PARTICULAR PURPOSE AND NONINFRINGEMENT. IN NO EVENT SHALL THE
  20:C:/Workspace/DAVE-4.4.2-64Bit/optiga-trust-m/optiga/cmd\optiga_cmd.c **** * AUTHORS OR COPYRIGHT HOLDERS BE LIABLE FOR ANY CLAIM, DAMAGES OR OTHER
  21:C:/Workspace/DAVE-4.4.2-64Bit/optiga-trust-m/optiga/cmd\optiga_cmd.c **** * LIABILITY, WHETHER IN AN ACTION OF CONTRACT, TORT OR OTHERWISE, ARISING FROM,
  22:C:/Workspace/DAVE-4.4.2-64Bit/optiga-trust-m/optiga/cmd\optiga_cmd.c **** * OUT OF OR IN CONNECTION WITH THE SOFTWARE OR THE USE OR OTHER DEALINGS IN THE
  23:C:/Workspace/DAVE-4.4.2-64Bit/optiga-trust-m/optiga/cmd\optiga_cmd.c **** * SOFTWARE
  24:C:/Workspace/DAVE-4.4.2-64Bit/optiga-trust-m/optiga/cmd\optiga_cmd.c **** *
  25:C:/Workspace/DAVE-4.4.2-64Bit/optiga-trust-m/optiga/cmd\optiga_cmd.c **** * \endcopyright
  26:C:/Workspace/DAVE-4.4.2-64Bit/optiga-trust-m/optiga/cmd\optiga_cmd.c **** *
  27:C:/Workspace/DAVE-4.4.2-64Bit/optiga-trust-m/optiga/cmd\optiga_cmd.c **** * \author Infineon Technologies AG
  28:C:/Workspace/DAVE-4.4.2-64Bit/optiga-trust-m/optiga/cmd\optiga_cmd.c **** *
  29:C:/Workspace/DAVE-4.4.2-64Bit/optiga-trust-m/optiga/cmd\optiga_cmd.c **** * \file optiga_cmd.c
  30:C:/Workspace/DAVE-4.4.2-64Bit/optiga-trust-m/optiga/cmd\optiga_cmd.c **** *
  31:C:/Workspace/DAVE-4.4.2-64Bit/optiga-trust-m/optiga/cmd\optiga_cmd.c **** * \brief   This file implements cmd modules which covers OPTIGA command formation, locking mechanis
  32:C:/Workspace/DAVE-4.4.2-64Bit/optiga-trust-m/optiga/cmd\optiga_cmd.c **** *          acquisition and asynchronous data handling
  33:C:/Workspace/DAVE-4.4.2-64Bit/optiga-trust-m/optiga/cmd\optiga_cmd.c **** *
  34:C:/Workspace/DAVE-4.4.2-64Bit/optiga-trust-m/optiga/cmd\optiga_cmd.c **** * \ingroup  grOptigaCmd
  35:C:/Workspace/DAVE-4.4.2-64Bit/optiga-trust-m/optiga/cmd\optiga_cmd.c **** *
  36:C:/Workspace/DAVE-4.4.2-64Bit/optiga-trust-m/optiga/cmd\optiga_cmd.c **** * @{
  37:C:/Workspace/DAVE-4.4.2-64Bit/optiga-trust-m/optiga/cmd\optiga_cmd.c **** */
  38:C:/Workspace/DAVE-4.4.2-64Bit/optiga-trust-m/optiga/cmd\optiga_cmd.c **** 
  39:C:/Workspace/DAVE-4.4.2-64Bit/optiga-trust-m/optiga/cmd\optiga_cmd.c **** 
  40:C:/Workspace/DAVE-4.4.2-64Bit/optiga-trust-m/optiga/cmd\optiga_cmd.c **** #include "optiga/cmd/optiga_cmd.h"
  41:C:/Workspace/DAVE-4.4.2-64Bit/optiga-trust-m/optiga/cmd\optiga_cmd.c **** #include "optiga/common/optiga_lib_common_internal.h"
  42:C:/Workspace/DAVE-4.4.2-64Bit/optiga-trust-m/optiga/cmd\optiga_cmd.c **** #include "optiga/common/optiga_lib_logger.h"
  43:C:/Workspace/DAVE-4.4.2-64Bit/optiga-trust-m/optiga/cmd\optiga_cmd.c **** #include "optiga/comms/optiga_comms.h"
  44:C:/Workspace/DAVE-4.4.2-64Bit/optiga-trust-m/optiga/cmd\optiga_cmd.c **** #include "optiga/pal/pal_os_event.h"
  45:C:/Workspace/DAVE-4.4.2-64Bit/optiga-trust-m/optiga/cmd\optiga_cmd.c **** #include "optiga/pal/pal_os_lock.h"
  46:C:/Workspace/DAVE-4.4.2-64Bit/optiga-trust-m/optiga/cmd\optiga_cmd.c **** #include "optiga/pal/pal_os_timer.h"
  47:C:/Workspace/DAVE-4.4.2-64Bit/optiga-trust-m/optiga/cmd\optiga_cmd.c **** #include "optiga/pal/pal_os_memory.h"
  48:C:/Workspace/DAVE-4.4.2-64Bit/optiga-trust-m/optiga/cmd\optiga_cmd.c **** #include "optiga/pal/pal_ifx_i2c_config.h"
  49:C:/Workspace/DAVE-4.4.2-64Bit/optiga-trust-m/optiga/cmd\optiga_cmd.c **** 
  50:C:/Workspace/DAVE-4.4.2-64Bit/optiga-trust-m/optiga/cmd\optiga_cmd.c **** //cmd byte for clearing last error code
  51:C:/Workspace/DAVE-4.4.2-64Bit/optiga-trust-m/optiga/cmd\optiga_cmd.c **** #define OPTIGA_CMD_CLEAR_LAST_ERROR              (0x80)
  52:C:/Workspace/DAVE-4.4.2-64Bit/optiga-trust-m/optiga/cmd\optiga_cmd.c **** //cmd byte for OpenApplication command
  53:C:/Workspace/DAVE-4.4.2-64Bit/optiga-trust-m/optiga/cmd\optiga_cmd.c **** #define OPTIGA_CMD_OPEN_APPLICATION              (0x70 | OPTIGA_CMD_CLEAR_LAST_ERROR)
  54:C:/Workspace/DAVE-4.4.2-64Bit/optiga-trust-m/optiga/cmd\optiga_cmd.c **** //cmd byte for CloseApplication command
  55:C:/Workspace/DAVE-4.4.2-64Bit/optiga-trust-m/optiga/cmd\optiga_cmd.c **** #define OPTIGA_CMD_CLOSE_APPLICATION             (0x71 | OPTIGA_CMD_CLEAR_LAST_ERROR)
  56:C:/Workspace/DAVE-4.4.2-64Bit/optiga-trust-m/optiga/cmd\optiga_cmd.c **** //cmd byte for GetDataObject command
  57:C:/Workspace/DAVE-4.4.2-64Bit/optiga-trust-m/optiga/cmd\optiga_cmd.c **** #define OPTIGA_CMD_GET_DATA_OBJECT               (0x01 | OPTIGA_CMD_CLEAR_LAST_ERROR)
  58:C:/Workspace/DAVE-4.4.2-64Bit/optiga-trust-m/optiga/cmd\optiga_cmd.c **** //cmd byte for SetDataObject command
  59:C:/Workspace/DAVE-4.4.2-64Bit/optiga-trust-m/optiga/cmd\optiga_cmd.c **** #define OPTIGA_CMD_SET_DATA_OBJECT               (0x02 | OPTIGA_CMD_CLEAR_LAST_ERROR)
  60:C:/Workspace/DAVE-4.4.2-64Bit/optiga-trust-m/optiga/cmd\optiga_cmd.c **** //cmd byte for GetRandom command
  61:C:/Workspace/DAVE-4.4.2-64Bit/optiga-trust-m/optiga/cmd\optiga_cmd.c **** #define OPTIGA_CMD_GET_RANDOM                    (0x0C | OPTIGA_CMD_CLEAR_LAST_ERROR)
  62:C:/Workspace/DAVE-4.4.2-64Bit/optiga-trust-m/optiga/cmd\optiga_cmd.c **** //cmd byte for CalcHash command
  63:C:/Workspace/DAVE-4.4.2-64Bit/optiga-trust-m/optiga/cmd\optiga_cmd.c **** #define OPTIGA_CMD_CALC_HASH                     (0x30 | OPTIGA_CMD_CLEAR_LAST_ERROR)
  64:C:/Workspace/DAVE-4.4.2-64Bit/optiga-trust-m/optiga/cmd\optiga_cmd.c **** //cmd byte for CalcSign command
  65:C:/Workspace/DAVE-4.4.2-64Bit/optiga-trust-m/optiga/cmd\optiga_cmd.c **** #define OPTIGA_CMD_CALC_SIGN                     (0x31 | OPTIGA_CMD_CLEAR_LAST_ERROR)
  66:C:/Workspace/DAVE-4.4.2-64Bit/optiga-trust-m/optiga/cmd\optiga_cmd.c **** //cmd byte for VerifySign command
  67:C:/Workspace/DAVE-4.4.2-64Bit/optiga-trust-m/optiga/cmd\optiga_cmd.c **** #define OPTIGA_CMD_VERIFY_SIGN                   (0x32 | OPTIGA_CMD_CLEAR_LAST_ERROR)
  68:C:/Workspace/DAVE-4.4.2-64Bit/optiga-trust-m/optiga/cmd\optiga_cmd.c **** //cmd byte for CalcSsec command
  69:C:/Workspace/DAVE-4.4.2-64Bit/optiga-trust-m/optiga/cmd\optiga_cmd.c **** #define OPTIGA_CMD_CALC_SSEC                     (0x33 | OPTIGA_CMD_CLEAR_LAST_ERROR)
  70:C:/Workspace/DAVE-4.4.2-64Bit/optiga-trust-m/optiga/cmd\optiga_cmd.c **** //cmd byte for DeriveKey command
  71:C:/Workspace/DAVE-4.4.2-64Bit/optiga-trust-m/optiga/cmd\optiga_cmd.c **** #define OPTIGA_CMD_DERIVE_KEY                    (0x34 | OPTIGA_CMD_CLEAR_LAST_ERROR)
  72:C:/Workspace/DAVE-4.4.2-64Bit/optiga-trust-m/optiga/cmd\optiga_cmd.c **** //cmd byte for GenKeyPair command
  73:C:/Workspace/DAVE-4.4.2-64Bit/optiga-trust-m/optiga/cmd\optiga_cmd.c **** #define OPTIGA_CMD_GEN_KEYPAIR                   (0x38 | OPTIGA_CMD_CLEAR_LAST_ERROR)
  74:C:/Workspace/DAVE-4.4.2-64Bit/optiga-trust-m/optiga/cmd\optiga_cmd.c **** //cmd byte for EncryptAsym command
  75:C:/Workspace/DAVE-4.4.2-64Bit/optiga-trust-m/optiga/cmd\optiga_cmd.c **** #define OPTIGA_CMD_ENCRYPT_ASYM                  (0x1E | OPTIGA_CMD_CLEAR_LAST_ERROR)
  76:C:/Workspace/DAVE-4.4.2-64Bit/optiga-trust-m/optiga/cmd\optiga_cmd.c **** //cmd byte for DecryptAsym command
  77:C:/Workspace/DAVE-4.4.2-64Bit/optiga-trust-m/optiga/cmd\optiga_cmd.c **** #define OPTIGA_CMD_DECRYPT_ASYM                  (0x1F | OPTIGA_CMD_CLEAR_LAST_ERROR)
  78:C:/Workspace/DAVE-4.4.2-64Bit/optiga-trust-m/optiga/cmd\optiga_cmd.c **** //cmd byte for SetObjectProtected command
  79:C:/Workspace/DAVE-4.4.2-64Bit/optiga-trust-m/optiga/cmd\optiga_cmd.c **** #define OPTIGA_CMD_SET_OBJECT_PROTECTED          (0x03 | OPTIGA_CMD_CLEAR_LAST_ERROR)
  80:C:/Workspace/DAVE-4.4.2-64Bit/optiga-trust-m/optiga/cmd\optiga_cmd.c **** 
  81:C:/Workspace/DAVE-4.4.2-64Bit/optiga-trust-m/optiga/cmd\optiga_cmd.c **** 
  82:C:/Workspace/DAVE-4.4.2-64Bit/optiga-trust-m/optiga/cmd\optiga_cmd.c **** #define OPTIGA_CMD_MAX_NUMBER_OF_SESSIONS        (0x04)
  83:C:/Workspace/DAVE-4.4.2-64Bit/optiga-trust-m/optiga/cmd\optiga_cmd.c **** #define OPTIGA_CMD_START_SESSION_OID             (0xE100)
  84:C:/Workspace/DAVE-4.4.2-64Bit/optiga-trust-m/optiga/cmd\optiga_cmd.c **** 
  85:C:/Workspace/DAVE-4.4.2-64Bit/optiga-trust-m/optiga/cmd\optiga_cmd.c **** // Considering the size w.r.t maximum APDU size + shielded connection if enabled.
  86:C:/Workspace/DAVE-4.4.2-64Bit/optiga-trust-m/optiga/cmd\optiga_cmd.c **** #define OPTIGA_CMD_TOTAL_COMMS_BUFFER_SIZE       (OPTIGA_MAX_COMMS_BUFFER_SIZE + OPTIGA_COMMS_PRL_O
  87:C:/Workspace/DAVE-4.4.2-64Bit/optiga-trust-m/optiga/cmd\optiga_cmd.c **** 
  88:C:/Workspace/DAVE-4.4.2-64Bit/optiga-trust-m/optiga/cmd\optiga_cmd.c **** #define OPTIGA_CMD_APDU_HEADER_SIZE              (0x04)
  89:C:/Workspace/DAVE-4.4.2-64Bit/optiga-trust-m/optiga/cmd\optiga_cmd.c **** 
  90:C:/Workspace/DAVE-4.4.2-64Bit/optiga-trust-m/optiga/cmd\optiga_cmd.c **** #define OPTIGA_CMD_LAST_ERROR_CODE               (0xF1C2)
  91:C:/Workspace/DAVE-4.4.2-64Bit/optiga-trust-m/optiga/cmd\optiga_cmd.c **** 
  92:C:/Workspace/DAVE-4.4.2-64Bit/optiga-trust-m/optiga/cmd\optiga_cmd.c **** #define OPTIGA_CMD_APDU_INDATA_OFFSET            (OPTIGA_CMD_APDU_HEADER_SIZE + OPTIGA_COMMS_DATA_O
  93:C:/Workspace/DAVE-4.4.2-64Bit/optiga-trust-m/optiga/cmd\optiga_cmd.c **** 
  94:C:/Workspace/DAVE-4.4.2-64Bit/optiga-trust-m/optiga/cmd\optiga_cmd.c **** #define OPTIGA_CMD_HASH_HEADER_SIZE              (0x06) //(hash_input_header_size + context_header_
  95:C:/Workspace/DAVE-4.4.2-64Bit/optiga-trust-m/optiga/cmd\optiga_cmd.c **** // Intermediate context header size
  96:C:/Workspace/DAVE-4.4.2-64Bit/optiga-trust-m/optiga/cmd\optiga_cmd.c **** #define OPTIGA_CMD_INTERMEDIATE_CONTEX_HEADER    (0x03)
  97:C:/Workspace/DAVE-4.4.2-64Bit/optiga-trust-m/optiga/cmd\optiga_cmd.c **** // Zero length or value
  98:C:/Workspace/DAVE-4.4.2-64Bit/optiga-trust-m/optiga/cmd\optiga_cmd.c **** #define OPTIGA_CMD_ZERO_LENGTH_OR_VALUE          (0x0000)
  99:C:/Workspace/DAVE-4.4.2-64Bit/optiga-trust-m/optiga/cmd\optiga_cmd.c **** // OID data length
 100:C:/Workspace/DAVE-4.4.2-64Bit/optiga-trust-m/optiga/cmd\optiga_cmd.c **** #define OPTIGA_CMD_OID_DATA_LENGTH               (0x0006)
 101:C:/Workspace/DAVE-4.4.2-64Bit/optiga-trust-m/optiga/cmd\optiga_cmd.c **** 
 102:C:/Workspace/DAVE-4.4.2-64Bit/optiga-trust-m/optiga/cmd\optiga_cmd.c **** //Number of bytes in tag
 103:C:/Workspace/DAVE-4.4.2-64Bit/optiga-trust-m/optiga/cmd\optiga_cmd.c **** #define OPTIGA_CMD_NO_OF_BYTES_IN_TAG            (0x01)
 104:C:/Workspace/DAVE-4.4.2-64Bit/optiga-trust-m/optiga/cmd\optiga_cmd.c **** 
 105:C:/Workspace/DAVE-4.4.2-64Bit/optiga-trust-m/optiga/cmd\optiga_cmd.c **** //Number of bytes in OFFSET
 106:C:/Workspace/DAVE-4.4.2-64Bit/optiga-trust-m/optiga/cmd\optiga_cmd.c **** #define OPTIGA_CMD_UINT16_SIZE_IN_BYTES          (0x02)
 107:C:/Workspace/DAVE-4.4.2-64Bit/optiga-trust-m/optiga/cmd\optiga_cmd.c **** 
 108:C:/Workspace/DAVE-4.4.2-64Bit/optiga-trust-m/optiga/cmd\optiga_cmd.c **** #define START_OPTIGA_COMMS_CLOSE                 (0x02)
 109:C:/Workspace/DAVE-4.4.2-64Bit/optiga-trust-m/optiga/cmd\optiga_cmd.c **** 
 110:C:/Workspace/DAVE-4.4.2-64Bit/optiga-trust-m/optiga/cmd\optiga_cmd.c **** #define OPTIGA_CMD_APDU_SUCCESS                  (0x00)
 111:C:/Workspace/DAVE-4.4.2-64Bit/optiga-trust-m/optiga/cmd\optiga_cmd.c **** #define OPTIGA_CMD_APDU_FAILURE                  (0xFF)
 112:C:/Workspace/DAVE-4.4.2-64Bit/optiga-trust-m/optiga/cmd\optiga_cmd.c **** 
 113:C:/Workspace/DAVE-4.4.2-64Bit/optiga-trust-m/optiga/cmd\optiga_cmd.c **** #define CMD_WRITE_ONLY                           (0x00)
 114:C:/Workspace/DAVE-4.4.2-64Bit/optiga-trust-m/optiga/cmd\optiga_cmd.c **** #define CMD_READ_DATA                            (0x00)
 115:C:/Workspace/DAVE-4.4.2-64Bit/optiga-trust-m/optiga/cmd\optiga_cmd.c **** #define CMD_GET_DATA_OBJECT_NO_ERROR_CLEAR       (0x01)
 116:C:/Workspace/DAVE-4.4.2-64Bit/optiga-trust-m/optiga/cmd\optiga_cmd.c **** 
 117:C:/Workspace/DAVE-4.4.2-64Bit/optiga-trust-m/optiga/cmd\optiga_cmd.c **** //Calc sign tag values
 118:C:/Workspace/DAVE-4.4.2-64Bit/optiga-trust-m/optiga/cmd\optiga_cmd.c **** #define CMD_SIGN_DIGEST_TAG                      (0x01)
 119:C:/Workspace/DAVE-4.4.2-64Bit/optiga-trust-m/optiga/cmd\optiga_cmd.c **** #define CMD_SIGN_OID_TAG                         (0x03)
 120:C:/Workspace/DAVE-4.4.2-64Bit/optiga-trust-m/optiga/cmd\optiga_cmd.c **** #define CMD_SIGN_OID_LEN                         (0x0002)
 121:C:/Workspace/DAVE-4.4.2-64Bit/optiga-trust-m/optiga/cmd\optiga_cmd.c **** 
 122:C:/Workspace/DAVE-4.4.2-64Bit/optiga-trust-m/optiga/cmd\optiga_cmd.c **** //Calc SSec tag values
 123:C:/Workspace/DAVE-4.4.2-64Bit/optiga-trust-m/optiga/cmd\optiga_cmd.c **** #define CMD_SSEC_PRIVATE_KEY_TAG                 (0x01)
 124:C:/Workspace/DAVE-4.4.2-64Bit/optiga-trust-m/optiga/cmd\optiga_cmd.c **** #define CMD_SSEC_PRIVATE_KEY_LEN                 (0x0002)
 125:C:/Workspace/DAVE-4.4.2-64Bit/optiga-trust-m/optiga/cmd\optiga_cmd.c **** #define CMD_SSEC_ALG_ID_TAG                      (0x05)
 126:C:/Workspace/DAVE-4.4.2-64Bit/optiga-trust-m/optiga/cmd\optiga_cmd.c **** #define CMD_SSEC_ALG_ID_LEN                      (0x01)
 127:C:/Workspace/DAVE-4.4.2-64Bit/optiga-trust-m/optiga/cmd\optiga_cmd.c **** #define CMD_SSEC_PUB_KEY_TAG                     (0x06)
 128:C:/Workspace/DAVE-4.4.2-64Bit/optiga-trust-m/optiga/cmd\optiga_cmd.c **** #define CMD_SSEC_EXPORT_TAG                      (0x07)
 129:C:/Workspace/DAVE-4.4.2-64Bit/optiga-trust-m/optiga/cmd\optiga_cmd.c **** #define CMD_SSEC_EXPORT_LEN                      (0x0000)
 130:C:/Workspace/DAVE-4.4.2-64Bit/optiga-trust-m/optiga/cmd\optiga_cmd.c **** #define CMD_SSEC_STORE_SESSION_TAG               (0x08)
 131:C:/Workspace/DAVE-4.4.2-64Bit/optiga-trust-m/optiga/cmd\optiga_cmd.c **** #define CMD_SSEC_STORE_SESSION_LEN               (0x0002)
 132:C:/Workspace/DAVE-4.4.2-64Bit/optiga-trust-m/optiga/cmd\optiga_cmd.c **** 
 133:C:/Workspace/DAVE-4.4.2-64Bit/optiga-trust-m/optiga/cmd\optiga_cmd.c **** //Verify sign tag values
 134:C:/Workspace/DAVE-4.4.2-64Bit/optiga-trust-m/optiga/cmd\optiga_cmd.c **** #define CMD_VERIFY_SIGN_DIGEST_TAG               (0x01)
 135:C:/Workspace/DAVE-4.4.2-64Bit/optiga-trust-m/optiga/cmd\optiga_cmd.c **** #define CMD_VERIFY_SIGN_SIGNATURE_TAG            (0x02)
 136:C:/Workspace/DAVE-4.4.2-64Bit/optiga-trust-m/optiga/cmd\optiga_cmd.c **** #define CMD_VERIFY_SIGN_PUB_KEY_CERT_OID_TAG     (0x04)
 137:C:/Workspace/DAVE-4.4.2-64Bit/optiga-trust-m/optiga/cmd\optiga_cmd.c **** #define CMD_VERIFY_SIGN_PUB_KEY_CERT_OID_LENGTH  (0x0002)
 138:C:/Workspace/DAVE-4.4.2-64Bit/optiga-trust-m/optiga/cmd\optiga_cmd.c **** #define CMD_VERIFY_ALGO_ID_TAG                   (0x05)
 139:C:/Workspace/DAVE-4.4.2-64Bit/optiga-trust-m/optiga/cmd\optiga_cmd.c **** #define CMD_VERIFY_ALGO_ID_LENGTH                (0x0001)
 140:C:/Workspace/DAVE-4.4.2-64Bit/optiga-trust-m/optiga/cmd\optiga_cmd.c **** #define CMD_VERIFY_PUBLIC_KEY_TAG                (0x06)
 141:C:/Workspace/DAVE-4.4.2-64Bit/optiga-trust-m/optiga/cmd\optiga_cmd.c **** 
 142:C:/Workspace/DAVE-4.4.2-64Bit/optiga-trust-m/optiga/cmd\optiga_cmd.c **** //Generate key pair tag and length value
 143:C:/Workspace/DAVE-4.4.2-64Bit/optiga-trust-m/optiga/cmd\optiga_cmd.c **** #define CMD_GEN_KEY_PAIR_PRIVATE_KEY_OID_TAG     (0x01)
 144:C:/Workspace/DAVE-4.4.2-64Bit/optiga-trust-m/optiga/cmd\optiga_cmd.c **** #define CMD_GEN_KEY_PAIR_PRIVATE_KEY_OID_LENGTH  (0x0002)
 145:C:/Workspace/DAVE-4.4.2-64Bit/optiga-trust-m/optiga/cmd\optiga_cmd.c **** #define CMD_GEN_KEY_PAIR_KEY_USAGE_TAG           (0x02)
 146:C:/Workspace/DAVE-4.4.2-64Bit/optiga-trust-m/optiga/cmd\optiga_cmd.c **** #define CMD_GEN_KEY_PAIR_KEY_USAGE_LENGTH        (0x0001)
 147:C:/Workspace/DAVE-4.4.2-64Bit/optiga-trust-m/optiga/cmd\optiga_cmd.c **** #define CMD_GEN_KEY_PAIR_EXPORT_KEY_TAG          (0x07)
 148:C:/Workspace/DAVE-4.4.2-64Bit/optiga-trust-m/optiga/cmd\optiga_cmd.c **** #define CMD_GEN_KEY_PAIR_EXPORT_KEY_LENGTH       (0x0000)
 149:C:/Workspace/DAVE-4.4.2-64Bit/optiga-trust-m/optiga/cmd\optiga_cmd.c **** #define CMD_GEN_KEY_PAIR_PUBLIC_KEY_TAG          (0x02)
 150:C:/Workspace/DAVE-4.4.2-64Bit/optiga-trust-m/optiga/cmd\optiga_cmd.c **** #define CMD_GEN_KEY_PAIR_PRIVATE_KEY_TAG         (0x01)
 151:C:/Workspace/DAVE-4.4.2-64Bit/optiga-trust-m/optiga/cmd\optiga_cmd.c **** 
 152:C:/Workspace/DAVE-4.4.2-64Bit/optiga-trust-m/optiga/cmd\optiga_cmd.c **** //Derive key tag value
 153:C:/Workspace/DAVE-4.4.2-64Bit/optiga-trust-m/optiga/cmd\optiga_cmd.c **** #define CMD_DERIVE_KEY_SEC_OID_TAG               (0x01)
 154:C:/Workspace/DAVE-4.4.2-64Bit/optiga-trust-m/optiga/cmd\optiga_cmd.c **** #define CMD_DERIVE_KEY_SEC_OID_TAG_LENGTH        (0x0002)
 155:C:/Workspace/DAVE-4.4.2-64Bit/optiga-trust-m/optiga/cmd\optiga_cmd.c **** #define CMD_DERIVE_KEY_DERIVATION_DATA_TAG       (0x02)
 156:C:/Workspace/DAVE-4.4.2-64Bit/optiga-trust-m/optiga/cmd\optiga_cmd.c **** #define CMD_DERIVE_KEY_KEY_LEN_TAG_LENGTH        (0x0002)
 157:C:/Workspace/DAVE-4.4.2-64Bit/optiga-trust-m/optiga/cmd\optiga_cmd.c **** #define CMD_DERIVE_KEY_KEY_LEN_TAG               (0x03)
 158:C:/Workspace/DAVE-4.4.2-64Bit/optiga-trust-m/optiga/cmd\optiga_cmd.c **** #define CMD_DERIVE_KEY_EXPORT_TAG                (0x07)
 159:C:/Workspace/DAVE-4.4.2-64Bit/optiga-trust-m/optiga/cmd\optiga_cmd.c **** #define CMD_DERIVE_KEY_STORE_TAG                 (0x08)
 160:C:/Workspace/DAVE-4.4.2-64Bit/optiga-trust-m/optiga/cmd\optiga_cmd.c **** #define CMD_DERIVE_KEY_STORE_TAG_LENGTH          (0x0002)
 161:C:/Workspace/DAVE-4.4.2-64Bit/optiga-trust-m/optiga/cmd\optiga_cmd.c **** #define CMD_DERIVE_KEY_DERIVE_KEY_LEN_MIN        (0x10)
 162:C:/Workspace/DAVE-4.4.2-64Bit/optiga-trust-m/optiga/cmd\optiga_cmd.c **** 
 163:C:/Workspace/DAVE-4.4.2-64Bit/optiga-trust-m/optiga/cmd\optiga_cmd.c **** //Encrypt asym tag values
 164:C:/Workspace/DAVE-4.4.2-64Bit/optiga-trust-m/optiga/cmd\optiga_cmd.c **** #define CMD_ENCRYPT_ASYM_SESSION_OID_TAG         (0x02)
 165:C:/Workspace/DAVE-4.4.2-64Bit/optiga-trust-m/optiga/cmd\optiga_cmd.c **** #define CMD_ENCRYPT_ASYM_SESSION_OID_LENGTH      (0x0002)
 166:C:/Workspace/DAVE-4.4.2-64Bit/optiga-trust-m/optiga/cmd\optiga_cmd.c **** #define CMD_ENCRYPT_ASYM_MESSAGE_TAG             (0x61)
 167:C:/Workspace/DAVE-4.4.2-64Bit/optiga-trust-m/optiga/cmd\optiga_cmd.c **** #define CMD_ENCRYPT_ASYM_PUB_KEY_CERT_OID_TAG    (0x04)
 168:C:/Workspace/DAVE-4.4.2-64Bit/optiga-trust-m/optiga/cmd\optiga_cmd.c **** #define CMD_ENCRYPT_ASYM_PUB_KEY_CERT_OID_LENGTH (0x0002)
 169:C:/Workspace/DAVE-4.4.2-64Bit/optiga-trust-m/optiga/cmd\optiga_cmd.c **** #define CMD_ENCRYPT_ASYM_ALGO_ID_TAG             (0x05)
 170:C:/Workspace/DAVE-4.4.2-64Bit/optiga-trust-m/optiga/cmd\optiga_cmd.c **** #define CMD_ENCRYPT_ASYM_ALGO_ID_LENGTH          (0x0001)
 171:C:/Workspace/DAVE-4.4.2-64Bit/optiga-trust-m/optiga/cmd\optiga_cmd.c **** #define CMD_ENCRYPT_ASYM_PUBLIC_KEY_TAG          (0x06)
 172:C:/Workspace/DAVE-4.4.2-64Bit/optiga-trust-m/optiga/cmd\optiga_cmd.c **** 
 173:C:/Workspace/DAVE-4.4.2-64Bit/optiga-trust-m/optiga/cmd\optiga_cmd.c **** //Decrypt asym key tag value
 174:C:/Workspace/DAVE-4.4.2-64Bit/optiga-trust-m/optiga/cmd\optiga_cmd.c **** #define CMD_DECRYPT_ASYM_ENCRYPT_MESSAGE_TAG     (0x61)
 175:C:/Workspace/DAVE-4.4.2-64Bit/optiga-trust-m/optiga/cmd\optiga_cmd.c **** #define CMD_DECRYPT_ASYM_DECRYPT_KEY_TAG         (0x03)
 176:C:/Workspace/DAVE-4.4.2-64Bit/optiga-trust-m/optiga/cmd\optiga_cmd.c **** #define CMD_DECRYPT_ASYM_DECRYPT_KEY_LENGTH      (0x0002)
 177:C:/Workspace/DAVE-4.4.2-64Bit/optiga-trust-m/optiga/cmd\optiga_cmd.c **** #define CMD_DECRYPT_ASYM_SESSION_OID_TAG         (0x02)
 178:C:/Workspace/DAVE-4.4.2-64Bit/optiga-trust-m/optiga/cmd\optiga_cmd.c **** #define CMD_DECRYPT_ASYM_SESSION_OID_LENGTH      (0x0002)
 179:C:/Workspace/DAVE-4.4.2-64Bit/optiga-trust-m/optiga/cmd\optiga_cmd.c **** 
 180:C:/Workspace/DAVE-4.4.2-64Bit/optiga-trust-m/optiga/cmd\optiga_cmd.c **** #define OPTIGA_PROTECTION_LEVEL_MASK             (0x03)
 181:C:/Workspace/DAVE-4.4.2-64Bit/optiga-trust-m/optiga/cmd\optiga_cmd.c **** 
 182:C:/Workspace/DAVE-4.4.2-64Bit/optiga-trust-m/optiga/cmd\optiga_cmd.c **** #define OPTIGA_CMD_ERROR_CODE_PREPARE            (0x01)
 183:C:/Workspace/DAVE-4.4.2-64Bit/optiga-trust-m/optiga/cmd\optiga_cmd.c **** #define OPTIGA_CMD_ERROR_CODE_TX                 (0x02)
 184:C:/Workspace/DAVE-4.4.2-64Bit/optiga-trust-m/optiga/cmd\optiga_cmd.c **** #define OPTIGA_CMD_ERROR_CODE_RX                 (0x03)
 185:C:/Workspace/DAVE-4.4.2-64Bit/optiga-trust-m/optiga/cmd\optiga_cmd.c **** #define OPTIGA_CMD_ERROR_CODE_STATE_MASK         (0x03)
 186:C:/Workspace/DAVE-4.4.2-64Bit/optiga-trust-m/optiga/cmd\optiga_cmd.c **** #define OPTIGA_CMD_ENTER_HANDLER_CALL_MASK       (0x80)
 187:C:/Workspace/DAVE-4.4.2-64Bit/optiga-trust-m/optiga/cmd\optiga_cmd.c **** #define OPTIGA_CMD_ENTER_HANDLER_CALL            (0x80)
 188:C:/Workspace/DAVE-4.4.2-64Bit/optiga-trust-m/optiga/cmd\optiga_cmd.c **** #define OPTIGA_CMD_EXIT_HANDLER_CALL             (0x00)
 189:C:/Workspace/DAVE-4.4.2-64Bit/optiga-trust-m/optiga/cmd\optiga_cmd.c **** #define OPTIGA_CMD_OUT_OF_BOUNDARY_ERROR         (0x08)
 190:C:/Workspace/DAVE-4.4.2-64Bit/optiga-trust-m/optiga/cmd\optiga_cmd.c **** 
 191:C:/Workspace/DAVE-4.4.2-64Bit/optiga-trust-m/optiga/cmd\optiga_cmd.c **** //RSA pre master optional data tag and length value
 192:C:/Workspace/DAVE-4.4.2-64Bit/optiga-trust-m/optiga/cmd\optiga_cmd.c **** #define CMD_RSA_PRE_MASTER_OPTIONAL_DATA_TAG     (0x41)
 193:C:/Workspace/DAVE-4.4.2-64Bit/optiga-trust-m/optiga/cmd\optiga_cmd.c **** 
 194:C:/Workspace/DAVE-4.4.2-64Bit/optiga-trust-m/optiga/cmd\optiga_cmd.c **** /// Param type for optiga pre master secret
 195:C:/Workspace/DAVE-4.4.2-64Bit/optiga-trust-m/optiga/cmd\optiga_cmd.c **** #define CMD_RANDOM_PARAM_TYPE_PRE_MASTER_SECRET  (0x04)
 196:C:/Workspace/DAVE-4.4.2-64Bit/optiga-trust-m/optiga/cmd\optiga_cmd.c **** 
 197:C:/Workspace/DAVE-4.4.2-64Bit/optiga-trust-m/optiga/cmd\optiga_cmd.c **** /// Set object protected tag
 198:C:/Workspace/DAVE-4.4.2-64Bit/optiga-trust-m/optiga/cmd\optiga_cmd.c **** #define CMD_SET_OBJECT_PROTECTED_TAG             (0x30)
 199:C:/Workspace/DAVE-4.4.2-64Bit/optiga-trust-m/optiga/cmd\optiga_cmd.c **** 
 200:C:/Workspace/DAVE-4.4.2-64Bit/optiga-trust-m/optiga/cmd\optiga_cmd.c **** #define OPTIGA_CMD_APDU_TL_LENGTH                (0x03)
 201:C:/Workspace/DAVE-4.4.2-64Bit/optiga-trust-m/optiga/cmd\optiga_cmd.c **** #define OPTIGA_CMD_PARAM_INITIALIZE_APP_CONTEXT  (0x00)
 202:C:/Workspace/DAVE-4.4.2-64Bit/optiga-trust-m/optiga/cmd\optiga_cmd.c **** // Function to set given bits
 203:C:/Workspace/DAVE-4.4.2-64Bit/optiga-trust-m/optiga/cmd\optiga_cmd.c **** #define SET_DEV_ERROR_HANDLER_STATE(state){\
 204:C:/Workspace/DAVE-4.4.2-64Bit/optiga-trust-m/optiga/cmd\optiga_cmd.c ****                                    (me->device_error_status) &= ~OPTIGA_CMD_ERROR_CODE_STATE_MASK;\
 205:C:/Workspace/DAVE-4.4.2-64Bit/optiga-trust-m/optiga/cmd\optiga_cmd.c ****                                    (me->device_error_status) |= state & OPTIGA_CMD_ERROR_CODE_STATE
 206:C:/Workspace/DAVE-4.4.2-64Bit/optiga-trust-m/optiga/cmd\optiga_cmd.c **** 
 207:C:/Workspace/DAVE-4.4.2-64Bit/optiga-trust-m/optiga/cmd\optiga_cmd.c **** #define SET_DEV_ERROR_NOTIFICATION(bits_value){\
 208:C:/Workspace/DAVE-4.4.2-64Bit/optiga-trust-m/optiga/cmd\optiga_cmd.c ****                                   (me->device_error_status) &= ~OPTIGA_CMD_ENTER_HANDLER_CALL_MASK;
 209:C:/Workspace/DAVE-4.4.2-64Bit/optiga-trust-m/optiga/cmd\optiga_cmd.c ****                                   (me->device_error_status) |= bits_value & OPTIGA_CMD_ENTER_HANDLE
 210:C:/Workspace/DAVE-4.4.2-64Bit/optiga-trust-m/optiga/cmd\optiga_cmd.c **** 
 211:C:/Workspace/DAVE-4.4.2-64Bit/optiga-trust-m/optiga/cmd\optiga_cmd.c **** 
 212:C:/Workspace/DAVE-4.4.2-64Bit/optiga-trust-m/optiga/cmd\optiga_cmd.c **** #define EXIT_STATE_WITH_ERROR(ctx, exit_machine){\
 213:C:/Workspace/DAVE-4.4.2-64Bit/optiga-trust-m/optiga/cmd\optiga_cmd.c ****                               ctx->cmd_next_execution_state = OPTIGA_CMD_EXEC_RELEASE_LOCK;\
 214:C:/Workspace/DAVE-4.4.2-64Bit/optiga-trust-m/optiga/cmd\optiga_cmd.c ****                               ctx->exit_status = OPTIGA_CMD_ERROR;\
 215:C:/Workspace/DAVE-4.4.2-64Bit/optiga-trust-m/optiga/cmd\optiga_cmd.c ****                               exit_machine = FALSE;}
 216:C:/Workspace/DAVE-4.4.2-64Bit/optiga-trust-m/optiga/cmd\optiga_cmd.c **** // Scheduler definitions
 217:C:/Workspace/DAVE-4.4.2-64Bit/optiga-trust-m/optiga/cmd\optiga_cmd.c **** 
 218:C:/Workspace/DAVE-4.4.2-64Bit/optiga-trust-m/optiga/cmd\optiga_cmd.c **** // Optiga execution slot states
 219:C:/Workspace/DAVE-4.4.2-64Bit/optiga-trust-m/optiga/cmd\optiga_cmd.c **** #define     OPTIGA_CMD_QUEUE_NOT_ASSIGNED           (0x00)
 220:C:/Workspace/DAVE-4.4.2-64Bit/optiga-trust-m/optiga/cmd\optiga_cmd.c **** #define     OPTIGA_CMD_QUEUE_ASSIGNED               (0x01)
 221:C:/Workspace/DAVE-4.4.2-64Bit/optiga-trust-m/optiga/cmd\optiga_cmd.c **** #define     OPTIGA_CMD_QUEUE_REQUEST                (0x02)
 222:C:/Workspace/DAVE-4.4.2-64Bit/optiga-trust-m/optiga/cmd\optiga_cmd.c **** #define     OPTIGA_CMD_QUEUE_PROCESSING             (0x04)
 223:C:/Workspace/DAVE-4.4.2-64Bit/optiga-trust-m/optiga/cmd\optiga_cmd.c **** #define     OPTIGA_CMD_QUEUE_RESUME                 (0x08)
 224:C:/Workspace/DAVE-4.4.2-64Bit/optiga-trust-m/optiga/cmd\optiga_cmd.c **** 
 225:C:/Workspace/DAVE-4.4.2-64Bit/optiga-trust-m/optiga/cmd\optiga_cmd.c **** // Optiga session state
 226:C:/Workspace/DAVE-4.4.2-64Bit/optiga-trust-m/optiga/cmd\optiga_cmd.c **** #define     OPTIGA_CMD_SESSION_NOT_ASSIGNED         (0x00)
 227:C:/Workspace/DAVE-4.4.2-64Bit/optiga-trust-m/optiga/cmd\optiga_cmd.c **** #define     OPTIGA_CMD_SESSION_ASSIGNED             (0x10)
 228:C:/Workspace/DAVE-4.4.2-64Bit/optiga-trust-m/optiga/cmd\optiga_cmd.c **** //Session not assigned to optiga cmd instance
 229:C:/Workspace/DAVE-4.4.2-64Bit/optiga-trust-m/optiga/cmd\optiga_cmd.c **** #define     OPTIGA_CMD_NO_SESSION_OID               (0x0000)
 230:C:/Workspace/DAVE-4.4.2-64Bit/optiga-trust-m/optiga/cmd\optiga_cmd.c **** #define     OPTIGA_CMD_ALL_SESSION_ASSIGNED         (0x10101010)
 231:C:/Workspace/DAVE-4.4.2-64Bit/optiga-trust-m/optiga/cmd\optiga_cmd.c **** 
 232:C:/Workspace/DAVE-4.4.2-64Bit/optiga-trust-m/optiga/cmd\optiga_cmd.c **** // Optiga slot request types
 233:C:/Workspace/DAVE-4.4.2-64Bit/optiga-trust-m/optiga/cmd\optiga_cmd.c **** #define     OPTIGA_CMD_QUEUE_REQUEST_LOCK           (0x21)
 234:C:/Workspace/DAVE-4.4.2-64Bit/optiga-trust-m/optiga/cmd\optiga_cmd.c **** #define     OPTIGA_CMD_QUEUE_REQUEST_STRICT_LOCK    (0x23)
 235:C:/Workspace/DAVE-4.4.2-64Bit/optiga-trust-m/optiga/cmd\optiga_cmd.c **** #define     OPTIGA_CMD_QUEUE_REQUEST_SESSION        (0x22)
 236:C:/Workspace/DAVE-4.4.2-64Bit/optiga-trust-m/optiga/cmd\optiga_cmd.c **** #define     OPTIGA_CMD_QUEUE_NO_REQUEST		        (0x00)
 237:C:/Workspace/DAVE-4.4.2-64Bit/optiga-trust-m/optiga/cmd\optiga_cmd.c **** 
 238:C:/Workspace/DAVE-4.4.2-64Bit/optiga-trust-m/optiga/cmd\optiga_cmd.c **** // Type of slot, Do not change the values
 239:C:/Workspace/DAVE-4.4.2-64Bit/optiga-trust-m/optiga/cmd\optiga_cmd.c **** #define     OPTIGA_CMD_QUEUE_SLOT_STATE             (0x09)
 240:C:/Workspace/DAVE-4.4.2-64Bit/optiga-trust-m/optiga/cmd\optiga_cmd.c **** // Type of lock, Do not change the values
 241:C:/Workspace/DAVE-4.4.2-64Bit/optiga-trust-m/optiga/cmd\optiga_cmd.c **** #define     OPTIGA_CMD_QUEUE_SLOT_LOCK_TYPE         (0x08)
 242:C:/Workspace/DAVE-4.4.2-64Bit/optiga-trust-m/optiga/cmd\optiga_cmd.c **** // Frequency of scheduler polling when no asynchronous requests are pending
 243:C:/Workspace/DAVE-4.4.2-64Bit/optiga-trust-m/optiga/cmd\optiga_cmd.c **** #define     OPTIGA_CMD_SCHEDULER_IDLING_TIME_MS     (1000U)
 244:C:/Workspace/DAVE-4.4.2-64Bit/optiga-trust-m/optiga/cmd\optiga_cmd.c **** // Frequency of scheduler polling when asynchronous requests is being processed
 245:C:/Workspace/DAVE-4.4.2-64Bit/optiga-trust-m/optiga/cmd\optiga_cmd.c **** #define     OPTIGA_CMD_SCHEDULER_RUNNING_TIME_MS    (50U)
 246:C:/Workspace/DAVE-4.4.2-64Bit/optiga-trust-m/optiga/cmd\optiga_cmd.c **** 
 247:C:/Workspace/DAVE-4.4.2-64Bit/optiga-trust-m/optiga/cmd\optiga_cmd.c **** /** \brief The enum represents diffrent state of command handler */
 248:C:/Workspace/DAVE-4.4.2-64Bit/optiga-trust-m/optiga/cmd\optiga_cmd.c **** typedef enum optiga_cmd_state
 249:C:/Workspace/DAVE-4.4.2-64Bit/optiga-trust-m/optiga/cmd\optiga_cmd.c **** {
 250:C:/Workspace/DAVE-4.4.2-64Bit/optiga-trust-m/optiga/cmd\optiga_cmd.c ****     OPTIGA_CMD_EXEC_COMMS_OPEN = 0,
 251:C:/Workspace/DAVE-4.4.2-64Bit/optiga-trust-m/optiga/cmd\optiga_cmd.c ****     OPTIGA_CMD_EXEC_COMMS_OPEN_START,
 252:C:/Workspace/DAVE-4.4.2-64Bit/optiga-trust-m/optiga/cmd\optiga_cmd.c ****     OPTIGA_CMD_EXEC_COMMS_OPEN_DONE,
 253:C:/Workspace/DAVE-4.4.2-64Bit/optiga-trust-m/optiga/cmd\optiga_cmd.c **** 
 254:C:/Workspace/DAVE-4.4.2-64Bit/optiga-trust-m/optiga/cmd\optiga_cmd.c ****     OPTIGA_CMD_EXEC_COMMS_CLOSE_START,
 255:C:/Workspace/DAVE-4.4.2-64Bit/optiga-trust-m/optiga/cmd\optiga_cmd.c ****     OPTIGA_CMD_EXEC_COMMS_CLOSE_DONE,
 256:C:/Workspace/DAVE-4.4.2-64Bit/optiga-trust-m/optiga/cmd\optiga_cmd.c **** 
 257:C:/Workspace/DAVE-4.4.2-64Bit/optiga-trust-m/optiga/cmd\optiga_cmd.c ****     OPTIGA_CMD_EXEC_REQUEST_SESSION,
 258:C:/Workspace/DAVE-4.4.2-64Bit/optiga-trust-m/optiga/cmd\optiga_cmd.c ****     OPTIGA_CMD_EXEC_REQUEST_LOCK,
 259:C:/Workspace/DAVE-4.4.2-64Bit/optiga-trust-m/optiga/cmd\optiga_cmd.c ****     OPTIGA_CMD_EXEC_REQUEST_STRICT_LOCK,
 260:C:/Workspace/DAVE-4.4.2-64Bit/optiga-trust-m/optiga/cmd\optiga_cmd.c ****     OPTIGA_CMD_EXEC_PREPARE_COMMAND,
 261:C:/Workspace/DAVE-4.4.2-64Bit/optiga-trust-m/optiga/cmd\optiga_cmd.c ****     OPTIGA_CMD_EXEC_PROCESS_RESPONSE,
 262:C:/Workspace/DAVE-4.4.2-64Bit/optiga-trust-m/optiga/cmd\optiga_cmd.c ****     OPTIGA_CMD_EXEC_GET_DEVICE_ERROR,
 263:C:/Workspace/DAVE-4.4.2-64Bit/optiga-trust-m/optiga/cmd\optiga_cmd.c ****     OPTIGA_CMD_EXEC_RELEASE_LOCK,
 264:C:/Workspace/DAVE-4.4.2-64Bit/optiga-trust-m/optiga/cmd\optiga_cmd.c ****     OPTIGA_CMD_STATE_EXIT
 265:C:/Workspace/DAVE-4.4.2-64Bit/optiga-trust-m/optiga/cmd\optiga_cmd.c **** 
 266:C:/Workspace/DAVE-4.4.2-64Bit/optiga-trust-m/optiga/cmd\optiga_cmd.c **** } optiga_cmd_state_t;
 267:C:/Workspace/DAVE-4.4.2-64Bit/optiga-trust-m/optiga/cmd\optiga_cmd.c **** 
 268:C:/Workspace/DAVE-4.4.2-64Bit/optiga-trust-m/optiga/cmd\optiga_cmd.c **** typedef optiga_lib_status_t (*optiga_cmd_handler_t)(optiga_cmd_t * me);
 269:C:/Workspace/DAVE-4.4.2-64Bit/optiga-trust-m/optiga/cmd\optiga_cmd.c **** 
 270:C:/Workspace/DAVE-4.4.2-64Bit/optiga-trust-m/optiga/cmd\optiga_cmd.c **** /** \brief The structure represents the slot in the execution queue */
 271:C:/Workspace/DAVE-4.4.2-64Bit/optiga-trust-m/optiga/cmd\optiga_cmd.c **** typedef struct optiga_cmd_queue_slot
 272:C:/Workspace/DAVE-4.4.2-64Bit/optiga-trust-m/optiga/cmd\optiga_cmd.c **** {
 273:C:/Workspace/DAVE-4.4.2-64Bit/optiga-trust-m/optiga/cmd\optiga_cmd.c ****     // Registered context
 274:C:/Workspace/DAVE-4.4.2-64Bit/optiga-trust-m/optiga/cmd\optiga_cmd.c ****     void * registered_ctx;
 275:C:/Workspace/DAVE-4.4.2-64Bit/optiga-trust-m/optiga/cmd\optiga_cmd.c ****     // Arrival time of the optiga cmd instance in the execution queue
 276:C:/Workspace/DAVE-4.4.2-64Bit/optiga-trust-m/optiga/cmd\optiga_cmd.c ****     uint32_t arrival_time;
 277:C:/Workspace/DAVE-4.4.2-64Bit/optiga-trust-m/optiga/cmd\optiga_cmd.c ****     // Request for command lock or session
 278:C:/Workspace/DAVE-4.4.2-64Bit/optiga-trust-m/optiga/cmd\optiga_cmd.c ****     uint8_t request_type;
 279:C:/Workspace/DAVE-4.4.2-64Bit/optiga-trust-m/optiga/cmd\optiga_cmd.c ****     // state of the slot
 280:C:/Workspace/DAVE-4.4.2-64Bit/optiga-trust-m/optiga/cmd\optiga_cmd.c ****     uint8_t state_of_entry;
 281:C:/Workspace/DAVE-4.4.2-64Bit/optiga-trust-m/optiga/cmd\optiga_cmd.c **** }optiga_cmd_queue_slot_t;
 282:C:/Workspace/DAVE-4.4.2-64Bit/optiga-trust-m/optiga/cmd\optiga_cmd.c **** 
 283:C:/Workspace/DAVE-4.4.2-64Bit/optiga-trust-m/optiga/cmd\optiga_cmd.c **** 
 284:C:/Workspace/DAVE-4.4.2-64Bit/optiga-trust-m/optiga/cmd\optiga_cmd.c **** /**
 285:C:/Workspace/DAVE-4.4.2-64Bit/optiga-trust-m/optiga/cmd\optiga_cmd.c **** * \brief OPTIGA Context which holds the communication buffer, comms instance and other required.
 286:C:/Workspace/DAVE-4.4.2-64Bit/optiga-trust-m/optiga/cmd\optiga_cmd.c **** *   This would be maintained and consumed by OPTIGA Cmd.
 287:C:/Workspace/DAVE-4.4.2-64Bit/optiga-trust-m/optiga/cmd\optiga_cmd.c **** */
 288:C:/Workspace/DAVE-4.4.2-64Bit/optiga-trust-m/optiga/cmd\optiga_cmd.c **** struct optiga_context
 289:C:/Workspace/DAVE-4.4.2-64Bit/optiga-trust-m/optiga/cmd\optiga_cmd.c **** {
 290:C:/Workspace/DAVE-4.4.2-64Bit/optiga-trust-m/optiga/cmd\optiga_cmd.c ****     /// Context of OPTIGA Communication.
 291:C:/Workspace/DAVE-4.4.2-64Bit/optiga-trust-m/optiga/cmd\optiga_cmd.c ****     optiga_comms_t * p_optiga_comms;
 292:C:/Workspace/DAVE-4.4.2-64Bit/optiga-trust-m/optiga/cmd\optiga_cmd.c ****     /// comms tx size
 293:C:/Workspace/DAVE-4.4.2-64Bit/optiga-trust-m/optiga/cmd\optiga_cmd.c ****     uint16_t comms_tx_size;
 294:C:/Workspace/DAVE-4.4.2-64Bit/optiga-trust-m/optiga/cmd\optiga_cmd.c ****     /// comms rx size
 295:C:/Workspace/DAVE-4.4.2-64Bit/optiga-trust-m/optiga/cmd\optiga_cmd.c ****     uint16_t comms_rx_size;
 296:C:/Workspace/DAVE-4.4.2-64Bit/optiga-trust-m/optiga/cmd\optiga_cmd.c ****     /// Structure which maintains the session and contexts of requesters to acquire session.
 297:C:/Workspace/DAVE-4.4.2-64Bit/optiga-trust-m/optiga/cmd\optiga_cmd.c ****     uint8_t sessions[OPTIGA_CMD_MAX_NUMBER_OF_SESSIONS];
 298:C:/Workspace/DAVE-4.4.2-64Bit/optiga-trust-m/optiga/cmd\optiga_cmd.c ****     /// Indicates if instance is initialized
 299:C:/Workspace/DAVE-4.4.2-64Bit/optiga-trust-m/optiga/cmd\optiga_cmd.c ****     uint8_t instance_init_state;
 300:C:/Workspace/DAVE-4.4.2-64Bit/optiga-trust-m/optiga/cmd\optiga_cmd.c ****     /// Communication buffer to send/receive APDUs.
 301:C:/Workspace/DAVE-4.4.2-64Bit/optiga-trust-m/optiga/cmd\optiga_cmd.c ****     uint8_t optiga_comms_buffer[OPTIGA_CMD_TOTAL_COMMS_BUFFER_SIZE];
 302:C:/Workspace/DAVE-4.4.2-64Bit/optiga-trust-m/optiga/cmd\optiga_cmd.c ****     /// optiga execution queue
 303:C:/Workspace/DAVE-4.4.2-64Bit/optiga-trust-m/optiga/cmd\optiga_cmd.c ****     optiga_cmd_queue_slot_t optiga_cmd_execution_queue[OPTIGA_CMD_MAX_REGISTRATIONS];
 304:C:/Workspace/DAVE-4.4.2-64Bit/optiga-trust-m/optiga/cmd\optiga_cmd.c ****     /// pal os event instance/context
 305:C:/Workspace/DAVE-4.4.2-64Bit/optiga-trust-m/optiga/cmd\optiga_cmd.c ****     pal_os_event_t * p_pal_os_event_ctx;
 306:C:/Workspace/DAVE-4.4.2-64Bit/optiga-trust-m/optiga/cmd\optiga_cmd.c ****     /// Last processed cmd time stamp
 307:C:/Workspace/DAVE-4.4.2-64Bit/optiga-trust-m/optiga/cmd\optiga_cmd.c ****     uint32_t last_time_stamp;
 308:C:/Workspace/DAVE-4.4.2-64Bit/optiga-trust-m/optiga/cmd\optiga_cmd.c ****     /// optiga context handle buffer
 309:C:/Workspace/DAVE-4.4.2-64Bit/optiga-trust-m/optiga/cmd\optiga_cmd.c ****     uint8_t optiga_context_handle_buffer[APP_CONTEXT_SIZE];
 310:C:/Workspace/DAVE-4.4.2-64Bit/optiga-trust-m/optiga/cmd\optiga_cmd.c **** #ifdef OPTIGA_COMMS_SHIELDED_CONNECTION
 311:C:/Workspace/DAVE-4.4.2-64Bit/optiga-trust-m/optiga/cmd\optiga_cmd.c ****     /// Protection level status flag
 312:C:/Workspace/DAVE-4.4.2-64Bit/optiga-trust-m/optiga/cmd\optiga_cmd.c ****     uint8_t protection_level_state;
 313:C:/Workspace/DAVE-4.4.2-64Bit/optiga-trust-m/optiga/cmd\optiga_cmd.c **** #endif //OPTIGA_COMMS_SHIELDED_CONNECTION
 314:C:/Workspace/DAVE-4.4.2-64Bit/optiga-trust-m/optiga/cmd\optiga_cmd.c **** };
 315:C:/Workspace/DAVE-4.4.2-64Bit/optiga-trust-m/optiga/cmd\optiga_cmd.c **** 
 316:C:/Workspace/DAVE-4.4.2-64Bit/optiga-trust-m/optiga/cmd\optiga_cmd.c **** // static instance of optiga
 317:C:/Workspace/DAVE-4.4.2-64Bit/optiga-trust-m/optiga/cmd\optiga_cmd.c **** _STATIC_H optiga_context_t g_optiga = {0};
 318:C:/Workspace/DAVE-4.4.2-64Bit/optiga-trust-m/optiga/cmd\optiga_cmd.c **** // List of optiga instances
 319:C:/Workspace/DAVE-4.4.2-64Bit/optiga-trust-m/optiga/cmd\optiga_cmd.c **** _STATIC_H optiga_context_t * g_optiga_list[] = {&g_optiga};
 320:C:/Workspace/DAVE-4.4.2-64Bit/optiga-trust-m/optiga/cmd\optiga_cmd.c **** // hibernate data store for each instance of optiga
 321:C:/Workspace/DAVE-4.4.2-64Bit/optiga-trust-m/optiga/cmd\optiga_cmd.c **** _STATIC_H uint16_t g_hibernate_datastore_id_list[] = {OPTIGA_HIBERNATE_CONTEXT_ID};
 322:C:/Workspace/DAVE-4.4.2-64Bit/optiga-trust-m/optiga/cmd\optiga_cmd.c **** 
 323:C:/Workspace/DAVE-4.4.2-64Bit/optiga-trust-m/optiga/cmd\optiga_cmd.c **** const uint8_t g_optiga_unique_application_identifier[] =
 324:C:/Workspace/DAVE-4.4.2-64Bit/optiga-trust-m/optiga/cmd\optiga_cmd.c **** {
 325:C:/Workspace/DAVE-4.4.2-64Bit/optiga-trust-m/optiga/cmd\optiga_cmd.c ****     0xD2, 0x76, 0x00, 0x00, 0x04, 0x47, 0x65, 0x6E, 0x41, 0x75, 0x74, 0x68, 0x41, 0x70, 0x70, 0x6C,
 326:C:/Workspace/DAVE-4.4.2-64Bit/optiga-trust-m/optiga/cmd\optiga_cmd.c **** };
 327:C:/Workspace/DAVE-4.4.2-64Bit/optiga-trust-m/optiga/cmd\optiga_cmd.c **** 
 328:C:/Workspace/DAVE-4.4.2-64Bit/optiga-trust-m/optiga/cmd\optiga_cmd.c **** /**
 329:C:/Workspace/DAVE-4.4.2-64Bit/optiga-trust-m/optiga/cmd\optiga_cmd.c **** * \brief Command context
 330:C:/Workspace/DAVE-4.4.2-64Bit/optiga-trust-m/optiga/cmd\optiga_cmd.c **** */
 331:C:/Workspace/DAVE-4.4.2-64Bit/optiga-trust-m/optiga/cmd\optiga_cmd.c **** struct optiga_cmd
 332:C:/Workspace/DAVE-4.4.2-64Bit/optiga-trust-m/optiga/cmd\optiga_cmd.c **** {
 333:C:/Workspace/DAVE-4.4.2-64Bit/optiga-trust-m/optiga/cmd\optiga_cmd.c ****     /// Pointer to OPTIGA context which holds the communication buffer, comms instance and other re
 334:C:/Workspace/DAVE-4.4.2-64Bit/optiga-trust-m/optiga/cmd\optiga_cmd.c ****     optiga_context_t * p_optiga;
 335:C:/Workspace/DAVE-4.4.2-64Bit/optiga-trust-m/optiga/cmd\optiga_cmd.c ****     /// Internal handlers for prepare and process
 336:C:/Workspace/DAVE-4.4.2-64Bit/optiga-trust-m/optiga/cmd\optiga_cmd.c ****     optiga_cmd_handler_t cmd_hdlrs;
 337:C:/Workspace/DAVE-4.4.2-64Bit/optiga-trust-m/optiga/cmd\optiga_cmd.c ****     /// Command execution input parameters
 338:C:/Workspace/DAVE-4.4.2-64Bit/optiga-trust-m/optiga/cmd\optiga_cmd.c ****     void * p_input;
 339:C:/Workspace/DAVE-4.4.2-64Bit/optiga-trust-m/optiga/cmd\optiga_cmd.c **** 
 340:C:/Workspace/DAVE-4.4.2-64Bit/optiga-trust-m/optiga/cmd\optiga_cmd.c ****     /// Caller context
 341:C:/Workspace/DAVE-4.4.2-64Bit/optiga-trust-m/optiga/cmd\optiga_cmd.c ****     void* caller_context;
 342:C:/Workspace/DAVE-4.4.2-64Bit/optiga-trust-m/optiga/cmd\optiga_cmd.c ****     /// Callback handler
 343:C:/Workspace/DAVE-4.4.2-64Bit/optiga-trust-m/optiga/cmd\optiga_cmd.c ****     callback_handler_t handler;
 344:C:/Workspace/DAVE-4.4.2-64Bit/optiga-trust-m/optiga/cmd\optiga_cmd.c ****     /// Holds a Session OID allotted to this instance.
 345:C:/Workspace/DAVE-4.4.2-64Bit/optiga-trust-m/optiga/cmd\optiga_cmd.c ****     uint16_t session_oid;
 346:C:/Workspace/DAVE-4.4.2-64Bit/optiga-trust-m/optiga/cmd\optiga_cmd.c ****     /// State of the command next execution state
 347:C:/Workspace/DAVE-4.4.2-64Bit/optiga-trust-m/optiga/cmd\optiga_cmd.c ****     optiga_cmd_state_t cmd_next_execution_state;
 348:C:/Workspace/DAVE-4.4.2-64Bit/optiga-trust-m/optiga/cmd\optiga_cmd.c ****     /// Chaining flag
 349:C:/Workspace/DAVE-4.4.2-64Bit/optiga-trust-m/optiga/cmd\optiga_cmd.c ****     uint8_t chaining_ongoing;
 350:C:/Workspace/DAVE-4.4.2-64Bit/optiga-trust-m/optiga/cmd\optiga_cmd.c ****     /// Param value for the respective command to be processed
 351:C:/Workspace/DAVE-4.4.2-64Bit/optiga-trust-m/optiga/cmd\optiga_cmd.c ****     uint8_t cmd_param;
 352:C:/Workspace/DAVE-4.4.2-64Bit/optiga-trust-m/optiga/cmd\optiga_cmd.c **** #ifdef OPTIGA_COMMS_SHIELDED_CONNECTION
 353:C:/Workspace/DAVE-4.4.2-64Bit/optiga-trust-m/optiga/cmd\optiga_cmd.c ****     /// To provide the encryption and decryption need for command and response
 354:C:/Workspace/DAVE-4.4.2-64Bit/optiga-trust-m/optiga/cmd\optiga_cmd.c ****     uint8_t protection_level;
 355:C:/Workspace/DAVE-4.4.2-64Bit/optiga-trust-m/optiga/cmd\optiga_cmd.c ****     /// To provide the presentation layer protocol version to be used
 356:C:/Workspace/DAVE-4.4.2-64Bit/optiga-trust-m/optiga/cmd\optiga_cmd.c ****     uint8_t protocol_version;
 357:C:/Workspace/DAVE-4.4.2-64Bit/optiga-trust-m/optiga/cmd\optiga_cmd.c ****     /// To provide the manage context options
 358:C:/Workspace/DAVE-4.4.2-64Bit/optiga-trust-m/optiga/cmd\optiga_cmd.c ****     uint8_t manage_context_operation;
 359:C:/Workspace/DAVE-4.4.2-64Bit/optiga-trust-m/optiga/cmd\optiga_cmd.c **** #endif //OPTIGA_COMMS_SHIELDED_CONNECTION
 360:C:/Workspace/DAVE-4.4.2-64Bit/optiga-trust-m/optiga/cmd\optiga_cmd.c ****     /// To provide error state
 361:C:/Workspace/DAVE-4.4.2-64Bit/optiga-trust-m/optiga/cmd\optiga_cmd.c ****     uint8_t device_error_status;
 362:C:/Workspace/DAVE-4.4.2-64Bit/optiga-trust-m/optiga/cmd\optiga_cmd.c ****     /// Assigned slot from execution queue
 363:C:/Workspace/DAVE-4.4.2-64Bit/optiga-trust-m/optiga/cmd\optiga_cmd.c ****     uint8_t queue_id;
 364:C:/Workspace/DAVE-4.4.2-64Bit/optiga-trust-m/optiga/cmd\optiga_cmd.c ****     /// Exit status value
 365:C:/Workspace/DAVE-4.4.2-64Bit/optiga-trust-m/optiga/cmd\optiga_cmd.c ****     optiga_lib_status_t exit_status;
 366:C:/Workspace/DAVE-4.4.2-64Bit/optiga-trust-m/optiga/cmd\optiga_cmd.c ****     /// Datastore ID for optiga context
 367:C:/Workspace/DAVE-4.4.2-64Bit/optiga-trust-m/optiga/cmd\optiga_cmd.c ****     uint16_t optiga_context_datastore_id;
 368:C:/Workspace/DAVE-4.4.2-64Bit/optiga-trust-m/optiga/cmd\optiga_cmd.c **** };
 369:C:/Workspace/DAVE-4.4.2-64Bit/optiga-trust-m/optiga/cmd\optiga_cmd.c **** 
 370:C:/Workspace/DAVE-4.4.2-64Bit/optiga-trust-m/optiga/cmd\optiga_cmd.c **** _STATIC_H optiga_lib_status_t optiga_cmd_get_error_code_handler(optiga_cmd_t * me);
 371:C:/Workspace/DAVE-4.4.2-64Bit/optiga-trust-m/optiga/cmd\optiga_cmd.c **** 
 372:C:/Workspace/DAVE-4.4.2-64Bit/optiga-trust-m/optiga/cmd\optiga_cmd.c **** #ifdef OPTIGA_COMMS_SHIELDED_CONNECTION
 373:C:/Workspace/DAVE-4.4.2-64Bit/optiga-trust-m/optiga/cmd\optiga_cmd.c **** //lint --e{714} suppress "This function is defined here but referred from other modules"
 374:C:/Workspace/DAVE-4.4.2-64Bit/optiga-trust-m/optiga/cmd\optiga_cmd.c **** void optiga_cmd_set_shielded_connection_option(optiga_cmd_t * me,
 375:C:/Workspace/DAVE-4.4.2-64Bit/optiga-trust-m/optiga/cmd\optiga_cmd.c ****                                                uint8_t value,
 376:C:/Workspace/DAVE-4.4.2-64Bit/optiga-trust-m/optiga/cmd\optiga_cmd.c ****                                                uint8_t shielded_connection_option)
 377:C:/Workspace/DAVE-4.4.2-64Bit/optiga-trust-m/optiga/cmd\optiga_cmd.c **** {
 378:C:/Workspace/DAVE-4.4.2-64Bit/optiga-trust-m/optiga/cmd\optiga_cmd.c ****     switch (shielded_connection_option)
 379:C:/Workspace/DAVE-4.4.2-64Bit/optiga-trust-m/optiga/cmd\optiga_cmd.c ****     {
 380:C:/Workspace/DAVE-4.4.2-64Bit/optiga-trust-m/optiga/cmd\optiga_cmd.c ****         // Protection Level
 381:C:/Workspace/DAVE-4.4.2-64Bit/optiga-trust-m/optiga/cmd\optiga_cmd.c ****         case OPTIGA_SET_PROTECTION_LEVEL:
 382:C:/Workspace/DAVE-4.4.2-64Bit/optiga-trust-m/optiga/cmd\optiga_cmd.c ****         {
 383:C:/Workspace/DAVE-4.4.2-64Bit/optiga-trust-m/optiga/cmd\optiga_cmd.c ****             me->protection_level = value;
 384:C:/Workspace/DAVE-4.4.2-64Bit/optiga-trust-m/optiga/cmd\optiga_cmd.c ****         }
 385:C:/Workspace/DAVE-4.4.2-64Bit/optiga-trust-m/optiga/cmd\optiga_cmd.c ****         break;
 386:C:/Workspace/DAVE-4.4.2-64Bit/optiga-trust-m/optiga/cmd\optiga_cmd.c ****         // Protocol Version
 387:C:/Workspace/DAVE-4.4.2-64Bit/optiga-trust-m/optiga/cmd\optiga_cmd.c ****         case OPTIGA_SET_PROTECTION_VERSION:
 388:C:/Workspace/DAVE-4.4.2-64Bit/optiga-trust-m/optiga/cmd\optiga_cmd.c ****         {
 389:C:/Workspace/DAVE-4.4.2-64Bit/optiga-trust-m/optiga/cmd\optiga_cmd.c ****             me->protocol_version = value;
 390:C:/Workspace/DAVE-4.4.2-64Bit/optiga-trust-m/optiga/cmd\optiga_cmd.c ****         }
 391:C:/Workspace/DAVE-4.4.2-64Bit/optiga-trust-m/optiga/cmd\optiga_cmd.c ****         break;
 392:C:/Workspace/DAVE-4.4.2-64Bit/optiga-trust-m/optiga/cmd\optiga_cmd.c ****         // Manage Context
 393:C:/Workspace/DAVE-4.4.2-64Bit/optiga-trust-m/optiga/cmd\optiga_cmd.c ****         case OPTIGA_SET_MANAGE_CONTEXT:
 394:C:/Workspace/DAVE-4.4.2-64Bit/optiga-trust-m/optiga/cmd\optiga_cmd.c ****         {
 395:C:/Workspace/DAVE-4.4.2-64Bit/optiga-trust-m/optiga/cmd\optiga_cmd.c ****             me->manage_context_operation = value;
 396:C:/Workspace/DAVE-4.4.2-64Bit/optiga-trust-m/optiga/cmd\optiga_cmd.c ****         }
 397:C:/Workspace/DAVE-4.4.2-64Bit/optiga-trust-m/optiga/cmd\optiga_cmd.c ****         break;
 398:C:/Workspace/DAVE-4.4.2-64Bit/optiga-trust-m/optiga/cmd\optiga_cmd.c ****         default:
 399:C:/Workspace/DAVE-4.4.2-64Bit/optiga-trust-m/optiga/cmd\optiga_cmd.c ****         break;
 400:C:/Workspace/DAVE-4.4.2-64Bit/optiga-trust-m/optiga/cmd\optiga_cmd.c ****     }
 401:C:/Workspace/DAVE-4.4.2-64Bit/optiga-trust-m/optiga/cmd\optiga_cmd.c **** }
 402:C:/Workspace/DAVE-4.4.2-64Bit/optiga-trust-m/optiga/cmd\optiga_cmd.c **** 
 403:C:/Workspace/DAVE-4.4.2-64Bit/optiga-trust-m/optiga/cmd\optiga_cmd.c **** #endif // OPTIGA_COMMS_SHIELDED_CONNECTION
 404:C:/Workspace/DAVE-4.4.2-64Bit/optiga-trust-m/optiga/cmd\optiga_cmd.c **** 
 405:C:/Workspace/DAVE-4.4.2-64Bit/optiga-trust-m/optiga/cmd\optiga_cmd.c **** // Cmd execute handler
 406:C:/Workspace/DAVE-4.4.2-64Bit/optiga-trust-m/optiga/cmd\optiga_cmd.c **** _STATIC_H void optiga_cmd_execute(optiga_cmd_t * me,
 407:C:/Workspace/DAVE-4.4.2-64Bit/optiga-trust-m/optiga/cmd\optiga_cmd.c ****                                   uint8_t cmd_param,
 408:C:/Workspace/DAVE-4.4.2-64Bit/optiga-trust-m/optiga/cmd\optiga_cmd.c ****                                   optiga_cmd_handler_t cmd_hdlrs,
 409:C:/Workspace/DAVE-4.4.2-64Bit/optiga-trust-m/optiga/cmd\optiga_cmd.c ****                                   optiga_cmd_state_t start_state,
 410:C:/Workspace/DAVE-4.4.2-64Bit/optiga-trust-m/optiga/cmd\optiga_cmd.c ****                                   void * input);
 411:C:/Workspace/DAVE-4.4.2-64Bit/optiga-trust-m/optiga/cmd\optiga_cmd.c **** 
 412:C:/Workspace/DAVE-4.4.2-64Bit/optiga-trust-m/optiga/cmd\optiga_cmd.c **** // Cmd State machine handler
 413:C:/Workspace/DAVE-4.4.2-64Bit/optiga-trust-m/optiga/cmd\optiga_cmd.c **** _STATIC_H void optiga_cmd_execute_handler(void * p_ctx,
 414:C:/Workspace/DAVE-4.4.2-64Bit/optiga-trust-m/optiga/cmd\optiga_cmd.c ****                                           optiga_lib_status_t event);
 415:C:/Workspace/DAVE-4.4.2-64Bit/optiga-trust-m/optiga/cmd\optiga_cmd.c **** 
 416:C:/Workspace/DAVE-4.4.2-64Bit/optiga-trust-m/optiga/cmd\optiga_cmd.c **** //
 417:C:/Workspace/DAVE-4.4.2-64Bit/optiga-trust-m/optiga/cmd\optiga_cmd.c **** _STATIC_H void optiga_cmd_prepare_apdu_header(uint8_t cmd, uint8_t param,
 418:C:/Workspace/DAVE-4.4.2-64Bit/optiga-trust-m/optiga/cmd\optiga_cmd.c ****                                               uint16_t in_data_length,
 419:C:/Workspace/DAVE-4.4.2-64Bit/optiga-trust-m/optiga/cmd\optiga_cmd.c ****                                               uint8_t * p_apdu_buffer)
 420:C:/Workspace/DAVE-4.4.2-64Bit/optiga-trust-m/optiga/cmd\optiga_cmd.c **** {
 421:C:/Workspace/DAVE-4.4.2-64Bit/optiga-trust-m/optiga/cmd\optiga_cmd.c ****     p_apdu_buffer [0] = cmd;
 422:C:/Workspace/DAVE-4.4.2-64Bit/optiga-trust-m/optiga/cmd\optiga_cmd.c ****     p_apdu_buffer [1] = param;
 423:C:/Workspace/DAVE-4.4.2-64Bit/optiga-trust-m/optiga/cmd\optiga_cmd.c ****     p_apdu_buffer [2] = (uint8_t)((in_data_length & 0xFF00) >> 8);
 424:C:/Workspace/DAVE-4.4.2-64Bit/optiga-trust-m/optiga/cmd\optiga_cmd.c ****     p_apdu_buffer [3] = (uint8_t)(in_data_length & 0x00FF);
 425:C:/Workspace/DAVE-4.4.2-64Bit/optiga-trust-m/optiga/cmd\optiga_cmd.c **** }
 426:C:/Workspace/DAVE-4.4.2-64Bit/optiga-trust-m/optiga/cmd\optiga_cmd.c **** 
 427:C:/Workspace/DAVE-4.4.2-64Bit/optiga-trust-m/optiga/cmd\optiga_cmd.c **** 
 428:C:/Workspace/DAVE-4.4.2-64Bit/optiga-trust-m/optiga/cmd\optiga_cmd.c **** _STATIC_H void optiga_cmd_prepare_tag_header(uint8_t tag,
 429:C:/Workspace/DAVE-4.4.2-64Bit/optiga-trust-m/optiga/cmd\optiga_cmd.c ****                                              uint16_t tag_length,
 430:C:/Workspace/DAVE-4.4.2-64Bit/optiga-trust-m/optiga/cmd\optiga_cmd.c ****                                              uint8_t * buffer,
 431:C:/Workspace/DAVE-4.4.2-64Bit/optiga-trust-m/optiga/cmd\optiga_cmd.c ****                                              uint16_t * position)
 432:C:/Workspace/DAVE-4.4.2-64Bit/optiga-trust-m/optiga/cmd\optiga_cmd.c **** {
  25              	 .loc 1 432 0
  26              	 .cfi_startproc
  27              	.LVL0:
  28 0000 30B5     	 push {r4,r5,lr}
  29              	.LCFI0:
  30              	 .cfi_def_cfa_offset 12
  31              	 .cfi_offset 4,-12
  32              	 .cfi_offset 5,-8
  33              	 .cfi_offset 14,-4
 433:C:/Workspace/DAVE-4.4.2-64Bit/optiga-trust-m/optiga/cmd\optiga_cmd.c ****     uint16_t start_position = *position;
  34              	 .loc 1 433 0
  35 0002 1C88     	 ldrh r4,[r3]
  36              	.LVL1:
 434:C:/Workspace/DAVE-4.4.2-64Bit/optiga-trust-m/optiga/cmd\optiga_cmd.c **** 
 435:C:/Workspace/DAVE-4.4.2-64Bit/optiga-trust-m/optiga/cmd\optiga_cmd.c ****     buffer[start_position++] = tag;
 436:C:/Workspace/DAVE-4.4.2-64Bit/optiga-trust-m/optiga/cmd\optiga_cmd.c ****     buffer[start_position++] = (uint8_t )(tag_length >> 8);
  37              	 .loc 1 436 0
  38 0004 0D0A     	 lsr r5,r1,#8
 435:C:/Workspace/DAVE-4.4.2-64Bit/optiga-trust-m/optiga/cmd\optiga_cmd.c ****     buffer[start_position++] = (uint8_t )(tag_length >> 8);
  39              	 .loc 1 435 0
  40 0006 1055     	 strb r0,[r2,r4]
  41              	.LVL2:
  42 0008 601C     	 add r0,r4,#1
  43              	.LVL3:
  44              	 .loc 1 436 0
  45 000a 80B2     	 uxth r0,r0
  46 000c 1554     	 strb r5,[r2,r0]
  47              	.LVL4:
  48 000e A01C     	 add r0,r4,#2
 437:C:/Workspace/DAVE-4.4.2-64Bit/optiga-trust-m/optiga/cmd\optiga_cmd.c ****     buffer[start_position++] = (uint8_t )(tag_length);
  49              	 .loc 1 437 0
  50 0010 80B2     	 uxth r0,r0
  51 0012 0334     	 add r4,r4,#3
  52              	.LVL5:
  53 0014 1154     	 strb r1,[r2,r0]
 438:C:/Workspace/DAVE-4.4.2-64Bit/optiga-trust-m/optiga/cmd\optiga_cmd.c **** 
 439:C:/Workspace/DAVE-4.4.2-64Bit/optiga-trust-m/optiga/cmd\optiga_cmd.c ****     *position = start_position;
 440:C:/Workspace/DAVE-4.4.2-64Bit/optiga-trust-m/optiga/cmd\optiga_cmd.c **** }
  54              	 .loc 1 440 0
  55              	 
 439:C:/Workspace/DAVE-4.4.2-64Bit/optiga-trust-m/optiga/cmd\optiga_cmd.c **** }
  56              	 .loc 1 439 0
  57 0016 1C80     	 strh r4,[r3]
  58              	.LVL6:
  59              	 .loc 1 440 0
  60 0018 30BD     	 pop {r4,r5,pc}
  61              	 .cfi_endproc
  62              	.LFE2:
  64              	 .section .text.optiga_cmd_queue_update_slot,"ax",%progbits
  65              	 .align 1
  66              	 .code 16
  67              	 .thumb_func
  69              	optiga_cmd_queue_update_slot:
  70              	.LFB13:
 441:C:/Workspace/DAVE-4.4.2-64Bit/optiga-trust-m/optiga/cmd\optiga_cmd.c **** 
 442:C:/Workspace/DAVE-4.4.2-64Bit/optiga-trust-m/optiga/cmd\optiga_cmd.c **** 
 443:C:/Workspace/DAVE-4.4.2-64Bit/optiga-trust-m/optiga/cmd\optiga_cmd.c **** _STATIC_H void optiga_cmd_event_trigger_execute(void * p_ctx)
 444:C:/Workspace/DAVE-4.4.2-64Bit/optiga-trust-m/optiga/cmd\optiga_cmd.c **** {
 445:C:/Workspace/DAVE-4.4.2-64Bit/optiga-trust-m/optiga/cmd\optiga_cmd.c ****     optiga_cmd_execute_handler(p_ctx, OPTIGA_LIB_SUCCESS);
 446:C:/Workspace/DAVE-4.4.2-64Bit/optiga-trust-m/optiga/cmd\optiga_cmd.c **** }
 447:C:/Workspace/DAVE-4.4.2-64Bit/optiga-trust-m/optiga/cmd\optiga_cmd.c **** 
 448:C:/Workspace/DAVE-4.4.2-64Bit/optiga-trust-m/optiga/cmd\optiga_cmd.c **** _STATIC_H void optiga_cmd_execute(optiga_cmd_t * me,
 449:C:/Workspace/DAVE-4.4.2-64Bit/optiga-trust-m/optiga/cmd\optiga_cmd.c ****                                   uint8_t cmd_param,
 450:C:/Workspace/DAVE-4.4.2-64Bit/optiga-trust-m/optiga/cmd\optiga_cmd.c ****                                   optiga_cmd_handler_t cmd_hdlrs,
 451:C:/Workspace/DAVE-4.4.2-64Bit/optiga-trust-m/optiga/cmd\optiga_cmd.c ****                                   optiga_cmd_state_t start_state,
 452:C:/Workspace/DAVE-4.4.2-64Bit/optiga-trust-m/optiga/cmd\optiga_cmd.c ****                                   void * input)
 453:C:/Workspace/DAVE-4.4.2-64Bit/optiga-trust-m/optiga/cmd\optiga_cmd.c **** {
 454:C:/Workspace/DAVE-4.4.2-64Bit/optiga-trust-m/optiga/cmd\optiga_cmd.c ****     me->p_input = input;
 455:C:/Workspace/DAVE-4.4.2-64Bit/optiga-trust-m/optiga/cmd\optiga_cmd.c ****     me->cmd_next_execution_state = start_state;
 456:C:/Workspace/DAVE-4.4.2-64Bit/optiga-trust-m/optiga/cmd\optiga_cmd.c ****     me->cmd_hdlrs = cmd_hdlrs;
 457:C:/Workspace/DAVE-4.4.2-64Bit/optiga-trust-m/optiga/cmd\optiga_cmd.c ****     me->chaining_ongoing = FALSE;
 458:C:/Workspace/DAVE-4.4.2-64Bit/optiga-trust-m/optiga/cmd\optiga_cmd.c ****     me->cmd_param = cmd_param;
 459:C:/Workspace/DAVE-4.4.2-64Bit/optiga-trust-m/optiga/cmd\optiga_cmd.c ****     optiga_cmd_execute_handler(me, OPTIGA_LIB_SUCCESS);
 460:C:/Workspace/DAVE-4.4.2-64Bit/optiga-trust-m/optiga/cmd\optiga_cmd.c **** }
 461:C:/Workspace/DAVE-4.4.2-64Bit/optiga-trust-m/optiga/cmd\optiga_cmd.c **** 
 462:C:/Workspace/DAVE-4.4.2-64Bit/optiga-trust-m/optiga/cmd\optiga_cmd.c **** /*
 463:C:/Workspace/DAVE-4.4.2-64Bit/optiga-trust-m/optiga/cmd\optiga_cmd.c **** * Checks if optiga session is available or not
 464:C:/Workspace/DAVE-4.4.2-64Bit/optiga-trust-m/optiga/cmd\optiga_cmd.c **** * Returns TRUE, if slot is available
 465:C:/Workspace/DAVE-4.4.2-64Bit/optiga-trust-m/optiga/cmd\optiga_cmd.c **** * Returns FALSE, if slot is not available
 466:C:/Workspace/DAVE-4.4.2-64Bit/optiga-trust-m/optiga/cmd\optiga_cmd.c **** */
 467:C:/Workspace/DAVE-4.4.2-64Bit/optiga-trust-m/optiga/cmd\optiga_cmd.c **** _STATIC_H bool_t optiga_cmd_session_available(const optiga_context_t * p_optiga)
 468:C:/Workspace/DAVE-4.4.2-64Bit/optiga-trust-m/optiga/cmd\optiga_cmd.c **** {
 469:C:/Workspace/DAVE-4.4.2-64Bit/optiga-trust-m/optiga/cmd\optiga_cmd.c ****     uint32_t status_check;
 470:C:/Workspace/DAVE-4.4.2-64Bit/optiga-trust-m/optiga/cmd\optiga_cmd.c ****     // Consider the array as uin32_t value and check against 0x10101010
 471:C:/Workspace/DAVE-4.4.2-64Bit/optiga-trust-m/optiga/cmd\optiga_cmd.c ****     // where 0x10 is value of OPTIGA_CMD_SESSION_ASSIGNED
 472:C:/Workspace/DAVE-4.4.2-64Bit/optiga-trust-m/optiga/cmd\optiga_cmd.c ****     memcpy(&status_check, p_optiga->sessions, OPTIGA_CMD_MAX_NUMBER_OF_SESSIONS);
 473:C:/Workspace/DAVE-4.4.2-64Bit/optiga-trust-m/optiga/cmd\optiga_cmd.c ****     return ((status_check < OPTIGA_CMD_ALL_SESSION_ASSIGNED)? (TRUE):(FALSE));
 474:C:/Workspace/DAVE-4.4.2-64Bit/optiga-trust-m/optiga/cmd\optiga_cmd.c **** }
 475:C:/Workspace/DAVE-4.4.2-64Bit/optiga-trust-m/optiga/cmd\optiga_cmd.c **** 
 476:C:/Workspace/DAVE-4.4.2-64Bit/optiga-trust-m/optiga/cmd\optiga_cmd.c **** /*
 477:C:/Workspace/DAVE-4.4.2-64Bit/optiga-trust-m/optiga/cmd\optiga_cmd.c **** * 1. If a optiga cmd instance does not have session, assigns an available session
 478:C:/Workspace/DAVE-4.4.2-64Bit/optiga-trust-m/optiga/cmd\optiga_cmd.c **** */
 479:C:/Workspace/DAVE-4.4.2-64Bit/optiga-trust-m/optiga/cmd\optiga_cmd.c **** _STATIC_H void optiga_cmd_session_assign(optiga_cmd_t * me)
 480:C:/Workspace/DAVE-4.4.2-64Bit/optiga-trust-m/optiga/cmd\optiga_cmd.c **** {
 481:C:/Workspace/DAVE-4.4.2-64Bit/optiga-trust-m/optiga/cmd\optiga_cmd.c ****     uint8_t * p_optiga_sessions = me->p_optiga->sessions;
 482:C:/Workspace/DAVE-4.4.2-64Bit/optiga-trust-m/optiga/cmd\optiga_cmd.c ****     uint8_t count;
 483:C:/Workspace/DAVE-4.4.2-64Bit/optiga-trust-m/optiga/cmd\optiga_cmd.c ****     if (OPTIGA_CMD_NO_SESSION_OID == me->session_oid)
 484:C:/Workspace/DAVE-4.4.2-64Bit/optiga-trust-m/optiga/cmd\optiga_cmd.c ****     {
 485:C:/Workspace/DAVE-4.4.2-64Bit/optiga-trust-m/optiga/cmd\optiga_cmd.c ****         for (count = 0; count < OPTIGA_CMD_MAX_NUMBER_OF_SESSIONS; count++)
 486:C:/Workspace/DAVE-4.4.2-64Bit/optiga-trust-m/optiga/cmd\optiga_cmd.c ****         {
 487:C:/Workspace/DAVE-4.4.2-64Bit/optiga-trust-m/optiga/cmd\optiga_cmd.c ****             if (OPTIGA_CMD_SESSION_ASSIGNED != p_optiga_sessions[count])
 488:C:/Workspace/DAVE-4.4.2-64Bit/optiga-trust-m/optiga/cmd\optiga_cmd.c ****             {
 489:C:/Workspace/DAVE-4.4.2-64Bit/optiga-trust-m/optiga/cmd\optiga_cmd.c ****                 me->session_oid = (OPTIGA_CMD_START_SESSION_OID | count);
 490:C:/Workspace/DAVE-4.4.2-64Bit/optiga-trust-m/optiga/cmd\optiga_cmd.c ****                 p_optiga_sessions[count] = OPTIGA_CMD_SESSION_ASSIGNED;
 491:C:/Workspace/DAVE-4.4.2-64Bit/optiga-trust-m/optiga/cmd\optiga_cmd.c ****                 break;
 492:C:/Workspace/DAVE-4.4.2-64Bit/optiga-trust-m/optiga/cmd\optiga_cmd.c ****             }
 493:C:/Workspace/DAVE-4.4.2-64Bit/optiga-trust-m/optiga/cmd\optiga_cmd.c ****         }
 494:C:/Workspace/DAVE-4.4.2-64Bit/optiga-trust-m/optiga/cmd\optiga_cmd.c ****     }
 495:C:/Workspace/DAVE-4.4.2-64Bit/optiga-trust-m/optiga/cmd\optiga_cmd.c **** }
 496:C:/Workspace/DAVE-4.4.2-64Bit/optiga-trust-m/optiga/cmd\optiga_cmd.c **** 
 497:C:/Workspace/DAVE-4.4.2-64Bit/optiga-trust-m/optiga/cmd\optiga_cmd.c **** /*
 498:C:/Workspace/DAVE-4.4.2-64Bit/optiga-trust-m/optiga/cmd\optiga_cmd.c **** * Frees a session
 499:C:/Workspace/DAVE-4.4.2-64Bit/optiga-trust-m/optiga/cmd\optiga_cmd.c **** */
 500:C:/Workspace/DAVE-4.4.2-64Bit/optiga-trust-m/optiga/cmd\optiga_cmd.c **** _STATIC_H void optiga_cmd_session_free(optiga_cmd_t * me)
 501:C:/Workspace/DAVE-4.4.2-64Bit/optiga-trust-m/optiga/cmd\optiga_cmd.c **** {
 502:C:/Workspace/DAVE-4.4.2-64Bit/optiga-trust-m/optiga/cmd\optiga_cmd.c ****     uint8_t * p_optiga_sessions = me->p_optiga->sessions;
 503:C:/Workspace/DAVE-4.4.2-64Bit/optiga-trust-m/optiga/cmd\optiga_cmd.c ****     uint8_t count;
 504:C:/Workspace/DAVE-4.4.2-64Bit/optiga-trust-m/optiga/cmd\optiga_cmd.c ****     if (OPTIGA_CMD_NO_SESSION_OID != me->session_oid)
 505:C:/Workspace/DAVE-4.4.2-64Bit/optiga-trust-m/optiga/cmd\optiga_cmd.c ****     {
 506:C:/Workspace/DAVE-4.4.2-64Bit/optiga-trust-m/optiga/cmd\optiga_cmd.c ****         count = me->session_oid & 0x0F;
 507:C:/Workspace/DAVE-4.4.2-64Bit/optiga-trust-m/optiga/cmd\optiga_cmd.c ****         me->session_oid = OPTIGA_CMD_NO_SESSION_OID;
 508:C:/Workspace/DAVE-4.4.2-64Bit/optiga-trust-m/optiga/cmd\optiga_cmd.c ****         p_optiga_sessions[count] = OPTIGA_CMD_SESSION_NOT_ASSIGNED;
 509:C:/Workspace/DAVE-4.4.2-64Bit/optiga-trust-m/optiga/cmd\optiga_cmd.c ****     }
 510:C:/Workspace/DAVE-4.4.2-64Bit/optiga-trust-m/optiga/cmd\optiga_cmd.c **** }
 511:C:/Workspace/DAVE-4.4.2-64Bit/optiga-trust-m/optiga/cmd\optiga_cmd.c **** 
 512:C:/Workspace/DAVE-4.4.2-64Bit/optiga-trust-m/optiga/cmd\optiga_cmd.c **** /*
 513:C:/Workspace/DAVE-4.4.2-64Bit/optiga-trust-m/optiga/cmd\optiga_cmd.c **** *  Returns the requested info in the queue slot input cmd instance
 514:C:/Workspace/DAVE-4.4.2-64Bit/optiga-trust-m/optiga/cmd\optiga_cmd.c **** */
 515:C:/Workspace/DAVE-4.4.2-64Bit/optiga-trust-m/optiga/cmd\optiga_cmd.c **** _STATIC_H  uint8_t optiga_cmd_queue_get_state_of(const optiga_cmd_t * me, uint8_t slot_member)
 516:C:/Workspace/DAVE-4.4.2-64Bit/optiga-trust-m/optiga/cmd\optiga_cmd.c **** {
 517:C:/Workspace/DAVE-4.4.2-64Bit/optiga-trust-m/optiga/cmd\optiga_cmd.c ****     uint8_t state = 0;
 518:C:/Workspace/DAVE-4.4.2-64Bit/optiga-trust-m/optiga/cmd\optiga_cmd.c ****     switch (slot_member)
 519:C:/Workspace/DAVE-4.4.2-64Bit/optiga-trust-m/optiga/cmd\optiga_cmd.c ****     {
 520:C:/Workspace/DAVE-4.4.2-64Bit/optiga-trust-m/optiga/cmd\optiga_cmd.c ****         case OPTIGA_CMD_QUEUE_SLOT_LOCK_TYPE:
 521:C:/Workspace/DAVE-4.4.2-64Bit/optiga-trust-m/optiga/cmd\optiga_cmd.c ****         {
 522:C:/Workspace/DAVE-4.4.2-64Bit/optiga-trust-m/optiga/cmd\optiga_cmd.c ****             state = me->p_optiga->optiga_cmd_execution_queue[me->queue_id].request_type;
 523:C:/Workspace/DAVE-4.4.2-64Bit/optiga-trust-m/optiga/cmd\optiga_cmd.c ****         }
 524:C:/Workspace/DAVE-4.4.2-64Bit/optiga-trust-m/optiga/cmd\optiga_cmd.c ****         break;
 525:C:/Workspace/DAVE-4.4.2-64Bit/optiga-trust-m/optiga/cmd\optiga_cmd.c ****         case OPTIGA_CMD_QUEUE_SLOT_STATE:
 526:C:/Workspace/DAVE-4.4.2-64Bit/optiga-trust-m/optiga/cmd\optiga_cmd.c ****         {
 527:C:/Workspace/DAVE-4.4.2-64Bit/optiga-trust-m/optiga/cmd\optiga_cmd.c ****             state = me->p_optiga->optiga_cmd_execution_queue[me->queue_id].state_of_entry;
 528:C:/Workspace/DAVE-4.4.2-64Bit/optiga-trust-m/optiga/cmd\optiga_cmd.c ****         }
 529:C:/Workspace/DAVE-4.4.2-64Bit/optiga-trust-m/optiga/cmd\optiga_cmd.c ****         break;
 530:C:/Workspace/DAVE-4.4.2-64Bit/optiga-trust-m/optiga/cmd\optiga_cmd.c ****         default:
 531:C:/Workspace/DAVE-4.4.2-64Bit/optiga-trust-m/optiga/cmd\optiga_cmd.c ****             break;
 532:C:/Workspace/DAVE-4.4.2-64Bit/optiga-trust-m/optiga/cmd\optiga_cmd.c ****     }
 533:C:/Workspace/DAVE-4.4.2-64Bit/optiga-trust-m/optiga/cmd\optiga_cmd.c ****     return (state);
 534:C:/Workspace/DAVE-4.4.2-64Bit/optiga-trust-m/optiga/cmd\optiga_cmd.c **** }
 535:C:/Workspace/DAVE-4.4.2-64Bit/optiga-trust-m/optiga/cmd\optiga_cmd.c **** 
 536:C:/Workspace/DAVE-4.4.2-64Bit/optiga-trust-m/optiga/cmd\optiga_cmd.c **** /*
 537:C:/Workspace/DAVE-4.4.2-64Bit/optiga-trust-m/optiga/cmd\optiga_cmd.c **** * Returns the count of number of slots with requested state
 538:C:/Workspace/DAVE-4.4.2-64Bit/optiga-trust-m/optiga/cmd\optiga_cmd.c **** */
 539:C:/Workspace/DAVE-4.4.2-64Bit/optiga-trust-m/optiga/cmd\optiga_cmd.c **** _STATIC_H  uint8_t optiga_cmd_queue_get_count_of(const optiga_context_t * p_optiga, uint8_t slot_me
 540:C:/Workspace/DAVE-4.4.2-64Bit/optiga-trust-m/optiga/cmd\optiga_cmd.c **** {
 541:C:/Workspace/DAVE-4.4.2-64Bit/optiga-trust-m/optiga/cmd\optiga_cmd.c ****     uint8_t index;
 542:C:/Workspace/DAVE-4.4.2-64Bit/optiga-trust-m/optiga/cmd\optiga_cmd.c ****     uint8_t count = 0;
 543:C:/Workspace/DAVE-4.4.2-64Bit/optiga-trust-m/optiga/cmd\optiga_cmd.c ****     uint8_t slot_value = 0;
 544:C:/Workspace/DAVE-4.4.2-64Bit/optiga-trust-m/optiga/cmd\optiga_cmd.c ****     for (index = 0; index < OPTIGA_CMD_MAX_REGISTRATIONS ; index++)
 545:C:/Workspace/DAVE-4.4.2-64Bit/optiga-trust-m/optiga/cmd\optiga_cmd.c ****     {
 546:C:/Workspace/DAVE-4.4.2-64Bit/optiga-trust-m/optiga/cmd\optiga_cmd.c ****         switch (slot_member)
 547:C:/Workspace/DAVE-4.4.2-64Bit/optiga-trust-m/optiga/cmd\optiga_cmd.c ****         {
 548:C:/Workspace/DAVE-4.4.2-64Bit/optiga-trust-m/optiga/cmd\optiga_cmd.c ****             case OPTIGA_CMD_QUEUE_SLOT_LOCK_TYPE:
 549:C:/Workspace/DAVE-4.4.2-64Bit/optiga-trust-m/optiga/cmd\optiga_cmd.c ****             {
 550:C:/Workspace/DAVE-4.4.2-64Bit/optiga-trust-m/optiga/cmd\optiga_cmd.c ****                 slot_value = p_optiga->optiga_cmd_execution_queue[index].request_type;
 551:C:/Workspace/DAVE-4.4.2-64Bit/optiga-trust-m/optiga/cmd\optiga_cmd.c ****             }
 552:C:/Workspace/DAVE-4.4.2-64Bit/optiga-trust-m/optiga/cmd\optiga_cmd.c ****             break;
 553:C:/Workspace/DAVE-4.4.2-64Bit/optiga-trust-m/optiga/cmd\optiga_cmd.c ****             case OPTIGA_CMD_QUEUE_SLOT_STATE:
 554:C:/Workspace/DAVE-4.4.2-64Bit/optiga-trust-m/optiga/cmd\optiga_cmd.c ****             {
 555:C:/Workspace/DAVE-4.4.2-64Bit/optiga-trust-m/optiga/cmd\optiga_cmd.c ****                 slot_value = p_optiga->optiga_cmd_execution_queue[index].state_of_entry;
 556:C:/Workspace/DAVE-4.4.2-64Bit/optiga-trust-m/optiga/cmd\optiga_cmd.c ****             }
 557:C:/Workspace/DAVE-4.4.2-64Bit/optiga-trust-m/optiga/cmd\optiga_cmd.c ****             break;
 558:C:/Workspace/DAVE-4.4.2-64Bit/optiga-trust-m/optiga/cmd\optiga_cmd.c ****             default:
 559:C:/Workspace/DAVE-4.4.2-64Bit/optiga-trust-m/optiga/cmd\optiga_cmd.c ****                 break;
 560:C:/Workspace/DAVE-4.4.2-64Bit/optiga-trust-m/optiga/cmd\optiga_cmd.c ****         }
 561:C:/Workspace/DAVE-4.4.2-64Bit/optiga-trust-m/optiga/cmd\optiga_cmd.c ****         if (state_to_check == slot_value)
 562:C:/Workspace/DAVE-4.4.2-64Bit/optiga-trust-m/optiga/cmd\optiga_cmd.c ****         {
 563:C:/Workspace/DAVE-4.4.2-64Bit/optiga-trust-m/optiga/cmd\optiga_cmd.c ****             count++;
 564:C:/Workspace/DAVE-4.4.2-64Bit/optiga-trust-m/optiga/cmd\optiga_cmd.c ****         }
 565:C:/Workspace/DAVE-4.4.2-64Bit/optiga-trust-m/optiga/cmd\optiga_cmd.c ****     }
 566:C:/Workspace/DAVE-4.4.2-64Bit/optiga-trust-m/optiga/cmd\optiga_cmd.c ****     return (count);
 567:C:/Workspace/DAVE-4.4.2-64Bit/optiga-trust-m/optiga/cmd\optiga_cmd.c **** }
 568:C:/Workspace/DAVE-4.4.2-64Bit/optiga-trust-m/optiga/cmd\optiga_cmd.c **** 
 569:C:/Workspace/DAVE-4.4.2-64Bit/optiga-trust-m/optiga/cmd\optiga_cmd.c **** /*
 570:C:/Workspace/DAVE-4.4.2-64Bit/optiga-trust-m/optiga/cmd\optiga_cmd.c **** * Assigns an available slot to a optiga cmd instance and marks the slot as not available for anothe
 571:C:/Workspace/DAVE-4.4.2-64Bit/optiga-trust-m/optiga/cmd\optiga_cmd.c **** */
 572:C:/Workspace/DAVE-4.4.2-64Bit/optiga-trust-m/optiga/cmd\optiga_cmd.c **** _STATIC_H void optiga_cmd_queue_assign_slot(const optiga_cmd_t * me, uint8_t * queue_index_store)
 573:C:/Workspace/DAVE-4.4.2-64Bit/optiga-trust-m/optiga/cmd\optiga_cmd.c **** {
 574:C:/Workspace/DAVE-4.4.2-64Bit/optiga-trust-m/optiga/cmd\optiga_cmd.c ****     uint8_t index;
 575:C:/Workspace/DAVE-4.4.2-64Bit/optiga-trust-m/optiga/cmd\optiga_cmd.c ****     for (index = 0; index < OPTIGA_CMD_MAX_REGISTRATIONS ; index++)
 576:C:/Workspace/DAVE-4.4.2-64Bit/optiga-trust-m/optiga/cmd\optiga_cmd.c ****     {
 577:C:/Workspace/DAVE-4.4.2-64Bit/optiga-trust-m/optiga/cmd\optiga_cmd.c ****         if (OPTIGA_CMD_QUEUE_NOT_ASSIGNED == me->p_optiga->optiga_cmd_execution_queue[index].state_
 578:C:/Workspace/DAVE-4.4.2-64Bit/optiga-trust-m/optiga/cmd\optiga_cmd.c ****         {
 579:C:/Workspace/DAVE-4.4.2-64Bit/optiga-trust-m/optiga/cmd\optiga_cmd.c ****             * queue_index_store =  index;
 580:C:/Workspace/DAVE-4.4.2-64Bit/optiga-trust-m/optiga/cmd\optiga_cmd.c ****             me->p_optiga->optiga_cmd_execution_queue[index].state_of_entry = OPTIGA_CMD_QUEUE_ASSIG
 581:C:/Workspace/DAVE-4.4.2-64Bit/optiga-trust-m/optiga/cmd\optiga_cmd.c ****            break;
 582:C:/Workspace/DAVE-4.4.2-64Bit/optiga-trust-m/optiga/cmd\optiga_cmd.c ****         }
 583:C:/Workspace/DAVE-4.4.2-64Bit/optiga-trust-m/optiga/cmd\optiga_cmd.c ****     }
 584:C:/Workspace/DAVE-4.4.2-64Bit/optiga-trust-m/optiga/cmd\optiga_cmd.c **** }
 585:C:/Workspace/DAVE-4.4.2-64Bit/optiga-trust-m/optiga/cmd\optiga_cmd.c **** 
 586:C:/Workspace/DAVE-4.4.2-64Bit/optiga-trust-m/optiga/cmd\optiga_cmd.c **** 
 587:C:/Workspace/DAVE-4.4.2-64Bit/optiga-trust-m/optiga/cmd\optiga_cmd.c **** /*
 588:C:/Workspace/DAVE-4.4.2-64Bit/optiga-trust-m/optiga/cmd\optiga_cmd.c **** * De-assigns a slot from a optiga cmd instance and makes the slot available for next optiga cmd ins
 589:C:/Workspace/DAVE-4.4.2-64Bit/optiga-trust-m/optiga/cmd\optiga_cmd.c **** */
 590:C:/Workspace/DAVE-4.4.2-64Bit/optiga-trust-m/optiga/cmd\optiga_cmd.c **** _STATIC_H void optiga_cmd_queue_deassign_slot(optiga_cmd_t * me)
 591:C:/Workspace/DAVE-4.4.2-64Bit/optiga-trust-m/optiga/cmd\optiga_cmd.c **** {
 592:C:/Workspace/DAVE-4.4.2-64Bit/optiga-trust-m/optiga/cmd\optiga_cmd.c ****     me->p_optiga->optiga_cmd_execution_queue[me->queue_id].state_of_entry = OPTIGA_CMD_QUEUE_NOT_AS
 593:C:/Workspace/DAVE-4.4.2-64Bit/optiga-trust-m/optiga/cmd\optiga_cmd.c ****     me->p_optiga->optiga_cmd_execution_queue[me->queue_id].request_type = OPTIGA_CMD_QUEUE_NO_REQUE
 594:C:/Workspace/DAVE-4.4.2-64Bit/optiga-trust-m/optiga/cmd\optiga_cmd.c ****     me->queue_id = 0;
 595:C:/Workspace/DAVE-4.4.2-64Bit/optiga-trust-m/optiga/cmd\optiga_cmd.c **** }
 596:C:/Workspace/DAVE-4.4.2-64Bit/optiga-trust-m/optiga/cmd\optiga_cmd.c **** 
 597:C:/Workspace/DAVE-4.4.2-64Bit/optiga-trust-m/optiga/cmd\optiga_cmd.c **** 
 598:C:/Workspace/DAVE-4.4.2-64Bit/optiga-trust-m/optiga/cmd\optiga_cmd.c **** /*
 599:C:/Workspace/DAVE-4.4.2-64Bit/optiga-trust-m/optiga/cmd\optiga_cmd.c **** * Select next optiga cmd instance from the execution queue based on a rule
 600:C:/Workspace/DAVE-4.4.2-64Bit/optiga-trust-m/optiga/cmd\optiga_cmd.c **** * 1. A slot with OPTIGA_CMD_QUEUE_RESUME state should exist
 601:C:/Workspace/DAVE-4.4.2-64Bit/optiga-trust-m/optiga/cmd\optiga_cmd.c **** * 2. Pick the slot which has acquired the strict slot
 602:C:/Workspace/DAVE-4.4.2-64Bit/optiga-trust-m/optiga/cmd\optiga_cmd.c **** * 3. If no slot with OPTIGA_CMD_QUEUE_RESUME exists, slot must be in OPTIGA_CMD_QUEUE_REQUEST state
 603:C:/Workspace/DAVE-4.4.2-64Bit/optiga-trust-m/optiga/cmd\optiga_cmd.c **** * 4. The arrival time must be the earliest provided
 604:C:/Workspace/DAVE-4.4.2-64Bit/optiga-trust-m/optiga/cmd\optiga_cmd.c **** *     a. The request type is lock
 605:C:/Workspace/DAVE-4.4.2-64Bit/optiga-trust-m/optiga/cmd\optiga_cmd.c **** *     b. If request type is session, either session is already assigned or atleast session is avail
 606:C:/Workspace/DAVE-4.4.2-64Bit/optiga-trust-m/optiga/cmd\optiga_cmd.c **** */
 607:C:/Workspace/DAVE-4.4.2-64Bit/optiga-trust-m/optiga/cmd\optiga_cmd.c **** _STATIC_H void optiga_cmd_queue_scheduler(void * p_optiga)
 608:C:/Workspace/DAVE-4.4.2-64Bit/optiga-trust-m/optiga/cmd\optiga_cmd.c **** {
 609:C:/Workspace/DAVE-4.4.2-64Bit/optiga-trust-m/optiga/cmd\optiga_cmd.c ****     uint32_t reference_time_stamp = 0xFFFFFFFF;
 610:C:/Workspace/DAVE-4.4.2-64Bit/optiga-trust-m/optiga/cmd\optiga_cmd.c ****     optiga_cmd_queue_slot_t * p_queue_entry;
 611:C:/Workspace/DAVE-4.4.2-64Bit/optiga-trust-m/optiga/cmd\optiga_cmd.c ****     uint8_t index;
 612:C:/Workspace/DAVE-4.4.2-64Bit/optiga-trust-m/optiga/cmd\optiga_cmd.c ****     uint8_t prefered_index = 0xFF;
 613:C:/Workspace/DAVE-4.4.2-64Bit/optiga-trust-m/optiga/cmd\optiga_cmd.c ****     uint8_t overflow_detected = FALSE;
 614:C:/Workspace/DAVE-4.4.2-64Bit/optiga-trust-m/optiga/cmd\optiga_cmd.c **** 
 615:C:/Workspace/DAVE-4.4.2-64Bit/optiga-trust-m/optiga/cmd\optiga_cmd.c ****     optiga_context_t * p_optiga_ctx = (optiga_context_t * )p_optiga;
 616:C:/Workspace/DAVE-4.4.2-64Bit/optiga-trust-m/optiga/cmd\optiga_cmd.c **** 
 617:C:/Workspace/DAVE-4.4.2-64Bit/optiga-trust-m/optiga/cmd\optiga_cmd.c ****     pal_os_event_t * my_os_event = p_optiga_ctx->p_pal_os_event_ctx;
 618:C:/Workspace/DAVE-4.4.2-64Bit/optiga-trust-m/optiga/cmd\optiga_cmd.c **** 
 619:C:/Workspace/DAVE-4.4.2-64Bit/optiga-trust-m/optiga/cmd\optiga_cmd.c **** 
 620:C:/Workspace/DAVE-4.4.2-64Bit/optiga-trust-m/optiga/cmd\optiga_cmd.c ****     if (((0 == optiga_cmd_queue_get_count_of(p_optiga_ctx, OPTIGA_CMD_QUEUE_SLOT_STATE, OPTIGA_CMD_
 621:C:/Workspace/DAVE-4.4.2-64Bit/optiga-trust-m/optiga/cmd\optiga_cmd.c ****          (0 == optiga_cmd_queue_get_count_of(p_optiga_ctx, OPTIGA_CMD_QUEUE_SLOT_STATE, OPTIGA_CMD_
 622:C:/Workspace/DAVE-4.4.2-64Bit/optiga-trust-m/optiga/cmd\optiga_cmd.c ****          ((1 == optiga_cmd_queue_get_count_of(p_optiga_ctx, OPTIGA_CMD_QUEUE_SLOT_STATE , OPTIGA_CM
 623:C:/Workspace/DAVE-4.4.2-64Bit/optiga-trust-m/optiga/cmd\optiga_cmd.c ****          (0 < optiga_cmd_queue_get_count_of(p_optiga_ctx, OPTIGA_CMD_QUEUE_SLOT_LOCK_TYPE, OPTIGA_C
 624:C:/Workspace/DAVE-4.4.2-64Bit/optiga-trust-m/optiga/cmd\optiga_cmd.c ****     {
 625:C:/Workspace/DAVE-4.4.2-64Bit/optiga-trust-m/optiga/cmd\optiga_cmd.c ****         // call self
 626:C:/Workspace/DAVE-4.4.2-64Bit/optiga-trust-m/optiga/cmd\optiga_cmd.c ****         pal_os_event_register_callback_oneshot(my_os_event, optiga_cmd_queue_scheduler,
 627:C:/Workspace/DAVE-4.4.2-64Bit/optiga-trust-m/optiga/cmd\optiga_cmd.c ****                                                p_optiga_ctx,OPTIGA_CMD_SCHEDULER_IDLING_TIME_MS);
 628:C:/Workspace/DAVE-4.4.2-64Bit/optiga-trust-m/optiga/cmd\optiga_cmd.c ****     }
 629:C:/Workspace/DAVE-4.4.2-64Bit/optiga-trust-m/optiga/cmd\optiga_cmd.c ****     else
 630:C:/Workspace/DAVE-4.4.2-64Bit/optiga-trust-m/optiga/cmd\optiga_cmd.c ****     {
 631:C:/Workspace/DAVE-4.4.2-64Bit/optiga-trust-m/optiga/cmd\optiga_cmd.c ****         pal_os_event_stop(my_os_event);
 632:C:/Workspace/DAVE-4.4.2-64Bit/optiga-trust-m/optiga/cmd\optiga_cmd.c ****         // continue checking if no context selected and overflow detected
 633:C:/Workspace/DAVE-4.4.2-64Bit/optiga-trust-m/optiga/cmd\optiga_cmd.c ****         do
 634:C:/Workspace/DAVE-4.4.2-64Bit/optiga-trust-m/optiga/cmd\optiga_cmd.c ****         {
 635:C:/Workspace/DAVE-4.4.2-64Bit/optiga-trust-m/optiga/cmd\optiga_cmd.c ****             //reset overflow detected flag and the last_time stamp
 636:C:/Workspace/DAVE-4.4.2-64Bit/optiga-trust-m/optiga/cmd\optiga_cmd.c ****             if(overflow_detected == TRUE)
 637:C:/Workspace/DAVE-4.4.2-64Bit/optiga-trust-m/optiga/cmd\optiga_cmd.c ****             {
 638:C:/Workspace/DAVE-4.4.2-64Bit/optiga-trust-m/optiga/cmd\optiga_cmd.c ****                 p_optiga_ctx->last_time_stamp = 0;
 639:C:/Workspace/DAVE-4.4.2-64Bit/optiga-trust-m/optiga/cmd\optiga_cmd.c ****                 overflow_detected = FALSE;
 640:C:/Workspace/DAVE-4.4.2-64Bit/optiga-trust-m/optiga/cmd\optiga_cmd.c ****             }
 641:C:/Workspace/DAVE-4.4.2-64Bit/optiga-trust-m/optiga/cmd\optiga_cmd.c **** 
 642:C:/Workspace/DAVE-4.4.2-64Bit/optiga-trust-m/optiga/cmd\optiga_cmd.c ****             // Select optiga command based on rule
 643:C:/Workspace/DAVE-4.4.2-64Bit/optiga-trust-m/optiga/cmd\optiga_cmd.c ****             for (index = 0; index < OPTIGA_CMD_MAX_REGISTRATIONS; index++)
 644:C:/Workspace/DAVE-4.4.2-64Bit/optiga-trust-m/optiga/cmd\optiga_cmd.c ****             {
 645:C:/Workspace/DAVE-4.4.2-64Bit/optiga-trust-m/optiga/cmd\optiga_cmd.c ****                 p_queue_entry = &(p_optiga_ctx->optiga_cmd_execution_queue[index]);
 646:C:/Workspace/DAVE-4.4.2-64Bit/optiga-trust-m/optiga/cmd\optiga_cmd.c **** 
 647:C:/Workspace/DAVE-4.4.2-64Bit/optiga-trust-m/optiga/cmd\optiga_cmd.c ****                 // if any slot has acquired strict lock, highest priority is given to it
 648:C:/Workspace/DAVE-4.4.2-64Bit/optiga-trust-m/optiga/cmd\optiga_cmd.c ****                 if (1 == optiga_cmd_queue_get_count_of(p_optiga_ctx, OPTIGA_CMD_QUEUE_SLOT_STATE , 
 649:C:/Workspace/DAVE-4.4.2-64Bit/optiga-trust-m/optiga/cmd\optiga_cmd.c ****                 {
 650:C:/Workspace/DAVE-4.4.2-64Bit/optiga-trust-m/optiga/cmd\optiga_cmd.c ****                     // Select the slot which has acquired strict lock
 651:C:/Workspace/DAVE-4.4.2-64Bit/optiga-trust-m/optiga/cmd\optiga_cmd.c ****                     if ((OPTIGA_CMD_QUEUE_RESUME == p_queue_entry->state_of_entry) &&
 652:C:/Workspace/DAVE-4.4.2-64Bit/optiga-trust-m/optiga/cmd\optiga_cmd.c ****                         (OPTIGA_CMD_QUEUE_REQUEST_STRICT_LOCK == p_queue_entry->request_type))
 653:C:/Workspace/DAVE-4.4.2-64Bit/optiga-trust-m/optiga/cmd\optiga_cmd.c ****                     {
 654:C:/Workspace/DAVE-4.4.2-64Bit/optiga-trust-m/optiga/cmd\optiga_cmd.c ****                         reference_time_stamp = p_queue_entry->arrival_time;
 655:C:/Workspace/DAVE-4.4.2-64Bit/optiga-trust-m/optiga/cmd\optiga_cmd.c ****                         prefered_index = index;
 656:C:/Workspace/DAVE-4.4.2-64Bit/optiga-trust-m/optiga/cmd\optiga_cmd.c ****                     }
 657:C:/Workspace/DAVE-4.4.2-64Bit/optiga-trust-m/optiga/cmd\optiga_cmd.c **** 
 658:C:/Workspace/DAVE-4.4.2-64Bit/optiga-trust-m/optiga/cmd\optiga_cmd.c ****                 }
 659:C:/Workspace/DAVE-4.4.2-64Bit/optiga-trust-m/optiga/cmd\optiga_cmd.c ****                 else
 660:C:/Workspace/DAVE-4.4.2-64Bit/optiga-trust-m/optiga/cmd\optiga_cmd.c ****                 {
 661:C:/Workspace/DAVE-4.4.2-64Bit/optiga-trust-m/optiga/cmd\optiga_cmd.c ****                     // pick only requested queue slot and earliest arrival time
 662:C:/Workspace/DAVE-4.4.2-64Bit/optiga-trust-m/optiga/cmd\optiga_cmd.c ****                     if (p_queue_entry->state_of_entry == OPTIGA_CMD_QUEUE_REQUEST)
 663:C:/Workspace/DAVE-4.4.2-64Bit/optiga-trust-m/optiga/cmd\optiga_cmd.c ****                     {
 664:C:/Workspace/DAVE-4.4.2-64Bit/optiga-trust-m/optiga/cmd\optiga_cmd.c ****                         // remember that overflow has occurred in one of the entry
 665:C:/Workspace/DAVE-4.4.2-64Bit/optiga-trust-m/optiga/cmd\optiga_cmd.c ****                         if (p_queue_entry->arrival_time < p_optiga_ctx->last_time_stamp)
 666:C:/Workspace/DAVE-4.4.2-64Bit/optiga-trust-m/optiga/cmd\optiga_cmd.c ****                         {
 667:C:/Workspace/DAVE-4.4.2-64Bit/optiga-trust-m/optiga/cmd\optiga_cmd.c ****                             overflow_detected = TRUE;
 668:C:/Workspace/DAVE-4.4.2-64Bit/optiga-trust-m/optiga/cmd\optiga_cmd.c ****                         }
 669:C:/Workspace/DAVE-4.4.2-64Bit/optiga-trust-m/optiga/cmd\optiga_cmd.c **** 
 670:C:/Workspace/DAVE-4.4.2-64Bit/optiga-trust-m/optiga/cmd\optiga_cmd.c ****                         // if lock request or session request and session available(either already 
 671:C:/Workspace/DAVE-4.4.2-64Bit/optiga-trust-m/optiga/cmd\optiga_cmd.c ****                         if (((p_queue_entry->arrival_time <= reference_time_stamp) && (p_queue_entr
 672:C:/Workspace/DAVE-4.4.2-64Bit/optiga-trust-m/optiga/cmd\optiga_cmd.c ****                             (((OPTIGA_CMD_QUEUE_REQUEST_SESSION == p_queue_entry->request_type) && 
 673:C:/Workspace/DAVE-4.4.2-64Bit/optiga-trust-m/optiga/cmd\optiga_cmd.c ****                             ((OPTIGA_CMD_QUEUE_REQUEST_SESSION == p_queue_entry->request_type) && (
 674:C:/Workspace/DAVE-4.4.2-64Bit/optiga-trust-m/optiga/cmd\optiga_cmd.c ****                             (OPTIGA_CMD_QUEUE_REQUEST_LOCK == p_queue_entry->request_type) ||
 675:C:/Workspace/DAVE-4.4.2-64Bit/optiga-trust-m/optiga/cmd\optiga_cmd.c ****                             (OPTIGA_CMD_QUEUE_REQUEST_STRICT_LOCK == p_queue_entry->request_type)))
 676:C:/Workspace/DAVE-4.4.2-64Bit/optiga-trust-m/optiga/cmd\optiga_cmd.c ****                         {
 677:C:/Workspace/DAVE-4.4.2-64Bit/optiga-trust-m/optiga/cmd\optiga_cmd.c ****                             reference_time_stamp = p_queue_entry->arrival_time;
 678:C:/Workspace/DAVE-4.4.2-64Bit/optiga-trust-m/optiga/cmd\optiga_cmd.c ****                             prefered_index = index;
 679:C:/Workspace/DAVE-4.4.2-64Bit/optiga-trust-m/optiga/cmd\optiga_cmd.c ****                         }
 680:C:/Workspace/DAVE-4.4.2-64Bit/optiga-trust-m/optiga/cmd\optiga_cmd.c ****                     }
 681:C:/Workspace/DAVE-4.4.2-64Bit/optiga-trust-m/optiga/cmd\optiga_cmd.c **** 
 682:C:/Workspace/DAVE-4.4.2-64Bit/optiga-trust-m/optiga/cmd\optiga_cmd.c **** 
 683:C:/Workspace/DAVE-4.4.2-64Bit/optiga-trust-m/optiga/cmd\optiga_cmd.c ****                 }
 684:C:/Workspace/DAVE-4.4.2-64Bit/optiga-trust-m/optiga/cmd\optiga_cmd.c ****             }
 685:C:/Workspace/DAVE-4.4.2-64Bit/optiga-trust-m/optiga/cmd\optiga_cmd.c ****         } while((0xFF == prefered_index) && (TRUE == overflow_detected));
 686:C:/Workspace/DAVE-4.4.2-64Bit/optiga-trust-m/optiga/cmd\optiga_cmd.c **** 
 687:C:/Workspace/DAVE-4.4.2-64Bit/optiga-trust-m/optiga/cmd\optiga_cmd.c ****         // Improve : check the index and max queue size check
 688:C:/Workspace/DAVE-4.4.2-64Bit/optiga-trust-m/optiga/cmd\optiga_cmd.c ****         // If slot is identified then go further
 689:C:/Workspace/DAVE-4.4.2-64Bit/optiga-trust-m/optiga/cmd\optiga_cmd.c ****         if (0xFF != prefered_index)
 690:C:/Workspace/DAVE-4.4.2-64Bit/optiga-trust-m/optiga/cmd\optiga_cmd.c ****         {
 691:C:/Workspace/DAVE-4.4.2-64Bit/optiga-trust-m/optiga/cmd\optiga_cmd.c ****             p_queue_entry = &(p_optiga_ctx->optiga_cmd_execution_queue[prefered_index]);
 692:C:/Workspace/DAVE-4.4.2-64Bit/optiga-trust-m/optiga/cmd\optiga_cmd.c ****             // assign session
 693:C:/Workspace/DAVE-4.4.2-64Bit/optiga-trust-m/optiga/cmd\optiga_cmd.c ****             if ((OPTIGA_CMD_QUEUE_REQUEST_SESSION == p_optiga_ctx->optiga_cmd_execution_queue[prefe
 694:C:/Workspace/DAVE-4.4.2-64Bit/optiga-trust-m/optiga/cmd\optiga_cmd.c ****                 (OPTIGA_CMD_NO_SESSION_OID == ((optiga_cmd_t *)p_queue_entry->registered_ctx)->sess
 695:C:/Workspace/DAVE-4.4.2-64Bit/optiga-trust-m/optiga/cmd\optiga_cmd.c ****             {
 696:C:/Workspace/DAVE-4.4.2-64Bit/optiga-trust-m/optiga/cmd\optiga_cmd.c ****                 optiga_cmd_session_assign((optiga_cmd_t *)(p_optiga_ctx->optiga_cmd_execution_queue
 697:C:/Workspace/DAVE-4.4.2-64Bit/optiga-trust-m/optiga/cmd\optiga_cmd.c ****                 // Improve : Change the state of the type here. This will reduce 0x0000 check
 698:C:/Workspace/DAVE-4.4.2-64Bit/optiga-trust-m/optiga/cmd\optiga_cmd.c ****             }
 699:C:/Workspace/DAVE-4.4.2-64Bit/optiga-trust-m/optiga/cmd\optiga_cmd.c **** 
 700:C:/Workspace/DAVE-4.4.2-64Bit/optiga-trust-m/optiga/cmd\optiga_cmd.c ****             // schedule with selected context
 701:C:/Workspace/DAVE-4.4.2-64Bit/optiga-trust-m/optiga/cmd\optiga_cmd.c ****             my_os_event = ((optiga_cmd_t *)(p_optiga_ctx->optiga_cmd_execution_queue[prefered_index
 702:C:/Workspace/DAVE-4.4.2-64Bit/optiga-trust-m/optiga/cmd\optiga_cmd.c ****             pal_os_event_register_callback_oneshot(my_os_event,
 703:C:/Workspace/DAVE-4.4.2-64Bit/optiga-trust-m/optiga/cmd\optiga_cmd.c ****                                                    optiga_cmd_event_trigger_execute,
 704:C:/Workspace/DAVE-4.4.2-64Bit/optiga-trust-m/optiga/cmd\optiga_cmd.c ****                                                    ((optiga_cmd_t *)(p_optiga_ctx->optiga_cmd_execu
 705:C:/Workspace/DAVE-4.4.2-64Bit/optiga-trust-m/optiga/cmd\optiga_cmd.c ****                                                    OPTIGA_CMD_SCHEDULER_RUNNING_TIME_MS);
 706:C:/Workspace/DAVE-4.4.2-64Bit/optiga-trust-m/optiga/cmd\optiga_cmd.c ****             p_optiga_ctx->optiga_cmd_execution_queue[prefered_index].state_of_entry = OPTIGA_CMD_QU
 707:C:/Workspace/DAVE-4.4.2-64Bit/optiga-trust-m/optiga/cmd\optiga_cmd.c ****             p_optiga_ctx->last_time_stamp = reference_time_stamp;
 708:C:/Workspace/DAVE-4.4.2-64Bit/optiga-trust-m/optiga/cmd\optiga_cmd.c ****         }
 709:C:/Workspace/DAVE-4.4.2-64Bit/optiga-trust-m/optiga/cmd\optiga_cmd.c ****         else
 710:C:/Workspace/DAVE-4.4.2-64Bit/optiga-trust-m/optiga/cmd\optiga_cmd.c ****         {
 711:C:/Workspace/DAVE-4.4.2-64Bit/optiga-trust-m/optiga/cmd\optiga_cmd.c ****             pal_os_event_register_callback_oneshot( my_os_event, optiga_cmd_queue_scheduler,
 712:C:/Workspace/DAVE-4.4.2-64Bit/optiga-trust-m/optiga/cmd\optiga_cmd.c ****                                                     p_optiga_ctx,OPTIGA_CMD_SCHEDULER_IDLING_TIME_M
 713:C:/Workspace/DAVE-4.4.2-64Bit/optiga-trust-m/optiga/cmd\optiga_cmd.c ****         }
 714:C:/Workspace/DAVE-4.4.2-64Bit/optiga-trust-m/optiga/cmd\optiga_cmd.c ****     }
 715:C:/Workspace/DAVE-4.4.2-64Bit/optiga-trust-m/optiga/cmd\optiga_cmd.c **** }
 716:C:/Workspace/DAVE-4.4.2-64Bit/optiga-trust-m/optiga/cmd\optiga_cmd.c **** 
 717:C:/Workspace/DAVE-4.4.2-64Bit/optiga-trust-m/optiga/cmd\optiga_cmd.c **** /*
 718:C:/Workspace/DAVE-4.4.2-64Bit/optiga-trust-m/optiga/cmd\optiga_cmd.c **** * Updates a execution queue slot
 719:C:/Workspace/DAVE-4.4.2-64Bit/optiga-trust-m/optiga/cmd\optiga_cmd.c **** */
 720:C:/Workspace/DAVE-4.4.2-64Bit/optiga-trust-m/optiga/cmd\optiga_cmd.c **** _STATIC_H void optiga_cmd_queue_update_slot(optiga_cmd_t * me, uint8_t request_type)
 721:C:/Workspace/DAVE-4.4.2-64Bit/optiga-trust-m/optiga/cmd\optiga_cmd.c **** {
  71              	 .loc 1 721 0
  72              	 .cfi_startproc
  73              	.LVL7:
  74 0000 F7B5     	 push {r0,r1,r2,r4,r5,r6,r7,lr}
  75              	.LCFI1:
  76              	 .cfi_def_cfa_offset 32
  77              	 .cfi_offset 0,-32
  78              	 .cfi_offset 1,-28
  79              	 .cfi_offset 2,-24
  80              	 .cfi_offset 4,-20
  81              	 .cfi_offset 5,-16
  82              	 .cfi_offset 6,-12
  83              	 .cfi_offset 7,-8
  84              	 .cfi_offset 14,-4
 722:C:/Workspace/DAVE-4.4.2-64Bit/optiga-trust-m/optiga/cmd\optiga_cmd.c ****     if ((OPTIGA_CMD_QUEUE_REQUEST_STRICT_LOCK != me->p_optiga->optiga_cmd_execution_queue[me->queue
  85              	 .loc 1 722 0
  86 0002 0C22     	 mov r2,#12
  87 0004 131C     	 mov r3,r2
 721:C:/Workspace/DAVE-4.4.2-64Bit/optiga-trust-m/optiga/cmd\optiga_cmd.c ****     if ((OPTIGA_CMD_QUEUE_REQUEST_STRICT_LOCK != me->p_optiga->optiga_cmd_execution_queue[me->queue
  88              	 .loc 1 721 0
  89 0006 0D1C     	 mov r5,r1
  90              	 .loc 1 722 0
  91 0008 C721     	 mov r1,#199
  92              	.LVL8:
  93 000a 477F     	 ldrb r7,[r0,#29]
  94 000c 0668     	 ldr r6,[r0]
  95 000e 7B43     	 mul r3,r7
  96 0010 C900     	 lsl r1,r1,#3
  97 0012 F318     	 add r3,r6,r3
  98 0014 5B18     	 add r3,r3,r1
  99 0016 1B78     	 ldrb r3,[r3]
 721:C:/Workspace/DAVE-4.4.2-64Bit/optiga-trust-m/optiga/cmd\optiga_cmd.c ****     if ((OPTIGA_CMD_QUEUE_REQUEST_STRICT_LOCK != me->p_optiga->optiga_cmd_execution_queue[me->queue
 100              	 .loc 1 721 0
 101 0018 041C     	 mov r4,r0
 102 001a 0192     	 str r2,[sp,#4]
 103              	 .loc 1 722 0
 104 001c 232B     	 cmp r3,#35
 105 001e 01D1     	 bne .L3
 106              	 .loc 1 722 0 is_stmt 0 discriminator 1
 107 0020 232D     	 cmp r5,#35
 108 0022 08D0     	 beq .L4
 109              	.L3:
 723:C:/Workspace/DAVE-4.4.2-64Bit/optiga-trust-m/optiga/cmd\optiga_cmd.c ****        ((OPTIGA_CMD_QUEUE_REQUEST_STRICT_LOCK == me->p_optiga->optiga_cmd_execution_queue[me->queue
 724:C:/Workspace/DAVE-4.4.2-64Bit/optiga-trust-m/optiga/cmd\optiga_cmd.c ****        (OPTIGA_CMD_QUEUE_REQUEST_STRICT_LOCK != request_type)))
 725:C:/Workspace/DAVE-4.4.2-64Bit/optiga-trust-m/optiga/cmd\optiga_cmd.c ****     {
 726:C:/Workspace/DAVE-4.4.2-64Bit/optiga-trust-m/optiga/cmd\optiga_cmd.c ****         //add time stamp
 727:C:/Workspace/DAVE-4.4.2-64Bit/optiga-trust-m/optiga/cmd\optiga_cmd.c ****         me->p_optiga->optiga_cmd_execution_queue[me->queue_id].arrival_time = pal_os_timer_get_time
 110              	 .loc 1 727 0 is_stmt 1
 111 0024 FFF7FEFF 	 bl pal_os_timer_get_time_in_microseconds
 112              	.LVL9:
 113 0028 019B     	 ldr r3,[sp,#4]
 114 002a 7B43     	 mul r3,r7
 115 002c F618     	 add r6,r6,r3
 116 002e C623     	 mov r3,#198
 117 0030 DB00     	 lsl r3,r3,#3
 118 0032 F618     	 add r6,r6,r3
 119 0034 7060     	 str r0,[r6,#4]
 120              	.L4:
 728:C:/Workspace/DAVE-4.4.2-64Bit/optiga-trust-m/optiga/cmd\optiga_cmd.c ****     }
 729:C:/Workspace/DAVE-4.4.2-64Bit/optiga-trust-m/optiga/cmd\optiga_cmd.c ****     //add optiga_cmd ctx
 730:C:/Workspace/DAVE-4.4.2-64Bit/optiga-trust-m/optiga/cmd\optiga_cmd.c ****     me->p_optiga->optiga_cmd_execution_queue[me->queue_id].registered_ctx = (void * )me;
 121              	 .loc 1 730 0
 122 0036 0C23     	 mov r3,#12
 123 0038 C620     	 mov r0,#198
 124 003a 627F     	 ldrb r2,[r4,#29]
 125 003c 2168     	 ldr r1,[r4]
 126 003e 5A43     	 mul r2,r3
 127 0040 C000     	 lsl r0,r0,#3
 128 0042 8A18     	 add r2,r1,r2
 129 0044 1218     	 add r2,r2,r0
 130 0046 1460     	 str r4,[r2]
 731:C:/Workspace/DAVE-4.4.2-64Bit/optiga-trust-m/optiga/cmd\optiga_cmd.c ****     // set the state of slot to Requested state
 732:C:/Workspace/DAVE-4.4.2-64Bit/optiga-trust-m/optiga/cmd\optiga_cmd.c ****     if ((OPTIGA_CMD_QUEUE_REQUEST_STRICT_LOCK == me->p_optiga->optiga_cmd_execution_queue[me->queue
 131              	 .loc 1 732 0
 132 0048 1A1C     	 mov r2,r3
 133 004a C726     	 mov r6,#199
 134 004c 607F     	 ldrb r0,[r4,#29]
 135 004e F600     	 lsl r6,r6,#3
 136 0050 4243     	 mul r2,r0
 137 0052 8A18     	 add r2,r1,r2
 138 0054 9219     	 add r2,r2,r6
 139 0056 1678     	 ldrb r6,[r2]
 140 0058 232E     	 cmp r6,#35
 141 005a 04D1     	 bne .L5
 142              	 .loc 1 732 0 is_stmt 0 discriminator 1
 143 005c 232D     	 cmp r5,#35
 144 005e 02D1     	 bne .L5
 733:C:/Workspace/DAVE-4.4.2-64Bit/optiga-trust-m/optiga/cmd\optiga_cmd.c ****         (OPTIGA_CMD_QUEUE_REQUEST_STRICT_LOCK == request_type))
 734:C:/Workspace/DAVE-4.4.2-64Bit/optiga-trust-m/optiga/cmd\optiga_cmd.c ****     {
 735:C:/Workspace/DAVE-4.4.2-64Bit/optiga-trust-m/optiga/cmd\optiga_cmd.c ****         me->p_optiga->optiga_cmd_execution_queue[me->queue_id].state_of_entry = OPTIGA_CMD_QUEUE_RE
 145              	 .loc 1 735 0 is_stmt 1
 146 0060 043B     	 sub r3,r3,#4
 147 0062 5370     	 strb r3,[r2,#1]
 148 0064 06E0     	 b .L6
 149              	.L5:
 736:C:/Workspace/DAVE-4.4.2-64Bit/optiga-trust-m/optiga/cmd\optiga_cmd.c ****     }
 737:C:/Workspace/DAVE-4.4.2-64Bit/optiga-trust-m/optiga/cmd\optiga_cmd.c ****     else
 738:C:/Workspace/DAVE-4.4.2-64Bit/optiga-trust-m/optiga/cmd\optiga_cmd.c ****     {
 739:C:/Workspace/DAVE-4.4.2-64Bit/optiga-trust-m/optiga/cmd\optiga_cmd.c ****         me->p_optiga->optiga_cmd_execution_queue[me->queue_id].state_of_entry = OPTIGA_CMD_QUEUE_RE
 150              	 .loc 1 739 0
 151 0066 C722     	 mov r2,#199
 152 0068 4343     	 mul r3,r0
 153 006a D200     	 lsl r2,r2,#3
 154 006c CB18     	 add r3,r1,r3
 155 006e 9B18     	 add r3,r3,r2
 156 0070 0222     	 mov r2,#2
 157 0072 5A70     	 strb r2,[r3,#1]
 158              	.L6:
 740:C:/Workspace/DAVE-4.4.2-64Bit/optiga-trust-m/optiga/cmd\optiga_cmd.c ****     }
 741:C:/Workspace/DAVE-4.4.2-64Bit/optiga-trust-m/optiga/cmd\optiga_cmd.c ****     //add request type
 742:C:/Workspace/DAVE-4.4.2-64Bit/optiga-trust-m/optiga/cmd\optiga_cmd.c ****     me->p_optiga->optiga_cmd_execution_queue[me->queue_id].request_type = request_type;
 159              	 .loc 1 742 0
 160 0074 0C22     	 mov r2,#12
 161 0076 637F     	 ldrb r3,[r4,#29]
 162 0078 2168     	 ldr r1,[r4]
 163 007a 5343     	 mul r3,r2
 164 007c C722     	 mov r2,#199
 165 007e CB18     	 add r3,r1,r3
 166 0080 D200     	 lsl r2,r2,#3
 167 0082 9B18     	 add r3,r3,r2
 168 0084 1D70     	 strb r5,[r3]
 743:C:/Workspace/DAVE-4.4.2-64Bit/optiga-trust-m/optiga/cmd\optiga_cmd.c **** }
 169              	 .loc 1 743 0
 170              	 
 171              	.LVL10:
 172 0086 F7BD     	 pop {r0,r1,r2,r4,r5,r6,r7,pc}
 173              	 .cfi_endproc
 174              	.LFE13:
 176              	 .section .text.optiga_cmd_queue_reset_slot,"ax",%progbits
 177              	 .align 1
 178              	 .code 16
 179              	 .thumb_func
 181              	optiga_cmd_queue_reset_slot:
 182              	.LFB14:
 744:C:/Workspace/DAVE-4.4.2-64Bit/optiga-trust-m/optiga/cmd\optiga_cmd.c **** 
 745:C:/Workspace/DAVE-4.4.2-64Bit/optiga-trust-m/optiga/cmd\optiga_cmd.c **** /*
 746:C:/Workspace/DAVE-4.4.2-64Bit/optiga-trust-m/optiga/cmd\optiga_cmd.c **** * Resets a execution slot
 747:C:/Workspace/DAVE-4.4.2-64Bit/optiga-trust-m/optiga/cmd\optiga_cmd.c **** */
 748:C:/Workspace/DAVE-4.4.2-64Bit/optiga-trust-m/optiga/cmd\optiga_cmd.c **** _STATIC_H void optiga_cmd_queue_reset_slot(const optiga_cmd_t * me)
 749:C:/Workspace/DAVE-4.4.2-64Bit/optiga-trust-m/optiga/cmd\optiga_cmd.c **** {
 183              	 .loc 1 749 0
 184              	 .cfi_startproc
 185              	.LVL11:
 186 0000 38B5     	 push {r3,r4,r5,lr}
 187              	.LCFI2:
 188              	 .cfi_def_cfa_offset 16
 189              	 .cfi_offset 3,-16
 190              	 .cfi_offset 4,-12
 191              	 .cfi_offset 5,-8
 192              	 .cfi_offset 14,-4
 750:C:/Workspace/DAVE-4.4.2-64Bit/optiga-trust-m/optiga/cmd\optiga_cmd.c ****     // Reset the arrival time
 751:C:/Workspace/DAVE-4.4.2-64Bit/optiga-trust-m/optiga/cmd\optiga_cmd.c ****     me->p_optiga->optiga_cmd_execution_queue[me->queue_id].arrival_time = 0xFFFFFFFF;
 193              	 .loc 1 751 0
 194 0002 0C23     	 mov r3,#12
 195 0004 C621     	 mov r1,#198
 196 0006 427F     	 ldrb r2,[r0,#29]
 197 0008 0468     	 ldr r4,[r0]
 198 000a 5A43     	 mul r2,r3
 199 000c C900     	 lsl r1,r1,#3
 200 000e A218     	 add r2,r4,r2
 201 0010 5218     	 add r2,r2,r1
 202 0012 0121     	 mov r1,#1
 203 0014 4942     	 neg r1,r1
 204 0016 5160     	 str r1,[r2,#4]
 752:C:/Workspace/DAVE-4.4.2-64Bit/optiga-trust-m/optiga/cmd\optiga_cmd.c ****     //add optiga_cmd ctx
 753:C:/Workspace/DAVE-4.4.2-64Bit/optiga-trust-m/optiga/cmd\optiga_cmd.c ****     me->p_optiga->optiga_cmd_execution_queue[me->queue_id].registered_ctx = NULL;
 205              	 .loc 1 753 0
 206 0018 C622     	 mov r2,#198
 207 001a 0025     	 mov r5,#0
 208 001c 417F     	 ldrb r1,[r0,#29]
 209 001e D200     	 lsl r2,r2,#3
 210 0020 5943     	 mul r1,r3
 211 0022 6118     	 add r1,r4,r1
 212 0024 8918     	 add r1,r1,r2
 213 0026 0D60     	 str r5,[r1]
 754:C:/Workspace/DAVE-4.4.2-64Bit/optiga-trust-m/optiga/cmd\optiga_cmd.c ****     //add request type
 755:C:/Workspace/DAVE-4.4.2-64Bit/optiga-trust-m/optiga/cmd\optiga_cmd.c ****     me->p_optiga->optiga_cmd_execution_queue[me->queue_id].request_type = 0;
 214              	 .loc 1 755 0
 215 0028 C721     	 mov r1,#199
 216 002a 427F     	 ldrb r2,[r0,#29]
 217 002c C900     	 lsl r1,r1,#3
 218 002e 5A43     	 mul r2,r3
 219 0030 A218     	 add r2,r4,r2
 220 0032 5218     	 add r2,r2,r1
 221 0034 1570     	 strb r5,[r2]
 756:C:/Workspace/DAVE-4.4.2-64Bit/optiga-trust-m/optiga/cmd\optiga_cmd.c ****     // set the slot state to assigned
 757:C:/Workspace/DAVE-4.4.2-64Bit/optiga-trust-m/optiga/cmd\optiga_cmd.c ****     me->p_optiga->optiga_cmd_execution_queue[me->queue_id].state_of_entry = OPTIGA_CMD_QUEUE_ASSIGN
 222              	 .loc 1 757 0
 223 0036 427F     	 ldrb r2,[r0,#29]
 758:C:/Workspace/DAVE-4.4.2-64Bit/optiga-trust-m/optiga/cmd\optiga_cmd.c ****     // start the event scheduler
 759:C:/Workspace/DAVE-4.4.2-64Bit/optiga-trust-m/optiga/cmd\optiga_cmd.c ****     pal_os_event_start(me->p_optiga->p_pal_os_event_ctx, optiga_cmd_queue_scheduler, me->p_optiga);
 760:C:/Workspace/DAVE-4.4.2-64Bit/optiga-trust-m/optiga/cmd\optiga_cmd.c **** }
 224              	 .loc 1 760 0
 225              	 
 757:C:/Workspace/DAVE-4.4.2-64Bit/optiga-trust-m/optiga/cmd\optiga_cmd.c ****     // start the event scheduler
 226              	 .loc 1 757 0
 227 0038 5343     	 mul r3,r2
 228 003a 0268     	 ldr r2,[r0]
 229 003c D318     	 add r3,r2,r3
 230 003e 0122     	 mov r2,#1
 231 0040 5B18     	 add r3,r3,r1
 232 0042 5A70     	 strb r2,[r3,#1]
 759:C:/Workspace/DAVE-4.4.2-64Bit/optiga-trust-m/optiga/cmd\optiga_cmd.c **** }
 233              	 .loc 1 759 0
 234 0044 CF23     	 mov r3,#207
 235 0046 0268     	 ldr r2,[r0]
 236 0048 DB00     	 lsl r3,r3,#3
 237 004a D058     	 ldr r0,[r2,r3]
 238              	.LVL12:
 239 004c 0149     	 ldr r1,.L12
 240 004e FFF7FEFF 	 bl pal_os_event_start
 241              	.LVL13:
 242              	 .loc 1 760 0
 243 0052 38BD     	 pop {r3,r4,r5,pc}
 244              	.L13:
 245              	 .align 2
 246              	.L12:
 247 0054 00000000 	 .word optiga_cmd_queue_scheduler
 248              	 .cfi_endproc
 249              	.LFE14:
 251              	 .section .text.optiga_cmd_execute_handler,"ax",%progbits
 252              	 .align 1
 253              	 .code 16
 254              	 .thumb_func
 256              	optiga_cmd_execute_handler:
 257              	.LFB21:
 761:C:/Workspace/DAVE-4.4.2-64Bit/optiga-trust-m/optiga/cmd\optiga_cmd.c **** 
 762:C:/Workspace/DAVE-4.4.2-64Bit/optiga-trust-m/optiga/cmd\optiga_cmd.c **** optiga_lib_status_t optiga_cmd_request_session(optiga_cmd_t * me)
 763:C:/Workspace/DAVE-4.4.2-64Bit/optiga-trust-m/optiga/cmd\optiga_cmd.c **** {
 764:C:/Workspace/DAVE-4.4.2-64Bit/optiga-trust-m/optiga/cmd\optiga_cmd.c ****     optiga_cmd_queue_update_slot(me , OPTIGA_CMD_QUEUE_REQUEST_SESSION);
 765:C:/Workspace/DAVE-4.4.2-64Bit/optiga-trust-m/optiga/cmd\optiga_cmd.c ****     return (OPTIGA_CMD_SUCCESS);
 766:C:/Workspace/DAVE-4.4.2-64Bit/optiga-trust-m/optiga/cmd\optiga_cmd.c **** }
 767:C:/Workspace/DAVE-4.4.2-64Bit/optiga-trust-m/optiga/cmd\optiga_cmd.c **** 
 768:C:/Workspace/DAVE-4.4.2-64Bit/optiga-trust-m/optiga/cmd\optiga_cmd.c **** optiga_lib_status_t optiga_cmd_release_session(optiga_cmd_t * me)
 769:C:/Workspace/DAVE-4.4.2-64Bit/optiga-trust-m/optiga/cmd\optiga_cmd.c **** {
 770:C:/Workspace/DAVE-4.4.2-64Bit/optiga-trust-m/optiga/cmd\optiga_cmd.c ****     optiga_cmd_session_free(me);
 771:C:/Workspace/DAVE-4.4.2-64Bit/optiga-trust-m/optiga/cmd\optiga_cmd.c ****     return (OPTIGA_CMD_SUCCESS);
 772:C:/Workspace/DAVE-4.4.2-64Bit/optiga-trust-m/optiga/cmd\optiga_cmd.c **** }
 773:C:/Workspace/DAVE-4.4.2-64Bit/optiga-trust-m/optiga/cmd\optiga_cmd.c **** 
 774:C:/Workspace/DAVE-4.4.2-64Bit/optiga-trust-m/optiga/cmd\optiga_cmd.c **** optiga_lib_status_t optiga_cmd_request_lock(optiga_cmd_t * me, uint8_t lock_type)
 775:C:/Workspace/DAVE-4.4.2-64Bit/optiga-trust-m/optiga/cmd\optiga_cmd.c **** {
 776:C:/Workspace/DAVE-4.4.2-64Bit/optiga-trust-m/optiga/cmd\optiga_cmd.c ****     optiga_cmd_queue_update_slot(me , lock_type);
 777:C:/Workspace/DAVE-4.4.2-64Bit/optiga-trust-m/optiga/cmd\optiga_cmd.c ****     return (OPTIGA_CMD_SUCCESS);
 778:C:/Workspace/DAVE-4.4.2-64Bit/optiga-trust-m/optiga/cmd\optiga_cmd.c **** }
 779:C:/Workspace/DAVE-4.4.2-64Bit/optiga-trust-m/optiga/cmd\optiga_cmd.c **** 
 780:C:/Workspace/DAVE-4.4.2-64Bit/optiga-trust-m/optiga/cmd\optiga_cmd.c **** optiga_lib_status_t optiga_cmd_release_lock(const optiga_cmd_t * me)
 781:C:/Workspace/DAVE-4.4.2-64Bit/optiga-trust-m/optiga/cmd\optiga_cmd.c **** {
 782:C:/Workspace/DAVE-4.4.2-64Bit/optiga-trust-m/optiga/cmd\optiga_cmd.c ****     optiga_cmd_queue_reset_slot(me);
 783:C:/Workspace/DAVE-4.4.2-64Bit/optiga-trust-m/optiga/cmd\optiga_cmd.c ****     return (OPTIGA_CMD_SUCCESS);
 784:C:/Workspace/DAVE-4.4.2-64Bit/optiga-trust-m/optiga/cmd\optiga_cmd.c **** }
 785:C:/Workspace/DAVE-4.4.2-64Bit/optiga-trust-m/optiga/cmd\optiga_cmd.c **** 
 786:C:/Workspace/DAVE-4.4.2-64Bit/optiga-trust-m/optiga/cmd\optiga_cmd.c **** _STATIC_H optiga_lib_status_t optiga_cmd_restore_context(const optiga_cmd_t * me)
 787:C:/Workspace/DAVE-4.4.2-64Bit/optiga-trust-m/optiga/cmd\optiga_cmd.c **** {
 788:C:/Workspace/DAVE-4.4.2-64Bit/optiga-trust-m/optiga/cmd\optiga_cmd.c ****     uint16_t context_handle_length;
 789:C:/Workspace/DAVE-4.4.2-64Bit/optiga-trust-m/optiga/cmd\optiga_cmd.c ****     optiga_lib_status_t return_status = OPTIGA_CMD_ERROR;
 790:C:/Workspace/DAVE-4.4.2-64Bit/optiga-trust-m/optiga/cmd\optiga_cmd.c ****     do
 791:C:/Workspace/DAVE-4.4.2-64Bit/optiga-trust-m/optiga/cmd\optiga_cmd.c ****     {
 792:C:/Workspace/DAVE-4.4.2-64Bit/optiga-trust-m/optiga/cmd\optiga_cmd.c ****         if (OPTIGA_LIB_PAL_DATA_STORE_NOT_CONFIGURED != me->optiga_context_datastore_id)
 793:C:/Workspace/DAVE-4.4.2-64Bit/optiga-trust-m/optiga/cmd\optiga_cmd.c ****         {
 794:C:/Workspace/DAVE-4.4.2-64Bit/optiga-trust-m/optiga/cmd\optiga_cmd.c ****             context_handle_length = sizeof(me->p_optiga->optiga_context_handle_buffer);
 795:C:/Workspace/DAVE-4.4.2-64Bit/optiga-trust-m/optiga/cmd\optiga_cmd.c ****             //Reading context handle secret from datastore
 796:C:/Workspace/DAVE-4.4.2-64Bit/optiga-trust-m/optiga/cmd\optiga_cmd.c ****             return_status = pal_os_datastore_read(me->optiga_context_datastore_id,
 797:C:/Workspace/DAVE-4.4.2-64Bit/optiga-trust-m/optiga/cmd\optiga_cmd.c ****                                                   me->p_optiga->optiga_context_handle_buffer,
 798:C:/Workspace/DAVE-4.4.2-64Bit/optiga-trust-m/optiga/cmd\optiga_cmd.c ****                                                   &context_handle_length);
 799:C:/Workspace/DAVE-4.4.2-64Bit/optiga-trust-m/optiga/cmd\optiga_cmd.c ****             if (PAL_STATUS_SUCCESS != return_status)
 800:C:/Workspace/DAVE-4.4.2-64Bit/optiga-trust-m/optiga/cmd\optiga_cmd.c ****             {
 801:C:/Workspace/DAVE-4.4.2-64Bit/optiga-trust-m/optiga/cmd\optiga_cmd.c ****                 break;
 802:C:/Workspace/DAVE-4.4.2-64Bit/optiga-trust-m/optiga/cmd\optiga_cmd.c ****             }
 803:C:/Workspace/DAVE-4.4.2-64Bit/optiga-trust-m/optiga/cmd\optiga_cmd.c ****         }
 804:C:/Workspace/DAVE-4.4.2-64Bit/optiga-trust-m/optiga/cmd\optiga_cmd.c ****         if (0 == optiga_common_get_uint32(me->p_optiga->optiga_context_handle_buffer) &&
 805:C:/Workspace/DAVE-4.4.2-64Bit/optiga-trust-m/optiga/cmd\optiga_cmd.c ****             0 == optiga_common_get_uint32(&me->p_optiga->optiga_context_handle_buffer[4]))
 806:C:/Workspace/DAVE-4.4.2-64Bit/optiga-trust-m/optiga/cmd\optiga_cmd.c ****         {
 807:C:/Workspace/DAVE-4.4.2-64Bit/optiga-trust-m/optiga/cmd\optiga_cmd.c ****             return_status = OPTIGA_CMD_ERROR;
 808:C:/Workspace/DAVE-4.4.2-64Bit/optiga-trust-m/optiga/cmd\optiga_cmd.c ****             break;
 809:C:/Workspace/DAVE-4.4.2-64Bit/optiga-trust-m/optiga/cmd\optiga_cmd.c ****         }
 810:C:/Workspace/DAVE-4.4.2-64Bit/optiga-trust-m/optiga/cmd\optiga_cmd.c **** 
 811:C:/Workspace/DAVE-4.4.2-64Bit/optiga-trust-m/optiga/cmd\optiga_cmd.c ****         return_status = OPTIGA_LIB_SUCCESS;
 812:C:/Workspace/DAVE-4.4.2-64Bit/optiga-trust-m/optiga/cmd\optiga_cmd.c ****     } while (FALSE);
 813:C:/Workspace/DAVE-4.4.2-64Bit/optiga-trust-m/optiga/cmd\optiga_cmd.c ****     return (return_status);
 814:C:/Workspace/DAVE-4.4.2-64Bit/optiga-trust-m/optiga/cmd\optiga_cmd.c **** }
 815:C:/Workspace/DAVE-4.4.2-64Bit/optiga-trust-m/optiga/cmd\optiga_cmd.c **** _STATIC_H optiga_lib_status_t optiga_cmd_store_context(const optiga_cmd_t * me)
 816:C:/Workspace/DAVE-4.4.2-64Bit/optiga-trust-m/optiga/cmd\optiga_cmd.c **** {
 817:C:/Workspace/DAVE-4.4.2-64Bit/optiga-trust-m/optiga/cmd\optiga_cmd.c ****     optiga_lib_status_t return_status = OPTIGA_CMD_ERROR;
 818:C:/Workspace/DAVE-4.4.2-64Bit/optiga-trust-m/optiga/cmd\optiga_cmd.c ****     do
 819:C:/Workspace/DAVE-4.4.2-64Bit/optiga-trust-m/optiga/cmd\optiga_cmd.c ****     {
 820:C:/Workspace/DAVE-4.4.2-64Bit/optiga-trust-m/optiga/cmd\optiga_cmd.c ****         if (OPTIGA_LIB_PAL_DATA_STORE_NOT_CONFIGURED != me->optiga_context_datastore_id)
 821:C:/Workspace/DAVE-4.4.2-64Bit/optiga-trust-m/optiga/cmd\optiga_cmd.c ****         {
 822:C:/Workspace/DAVE-4.4.2-64Bit/optiga-trust-m/optiga/cmd\optiga_cmd.c ****             //Reading context handle secret from datastore
 823:C:/Workspace/DAVE-4.4.2-64Bit/optiga-trust-m/optiga/cmd\optiga_cmd.c ****             return_status = pal_os_datastore_write(me->optiga_context_datastore_id,
 824:C:/Workspace/DAVE-4.4.2-64Bit/optiga-trust-m/optiga/cmd\optiga_cmd.c ****                                                    me->p_optiga->optiga_context_handle_buffer,
 825:C:/Workspace/DAVE-4.4.2-64Bit/optiga-trust-m/optiga/cmd\optiga_cmd.c ****                                                    sizeof(me->p_optiga->optiga_context_handle_buffe
 826:C:/Workspace/DAVE-4.4.2-64Bit/optiga-trust-m/optiga/cmd\optiga_cmd.c ****             if (PAL_STATUS_SUCCESS != return_status)
 827:C:/Workspace/DAVE-4.4.2-64Bit/optiga-trust-m/optiga/cmd\optiga_cmd.c ****             {
 828:C:/Workspace/DAVE-4.4.2-64Bit/optiga-trust-m/optiga/cmd\optiga_cmd.c ****                 break;
 829:C:/Workspace/DAVE-4.4.2-64Bit/optiga-trust-m/optiga/cmd\optiga_cmd.c ****             }
 830:C:/Workspace/DAVE-4.4.2-64Bit/optiga-trust-m/optiga/cmd\optiga_cmd.c ****         }
 831:C:/Workspace/DAVE-4.4.2-64Bit/optiga-trust-m/optiga/cmd\optiga_cmd.c **** 
 832:C:/Workspace/DAVE-4.4.2-64Bit/optiga-trust-m/optiga/cmd\optiga_cmd.c ****         return_status = OPTIGA_LIB_SUCCESS;
 833:C:/Workspace/DAVE-4.4.2-64Bit/optiga-trust-m/optiga/cmd\optiga_cmd.c ****     } while (FALSE);
 834:C:/Workspace/DAVE-4.4.2-64Bit/optiga-trust-m/optiga/cmd\optiga_cmd.c ****     return (return_status);
 835:C:/Workspace/DAVE-4.4.2-64Bit/optiga-trust-m/optiga/cmd\optiga_cmd.c **** }
 836:C:/Workspace/DAVE-4.4.2-64Bit/optiga-trust-m/optiga/cmd\optiga_cmd.c **** 
 837:C:/Workspace/DAVE-4.4.2-64Bit/optiga-trust-m/optiga/cmd\optiga_cmd.c **** _STATIC_H void optiga_cmd_execute_handler(void * p_ctx, optiga_lib_status_t event)
 838:C:/Workspace/DAVE-4.4.2-64Bit/optiga-trust-m/optiga/cmd\optiga_cmd.c **** {
 258              	 .loc 1 838 0
 259              	 .cfi_startproc
 260              	.LVL14:
 261 0000 F0B5     	 push {r4,r5,r6,r7,lr}
 262              	.LCFI3:
 263              	 .cfi_def_cfa_offset 20
 264              	 .cfi_offset 4,-20
 265              	 .cfi_offset 5,-16
 266              	 .cfi_offset 6,-12
 267              	 .cfi_offset 7,-8
 268              	 .cfi_offset 14,-4
 839:C:/Workspace/DAVE-4.4.2-64Bit/optiga-trust-m/optiga/cmd\optiga_cmd.c ****     optiga_context_t * p_optiga;
 840:C:/Workspace/DAVE-4.4.2-64Bit/optiga-trust-m/optiga/cmd\optiga_cmd.c ****     uint8_t exit_loop = TRUE;
 841:C:/Workspace/DAVE-4.4.2-64Bit/optiga-trust-m/optiga/cmd\optiga_cmd.c ****     optiga_cmd_t * me = (optiga_cmd_t *)p_ctx;
 842:C:/Workspace/DAVE-4.4.2-64Bit/optiga-trust-m/optiga/cmd\optiga_cmd.c ****     optiga_cmd_handler_t optiga_cmd_handler = me->cmd_hdlrs;
 269              	 .loc 1 842 0
 270 0002 4368     	 ldr r3,[r0,#4]
 838:C:/Workspace/DAVE-4.4.2-64Bit/optiga-trust-m/optiga/cmd\optiga_cmd.c ****     optiga_context_t * p_optiga;
 271              	 .loc 1 838 0
 272 0004 85B0     	 sub sp,sp,#20
 273              	.LCFI4:
 274              	 .cfi_def_cfa_offset 40
 838:C:/Workspace/DAVE-4.4.2-64Bit/optiga-trust-m/optiga/cmd\optiga_cmd.c ****     optiga_context_t * p_optiga;
 275              	 .loc 1 838 0
 276 0006 041C     	 mov r4,r0
 277 0008 0291     	 str r1,[sp,#8]
 278              	 .loc 1 842 0
 279 000a 0393     	 str r3,[sp,#12]
 280              	.LVL15:
 843:C:/Workspace/DAVE-4.4.2-64Bit/optiga-trust-m/optiga/cmd\optiga_cmd.c ****     p_optiga = me->p_optiga;
 281              	 .loc 1 843 0
 282 000c 0768     	 ldr r7,[r0]
 283              	.LVL16:
 844:C:/Workspace/DAVE-4.4.2-64Bit/optiga-trust-m/optiga/cmd\optiga_cmd.c **** 
 845:C:/Workspace/DAVE-4.4.2-64Bit/optiga-trust-m/optiga/cmd\optiga_cmd.c ****     // in event of no success, release lock and exit
 846:C:/Workspace/DAVE-4.4.2-64Bit/optiga-trust-m/optiga/cmd\optiga_cmd.c ****     if (OPTIGA_LIB_SUCCESS != event)
 284              	 .loc 1 846 0
 285 000e 0029     	 cmp r1,#0
 286 0010 1BD0     	 beq .L15
 847:C:/Workspace/DAVE-4.4.2-64Bit/optiga-trust-m/optiga/cmd\optiga_cmd.c ****     {
 848:C:/Workspace/DAVE-4.4.2-64Bit/optiga-trust-m/optiga/cmd\optiga_cmd.c **** #ifdef OPTIGA_COMMS_SHIELDED_CONNECTION
 849:C:/Workspace/DAVE-4.4.2-64Bit/optiga-trust-m/optiga/cmd\optiga_cmd.c ****         /*In the case of hibernate if any low level error occurs while performing
 850:C:/Workspace/DAVE-4.4.2-64Bit/optiga-trust-m/optiga/cmd\optiga_cmd.c ****           close application this section clears the saved application context.*/
 851:C:/Workspace/DAVE-4.4.2-64Bit/optiga-trust-m/optiga/cmd\optiga_cmd.c ****         if ((OPTIGA_CMD_PARAM_INITIALIZE_APP_CONTEXT != me->cmd_param) &&
 287              	 .loc 1 851 0
 288 0012 037E     	 ldrb r3,[r0,#24]
 289              	.LVL17:
 290 0014 002B     	 cmp r3,#0
 291 0016 13D0     	 beq .L17
 292              	 .loc 1 851 0 is_stmt 0 discriminator 1
 293 0018 C37E     	 ldrb r3,[r0,#27]
 294 001a 222B     	 cmp r3,#34
 295 001c 10D1     	 bne .L17
 852:C:/Workspace/DAVE-4.4.2-64Bit/optiga-trust-m/optiga/cmd\optiga_cmd.c ****             (OPTIGA_COMMS_SESSION_CONTEXT_SAVE == me->manage_context_operation))
 853:C:/Workspace/DAVE-4.4.2-64Bit/optiga-trust-m/optiga/cmd\optiga_cmd.c ****         {
 854:C:/Workspace/DAVE-4.4.2-64Bit/optiga-trust-m/optiga/cmd\optiga_cmd.c ****             pal_os_memset(me->p_optiga->optiga_context_handle_buffer,0,
 296              	 .loc 1 854 0 is_stmt 1
 297 001e D023     	 mov r3,#208
 298 0020 DB00     	 lsl r3,r3,#3
 299 0022 F818     	 add r0,r7,r3
 300              	.LVL18:
 301 0024 0021     	 mov r1,#0
 302              	.LVL19:
 303 0026 0822     	 mov r2,#8
 304 0028 FFF7FEFF 	 bl memset
 305              	.LVL20:
 855:C:/Workspace/DAVE-4.4.2-64Bit/optiga-trust-m/optiga/cmd\optiga_cmd.c ****                             sizeof(me->p_optiga->optiga_context_handle_buffer));
 856:C:/Workspace/DAVE-4.4.2-64Bit/optiga-trust-m/optiga/cmd\optiga_cmd.c ****             if ((OPTIGA_HIBERNATE_CONTEXT_ID == me->optiga_context_datastore_id) &&
 306              	 .loc 1 856 0
 307 002c 208C     	 ldrh r0,[r4,#32]
 308 002e 3328     	 cmp r0,#51
 309 0030 06D1     	 bne .L17
 857:C:/Workspace/DAVE-4.4.2-64Bit/optiga-trust-m/optiga/cmd\optiga_cmd.c ****                 (OPTIGA_LIB_PAL_DATA_STORE_NOT_CONFIGURED != me->optiga_context_datastore_id))
 858:C:/Workspace/DAVE-4.4.2-64Bit/optiga-trust-m/optiga/cmd\optiga_cmd.c ****             {
 859:C:/Workspace/DAVE-4.4.2-64Bit/optiga-trust-m/optiga/cmd\optiga_cmd.c ****                 //Clearing context handle secret from datastore
 860:C:/Workspace/DAVE-4.4.2-64Bit/optiga-trust-m/optiga/cmd\optiga_cmd.c ****                 me->exit_status = pal_os_datastore_write(me->optiga_context_datastore_id,
 861:C:/Workspace/DAVE-4.4.2-64Bit/optiga-trust-m/optiga/cmd\optiga_cmd.c ****                                                          me->p_optiga->optiga_context_handle_buffer
 310              	 .loc 1 861 0
 311 0032 D022     	 mov r2,#208
 312 0034 2368     	 ldr r3,[r4]
 313 0036 D200     	 lsl r2,r2,#3
 314 0038 9918     	 add r1,r3,r2
 860:C:/Workspace/DAVE-4.4.2-64Bit/optiga-trust-m/optiga/cmd\optiga_cmd.c ****                                                          me->p_optiga->optiga_context_handle_buffer
 315              	 .loc 1 860 0
 316 003a 0822     	 mov r2,#8
 317 003c FFF7FEFF 	 bl pal_os_datastore_write
 318              	.LVL21:
 319              	.L17:
 862:C:/Workspace/DAVE-4.4.2-64Bit/optiga-trust-m/optiga/cmd\optiga_cmd.c ****                                                          sizeof(me->p_optiga->optiga_context_handle
 863:C:/Workspace/DAVE-4.4.2-64Bit/optiga-trust-m/optiga/cmd\optiga_cmd.c ****                 if (PAL_STATUS_SUCCESS != me->exit_status)
 864:C:/Workspace/DAVE-4.4.2-64Bit/optiga-trust-m/optiga/cmd\optiga_cmd.c ****                 {
 865:C:/Workspace/DAVE-4.4.2-64Bit/optiga-trust-m/optiga/cmd\optiga_cmd.c ****                     me->cmd_next_execution_state = OPTIGA_CMD_EXEC_RELEASE_LOCK;
 866:C:/Workspace/DAVE-4.4.2-64Bit/optiga-trust-m/optiga/cmd\optiga_cmd.c ****                 }
 867:C:/Workspace/DAVE-4.4.2-64Bit/optiga-trust-m/optiga/cmd\optiga_cmd.c ****             }
 868:C:/Workspace/DAVE-4.4.2-64Bit/optiga-trust-m/optiga/cmd\optiga_cmd.c ****         }
 869:C:/Workspace/DAVE-4.4.2-64Bit/optiga-trust-m/optiga/cmd\optiga_cmd.c **** #endif //OPTIGA_COMMS_SHIELDED_CONNECTION
 870:C:/Workspace/DAVE-4.4.2-64Bit/optiga-trust-m/optiga/cmd\optiga_cmd.c ****         me->cmd_next_execution_state = OPTIGA_CMD_EXEC_RELEASE_LOCK;
 320              	 .loc 1 870 0
 321 0040 0B23     	 mov r3,#11
 322 0042 A375     	 strb r3,[r4,#22]
 871:C:/Workspace/DAVE-4.4.2-64Bit/optiga-trust-m/optiga/cmd\optiga_cmd.c ****         me->exit_status = event;
 323              	 .loc 1 871 0
 324 0044 6B46     	 mov r3,sp
 325 0046 1B89     	 ldrh r3,[r3,#8]
 326 0048 E383     	 strh r3,[r4,#30]
 327              	.L15:
 838:C:/Workspace/DAVE-4.4.2-64Bit/optiga-trust-m/optiga/cmd\optiga_cmd.c ****     optiga_context_t * p_optiga;
 328              	 .loc 1 838 0
 329 004a 0126     	 mov r6,#1
 330              	.LVL22:
 331              	.L19:
 872:C:/Workspace/DAVE-4.4.2-64Bit/optiga-trust-m/optiga/cmd\optiga_cmd.c ****     }
 873:C:/Workspace/DAVE-4.4.2-64Bit/optiga-trust-m/optiga/cmd\optiga_cmd.c **** 
 874:C:/Workspace/DAVE-4.4.2-64Bit/optiga-trust-m/optiga/cmd\optiga_cmd.c ****     do
 875:C:/Workspace/DAVE-4.4.2-64Bit/optiga-trust-m/optiga/cmd\optiga_cmd.c ****     {
 876:C:/Workspace/DAVE-4.4.2-64Bit/optiga-trust-m/optiga/cmd\optiga_cmd.c ****         switch (me->cmd_next_execution_state)
 332              	 .loc 1 876 0
 333 004c A37D     	 ldrb r3,[r4,#22]
 334 004e 0C2B     	 cmp r3,#12
 335 0050 00D9     	 bls .LCB288
 336 0052 86E1     	 b .L20
 337              	.LCB288:
 338 0054 181C     	 mov r0,r3
 339 0056 FFF7FEFF 	 bl __gnu_thumb1_case_uhi
 340              	.L22:
 341 005a 0D00     	 .2byte (.L21-.L22)/2
 342 005c 1500     	 .2byte (.L23-.L22)/2
 343 005e 3A00     	 .2byte (.L24-.L22)/2
 344 0060 4400     	 .2byte (.L25-.L22)/2
 345 0062 7700     	 .2byte (.L26-.L22)/2
 346 0064 8500     	 .2byte (.L27-.L22)/2
 347 0066 8500     	 .2byte (.L27-.L22)/2
 348 0068 9100     	 .2byte (.L28-.L22)/2
 349 006a 9800     	 .2byte (.L29-.L22)/2
 350 006c C800     	 .2byte (.L30-.L22)/2
 351 006e 0101     	 .2byte (.L31-.L22)/2
 352 0070 7901     	 .2byte (.L32-.L22)/2
 353 0072 7F01     	 .2byte (.L33-.L22)/2
 354              	 .p2align 1
 355              	.L21:
 356              	.LVL23:
 357              	.LBB100:
 358              	.LBB101:
 776:C:/Workspace/DAVE-4.4.2-64Bit/optiga-trust-m/optiga/cmd\optiga_cmd.c ****     return (OPTIGA_CMD_SUCCESS);
 359              	 .loc 1 776 0
 360 0074 201C     	 mov r0,r4
 361 0076 2121     	 mov r1,#33
 362 0078 FFF7FEFF 	 bl optiga_cmd_queue_update_slot
 363              	.LVL24:
 364              	.LBE101:
 365              	.LBE100:
 877:C:/Workspace/DAVE-4.4.2-64Bit/optiga-trust-m/optiga/cmd\optiga_cmd.c ****         {
 878:C:/Workspace/DAVE-4.4.2-64Bit/optiga-trust-m/optiga/cmd\optiga_cmd.c ****             case OPTIGA_CMD_EXEC_COMMS_OPEN:
 879:C:/Workspace/DAVE-4.4.2-64Bit/optiga-trust-m/optiga/cmd\optiga_cmd.c ****             {
 880:C:/Workspace/DAVE-4.4.2-64Bit/optiga-trust-m/optiga/cmd\optiga_cmd.c ****                 // add to queue and exit
 881:C:/Workspace/DAVE-4.4.2-64Bit/optiga-trust-m/optiga/cmd\optiga_cmd.c ****                 me->exit_status = optiga_cmd_request_lock(me, OPTIGA_CMD_QUEUE_REQUEST_LOCK);
 366              	 .loc 1 881 0
 367 007c 0023     	 mov r3,#0
 368 007e E383     	 strh r3,[r4,#30]
 882:C:/Workspace/DAVE-4.4.2-64Bit/optiga-trust-m/optiga/cmd\optiga_cmd.c ****                 if (OPTIGA_LIB_SUCCESS != me->exit_status)
 883:C:/Workspace/DAVE-4.4.2-64Bit/optiga-trust-m/optiga/cmd\optiga_cmd.c ****                 {
 884:C:/Workspace/DAVE-4.4.2-64Bit/optiga-trust-m/optiga/cmd\optiga_cmd.c ****                     EXIT_STATE_WITH_ERROR(me,exit_loop);
 885:C:/Workspace/DAVE-4.4.2-64Bit/optiga-trust-m/optiga/cmd\optiga_cmd.c ****                     break;
 886:C:/Workspace/DAVE-4.4.2-64Bit/optiga-trust-m/optiga/cmd\optiga_cmd.c ****                 }
 887:C:/Workspace/DAVE-4.4.2-64Bit/optiga-trust-m/optiga/cmd\optiga_cmd.c **** 
 888:C:/Workspace/DAVE-4.4.2-64Bit/optiga-trust-m/optiga/cmd\optiga_cmd.c ****                 me->cmd_next_execution_state = OPTIGA_CMD_EXEC_COMMS_OPEN_START;
 369              	 .loc 1 888 0
 370 0080 0133     	 add r3,r3,#1
 371 0082 79E0     	 b .L78
 372              	.LVL25:
 373              	.L23:
 889:C:/Workspace/DAVE-4.4.2-64Bit/optiga-trust-m/optiga/cmd\optiga_cmd.c ****                 break;
 890:C:/Workspace/DAVE-4.4.2-64Bit/optiga-trust-m/optiga/cmd\optiga_cmd.c ****             }
 891:C:/Workspace/DAVE-4.4.2-64Bit/optiga-trust-m/optiga/cmd\optiga_cmd.c ****             case OPTIGA_CMD_EXEC_COMMS_OPEN_START:
 892:C:/Workspace/DAVE-4.4.2-64Bit/optiga-trust-m/optiga/cmd\optiga_cmd.c ****             {
 893:C:/Workspace/DAVE-4.4.2-64Bit/optiga-trust-m/optiga/cmd\optiga_cmd.c **** #ifdef OPTIGA_COMMS_SHIELDED_CONNECTION
 894:C:/Workspace/DAVE-4.4.2-64Bit/optiga-trust-m/optiga/cmd\optiga_cmd.c ****                 me->p_optiga->p_optiga_comms->protection_level =  me->protection_level;
 895:C:/Workspace/DAVE-4.4.2-64Bit/optiga-trust-m/optiga/cmd\optiga_cmd.c ****                 me->p_optiga->p_optiga_comms->protocol_version = me->protocol_version;
 896:C:/Workspace/DAVE-4.4.2-64Bit/optiga-trust-m/optiga/cmd\optiga_cmd.c ****                 me->p_optiga->p_optiga_comms->manage_context_operation = me->manage_context_operati
 897:C:/Workspace/DAVE-4.4.2-64Bit/optiga-trust-m/optiga/cmd\optiga_cmd.c ****                 me->p_optiga->p_optiga_comms->p_pal_os_event_ctx = me->p_optiga->p_pal_os_event_ctx
 374              	 .loc 1 897 0
 375 0084 CF21     	 mov r1,#207
 894:C:/Workspace/DAVE-4.4.2-64Bit/optiga-trust-m/optiga/cmd\optiga_cmd.c ****                 me->p_optiga->p_optiga_comms->protocol_version = me->protocol_version;
 376              	 .loc 1 894 0
 377 0086 2368     	 ldr r3,[r4]
 378 0088 627E     	 ldrb r2,[r4,#25]
 379 008a 1B68     	 ldr r3,[r3]
 380              	 .loc 1 897 0
 381 008c C900     	 lsl r1,r1,#3
 894:C:/Workspace/DAVE-4.4.2-64Bit/optiga-trust-m/optiga/cmd\optiga_cmd.c ****                 me->p_optiga->p_optiga_comms->protocol_version = me->protocol_version;
 382              	 .loc 1 894 0
 383 008e 9A73     	 strb r2,[r3,#14]
 895:C:/Workspace/DAVE-4.4.2-64Bit/optiga-trust-m/optiga/cmd\optiga_cmd.c ****                 me->p_optiga->p_optiga_comms->manage_context_operation = me->manage_context_operati
 384              	 .loc 1 895 0
 385 0090 2368     	 ldr r3,[r4]
 386 0092 A27E     	 ldrb r2,[r4,#26]
 387 0094 1B68     	 ldr r3,[r3]
 388 0096 DA73     	 strb r2,[r3,#15]
 896:C:/Workspace/DAVE-4.4.2-64Bit/optiga-trust-m/optiga/cmd\optiga_cmd.c ****                 me->p_optiga->p_optiga_comms->p_pal_os_event_ctx = me->p_optiga->p_pal_os_event_ctx
 389              	 .loc 1 896 0
 390 0098 2368     	 ldr r3,[r4]
 391 009a E27E     	 ldrb r2,[r4,#27]
 392 009c 1B68     	 ldr r3,[r3]
 393 009e 1A74     	 strb r2,[r3,#16]
 394              	 .loc 1 897 0
 395 00a0 2368     	 ldr r3,[r4]
 898:C:/Workspace/DAVE-4.4.2-64Bit/optiga-trust-m/optiga/cmd\optiga_cmd.c **** #endif //OPTIGA_COMMS_SHIELDED_CONNECTION
 899:C:/Workspace/DAVE-4.4.2-64Bit/optiga-trust-m/optiga/cmd\optiga_cmd.c **** 
 900:C:/Workspace/DAVE-4.4.2-64Bit/optiga-trust-m/optiga/cmd\optiga_cmd.c ****                 (void)optiga_comms_set_callback_context(p_optiga->p_optiga_comms, me);
 396              	 .loc 1 900 0
 397 00a2 3868     	 ldr r0,[r7]
 897:C:/Workspace/DAVE-4.4.2-64Bit/optiga-trust-m/optiga/cmd\optiga_cmd.c **** #endif //OPTIGA_COMMS_SHIELDED_CONNECTION
 398              	 .loc 1 897 0
 399 00a4 1A68     	 ldr r2,[r3]
 400 00a6 5B58     	 ldr r3,[r3,r1]
 401              	 .loc 1 900 0
 402 00a8 211C     	 mov r1,r4
 897:C:/Workspace/DAVE-4.4.2-64Bit/optiga-trust-m/optiga/cmd\optiga_cmd.c **** #endif //OPTIGA_COMMS_SHIELDED_CONNECTION
 403              	 .loc 1 897 0
 404 00aa 5361     	 str r3,[r2,#20]
 405              	 .loc 1 900 0
 406 00ac FFF7FEFF 	 bl optiga_comms_set_callback_context
 407              	.LVL26:
 901:C:/Workspace/DAVE-4.4.2-64Bit/optiga-trust-m/optiga/cmd\optiga_cmd.c ****                 me->exit_status = optiga_comms_open(me->p_optiga->p_optiga_comms);
 408              	 .loc 1 901 0
 409 00b0 2368     	 ldr r3,[r4]
 410 00b2 1868     	 ldr r0,[r3]
 411 00b4 FFF7FEFF 	 bl optiga_comms_open
 412              	.LVL27:
 413 00b8 E083     	 strh r0,[r4,#30]
 902:C:/Workspace/DAVE-4.4.2-64Bit/optiga-trust-m/optiga/cmd\optiga_cmd.c **** 
 903:C:/Workspace/DAVE-4.4.2-64Bit/optiga-trust-m/optiga/cmd\optiga_cmd.c ****                 if (OPTIGA_LIB_SUCCESS != me->exit_status)
 414              	 .loc 1 903 0
 415 00ba 0028     	 cmp r0,#0
 416 00bc 05D0     	 beq .L34
 417              	.LVL28:
 418              	.L39:
 904:C:/Workspace/DAVE-4.4.2-64Bit/optiga-trust-m/optiga/cmd\optiga_cmd.c ****                 {
 905:C:/Workspace/DAVE-4.4.2-64Bit/optiga-trust-m/optiga/cmd\optiga_cmd.c ****                     EXIT_STATE_WITH_ERROR(me,exit_loop);
 419              	 .loc 1 905 0
 420 00be 0B23     	 mov r3,#11
 421 00c0 A375     	 strb r3,[r4,#22]
 422 00c2 AA4B     	 ldr r3,.L80
 423 00c4 E383     	 strh r3,[r4,#30]
 424              	.LVL29:
 425              	.L53:
 426 00c6 0026     	 mov r6,#0
 427 00c8 C0E7     	 b .L19
 428              	.LVL30:
 429              	.L34:
 906:C:/Workspace/DAVE-4.4.2-64Bit/optiga-trust-m/optiga/cmd\optiga_cmd.c ****                     break;
 907:C:/Workspace/DAVE-4.4.2-64Bit/optiga-trust-m/optiga/cmd\optiga_cmd.c ****                 }
 908:C:/Workspace/DAVE-4.4.2-64Bit/optiga-trust-m/optiga/cmd\optiga_cmd.c **** 
 909:C:/Workspace/DAVE-4.4.2-64Bit/optiga-trust-m/optiga/cmd\optiga_cmd.c ****                 me->cmd_next_execution_state = OPTIGA_CMD_EXEC_COMMS_OPEN_DONE;
 430              	 .loc 1 909 0
 431 00ca 0223     	 mov r3,#2
 432 00cc 54E0     	 b .L78
 433              	.L24:
 910:C:/Workspace/DAVE-4.4.2-64Bit/optiga-trust-m/optiga/cmd\optiga_cmd.c ****                 break;
 911:C:/Workspace/DAVE-4.4.2-64Bit/optiga-trust-m/optiga/cmd\optiga_cmd.c ****             }
 912:C:/Workspace/DAVE-4.4.2-64Bit/optiga-trust-m/optiga/cmd\optiga_cmd.c ****             case OPTIGA_CMD_EXEC_COMMS_OPEN_DONE:
 913:C:/Workspace/DAVE-4.4.2-64Bit/optiga-trust-m/optiga/cmd\optiga_cmd.c ****             {
 914:C:/Workspace/DAVE-4.4.2-64Bit/optiga-trust-m/optiga/cmd\optiga_cmd.c ****                 pal_os_event_register_callback_oneshot(me->p_optiga->p_pal_os_event_ctx,
 434              	 .loc 1 914 0
 435 00ce CF23     	 mov r3,#207
 436 00d0 2268     	 ldr r2,[r4]
 437 00d2 DB00     	 lsl r3,r3,#3
 438 00d4 D058     	 ldr r0,[r2,r3]
 439 00d6 A649     	 ldr r1,.L80+4
 440 00d8 221C     	 mov r2,r4
 441 00da 3223     	 mov r3,#50
 442 00dc FFF7FEFF 	 bl pal_os_event_register_callback_oneshot
 443              	.LVL31:
 444 00e0 49E0     	 b .L77
 445              	.L25:
 915:C:/Workspace/DAVE-4.4.2-64Bit/optiga-trust-m/optiga/cmd\optiga_cmd.c ****                                                        (register_callback)optiga_cmd_event_trigger_
 916:C:/Workspace/DAVE-4.4.2-64Bit/optiga-trust-m/optiga/cmd\optiga_cmd.c ****                                                        me, OPTIGA_CMD_SCHEDULER_RUNNING_TIME_MS);
 917:C:/Workspace/DAVE-4.4.2-64Bit/optiga-trust-m/optiga/cmd\optiga_cmd.c ****                 me->cmd_next_execution_state = OPTIGA_CMD_EXEC_PREPARE_COMMAND;
 918:C:/Workspace/DAVE-4.4.2-64Bit/optiga-trust-m/optiga/cmd\optiga_cmd.c ****                 break;
 919:C:/Workspace/DAVE-4.4.2-64Bit/optiga-trust-m/optiga/cmd\optiga_cmd.c ****             }
 920:C:/Workspace/DAVE-4.4.2-64Bit/optiga-trust-m/optiga/cmd\optiga_cmd.c ****             case OPTIGA_CMD_EXEC_COMMS_CLOSE_START:
 921:C:/Workspace/DAVE-4.4.2-64Bit/optiga-trust-m/optiga/cmd\optiga_cmd.c ****             {
 922:C:/Workspace/DAVE-4.4.2-64Bit/optiga-trust-m/optiga/cmd\optiga_cmd.c **** #ifdef OPTIGA_COMMS_SHIELDED_CONNECTION
 923:C:/Workspace/DAVE-4.4.2-64Bit/optiga-trust-m/optiga/cmd\optiga_cmd.c ****                 // In case PRL is enabled and save context is not invoked or is PRL is not enabled,
 924:C:/Workspace/DAVE-4.4.2-64Bit/optiga-trust-m/optiga/cmd\optiga_cmd.c ****                 //change state to OPTIGA_CMD_EXEC_COMMS_CLOSE_DONE, since it synchronous in nature
 925:C:/Workspace/DAVE-4.4.2-64Bit/optiga-trust-m/optiga/cmd\optiga_cmd.c ****                 if (OPTIGA_COMMS_SESSION_CONTEXT_SAVE != me->manage_context_operation)
 446              	 .loc 1 925 0
 447 00e2 E37E     	 ldrb r3,[r4,#27]
 448 00e4 222B     	 cmp r3,#34
 449 00e6 01D0     	 beq .L36
 926:C:/Workspace/DAVE-4.4.2-64Bit/optiga-trust-m/optiga/cmd\optiga_cmd.c ****                 {
 927:C:/Workspace/DAVE-4.4.2-64Bit/optiga-trust-m/optiga/cmd\optiga_cmd.c ****                     me->cmd_next_execution_state = OPTIGA_CMD_EXEC_COMMS_CLOSE_DONE;
 450              	 .loc 1 927 0
 451 00e8 0423     	 mov r3,#4
 452 00ea A375     	 strb r3,[r4,#22]
 453              	.L36:
 928:C:/Workspace/DAVE-4.4.2-64Bit/optiga-trust-m/optiga/cmd\optiga_cmd.c ****                 }
 929:C:/Workspace/DAVE-4.4.2-64Bit/optiga-trust-m/optiga/cmd\optiga_cmd.c ****                 me->p_optiga->p_optiga_comms->protection_level =  me->protection_level;
 454              	 .loc 1 929 0
 455 00ec 2368     	 ldr r3,[r4]
 456 00ee 627E     	 ldrb r2,[r4,#25]
 457 00f0 1B68     	 ldr r3,[r3]
 458 00f2 9A73     	 strb r2,[r3,#14]
 930:C:/Workspace/DAVE-4.4.2-64Bit/optiga-trust-m/optiga/cmd\optiga_cmd.c ****                 me->p_optiga->p_optiga_comms->protocol_version = me->protocol_version;
 459              	 .loc 1 930 0
 460 00f4 2368     	 ldr r3,[r4]
 461 00f6 A27E     	 ldrb r2,[r4,#26]
 462 00f8 1B68     	 ldr r3,[r3]
 463 00fa DA73     	 strb r2,[r3,#15]
 931:C:/Workspace/DAVE-4.4.2-64Bit/optiga-trust-m/optiga/cmd\optiga_cmd.c ****                 if (0 != me->p_optiga->protection_level_state)
 464              	 .loc 1 931 0
 465 00fc D123     	 mov r3,#209
 466 00fe 2268     	 ldr r2,[r4]
 467 0100 DB00     	 lsl r3,r3,#3
 468 0102 D15C     	 ldrb r1,[r2,r3]
 469 0104 1268     	 ldr r2,[r2]
 470 0106 0029     	 cmp r1,#0
 471 0108 01D0     	 beq .L37
 932:C:/Workspace/DAVE-4.4.2-64Bit/optiga-trust-m/optiga/cmd\optiga_cmd.c ****                 {
 933:C:/Workspace/DAVE-4.4.2-64Bit/optiga-trust-m/optiga/cmd\optiga_cmd.c ****                     me->p_optiga->p_optiga_comms->manage_context_operation = me->manage_context_ope
 472              	 .loc 1 933 0
 473 010a E17E     	 ldrb r1,[r4,#27]
 474 010c 00E0     	 b .L75
 475              	.L37:
 934:C:/Workspace/DAVE-4.4.2-64Bit/optiga-trust-m/optiga/cmd\optiga_cmd.c ****                 }
 935:C:/Workspace/DAVE-4.4.2-64Bit/optiga-trust-m/optiga/cmd\optiga_cmd.c ****                 else
 936:C:/Workspace/DAVE-4.4.2-64Bit/optiga-trust-m/optiga/cmd\optiga_cmd.c ****                 {
 937:C:/Workspace/DAVE-4.4.2-64Bit/optiga-trust-m/optiga/cmd\optiga_cmd.c ****                     me->p_optiga->p_optiga_comms->manage_context_operation = OPTIGA_COMMS_SESSION_C
 476              	 .loc 1 937 0
 477 010e 3321     	 mov r1,#51
 478              	.L75:
 479 0110 1174     	 strb r1,[r2,#16]
 938:C:/Workspace/DAVE-4.4.2-64Bit/optiga-trust-m/optiga/cmd\optiga_cmd.c ****                 }
 939:C:/Workspace/DAVE-4.4.2-64Bit/optiga-trust-m/optiga/cmd\optiga_cmd.c ****                 me->p_optiga->protection_level_state = 0;
 480              	 .loc 1 939 0
 481 0112 0022     	 mov r2,#0
 482 0114 2168     	 ldr r1,[r4]
 940:C:/Workspace/DAVE-4.4.2-64Bit/optiga-trust-m/optiga/cmd\optiga_cmd.c **** #endif //OPTIGA_COMMS_SHIELDED_CONNECTION
 941:C:/Workspace/DAVE-4.4.2-64Bit/optiga-trust-m/optiga/cmd\optiga_cmd.c ****                 me->cmd_next_execution_state = OPTIGA_CMD_EXEC_COMMS_CLOSE_DONE;
 483              	 .loc 1 941 0
 484 0116 0425     	 mov r5,#4
 939:C:/Workspace/DAVE-4.4.2-64Bit/optiga-trust-m/optiga/cmd\optiga_cmd.c **** #endif //OPTIGA_COMMS_SHIELDED_CONNECTION
 485              	 .loc 1 939 0
 486 0118 CA54     	 strb r2,[r1,r3]
 942:C:/Workspace/DAVE-4.4.2-64Bit/optiga-trust-m/optiga/cmd\optiga_cmd.c **** 
 943:C:/Workspace/DAVE-4.4.2-64Bit/optiga-trust-m/optiga/cmd\optiga_cmd.c ****                 me->p_optiga->p_optiga_comms->p_pal_os_event_ctx = me->p_optiga->p_pal_os_event_ctx
 487              	 .loc 1 943 0
 488 011a CF21     	 mov r1,#207
 489 011c 2368     	 ldr r3,[r4]
 490 011e C900     	 lsl r1,r1,#3
 491 0120 1A68     	 ldr r2,[r3]
 492 0122 5B58     	 ldr r3,[r3,r1]
 941:C:/Workspace/DAVE-4.4.2-64Bit/optiga-trust-m/optiga/cmd\optiga_cmd.c **** 
 493              	 .loc 1 941 0
 494 0124 A575     	 strb r5,[r4,#22]
 944:C:/Workspace/DAVE-4.4.2-64Bit/optiga-trust-m/optiga/cmd\optiga_cmd.c **** 
 945:C:/Workspace/DAVE-4.4.2-64Bit/optiga-trust-m/optiga/cmd\optiga_cmd.c ****                 (void)optiga_comms_set_callback_context(p_optiga->p_optiga_comms, me);
 495              	 .loc 1 945 0
 496 0126 211C     	 mov r1,r4
 943:C:/Workspace/DAVE-4.4.2-64Bit/optiga-trust-m/optiga/cmd\optiga_cmd.c **** 
 497              	 .loc 1 943 0
 498 0128 5361     	 str r3,[r2,#20]
 499              	 .loc 1 945 0
 500 012a 3868     	 ldr r0,[r7]
 501 012c FFF7FEFF 	 bl optiga_comms_set_callback_context
 502              	.LVL32:
 946:C:/Workspace/DAVE-4.4.2-64Bit/optiga-trust-m/optiga/cmd\optiga_cmd.c ****                 me->exit_status = optiga_comms_close(me->p_optiga->p_optiga_comms);
 503              	 .loc 1 946 0
 504 0130 2368     	 ldr r3,[r4]
 505 0132 1868     	 ldr r0,[r3]
 506 0134 FFF7FEFF 	 bl optiga_comms_close
 507              	.LVL33:
 508 0138 E083     	 strh r0,[r4,#30]
 947:C:/Workspace/DAVE-4.4.2-64Bit/optiga-trust-m/optiga/cmd\optiga_cmd.c **** 
 948:C:/Workspace/DAVE-4.4.2-64Bit/optiga-trust-m/optiga/cmd\optiga_cmd.c ****                 if (OPTIGA_LIB_SUCCESS != me->exit_status)
 509              	 .loc 1 948 0
 510 013a 0028     	 cmp r0,#0
 511 013c BFD1     	 bne .L39
 949:C:/Workspace/DAVE-4.4.2-64Bit/optiga-trust-m/optiga/cmd\optiga_cmd.c ****                 {
 950:C:/Workspace/DAVE-4.4.2-64Bit/optiga-trust-m/optiga/cmd\optiga_cmd.c ****                     EXIT_STATE_WITH_ERROR(me,exit_loop);
 951:C:/Workspace/DAVE-4.4.2-64Bit/optiga-trust-m/optiga/cmd\optiga_cmd.c ****                     break;
 952:C:/Workspace/DAVE-4.4.2-64Bit/optiga-trust-m/optiga/cmd\optiga_cmd.c ****                 }
 953:C:/Workspace/DAVE-4.4.2-64Bit/optiga-trust-m/optiga/cmd\optiga_cmd.c **** 
 954:C:/Workspace/DAVE-4.4.2-64Bit/optiga-trust-m/optiga/cmd\optiga_cmd.c **** #ifdef OPTIGA_COMMS_SHIELDED_CONNECTION
 955:C:/Workspace/DAVE-4.4.2-64Bit/optiga-trust-m/optiga/cmd\optiga_cmd.c ****                 // In case PRL is enabled and save context is requested,
 956:C:/Workspace/DAVE-4.4.2-64Bit/optiga-trust-m/optiga/cmd\optiga_cmd.c ****                 //change state to OPTIGA_CMD_EXEC_COMMS_CLOSE_DONE, since it asynchronous in nature
 957:C:/Workspace/DAVE-4.4.2-64Bit/optiga-trust-m/optiga/cmd\optiga_cmd.c ****                 if (OPTIGA_COMMS_SESSION_CONTEXT_SAVE == me->manage_context_operation)
 512              	 .loc 1 957 0
 513 013e E37E     	 ldrb r3,[r4,#27]
 514 0140 222B     	 cmp r3,#34
 515 0142 09D1     	 bne .L40
 958:C:/Workspace/DAVE-4.4.2-64Bit/optiga-trust-m/optiga/cmd\optiga_cmd.c ****                 {
 959:C:/Workspace/DAVE-4.4.2-64Bit/optiga-trust-m/optiga/cmd\optiga_cmd.c ****                     me->cmd_next_execution_state = OPTIGA_CMD_EXEC_COMMS_CLOSE_DONE;
 516              	 .loc 1 959 0
 517 0144 A575     	 strb r5,[r4,#22]
 518              	.LVL34:
 519 0146 0FE1     	 b .L14
 520              	.LVL35:
 521              	.L26:
 960:C:/Workspace/DAVE-4.4.2-64Bit/optiga-trust-m/optiga/cmd\optiga_cmd.c ****                     exit_loop = TRUE;
 961:C:/Workspace/DAVE-4.4.2-64Bit/optiga-trust-m/optiga/cmd\optiga_cmd.c ****                 }
 962:C:/Workspace/DAVE-4.4.2-64Bit/optiga-trust-m/optiga/cmd\optiga_cmd.c ****                 // For synchronous behavior: After exit from optiga_comms_close, release lock
 963:C:/Workspace/DAVE-4.4.2-64Bit/optiga-trust-m/optiga/cmd\optiga_cmd.c ****                 else
 964:C:/Workspace/DAVE-4.4.2-64Bit/optiga-trust-m/optiga/cmd\optiga_cmd.c ****                 {
 965:C:/Workspace/DAVE-4.4.2-64Bit/optiga-trust-m/optiga/cmd\optiga_cmd.c ****                     me->exit_status = optiga_cmd_release_lock(me);
 966:C:/Workspace/DAVE-4.4.2-64Bit/optiga-trust-m/optiga/cmd\optiga_cmd.c ****                 }
 967:C:/Workspace/DAVE-4.4.2-64Bit/optiga-trust-m/optiga/cmd\optiga_cmd.c **** #else
 968:C:/Workspace/DAVE-4.4.2-64Bit/optiga-trust-m/optiga/cmd\optiga_cmd.c ****                 me->exit_status = optiga_cmd_release_lock(me);
 969:C:/Workspace/DAVE-4.4.2-64Bit/optiga-trust-m/optiga/cmd\optiga_cmd.c **** #endif //OPTIGA_COMMS_SHIELDED_CONNECTION
 970:C:/Workspace/DAVE-4.4.2-64Bit/optiga-trust-m/optiga/cmd\optiga_cmd.c ****                 break;
 971:C:/Workspace/DAVE-4.4.2-64Bit/optiga-trust-m/optiga/cmd\optiga_cmd.c ****             }
 972:C:/Workspace/DAVE-4.4.2-64Bit/optiga-trust-m/optiga/cmd\optiga_cmd.c ****             case OPTIGA_CMD_EXEC_COMMS_CLOSE_DONE:
 973:C:/Workspace/DAVE-4.4.2-64Bit/optiga-trust-m/optiga/cmd\optiga_cmd.c ****             {
 974:C:/Workspace/DAVE-4.4.2-64Bit/optiga-trust-m/optiga/cmd\optiga_cmd.c ****                 me->handler(me->caller_context, event);
 522              	 .loc 1 974 0
 523 0148 2369     	 ldr r3,[r4,#16]
 524 014a E068     	 ldr r0,[r4,#12]
 525 014c 0299     	 ldr r1,[sp,#8]
 526 014e 9847     	 blx r3
 527              	.LVL36:
 975:C:/Workspace/DAVE-4.4.2-64Bit/optiga-trust-m/optiga/cmd\optiga_cmd.c **** #ifdef OPTIGA_COMMS_SHIELDED_CONNECTION
 976:C:/Workspace/DAVE-4.4.2-64Bit/optiga-trust-m/optiga/cmd\optiga_cmd.c ****                 // For asynchronous behavior, change state to release the lock
 977:C:/Workspace/DAVE-4.4.2-64Bit/optiga-trust-m/optiga/cmd\optiga_cmd.c ****                 if (OPTIGA_COMMS_SESSION_CONTEXT_SAVE == me->manage_context_operation)
 528              	 .loc 1 977 0
 529 0150 E37E     	 ldrb r3,[r4,#27]
 530 0152 222B     	 cmp r3,#34
 531 0154 00D0     	 beq .LCB471
 532 0156 04E1     	 b .L20
 533              	.LCB471:
 534              	.L40:
 535              	.LVL37:
 536              	.LBB102:
 537              	.LBB103:
 782:C:/Workspace/DAVE-4.4.2-64Bit/optiga-trust-m/optiga/cmd\optiga_cmd.c ****     return (OPTIGA_CMD_SUCCESS);
 538              	 .loc 1 782 0
 539 0158 201C     	 mov r0,r4
 540 015a FFF7FEFF 	 bl optiga_cmd_queue_reset_slot
 541              	.LVL38:
 542              	.LBE103:
 543              	.LBE102:
 965:C:/Workspace/DAVE-4.4.2-64Bit/optiga-trust-m/optiga/cmd\optiga_cmd.c ****                 }
 544              	 .loc 1 965 0
 545 015e 0023     	 mov r3,#0
 546 0160 E383     	 strh r3,[r4,#30]
 547 0162 FEE0     	 b .L20
 548              	.LVL39:
 549              	.L27:
 550 0164 0025     	 mov r5,#0
 551              	.LBB104:
 552              	.LBB105:
 764:C:/Workspace/DAVE-4.4.2-64Bit/optiga-trust-m/optiga/cmd\optiga_cmd.c ****     return (OPTIGA_CMD_SUCCESS);
 553              	 .loc 1 764 0
 554 0166 201C     	 mov r0,r4
 555 0168 2221     	 mov r1,#34
 556              	.LBE105:
 557              	.LBE104:
 978:C:/Workspace/DAVE-4.4.2-64Bit/optiga-trust-m/optiga/cmd\optiga_cmd.c ****                 {
 979:C:/Workspace/DAVE-4.4.2-64Bit/optiga-trust-m/optiga/cmd\optiga_cmd.c ****                     me->exit_status = optiga_cmd_release_lock(me);
 980:C:/Workspace/DAVE-4.4.2-64Bit/optiga-trust-m/optiga/cmd\optiga_cmd.c ****                 }
 981:C:/Workspace/DAVE-4.4.2-64Bit/optiga-trust-m/optiga/cmd\optiga_cmd.c **** #endif //OPTIGA_COMMS_SHIELDED_CONNECTION
 982:C:/Workspace/DAVE-4.4.2-64Bit/optiga-trust-m/optiga/cmd\optiga_cmd.c ****                 break;
 983:C:/Workspace/DAVE-4.4.2-64Bit/optiga-trust-m/optiga/cmd\optiga_cmd.c ****             }
 984:C:/Workspace/DAVE-4.4.2-64Bit/optiga-trust-m/optiga/cmd\optiga_cmd.c ****             case OPTIGA_CMD_EXEC_REQUEST_SESSION:
 985:C:/Workspace/DAVE-4.4.2-64Bit/optiga-trust-m/optiga/cmd\optiga_cmd.c ****             case OPTIGA_CMD_EXEC_REQUEST_LOCK:
 986:C:/Workspace/DAVE-4.4.2-64Bit/optiga-trust-m/optiga/cmd\optiga_cmd.c ****             {
 987:C:/Workspace/DAVE-4.4.2-64Bit/optiga-trust-m/optiga/cmd\optiga_cmd.c ****                 if (me->cmd_next_execution_state == OPTIGA_CMD_EXEC_REQUEST_SESSION)
 558              	 .loc 1 987 0
 559 016a 052B     	 cmp r3,#5
 560 016c 00D0     	 beq .L76
 561              	.LVL40:
 562              	.LBB106:
 563              	.LBB107:
 776:C:/Workspace/DAVE-4.4.2-64Bit/optiga-trust-m/optiga/cmd\optiga_cmd.c ****     return (OPTIGA_CMD_SUCCESS);
 564              	 .loc 1 776 0
 565 016e 2121     	 mov r1,#33
 566              	.LVL41:
 567              	.L76:
 568 0170 FFF7FEFF 	 bl optiga_cmd_queue_update_slot
 569              	.LVL42:
 570              	.LBE107:
 571              	.LBE106:
 988:C:/Workspace/DAVE-4.4.2-64Bit/optiga-trust-m/optiga/cmd\optiga_cmd.c ****                 {
 989:C:/Workspace/DAVE-4.4.2-64Bit/optiga-trust-m/optiga/cmd\optiga_cmd.c ****                     me->exit_status = optiga_cmd_request_session(me);
 990:C:/Workspace/DAVE-4.4.2-64Bit/optiga-trust-m/optiga/cmd\optiga_cmd.c ****                 }
 991:C:/Workspace/DAVE-4.4.2-64Bit/optiga-trust-m/optiga/cmd\optiga_cmd.c ****                 else
 992:C:/Workspace/DAVE-4.4.2-64Bit/optiga-trust-m/optiga/cmd\optiga_cmd.c ****                 {
 993:C:/Workspace/DAVE-4.4.2-64Bit/optiga-trust-m/optiga/cmd\optiga_cmd.c ****                     me->exit_status = optiga_cmd_request_lock(me, OPTIGA_CMD_QUEUE_REQUEST_LOCK);
 572              	 .loc 1 993 0
 573 0174 E583     	 strh r5,[r4,#30]
 574              	.L77:
 994:C:/Workspace/DAVE-4.4.2-64Bit/optiga-trust-m/optiga/cmd\optiga_cmd.c ****                 }
 995:C:/Workspace/DAVE-4.4.2-64Bit/optiga-trust-m/optiga/cmd\optiga_cmd.c ****                 if (OPTIGA_LIB_SUCCESS != me->exit_status)
 996:C:/Workspace/DAVE-4.4.2-64Bit/optiga-trust-m/optiga/cmd\optiga_cmd.c ****                 {
 997:C:/Workspace/DAVE-4.4.2-64Bit/optiga-trust-m/optiga/cmd\optiga_cmd.c ****                     EXIT_STATE_WITH_ERROR(me,exit_loop);
 998:C:/Workspace/DAVE-4.4.2-64Bit/optiga-trust-m/optiga/cmd\optiga_cmd.c ****                     break;
 999:C:/Workspace/DAVE-4.4.2-64Bit/optiga-trust-m/optiga/cmd\optiga_cmd.c ****                 }
1000:C:/Workspace/DAVE-4.4.2-64Bit/optiga-trust-m/optiga/cmd\optiga_cmd.c **** 
1001:C:/Workspace/DAVE-4.4.2-64Bit/optiga-trust-m/optiga/cmd\optiga_cmd.c ****                 me->cmd_next_execution_state = OPTIGA_CMD_EXEC_PREPARE_COMMAND;
 575              	 .loc 1 1001 0
 576 0176 0823     	 mov r3,#8
 577              	.L78:
 578 0178 A375     	 strb r3,[r4,#22]
1002:C:/Workspace/DAVE-4.4.2-64Bit/optiga-trust-m/optiga/cmd\optiga_cmd.c ****                 break;
 579              	 .loc 1 1002 0
 580 017a F2E0     	 b .L20
 581              	.L28:
 582              	.LVL43:
 583              	.LBB108:
 584              	.LBB109:
 776:C:/Workspace/DAVE-4.4.2-64Bit/optiga-trust-m/optiga/cmd\optiga_cmd.c ****     return (OPTIGA_CMD_SUCCESS);
 585              	 .loc 1 776 0
 586 017c 201C     	 mov r0,r4
 587 017e 2321     	 mov r1,#35
 588 0180 FFF7FEFF 	 bl optiga_cmd_queue_update_slot
 589              	.LVL44:
 590              	.LBE109:
 591              	.LBE108:
1003:C:/Workspace/DAVE-4.4.2-64Bit/optiga-trust-m/optiga/cmd\optiga_cmd.c ****             }
1004:C:/Workspace/DAVE-4.4.2-64Bit/optiga-trust-m/optiga/cmd\optiga_cmd.c ****             case OPTIGA_CMD_EXEC_REQUEST_STRICT_LOCK:
1005:C:/Workspace/DAVE-4.4.2-64Bit/optiga-trust-m/optiga/cmd\optiga_cmd.c ****             {
1006:C:/Workspace/DAVE-4.4.2-64Bit/optiga-trust-m/optiga/cmd\optiga_cmd.c ****                 me->exit_status = optiga_cmd_request_lock(me, OPTIGA_CMD_QUEUE_REQUEST_STRICT_LOCK)
 592              	 .loc 1 1006 0
 593 0184 0023     	 mov r3,#0
 594 0186 E383     	 strh r3,[r4,#30]
 595 0188 F5E7     	 b .L77
 596              	.LVL45:
 597              	.L29:
1007:C:/Workspace/DAVE-4.4.2-64Bit/optiga-trust-m/optiga/cmd\optiga_cmd.c ****                 if (OPTIGA_LIB_SUCCESS != me->exit_status)
1008:C:/Workspace/DAVE-4.4.2-64Bit/optiga-trust-m/optiga/cmd\optiga_cmd.c ****                 {
1009:C:/Workspace/DAVE-4.4.2-64Bit/optiga-trust-m/optiga/cmd\optiga_cmd.c ****                     EXIT_STATE_WITH_ERROR(me,exit_loop);
1010:C:/Workspace/DAVE-4.4.2-64Bit/optiga-trust-m/optiga/cmd\optiga_cmd.c ****                     break;
1011:C:/Workspace/DAVE-4.4.2-64Bit/optiga-trust-m/optiga/cmd\optiga_cmd.c ****                 }
1012:C:/Workspace/DAVE-4.4.2-64Bit/optiga-trust-m/optiga/cmd\optiga_cmd.c ****                 me->cmd_next_execution_state = OPTIGA_CMD_EXEC_PREPARE_COMMAND;
1013:C:/Workspace/DAVE-4.4.2-64Bit/optiga-trust-m/optiga/cmd\optiga_cmd.c ****                 break;
1014:C:/Workspace/DAVE-4.4.2-64Bit/optiga-trust-m/optiga/cmd\optiga_cmd.c ****             }
1015:C:/Workspace/DAVE-4.4.2-64Bit/optiga-trust-m/optiga/cmd\optiga_cmd.c **** 
1016:C:/Workspace/DAVE-4.4.2-64Bit/optiga-trust-m/optiga/cmd\optiga_cmd.c ****             case OPTIGA_CMD_EXEC_PREPARE_COMMAND:
1017:C:/Workspace/DAVE-4.4.2-64Bit/optiga-trust-m/optiga/cmd\optiga_cmd.c ****             {
1018:C:/Workspace/DAVE-4.4.2-64Bit/optiga-trust-m/optiga/cmd\optiga_cmd.c ****                 exit_loop = TRUE;
1019:C:/Workspace/DAVE-4.4.2-64Bit/optiga-trust-m/optiga/cmd\optiga_cmd.c ****                 me->exit_status = optiga_cmd_handler(me);
 598              	 .loc 1 1019 0
 599 018a 201C     	 mov r0,r4
 600 018c 039B     	 ldr r3,[sp,#12]
 601 018e 9847     	 blx r3
 602              	.LVL46:
 603 0190 E083     	 strh r0,[r4,#30]
1020:C:/Workspace/DAVE-4.4.2-64Bit/optiga-trust-m/optiga/cmd\optiga_cmd.c ****                 if (OPTIGA_LIB_SUCCESS != me->exit_status)
 604              	 .loc 1 1020 0
 605 0192 0028     	 cmp r0,#0
 606 0194 01D0     	 beq .L44
 607              	.LVL47:
 608              	.L45:
1021:C:/Workspace/DAVE-4.4.2-64Bit/optiga-trust-m/optiga/cmd\optiga_cmd.c ****                 {
1022:C:/Workspace/DAVE-4.4.2-64Bit/optiga-trust-m/optiga/cmd\optiga_cmd.c ****                     me->cmd_next_execution_state = OPTIGA_CMD_EXEC_RELEASE_LOCK;
 609              	 .loc 1 1022 0
 610 0196 0B23     	 mov r3,#11
 611 0198 DCE0     	 b .L74
 612              	.LVL48:
 613              	.L44:
1023:C:/Workspace/DAVE-4.4.2-64Bit/optiga-trust-m/optiga/cmd\optiga_cmd.c ****                     exit_loop = FALSE;
1024:C:/Workspace/DAVE-4.4.2-64Bit/optiga-trust-m/optiga/cmd\optiga_cmd.c ****                     break;
1025:C:/Workspace/DAVE-4.4.2-64Bit/optiga-trust-m/optiga/cmd\optiga_cmd.c ****                 }
1026:C:/Workspace/DAVE-4.4.2-64Bit/optiga-trust-m/optiga/cmd\optiga_cmd.c ****                 me->p_optiga->comms_rx_size = OPTIGA_CMD_TOTAL_COMMS_BUFFER_SIZE;
 614              	 .loc 1 1026 0
 615 019a 2368     	 ldr r3,[r4]
 616 019c 754A     	 ldr r2,.L80+8
 617 019e DA80     	 strh r2,[r3,#6]
1027:C:/Workspace/DAVE-4.4.2-64Bit/optiga-trust-m/optiga/cmd\optiga_cmd.c **** #ifdef OPTIGA_COMMS_SHIELDED_CONNECTION
1028:C:/Workspace/DAVE-4.4.2-64Bit/optiga-trust-m/optiga/cmd\optiga_cmd.c ****                 me->p_optiga->p_optiga_comms->protection_level = me->protection_level;
 618              	 .loc 1 1028 0
 619 01a0 627E     	 ldrb r2,[r4,#25]
 620 01a2 1B68     	 ldr r3,[r3]
 621 01a4 9A73     	 strb r2,[r3,#14]
1029:C:/Workspace/DAVE-4.4.2-64Bit/optiga-trust-m/optiga/cmd\optiga_cmd.c ****                 me->p_optiga->p_optiga_comms->protocol_version = me->protocol_version;
 622              	 .loc 1 1029 0
 623 01a6 2368     	 ldr r3,[r4]
 624 01a8 A27E     	 ldrb r2,[r4,#26]
 625 01aa 1B68     	 ldr r3,[r3]
 626 01ac DA73     	 strb r2,[r3,#15]
1030:C:/Workspace/DAVE-4.4.2-64Bit/optiga-trust-m/optiga/cmd\optiga_cmd.c ****                 me->p_optiga->protection_level_state |= me->protection_level;
 627              	 .loc 1 1030 0
 628 01ae D122     	 mov r2,#209
 629 01b0 2168     	 ldr r1,[r4]
 630 01b2 D200     	 lsl r2,r2,#3
 631 01b4 8B5C     	 ldrb r3,[r1,r2]
 632 01b6 607E     	 ldrb r0,[r4,#25]
 633 01b8 0343     	 orr r3,r0
 634 01ba 8B54     	 strb r3,[r1,r2]
1031:C:/Workspace/DAVE-4.4.2-64Bit/optiga-trust-m/optiga/cmd\optiga_cmd.c **** #endif //OPTIGA_COMMS_SHIELDED_CONNECTION
1032:C:/Workspace/DAVE-4.4.2-64Bit/optiga-trust-m/optiga/cmd\optiga_cmd.c ****                 (void)optiga_comms_set_callback_context(p_optiga->p_optiga_comms, me);
 635              	 .loc 1 1032 0
 636 01bc 3868     	 ldr r0,[r7]
 637 01be 211C     	 mov r1,r4
 638 01c0 FFF7FEFF 	 bl optiga_comms_set_callback_context
 639              	.LVL49:
1033:C:/Workspace/DAVE-4.4.2-64Bit/optiga-trust-m/optiga/cmd\optiga_cmd.c ****                 me->exit_status = optiga_comms_transceive(p_optiga->p_optiga_comms,
 640              	 .loc 1 1033 0
 641 01c4 BB1D     	 add r3,r7,#6
 642 01c6 BA88     	 ldrh r2,[r7,#4]
 643 01c8 0093     	 str r3,[sp]
 644 01ca 0733     	 add r3,r3,#7
 645 01cc 3868     	 ldr r0,[r7]
 646 01ce 191C     	 mov r1,r3
 647 01d0 FFF7FEFF 	 bl optiga_comms_transceive
 648              	.LVL50:
 649 01d4 E083     	 strh r0,[r4,#30]
1034:C:/Workspace/DAVE-4.4.2-64Bit/optiga-trust-m/optiga/cmd\optiga_cmd.c ****                                                           p_optiga->optiga_comms_buffer,
1035:C:/Workspace/DAVE-4.4.2-64Bit/optiga-trust-m/optiga/cmd\optiga_cmd.c ****                                                           p_optiga->comms_tx_size,
1036:C:/Workspace/DAVE-4.4.2-64Bit/optiga-trust-m/optiga/cmd\optiga_cmd.c ****                                                           p_optiga->optiga_comms_buffer,
1037:C:/Workspace/DAVE-4.4.2-64Bit/optiga-trust-m/optiga/cmd\optiga_cmd.c ****                                                           &p_optiga->comms_rx_size);
1038:C:/Workspace/DAVE-4.4.2-64Bit/optiga-trust-m/optiga/cmd\optiga_cmd.c **** 
1039:C:/Workspace/DAVE-4.4.2-64Bit/optiga-trust-m/optiga/cmd\optiga_cmd.c ****                 if (OPTIGA_LIB_SUCCESS != me->exit_status)
 650              	 .loc 1 1039 0
 651 01d6 0028     	 cmp r0,#0
 652 01d8 00D0     	 beq .LCB604
 653 01da 70E7     	 b .L39
 654              	.LCB604:
1040:C:/Workspace/DAVE-4.4.2-64Bit/optiga-trust-m/optiga/cmd\optiga_cmd.c ****                 {
1041:C:/Workspace/DAVE-4.4.2-64Bit/optiga-trust-m/optiga/cmd\optiga_cmd.c ****                     EXIT_STATE_WITH_ERROR(me,exit_loop);
1042:C:/Workspace/DAVE-4.4.2-64Bit/optiga-trust-m/optiga/cmd\optiga_cmd.c ****                     break;
1043:C:/Workspace/DAVE-4.4.2-64Bit/optiga-trust-m/optiga/cmd\optiga_cmd.c ****                 }
1044:C:/Workspace/DAVE-4.4.2-64Bit/optiga-trust-m/optiga/cmd\optiga_cmd.c **** 
1045:C:/Workspace/DAVE-4.4.2-64Bit/optiga-trust-m/optiga/cmd\optiga_cmd.c ****                 me->cmd_next_execution_state = OPTIGA_CMD_EXEC_PROCESS_RESPONSE;
 655              	 .loc 1 1045 0
 656 01dc 0923     	 mov r3,#9
1046:C:/Workspace/DAVE-4.4.2-64Bit/optiga-trust-m/optiga/cmd\optiga_cmd.c ****                 SET_DEV_ERROR_NOTIFICATION(OPTIGA_CMD_ENTER_HANDLER_CALL);
 657              	 .loc 1 1046 0
 658 01de 227F     	 ldrb r2,[r4,#28]
1045:C:/Workspace/DAVE-4.4.2-64Bit/optiga-trust-m/optiga/cmd\optiga_cmd.c ****                 SET_DEV_ERROR_NOTIFICATION(OPTIGA_CMD_ENTER_HANDLER_CALL);
 659              	 .loc 1 1045 0
 660 01e0 A375     	 strb r3,[r4,#22]
 661              	 .loc 1 1046 0
 662 01e2 893B     	 sub r3,r3,#137
 663 01e4 1343     	 orr r3,r2
 664 01e6 2377     	 strb r3,[r4,#28]
1047:C:/Workspace/DAVE-4.4.2-64Bit/optiga-trust-m/optiga/cmd\optiga_cmd.c ****                 break;
 665              	 .loc 1 1047 0
 666 01e8 BEE0     	 b .L14
 667              	.LVL51:
 668              	.L30:
1048:C:/Workspace/DAVE-4.4.2-64Bit/optiga-trust-m/optiga/cmd\optiga_cmd.c ****             }
1049:C:/Workspace/DAVE-4.4.2-64Bit/optiga-trust-m/optiga/cmd\optiga_cmd.c ****             case OPTIGA_CMD_EXEC_PROCESS_RESPONSE:
1050:C:/Workspace/DAVE-4.4.2-64Bit/optiga-trust-m/optiga/cmd\optiga_cmd.c ****             {
1051:C:/Workspace/DAVE-4.4.2-64Bit/optiga-trust-m/optiga/cmd\optiga_cmd.c ****                 if (OPTIGA_CMD_ZERO_LENGTH_OR_VALUE != (me->device_error_status & OPTIGA_CMD_ENTER_
 669              	 .loc 1 1051 0
 670 01ea 237F     	 ldrb r3,[r4,#28]
 671 01ec 7F2B     	 cmp r3,#127
 672 01ee D2D9     	 bls .L45
1052:C:/Workspace/DAVE-4.4.2-64Bit/optiga-trust-m/optiga/cmd\optiga_cmd.c ****                 {
1053:C:/Workspace/DAVE-4.4.2-64Bit/optiga-trust-m/optiga/cmd\optiga_cmd.c ****                     me->exit_status = optiga_cmd_handler(me);
 673              	 .loc 1 1053 0
 674 01f0 201C     	 mov r0,r4
 675 01f2 039B     	 ldr r3,[sp,#12]
 676 01f4 9847     	 blx r3
 677              	.LVL52:
 678 01f6 E083     	 strh r0,[r4,#30]
1054:C:/Workspace/DAVE-4.4.2-64Bit/optiga-trust-m/optiga/cmd\optiga_cmd.c ****                 }
1055:C:/Workspace/DAVE-4.4.2-64Bit/optiga-trust-m/optiga/cmd\optiga_cmd.c ****                 else
1056:C:/Workspace/DAVE-4.4.2-64Bit/optiga-trust-m/optiga/cmd\optiga_cmd.c ****                 {
1057:C:/Workspace/DAVE-4.4.2-64Bit/optiga-trust-m/optiga/cmd\optiga_cmd.c ****                     me->cmd_next_execution_state = OPTIGA_CMD_EXEC_RELEASE_LOCK;
1058:C:/Workspace/DAVE-4.4.2-64Bit/optiga-trust-m/optiga/cmd\optiga_cmd.c ****                     exit_loop = FALSE;
1059:C:/Workspace/DAVE-4.4.2-64Bit/optiga-trust-m/optiga/cmd\optiga_cmd.c ****                     break;
1060:C:/Workspace/DAVE-4.4.2-64Bit/optiga-trust-m/optiga/cmd\optiga_cmd.c ****                 }
1061:C:/Workspace/DAVE-4.4.2-64Bit/optiga-trust-m/optiga/cmd\optiga_cmd.c ****                 if (OPTIGA_LIB_SUCCESS == me->exit_status)
 679              	 .loc 1 1061 0
 680 01f8 0028     	 cmp r0,#0
 681 01fa 21D1     	 bne .L46
1062:C:/Workspace/DAVE-4.4.2-64Bit/optiga-trust-m/optiga/cmd\optiga_cmd.c ****                 {
1063:C:/Workspace/DAVE-4.4.2-64Bit/optiga-trust-m/optiga/cmd\optiga_cmd.c ****                     if (FALSE == me->chaining_ongoing)
 682              	 .loc 1 1063 0
 683 01fc E07D     	 ldrb r0,[r4,#23]
 684 01fe 0028     	 cmp r0,#0
 685 0200 03D1     	 bne .L47
1064:C:/Workspace/DAVE-4.4.2-64Bit/optiga-trust-m/optiga/cmd\optiga_cmd.c ****                     {
1065:C:/Workspace/DAVE-4.4.2-64Bit/optiga-trust-m/optiga/cmd\optiga_cmd.c ****                         if (OPTIGA_CMD_STATE_EXIT != me->cmd_next_execution_state)
 686              	 .loc 1 1065 0
 687 0202 A37D     	 ldrb r3,[r4,#22]
 688 0204 0C2B     	 cmp r3,#12
 689 0206 C6D1     	 bne .L45
 690 0208 5DE7     	 b .L53
 691              	.L47:
 692 020a CF23     	 mov r3,#207
 693 020c 2268     	 ldr r2,[r4]
 694 020e DB00     	 lsl r3,r3,#3
 695 0210 5749     	 ldr r1,.L80+4
1066:C:/Workspace/DAVE-4.4.2-64Bit/optiga-trust-m/optiga/cmd\optiga_cmd.c ****                         {
1067:C:/Workspace/DAVE-4.4.2-64Bit/optiga-trust-m/optiga/cmd\optiga_cmd.c ****                             me->cmd_next_execution_state = OPTIGA_CMD_EXEC_RELEASE_LOCK;
1068:C:/Workspace/DAVE-4.4.2-64Bit/optiga-trust-m/optiga/cmd\optiga_cmd.c ****                         }
1069:C:/Workspace/DAVE-4.4.2-64Bit/optiga-trust-m/optiga/cmd\optiga_cmd.c ****                         exit_loop = FALSE;
1070:C:/Workspace/DAVE-4.4.2-64Bit/optiga-trust-m/optiga/cmd\optiga_cmd.c ****                         break;
1071:C:/Workspace/DAVE-4.4.2-64Bit/optiga-trust-m/optiga/cmd\optiga_cmd.c ****                     }
1072:C:/Workspace/DAVE-4.4.2-64Bit/optiga-trust-m/optiga/cmd\optiga_cmd.c ****                     // for chaining, trigger preparing of next command
1073:C:/Workspace/DAVE-4.4.2-64Bit/optiga-trust-m/optiga/cmd\optiga_cmd.c ****                     else if (TRUE == me->chaining_ongoing)
 696              	 .loc 1 1073 0
 697 0212 0128     	 cmp r0,#1
 698 0214 0BD1     	 bne .L48
1074:C:/Workspace/DAVE-4.4.2-64Bit/optiga-trust-m/optiga/cmd\optiga_cmd.c ****                     {
1075:C:/Workspace/DAVE-4.4.2-64Bit/optiga-trust-m/optiga/cmd\optiga_cmd.c ****                         pal_os_event_register_callback_oneshot(me->p_optiga->p_pal_os_event_ctx,
 699              	 .loc 1 1075 0
 700 0216 D058     	 ldr r0,[r2,r3]
 701 0218 FA23     	 mov r3,#250
 702 021a 221C     	 mov r2,r4
 703 021c 9B00     	 lsl r3,r3,#2
 704 021e FFF7FEFF 	 bl pal_os_event_register_callback_oneshot
 705              	.LVL53:
1076:C:/Workspace/DAVE-4.4.2-64Bit/optiga-trust-m/optiga/cmd\optiga_cmd.c ****                                                                (register_callback)optiga_cmd_event_
1077:C:/Workspace/DAVE-4.4.2-64Bit/optiga-trust-m/optiga/cmd\optiga_cmd.c ****                                                                (void*)me,
1078:C:/Workspace/DAVE-4.4.2-64Bit/optiga-trust-m/optiga/cmd\optiga_cmd.c ****                                                                OPTIGA_CMD_SCHEDULER_IDLING_TIME_MS)
1079:C:/Workspace/DAVE-4.4.2-64Bit/optiga-trust-m/optiga/cmd\optiga_cmd.c ****                         exit_loop = TRUE;
1080:C:/Workspace/DAVE-4.4.2-64Bit/optiga-trust-m/optiga/cmd\optiga_cmd.c **** 
1081:C:/Workspace/DAVE-4.4.2-64Bit/optiga-trust-m/optiga/cmd\optiga_cmd.c **** #ifdef OPTIGA_COMMS_SHIELDED_CONNECTION
1082:C:/Workspace/DAVE-4.4.2-64Bit/optiga-trust-m/optiga/cmd\optiga_cmd.c ****                         me->protection_level &= OPTIGA_PROTECTION_LEVEL_MASK;
 706              	 .loc 1 1082 0
 707 0222 0323     	 mov r3,#3
 708 0224 627E     	 ldrb r2,[r4,#25]
 709 0226 1340     	 and r3,r2
 710 0228 6376     	 strb r3,[r4,#25]
1083:C:/Workspace/DAVE-4.4.2-64Bit/optiga-trust-m/optiga/cmd\optiga_cmd.c **** #endif //OPTIGA_COMMS_SHIELDED_CONNECTION
1084:C:/Workspace/DAVE-4.4.2-64Bit/optiga-trust-m/optiga/cmd\optiga_cmd.c **** 
1085:C:/Workspace/DAVE-4.4.2-64Bit/optiga-trust-m/optiga/cmd\optiga_cmd.c ****                         me->cmd_next_execution_state = OPTIGA_CMD_EXEC_PREPARE_COMMAND;
 711              	 .loc 1 1085 0
 712 022a 0823     	 mov r3,#8
 713 022c 06E0     	 b .L79
 714              	.LVL54:
 715              	.L48:
1086:C:/Workspace/DAVE-4.4.2-64Bit/optiga-trust-m/optiga/cmd\optiga_cmd.c ****                     }
1087:C:/Workspace/DAVE-4.4.2-64Bit/optiga-trust-m/optiga/cmd\optiga_cmd.c ****                     // After successful Close Application, change state to invoke optiga_comms_clos
1088:C:/Workspace/DAVE-4.4.2-64Bit/optiga-trust-m/optiga/cmd\optiga_cmd.c ****                     else
1089:C:/Workspace/DAVE-4.4.2-64Bit/optiga-trust-m/optiga/cmd\optiga_cmd.c ****                     {
1090:C:/Workspace/DAVE-4.4.2-64Bit/optiga-trust-m/optiga/cmd\optiga_cmd.c ****                         pal_os_event_register_callback_oneshot(me->p_optiga->p_pal_os_event_ctx,
 716              	 .loc 1 1090 0
 717 022e D058     	 ldr r0,[r2,r3]
 718 0230 FA23     	 mov r3,#250
 719 0232 221C     	 mov r2,r4
 720 0234 9B00     	 lsl r3,r3,#2
 721 0236 FFF7FEFF 	 bl pal_os_event_register_callback_oneshot
 722              	.LVL55:
1091:C:/Workspace/DAVE-4.4.2-64Bit/optiga-trust-m/optiga/cmd\optiga_cmd.c ****                                                                (register_callback)optiga_cmd_event_
1092:C:/Workspace/DAVE-4.4.2-64Bit/optiga-trust-m/optiga/cmd\optiga_cmd.c ****                                                                me,
1093:C:/Workspace/DAVE-4.4.2-64Bit/optiga-trust-m/optiga/cmd\optiga_cmd.c ****                                                                OPTIGA_CMD_SCHEDULER_IDLING_TIME_MS)
1094:C:/Workspace/DAVE-4.4.2-64Bit/optiga-trust-m/optiga/cmd\optiga_cmd.c ****                         exit_loop=TRUE;
1095:C:/Workspace/DAVE-4.4.2-64Bit/optiga-trust-m/optiga/cmd\optiga_cmd.c ****                         me->cmd_next_execution_state = OPTIGA_CMD_EXEC_COMMS_CLOSE_START;
 723              	 .loc 1 1095 0
 724 023a 0323     	 mov r3,#3
 725              	.L79:
 726 023c A375     	 strb r3,[r4,#22]
 727 023e 93E0     	 b .L14
 728              	.LVL56:
 729              	.L46:
1096:C:/Workspace/DAVE-4.4.2-64Bit/optiga-trust-m/optiga/cmd\optiga_cmd.c ****                     }
1097:C:/Workspace/DAVE-4.4.2-64Bit/optiga-trust-m/optiga/cmd\optiga_cmd.c ****                 }
1098:C:/Workspace/DAVE-4.4.2-64Bit/optiga-trust-m/optiga/cmd\optiga_cmd.c ****                 else
1099:C:/Workspace/DAVE-4.4.2-64Bit/optiga-trust-m/optiga/cmd\optiga_cmd.c ****                 {
1100:C:/Workspace/DAVE-4.4.2-64Bit/optiga-trust-m/optiga/cmd\optiga_cmd.c ****                     // After OPTIGA error is analyzed, invoke upper layer handler and release lock
1101:C:/Workspace/DAVE-4.4.2-64Bit/optiga-trust-m/optiga/cmd\optiga_cmd.c ****                     if (OPTIGA_CMD_ERROR_MEMORY_INSUFFICIENT == me->exit_status)
 730              	 .loc 1 1101 0
 731 0240 8123     	 mov r3,#129
 732 0242 9B00     	 lsl r3,r3,#2
 733 0244 9842     	 cmp r0,r3
 734 0246 A6D0     	 beq .L45
1102:C:/Workspace/DAVE-4.4.2-64Bit/optiga-trust-m/optiga/cmd\optiga_cmd.c ****                     {
1103:C:/Workspace/DAVE-4.4.2-64Bit/optiga-trust-m/optiga/cmd\optiga_cmd.c ****                         me->cmd_next_execution_state = OPTIGA_CMD_EXEC_RELEASE_LOCK;
1104:C:/Workspace/DAVE-4.4.2-64Bit/optiga-trust-m/optiga/cmd\optiga_cmd.c ****                         exit_loop = FALSE;
1105:C:/Workspace/DAVE-4.4.2-64Bit/optiga-trust-m/optiga/cmd\optiga_cmd.c ****                         break;
1106:C:/Workspace/DAVE-4.4.2-64Bit/optiga-trust-m/optiga/cmd\optiga_cmd.c ****                     }
1107:C:/Workspace/DAVE-4.4.2-64Bit/optiga-trust-m/optiga/cmd\optiga_cmd.c ****                     // After OPTIGA responds with failure, invoke the next state to check which err
1108:C:/Workspace/DAVE-4.4.2-64Bit/optiga-trust-m/optiga/cmd\optiga_cmd.c ****                     else
1109:C:/Workspace/DAVE-4.4.2-64Bit/optiga-trust-m/optiga/cmd\optiga_cmd.c ****                     {
1110:C:/Workspace/DAVE-4.4.2-64Bit/optiga-trust-m/optiga/cmd\optiga_cmd.c ****                         me->cmd_next_execution_state = OPTIGA_CMD_EXEC_GET_DEVICE_ERROR;
1111:C:/Workspace/DAVE-4.4.2-64Bit/optiga-trust-m/optiga/cmd\optiga_cmd.c ****                         SET_DEV_ERROR_HANDLER_STATE(OPTIGA_CMD_ERROR_CODE_PREPARE);
 735              	 .loc 1 1111 0
 736 0248 0322     	 mov r2,#3
1110:C:/Workspace/DAVE-4.4.2-64Bit/optiga-trust-m/optiga/cmd\optiga_cmd.c ****                         SET_DEV_ERROR_HANDLER_STATE(OPTIGA_CMD_ERROR_CODE_PREPARE);
 737              	 .loc 1 1110 0
 738 024a FB3B     	 sub r3,r3,#251
 739 024c FF3B     	 sub r3,r3,#255
 740 024e A375     	 strb r3,[r4,#22]
 741              	 .loc 1 1111 0
 742 0250 237F     	 ldrb r3,[r4,#28]
 743 0252 9343     	 bic r3,r2
 744 0254 023A     	 sub r2,r2,#2
 745 0256 1343     	 orr r3,r2
 746 0258 2377     	 strb r3,[r4,#28]
 747              	.LVL57:
 748 025a 34E7     	 b .L53
 749              	.LVL58:
 750              	.L31:
 751              	.LBB110:
 752              	.LBB111:
1112:C:/Workspace/DAVE-4.4.2-64Bit/optiga-trust-m/optiga/cmd\optiga_cmd.c ****                         exit_loop=FALSE;
1113:C:/Workspace/DAVE-4.4.2-64Bit/optiga-trust-m/optiga/cmd\optiga_cmd.c ****                     }
1114:C:/Workspace/DAVE-4.4.2-64Bit/optiga-trust-m/optiga/cmd\optiga_cmd.c ****                 }
1115:C:/Workspace/DAVE-4.4.2-64Bit/optiga-trust-m/optiga/cmd\optiga_cmd.c ****                 break;
1116:C:/Workspace/DAVE-4.4.2-64Bit/optiga-trust-m/optiga/cmd\optiga_cmd.c ****             }
1117:C:/Workspace/DAVE-4.4.2-64Bit/optiga-trust-m/optiga/cmd\optiga_cmd.c ****             case OPTIGA_CMD_EXEC_GET_DEVICE_ERROR:
1118:C:/Workspace/DAVE-4.4.2-64Bit/optiga-trust-m/optiga/cmd\optiga_cmd.c ****             {
1119:C:/Workspace/DAVE-4.4.2-64Bit/optiga-trust-m/optiga/cmd\optiga_cmd.c ****                 exit_loop=TRUE;
1120:C:/Workspace/DAVE-4.4.2-64Bit/optiga-trust-m/optiga/cmd\optiga_cmd.c ****                 me->exit_status = optiga_cmd_get_error_code_handler(me);
1121:C:/Workspace/DAVE-4.4.2-64Bit/optiga-trust-m/optiga/cmd\optiga_cmd.c ****                 if (((OPTIGA_LIB_SUCCESS != me->exit_status) && !(OPTIGA_DEVICE_ERROR & me->exit_st
1122:C:/Workspace/DAVE-4.4.2-64Bit/optiga-trust-m/optiga/cmd\optiga_cmd.c ****                     ((OPTIGA_DEVICE_ERROR == me->exit_status) &&
1123:C:/Workspace/DAVE-4.4.2-64Bit/optiga-trust-m/optiga/cmd\optiga_cmd.c ****                     ((me->device_error_status & OPTIGA_CMD_ERROR_CODE_STATE_MASK) == OPTIGA_CMD_ERR
1124:C:/Workspace/DAVE-4.4.2-64Bit/optiga-trust-m/optiga/cmd\optiga_cmd.c ****                 {
1125:C:/Workspace/DAVE-4.4.2-64Bit/optiga-trust-m/optiga/cmd\optiga_cmd.c ****                     exit_loop=FALSE;
1126:C:/Workspace/DAVE-4.4.2-64Bit/optiga-trust-m/optiga/cmd\optiga_cmd.c ****                     me->cmd_next_execution_state = OPTIGA_CMD_EXEC_RELEASE_LOCK;
1127:C:/Workspace/DAVE-4.4.2-64Bit/optiga-trust-m/optiga/cmd\optiga_cmd.c ****                 }
1128:C:/Workspace/DAVE-4.4.2-64Bit/optiga-trust-m/optiga/cmd\optiga_cmd.c ****                 break;
1129:C:/Workspace/DAVE-4.4.2-64Bit/optiga-trust-m/optiga/cmd\optiga_cmd.c ****             }
1130:C:/Workspace/DAVE-4.4.2-64Bit/optiga-trust-m/optiga/cmd\optiga_cmd.c ****             case OPTIGA_CMD_EXEC_RELEASE_LOCK:
1131:C:/Workspace/DAVE-4.4.2-64Bit/optiga-trust-m/optiga/cmd\optiga_cmd.c ****             {
1132:C:/Workspace/DAVE-4.4.2-64Bit/optiga-trust-m/optiga/cmd\optiga_cmd.c ****                 //lint --e{534} suppress "The return code is not checked because this is exit state
1133:C:/Workspace/DAVE-4.4.2-64Bit/optiga-trust-m/optiga/cmd\optiga_cmd.c ****                 optiga_cmd_release_lock(me);
1134:C:/Workspace/DAVE-4.4.2-64Bit/optiga-trust-m/optiga/cmd\optiga_cmd.c ****                 me->cmd_next_execution_state = OPTIGA_CMD_STATE_EXIT;
1135:C:/Workspace/DAVE-4.4.2-64Bit/optiga-trust-m/optiga/cmd\optiga_cmd.c ****                 exit_loop=FALSE;
1136:C:/Workspace/DAVE-4.4.2-64Bit/optiga-trust-m/optiga/cmd\optiga_cmd.c ****                 break;
1137:C:/Workspace/DAVE-4.4.2-64Bit/optiga-trust-m/optiga/cmd\optiga_cmd.c ****             }
1138:C:/Workspace/DAVE-4.4.2-64Bit/optiga-trust-m/optiga/cmd\optiga_cmd.c ****             case OPTIGA_CMD_STATE_EXIT:
1139:C:/Workspace/DAVE-4.4.2-64Bit/optiga-trust-m/optiga/cmd\optiga_cmd.c ****             {
1140:C:/Workspace/DAVE-4.4.2-64Bit/optiga-trust-m/optiga/cmd\optiga_cmd.c ****                 me->handler(me->caller_context, me->exit_status);
1141:C:/Workspace/DAVE-4.4.2-64Bit/optiga-trust-m/optiga/cmd\optiga_cmd.c ****                 exit_loop=TRUE;
1142:C:/Workspace/DAVE-4.4.2-64Bit/optiga-trust-m/optiga/cmd\optiga_cmd.c ****                 break;
1143:C:/Workspace/DAVE-4.4.2-64Bit/optiga-trust-m/optiga/cmd\optiga_cmd.c ****             }
1144:C:/Workspace/DAVE-4.4.2-64Bit/optiga-trust-m/optiga/cmd\optiga_cmd.c ****         }
1145:C:/Workspace/DAVE-4.4.2-64Bit/optiga-trust-m/optiga/cmd\optiga_cmd.c ****     } while (FALSE == exit_loop);
1146:C:/Workspace/DAVE-4.4.2-64Bit/optiga-trust-m/optiga/cmd\optiga_cmd.c **** }
1147:C:/Workspace/DAVE-4.4.2-64Bit/optiga-trust-m/optiga/cmd\optiga_cmd.c **** 
1148:C:/Workspace/DAVE-4.4.2-64Bit/optiga-trust-m/optiga/cmd\optiga_cmd.c **** optiga_cmd_t * optiga_cmd_create(uint8_t optiga_instance_id, callback_handler_t handler, void * cal
1149:C:/Workspace/DAVE-4.4.2-64Bit/optiga-trust-m/optiga/cmd\optiga_cmd.c **** {
1150:C:/Workspace/DAVE-4.4.2-64Bit/optiga-trust-m/optiga/cmd\optiga_cmd.c ****     optiga_cmd_t * me = NULL;
1151:C:/Workspace/DAVE-4.4.2-64Bit/optiga-trust-m/optiga/cmd\optiga_cmd.c **** 
1152:C:/Workspace/DAVE-4.4.2-64Bit/optiga-trust-m/optiga/cmd\optiga_cmd.c ****     pal_os_lock_enter_critical_section();
1153:C:/Workspace/DAVE-4.4.2-64Bit/optiga-trust-m/optiga/cmd\optiga_cmd.c ****     do
1154:C:/Workspace/DAVE-4.4.2-64Bit/optiga-trust-m/optiga/cmd\optiga_cmd.c ****     {
1155:C:/Workspace/DAVE-4.4.2-64Bit/optiga-trust-m/optiga/cmd\optiga_cmd.c ****         // Get number of free slots
1156:C:/Workspace/DAVE-4.4.2-64Bit/optiga-trust-m/optiga/cmd\optiga_cmd.c ****         if (0 == optiga_cmd_queue_get_count_of(g_optiga_list[optiga_instance_id],
1157:C:/Workspace/DAVE-4.4.2-64Bit/optiga-trust-m/optiga/cmd\optiga_cmd.c ****                                                OPTIGA_CMD_QUEUE_SLOT_STATE,
1158:C:/Workspace/DAVE-4.4.2-64Bit/optiga-trust-m/optiga/cmd\optiga_cmd.c ****                                                OPTIGA_CMD_QUEUE_NOT_ASSIGNED))
1159:C:/Workspace/DAVE-4.4.2-64Bit/optiga-trust-m/optiga/cmd\optiga_cmd.c ****         {
1160:C:/Workspace/DAVE-4.4.2-64Bit/optiga-trust-m/optiga/cmd\optiga_cmd.c ****             break;
1161:C:/Workspace/DAVE-4.4.2-64Bit/optiga-trust-m/optiga/cmd\optiga_cmd.c ****         }
1162:C:/Workspace/DAVE-4.4.2-64Bit/optiga-trust-m/optiga/cmd\optiga_cmd.c **** 
1163:C:/Workspace/DAVE-4.4.2-64Bit/optiga-trust-m/optiga/cmd\optiga_cmd.c ****         me = (optiga_cmd_t *)pal_os_calloc(1, sizeof(optiga_cmd_t));
1164:C:/Workspace/DAVE-4.4.2-64Bit/optiga-trust-m/optiga/cmd\optiga_cmd.c ****         if (NULL == me)
1165:C:/Workspace/DAVE-4.4.2-64Bit/optiga-trust-m/optiga/cmd\optiga_cmd.c ****         {
1166:C:/Workspace/DAVE-4.4.2-64Bit/optiga-trust-m/optiga/cmd\optiga_cmd.c ****             break;
1167:C:/Workspace/DAVE-4.4.2-64Bit/optiga-trust-m/optiga/cmd\optiga_cmd.c ****         }
1168:C:/Workspace/DAVE-4.4.2-64Bit/optiga-trust-m/optiga/cmd\optiga_cmd.c **** 
1169:C:/Workspace/DAVE-4.4.2-64Bit/optiga-trust-m/optiga/cmd\optiga_cmd.c ****         me->handler = handler;
1170:C:/Workspace/DAVE-4.4.2-64Bit/optiga-trust-m/optiga/cmd\optiga_cmd.c ****         me->caller_context = caller_context;
1171:C:/Workspace/DAVE-4.4.2-64Bit/optiga-trust-m/optiga/cmd\optiga_cmd.c **** 
1172:C:/Workspace/DAVE-4.4.2-64Bit/optiga-trust-m/optiga/cmd\optiga_cmd.c ****         me->p_optiga = g_optiga_list[optiga_instance_id];
1173:C:/Workspace/DAVE-4.4.2-64Bit/optiga-trust-m/optiga/cmd\optiga_cmd.c ****         me->optiga_context_datastore_id = g_hibernate_datastore_id_list[optiga_instance_id];
1174:C:/Workspace/DAVE-4.4.2-64Bit/optiga-trust-m/optiga/cmd\optiga_cmd.c **** 
1175:C:/Workspace/DAVE-4.4.2-64Bit/optiga-trust-m/optiga/cmd\optiga_cmd.c ****         if (FALSE == me->p_optiga->instance_init_state)
1176:C:/Workspace/DAVE-4.4.2-64Bit/optiga-trust-m/optiga/cmd\optiga_cmd.c ****         {
1177:C:/Workspace/DAVE-4.4.2-64Bit/optiga-trust-m/optiga/cmd\optiga_cmd.c ****             me->p_optiga->instance_init_state = TRUE;
1178:C:/Workspace/DAVE-4.4.2-64Bit/optiga-trust-m/optiga/cmd\optiga_cmd.c ****             //create pal os event
1179:C:/Workspace/DAVE-4.4.2-64Bit/optiga-trust-m/optiga/cmd\optiga_cmd.c ****             me->p_optiga->p_pal_os_event_ctx = pal_os_event_create(optiga_cmd_queue_scheduler, me->
1180:C:/Workspace/DAVE-4.4.2-64Bit/optiga-trust-m/optiga/cmd\optiga_cmd.c ****             me->p_optiga->p_optiga_comms = optiga_comms_create(optiga_cmd_execute_handler, me);
1181:C:/Workspace/DAVE-4.4.2-64Bit/optiga-trust-m/optiga/cmd\optiga_cmd.c ****             me->p_optiga->p_optiga_comms->p_pal_os_event_ctx = me->p_optiga->p_pal_os_event_ctx;
1182:C:/Workspace/DAVE-4.4.2-64Bit/optiga-trust-m/optiga/cmd\optiga_cmd.c ****         }
1183:C:/Workspace/DAVE-4.4.2-64Bit/optiga-trust-m/optiga/cmd\optiga_cmd.c ****         // attach optiga cmd queue entry
1184:C:/Workspace/DAVE-4.4.2-64Bit/optiga-trust-m/optiga/cmd\optiga_cmd.c ****         optiga_cmd_queue_assign_slot(me, &(me->queue_id));
1185:C:/Workspace/DAVE-4.4.2-64Bit/optiga-trust-m/optiga/cmd\optiga_cmd.c ****     } while (FALSE);
1186:C:/Workspace/DAVE-4.4.2-64Bit/optiga-trust-m/optiga/cmd\optiga_cmd.c **** 
1187:C:/Workspace/DAVE-4.4.2-64Bit/optiga-trust-m/optiga/cmd\optiga_cmd.c ****     pal_os_lock_exit_critical_section();
1188:C:/Workspace/DAVE-4.4.2-64Bit/optiga-trust-m/optiga/cmd\optiga_cmd.c ****     return (me);
1189:C:/Workspace/DAVE-4.4.2-64Bit/optiga-trust-m/optiga/cmd\optiga_cmd.c **** }
1190:C:/Workspace/DAVE-4.4.2-64Bit/optiga-trust-m/optiga/cmd\optiga_cmd.c **** 
1191:C:/Workspace/DAVE-4.4.2-64Bit/optiga-trust-m/optiga/cmd\optiga_cmd.c **** optiga_lib_status_t optiga_cmd_destroy(optiga_cmd_t * me)
1192:C:/Workspace/DAVE-4.4.2-64Bit/optiga-trust-m/optiga/cmd\optiga_cmd.c **** {
1193:C:/Workspace/DAVE-4.4.2-64Bit/optiga-trust-m/optiga/cmd\optiga_cmd.c ****     optiga_lib_status_t return_status = OPTIGA_CMD_ERROR;
1194:C:/Workspace/DAVE-4.4.2-64Bit/optiga-trust-m/optiga/cmd\optiga_cmd.c ****     do
1195:C:/Workspace/DAVE-4.4.2-64Bit/optiga-trust-m/optiga/cmd\optiga_cmd.c ****     {
1196:C:/Workspace/DAVE-4.4.2-64Bit/optiga-trust-m/optiga/cmd\optiga_cmd.c ****         if (NULL != me)
1197:C:/Workspace/DAVE-4.4.2-64Bit/optiga-trust-m/optiga/cmd\optiga_cmd.c ****         {
1198:C:/Workspace/DAVE-4.4.2-64Bit/optiga-trust-m/optiga/cmd\optiga_cmd.c ****             return_status = optiga_cmd_release_session(me);
1199:C:/Workspace/DAVE-4.4.2-64Bit/optiga-trust-m/optiga/cmd\optiga_cmd.c ****             // attach optiga cmd queue entry
1200:C:/Workspace/DAVE-4.4.2-64Bit/optiga-trust-m/optiga/cmd\optiga_cmd.c ****             optiga_cmd_queue_deassign_slot(me);
1201:C:/Workspace/DAVE-4.4.2-64Bit/optiga-trust-m/optiga/cmd\optiga_cmd.c ****             pal_os_free(me);
1202:C:/Workspace/DAVE-4.4.2-64Bit/optiga-trust-m/optiga/cmd\optiga_cmd.c ****             return_status = OPTIGA_LIB_SUCCESS;
1203:C:/Workspace/DAVE-4.4.2-64Bit/optiga-trust-m/optiga/cmd\optiga_cmd.c ****         }
1204:C:/Workspace/DAVE-4.4.2-64Bit/optiga-trust-m/optiga/cmd\optiga_cmd.c ****     } while (FALSE);
1205:C:/Workspace/DAVE-4.4.2-64Bit/optiga-trust-m/optiga/cmd\optiga_cmd.c ****     return (return_status);
1206:C:/Workspace/DAVE-4.4.2-64Bit/optiga-trust-m/optiga/cmd\optiga_cmd.c **** }
1207:C:/Workspace/DAVE-4.4.2-64Bit/optiga-trust-m/optiga/cmd\optiga_cmd.c **** 
1208:C:/Workspace/DAVE-4.4.2-64Bit/optiga-trust-m/optiga/cmd\optiga_cmd.c **** 
1209:C:/Workspace/DAVE-4.4.2-64Bit/optiga-trust-m/optiga/cmd\optiga_cmd.c **** /*
1210:C:/Workspace/DAVE-4.4.2-64Bit/optiga-trust-m/optiga/cmd\optiga_cmd.c **** * Last error code handler
1211:C:/Workspace/DAVE-4.4.2-64Bit/optiga-trust-m/optiga/cmd\optiga_cmd.c **** */
1212:C:/Workspace/DAVE-4.4.2-64Bit/optiga-trust-m/optiga/cmd\optiga_cmd.c **** _STATIC_H optiga_lib_status_t optiga_cmd_get_error_code_handler(optiga_cmd_t * me)
1213:C:/Workspace/DAVE-4.4.2-64Bit/optiga-trust-m/optiga/cmd\optiga_cmd.c **** {
1214:C:/Workspace/DAVE-4.4.2-64Bit/optiga-trust-m/optiga/cmd\optiga_cmd.c ****     optiga_context_t * p_optiga;
1215:C:/Workspace/DAVE-4.4.2-64Bit/optiga-trust-m/optiga/cmd\optiga_cmd.c ****     optiga_lib_status_t return_status = OPTIGA_DEVICE_ERROR;
1216:C:/Workspace/DAVE-4.4.2-64Bit/optiga-trust-m/optiga/cmd\optiga_cmd.c ****     uint16_t index_for_data = OPTIGA_CMD_APDU_INDATA_OFFSET;
1217:C:/Workspace/DAVE-4.4.2-64Bit/optiga-trust-m/optiga/cmd\optiga_cmd.c **** 
1218:C:/Workspace/DAVE-4.4.2-64Bit/optiga-trust-m/optiga/cmd\optiga_cmd.c **** #define OFFSET                     (0x0000)
1219:C:/Workspace/DAVE-4.4.2-64Bit/optiga-trust-m/optiga/cmd\optiga_cmd.c **** #define BYTES_TO_READ              (0x0001)
1220:C:/Workspace/DAVE-4.4.2-64Bit/optiga-trust-m/optiga/cmd\optiga_cmd.c **** #define GET_DATA_OBJECT_CMD        (0x01)
1221:C:/Workspace/DAVE-4.4.2-64Bit/optiga-trust-m/optiga/cmd\optiga_cmd.c **** #define PARAM                      (0x00)
1222:C:/Workspace/DAVE-4.4.2-64Bit/optiga-trust-m/optiga/cmd\optiga_cmd.c **** 
1223:C:/Workspace/DAVE-4.4.2-64Bit/optiga-trust-m/optiga/cmd\optiga_cmd.c ****     p_optiga = me->p_optiga;
1224:C:/Workspace/DAVE-4.4.2-64Bit/optiga-trust-m/optiga/cmd\optiga_cmd.c **** 
1225:C:/Workspace/DAVE-4.4.2-64Bit/optiga-trust-m/optiga/cmd\optiga_cmd.c ****     switch (me->device_error_status & OPTIGA_CMD_ERROR_CODE_STATE_MASK)
 753              	 .loc 1 1225 0
 754 025c 0323     	 mov r3,#3
 755 025e 267F     	 ldrb r6,[r4,#28]
1223:C:/Workspace/DAVE-4.4.2-64Bit/optiga-trust-m/optiga/cmd\optiga_cmd.c **** 
 756              	 .loc 1 1223 0
 757 0260 2568     	 ldr r5,[r4]
 758              	.LVL59:
 759              	 .loc 1 1225 0
 760 0262 1E40     	 and r6,r3
 761 0264 022E     	 cmp r6,#2
 762 0266 2CD0     	 beq .L50
 763 0268 9E42     	 cmp r6,r3
 764 026a 48D0     	 beq .L51
 765 026c 012E     	 cmp r6,#1
 766 026e 5BD1     	 bne .L57
1226:C:/Workspace/DAVE-4.4.2-64Bit/optiga-trust-m/optiga/cmd\optiga_cmd.c ****     {
1227:C:/Workspace/DAVE-4.4.2-64Bit/optiga-trust-m/optiga/cmd\optiga_cmd.c ****         case OPTIGA_CMD_ERROR_CODE_PREPARE:
1228:C:/Workspace/DAVE-4.4.2-64Bit/optiga-trust-m/optiga/cmd\optiga_cmd.c ****         {
1229:C:/Workspace/DAVE-4.4.2-64Bit/optiga-trust-m/optiga/cmd\optiga_cmd.c ****             optiga_common_set_uint16((me->p_optiga->optiga_comms_buffer + index_for_data), OPTIGA_C
 767              	 .loc 1 1229 0
 768 0270 281C     	 mov r0,r5
 769 0272 4149     	 ldr r1,.L80+12
 770 0274 1630     	 add r0,r0,#22
 771 0276 FFF7FEFF 	 bl optiga_common_set_uint16
 772              	.LVL60:
1230:C:/Workspace/DAVE-4.4.2-64Bit/optiga-trust-m/optiga/cmd\optiga_cmd.c ****             index_for_data += OPTIGA_CMD_UINT16_SIZE_IN_BYTES;
1231:C:/Workspace/DAVE-4.4.2-64Bit/optiga-trust-m/optiga/cmd\optiga_cmd.c ****             optiga_common_set_uint16((me->p_optiga->optiga_comms_buffer + index_for_data), OFFSET);
 773              	 .loc 1 1231 0
 774 027a 2068     	 ldr r0,[r4]
 775 027c 0021     	 mov r1,#0
 776 027e 1830     	 add r0,r0,#24
 777 0280 FFF7FEFF 	 bl optiga_common_set_uint16
 778              	.LVL61:
1232:C:/Workspace/DAVE-4.4.2-64Bit/optiga-trust-m/optiga/cmd\optiga_cmd.c ****             index_for_data += OPTIGA_CMD_UINT16_SIZE_IN_BYTES;
1233:C:/Workspace/DAVE-4.4.2-64Bit/optiga-trust-m/optiga/cmd\optiga_cmd.c ****             optiga_common_set_uint16((me->p_optiga->optiga_comms_buffer + index_for_data), BYTES_TO
 779              	 .loc 1 1233 0
 780 0284 2068     	 ldr r0,[r4]
 781 0286 311C     	 mov r1,r6
 782 0288 1A30     	 add r0,r0,#26
 783 028a FFF7FEFF 	 bl optiga_common_set_uint16
 784              	.LVL62:
 785              	.LBB112:
 786              	.LBB113:
 422:C:/Workspace/DAVE-4.4.2-64Bit/optiga-trust-m/optiga/cmd\optiga_cmd.c ****     p_apdu_buffer [2] = (uint8_t)((in_data_length & 0xFF00) >> 8);
 787              	 .loc 1 422 0
 788 028e 0022     	 mov r2,#0
 789              	.LBE113:
 790              	.LBE112:
1234:C:/Workspace/DAVE-4.4.2-64Bit/optiga-trust-m/optiga/cmd\optiga_cmd.c ****             index_for_data += OPTIGA_CMD_UINT16_SIZE_IN_BYTES;
1235:C:/Workspace/DAVE-4.4.2-64Bit/optiga-trust-m/optiga/cmd\optiga_cmd.c **** 
1236:C:/Workspace/DAVE-4.4.2-64Bit/optiga-trust-m/optiga/cmd\optiga_cmd.c ****             optiga_cmd_prepare_apdu_header(GET_DATA_OBJECT_CMD,
1237:C:/Workspace/DAVE-4.4.2-64Bit/optiga-trust-m/optiga/cmd\optiga_cmd.c ****                                            PARAM,
1238:C:/Workspace/DAVE-4.4.2-64Bit/optiga-trust-m/optiga/cmd\optiga_cmd.c ****                                            (uint16_t)(index_for_data - OPTIGA_CMD_APDU_INDATA_OFFSE
1239:C:/Workspace/DAVE-4.4.2-64Bit/optiga-trust-m/optiga/cmd\optiga_cmd.c ****                                            me->p_optiga->optiga_comms_buffer + OPTIGA_COMMS_DATA_OF
 791              	 .loc 1 1239 0
 792 0290 2368     	 ldr r3,[r4]
 793              	.LVL63:
1240:C:/Workspace/DAVE-4.4.2-64Bit/optiga-trust-m/optiga/cmd\optiga_cmd.c **** 
1241:C:/Workspace/DAVE-4.4.2-64Bit/optiga-trust-m/optiga/cmd\optiga_cmd.c ****             me->p_optiga->comms_tx_size = (uint16_t)(index_for_data - OPTIGA_COMMS_DATA_OFFSET);
1242:C:/Workspace/DAVE-4.4.2-64Bit/optiga-trust-m/optiga/cmd\optiga_cmd.c ****             SET_DEV_ERROR_HANDLER_STATE(OPTIGA_CMD_ERROR_CODE_TX);
 794              	 .loc 1 1242 0
 795 0292 0321     	 mov r1,#3
 796              	.LBB115:
 797              	.LBB114:
 422:C:/Workspace/DAVE-4.4.2-64Bit/optiga-trust-m/optiga/cmd\optiga_cmd.c ****     p_apdu_buffer [2] = (uint8_t)((in_data_length & 0xFF00) >> 8);
 798              	 .loc 1 422 0
 799 0294 DA74     	 strb r2,[r3,#19]
 423:C:/Workspace/DAVE-4.4.2-64Bit/optiga-trust-m/optiga/cmd\optiga_cmd.c ****     p_apdu_buffer [3] = (uint8_t)(in_data_length & 0x00FF);
 800              	 .loc 1 423 0
 801 0296 1A75     	 strb r2,[r3,#20]
 424:C:/Workspace/DAVE-4.4.2-64Bit/optiga-trust-m/optiga/cmd\optiga_cmd.c **** }
 802              	 .loc 1 424 0
 803 0298 0632     	 add r2,r2,#6
 421:C:/Workspace/DAVE-4.4.2-64Bit/optiga-trust-m/optiga/cmd\optiga_cmd.c ****     p_apdu_buffer [1] = param;
 804              	 .loc 1 421 0
 805 029a 9E74     	 strb r6,[r3,#18]
 424:C:/Workspace/DAVE-4.4.2-64Bit/optiga-trust-m/optiga/cmd\optiga_cmd.c **** }
 806              	 .loc 1 424 0
 807 029c 5A75     	 strb r2,[r3,#21]
 808              	.LBE114:
 809              	.LBE115:
1241:C:/Workspace/DAVE-4.4.2-64Bit/optiga-trust-m/optiga/cmd\optiga_cmd.c ****             SET_DEV_ERROR_HANDLER_STATE(OPTIGA_CMD_ERROR_CODE_TX);
 810              	 .loc 1 1241 0
 811 029e 0A23     	 mov r3,#10
 812              	.LVL64:
 813 02a0 2268     	 ldr r2,[r4]
 814 02a2 9380     	 strh r3,[r2,#4]
 815              	 .loc 1 1242 0
 816 02a4 237F     	 ldrb r3,[r4,#28]
 817 02a6 8B43     	 bic r3,r1
 818 02a8 0139     	 sub r1,r1,#1
 819 02aa 0B43     	 orr r3,r1
 820 02ac 2377     	 strb r3,[r4,#28]
1243:C:/Workspace/DAVE-4.4.2-64Bit/optiga-trust-m/optiga/cmd\optiga_cmd.c ****             pal_os_event_register_callback_oneshot(me->p_optiga->p_pal_os_event_ctx,
 821              	 .loc 1 1243 0
 822 02ae CF23     	 mov r3,#207
 823 02b0 DB00     	 lsl r3,r3,#3
 824 02b2 D058     	 ldr r0,[r2,r3]
 825 02b4 FA23     	 mov r3,#250
 826 02b6 2E49     	 ldr r1,.L80+4
 827 02b8 221C     	 mov r2,r4
 828 02ba 9B00     	 lsl r3,r3,#2
 829 02bc FFF7FEFF 	 bl pal_os_event_register_callback_oneshot
 830              	.LVL65:
 831 02c0 32E0     	 b .L57
 832              	.LVL66:
 833              	.L50:
1244:C:/Workspace/DAVE-4.4.2-64Bit/optiga-trust-m/optiga/cmd\optiga_cmd.c ****                                                    (register_callback)optiga_cmd_event_trigger_exec
1245:C:/Workspace/DAVE-4.4.2-64Bit/optiga-trust-m/optiga/cmd\optiga_cmd.c ****                                                    me, OPTIGA_CMD_SCHEDULER_IDLING_TIME_MS);
1246:C:/Workspace/DAVE-4.4.2-64Bit/optiga-trust-m/optiga/cmd\optiga_cmd.c ****         }
1247:C:/Workspace/DAVE-4.4.2-64Bit/optiga-trust-m/optiga/cmd\optiga_cmd.c ****         break;
1248:C:/Workspace/DAVE-4.4.2-64Bit/optiga-trust-m/optiga/cmd\optiga_cmd.c ****         case OPTIGA_CMD_ERROR_CODE_TX:
1249:C:/Workspace/DAVE-4.4.2-64Bit/optiga-trust-m/optiga/cmd\optiga_cmd.c ****         {
1250:C:/Workspace/DAVE-4.4.2-64Bit/optiga-trust-m/optiga/cmd\optiga_cmd.c ****             me->p_optiga->comms_rx_size = OPTIGA_CMD_TOTAL_COMMS_BUFFER_SIZE;
 834              	 .loc 1 1250 0
 835 02c2 2C4B     	 ldr r3,.L80+8
1251:C:/Workspace/DAVE-4.4.2-64Bit/optiga-trust-m/optiga/cmd\optiga_cmd.c **** 
1252:C:/Workspace/DAVE-4.4.2-64Bit/optiga-trust-m/optiga/cmd\optiga_cmd.c **** #ifdef OPTIGA_COMMS_SHIELDED_CONNECTION
1253:C:/Workspace/DAVE-4.4.2-64Bit/optiga-trust-m/optiga/cmd\optiga_cmd.c ****             me->p_optiga->p_optiga_comms->protection_level = me->protection_level;
 836              	 .loc 1 1253 0
 837 02c4 2A68     	 ldr r2,[r5]
1250:C:/Workspace/DAVE-4.4.2-64Bit/optiga-trust-m/optiga/cmd\optiga_cmd.c **** 
 838              	 .loc 1 1250 0
 839 02c6 EB80     	 strh r3,[r5,#6]
 840              	 .loc 1 1253 0
 841 02c8 637E     	 ldrb r3,[r4,#25]
1254:C:/Workspace/DAVE-4.4.2-64Bit/optiga-trust-m/optiga/cmd\optiga_cmd.c ****             me->p_optiga->p_optiga_comms->protocol_version = me->protocol_version;
1255:C:/Workspace/DAVE-4.4.2-64Bit/optiga-trust-m/optiga/cmd\optiga_cmd.c **** #endif //OPTIGA_COMMS_SHIELDED_CONNECTION
1256:C:/Workspace/DAVE-4.4.2-64Bit/optiga-trust-m/optiga/cmd\optiga_cmd.c **** 
1257:C:/Workspace/DAVE-4.4.2-64Bit/optiga-trust-m/optiga/cmd\optiga_cmd.c ****             (void)optiga_comms_set_callback_context(p_optiga->p_optiga_comms, (void*)me);
 842              	 .loc 1 1257 0
 843 02ca 211C     	 mov r1,r4
1253:C:/Workspace/DAVE-4.4.2-64Bit/optiga-trust-m/optiga/cmd\optiga_cmd.c ****             me->p_optiga->p_optiga_comms->protocol_version = me->protocol_version;
 844              	 .loc 1 1253 0
 845 02cc 9373     	 strb r3,[r2,#14]
1254:C:/Workspace/DAVE-4.4.2-64Bit/optiga-trust-m/optiga/cmd\optiga_cmd.c ****             me->p_optiga->p_optiga_comms->protocol_version = me->protocol_version;
 846              	 .loc 1 1254 0
 847 02ce 2368     	 ldr r3,[r4]
 848 02d0 A27E     	 ldrb r2,[r4,#26]
 849 02d2 1B68     	 ldr r3,[r3]
 850 02d4 DA73     	 strb r2,[r3,#15]
 851              	 .loc 1 1257 0
 852 02d6 2868     	 ldr r0,[r5]
 853 02d8 FFF7FEFF 	 bl optiga_comms_set_callback_context
 854              	.LVL67:
1258:C:/Workspace/DAVE-4.4.2-64Bit/optiga-trust-m/optiga/cmd\optiga_cmd.c ****             return_status = optiga_comms_transceive(p_optiga->p_optiga_comms,
1259:C:/Workspace/DAVE-4.4.2-64Bit/optiga-trust-m/optiga/cmd\optiga_cmd.c ****                                                     p_optiga->optiga_comms_buffer,
1260:C:/Workspace/DAVE-4.4.2-64Bit/optiga-trust-m/optiga/cmd\optiga_cmd.c ****                                                     p_optiga->comms_tx_size,
1261:C:/Workspace/DAVE-4.4.2-64Bit/optiga-trust-m/optiga/cmd\optiga_cmd.c ****                                                     p_optiga->optiga_comms_buffer,
 855              	 .loc 1 1261 0
 856 02dc 2B1C     	 mov r3,r5
1258:C:/Workspace/DAVE-4.4.2-64Bit/optiga-trust-m/optiga/cmd\optiga_cmd.c ****             return_status = optiga_comms_transceive(p_optiga->p_optiga_comms,
 857              	 .loc 1 1258 0
 858 02de A91D     	 add r1,r5,#6
 859              	 .loc 1 1261 0
 860 02e0 0D33     	 add r3,r3,#13
1258:C:/Workspace/DAVE-4.4.2-64Bit/optiga-trust-m/optiga/cmd\optiga_cmd.c ****             return_status = optiga_comms_transceive(p_optiga->p_optiga_comms,
 861              	 .loc 1 1258 0
 862 02e2 AA88     	 ldrh r2,[r5,#4]
 863 02e4 0091     	 str r1,[sp]
 864 02e6 2868     	 ldr r0,[r5]
 865 02e8 191C     	 mov r1,r3
 866 02ea FFF7FEFF 	 bl optiga_comms_transceive
 867              	.LVL68:
 868 02ee 061E     	 sub r6,r0,#0
 869              	.LVL69:
1262:C:/Workspace/DAVE-4.4.2-64Bit/optiga-trust-m/optiga/cmd\optiga_cmd.c ****                                                     &p_optiga->comms_rx_size);
1263:C:/Workspace/DAVE-4.4.2-64Bit/optiga-trust-m/optiga/cmd\optiga_cmd.c ****             if (OPTIGA_COMMS_SUCCESS != return_status)
 870              	 .loc 1 1263 0
 871 02f0 18D1     	 bne .L56
1264:C:/Workspace/DAVE-4.4.2-64Bit/optiga-trust-m/optiga/cmd\optiga_cmd.c ****             {
1265:C:/Workspace/DAVE-4.4.2-64Bit/optiga-trust-m/optiga/cmd\optiga_cmd.c ****                 return_status = OPTIGA_CMD_ERROR;
1266:C:/Workspace/DAVE-4.4.2-64Bit/optiga-trust-m/optiga/cmd\optiga_cmd.c ****                 break;
1267:C:/Workspace/DAVE-4.4.2-64Bit/optiga-trust-m/optiga/cmd\optiga_cmd.c ****             }
1268:C:/Workspace/DAVE-4.4.2-64Bit/optiga-trust-m/optiga/cmd\optiga_cmd.c ****             SET_DEV_ERROR_HANDLER_STATE(OPTIGA_CMD_ERROR_CODE_RX);
 872              	 .loc 1 1268 0
 873 02f2 0322     	 mov r2,#3
 874 02f4 237F     	 ldrb r3,[r4,#28]
 875 02f6 9343     	 bic r3,r2
 876 02f8 1343     	 orr r3,r2
 877 02fa 2377     	 strb r3,[r4,#28]
 878 02fc 16E0     	 b .L49
 879              	.LVL70:
 880              	.L51:
1269:C:/Workspace/DAVE-4.4.2-64Bit/optiga-trust-m/optiga/cmd\optiga_cmd.c ****         }
1270:C:/Workspace/DAVE-4.4.2-64Bit/optiga-trust-m/optiga/cmd\optiga_cmd.c ****         break;
1271:C:/Workspace/DAVE-4.4.2-64Bit/optiga-trust-m/optiga/cmd\optiga_cmd.c ****         case OPTIGA_CMD_ERROR_CODE_RX:
1272:C:/Workspace/DAVE-4.4.2-64Bit/optiga-trust-m/optiga/cmd\optiga_cmd.c ****         {
1273:C:/Workspace/DAVE-4.4.2-64Bit/optiga-trust-m/optiga/cmd\optiga_cmd.c ****             if (OPTIGA_CMD_APDU_FAILURE == me->p_optiga->optiga_comms_buffer[OPTIGA_COMMS_DATA_OFFS
 881              	 .loc 1 1273 0
 882 02fe AB7C     	 ldrb r3,[r5,#18]
 883 0300 FF2B     	 cmp r3,#255
 884 0302 11D0     	 beq .L57
1274:C:/Workspace/DAVE-4.4.2-64Bit/optiga-trust-m/optiga/cmd\optiga_cmd.c ****             {
1275:C:/Workspace/DAVE-4.4.2-64Bit/optiga-trust-m/optiga/cmd\optiga_cmd.c ****                 break;
1276:C:/Workspace/DAVE-4.4.2-64Bit/optiga-trust-m/optiga/cmd\optiga_cmd.c ****             }
1277:C:/Workspace/DAVE-4.4.2-64Bit/optiga-trust-m/optiga/cmd\optiga_cmd.c ****             return_status = me->p_optiga->optiga_comms_buffer[OPTIGA_CMD_APDU_INDATA_OFFSET];
1278:C:/Workspace/DAVE-4.4.2-64Bit/optiga-trust-m/optiga/cmd\optiga_cmd.c ****             return_status = return_status | OPTIGA_DEVICE_ERROR;
 885              	 .loc 1 1278 0
 886 0304 8023     	 mov r3,#128
1277:C:/Workspace/DAVE-4.4.2-64Bit/optiga-trust-m/optiga/cmd\optiga_cmd.c ****             return_status = return_status | OPTIGA_DEVICE_ERROR;
 887              	 .loc 1 1277 0
 888 0306 AE7D     	 ldrb r6,[r5,#22]
 889              	.LVL71:
 890              	 .loc 1 1278 0
 891 0308 1B02     	 lsl r3,r3,#8
 892 030a 1E43     	 orr r6,r3
 893              	.LVL72:
1279:C:/Workspace/DAVE-4.4.2-64Bit/optiga-trust-m/optiga/cmd\optiga_cmd.c ****             me->cmd_next_execution_state = OPTIGA_CMD_EXEC_PROCESS_RESPONSE;
 894              	 .loc 1 1279 0
 895 030c 0923     	 mov r3,#9
 896 030e A375     	 strb r3,[r4,#22]
1280:C:/Workspace/DAVE-4.4.2-64Bit/optiga-trust-m/optiga/cmd\optiga_cmd.c ****             pal_os_event_register_callback_oneshot(me->p_optiga->p_pal_os_event_ctx,
 897              	 .loc 1 1280 0
 898 0310 CF23     	 mov r3,#207
 899 0312 DB00     	 lsl r3,r3,#3
 900 0314 E858     	 ldr r0,[r5,r3]
 901 0316 FA23     	 mov r3,#250
 902 0318 1549     	 ldr r1,.L80+4
 903 031a 221C     	 mov r2,r4
 904 031c 9B00     	 lsl r3,r3,#2
 905 031e FFF7FEFF 	 bl pal_os_event_register_callback_oneshot
 906              	.LVL73:
 907 0322 03E0     	 b .L49
 908              	.LVL74:
 909              	.L56:
1265:C:/Workspace/DAVE-4.4.2-64Bit/optiga-trust-m/optiga/cmd\optiga_cmd.c ****                 break;
 910              	 .loc 1 1265 0
 911 0324 114E     	 ldr r6,.L80
 912 0326 01E0     	 b .L49
 913              	.LVL75:
 914              	.L57:
1215:C:/Workspace/DAVE-4.4.2-64Bit/optiga-trust-m/optiga/cmd\optiga_cmd.c ****     uint16_t index_for_data = OPTIGA_CMD_APDU_INDATA_OFFSET;
 915              	 .loc 1 1215 0
 916 0328 8026     	 mov r6,#128
 917 032a 3602     	 lsl r6,r6,#8
 918              	.LVL76:
 919              	.L49:
 920              	.LBE111:
 921              	.LBE110:
1121:C:/Workspace/DAVE-4.4.2-64Bit/optiga-trust-m/optiga/cmd\optiga_cmd.c ****                     ((OPTIGA_DEVICE_ERROR == me->exit_status) &&
 922              	 .loc 1 1121 0
 923 032c 33B2     	 sxth r3,r6
1120:C:/Workspace/DAVE-4.4.2-64Bit/optiga-trust-m/optiga/cmd\optiga_cmd.c ****                 if (((OPTIGA_LIB_SUCCESS != me->exit_status) && !(OPTIGA_DEVICE_ERROR & me->exit_st
 924              	 .loc 1 1120 0
 925 032e E683     	 strh r6,[r4,#30]
1121:C:/Workspace/DAVE-4.4.2-64Bit/optiga-trust-m/optiga/cmd\optiga_cmd.c ****                     ((OPTIGA_DEVICE_ERROR == me->exit_status) &&
 926              	 .loc 1 1121 0
 927 0330 002B     	 cmp r3,#0
 928 0332 00DD     	 ble .LCB887
 929 0334 2FE7     	 b .L45
 930              	.LCB887:
1121:C:/Workspace/DAVE-4.4.2-64Bit/optiga-trust-m/optiga/cmd\optiga_cmd.c ****                     ((OPTIGA_DEVICE_ERROR == me->exit_status) &&
 931              	 .loc 1 1121 0 is_stmt 0 discriminator 1
 932 0336 8023     	 mov r3,#128
 933 0338 1B02     	 lsl r3,r3,#8
 934 033a 9E42     	 cmp r6,r3
 935 033c 14D1     	 bne .L14
 936              	.LVL77:
1122:C:/Workspace/DAVE-4.4.2-64Bit/optiga-trust-m/optiga/cmd\optiga_cmd.c ****                     ((me->device_error_status & OPTIGA_CMD_ERROR_CODE_STATE_MASK) == OPTIGA_CMD_ERR
 937              	 .loc 1 1122 0 is_stmt 1
 938 033e 0323     	 mov r3,#3
1123:C:/Workspace/DAVE-4.4.2-64Bit/optiga-trust-m/optiga/cmd\optiga_cmd.c ****                 {
 939              	 .loc 1 1123 0
 940 0340 227F     	 ldrb r2,[r4,#28]
1122:C:/Workspace/DAVE-4.4.2-64Bit/optiga-trust-m/optiga/cmd\optiga_cmd.c ****                     ((me->device_error_status & OPTIGA_CMD_ERROR_CODE_STATE_MASK) == OPTIGA_CMD_ERR
 941              	 .loc 1 1122 0
 942 0342 1340     	 and r3,r2
 943 0344 032B     	 cmp r3,#3
 944 0346 00D1     	 bne .LCB899
 945 0348 25E7     	 b .L45
 946              	.LCB899:
 947 034a 0DE0     	 b .L14
 948              	.LVL78:
 949              	.L32:
 950              	.LBB116:
 951              	.LBB117:
 782:C:/Workspace/DAVE-4.4.2-64Bit/optiga-trust-m/optiga/cmd\optiga_cmd.c ****     return (OPTIGA_CMD_SUCCESS);
 952              	 .loc 1 782 0
 953 034c 201C     	 mov r0,r4
 954 034e FFF7FEFF 	 bl optiga_cmd_queue_reset_slot
 955              	.LVL79:
 956              	.LBE117:
 957              	.LBE116:
1134:C:/Workspace/DAVE-4.4.2-64Bit/optiga-trust-m/optiga/cmd\optiga_cmd.c ****                 exit_loop=FALSE;
 958              	 .loc 1 1134 0
 959 0352 0C23     	 mov r3,#12
 960              	.LVL80:
 961              	.L74:
 962 0354 A375     	 strb r3,[r4,#22]
 963              	.LVL81:
1136:C:/Workspace/DAVE-4.4.2-64Bit/optiga-trust-m/optiga/cmd\optiga_cmd.c ****             }
 964              	 .loc 1 1136 0
 965 0356 B6E6     	 b .L53
 966              	.LVL82:
 967              	.L33:
1140:C:/Workspace/DAVE-4.4.2-64Bit/optiga-trust-m/optiga/cmd\optiga_cmd.c ****                 exit_loop=TRUE;
 968              	 .loc 1 1140 0
 969 0358 E18B     	 ldrh r1,[r4,#30]
 970 035a 2369     	 ldr r3,[r4,#16]
 971 035c E068     	 ldr r0,[r4,#12]
 972 035e 9847     	 blx r3
 973              	.LVL83:
1142:C:/Workspace/DAVE-4.4.2-64Bit/optiga-trust-m/optiga/cmd\optiga_cmd.c ****             }
 974              	 .loc 1 1142 0
 975 0360 02E0     	 b .L14
 976              	.LVL84:
 977              	.L20:
1145:C:/Workspace/DAVE-4.4.2-64Bit/optiga-trust-m/optiga/cmd\optiga_cmd.c **** }
 978              	 .loc 1 1145 0
 979 0362 002E     	 cmp r6,#0
 980 0364 00D1     	 bne .LCB949
 981 0366 AEE6     	 b .L53
 982              	.LCB949:
 983              	.LVL85:
 984              	.L14:
1146:C:/Workspace/DAVE-4.4.2-64Bit/optiga-trust-m/optiga/cmd\optiga_cmd.c **** 
 985              	 .loc 1 1146 0
 986 0368 05B0     	 add sp,sp,#20
 987              	 
 988              	.LVL86:
 989              	.LVL87:
 990 036a F0BD     	 pop {r4,r5,r6,r7,pc}
 991              	.L81:
 992              	 .align 2
 993              	.L80:
 994 036c 02020000 	 .word 514
 995 0370 00000000 	 .word optiga_cmd_event_trigger_execute
 996 0374 22060000 	 .word 1570
 997 0378 C2F10000 	 .word 61890
 998              	 .cfi_endproc
 999              	.LFE21:
 1001              	 .section .text.optiga_cmd_event_trigger_execute,"ax",%progbits
 1002              	 .align 1
 1003              	 .code 16
 1004              	 .thumb_func
 1006              	optiga_cmd_event_trigger_execute:
 1007              	.LFB3:
 444:C:/Workspace/DAVE-4.4.2-64Bit/optiga-trust-m/optiga/cmd\optiga_cmd.c ****     optiga_cmd_execute_handler(p_ctx, OPTIGA_LIB_SUCCESS);
 1008              	 .loc 1 444 0
 1009              	 .cfi_startproc
 1010              	.LVL88:
 1011 0000 08B5     	 push {r3,lr}
 1012              	.LCFI5:
 1013              	 .cfi_def_cfa_offset 8
 1014              	 .cfi_offset 3,-8
 1015              	 .cfi_offset 14,-4
 445:C:/Workspace/DAVE-4.4.2-64Bit/optiga-trust-m/optiga/cmd\optiga_cmd.c **** }
 1016              	 .loc 1 445 0
 1017 0002 0021     	 mov r1,#0
 1018 0004 FFF7FEFF 	 bl optiga_cmd_execute_handler
 1019              	.LVL89:
 446:C:/Workspace/DAVE-4.4.2-64Bit/optiga-trust-m/optiga/cmd\optiga_cmd.c **** 
 1020              	 .loc 1 446 0
 1021              	 
 1022 0008 08BD     	 pop {r3,pc}
 1023              	 .cfi_endproc
 1024              	.LFE3:
 1026              	 .section .text.optiga_cmd_get_data_object_handler,"ax",%progbits
 1027              	 .align 1
 1028              	 .code 16
 1029              	 .thumb_func
 1031              	optiga_cmd_get_data_object_handler:
 1032              	.LFB29:
1281:C:/Workspace/DAVE-4.4.2-64Bit/optiga-trust-m/optiga/cmd\optiga_cmd.c ****                                                    (register_callback)optiga_cmd_event_trigger_exec
1282:C:/Workspace/DAVE-4.4.2-64Bit/optiga-trust-m/optiga/cmd\optiga_cmd.c ****                                                    me, OPTIGA_CMD_SCHEDULER_IDLING_TIME_MS);
1283:C:/Workspace/DAVE-4.4.2-64Bit/optiga-trust-m/optiga/cmd\optiga_cmd.c ****         }
1284:C:/Workspace/DAVE-4.4.2-64Bit/optiga-trust-m/optiga/cmd\optiga_cmd.c ****         break;
1285:C:/Workspace/DAVE-4.4.2-64Bit/optiga-trust-m/optiga/cmd\optiga_cmd.c ****         default:
1286:C:/Workspace/DAVE-4.4.2-64Bit/optiga-trust-m/optiga/cmd\optiga_cmd.c ****             break;
1287:C:/Workspace/DAVE-4.4.2-64Bit/optiga-trust-m/optiga/cmd\optiga_cmd.c ****     }
1288:C:/Workspace/DAVE-4.4.2-64Bit/optiga-trust-m/optiga/cmd\optiga_cmd.c **** 
1289:C:/Workspace/DAVE-4.4.2-64Bit/optiga-trust-m/optiga/cmd\optiga_cmd.c **** #undef OFFSET
1290:C:/Workspace/DAVE-4.4.2-64Bit/optiga-trust-m/optiga/cmd\optiga_cmd.c **** #undef BYTES_TO_READ
1291:C:/Workspace/DAVE-4.4.2-64Bit/optiga-trust-m/optiga/cmd\optiga_cmd.c **** #undef GET_DATA_OBJECT_CMD
1292:C:/Workspace/DAVE-4.4.2-64Bit/optiga-trust-m/optiga/cmd\optiga_cmd.c **** #undef PARAM
1293:C:/Workspace/DAVE-4.4.2-64Bit/optiga-trust-m/optiga/cmd\optiga_cmd.c ****     return (return_status);
1294:C:/Workspace/DAVE-4.4.2-64Bit/optiga-trust-m/optiga/cmd\optiga_cmd.c **** }
1295:C:/Workspace/DAVE-4.4.2-64Bit/optiga-trust-m/optiga/cmd\optiga_cmd.c **** 
1296:C:/Workspace/DAVE-4.4.2-64Bit/optiga-trust-m/optiga/cmd\optiga_cmd.c **** /*
1297:C:/Workspace/DAVE-4.4.2-64Bit/optiga-trust-m/optiga/cmd\optiga_cmd.c **** * Open Application handler
1298:C:/Workspace/DAVE-4.4.2-64Bit/optiga-trust-m/optiga/cmd\optiga_cmd.c **** */
1299:C:/Workspace/DAVE-4.4.2-64Bit/optiga-trust-m/optiga/cmd\optiga_cmd.c **** _STATIC_H optiga_lib_status_t optiga_cmd_open_application_handler(optiga_cmd_t * me)
1300:C:/Workspace/DAVE-4.4.2-64Bit/optiga-trust-m/optiga/cmd\optiga_cmd.c **** {
1301:C:/Workspace/DAVE-4.4.2-64Bit/optiga-trust-m/optiga/cmd\optiga_cmd.c ****     uint16_t total_apdu_length;
1302:C:/Workspace/DAVE-4.4.2-64Bit/optiga-trust-m/optiga/cmd\optiga_cmd.c ****     optiga_lib_status_t return_status = OPTIGA_CMD_ERROR;
1303:C:/Workspace/DAVE-4.4.2-64Bit/optiga-trust-m/optiga/cmd\optiga_cmd.c **** 
1304:C:/Workspace/DAVE-4.4.2-64Bit/optiga-trust-m/optiga/cmd\optiga_cmd.c ****     switch ((uint8_t)me->cmd_next_execution_state)
1305:C:/Workspace/DAVE-4.4.2-64Bit/optiga-trust-m/optiga/cmd\optiga_cmd.c ****     {
1306:C:/Workspace/DAVE-4.4.2-64Bit/optiga-trust-m/optiga/cmd\optiga_cmd.c ****         case OPTIGA_CMD_EXEC_PREPARE_COMMAND:
1307:C:/Workspace/DAVE-4.4.2-64Bit/optiga-trust-m/optiga/cmd\optiga_cmd.c ****         {
1308:C:/Workspace/DAVE-4.4.2-64Bit/optiga-trust-m/optiga/cmd\optiga_cmd.c **** 
1309:C:/Workspace/DAVE-4.4.2-64Bit/optiga-trust-m/optiga/cmd\optiga_cmd.c ****             OPTIGA_CMD_LOG_MESSAGE("Sending open app command...");
1310:C:/Workspace/DAVE-4.4.2-64Bit/optiga-trust-m/optiga/cmd\optiga_cmd.c **** 
1311:C:/Workspace/DAVE-4.4.2-64Bit/optiga-trust-m/optiga/cmd\optiga_cmd.c ****             total_apdu_length = OPTIGA_CMD_APDU_HEADER_SIZE + sizeof(g_optiga_unique_application_id
1312:C:/Workspace/DAVE-4.4.2-64Bit/optiga-trust-m/optiga/cmd\optiga_cmd.c ****             total_apdu_length += ((OPTIGA_CMD_PARAM_INITIALIZE_APP_CONTEXT == me->cmd_param) ? (0) 
1313:C:/Workspace/DAVE-4.4.2-64Bit/optiga-trust-m/optiga/cmd\optiga_cmd.c ****                                     (sizeof(me->p_optiga->optiga_context_handle_buffer)));
1314:C:/Workspace/DAVE-4.4.2-64Bit/optiga-trust-m/optiga/cmd\optiga_cmd.c ****             //lint --e{774} suppress "If OPTIGA_MAX_COMMS_BUFFER_SIZE is set to lesser value it wil
1315:C:/Workspace/DAVE-4.4.2-64Bit/optiga-trust-m/optiga/cmd\optiga_cmd.c ****             if (OPTIGA_MAX_COMMS_BUFFER_SIZE < total_apdu_length)
1316:C:/Workspace/DAVE-4.4.2-64Bit/optiga-trust-m/optiga/cmd\optiga_cmd.c ****             {
1317:C:/Workspace/DAVE-4.4.2-64Bit/optiga-trust-m/optiga/cmd\optiga_cmd.c ****                 return_status = OPTIGA_CMD_ERROR_MEMORY_INSUFFICIENT;
1318:C:/Workspace/DAVE-4.4.2-64Bit/optiga-trust-m/optiga/cmd\optiga_cmd.c ****                 break;
1319:C:/Workspace/DAVE-4.4.2-64Bit/optiga-trust-m/optiga/cmd\optiga_cmd.c ****             }
1320:C:/Workspace/DAVE-4.4.2-64Bit/optiga-trust-m/optiga/cmd\optiga_cmd.c ****             if (OPTIGA_CMD_PARAM_INITIALIZE_APP_CONTEXT != me->cmd_param)
1321:C:/Workspace/DAVE-4.4.2-64Bit/optiga-trust-m/optiga/cmd\optiga_cmd.c ****             {
1322:C:/Workspace/DAVE-4.4.2-64Bit/optiga-trust-m/optiga/cmd\optiga_cmd.c ****                 ///optiga context restore operation
1323:C:/Workspace/DAVE-4.4.2-64Bit/optiga-trust-m/optiga/cmd\optiga_cmd.c ****                 if (OPTIGA_LIB_SUCCESS != optiga_cmd_restore_context(me))
1324:C:/Workspace/DAVE-4.4.2-64Bit/optiga-trust-m/optiga/cmd\optiga_cmd.c ****                 {
1325:C:/Workspace/DAVE-4.4.2-64Bit/optiga-trust-m/optiga/cmd\optiga_cmd.c ****                     break;
1326:C:/Workspace/DAVE-4.4.2-64Bit/optiga-trust-m/optiga/cmd\optiga_cmd.c ****                 }
1327:C:/Workspace/DAVE-4.4.2-64Bit/optiga-trust-m/optiga/cmd\optiga_cmd.c ****             }
1328:C:/Workspace/DAVE-4.4.2-64Bit/optiga-trust-m/optiga/cmd\optiga_cmd.c ****             optiga_cmd_prepare_apdu_header(OPTIGA_CMD_OPEN_APPLICATION,
1329:C:/Workspace/DAVE-4.4.2-64Bit/optiga-trust-m/optiga/cmd\optiga_cmd.c ****                                            me->cmd_param,
1330:C:/Workspace/DAVE-4.4.2-64Bit/optiga-trust-m/optiga/cmd\optiga_cmd.c ****                                            ((OPTIGA_CMD_PARAM_INITIALIZE_APP_CONTEXT == me->cmd_par
1331:C:/Workspace/DAVE-4.4.2-64Bit/optiga-trust-m/optiga/cmd\optiga_cmd.c ****                                            (sizeof(g_optiga_unique_application_identifier)) :
1332:C:/Workspace/DAVE-4.4.2-64Bit/optiga-trust-m/optiga/cmd\optiga_cmd.c ****                                            (sizeof(g_optiga_unique_application_identifier) +
1333:C:/Workspace/DAVE-4.4.2-64Bit/optiga-trust-m/optiga/cmd\optiga_cmd.c ****                                            sizeof(me->p_optiga->optiga_context_handle_buffer))),
1334:C:/Workspace/DAVE-4.4.2-64Bit/optiga-trust-m/optiga/cmd\optiga_cmd.c ****                                            me->p_optiga->optiga_comms_buffer + OPTIGA_COMMS_DATA_OF
1335:C:/Workspace/DAVE-4.4.2-64Bit/optiga-trust-m/optiga/cmd\optiga_cmd.c **** 
1336:C:/Workspace/DAVE-4.4.2-64Bit/optiga-trust-m/optiga/cmd\optiga_cmd.c ****             pal_os_memcpy(me->p_optiga->optiga_comms_buffer + OPTIGA_CMD_APDU_INDATA_OFFSET,
1337:C:/Workspace/DAVE-4.4.2-64Bit/optiga-trust-m/optiga/cmd\optiga_cmd.c ****                           g_optiga_unique_application_identifier,
1338:C:/Workspace/DAVE-4.4.2-64Bit/optiga-trust-m/optiga/cmd\optiga_cmd.c ****                           sizeof(g_optiga_unique_application_identifier));
1339:C:/Workspace/DAVE-4.4.2-64Bit/optiga-trust-m/optiga/cmd\optiga_cmd.c ****             if (OPTIGA_CMD_PARAM_INITIALIZE_APP_CONTEXT != me->cmd_param)
1340:C:/Workspace/DAVE-4.4.2-64Bit/optiga-trust-m/optiga/cmd\optiga_cmd.c ****             {
1341:C:/Workspace/DAVE-4.4.2-64Bit/optiga-trust-m/optiga/cmd\optiga_cmd.c ****                 pal_os_memcpy(&me->p_optiga->optiga_comms_buffer[OPTIGA_CMD_APDU_INDATA_OFFSET +
1342:C:/Workspace/DAVE-4.4.2-64Bit/optiga-trust-m/optiga/cmd\optiga_cmd.c ****                               sizeof(g_optiga_unique_application_identifier)],
1343:C:/Workspace/DAVE-4.4.2-64Bit/optiga-trust-m/optiga/cmd\optiga_cmd.c ****                               me->p_optiga->optiga_context_handle_buffer,
1344:C:/Workspace/DAVE-4.4.2-64Bit/optiga-trust-m/optiga/cmd\optiga_cmd.c ****                               sizeof(me->p_optiga->optiga_context_handle_buffer));
1345:C:/Workspace/DAVE-4.4.2-64Bit/optiga-trust-m/optiga/cmd\optiga_cmd.c ****             }
1346:C:/Workspace/DAVE-4.4.2-64Bit/optiga-trust-m/optiga/cmd\optiga_cmd.c **** 
1347:C:/Workspace/DAVE-4.4.2-64Bit/optiga-trust-m/optiga/cmd\optiga_cmd.c ****             me->p_optiga->comms_tx_size = (OPTIGA_CMD_APDU_HEADER_SIZE +
1348:C:/Workspace/DAVE-4.4.2-64Bit/optiga-trust-m/optiga/cmd\optiga_cmd.c ****                                            ((OPTIGA_CMD_PARAM_INITIALIZE_APP_CONTEXT == me->cmd_par
1349:C:/Workspace/DAVE-4.4.2-64Bit/optiga-trust-m/optiga/cmd\optiga_cmd.c ****                                            sizeof(g_optiga_unique_application_identifier):
1350:C:/Workspace/DAVE-4.4.2-64Bit/optiga-trust-m/optiga/cmd\optiga_cmd.c ****                                            (sizeof(g_optiga_unique_application_identifier) +
1351:C:/Workspace/DAVE-4.4.2-64Bit/optiga-trust-m/optiga/cmd\optiga_cmd.c ****                                            sizeof(me->p_optiga->optiga_context_handle_buffer))));
1352:C:/Workspace/DAVE-4.4.2-64Bit/optiga-trust-m/optiga/cmd\optiga_cmd.c **** 
1353:C:/Workspace/DAVE-4.4.2-64Bit/optiga-trust-m/optiga/cmd\optiga_cmd.c ****             pal_os_memset(me->p_optiga->optiga_context_handle_buffer,
1354:C:/Workspace/DAVE-4.4.2-64Bit/optiga-trust-m/optiga/cmd\optiga_cmd.c ****                           0,
1355:C:/Workspace/DAVE-4.4.2-64Bit/optiga-trust-m/optiga/cmd\optiga_cmd.c ****                           sizeof(me->p_optiga->optiga_context_handle_buffer));
1356:C:/Workspace/DAVE-4.4.2-64Bit/optiga-trust-m/optiga/cmd\optiga_cmd.c ****             if (OPTIGA_LIB_PAL_DATA_STORE_NOT_CONFIGURED != me->optiga_context_datastore_id)
1357:C:/Workspace/DAVE-4.4.2-64Bit/optiga-trust-m/optiga/cmd\optiga_cmd.c ****             {
1358:C:/Workspace/DAVE-4.4.2-64Bit/optiga-trust-m/optiga/cmd\optiga_cmd.c ****                 //Clearing context handle secret from datastore
1359:C:/Workspace/DAVE-4.4.2-64Bit/optiga-trust-m/optiga/cmd\optiga_cmd.c ****                 return_status = pal_os_datastore_write(me->optiga_context_datastore_id,
1360:C:/Workspace/DAVE-4.4.2-64Bit/optiga-trust-m/optiga/cmd\optiga_cmd.c ****                                                        me->p_optiga->optiga_context_handle_buffer,
1361:C:/Workspace/DAVE-4.4.2-64Bit/optiga-trust-m/optiga/cmd\optiga_cmd.c ****                                                        sizeof(me->p_optiga->optiga_context_handle_b
1362:C:/Workspace/DAVE-4.4.2-64Bit/optiga-trust-m/optiga/cmd\optiga_cmd.c ****                 if (PAL_STATUS_SUCCESS != return_status)
1363:C:/Workspace/DAVE-4.4.2-64Bit/optiga-trust-m/optiga/cmd\optiga_cmd.c ****                 {
1364:C:/Workspace/DAVE-4.4.2-64Bit/optiga-trust-m/optiga/cmd\optiga_cmd.c ****                     return_status = OPTIGA_CMD_ERROR;
1365:C:/Workspace/DAVE-4.4.2-64Bit/optiga-trust-m/optiga/cmd\optiga_cmd.c ****                     break;
1366:C:/Workspace/DAVE-4.4.2-64Bit/optiga-trust-m/optiga/cmd\optiga_cmd.c ****                 }
1367:C:/Workspace/DAVE-4.4.2-64Bit/optiga-trust-m/optiga/cmd\optiga_cmd.c ****             }
1368:C:/Workspace/DAVE-4.4.2-64Bit/optiga-trust-m/optiga/cmd\optiga_cmd.c ****             return_status = OPTIGA_LIB_SUCCESS;
1369:C:/Workspace/DAVE-4.4.2-64Bit/optiga-trust-m/optiga/cmd\optiga_cmd.c ****         }
1370:C:/Workspace/DAVE-4.4.2-64Bit/optiga-trust-m/optiga/cmd\optiga_cmd.c ****         break;
1371:C:/Workspace/DAVE-4.4.2-64Bit/optiga-trust-m/optiga/cmd\optiga_cmd.c ****         case OPTIGA_CMD_EXEC_PROCESS_RESPONSE:
1372:C:/Workspace/DAVE-4.4.2-64Bit/optiga-trust-m/optiga/cmd\optiga_cmd.c ****         {
1373:C:/Workspace/DAVE-4.4.2-64Bit/optiga-trust-m/optiga/cmd\optiga_cmd.c ****             OPTIGA_CMD_LOG_MESSAGE("Processing response for open app command...");
1374:C:/Workspace/DAVE-4.4.2-64Bit/optiga-trust-m/optiga/cmd\optiga_cmd.c **** 
1375:C:/Workspace/DAVE-4.4.2-64Bit/optiga-trust-m/optiga/cmd\optiga_cmd.c ****             if (OPTIGA_CMD_APDU_SUCCESS != me->p_optiga->optiga_comms_buffer[OPTIGA_COMMS_DATA_OFFS
1376:C:/Workspace/DAVE-4.4.2-64Bit/optiga-trust-m/optiga/cmd\optiga_cmd.c ****             {
1377:C:/Workspace/DAVE-4.4.2-64Bit/optiga-trust-m/optiga/cmd\optiga_cmd.c ****                 OPTIGA_CMD_LOG_MESSAGE("Error in processing open app response...");
1378:C:/Workspace/DAVE-4.4.2-64Bit/optiga-trust-m/optiga/cmd\optiga_cmd.c ****                 SET_DEV_ERROR_NOTIFICATION(OPTIGA_CMD_EXIT_HANDLER_CALL);
1379:C:/Workspace/DAVE-4.4.2-64Bit/optiga-trust-m/optiga/cmd\optiga_cmd.c ****                 break;
1380:C:/Workspace/DAVE-4.4.2-64Bit/optiga-trust-m/optiga/cmd\optiga_cmd.c ****             }
1381:C:/Workspace/DAVE-4.4.2-64Bit/optiga-trust-m/optiga/cmd\optiga_cmd.c **** #ifdef OPTIGA_COMMS_SHIELDED_CONNECTION
1382:C:/Workspace/DAVE-4.4.2-64Bit/optiga-trust-m/optiga/cmd\optiga_cmd.c ****             me->p_optiga->p_optiga_comms->manage_context_operation = OPTIGA_COMMS_SESSION_CONTEXT_N
1383:C:/Workspace/DAVE-4.4.2-64Bit/optiga-trust-m/optiga/cmd\optiga_cmd.c **** #endif //OPTIGA_COMMS_SHIELDED_CONNECTION
1384:C:/Workspace/DAVE-4.4.2-64Bit/optiga-trust-m/optiga/cmd\optiga_cmd.c ****             OPTIGA_CMD_LOG_MESSAGE("Response of open app command is processed...");
1385:C:/Workspace/DAVE-4.4.2-64Bit/optiga-trust-m/optiga/cmd\optiga_cmd.c ****             return_status = OPTIGA_LIB_SUCCESS;
1386:C:/Workspace/DAVE-4.4.2-64Bit/optiga-trust-m/optiga/cmd\optiga_cmd.c **** 
1387:C:/Workspace/DAVE-4.4.2-64Bit/optiga-trust-m/optiga/cmd\optiga_cmd.c ****         }
1388:C:/Workspace/DAVE-4.4.2-64Bit/optiga-trust-m/optiga/cmd\optiga_cmd.c ****         break;
1389:C:/Workspace/DAVE-4.4.2-64Bit/optiga-trust-m/optiga/cmd\optiga_cmd.c ****         default:
1390:C:/Workspace/DAVE-4.4.2-64Bit/optiga-trust-m/optiga/cmd\optiga_cmd.c ****             break;
1391:C:/Workspace/DAVE-4.4.2-64Bit/optiga-trust-m/optiga/cmd\optiga_cmd.c ****     }
1392:C:/Workspace/DAVE-4.4.2-64Bit/optiga-trust-m/optiga/cmd\optiga_cmd.c **** 
1393:C:/Workspace/DAVE-4.4.2-64Bit/optiga-trust-m/optiga/cmd\optiga_cmd.c ****     return (return_status);
1394:C:/Workspace/DAVE-4.4.2-64Bit/optiga-trust-m/optiga/cmd\optiga_cmd.c **** }
1395:C:/Workspace/DAVE-4.4.2-64Bit/optiga-trust-m/optiga/cmd\optiga_cmd.c **** 
1396:C:/Workspace/DAVE-4.4.2-64Bit/optiga-trust-m/optiga/cmd\optiga_cmd.c **** 
1397:C:/Workspace/DAVE-4.4.2-64Bit/optiga-trust-m/optiga/cmd\optiga_cmd.c **** optiga_lib_status_t optiga_cmd_open_application(optiga_cmd_t * me, uint8_t cmd_param, void * params
1398:C:/Workspace/DAVE-4.4.2-64Bit/optiga-trust-m/optiga/cmd\optiga_cmd.c **** {
1399:C:/Workspace/DAVE-4.4.2-64Bit/optiga-trust-m/optiga/cmd\optiga_cmd.c ****     OPTIGA_CMD_LOG_MESSAGE(__FUNCTION__);
1400:C:/Workspace/DAVE-4.4.2-64Bit/optiga-trust-m/optiga/cmd\optiga_cmd.c ****     optiga_cmd_execute(me,
1401:C:/Workspace/DAVE-4.4.2-64Bit/optiga-trust-m/optiga/cmd\optiga_cmd.c ****                        cmd_param,
1402:C:/Workspace/DAVE-4.4.2-64Bit/optiga-trust-m/optiga/cmd\optiga_cmd.c ****                        optiga_cmd_open_application_handler,
1403:C:/Workspace/DAVE-4.4.2-64Bit/optiga-trust-m/optiga/cmd\optiga_cmd.c ****                        OPTIGA_CMD_EXEC_COMMS_OPEN,
1404:C:/Workspace/DAVE-4.4.2-64Bit/optiga-trust-m/optiga/cmd\optiga_cmd.c ****                        params);
1405:C:/Workspace/DAVE-4.4.2-64Bit/optiga-trust-m/optiga/cmd\optiga_cmd.c **** 
1406:C:/Workspace/DAVE-4.4.2-64Bit/optiga-trust-m/optiga/cmd\optiga_cmd.c ****     return (OPTIGA_LIB_SUCCESS);
1407:C:/Workspace/DAVE-4.4.2-64Bit/optiga-trust-m/optiga/cmd\optiga_cmd.c **** }
1408:C:/Workspace/DAVE-4.4.2-64Bit/optiga-trust-m/optiga/cmd\optiga_cmd.c **** 
1409:C:/Workspace/DAVE-4.4.2-64Bit/optiga-trust-m/optiga/cmd\optiga_cmd.c **** /*
1410:C:/Workspace/DAVE-4.4.2-64Bit/optiga-trust-m/optiga/cmd\optiga_cmd.c **** * Close Application handler
1411:C:/Workspace/DAVE-4.4.2-64Bit/optiga-trust-m/optiga/cmd\optiga_cmd.c **** */
1412:C:/Workspace/DAVE-4.4.2-64Bit/optiga-trust-m/optiga/cmd\optiga_cmd.c **** _STATIC_H optiga_lib_status_t optiga_cmd_close_application_handler(optiga_cmd_t * me)
1413:C:/Workspace/DAVE-4.4.2-64Bit/optiga-trust-m/optiga/cmd\optiga_cmd.c **** {
1414:C:/Workspace/DAVE-4.4.2-64Bit/optiga-trust-m/optiga/cmd\optiga_cmd.c ****     uint16_t total_apdu_length;
1415:C:/Workspace/DAVE-4.4.2-64Bit/optiga-trust-m/optiga/cmd\optiga_cmd.c ****     optiga_lib_status_t return_status = OPTIGA_CMD_ERROR;
1416:C:/Workspace/DAVE-4.4.2-64Bit/optiga-trust-m/optiga/cmd\optiga_cmd.c **** 
1417:C:/Workspace/DAVE-4.4.2-64Bit/optiga-trust-m/optiga/cmd\optiga_cmd.c ****     switch ((uint8_t)me->cmd_next_execution_state)
1418:C:/Workspace/DAVE-4.4.2-64Bit/optiga-trust-m/optiga/cmd\optiga_cmd.c ****     {
1419:C:/Workspace/DAVE-4.4.2-64Bit/optiga-trust-m/optiga/cmd\optiga_cmd.c ****         case OPTIGA_CMD_EXEC_PREPARE_COMMAND:
1420:C:/Workspace/DAVE-4.4.2-64Bit/optiga-trust-m/optiga/cmd\optiga_cmd.c ****         {
1421:C:/Workspace/DAVE-4.4.2-64Bit/optiga-trust-m/optiga/cmd\optiga_cmd.c **** 
1422:C:/Workspace/DAVE-4.4.2-64Bit/optiga-trust-m/optiga/cmd\optiga_cmd.c ****             OPTIGA_CMD_LOG_MESSAGE("Sending close app command..");
1423:C:/Workspace/DAVE-4.4.2-64Bit/optiga-trust-m/optiga/cmd\optiga_cmd.c **** 
1424:C:/Workspace/DAVE-4.4.2-64Bit/optiga-trust-m/optiga/cmd\optiga_cmd.c ****             total_apdu_length = OPTIGA_CMD_APDU_HEADER_SIZE;
1425:C:/Workspace/DAVE-4.4.2-64Bit/optiga-trust-m/optiga/cmd\optiga_cmd.c ****             //lint --e{774} suppress "If OPTIGA_MAX_COMMS_BUFFER_SIZE is set to lesser value it wil
1426:C:/Workspace/DAVE-4.4.2-64Bit/optiga-trust-m/optiga/cmd\optiga_cmd.c ****             if (OPTIGA_MAX_COMMS_BUFFER_SIZE < total_apdu_length)
1427:C:/Workspace/DAVE-4.4.2-64Bit/optiga-trust-m/optiga/cmd\optiga_cmd.c ****             {
1428:C:/Workspace/DAVE-4.4.2-64Bit/optiga-trust-m/optiga/cmd\optiga_cmd.c ****                 return_status = OPTIGA_CMD_ERROR_MEMORY_INSUFFICIENT;
1429:C:/Workspace/DAVE-4.4.2-64Bit/optiga-trust-m/optiga/cmd\optiga_cmd.c ****                 break;
1430:C:/Workspace/DAVE-4.4.2-64Bit/optiga-trust-m/optiga/cmd\optiga_cmd.c ****             }
1431:C:/Workspace/DAVE-4.4.2-64Bit/optiga-trust-m/optiga/cmd\optiga_cmd.c ****             optiga_cmd_prepare_apdu_header(OPTIGA_CMD_CLOSE_APPLICATION,
1432:C:/Workspace/DAVE-4.4.2-64Bit/optiga-trust-m/optiga/cmd\optiga_cmd.c ****                                            me->cmd_param,
1433:C:/Workspace/DAVE-4.4.2-64Bit/optiga-trust-m/optiga/cmd\optiga_cmd.c ****                                            OPTIGA_CMD_ZERO_LENGTH_OR_VALUE,
1434:C:/Workspace/DAVE-4.4.2-64Bit/optiga-trust-m/optiga/cmd\optiga_cmd.c ****                                            me->p_optiga->optiga_comms_buffer + OPTIGA_COMMS_DATA_OF
1435:C:/Workspace/DAVE-4.4.2-64Bit/optiga-trust-m/optiga/cmd\optiga_cmd.c **** 
1436:C:/Workspace/DAVE-4.4.2-64Bit/optiga-trust-m/optiga/cmd\optiga_cmd.c ****             me->p_optiga->comms_tx_size = OPTIGA_CMD_APDU_HEADER_SIZE;
1437:C:/Workspace/DAVE-4.4.2-64Bit/optiga-trust-m/optiga/cmd\optiga_cmd.c ****             return_status = OPTIGA_LIB_SUCCESS;
1438:C:/Workspace/DAVE-4.4.2-64Bit/optiga-trust-m/optiga/cmd\optiga_cmd.c ****         }
1439:C:/Workspace/DAVE-4.4.2-64Bit/optiga-trust-m/optiga/cmd\optiga_cmd.c ****         break;
1440:C:/Workspace/DAVE-4.4.2-64Bit/optiga-trust-m/optiga/cmd\optiga_cmd.c ****         case OPTIGA_CMD_EXEC_PROCESS_RESPONSE:
1441:C:/Workspace/DAVE-4.4.2-64Bit/optiga-trust-m/optiga/cmd\optiga_cmd.c ****         {
1442:C:/Workspace/DAVE-4.4.2-64Bit/optiga-trust-m/optiga/cmd\optiga_cmd.c ****             OPTIGA_CMD_LOG_MESSAGE("Processing response for close app command...");
1443:C:/Workspace/DAVE-4.4.2-64Bit/optiga-trust-m/optiga/cmd\optiga_cmd.c ****             // check if the close app was successful
1444:C:/Workspace/DAVE-4.4.2-64Bit/optiga-trust-m/optiga/cmd\optiga_cmd.c ****             if (OPTIGA_CMD_APDU_SUCCESS != me->p_optiga->optiga_comms_buffer[OPTIGA_COMMS_DATA_OFFS
1445:C:/Workspace/DAVE-4.4.2-64Bit/optiga-trust-m/optiga/cmd\optiga_cmd.c ****             {
1446:C:/Workspace/DAVE-4.4.2-64Bit/optiga-trust-m/optiga/cmd\optiga_cmd.c ****                 OPTIGA_CMD_LOG_MESSAGE("Error in processing close app response...");
1447:C:/Workspace/DAVE-4.4.2-64Bit/optiga-trust-m/optiga/cmd\optiga_cmd.c ****                 SET_DEV_ERROR_NOTIFICATION(OPTIGA_CMD_EXIT_HANDLER_CALL);
1448:C:/Workspace/DAVE-4.4.2-64Bit/optiga-trust-m/optiga/cmd\optiga_cmd.c ****                 break;
1449:C:/Workspace/DAVE-4.4.2-64Bit/optiga-trust-m/optiga/cmd\optiga_cmd.c ****             }
1450:C:/Workspace/DAVE-4.4.2-64Bit/optiga-trust-m/optiga/cmd\optiga_cmd.c ****             if (OPTIGA_CMD_PARAM_INITIALIZE_APP_CONTEXT != me->cmd_param)
1451:C:/Workspace/DAVE-4.4.2-64Bit/optiga-trust-m/optiga/cmd\optiga_cmd.c ****             {
1452:C:/Workspace/DAVE-4.4.2-64Bit/optiga-trust-m/optiga/cmd\optiga_cmd.c ****                 pal_os_memcpy(me->p_optiga->optiga_context_handle_buffer,
1453:C:/Workspace/DAVE-4.4.2-64Bit/optiga-trust-m/optiga/cmd\optiga_cmd.c ****                               me->p_optiga->optiga_comms_buffer + OPTIGA_CMD_APDU_INDATA_OFFSET,
1454:C:/Workspace/DAVE-4.4.2-64Bit/optiga-trust-m/optiga/cmd\optiga_cmd.c ****                               sizeof(me->p_optiga->optiga_context_handle_buffer));
1455:C:/Workspace/DAVE-4.4.2-64Bit/optiga-trust-m/optiga/cmd\optiga_cmd.c ****                 ///Optiga context store operation
1456:C:/Workspace/DAVE-4.4.2-64Bit/optiga-trust-m/optiga/cmd\optiga_cmd.c ****                 if (OPTIGA_LIB_SUCCESS != optiga_cmd_store_context(me))
1457:C:/Workspace/DAVE-4.4.2-64Bit/optiga-trust-m/optiga/cmd\optiga_cmd.c ****                 {
1458:C:/Workspace/DAVE-4.4.2-64Bit/optiga-trust-m/optiga/cmd\optiga_cmd.c ****                     pal_os_memset(me->p_optiga->optiga_context_handle_buffer,0,
1459:C:/Workspace/DAVE-4.4.2-64Bit/optiga-trust-m/optiga/cmd\optiga_cmd.c ****                                     sizeof(me->p_optiga->optiga_context_handle_buffer));
1460:C:/Workspace/DAVE-4.4.2-64Bit/optiga-trust-m/optiga/cmd\optiga_cmd.c ****                     break;
1461:C:/Workspace/DAVE-4.4.2-64Bit/optiga-trust-m/optiga/cmd\optiga_cmd.c ****                 }
1462:C:/Workspace/DAVE-4.4.2-64Bit/optiga-trust-m/optiga/cmd\optiga_cmd.c ****             }
1463:C:/Workspace/DAVE-4.4.2-64Bit/optiga-trust-m/optiga/cmd\optiga_cmd.c ****             OPTIGA_CMD_LOG_MESSAGE("Response of close app command is processed...");
1464:C:/Workspace/DAVE-4.4.2-64Bit/optiga-trust-m/optiga/cmd\optiga_cmd.c ****             return_status = OPTIGA_LIB_SUCCESS;
1465:C:/Workspace/DAVE-4.4.2-64Bit/optiga-trust-m/optiga/cmd\optiga_cmd.c **** 
1466:C:/Workspace/DAVE-4.4.2-64Bit/optiga-trust-m/optiga/cmd\optiga_cmd.c ****             // Close Application is successful, invoke optiga_comms_close next
1467:C:/Workspace/DAVE-4.4.2-64Bit/optiga-trust-m/optiga/cmd\optiga_cmd.c ****             me->chaining_ongoing = START_OPTIGA_COMMS_CLOSE;
1468:C:/Workspace/DAVE-4.4.2-64Bit/optiga-trust-m/optiga/cmd\optiga_cmd.c ****         }
1469:C:/Workspace/DAVE-4.4.2-64Bit/optiga-trust-m/optiga/cmd\optiga_cmd.c ****         break;
1470:C:/Workspace/DAVE-4.4.2-64Bit/optiga-trust-m/optiga/cmd\optiga_cmd.c ****         default:
1471:C:/Workspace/DAVE-4.4.2-64Bit/optiga-trust-m/optiga/cmd\optiga_cmd.c ****             break;
1472:C:/Workspace/DAVE-4.4.2-64Bit/optiga-trust-m/optiga/cmd\optiga_cmd.c ****     }
1473:C:/Workspace/DAVE-4.4.2-64Bit/optiga-trust-m/optiga/cmd\optiga_cmd.c **** 
1474:C:/Workspace/DAVE-4.4.2-64Bit/optiga-trust-m/optiga/cmd\optiga_cmd.c ****     return (return_status);
1475:C:/Workspace/DAVE-4.4.2-64Bit/optiga-trust-m/optiga/cmd\optiga_cmd.c **** }
1476:C:/Workspace/DAVE-4.4.2-64Bit/optiga-trust-m/optiga/cmd\optiga_cmd.c **** 
1477:C:/Workspace/DAVE-4.4.2-64Bit/optiga-trust-m/optiga/cmd\optiga_cmd.c **** optiga_lib_status_t optiga_cmd_close_application(optiga_cmd_t * me, uint8_t cmd_param, void * param
1478:C:/Workspace/DAVE-4.4.2-64Bit/optiga-trust-m/optiga/cmd\optiga_cmd.c **** {
1479:C:/Workspace/DAVE-4.4.2-64Bit/optiga-trust-m/optiga/cmd\optiga_cmd.c ****     OPTIGA_CMD_LOG_MESSAGE(__FUNCTION__);
1480:C:/Workspace/DAVE-4.4.2-64Bit/optiga-trust-m/optiga/cmd\optiga_cmd.c ****     optiga_cmd_execute(me,
1481:C:/Workspace/DAVE-4.4.2-64Bit/optiga-trust-m/optiga/cmd\optiga_cmd.c ****                        cmd_param,
1482:C:/Workspace/DAVE-4.4.2-64Bit/optiga-trust-m/optiga/cmd\optiga_cmd.c ****                        optiga_cmd_close_application_handler,
1483:C:/Workspace/DAVE-4.4.2-64Bit/optiga-trust-m/optiga/cmd\optiga_cmd.c ****                        OPTIGA_CMD_EXEC_REQUEST_LOCK,
1484:C:/Workspace/DAVE-4.4.2-64Bit/optiga-trust-m/optiga/cmd\optiga_cmd.c ****                        params);
1485:C:/Workspace/DAVE-4.4.2-64Bit/optiga-trust-m/optiga/cmd\optiga_cmd.c **** 
1486:C:/Workspace/DAVE-4.4.2-64Bit/optiga-trust-m/optiga/cmd\optiga_cmd.c ****     return (OPTIGA_LIB_SUCCESS);
1487:C:/Workspace/DAVE-4.4.2-64Bit/optiga-trust-m/optiga/cmd\optiga_cmd.c **** }
1488:C:/Workspace/DAVE-4.4.2-64Bit/optiga-trust-m/optiga/cmd\optiga_cmd.c **** 
1489:C:/Workspace/DAVE-4.4.2-64Bit/optiga-trust-m/optiga/cmd\optiga_cmd.c **** /*
1490:C:/Workspace/DAVE-4.4.2-64Bit/optiga-trust-m/optiga/cmd\optiga_cmd.c **** * Get Data Object handler
1491:C:/Workspace/DAVE-4.4.2-64Bit/optiga-trust-m/optiga/cmd\optiga_cmd.c **** */
1492:C:/Workspace/DAVE-4.4.2-64Bit/optiga-trust-m/optiga/cmd\optiga_cmd.c **** _STATIC_H optiga_lib_status_t optiga_cmd_get_data_object_handler(optiga_cmd_t * me)
1493:C:/Workspace/DAVE-4.4.2-64Bit/optiga-trust-m/optiga/cmd\optiga_cmd.c **** {
 1033              	 .loc 1 1493 0
 1034              	 .cfi_startproc
 1035              	.LVL90:
 1036 0000 F7B5     	 push {r0,r1,r2,r4,r5,r6,r7,lr}
 1037              	.LCFI6:
 1038              	 .cfi_def_cfa_offset 32
 1039              	 .cfi_offset 0,-32
 1040              	 .cfi_offset 1,-28
 1041              	 .cfi_offset 2,-24
 1042              	 .cfi_offset 4,-20
 1043              	 .cfi_offset 5,-16
 1044              	 .cfi_offset 6,-12
 1045              	 .cfi_offset 7,-8
 1046              	 .cfi_offset 14,-4
1494:C:/Workspace/DAVE-4.4.2-64Bit/optiga-trust-m/optiga/cmd\optiga_cmd.c ****     uint16_t total_apdu_length;
1495:C:/Workspace/DAVE-4.4.2-64Bit/optiga-trust-m/optiga/cmd\optiga_cmd.c ****     optiga_get_data_object_params_t * p_optiga_read_data = (optiga_get_data_object_params_t *)me->p
1496:C:/Workspace/DAVE-4.4.2-64Bit/optiga-trust-m/optiga/cmd\optiga_cmd.c ****     optiga_lib_status_t return_status = OPTIGA_CMD_ERROR;
1497:C:/Workspace/DAVE-4.4.2-64Bit/optiga-trust-m/optiga/cmd\optiga_cmd.c ****     uint16_t index_for_data = OPTIGA_CMD_APDU_INDATA_OFFSET;
1498:C:/Workspace/DAVE-4.4.2-64Bit/optiga-trust-m/optiga/cmd\optiga_cmd.c ****     uint16_t size_to_read, data_read;
1499:C:/Workspace/DAVE-4.4.2-64Bit/optiga-trust-m/optiga/cmd\optiga_cmd.c ****     uint8_t cmd = OPTIGA_CMD_GET_DATA_OBJECT;
1500:C:/Workspace/DAVE-4.4.2-64Bit/optiga-trust-m/optiga/cmd\optiga_cmd.c ****     switch ((uint8_t)me->cmd_next_execution_state)
 1047              	 .loc 1 1500 0
 1048 0002 837D     	 ldrb r3,[r0,#22]
1493:C:/Workspace/DAVE-4.4.2-64Bit/optiga-trust-m/optiga/cmd\optiga_cmd.c ****     uint16_t total_apdu_length;
 1049              	 .loc 1 1493 0
 1050 0004 051C     	 mov r5,r0
1495:C:/Workspace/DAVE-4.4.2-64Bit/optiga-trust-m/optiga/cmd\optiga_cmd.c ****     optiga_lib_status_t return_status = OPTIGA_CMD_ERROR;
 1051              	 .loc 1 1495 0
 1052 0006 8468     	 ldr r4,[r0,#8]
 1053              	.LVL91:
 1054              	 .loc 1 1500 0
 1055 0008 082B     	 cmp r3,#8
 1056 000a 02D0     	 beq .L85
 1057 000c 092B     	 cmp r3,#9
 1058 000e 37D0     	 beq .L86
 1059 0010 91E0     	 b .L100
 1060              	.L85:
1501:C:/Workspace/DAVE-4.4.2-64Bit/optiga-trust-m/optiga/cmd\optiga_cmd.c ****     {
1502:C:/Workspace/DAVE-4.4.2-64Bit/optiga-trust-m/optiga/cmd\optiga_cmd.c ****         case OPTIGA_CMD_EXEC_PREPARE_COMMAND:
1503:C:/Workspace/DAVE-4.4.2-64Bit/optiga-trust-m/optiga/cmd\optiga_cmd.c ****         {
1504:C:/Workspace/DAVE-4.4.2-64Bit/optiga-trust-m/optiga/cmd\optiga_cmd.c ****             OPTIGA_CMD_LOG_MESSAGE("Sending read data command...");
 1061              	 .loc 1 1504 0
 1062 0012 4A48     	 ldr r0,.L102
 1063              	.LVL92:
 1064 0014 4A49     	 ldr r1,.L102+4
 1065 0016 4B4A     	 ldr r2,.L102+8
 1066 0018 FFF7FEFF 	 bl optiga_lib_print_message
 1067              	.LVL93:
1505:C:/Workspace/DAVE-4.4.2-64Bit/optiga-trust-m/optiga/cmd\optiga_cmd.c ****             // APDU header size + oid 2bytes + offset 2 bytes + length 2 bytes
1506:C:/Workspace/DAVE-4.4.2-64Bit/optiga-trust-m/optiga/cmd\optiga_cmd.c ****             total_apdu_length = OPTIGA_CMD_APDU_HEADER_SIZE + OPTIGA_CMD_UINT16_SIZE_IN_BYTES +
1507:C:/Workspace/DAVE-4.4.2-64Bit/optiga-trust-m/optiga/cmd\optiga_cmd.c ****                                     OPTIGA_CMD_UINT16_SIZE_IN_BYTES + OPTIGA_CMD_UINT16_SIZE_IN_BYT
1508:C:/Workspace/DAVE-4.4.2-64Bit/optiga-trust-m/optiga/cmd\optiga_cmd.c ****             //lint --e{774} suppress "If OPTIGA_MAX_COMMS_BUFFER_SIZE is set to lesser value it wil
1509:C:/Workspace/DAVE-4.4.2-64Bit/optiga-trust-m/optiga/cmd\optiga_cmd.c ****             if (OPTIGA_MAX_COMMS_BUFFER_SIZE < total_apdu_length)
1510:C:/Workspace/DAVE-4.4.2-64Bit/optiga-trust-m/optiga/cmd\optiga_cmd.c ****             {
1511:C:/Workspace/DAVE-4.4.2-64Bit/optiga-trust-m/optiga/cmd\optiga_cmd.c ****                 return_status = OPTIGA_CMD_ERROR_MEMORY_INSUFFICIENT;
1512:C:/Workspace/DAVE-4.4.2-64Bit/optiga-trust-m/optiga/cmd\optiga_cmd.c ****                 *(p_optiga_read_data->ref_bytes_to_read) = 0x00;
1513:C:/Workspace/DAVE-4.4.2-64Bit/optiga-trust-m/optiga/cmd\optiga_cmd.c ****                 break;
1514:C:/Workspace/DAVE-4.4.2-64Bit/optiga-trust-m/optiga/cmd\optiga_cmd.c ****             }
1515:C:/Workspace/DAVE-4.4.2-64Bit/optiga-trust-m/optiga/cmd\optiga_cmd.c ****             //oid
1516:C:/Workspace/DAVE-4.4.2-64Bit/optiga-trust-m/optiga/cmd\optiga_cmd.c ****             optiga_common_set_uint16(&me->p_optiga->optiga_comms_buffer[index_for_data],
 1068              	 .loc 1 1516 0
 1069 001c 2868     	 ldr r0,[r5]
 1070 001e 2188     	 ldrh r1,[r4]
 1071 0020 1630     	 add r0,r0,#22
 1072 0022 FFF7FEFF 	 bl optiga_common_set_uint16
 1073              	.LVL94:
1517:C:/Workspace/DAVE-4.4.2-64Bit/optiga-trust-m/optiga/cmd\optiga_cmd.c ****                                      p_optiga_read_data->oid);
1518:C:/Workspace/DAVE-4.4.2-64Bit/optiga-trust-m/optiga/cmd\optiga_cmd.c ****             index_for_data += OPTIGA_CMD_UINT16_SIZE_IN_BYTES;
1519:C:/Workspace/DAVE-4.4.2-64Bit/optiga-trust-m/optiga/cmd\optiga_cmd.c **** 
1520:C:/Workspace/DAVE-4.4.2-64Bit/optiga-trust-m/optiga/cmd\optiga_cmd.c ****             size_to_read = MIN((OPTIGA_MAX_COMMS_BUFFER_SIZE - OPTIGA_CMD_APDU_HEADER_SIZE),
 1074              	 .loc 1 1520 0
 1075 0026 E188     	 ldrh r1,[r4,#6]
 1076 0028 A688     	 ldrh r6,[r4,#4]
 1077 002a 474B     	 ldr r3,.L102+12
 1078 002c 761A     	 sub r6,r6,r1
 1079 002e 9E42     	 cmp r6,r3
 1080 0030 00DD     	 ble .L87
 1081 0032 1E1C     	 mov r6,r3
 1082              	.L87:
1521:C:/Workspace/DAVE-4.4.2-64Bit/optiga-trust-m/optiga/cmd\optiga_cmd.c ****                                (p_optiga_read_data->bytes_to_read - p_optiga_read_data->accumulated
1522:C:/Workspace/DAVE-4.4.2-64Bit/optiga-trust-m/optiga/cmd\optiga_cmd.c **** 
1523:C:/Workspace/DAVE-4.4.2-64Bit/optiga-trust-m/optiga/cmd\optiga_cmd.c ****             if (CMD_READ_DATA == p_optiga_read_data->data_or_metadata)
 1083              	 .loc 1 1523 0
 1084 0034 A27A     	 ldrb r2,[r4,#10]
1520:C:/Workspace/DAVE-4.4.2-64Bit/optiga-trust-m/optiga/cmd\optiga_cmd.c ****                                (p_optiga_read_data->bytes_to_read - p_optiga_read_data->accumulated
 1085              	 .loc 1 1520 0
 1086 0036 B6B2     	 uxth r6,r6
 1087              	.LVL95:
1518:C:/Workspace/DAVE-4.4.2-64Bit/optiga-trust-m/optiga/cmd\optiga_cmd.c **** 
 1088              	 .loc 1 1518 0
 1089 0038 0B23     	 mov r3,#11
 1090              	 .loc 1 1523 0
 1091 003a 002A     	 cmp r2,#0
 1092 003c 0CD1     	 bne .L88
1524:C:/Workspace/DAVE-4.4.2-64Bit/optiga-trust-m/optiga/cmd\optiga_cmd.c ****             {
1525:C:/Workspace/DAVE-4.4.2-64Bit/optiga-trust-m/optiga/cmd\optiga_cmd.c ****                 //offset
1526:C:/Workspace/DAVE-4.4.2-64Bit/optiga-trust-m/optiga/cmd\optiga_cmd.c ****                 optiga_common_set_uint16(&me->p_optiga->optiga_comms_buffer[index_for_data],
 1093              	 .loc 1 1526 0
 1094 003e 6388     	 ldrh r3,[r4,#2]
 1095 0040 2868     	 ldr r0,[r5]
 1096 0042 C918     	 add r1,r1,r3
 1097 0044 1830     	 add r0,r0,#24
 1098 0046 89B2     	 uxth r1,r1
 1099 0048 FFF7FEFF 	 bl optiga_common_set_uint16
 1100              	.LVL96:
1527:C:/Workspace/DAVE-4.4.2-64Bit/optiga-trust-m/optiga/cmd\optiga_cmd.c ****                            (p_optiga_read_data->offset + p_optiga_read_data->accumulated_size));
1528:C:/Workspace/DAVE-4.4.2-64Bit/optiga-trust-m/optiga/cmd\optiga_cmd.c ****                 index_for_data += OPTIGA_CMD_UINT16_SIZE_IN_BYTES;
1529:C:/Workspace/DAVE-4.4.2-64Bit/optiga-trust-m/optiga/cmd\optiga_cmd.c **** 
1530:C:/Workspace/DAVE-4.4.2-64Bit/optiga-trust-m/optiga/cmd\optiga_cmd.c ****                 //length
1531:C:/Workspace/DAVE-4.4.2-64Bit/optiga-trust-m/optiga/cmd\optiga_cmd.c ****                 optiga_common_set_uint16(&me->p_optiga->optiga_comms_buffer[index_for_data],
 1101              	 .loc 1 1531 0
 1102 004c 2868     	 ldr r0,[r5]
 1103 004e 311C     	 mov r1,r6
 1104 0050 1A30     	 add r0,r0,#26
 1105 0052 FFF7FEFF 	 bl optiga_common_set_uint16
 1106              	.LVL97:
1532:C:/Workspace/DAVE-4.4.2-64Bit/optiga-trust-m/optiga/cmd\optiga_cmd.c ****                                          size_to_read);
1533:C:/Workspace/DAVE-4.4.2-64Bit/optiga-trust-m/optiga/cmd\optiga_cmd.c ****                 index_for_data += OPTIGA_CMD_UINT16_SIZE_IN_BYTES;
 1107              	 .loc 1 1533 0
 1108 0056 0F23     	 mov r3,#15
 1109              	.LVL98:
 1110              	.L88:
1534:C:/Workspace/DAVE-4.4.2-64Bit/optiga-trust-m/optiga/cmd\optiga_cmd.c ****             }
1535:C:/Workspace/DAVE-4.4.2-64Bit/optiga-trust-m/optiga/cmd\optiga_cmd.c ****             // If OID is for Last error code, don't clear the error code in read
1536:C:/Workspace/DAVE-4.4.2-64Bit/optiga-trust-m/optiga/cmd\optiga_cmd.c ****             if (OPTIGA_CMD_LAST_ERROR_CODE == p_optiga_read_data->oid)
 1111              	 .loc 1 1536 0
 1112 0058 2088     	 ldrh r0,[r4]
 1113 005a 3C4A     	 ldr r2,.L102+16
1499:C:/Workspace/DAVE-4.4.2-64Bit/optiga-trust-m/optiga/cmd\optiga_cmd.c ****     switch ((uint8_t)me->cmd_next_execution_state)
 1114              	 .loc 1 1499 0
 1115 005c 8121     	 mov r1,#129
 1116              	 .loc 1 1536 0
 1117 005e 9042     	 cmp r0,r2
 1118 0060 00D1     	 bne .L89
1537:C:/Workspace/DAVE-4.4.2-64Bit/optiga-trust-m/optiga/cmd\optiga_cmd.c ****             {
1538:C:/Workspace/DAVE-4.4.2-64Bit/optiga-trust-m/optiga/cmd\optiga_cmd.c ****                 cmd = CMD_GET_DATA_OBJECT_NO_ERROR_CLEAR;
 1119              	 .loc 1 1538 0
 1120 0062 8039     	 sub r1,r1,#128
 1121              	.L89:
 1122              	.LVL99:
1539:C:/Workspace/DAVE-4.4.2-64Bit/optiga-trust-m/optiga/cmd\optiga_cmd.c ****             }
1540:C:/Workspace/DAVE-4.4.2-64Bit/optiga-trust-m/optiga/cmd\optiga_cmd.c ****             //prepare APDU header
1541:C:/Workspace/DAVE-4.4.2-64Bit/optiga-trust-m/optiga/cmd\optiga_cmd.c ****             optiga_cmd_prepare_apdu_header(cmd,
1542:C:/Workspace/DAVE-4.4.2-64Bit/optiga-trust-m/optiga/cmd\optiga_cmd.c ****                                            me->cmd_param,
1543:C:/Workspace/DAVE-4.4.2-64Bit/optiga-trust-m/optiga/cmd\optiga_cmd.c ****                                            (index_for_data - OPTIGA_CMD_APDU_INDATA_OFFSET),
1544:C:/Workspace/DAVE-4.4.2-64Bit/optiga-trust-m/optiga/cmd\optiga_cmd.c ****                                            (me->p_optiga->optiga_comms_buffer + OPTIGA_COMMS_DATA_O
 1123              	 .loc 1 1544 0
 1124 0064 2A68     	 ldr r2,[r5]
 1125              	.LVL100:
1541:C:/Workspace/DAVE-4.4.2-64Bit/optiga-trust-m/optiga/cmd\optiga_cmd.c ****                                            me->cmd_param,
 1126              	 .loc 1 1541 0
 1127 0066 287E     	 ldrb r0,[r5,#24]
 1128              	.LVL101:
 1129              	.LBB118:
 1130              	.LBB119:
 421:C:/Workspace/DAVE-4.4.2-64Bit/optiga-trust-m/optiga/cmd\optiga_cmd.c ****     p_apdu_buffer [1] = param;
 1131              	 .loc 1 421 0
 1132 0068 9174     	 strb r1,[r2,#18]
 1133              	.LBE119:
 1134              	.LBE118:
1541:C:/Workspace/DAVE-4.4.2-64Bit/optiga-trust-m/optiga/cmd\optiga_cmd.c ****                                            me->cmd_param,
 1135              	 .loc 1 1541 0
 1136 006a 191C     	 mov r1,r3
 1137              	.LVL102:
 1138              	.LBB122:
 1139              	.LBB120:
 422:C:/Workspace/DAVE-4.4.2-64Bit/optiga-trust-m/optiga/cmd\optiga_cmd.c ****     p_apdu_buffer [2] = (uint8_t)((in_data_length & 0xFF00) >> 8);
 1140              	 .loc 1 422 0
 1141 006c D074     	 strb r0,[r2,#19]
 423:C:/Workspace/DAVE-4.4.2-64Bit/optiga-trust-m/optiga/cmd\optiga_cmd.c ****     p_apdu_buffer [3] = (uint8_t)(in_data_length & 0x00FF);
 1142              	 .loc 1 423 0
 1143 006e 0020     	 mov r0,#0
 1144              	.LVL103:
 1145              	.LBE120:
 1146              	.LBE122:
1541:C:/Workspace/DAVE-4.4.2-64Bit/optiga-trust-m/optiga/cmd\optiga_cmd.c ****                                            me->cmd_param,
 1147              	 .loc 1 1541 0
 1148 0070 0939     	 sub r1,r1,#9
 1149              	.LBB123:
 1150              	.LBB121:
 423:C:/Workspace/DAVE-4.4.2-64Bit/optiga-trust-m/optiga/cmd\optiga_cmd.c ****     p_apdu_buffer [3] = (uint8_t)(in_data_length & 0x00FF);
 1151              	 .loc 1 423 0
 1152 0072 1075     	 strb r0,[r2,#20]
 424:C:/Workspace/DAVE-4.4.2-64Bit/optiga-trust-m/optiga/cmd\optiga_cmd.c **** }
 1153              	 .loc 1 424 0
 1154 0074 5175     	 strb r1,[r2,#21]
 1155              	.LBE121:
 1156              	.LBE123:
1545:C:/Workspace/DAVE-4.4.2-64Bit/optiga-trust-m/optiga/cmd\optiga_cmd.c **** 
1546:C:/Workspace/DAVE-4.4.2-64Bit/optiga-trust-m/optiga/cmd\optiga_cmd.c ****             me->p_optiga->comms_tx_size = index_for_data - OPTIGA_COMMS_DATA_OFFSET;
 1157              	 .loc 1 1546 0
 1158 0076 2A68     	 ldr r2,[r5]
 1159              	.LVL104:
 1160 0078 053B     	 sub r3,r3,#5
 1161              	.LVL105:
 1162 007a 9380     	 strh r3,[r2,#4]
1547:C:/Workspace/DAVE-4.4.2-64Bit/optiga-trust-m/optiga/cmd\optiga_cmd.c ****             p_optiga_read_data->last_read_size = size_to_read;
 1163              	 .loc 1 1547 0
 1164 007c 2681     	 strh r6,[r4,#8]
 1165              	.LVL106:
1548:C:/Workspace/DAVE-4.4.2-64Bit/optiga-trust-m/optiga/cmd\optiga_cmd.c ****             return_status = OPTIGA_LIB_SUCCESS;
1549:C:/Workspace/DAVE-4.4.2-64Bit/optiga-trust-m/optiga/cmd\optiga_cmd.c ****         }
1550:C:/Workspace/DAVE-4.4.2-64Bit/optiga-trust-m/optiga/cmd\optiga_cmd.c ****         break;
 1166              	 .loc 1 1550 0
 1167 007e 5BE0     	 b .L84
 1168              	.LVL107:
 1169              	.L86:
1551:C:/Workspace/DAVE-4.4.2-64Bit/optiga-trust-m/optiga/cmd\optiga_cmd.c ****         case OPTIGA_CMD_EXEC_PROCESS_RESPONSE:
1552:C:/Workspace/DAVE-4.4.2-64Bit/optiga-trust-m/optiga/cmd\optiga_cmd.c ****         {
1553:C:/Workspace/DAVE-4.4.2-64Bit/optiga-trust-m/optiga/cmd\optiga_cmd.c ****             OPTIGA_CMD_LOG_MESSAGE("Processing response for read data command...");
 1170              	 .loc 1 1553 0
 1171 0080 2F4F     	 ldr r7,.L102+4
 1172 0082 3348     	 ldr r0,.L102+20
 1173              	.LVL108:
 1174 0084 391C     	 mov r1,r7
 1175 0086 2F4A     	 ldr r2,.L102+8
 1176 0088 FFF7FEFF 	 bl optiga_lib_print_message
 1177              	.LVL109:
1554:C:/Workspace/DAVE-4.4.2-64Bit/optiga-trust-m/optiga/cmd\optiga_cmd.c ****             me->chaining_ongoing = FALSE;
 1178              	 .loc 1 1554 0
 1179 008c 0023     	 mov r3,#0
1555:C:/Workspace/DAVE-4.4.2-64Bit/optiga-trust-m/optiga/cmd\optiga_cmd.c ****             // check if the read was successful
1556:C:/Workspace/DAVE-4.4.2-64Bit/optiga-trust-m/optiga/cmd\optiga_cmd.c ****             if (OPTIGA_CMD_APDU_SUCCESS != me->p_optiga->optiga_comms_buffer[OPTIGA_COMMS_DATA_OFFS
 1180              	 .loc 1 1556 0
 1181 008e 2968     	 ldr r1,[r5]
1554:C:/Workspace/DAVE-4.4.2-64Bit/optiga-trust-m/optiga/cmd\optiga_cmd.c ****             me->chaining_ongoing = FALSE;
 1182              	 .loc 1 1554 0
 1183 0090 EB75     	 strb r3,[r5,#23]
 1184              	 .loc 1 1556 0
 1185 0092 8B7C     	 ldrb r3,[r1,#18]
 1186 0094 0193     	 str r3,[sp,#4]
 1187 0096 002B     	 cmp r3,#0
 1188 0098 13D0     	 beq .L90
1557:C:/Workspace/DAVE-4.4.2-64Bit/optiga-trust-m/optiga/cmd\optiga_cmd.c ****             {
1558:C:/Workspace/DAVE-4.4.2-64Bit/optiga-trust-m/optiga/cmd\optiga_cmd.c ****                 OPTIGA_CMD_LOG_MESSAGE("Error in processing read data response...");
 1189              	 .loc 1 1558 0
 1190 009a 391C     	 mov r1,r7
 1191 009c 294A     	 ldr r2,.L102+8
 1192 009e 2D48     	 ldr r0,.L102+24
 1193 00a0 FFF7FEFF 	 bl optiga_lib_print_message
 1194              	.LVL110:
 1195 00a4 7F23     	 mov r3,#127
 1196 00a6 297F     	 ldrb r1,[r5,#28]
1559:C:/Workspace/DAVE-4.4.2-64Bit/optiga-trust-m/optiga/cmd\optiga_cmd.c ****                 //check if it is out of boundary issue
1560:C:/Workspace/DAVE-4.4.2-64Bit/optiga-trust-m/optiga/cmd\optiga_cmd.c ****                 if (OPTIGA_CMD_ZERO_LENGTH_OR_VALUE != p_optiga_read_data->accumulated_size)
 1197              	 .loc 1 1560 0
 1198 00a8 E288     	 ldrh r2,[r4,#6]
1561:C:/Workspace/DAVE-4.4.2-64Bit/optiga-trust-m/optiga/cmd\optiga_cmd.c ****                 {
1562:C:/Workspace/DAVE-4.4.2-64Bit/optiga-trust-m/optiga/cmd\optiga_cmd.c ****                     SET_DEV_ERROR_NOTIFICATION(OPTIGA_CMD_ENTER_HANDLER_CALL);
 1199              	 .loc 1 1562 0
 1200 00aa 0B40     	 and r3,r1
1560:C:/Workspace/DAVE-4.4.2-64Bit/optiga-trust-m/optiga/cmd\optiga_cmd.c ****                 {
 1201              	 .loc 1 1560 0
 1202 00ac 002A     	 cmp r2,#0
 1203 00ae 04D0     	 beq .L91
 1204              	 .loc 1 1562 0
 1205 00b0 8022     	 mov r2,#128
 1206 00b2 5242     	 neg r2,r2
 1207 00b4 1343     	 orr r3,r2
 1208 00b6 2B77     	 strb r3,[r5,#28]
 1209 00b8 3DE0     	 b .L100
 1210              	.L91:
1563:C:/Workspace/DAVE-4.4.2-64Bit/optiga-trust-m/optiga/cmd\optiga_cmd.c ****                 }
1564:C:/Workspace/DAVE-4.4.2-64Bit/optiga-trust-m/optiga/cmd\optiga_cmd.c ****                 //flag used to setting the received buffer length to 0, in case unexpected error
1565:C:/Workspace/DAVE-4.4.2-64Bit/optiga-trust-m/optiga/cmd\optiga_cmd.c ****                 else
1566:C:/Workspace/DAVE-4.4.2-64Bit/optiga-trust-m/optiga/cmd\optiga_cmd.c ****                 {
1567:C:/Workspace/DAVE-4.4.2-64Bit/optiga-trust-m/optiga/cmd\optiga_cmd.c ****                     SET_DEV_ERROR_NOTIFICATION(OPTIGA_CMD_EXIT_HANDLER_CALL);
 1211              	 .loc 1 1567 0
 1212 00ba 2B77     	 strb r3,[r5,#28]
1568:C:/Workspace/DAVE-4.4.2-64Bit/optiga-trust-m/optiga/cmd\optiga_cmd.c ****                     *(p_optiga_read_data->ref_bytes_to_read) = 0x00;
 1213              	 .loc 1 1568 0
 1214 00bc E368     	 ldr r3,[r4,#12]
 1215 00be 1A80     	 strh r2,[r3]
 1216 00c0 39E0     	 b .L100
 1217              	.L90:
1569:C:/Workspace/DAVE-4.4.2-64Bit/optiga-trust-m/optiga/cmd\optiga_cmd.c ****                 }
1570:C:/Workspace/DAVE-4.4.2-64Bit/optiga-trust-m/optiga/cmd\optiga_cmd.c ****                 return_status = OPTIGA_CMD_ERROR;
1571:C:/Workspace/DAVE-4.4.2-64Bit/optiga-trust-m/optiga/cmd\optiga_cmd.c ****             }
1572:C:/Workspace/DAVE-4.4.2-64Bit/optiga-trust-m/optiga/cmd\optiga_cmd.c ****             else if (me->exit_status == (optiga_lib_status_t)(OPTIGA_CMD_OUT_OF_BOUNDARY_ERROR | OP
 1218              	 .loc 1 1572 0
 1219 00c2 EA8B     	 ldrh r2,[r5,#30]
 1220 00c4 244B     	 ldr r3,.L102+28
 1221 00c6 9A42     	 cmp r2,r3
 1222 00c8 03D1     	 bne .L92
1573:C:/Workspace/DAVE-4.4.2-64Bit/optiga-trust-m/optiga/cmd\optiga_cmd.c ****             {
1574:C:/Workspace/DAVE-4.4.2-64Bit/optiga-trust-m/optiga/cmd\optiga_cmd.c ****                 *(p_optiga_read_data->ref_bytes_to_read) = p_optiga_read_data->accumulated_size;
 1223              	 .loc 1 1574 0
 1224 00ca E288     	 ldrh r2,[r4,#6]
 1225 00cc E368     	 ldr r3,[r4,#12]
 1226 00ce 1A80     	 strh r2,[r3]
 1227              	.LVL111:
 1228 00d0 2FE0     	 b .L101
 1229              	.LVL112:
 1230              	.L92:
1575:C:/Workspace/DAVE-4.4.2-64Bit/optiga-trust-m/optiga/cmd\optiga_cmd.c ****                 return_status = OPTIGA_LIB_SUCCESS;
1576:C:/Workspace/DAVE-4.4.2-64Bit/optiga-trust-m/optiga/cmd\optiga_cmd.c ****             }
1577:C:/Workspace/DAVE-4.4.2-64Bit/optiga-trust-m/optiga/cmd\optiga_cmd.c ****             else
1578:C:/Workspace/DAVE-4.4.2-64Bit/optiga-trust-m/optiga/cmd\optiga_cmd.c ****             {
1579:C:/Workspace/DAVE-4.4.2-64Bit/optiga-trust-m/optiga/cmd\optiga_cmd.c ****                 //copy data from optiga comms buffer to user provided buffer
1580:C:/Workspace/DAVE-4.4.2-64Bit/optiga-trust-m/optiga/cmd\optiga_cmd.c ****                 data_read = me->p_optiga->comms_rx_size - OPTIGA_CMD_APDU_HEADER_SIZE;
 1231              	 .loc 1 1580 0
 1232 00d2 CE88     	 ldrh r6,[r1,#6]
1581:C:/Workspace/DAVE-4.4.2-64Bit/optiga-trust-m/optiga/cmd\optiga_cmd.c **** 
1582:C:/Workspace/DAVE-4.4.2-64Bit/optiga-trust-m/optiga/cmd\optiga_cmd.c ****                 // check if the data received is greater than the size of read buffer
1583:C:/Workspace/DAVE-4.4.2-64Bit/optiga-trust-m/optiga/cmd\optiga_cmd.c ****                 if (p_optiga_read_data->bytes_to_read < data_read)
 1233              	 .loc 1 1583 0
 1234 00d4 A388     	 ldrh r3,[r4,#4]
1580:C:/Workspace/DAVE-4.4.2-64Bit/optiga-trust-m/optiga/cmd\optiga_cmd.c **** 
 1235              	 .loc 1 1580 0
 1236 00d6 043E     	 sub r6,r6,#4
 1237 00d8 B6B2     	 uxth r6,r6
 1238              	.LVL113:
 1239              	 .loc 1 1583 0
 1240 00da B342     	 cmp r3,r6
 1241 00dc 0BD2     	 bcs .L93
1584:C:/Workspace/DAVE-4.4.2-64Bit/optiga-trust-m/optiga/cmd\optiga_cmd.c ****                 {
1585:C:/Workspace/DAVE-4.4.2-64Bit/optiga-trust-m/optiga/cmd\optiga_cmd.c ****                     OPTIGA_CMD_LOG_MESSAGE("Error in processing read data response...");
 1242              	 .loc 1 1585 0
 1243 00de 1D48     	 ldr r0,.L102+24
 1244 00e0 184A     	 ldr r2,.L102+8
 1245 00e2 391C     	 mov r1,r7
 1246 00e4 FFF7FEFF 	 bl optiga_lib_print_message
 1247              	.LVL114:
1586:C:/Workspace/DAVE-4.4.2-64Bit/optiga-trust-m/optiga/cmd\optiga_cmd.c ****                     return_status = OPTIGA_CMD_ERROR_MEMORY_INSUFFICIENT;
1587:C:/Workspace/DAVE-4.4.2-64Bit/optiga-trust-m/optiga/cmd\optiga_cmd.c ****                     *(p_optiga_read_data->ref_bytes_to_read) = 0x00;
 1248              	 .loc 1 1587 0
 1249 00e8 6A46     	 mov r2,sp
1586:C:/Workspace/DAVE-4.4.2-64Bit/optiga-trust-m/optiga/cmd\optiga_cmd.c ****                     return_status = OPTIGA_CMD_ERROR_MEMORY_INSUFFICIENT;
 1250              	 .loc 1 1586 0
 1251 00ea 8120     	 mov r0,#129
 1252              	 .loc 1 1587 0
 1253 00ec E368     	 ldr r3,[r4,#12]
 1254 00ee 9288     	 ldrh r2,[r2,#4]
1586:C:/Workspace/DAVE-4.4.2-64Bit/optiga-trust-m/optiga/cmd\optiga_cmd.c ****                     return_status = OPTIGA_CMD_ERROR_MEMORY_INSUFFICIENT;
 1255              	 .loc 1 1586 0
 1256 00f0 8000     	 lsl r0,r0,#2
 1257              	 .loc 1 1587 0
 1258 00f2 1A80     	 strh r2,[r3]
1588:C:/Workspace/DAVE-4.4.2-64Bit/optiga-trust-m/optiga/cmd\optiga_cmd.c ****                     break;
 1259              	 .loc 1 1588 0
 1260 00f4 20E0     	 b .L84
 1261              	.LVL115:
 1262              	.L93:
1589:C:/Workspace/DAVE-4.4.2-64Bit/optiga-trust-m/optiga/cmd\optiga_cmd.c ****                 }
1590:C:/Workspace/DAVE-4.4.2-64Bit/optiga-trust-m/optiga/cmd\optiga_cmd.c **** 
1591:C:/Workspace/DAVE-4.4.2-64Bit/optiga-trust-m/optiga/cmd\optiga_cmd.c ****                 //copy data from optiga comms buffer to user provided buffer
1592:C:/Workspace/DAVE-4.4.2-64Bit/optiga-trust-m/optiga/cmd\optiga_cmd.c ****                 pal_os_memcpy(p_optiga_read_data->buffer + p_optiga_read_data->accumulated_size,
 1263              	 .loc 1 1592 0
 1264 00f6 2369     	 ldr r3,[r4,#16]
 1265 00f8 E088     	 ldrh r0,[r4,#6]
 1266 00fa 321C     	 mov r2,r6
 1267 00fc 1818     	 add r0,r3,r0
 1268 00fe 1631     	 add r1,r1,#22
 1269 0100 FFF7FEFF 	 bl memcpy
 1270              	.LVL116:
1593:C:/Workspace/DAVE-4.4.2-64Bit/optiga-trust-m/optiga/cmd\optiga_cmd.c ****                               me->p_optiga->optiga_comms_buffer + OPTIGA_CMD_APDU_INDATA_OFFSET,
1594:C:/Workspace/DAVE-4.4.2-64Bit/optiga-trust-m/optiga/cmd\optiga_cmd.c ****                               data_read);
1595:C:/Workspace/DAVE-4.4.2-64Bit/optiga-trust-m/optiga/cmd\optiga_cmd.c **** 
1596:C:/Workspace/DAVE-4.4.2-64Bit/optiga-trust-m/optiga/cmd\optiga_cmd.c ****                 p_optiga_read_data->accumulated_size += data_read;
 1271              	 .loc 1 1596 0
 1272 0104 E388     	 ldrh r3,[r4,#6]
1597:C:/Workspace/DAVE-4.4.2-64Bit/optiga-trust-m/optiga/cmd\optiga_cmd.c **** 
1598:C:/Workspace/DAVE-4.4.2-64Bit/optiga-trust-m/optiga/cmd\optiga_cmd.c ****                 if ((p_optiga_read_data->last_read_size > data_read) ||
 1273              	 .loc 1 1598 0
 1274 0106 2289     	 ldrh r2,[r4,#8]
1596:C:/Workspace/DAVE-4.4.2-64Bit/optiga-trust-m/optiga/cmd\optiga_cmd.c **** 
 1275              	 .loc 1 1596 0
 1276 0108 F318     	 add r3,r6,r3
 1277 010a 9BB2     	 uxth r3,r3
 1278 010c E380     	 strh r3,[r4,#6]
 1279              	 .loc 1 1598 0
 1280 010e B242     	 cmp r2,r6
 1281 0110 02D8     	 bhi .L94
 1282              	 .loc 1 1598 0 is_stmt 0 discriminator 1
 1283 0112 A288     	 ldrh r2,[r4,#4]
 1284 0114 9A42     	 cmp r2,r3
 1285 0116 05D1     	 bne .L95
 1286              	.L94:
1599:C:/Workspace/DAVE-4.4.2-64Bit/optiga-trust-m/optiga/cmd\optiga_cmd.c ****                     (p_optiga_read_data->accumulated_size == p_optiga_read_data->bytes_to_read))
1600:C:/Workspace/DAVE-4.4.2-64Bit/optiga-trust-m/optiga/cmd\optiga_cmd.c ****                 {
1601:C:/Workspace/DAVE-4.4.2-64Bit/optiga-trust-m/optiga/cmd\optiga_cmd.c ****                     *(p_optiga_read_data->ref_bytes_to_read) = p_optiga_read_data->accumulated_size
 1287              	 .loc 1 1601 0 is_stmt 1
 1288 0118 E268     	 ldr r2,[r4,#12]
 1289 011a 1380     	 strh r3,[r2]
1602:C:/Workspace/DAVE-4.4.2-64Bit/optiga-trust-m/optiga/cmd\optiga_cmd.c ****                     p_optiga_read_data->accumulated_size = 0;
 1290              	 .loc 1 1602 0
 1291 011c 0023     	 mov r3,#0
 1292 011e E380     	 strh r3,[r4,#6]
1603:C:/Workspace/DAVE-4.4.2-64Bit/optiga-trust-m/optiga/cmd\optiga_cmd.c ****                     p_optiga_read_data->last_read_size = 0;
 1293              	 .loc 1 1603 0
 1294 0120 2381     	 strh r3,[r4,#8]
 1295 0122 01E0     	 b .L96
 1296              	.L95:
1604:C:/Workspace/DAVE-4.4.2-64Bit/optiga-trust-m/optiga/cmd\optiga_cmd.c ****                 }
1605:C:/Workspace/DAVE-4.4.2-64Bit/optiga-trust-m/optiga/cmd\optiga_cmd.c ****                 else
1606:C:/Workspace/DAVE-4.4.2-64Bit/optiga-trust-m/optiga/cmd\optiga_cmd.c ****                 {
