   1              	 .cpu cortex-m0
   2              	 .fpu softvfp
   3              	 .eabi_attribute 20,1
   4              	 .eabi_attribute 21,1
   5              	 .eabi_attribute 23,3
   6              	 .eabi_attribute 24,1
   7              	 .eabi_attribute 25,1
   8              	 .eabi_attribute 26,1
   9              	 .eabi_attribute 30,4
  10              	 .eabi_attribute 34,0
  11              	 .eabi_attribute 18,4
  12              	 .code 16
  13              	 .file "uart.c"
  14              	 .text
  15              	.Ltext0:
  16              	 .cfi_sections .debug_frame
  17              	 .section .text.UART_lReconfigureRxFIFO,"ax",%progbits
  18              	 .align 1
  19              	 .code 16
  20              	 .thumb_func
  22              	UART_lReconfigureRxFIFO:
  23              	.LFB185:
  24              	 .file 1 "../Dave/Generated/UART/uart.c"
   1:../Dave/Generated/UART/uart.c **** /**
   2:../Dave/Generated/UART/uart.c ****  * @file uart.c
   3:../Dave/Generated/UART/uart.c ****  * @date 2015-12-17
   4:../Dave/Generated/UART/uart.c ****  *
   5:../Dave/Generated/UART/uart.c ****  * NOTE:
   6:../Dave/Generated/UART/uart.c ****  * This file is generated by DAVE. Any manual modification done to this file will be lost when the 
   7:../Dave/Generated/UART/uart.c ****  *
   8:../Dave/Generated/UART/uart.c ****  * @cond
   9:../Dave/Generated/UART/uart.c ****  **************************************************************************************************
  10:../Dave/Generated/UART/uart.c ****  * UART v4.1.12 - Configures a USIC channel to perform transmit & receive operations using UART pro
  11:../Dave/Generated/UART/uart.c ****  *
  12:../Dave/Generated/UART/uart.c ****  * Copyright (c) 2015-2018, Infineon Technologies AG
  13:../Dave/Generated/UART/uart.c ****  * All rights reserved.
  14:../Dave/Generated/UART/uart.c ****  *
  15:../Dave/Generated/UART/uart.c ****  * Redistribution and use in source and binary forms, with or without modification,are permitted pr
  16:../Dave/Generated/UART/uart.c ****  * following conditions are met:
  17:../Dave/Generated/UART/uart.c ****  *
  18:../Dave/Generated/UART/uart.c ****  *   Redistributions of source code must retain the above copyright notice, this list of conditions
  19:../Dave/Generated/UART/uart.c ****  *   disclaimer.
  20:../Dave/Generated/UART/uart.c ****  *
  21:../Dave/Generated/UART/uart.c ****  *   Redistributions in binary form must reproduce the above copyright notice, this list of conditi
  22:../Dave/Generated/UART/uart.c ****  *   following disclaimer in the documentation and/or other materials provided with the distributio
  23:../Dave/Generated/UART/uart.c ****  *
  24:../Dave/Generated/UART/uart.c ****  *   Neither the name of the copyright holders nor the names of its contributors may be used to end
  25:../Dave/Generated/UART/uart.c ****  *   products derived from this software without specific prior written permission.
  26:../Dave/Generated/UART/uart.c ****  *
  27:../Dave/Generated/UART/uart.c ****  * THIS SOFTWARE IS PROVIDED BY THE COPYRIGHT HOLDERS AND CONTRIBUTORS "AS IS" AND ANY EXPRESS OR I
  28:../Dave/Generated/UART/uart.c ****  * INCLUDING, BUT NOT LIMITED TO, THE IMPLIED WARRANTIES OF MERCHANTABILITY AND FITNESS FOR A PARTI
  29:../Dave/Generated/UART/uart.c ****  * DISCLAIMED. IN NO EVENT SHALL THE COPYRIGHT HOLDER OR CONTRIBUTORS BE LIABLE  FOR ANY DIRECT, IN
  30:../Dave/Generated/UART/uart.c ****  * SPECIAL, EXEMPLARY, OR CONSEQUENTIAL DAMAGES (INCLUDING, BUT NOT LIMITED TO, PROCUREMENT OF SUBS
  31:../Dave/Generated/UART/uart.c ****  * SERVICES; LOSS OF USE, DATA, OR PROFITS; OR BUSINESS INTERRUPTION) HOWEVER CAUSED AND ON ANY THE
  32:../Dave/Generated/UART/uart.c ****  * WHETHER IN CONTRACT, STRICT LIABILITY,OR TORT (INCLUDING NEGLIGENCE OR OTHERWISE) ARISING IN ANY
  33:../Dave/Generated/UART/uart.c ****  * USE OF THIS SOFTWARE, EVEN IF ADVISED OF THE POSSIBILITY OF SUCH DAMAGE.
  34:../Dave/Generated/UART/uart.c ****  *
  35:../Dave/Generated/UART/uart.c ****  * To improve the quality of the software, users are encouraged to share modifications, enhancement
  36:../Dave/Generated/UART/uart.c ****  * with Infineon Technologies AG (dave@infineon.com).
  37:../Dave/Generated/UART/uart.c ****  **************************************************************************************************
  38:../Dave/Generated/UART/uart.c ****  *
  39:../Dave/Generated/UART/uart.c ****  * Change History
  40:../Dave/Generated/UART/uart.c ****  * --------------
  41:../Dave/Generated/UART/uart.c ****  *
  42:../Dave/Generated/UART/uart.c ****  * 2015-02-16:
  43:../Dave/Generated/UART/uart.c ****  *     - Initial version for DAVEv4
  44:../Dave/Generated/UART/uart.c ****  *
  45:../Dave/Generated/UART/uart.c ****  * 2015-06-20:
  46:../Dave/Generated/UART/uart.c ****  *     - Changed the abort API name from UART_Abort_Receive to UART_AbortReceive and added return t
  47:../Dave/Generated/UART/uart.c ****  *
  48:../Dave/Generated/UART/uart.c ****  * 2015-06-25:
  49:../Dave/Generated/UART/uart.c ****  *     - Changed protocol event handling to check event configuration
  50:../Dave/Generated/UART/uart.c ****  *
  51:../Dave/Generated/UART/uart.c ****  * 2015-07-06:
  52:../Dave/Generated/UART/uart.c ****  *     - Changed structure name from UART_DYNAMIC_t to UART_RUNTIME_t
  53:../Dave/Generated/UART/uart.c ****  *
  54:../Dave/Generated/UART/uart.c ****  * 2015-07-30:
  55:../Dave/Generated/UART/uart.c ****  *     - Added code for DMA and Direct mode handling
  56:../Dave/Generated/UART/uart.c ****  *
  57:../Dave/Generated/UART/uart.c ****  * @endcond
  58:../Dave/Generated/UART/uart.c ****  *
  59:../Dave/Generated/UART/uart.c ****  */
  60:../Dave/Generated/UART/uart.c **** 
  61:../Dave/Generated/UART/uart.c **** /**************************************************************************************************
  62:../Dave/Generated/UART/uart.c ****  * HEADER FILES
  63:../Dave/Generated/UART/uart.c ****  **************************************************************************************************
  64:../Dave/Generated/UART/uart.c **** #include "uart.h"
  65:../Dave/Generated/UART/uart.c **** 
  66:../Dave/Generated/UART/uart.c **** /**************************************************************************************************
  67:../Dave/Generated/UART/uart.c ****  * MACROS
  68:../Dave/Generated/UART/uart.c ****  **************************************************************************************************
  69:../Dave/Generated/UART/uart.c **** 
  70:../Dave/Generated/UART/uart.c **** /**************************************************************************************************
  71:../Dave/Generated/UART/uart.c ****  * LOCAL DATA
  72:../Dave/Generated/UART/uart.c ****  **************************************************************************************************
  73:../Dave/Generated/UART/uart.c **** const XMC_UART_CH_STATUS_FLAG_t uart_event_status_flags[UART_EVENT_MAX] = {
  74:../Dave/Generated/UART/uart.c ****   XMC_UART_CH_STATUS_FLAG_SYNCHRONIZATION_BREAK_DETECTED,
  75:../Dave/Generated/UART/uart.c ****   XMC_UART_CH_STATUS_FLAG_RECEIVER_NOISE_DETECTED,
  76:../Dave/Generated/UART/uart.c ****   XMC_UART_CH_STATUS_FLAG_FORMAT_ERROR_IN_STOP_BIT_0,
  77:../Dave/Generated/UART/uart.c ****   XMC_UART_CH_STATUS_FLAG_FORMAT_ERROR_IN_STOP_BIT_1,
  78:../Dave/Generated/UART/uart.c ****   XMC_UART_CH_STATUS_FLAG_COLLISION_DETECTED
  79:../Dave/Generated/UART/uart.c **** };
  80:../Dave/Generated/UART/uart.c **** const XMC_UART_CH_EVENT_t uart_event_conf_flags[UART_EVENT_MAX] = {
  81:../Dave/Generated/UART/uart.c ****   XMC_UART_CH_EVENT_SYNCHRONIZATION_BREAK,
  82:../Dave/Generated/UART/uart.c ****   XMC_UART_CH_EVENT_RECEIVER_NOISE,
  83:../Dave/Generated/UART/uart.c ****   XMC_UART_CH_EVENT_FORMAT_ERROR,
  84:../Dave/Generated/UART/uart.c ****   XMC_UART_CH_EVENT_FORMAT_ERROR,
  85:../Dave/Generated/UART/uart.c ****   XMC_UART_CH_EVENT_COLLISION
  86:../Dave/Generated/UART/uart.c **** };
  87:../Dave/Generated/UART/uart.c **** /**************************************************************************************************
  88:../Dave/Generated/UART/uart.c ****  * LOCAL ROUTINES
  89:../Dave/Generated/UART/uart.c ****  **************************************************************************************************
  90:../Dave/Generated/UART/uart.c **** #ifdef UART_TX_INTERRUPT_USED
  91:../Dave/Generated/UART/uart.c **** /*Function used for handling transmit interrupt.*/
  92:../Dave/Generated/UART/uart.c **** void UART_lTransmitHandler(const UART_t * const handle);
  93:../Dave/Generated/UART/uart.c **** #endif
  94:../Dave/Generated/UART/uart.c **** #ifdef UART_RX_INTERRUPT_USED
  95:../Dave/Generated/UART/uart.c **** /*Function used for handling data reception interrupts.*/
  96:../Dave/Generated/UART/uart.c **** void UART_lReceiveHandler(const UART_t * const handle);
  97:../Dave/Generated/UART/uart.c **** /*Function used for reconfiguring rx FIFO while receiving data.*/
  98:../Dave/Generated/UART/uart.c **** static void UART_lReconfigureRxFIFO(const UART_t * const handle, uint32_t data_size);
  99:../Dave/Generated/UART/uart.c **** #endif
 100:../Dave/Generated/UART/uart.c **** #ifdef UART_TX_DIRECT_USED
 101:../Dave/Generated/UART/uart.c **** /*Function for transmitting data using polling.*/
 102:../Dave/Generated/UART/uart.c **** static UART_STATUS_t UART_lStartTransmitPolling (const UART_t *const handle, uint8_t* data_ptr, uin
 103:../Dave/Generated/UART/uart.c **** #endif
 104:../Dave/Generated/UART/uart.c **** #ifdef UART_RX_DIRECT_USED
 105:../Dave/Generated/UART/uart.c **** /*Function for receiving data using polling.*/
 106:../Dave/Generated/UART/uart.c **** static UART_STATUS_t UART_lStartReceivePolling (const UART_t *const handle, uint8_t* data_ptr, uint
 107:../Dave/Generated/UART/uart.c **** #endif
 108:../Dave/Generated/UART/uart.c **** /*Function used for handling protocol related interrupt.*/
 109:../Dave/Generated/UART/uart.c **** void UART_lProtocolHandler(const UART_t * const handle);
 110:../Dave/Generated/UART/uart.c **** 
 111:../Dave/Generated/UART/uart.c **** 
 112:../Dave/Generated/UART/uart.c **** /**************************************************************************************************
 113:../Dave/Generated/UART/uart.c ****  * API IMPLEMENTATION
 114:../Dave/Generated/UART/uart.c ****  **************************************************************************************************
 115:../Dave/Generated/UART/uart.c **** 
 116:../Dave/Generated/UART/uart.c **** /*
 117:../Dave/Generated/UART/uart.c ****  * @brief API to retrieve the version of the UART APP.
 118:../Dave/Generated/UART/uart.c ****  *
 119:../Dave/Generated/UART/uart.c ****  * @return DAVE_APP_VERSION_t Structure containing major version, minor version
 120:../Dave/Generated/UART/uart.c ****  *         and patch version.
 121:../Dave/Generated/UART/uart.c ****  */
 122:../Dave/Generated/UART/uart.c **** DAVE_APP_VERSION_t UART_GetAppVersion()
 123:../Dave/Generated/UART/uart.c **** {
 124:../Dave/Generated/UART/uart.c ****   DAVE_APP_VERSION_t version;
 125:../Dave/Generated/UART/uart.c **** 
 126:../Dave/Generated/UART/uart.c ****   version.major = UART_MAJOR_VERSION;
 127:../Dave/Generated/UART/uart.c ****   version.minor = UART_MINOR_VERSION;
 128:../Dave/Generated/UART/uart.c ****   version.patch = UART_PATCH_VERSION;
 129:../Dave/Generated/UART/uart.c **** 
 130:../Dave/Generated/UART/uart.c ****   return version;
 131:../Dave/Generated/UART/uart.c **** }
 132:../Dave/Generated/UART/uart.c **** 
 133:../Dave/Generated/UART/uart.c **** /*
 134:../Dave/Generated/UART/uart.c ****  * @brief Function to initialize the USIC Channel with GUI configured values.
 135:../Dave/Generated/UART/uart.c ****  *
 136:../Dave/Generated/UART/uart.c ****  * @param[in]  handle UART APP handle pointer of type UART_t*
 137:../Dave/Generated/UART/uart.c ****  *
 138:../Dave/Generated/UART/uart.c ****  * @return  UART_STATUS_t
 139:../Dave/Generated/UART/uart.c ****  *          UART_SUCCESS: for successful UART initialization.<BR>
 140:../Dave/Generated/UART/uart.c ****  *          UART_STATUS_FAILURE  : If UART initialization fails.<BR>
 141:../Dave/Generated/UART/uart.c ****  *
 142:../Dave/Generated/UART/uart.c ****  */
 143:../Dave/Generated/UART/uart.c **** UART_STATUS_t UART_Init(const UART_t *const handle)
 144:../Dave/Generated/UART/uart.c **** {
 145:../Dave/Generated/UART/uart.c ****   UART_STATUS_t status = UART_STATUS_SUCCESS;
 146:../Dave/Generated/UART/uart.c ****   XMC_ASSERT("UART_Init : UART APP handle invalid", (((handle != NULL)&&
 147:../Dave/Generated/UART/uart.c ****       (handle->config != NULL)) &&((handle->config->fptr_uart_config != NULL)&&
 148:../Dave/Generated/UART/uart.c ****       (handle->runtime != NULL))))
 149:../Dave/Generated/UART/uart.c **** 
 150:../Dave/Generated/UART/uart.c ****   /*Initialize the multiplexers required for UART configuration*/
 151:../Dave/Generated/UART/uart.c ****   status = handle->config->fptr_uart_config();
 152:../Dave/Generated/UART/uart.c **** 
 153:../Dave/Generated/UART/uart.c ****   return status;
 154:../Dave/Generated/UART/uart.c **** }
 155:../Dave/Generated/UART/uart.c **** 
 156:../Dave/Generated/UART/uart.c **** /*
 157:../Dave/Generated/UART/uart.c ****  * @brief Common function to transmit data.
 158:../Dave/Generated/UART/uart.c ****  *
 159:../Dave/Generated/UART/uart.c ****  * @param[in]  handle UART APP handle pointer of type UART_t*
 160:../Dave/Generated/UART/uart.c ****  * @param[in]  data_ptr Pointer to data of type uint8_t
 161:../Dave/Generated/UART/uart.c ****  * @param[in]  count Number of uint8_t type bytes to be transmitted
 162:../Dave/Generated/UART/uart.c ****  *
 163:../Dave/Generated/UART/uart.c ****  * @return  UART_STATUS_t
 164:../Dave/Generated/UART/uart.c ****  *          UART_SUCCESS: If the data is put to transmit.<BR>
 165:../Dave/Generated/UART/uart.c ****  *          UART_STATUS_BUSY  : If the channel is busy.<BR>
 166:../Dave/Generated/UART/uart.c ****  *          UART_STATUS_BUFFER_INVALID: Either if buffer is NULL or count is 0.<BR>
 167:../Dave/Generated/UART/uart.c ****  *          UART_STATUS_MODE_MISMATCH: If the configured mode is invalid.<BR>
 168:../Dave/Generated/UART/uart.c ****  *
 169:../Dave/Generated/UART/uart.c ****  */
 170:../Dave/Generated/UART/uart.c **** UART_STATUS_t UART_Transmit(const UART_t *const handle, uint8_t* data_ptr, uint32_t count)
 171:../Dave/Generated/UART/uart.c **** {
 172:../Dave/Generated/UART/uart.c ****   UART_STATUS_t ret_stat = UART_STATUS_MODE_MISMATCH;
 173:../Dave/Generated/UART/uart.c **** 
 174:../Dave/Generated/UART/uart.c ****   switch(handle->config->transmit_mode)
 175:../Dave/Generated/UART/uart.c ****   {
 176:../Dave/Generated/UART/uart.c **** #ifdef UART_TX_INTERRUPT_USED
 177:../Dave/Generated/UART/uart.c ****   case UART_TRANSFER_MODE_INTERRUPT:
 178:../Dave/Generated/UART/uart.c ****     ret_stat = UART_StartTransmitIRQ(handle, data_ptr, count);
 179:../Dave/Generated/UART/uart.c ****     break;
 180:../Dave/Generated/UART/uart.c **** #endif
 181:../Dave/Generated/UART/uart.c **** #ifdef UART_TX_DMA_USED
 182:../Dave/Generated/UART/uart.c ****   case UART_TRANSFER_MODE_DMA:
 183:../Dave/Generated/UART/uart.c ****     ret_stat = UART_StartTransmitDMA(handle, data_ptr, count);
 184:../Dave/Generated/UART/uart.c ****     break;
 185:../Dave/Generated/UART/uart.c **** #endif
 186:../Dave/Generated/UART/uart.c **** #ifdef UART_TX_DIRECT_USED
 187:../Dave/Generated/UART/uart.c ****   case UART_TRANSFER_MODE_DIRECT:
 188:../Dave/Generated/UART/uart.c ****     ret_stat = UART_lStartTransmitPolling(handle, data_ptr, count);
 189:../Dave/Generated/UART/uart.c ****     break;
 190:../Dave/Generated/UART/uart.c **** #endif
 191:../Dave/Generated/UART/uart.c ****   default:
 192:../Dave/Generated/UART/uart.c ****     break;
 193:../Dave/Generated/UART/uart.c ****   }
 194:../Dave/Generated/UART/uart.c ****   return ret_stat;
 195:../Dave/Generated/UART/uart.c **** }
 196:../Dave/Generated/UART/uart.c **** 
 197:../Dave/Generated/UART/uart.c **** /*
 198:../Dave/Generated/UART/uart.c ****  * @brief Common function to receive data.
 199:../Dave/Generated/UART/uart.c ****  *
 200:../Dave/Generated/UART/uart.c ****  * @param[in]  handle UART APP handle pointer of type UART_t*
 201:../Dave/Generated/UART/uart.c ****  * @param[in]  data_ptr Pointer to data of type uint8_t
 202:../Dave/Generated/UART/uart.c ****  * @param[in]  count Number of uint8_t type bytes to be received
 203:../Dave/Generated/UART/uart.c ****  *
 204:../Dave/Generated/UART/uart.c ****  * @return  UART_STATUS_t
 205:../Dave/Generated/UART/uart.c ****  *          UART_SUCCESS: If the data is put to transmit.<BR>
 206:../Dave/Generated/UART/uart.c ****  *          UART_STATUS_BUSY  : If the channel is busy.<BR>
 207:../Dave/Generated/UART/uart.c ****  *          UART_STATUS_BUFFER_INVALID: Either if buffer is NULL or count is 0.<BR>
 208:../Dave/Generated/UART/uart.c ****  *          UART_STATUS_MODE_MISMATCH: If the configured mode is invalid.<BR>
 209:../Dave/Generated/UART/uart.c ****  *
 210:../Dave/Generated/UART/uart.c ****  */
 211:../Dave/Generated/UART/uart.c **** UART_STATUS_t UART_Receive(const UART_t *const handle, uint8_t* data_ptr, uint32_t count)
 212:../Dave/Generated/UART/uart.c **** {
 213:../Dave/Generated/UART/uart.c ****   UART_STATUS_t ret_stat = UART_STATUS_MODE_MISMATCH;
 214:../Dave/Generated/UART/uart.c **** 
 215:../Dave/Generated/UART/uart.c ****   switch(handle->config->receive_mode)
 216:../Dave/Generated/UART/uart.c ****   {
 217:../Dave/Generated/UART/uart.c **** #ifdef UART_RX_INTERRUPT_USED
 218:../Dave/Generated/UART/uart.c ****   case UART_TRANSFER_MODE_INTERRUPT:
 219:../Dave/Generated/UART/uart.c ****     ret_stat = UART_StartReceiveIRQ(handle, data_ptr, count);
 220:../Dave/Generated/UART/uart.c ****     break;
 221:../Dave/Generated/UART/uart.c **** #endif
 222:../Dave/Generated/UART/uart.c **** #ifdef UART_RX_DMA_USED
 223:../Dave/Generated/UART/uart.c ****   case UART_TRANSFER_MODE_DMA:
 224:../Dave/Generated/UART/uart.c ****     ret_stat = UART_StartReceiveDMA(handle, data_ptr, count);
 225:../Dave/Generated/UART/uart.c ****     break;
 226:../Dave/Generated/UART/uart.c **** #endif
 227:../Dave/Generated/UART/uart.c **** #ifdef UART_RX_DIRECT_USED
 228:../Dave/Generated/UART/uart.c ****   case UART_TRANSFER_MODE_DIRECT:
 229:../Dave/Generated/UART/uart.c ****     ret_stat = UART_lStartReceivePolling(handle, data_ptr, count);
 230:../Dave/Generated/UART/uart.c ****     break;
 231:../Dave/Generated/UART/uart.c **** #endif
 232:../Dave/Generated/UART/uart.c ****   default:
 233:../Dave/Generated/UART/uart.c ****     break;
 234:../Dave/Generated/UART/uart.c ****   }
 235:../Dave/Generated/UART/uart.c ****   return ret_stat;
 236:../Dave/Generated/UART/uart.c **** }
 237:../Dave/Generated/UART/uart.c **** 
 238:../Dave/Generated/UART/uart.c **** #if (defined UART_TX_INTERRUPT_USED || defined UART_TX_DMA_USED)
 239:../Dave/Generated/UART/uart.c **** /*
 240:../Dave/Generated/UART/uart.c ****  * @brief Common function to abort ongoing transmission.
 241:../Dave/Generated/UART/uart.c ****  *
 242:../Dave/Generated/UART/uart.c ****  * @param[in]  handle UART APP handle pointer of type UART_t*
 243:../Dave/Generated/UART/uart.c ****  *
 244:../Dave/Generated/UART/uart.c ****  * @return  UART_STATUS_t
 245:../Dave/Generated/UART/uart.c ****  *          UART_SUCCESS: If the transmission is aborted.<BR>
 246:../Dave/Generated/UART/uart.c ****  *          UART_STATUS_FAILURE: If the channel is not transmitting.<BR>
 247:../Dave/Generated/UART/uart.c ****  *          UART_STATUS_MODE_MISMATCH: If the configured mode is Direct.<BR>
 248:../Dave/Generated/UART/uart.c ****  *
 249:../Dave/Generated/UART/uart.c ****  */
 250:../Dave/Generated/UART/uart.c **** UART_STATUS_t UART_AbortTransmit(const UART_t *const handle)
 251:../Dave/Generated/UART/uart.c **** {
 252:../Dave/Generated/UART/uart.c ****   UART_STATUS_t ret_stat = UART_STATUS_SUCCESS;
 253:../Dave/Generated/UART/uart.c **** #ifdef UART_TX_DMA_USED
 254:../Dave/Generated/UART/uart.c ****   const UART_DMA_CONFIG_t * ptr_dma_config = handle->config->transmit_dma_config;
 255:../Dave/Generated/UART/uart.c ****   XMC_DMA_t * ptr_gpdma = handle->config->global_dma->dma;
 256:../Dave/Generated/UART/uart.c **** #endif
 257:../Dave/Generated/UART/uart.c **** 
 258:../Dave/Generated/UART/uart.c ****   XMC_ASSERT("UART_AbortTransmit: UART APP handle invalid", ((handle != NULL)&&
 259:../Dave/Generated/UART/uart.c ****             (handle->runtime != NULL)))
 260:../Dave/Generated/UART/uart.c **** 
 261:../Dave/Generated/UART/uart.c ****   /*Reset the user buffer pointer to null*/
 262:../Dave/Generated/UART/uart.c ****   handle->runtime->tx_busy = false;
 263:../Dave/Generated/UART/uart.c ****   handle->runtime->tx_data = NULL;
 264:../Dave/Generated/UART/uart.c **** 
 265:../Dave/Generated/UART/uart.c ****   switch(handle->config->transmit_mode)
 266:../Dave/Generated/UART/uart.c ****   {
 267:../Dave/Generated/UART/uart.c **** #ifdef UART_TX_INTERRUPT_USED
 268:../Dave/Generated/UART/uart.c ****   case UART_TRANSFER_MODE_INTERRUPT:
 269:../Dave/Generated/UART/uart.c ****     /*Disable the transmit interrupts*/
 270:../Dave/Generated/UART/uart.c ****     if (handle->config->tx_fifo_size != XMC_USIC_CH_FIFO_DISABLED)
 271:../Dave/Generated/UART/uart.c ****     {
 272:../Dave/Generated/UART/uart.c ****       /*Disable the transmit FIFO event*/
 273:../Dave/Generated/UART/uart.c ****       XMC_USIC_CH_TXFIFO_DisableEvent(handle->channel,(uint32_t)XMC_USIC_CH_TXFIFO_EVENT_CONF_STAND
 274:../Dave/Generated/UART/uart.c ****       XMC_USIC_CH_TXFIFO_Flush(handle->channel);
 275:../Dave/Generated/UART/uart.c ****     }
 276:../Dave/Generated/UART/uart.c ****     else
 277:../Dave/Generated/UART/uart.c ****     {
 278:../Dave/Generated/UART/uart.c ****       /*Disable the standard transmit event*/
 279:../Dave/Generated/UART/uart.c ****       XMC_USIC_CH_DisableEvent(handle->channel, (uint32_t)XMC_USIC_CH_EVENT_TRANSMIT_BUFFER);
 280:../Dave/Generated/UART/uart.c ****     }
 281:../Dave/Generated/UART/uart.c ****     XMC_USIC_CH_SetTransmitBufferStatus(handle->channel, XMC_USIC_CH_TBUF_STATUS_SET_IDLE);
 282:../Dave/Generated/UART/uart.c ****     break;
 283:../Dave/Generated/UART/uart.c **** #endif
 284:../Dave/Generated/UART/uart.c **** #ifdef UART_TX_DMA_USED
 285:../Dave/Generated/UART/uart.c ****   case UART_TRANSFER_MODE_DMA:
 286:../Dave/Generated/UART/uart.c ****     /*Disable the standard transmit event*/
 287:../Dave/Generated/UART/uart.c ****     if (XMC_DMA_CH_IsEnabled(ptr_gpdma, ptr_dma_config->dma_channel))
 288:../Dave/Generated/UART/uart.c ****     {
 289:../Dave/Generated/UART/uart.c ****       XMC_DMA_CH_Disable(ptr_gpdma, ptr_dma_config->dma_channel);
 290:../Dave/Generated/UART/uart.c ****       while(XMC_DMA_CH_IsEnabled(ptr_gpdma, ptr_dma_config->dma_channel)==true)
 291:../Dave/Generated/UART/uart.c ****       {
 292:../Dave/Generated/UART/uart.c ****       }
 293:../Dave/Generated/UART/uart.c ****       XMC_USIC_CH_DisableEvent(handle->channel, (uint32_t)XMC_USIC_CH_EVENT_TRANSMIT_BUFFER);
 294:../Dave/Generated/UART/uart.c ****     }
 295:../Dave/Generated/UART/uart.c ****     XMC_USIC_CH_SetTransmitBufferStatus(handle->channel, XMC_USIC_CH_TBUF_STATUS_SET_IDLE);
 296:../Dave/Generated/UART/uart.c ****     break;
 297:../Dave/Generated/UART/uart.c **** #endif
 298:../Dave/Generated/UART/uart.c ****   default:
 299:../Dave/Generated/UART/uart.c ****     ret_stat = UART_STATUS_MODE_MISMATCH;
 300:../Dave/Generated/UART/uart.c ****     break;
 301:../Dave/Generated/UART/uart.c ****   }
 302:../Dave/Generated/UART/uart.c ****   return ret_stat;
 303:../Dave/Generated/UART/uart.c **** }
 304:../Dave/Generated/UART/uart.c **** #endif
 305:../Dave/Generated/UART/uart.c **** 
 306:../Dave/Generated/UART/uart.c **** #if (defined UART_RX_INTERRUPT_USED || defined UART_RX_DMA_USED)
 307:../Dave/Generated/UART/uart.c **** /*
 308:../Dave/Generated/UART/uart.c ****  * @brief Common function to abort ongoing reception.
 309:../Dave/Generated/UART/uart.c ****  *
 310:../Dave/Generated/UART/uart.c ****  * @param[in]  handle UART APP handle pointer of type UART_t*
 311:../Dave/Generated/UART/uart.c ****  *
 312:../Dave/Generated/UART/uart.c ****  * @return  UART_STATUS_t
 313:../Dave/Generated/UART/uart.c ****  *          UART_SUCCESS: If the reception is aborted.<BR>
 314:../Dave/Generated/UART/uart.c ****  *          UART_STATUS_FAILURE  : If the channel is not busy.<BR>
 315:../Dave/Generated/UART/uart.c ****  *          UART_STATUS_MODE_MISMATCH: If the configured mode is Direct.<BR>
 316:../Dave/Generated/UART/uart.c ****  *
 317:../Dave/Generated/UART/uart.c ****  */
 318:../Dave/Generated/UART/uart.c **** UART_STATUS_t UART_AbortReceive(const UART_t *const handle)
 319:../Dave/Generated/UART/uart.c **** {
 320:../Dave/Generated/UART/uart.c ****   UART_STATUS_t ret_stat = UART_STATUS_SUCCESS;
 321:../Dave/Generated/UART/uart.c **** #ifdef UART_RX_DMA_USED
 322:../Dave/Generated/UART/uart.c ****   const UART_DMA_CONFIG_t * ptr_dma_config = handle->config->receive_dma_config;
 323:../Dave/Generated/UART/uart.c ****   XMC_DMA_t * ptr_gpdma = handle->config->global_dma->dma;
 324:../Dave/Generated/UART/uart.c **** #endif
 325:../Dave/Generated/UART/uart.c ****   XMC_ASSERT("UART_AbortReceive: UART APP handle invalid", ((handle != NULL)&&
 326:../Dave/Generated/UART/uart.c ****             (handle->runtime != NULL)))
 327:../Dave/Generated/UART/uart.c **** 
 328:../Dave/Generated/UART/uart.c ****   /*Reset the user buffer pointer to null*/
 329:../Dave/Generated/UART/uart.c ****   handle->runtime->rx_busy = false;
 330:../Dave/Generated/UART/uart.c ****   handle->runtime->rx_data = NULL;
 331:../Dave/Generated/UART/uart.c ****   switch(handle->config->receive_mode)
 332:../Dave/Generated/UART/uart.c ****   {
 333:../Dave/Generated/UART/uart.c **** #ifdef UART_RX_INTERRUPT_USED
 334:../Dave/Generated/UART/uart.c ****   case UART_TRANSFER_MODE_INTERRUPT:
 335:../Dave/Generated/UART/uart.c ****     /*Disable the receive interrupts*/
 336:../Dave/Generated/UART/uart.c ****     if (handle->config->rx_fifo_size != XMC_USIC_CH_FIFO_DISABLED)
 337:../Dave/Generated/UART/uart.c ****     {
 338:../Dave/Generated/UART/uart.c ****       XMC_USIC_CH_RXFIFO_DisableEvent(handle->channel,
 339:../Dave/Generated/UART/uart.c ****             ((uint32_t)XMC_USIC_CH_RXFIFO_EVENT_CONF_STANDARD |
 340:../Dave/Generated/UART/uart.c ****             (uint32_t)XMC_USIC_CH_RXFIFO_EVENT_CONF_ALTERNATE));
 341:../Dave/Generated/UART/uart.c ****     }
 342:../Dave/Generated/UART/uart.c ****     else
 343:../Dave/Generated/UART/uart.c ****     {
 344:../Dave/Generated/UART/uart.c ****       XMC_UART_CH_DisableEvent(handle->channel,
 345:../Dave/Generated/UART/uart.c ****             ((uint32_t)XMC_USIC_CH_EVENT_STANDARD_RECEIVE |
 346:../Dave/Generated/UART/uart.c ****             (uint32_t)XMC_USIC_CH_EVENT_ALTERNATIVE_RECEIVE));
 347:../Dave/Generated/UART/uart.c ****     }
 348:../Dave/Generated/UART/uart.c ****     break;
 349:../Dave/Generated/UART/uart.c **** #endif
 350:../Dave/Generated/UART/uart.c **** #ifdef UART_RX_DMA_USED
 351:../Dave/Generated/UART/uart.c ****   case UART_TRANSFER_MODE_DMA:
 352:../Dave/Generated/UART/uart.c ****     /*Disable the receive interrupts*/
 353:../Dave/Generated/UART/uart.c ****     if (XMC_DMA_CH_IsEnabled(ptr_gpdma, ptr_dma_config->dma_channel))
 354:../Dave/Generated/UART/uart.c ****     {
 355:../Dave/Generated/UART/uart.c ****       XMC_DMA_CH_Disable(ptr_gpdma, ptr_dma_config->dma_channel);
 356:../Dave/Generated/UART/uart.c ****       while(XMC_DMA_CH_IsEnabled(ptr_gpdma, ptr_dma_config->dma_channel)==true)
 357:../Dave/Generated/UART/uart.c ****       {
 358:../Dave/Generated/UART/uart.c ****       }
 359:../Dave/Generated/UART/uart.c ****       XMC_UART_CH_DisableEvent(handle->channel,
 360:../Dave/Generated/UART/uart.c ****             ((uint32_t)XMC_USIC_CH_EVENT_STANDARD_RECEIVE |
 361:../Dave/Generated/UART/uart.c ****             (uint32_t)XMC_USIC_CH_EVENT_ALTERNATIVE_RECEIVE));
 362:../Dave/Generated/UART/uart.c ****     }
 363:../Dave/Generated/UART/uart.c ****     break;
 364:../Dave/Generated/UART/uart.c **** #endif
 365:../Dave/Generated/UART/uart.c ****   default:
 366:../Dave/Generated/UART/uart.c ****     ret_stat = UART_STATUS_MODE_MISMATCH;
 367:../Dave/Generated/UART/uart.c ****     break;
 368:../Dave/Generated/UART/uart.c ****   }
 369:../Dave/Generated/UART/uart.c ****   return ret_stat;
 370:../Dave/Generated/UART/uart.c **** }
 371:../Dave/Generated/UART/uart.c **** #endif
 372:../Dave/Generated/UART/uart.c **** 
 373:../Dave/Generated/UART/uart.c **** /*
 374:../Dave/Generated/UART/uart.c ****  * @brief Changes the baudrate of UART channel.
 375:../Dave/Generated/UART/uart.c ****  *
 376:../Dave/Generated/UART/uart.c ****  * @param UART_t * Pointer to the UART APP handle.
 377:../Dave/Generated/UART/uart.c ****  * @param baud Value of new baudrate.
 378:../Dave/Generated/UART/uart.c ****  * @param oversampling Number of samples to be considered for each symbol. 16 is the standard value
 379:../Dave/Generated/UART/uart.c ****  *
 380:../Dave/Generated/UART/uart.c ****  * @return UART_STATUS_t UART_STATUS_SUCCESS if baudrate changed successfully.
 381:../Dave/Generated/UART/uart.c ****  *                       UART_STATUS_BUSY if the UART channel is busy.
 382:../Dave/Generated/UART/uart.c ****  *
 383:../Dave/Generated/UART/uart.c ****  * \par<b>Description:</b><br>
 384:../Dave/Generated/UART/uart.c ****  * The function stops the channel, calculates the clock divider values to achieve the desired baudr
 385:../Dave/Generated/UART/uart.c ****  * Sets the divider values and reconfigures the channel as per the configuration in the UI. The cha
 386:../Dave/Generated/UART/uart.c ****  * enabled at the end of configuration.
 387:../Dave/Generated/UART/uart.c ****  */
 388:../Dave/Generated/UART/uart.c **** UART_STATUS_t UART_SetBaudrate(const UART_t * handle, uint32_t baud, uint32_t oversampling)
 389:../Dave/Generated/UART/uart.c **** {
 390:../Dave/Generated/UART/uart.c ****   UART_STATUS_t ret_stat = UART_STATUS_BUSY;
 391:../Dave/Generated/UART/uart.c ****   const UART_TX_CONFIG_t * ptr_tx_conf = handle->config->tx_pin_config;
 392:../Dave/Generated/UART/uart.c **** 
 393:../Dave/Generated/UART/uart.c ****   XMC_ASSERT("UART_SetBaudrate: UART APP handle invalid", ((handle != NULL)&&
 394:../Dave/Generated/UART/uart.c ****             ((handle->config != NULL) && (handle->runtime != NULL))))
 395:../Dave/Generated/UART/uart.c **** 
 396:../Dave/Generated/UART/uart.c ****   if ((handle->runtime->tx_busy == false) && (handle->runtime->rx_busy == false))
 397:../Dave/Generated/UART/uart.c ****   {
 398:../Dave/Generated/UART/uart.c ****     /* Set UART TX pin as input pin to avoid spikes on the pin.*/
 399:../Dave/Generated/UART/uart.c ****     if (handle->config->mode != UART_MODE_LOOPBACK)
 400:../Dave/Generated/UART/uart.c ****     {
 401:../Dave/Generated/UART/uart.c ****       XMC_GPIO_SetMode(ptr_tx_conf->port, ptr_tx_conf->pin, XMC_GPIO_MODE_INPUT_TRISTATE);
 402:../Dave/Generated/UART/uart.c ****     }
 403:../Dave/Generated/UART/uart.c ****     /* Stop the UART channel before changing the baudrate.*/
 404:../Dave/Generated/UART/uart.c ****     if (XMC_UART_CH_Stop(handle->channel) == XMC_UART_CH_STATUS_OK)
 405:../Dave/Generated/UART/uart.c ****     {
 406:../Dave/Generated/UART/uart.c ****       /*Change the baudrate*/
 407:../Dave/Generated/UART/uart.c ****       ret_stat = (UART_STATUS_t)XMC_UART_CH_SetBaudrate(handle->channel, baud, oversampling);
 408:../Dave/Generated/UART/uart.c ****       /*Set the sample point if the baudrate is modified*/
 409:../Dave/Generated/UART/uart.c ****       if (ret_stat == UART_STATUS_SUCCESS)
 410:../Dave/Generated/UART/uart.c ****       {
 411:../Dave/Generated/UART/uart.c ****         XMC_UART_CH_SetSamplePoint(handle->channel, (uint32_t)(oversampling >> 1U)+1U);
 412:../Dave/Generated/UART/uart.c ****       }
 413:../Dave/Generated/UART/uart.c ****       /*Enable UART*/
 414:../Dave/Generated/UART/uart.c ****       XMC_UART_CH_Start(handle->channel);
 415:../Dave/Generated/UART/uart.c ****       /* Initialize UART TX pin */
 416:../Dave/Generated/UART/uart.c ****       if (handle->config->mode != UART_MODE_LOOPBACK)
 417:../Dave/Generated/UART/uart.c ****       {
 418:../Dave/Generated/UART/uart.c ****         XMC_GPIO_Init(ptr_tx_conf->port, ptr_tx_conf->pin, ptr_tx_conf->config);
 419:../Dave/Generated/UART/uart.c ****       }
 420:../Dave/Generated/UART/uart.c ****     }
 421:../Dave/Generated/UART/uart.c ****     else
 422:../Dave/Generated/UART/uart.c ****     {
 423:../Dave/Generated/UART/uart.c ****       ret_stat = UART_STATUS_BUSY;
 424:../Dave/Generated/UART/uart.c ****     }
 425:../Dave/Generated/UART/uart.c ****   }
 426:../Dave/Generated/UART/uart.c ****   return ret_stat;
 427:../Dave/Generated/UART/uart.c **** }
 428:../Dave/Generated/UART/uart.c **** 
 429:../Dave/Generated/UART/uart.c **** #ifdef UART_TX_INTERRUPT_USED
 430:../Dave/Generated/UART/uart.c **** /*
 431:../Dave/Generated/UART/uart.c ****  * @brief Registers a request for transmitting data over UART channel.
 432:../Dave/Generated/UART/uart.c ****  *
 433:../Dave/Generated/UART/uart.c ****  * @param[in]  UART_t*  UART APP handle pointer of type UART_t
 434:../Dave/Generated/UART/uart.c ****  * @param[in]  uint8_t* Pointer to data
 435:../Dave/Generated/UART/uart.c ****  * @param[in]  uint32_t Total no of words to be transmitted.
 436:../Dave/Generated/UART/uart.c ****  *
 437:../Dave/Generated/UART/uart.c ****  * @return  UART_STATUS_t UART_STATUS_SUCCESS if the request is accepted.
 438:../Dave/Generated/UART/uart.c ****  *                        UART_STATUS_BUSY if a transmission is in progress.
 439:../Dave/Generated/UART/uart.c ****  * Details of function:
 440:../Dave/Generated/UART/uart.c ****  * The data transmission is accomplished using transmit interrupt. User can configure
 441:../Dave/Generated/UART/uart.c ****  * a callback function in the APP UI. When the data is fully transmitted, the callback
 442:../Dave/Generated/UART/uart.c ****  * function will be executed. If transmit FIFO is enabled, the trigger limit is set to 0.
 443:../Dave/Generated/UART/uart.c ****  * So the transmit interrupt will be generated when all the data in FIFO is moved from FIFO.
 444:../Dave/Generated/UART/uart.c ****  *
 445:../Dave/Generated/UART/uart.c ****  * <i>Imp Note:</i> Return value should be validated by user to ensure that the
 446:../Dave/Generated/UART/uart.c ****  * request is registered.
 447:../Dave/Generated/UART/uart.c ****  *
 448:../Dave/Generated/UART/uart.c ****  *
 449:../Dave/Generated/UART/uart.c ****  */
 450:../Dave/Generated/UART/uart.c **** UART_STATUS_t UART_StartTransmitIRQ(const UART_t *const handle, uint8_t* data_ptr, uint32_t count)
 451:../Dave/Generated/UART/uart.c **** {
 452:../Dave/Generated/UART/uart.c ****   UART_STATUS_t ret_stat = UART_STATUS_MODE_MISMATCH;
 453:../Dave/Generated/UART/uart.c ****   UART_RUNTIME_t * ptr_runtime = handle->runtime;
 454:../Dave/Generated/UART/uart.c **** 
 455:../Dave/Generated/UART/uart.c ****   XMC_ASSERT("UART_StartTransmitIRQ: UART APP handle invalid", ((handle != NULL)&&
 456:../Dave/Generated/UART/uart.c ****             (handle->runtime != NULL)))
 457:../Dave/Generated/UART/uart.c **** 
 458:../Dave/Generated/UART/uart.c ****   if (handle->config->transmit_mode == UART_TRANSFER_MODE_INTERRUPT)
 459:../Dave/Generated/UART/uart.c ****   {
 460:../Dave/Generated/UART/uart.c ****     ret_stat = UART_STATUS_BUSY;
 461:../Dave/Generated/UART/uart.c ****     if (ptr_runtime->tx_busy == false)
 462:../Dave/Generated/UART/uart.c ****     {
 463:../Dave/Generated/UART/uart.c ****       /*If there is no transmission in progress*/
 464:../Dave/Generated/UART/uart.c ****       if ((data_ptr != NULL) && (count > 0U))
 465:../Dave/Generated/UART/uart.c ****       {
 466:../Dave/Generated/UART/uart.c ****         /*Obtain the address of data, size of data*/
 467:../Dave/Generated/UART/uart.c ****         ptr_runtime->tx_data = data_ptr;
 468:../Dave/Generated/UART/uart.c ****         ptr_runtime->tx_data_count = count;
 469:../Dave/Generated/UART/uart.c ****         /*Initialize to first index and set the busy flag*/
 470:../Dave/Generated/UART/uart.c ****         ptr_runtime->tx_data_index = 0U;
 471:../Dave/Generated/UART/uart.c ****         ptr_runtime->tx_busy = true;
 472:../Dave/Generated/UART/uart.c **** 
 473:../Dave/Generated/UART/uart.c ****         /*Enable the transmit buffer event*/
 474:../Dave/Generated/UART/uart.c ****         if (handle->config->tx_fifo_size != XMC_USIC_CH_FIFO_DISABLED)
 475:../Dave/Generated/UART/uart.c ****         {
 476:../Dave/Generated/UART/uart.c ****           /*Clear the transmit FIFO*/
 477:../Dave/Generated/UART/uart.c ****           XMC_USIC_CH_TXFIFO_Flush(handle->channel);
 478:../Dave/Generated/UART/uart.c ****           /*Enable transmit buffer interrupt*/
 479:../Dave/Generated/UART/uart.c ****           XMC_USIC_CH_TXFIFO_EnableEvent(handle->channel,(uint32_t)XMC_USIC_CH_TXFIFO_EVENT_CONF_ST
 480:../Dave/Generated/UART/uart.c ****         }
 481:../Dave/Generated/UART/uart.c ****         else
 482:../Dave/Generated/UART/uart.c ****         {
 483:../Dave/Generated/UART/uart.c ****           XMC_USIC_CH_EnableEvent(handle->channel, (uint32_t)XMC_USIC_CH_EVENT_TRANSMIT_BUFFER);
 484:../Dave/Generated/UART/uart.c ****         }
 485:../Dave/Generated/UART/uart.c ****         ret_stat = UART_STATUS_SUCCESS;
 486:../Dave/Generated/UART/uart.c ****         /*Trigger the transmit buffer interrupt*/
 487:../Dave/Generated/UART/uart.c ****         XMC_USIC_CH_TriggerServiceRequest(handle->channel, (uint32_t)handle->config->tx_sr);
 488:../Dave/Generated/UART/uart.c ****       }
 489:../Dave/Generated/UART/uart.c ****       else
 490:../Dave/Generated/UART/uart.c ****       {
 491:../Dave/Generated/UART/uart.c ****         ret_stat = UART_STATUS_BUFFER_INVALID;
 492:../Dave/Generated/UART/uart.c ****       }
 493:../Dave/Generated/UART/uart.c ****     }
 494:../Dave/Generated/UART/uart.c ****   }
 495:../Dave/Generated/UART/uart.c ****   return ret_stat;
 496:../Dave/Generated/UART/uart.c **** }
 497:../Dave/Generated/UART/uart.c **** #endif
 498:../Dave/Generated/UART/uart.c **** 
 499:../Dave/Generated/UART/uart.c **** #ifdef UART_RX_INTERRUPT_USED
 500:../Dave/Generated/UART/uart.c **** /*
 501:../Dave/Generated/UART/uart.c ****  * @brief Registers a request to receive data over UART channel.
 502:../Dave/Generated/UART/uart.c ****  *
 503:../Dave/Generated/UART/uart.c ****  * @param[in]  UART_t* UART APP handle pointer of type UART_t
 504:../Dave/Generated/UART/uart.c ****  * @param[in]  uint8_t*  Pointer to data array
 505:../Dave/Generated/UART/uart.c ****  * @param[in]  uint32_t  Total no of bytes to be read.
 506:../Dave/Generated/UART/uart.c ****  *
 507:../Dave/Generated/UART/uart.c ****  * @return  UART_STATUS_t UART_STATUS_SUCCESS if the request is accepted.
 508:../Dave/Generated/UART/uart.c ****  *                        UART_STATUS_BUSY if a reception is in progress.
 509:../Dave/Generated/UART/uart.c ****  * Details of function:
 510:../Dave/Generated/UART/uart.c ****  * This function registers the receive request by configuring the UART
 511:../Dave/Generated/UART/uart.c ****  * receive FIFO/Standard buffer (depending on the user configuration). The data
 512:../Dave/Generated/UART/uart.c ****  * is received asynchronously. When the requested number of data bytes are received,
 513:../Dave/Generated/UART/uart.c ****  * optionally, the user configured callback function will be executed. If a callback
 514:../Dave/Generated/UART/uart.c ****  * function is not configured on the APP UI, the user has to poll for the status of
 515:../Dave/Generated/UART/uart.c ****  * rx_busy variable of the APP handle structure.
 516:../Dave/Generated/UART/uart.c ****  *
 517:../Dave/Generated/UART/uart.c ****  * <i>Imp Note:</i> Return value should be validated by user to ensure that the
 518:../Dave/Generated/UART/uart.c ****  * request is registered.
 519:../Dave/Generated/UART/uart.c ****  *
 520:../Dave/Generated/UART/uart.c ****  *
 521:../Dave/Generated/UART/uart.c ****  */
 522:../Dave/Generated/UART/uart.c **** UART_STATUS_t UART_StartReceiveIRQ(const UART_t *const handle, uint8_t* data_ptr, uint32_t count)
 523:../Dave/Generated/UART/uart.c **** {
 524:../Dave/Generated/UART/uart.c ****   UART_STATUS_t ret_stat = UART_STATUS_MODE_MISMATCH;
 525:../Dave/Generated/UART/uart.c ****   UART_RUNTIME_t * ptr_runtime = handle->runtime;
 526:../Dave/Generated/UART/uart.c **** 
 527:../Dave/Generated/UART/uart.c ****   XMC_ASSERT("UART_StartReceiveIRQ: UART APP handle invalid", ((handle != NULL)&&
 528:../Dave/Generated/UART/uart.c ****             (handle->runtime != NULL)))
 529:../Dave/Generated/UART/uart.c **** 
 530:../Dave/Generated/UART/uart.c ****   if (handle->config->receive_mode == UART_TRANSFER_MODE_INTERRUPT)
 531:../Dave/Generated/UART/uart.c ****   {
 532:../Dave/Generated/UART/uart.c ****     ret_stat = UART_STATUS_BUSY;
 533:../Dave/Generated/UART/uart.c ****     if (ptr_runtime->rx_busy == false)
 534:../Dave/Generated/UART/uart.c ****     {
 535:../Dave/Generated/UART/uart.c ****       /*If no active reception in progress*/
 536:../Dave/Generated/UART/uart.c ****       if ((data_ptr != NULL) && (count > 0U))
 537:../Dave/Generated/UART/uart.c ****       {
 538:../Dave/Generated/UART/uart.c ****         /*Obtain the address of data buffer and
 539:../Dave/Generated/UART/uart.c ****          * number of data bytes to be received*/
 540:../Dave/Generated/UART/uart.c ****         ptr_runtime->rx_data = data_ptr;
 541:../Dave/Generated/UART/uart.c ****         ptr_runtime->rx_data_count = count;
 542:../Dave/Generated/UART/uart.c ****         ptr_runtime->rx_busy = true;
 543:../Dave/Generated/UART/uart.c ****         ptr_runtime->rx_data_index = 0U;
 544:../Dave/Generated/UART/uart.c **** 
 545:../Dave/Generated/UART/uart.c ****         if (handle->config->rx_fifo_size != XMC_USIC_CH_FIFO_DISABLED)
 546:../Dave/Generated/UART/uart.c ****         {
 547:../Dave/Generated/UART/uart.c ****           /*Clear the receive FIFO, configure the trigger lime
 548:../Dave/Generated/UART/uart.c ****            * and enable the receive events*/
 549:../Dave/Generated/UART/uart.c ****           XMC_USIC_CH_RXFIFO_Flush(handle->channel);
 550:../Dave/Generated/UART/uart.c **** 
 551:../Dave/Generated/UART/uart.c ****           /*Configure the FIFO trigger limit based on the required data size*/
 552:../Dave/Generated/UART/uart.c ****           UART_lReconfigureRxFIFO(handle, count);
 553:../Dave/Generated/UART/uart.c **** 
 554:../Dave/Generated/UART/uart.c ****           XMC_USIC_CH_RXFIFO_EnableEvent(handle->channel,
 555:../Dave/Generated/UART/uart.c ****             (uint32_t)((uint32_t)XMC_USIC_CH_RXFIFO_EVENT_CONF_STANDARD |
 556:../Dave/Generated/UART/uart.c ****             (uint32_t)XMC_USIC_CH_RXFIFO_EVENT_CONF_ALTERNATE));
 557:../Dave/Generated/UART/uart.c ****         }
 558:../Dave/Generated/UART/uart.c ****         else
 559:../Dave/Generated/UART/uart.c ****         {
 560:../Dave/Generated/UART/uart.c ****           XMC_USIC_CH_EnableEvent(handle->channel,
 561:../Dave/Generated/UART/uart.c ****           (uint32_t)((uint32_t)XMC_USIC_CH_EVENT_STANDARD_RECEIVE | (uint32_t)XMC_USIC_CH_EVENT_ALT
 562:../Dave/Generated/UART/uart.c ****         }
 563:../Dave/Generated/UART/uart.c ****         ret_stat = UART_STATUS_SUCCESS;
 564:../Dave/Generated/UART/uart.c ****       }
 565:../Dave/Generated/UART/uart.c ****       else
 566:../Dave/Generated/UART/uart.c ****       {
 567:../Dave/Generated/UART/uart.c ****         ret_stat = UART_STATUS_BUFFER_INVALID;
 568:../Dave/Generated/UART/uart.c ****       }
 569:../Dave/Generated/UART/uart.c ****     }
 570:../Dave/Generated/UART/uart.c ****   }
 571:../Dave/Generated/UART/uart.c ****   return ret_stat;
 572:../Dave/Generated/UART/uart.c **** }
 573:../Dave/Generated/UART/uart.c **** #endif
 574:../Dave/Generated/UART/uart.c **** 
 575:../Dave/Generated/UART/uart.c **** #ifdef UART_TX_DMA_USED
 576:../Dave/Generated/UART/uart.c **** /*
 577:../Dave/Generated/UART/uart.c ****  * @brief Registers a request for transmitting data over UART channel using DMA.
 578:../Dave/Generated/UART/uart.c ****  *
 579:../Dave/Generated/UART/uart.c ****  * @param[in]  UART_t*  UART APP handle pointer of type UART_t
 580:../Dave/Generated/UART/uart.c ****  * @param[in]  uint8_t* Pointer to data
 581:../Dave/Generated/UART/uart.c ****  * @param[in]  uint32_t Total no of words to be transmitted.
 582:../Dave/Generated/UART/uart.c ****  *
 583:../Dave/Generated/UART/uart.c ****  * @return  UART_STATUS_t UART_STATUS_SUCCESS if the request is accepted.
 584:../Dave/Generated/UART/uart.c ****  *                        UART_STATUS_BUSY if a transmission is in progress.
 585:../Dave/Generated/UART/uart.c ****  * Details of function:
 586:../Dave/Generated/UART/uart.c ****  * The data transmission is accomplished using a DMA channel. User can configure
 587:../Dave/Generated/UART/uart.c ****  * a callback function in the APP UI. When the data is fully transmitted, the callback
 588:../Dave/Generated/UART/uart.c ****  * function will be executed.
 589:../Dave/Generated/UART/uart.c ****  * <i>Imp Note:</i> Return value should be validated by user to ensure that the
 590:../Dave/Generated/UART/uart.c ****  * request is registered.
 591:../Dave/Generated/UART/uart.c ****  *
 592:../Dave/Generated/UART/uart.c ****  *
 593:../Dave/Generated/UART/uart.c ****  */
 594:../Dave/Generated/UART/uart.c **** UART_STATUS_t UART_StartTransmitDMA(const UART_t *const handle, uint8_t* data_ptr, uint32_t count)
 595:../Dave/Generated/UART/uart.c **** {
 596:../Dave/Generated/UART/uart.c ****   UART_STATUS_t ret_stat = UART_STATUS_MODE_MISMATCH;
 597:../Dave/Generated/UART/uart.c ****   UART_RUNTIME_t * ptr_runtime = handle->runtime;
 598:../Dave/Generated/UART/uart.c ****   const UART_DMA_CONFIG_t * ptr_dma_config = handle->config->transmit_dma_config;
 599:../Dave/Generated/UART/uart.c ****   XMC_DMA_t * ptr_gpdma = handle->config->global_dma->dma;
 600:../Dave/Generated/UART/uart.c **** 
 601:../Dave/Generated/UART/uart.c ****   XMC_ASSERT("UART_StartTransmitDMA: UART APP handle invalid", (((handle != NULL)&&
 602:../Dave/Generated/UART/uart.c ****             (handle->runtime != NULL))&&(handle->config != NULL)))
 603:../Dave/Generated/UART/uart.c **** 
 604:../Dave/Generated/UART/uart.c ****   if (handle->config->transmit_mode == UART_TRANSFER_MODE_DMA)
 605:../Dave/Generated/UART/uart.c ****   {
 606:../Dave/Generated/UART/uart.c ****     ret_stat = UART_STATUS_BUSY;
 607:../Dave/Generated/UART/uart.c ****     if (ptr_runtime->tx_busy == false)
 608:../Dave/Generated/UART/uart.c ****     {
 609:../Dave/Generated/UART/uart.c ****       /*If there is no transmission in progress*/
 610:../Dave/Generated/UART/uart.c ****       if ((data_ptr != NULL) && ((count > 0U) &&(count <= UART_DMA_MAXCOUNT)))
 611:../Dave/Generated/UART/uart.c ****       {
 612:../Dave/Generated/UART/uart.c ****         /*Obtain the address of data, size of data*/
 613:../Dave/Generated/UART/uart.c ****         ptr_runtime->tx_data = data_ptr;
 614:../Dave/Generated/UART/uart.c ****         ptr_runtime->tx_data_count = count;
 615:../Dave/Generated/UART/uart.c ****         /*Initialize to first index and set the busy flag*/
 616:../Dave/Generated/UART/uart.c ****         ptr_runtime->tx_data_index = 0U;
 617:../Dave/Generated/UART/uart.c ****         ptr_runtime->tx_busy = true;
 618:../Dave/Generated/UART/uart.c **** 
 619:../Dave/Generated/UART/uart.c ****         /*Enable transmit event generation*/
 620:../Dave/Generated/UART/uart.c ****         XMC_UART_CH_EnableEvent(handle->channel, (uint32_t)XMC_UART_CH_EVENT_TRANSMIT_BUFFER);
 621:../Dave/Generated/UART/uart.c ****         ret_stat = UART_STATUS_SUCCESS;
 622:../Dave/Generated/UART/uart.c **** 
 623:../Dave/Generated/UART/uart.c ****         /*Enable DMA channel*/
 624:../Dave/Generated/UART/uart.c ****         XMC_DMA_CH_SetBlockSize(ptr_gpdma, ptr_dma_config->dma_channel, count);
 625:../Dave/Generated/UART/uart.c ****         XMC_DMA_CH_SetSourceAddress(ptr_gpdma, ptr_dma_config->dma_channel, (uint32_t)data_ptr);
 626:../Dave/Generated/UART/uart.c ****         XMC_DMA_CH_SetDestinationAddress(ptr_gpdma, ptr_dma_config->dma_channel,
 627:../Dave/Generated/UART/uart.c ****                                          (uint32_t)&(handle->channel->TBUF[0]));
 628:../Dave/Generated/UART/uart.c ****         XMC_DMA_CH_Enable(ptr_gpdma, ptr_dma_config->dma_channel);
 629:../Dave/Generated/UART/uart.c ****       }
 630:../Dave/Generated/UART/uart.c ****       else
 631:../Dave/Generated/UART/uart.c ****       {
 632:../Dave/Generated/UART/uart.c ****         ret_stat = UART_STATUS_BUFFER_INVALID;
 633:../Dave/Generated/UART/uart.c ****       }
 634:../Dave/Generated/UART/uart.c ****     }
 635:../Dave/Generated/UART/uart.c ****   }
 636:../Dave/Generated/UART/uart.c ****   return ret_stat;
 637:../Dave/Generated/UART/uart.c **** }
 638:../Dave/Generated/UART/uart.c **** #endif
 639:../Dave/Generated/UART/uart.c **** 
 640:../Dave/Generated/UART/uart.c **** #ifdef UART_RX_DMA_USED
 641:../Dave/Generated/UART/uart.c **** /*
 642:../Dave/Generated/UART/uart.c ****  * @brief Registers a request to receive data over UART channel using DMA.
 643:../Dave/Generated/UART/uart.c ****  *
 644:../Dave/Generated/UART/uart.c ****  * @param[in]  UART_t* UART APP handle pointer of type UART_t
 645:../Dave/Generated/UART/uart.c ****  * @param[in]  uint8_t*  Pointer to data array
 646:../Dave/Generated/UART/uart.c ****  * @param[in]  uint32_t  Total no of bytes to be read.
 647:../Dave/Generated/UART/uart.c ****  *
 648:../Dave/Generated/UART/uart.c ****  * @return  UART_STATUS_t UART_STATUS_SUCCESS if the request is accepted.
 649:../Dave/Generated/UART/uart.c ****  *                        UART_STATUS_BUSY if a reception is in progress.
 650:../Dave/Generated/UART/uart.c ****  * Details of function:
 651:../Dave/Generated/UART/uart.c ****  * This function registers the receive request by configuring the UART
 652:../Dave/Generated/UART/uart.c ****  * receive Standard buffer and the DMA channel. The data
 653:../Dave/Generated/UART/uart.c ****  * is received asynchronously. When the requested number of data bytes are received,
 654:../Dave/Generated/UART/uart.c ****  * optionally, the user configured callback function will be executed.
 655:../Dave/Generated/UART/uart.c ****  *
 656:../Dave/Generated/UART/uart.c ****  * <i>Imp Note:</i> Return value should be validated by user to ensure that the
 657:../Dave/Generated/UART/uart.c ****  * request is registered.
 658:../Dave/Generated/UART/uart.c ****  *
 659:../Dave/Generated/UART/uart.c ****  *
 660:../Dave/Generated/UART/uart.c ****  */
 661:../Dave/Generated/UART/uart.c **** UART_STATUS_t UART_StartReceiveDMA(const UART_t *const handle, uint8_t* data_ptr, uint32_t count)
 662:../Dave/Generated/UART/uart.c **** {
 663:../Dave/Generated/UART/uart.c ****   UART_STATUS_t ret_stat = UART_STATUS_MODE_MISMATCH;
 664:../Dave/Generated/UART/uart.c ****   UART_RUNTIME_t * ptr_runtime = handle->runtime;
 665:../Dave/Generated/UART/uart.c ****   const UART_DMA_CONFIG_t * ptr_dma_config = handle->config->receive_dma_config;
 666:../Dave/Generated/UART/uart.c ****   XMC_DMA_t * ptr_gpdma = handle->config->global_dma->dma;
 667:../Dave/Generated/UART/uart.c **** 
 668:../Dave/Generated/UART/uart.c ****   XMC_ASSERT("UART_StartReceiveDMA: UART APP handle invalid", (((handle != NULL)&&
 669:../Dave/Generated/UART/uart.c ****             (handle->runtime != NULL)) && (handle->config != NULL)))
 670:../Dave/Generated/UART/uart.c **** 
 671:../Dave/Generated/UART/uart.c ****   if (handle->config->receive_mode == UART_TRANSFER_MODE_DMA)
 672:../Dave/Generated/UART/uart.c ****   {
 673:../Dave/Generated/UART/uart.c ****     ret_stat = UART_STATUS_BUSY;
 674:../Dave/Generated/UART/uart.c ****     if (ptr_runtime->rx_busy == false)
 675:../Dave/Generated/UART/uart.c ****     {
 676:../Dave/Generated/UART/uart.c ****       /*If no active reception in progress*/
 677:../Dave/Generated/UART/uart.c ****       if ((data_ptr != NULL) && ((count > 0U) && (count <= UART_DMA_MAXCOUNT)))
 678:../Dave/Generated/UART/uart.c ****       {
 679:../Dave/Generated/UART/uart.c ****         /*Obtain the address of data buffer and
 680:../Dave/Generated/UART/uart.c ****          * number of data bytes to be received*/
 681:../Dave/Generated/UART/uart.c ****         ptr_runtime->rx_data = data_ptr;
 682:../Dave/Generated/UART/uart.c ****         ptr_runtime->rx_data_count = count;
 683:../Dave/Generated/UART/uart.c ****         ptr_runtime->rx_busy = true;
 684:../Dave/Generated/UART/uart.c ****         ptr_runtime->rx_data_index = 0U;
 685:../Dave/Generated/UART/uart.c **** 
 686:../Dave/Generated/UART/uart.c ****         XMC_USIC_CH_EnableEvent(handle->channel,
 687:../Dave/Generated/UART/uart.c ****           (uint32_t)((uint32_t)XMC_USIC_CH_EVENT_STANDARD_RECEIVE | (uint32_t)XMC_USIC_CH_EVENT_ALT
 688:../Dave/Generated/UART/uart.c ****         ret_stat = UART_STATUS_SUCCESS;
 689:../Dave/Generated/UART/uart.c **** 
 690:../Dave/Generated/UART/uart.c ****         /*Enable DMA channel*/
 691:../Dave/Generated/UART/uart.c ****         XMC_DMA_CH_SetBlockSize(ptr_gpdma, ptr_dma_config->dma_channel, count);
 692:../Dave/Generated/UART/uart.c ****         XMC_DMA_CH_SetSourceAddress(ptr_gpdma, ptr_dma_config->dma_channel, (uint32_t)&(handle->cha
 693:../Dave/Generated/UART/uart.c ****         XMC_DMA_CH_SetDestinationAddress(ptr_gpdma, ptr_dma_config->dma_channel, (uint32_t)data_ptr
 694:../Dave/Generated/UART/uart.c ****         XMC_DMA_CH_Enable(ptr_gpdma, ptr_dma_config->dma_channel);
 695:../Dave/Generated/UART/uart.c ****       }
 696:../Dave/Generated/UART/uart.c ****       else
 697:../Dave/Generated/UART/uart.c ****       {
 698:../Dave/Generated/UART/uart.c ****         ret_stat = UART_STATUS_BUFFER_INVALID;
 699:../Dave/Generated/UART/uart.c ****       }
 700:../Dave/Generated/UART/uart.c ****     }
 701:../Dave/Generated/UART/uart.c ****   }
 702:../Dave/Generated/UART/uart.c ****   return ret_stat;
 703:../Dave/Generated/UART/uart.c **** }
 704:../Dave/Generated/UART/uart.c **** #endif
 705:../Dave/Generated/UART/uart.c **** 
 706:../Dave/Generated/UART/uart.c **** #ifdef UART_TX_DIRECT_USED
 707:../Dave/Generated/UART/uart.c **** /*
 708:../Dave/Generated/UART/uart.c ****  * Polling method to transmit data.
 709:../Dave/Generated/UART/uart.c ****  * @param[in] UART_t* handle UART APP handle pointer
 710:../Dave/Generated/UART/uart.c ****  * @param[in] uint8_t*  Pointer to data array
 711:../Dave/Generated/UART/uart.c ****  * @param[in] uint32_t number of bytes to be transmitted.
 712:../Dave/Generated/UART/uart.c ****  *
 713:../Dave/Generated/UART/uart.c ****  * @return UART_STATUS_t Status of transmit request handling.
 714:../Dave/Generated/UART/uart.c ****  *
 715:../Dave/Generated/UART/uart.c ****  * Description:
 716:../Dave/Generated/UART/uart.c ****  * Transmits data by blocking the CPU until all data is sent. Transmission
 717:../Dave/Generated/UART/uart.c ****  * cannot be aborted since it is blocking implementation. Based on FIFO selection,
 718:../Dave/Generated/UART/uart.c ****  * either TBUF or IN register is updated with the data.
 719:../Dave/Generated/UART/uart.c ****  *
 720:../Dave/Generated/UART/uart.c ****  */
 721:../Dave/Generated/UART/uart.c **** static UART_STATUS_t UART_lStartTransmitPolling(const UART_t *const handle, uint8_t* data_ptr, uint
 722:../Dave/Generated/UART/uart.c **** {
 723:../Dave/Generated/UART/uart.c ****   UART_STATUS_t ret_stat = UART_STATUS_BUFFER_INVALID;
 724:../Dave/Generated/UART/uart.c ****   uint32_t loc_index;
 725:../Dave/Generated/UART/uart.c **** 
 726:../Dave/Generated/UART/uart.c ****   XMC_ASSERT("UART_Transmit: UART APP handle invalid", (((handle != NULL)&&
 727:../Dave/Generated/UART/uart.c ****             (handle->runtime != NULL))&&(handle->config != NULL)))
 728:../Dave/Generated/UART/uart.c **** 
 729:../Dave/Generated/UART/uart.c ****   if ((data_ptr != NULL) && (count > 0U))
 730:../Dave/Generated/UART/uart.c ****   {
 731:../Dave/Generated/UART/uart.c ****     ret_stat = UART_STATUS_BUSY;
 732:../Dave/Generated/UART/uart.c ****     if (handle->runtime->tx_busy == false)
 733:../Dave/Generated/UART/uart.c ****     {
 734:../Dave/Generated/UART/uart.c ****       handle->runtime->tx_busy = true;
 735:../Dave/Generated/UART/uart.c ****       if (handle->config->tx_fifo_size != XMC_USIC_CH_FIFO_DISABLED)
 736:../Dave/Generated/UART/uart.c ****       {
 737:../Dave/Generated/UART/uart.c ****         /*Clear the transmit FIFO*/
 738:../Dave/Generated/UART/uart.c ****         XMC_USIC_CH_TXFIFO_Flush(handle->channel);
 739:../Dave/Generated/UART/uart.c ****       }
 740:../Dave/Generated/UART/uart.c ****       /*Loop through each byte*/
 741:../Dave/Generated/UART/uart.c ****       for (loc_index = 0U; loc_index < count; loc_index++)
 742:../Dave/Generated/UART/uart.c ****       {
 743:../Dave/Generated/UART/uart.c ****         /*If FIFO is enabled, FIFO filling status should be checked
 744:../Dave/Generated/UART/uart.c ****          * to avoid overflow error*/
 745:../Dave/Generated/UART/uart.c ****         if (handle->config->tx_fifo_size != XMC_USIC_CH_FIFO_DISABLED)
 746:../Dave/Generated/UART/uart.c ****         {
 747:../Dave/Generated/UART/uart.c ****           /*Wait if transmit FIFO is full*/
 748:../Dave/Generated/UART/uart.c ****           while (XMC_USIC_CH_TXFIFO_IsFull(handle->channel) == true)
 749:../Dave/Generated/UART/uart.c ****           {
 750:../Dave/Generated/UART/uart.c ****           }
 751:../Dave/Generated/UART/uart.c ****         }
 752:../Dave/Generated/UART/uart.c ****         XMC_UART_CH_Transmit(handle->channel, (uint16_t)data_ptr[loc_index]);
 753:../Dave/Generated/UART/uart.c ****       }
 754:../Dave/Generated/UART/uart.c **** 
 755:../Dave/Generated/UART/uart.c ****       if (handle->config->tx_fifo_size != XMC_USIC_CH_FIFO_DISABLED)
 756:../Dave/Generated/UART/uart.c ****       {
 757:../Dave/Generated/UART/uart.c ****         /*Wait till FIFO is empty*/
 758:../Dave/Generated/UART/uart.c ****         while (XMC_USIC_CH_TXFIFO_IsEmpty(handle->channel) == false)
 759:../Dave/Generated/UART/uart.c ****         {
 760:../Dave/Generated/UART/uart.c ****         }
 761:../Dave/Generated/UART/uart.c ****       }
 762:../Dave/Generated/UART/uart.c ****       ret_stat = UART_STATUS_SUCCESS;
 763:../Dave/Generated/UART/uart.c ****       handle->runtime->tx_busy = false;
 764:../Dave/Generated/UART/uart.c ****     }
 765:../Dave/Generated/UART/uart.c ****   }
 766:../Dave/Generated/UART/uart.c ****   return ret_stat;
 767:../Dave/Generated/UART/uart.c **** }
 768:../Dave/Generated/UART/uart.c **** #endif
 769:../Dave/Generated/UART/uart.c **** 
 770:../Dave/Generated/UART/uart.c **** #ifdef UART_RX_DIRECT_USED
 771:../Dave/Generated/UART/uart.c **** /*
 772:../Dave/Generated/UART/uart.c ****  * Polling method to receive data.
 773:../Dave/Generated/UART/uart.c ****  * @param[in] UART_t* handle UART APP handle pointer
 774:../Dave/Generated/UART/uart.c ****  * @param[in] uint8_t*  Pointer to data array
 775:../Dave/Generated/UART/uart.c ****  * @param[in] uint32_t number of bytes to be received.
 776:../Dave/Generated/UART/uart.c ****  *
 777:../Dave/Generated/UART/uart.c ****  * @return UART_STATUS_t Status of receive request handling.
 778:../Dave/Generated/UART/uart.c ****  *
 779:../Dave/Generated/UART/uart.c ****  * Description:
 780:../Dave/Generated/UART/uart.c ****  * Receives data by blocking the CPU until all data is received. Reception
 781:../Dave/Generated/UART/uart.c ****  * cannot be aborted since it is blocking implementation. Based on FIFO selection,
 782:../Dave/Generated/UART/uart.c ****  * either RBUF or OUT register will be read.
 783:../Dave/Generated/UART/uart.c ****  *
 784:../Dave/Generated/UART/uart.c ****  */
 785:../Dave/Generated/UART/uart.c **** static UART_STATUS_t UART_lStartReceivePolling(const UART_t *const handle, uint8_t* data_ptr, uint3
 786:../Dave/Generated/UART/uart.c **** {
 787:../Dave/Generated/UART/uart.c ****   UART_STATUS_t ret_stat = UART_STATUS_BUFFER_INVALID;
 788:../Dave/Generated/UART/uart.c ****   uint32_t loc_index;
 789:../Dave/Generated/UART/uart.c ****   uint32_t loc_status;
 790:../Dave/Generated/UART/uart.c **** 
 791:../Dave/Generated/UART/uart.c ****   XMC_ASSERT("UART_Receive: UART APP handle invalid", ((handle != NULL)&&
 792:../Dave/Generated/UART/uart.c ****             (handle->runtime != NULL)))
 793:../Dave/Generated/UART/uart.c **** 
 794:../Dave/Generated/UART/uart.c ****   if ((data_ptr != NULL) && (count > 0U))
 795:../Dave/Generated/UART/uart.c ****   {
 796:../Dave/Generated/UART/uart.c ****     ret_stat = UART_STATUS_BUSY;
 797:../Dave/Generated/UART/uart.c ****     if (handle->runtime->rx_busy == false)
 798:../Dave/Generated/UART/uart.c ****     {
 799:../Dave/Generated/UART/uart.c ****       handle->runtime->rx_busy = true;
 800:../Dave/Generated/UART/uart.c ****       if (handle->config->rx_fifo_size != XMC_USIC_CH_FIFO_DISABLED)
 801:../Dave/Generated/UART/uart.c ****       {
 802:../Dave/Generated/UART/uart.c ****         /*Clear the receive FIFO, configure the trigger lime
 803:../Dave/Generated/UART/uart.c ****          * and enable the receive events*/
 804:../Dave/Generated/UART/uart.c ****         XMC_USIC_CH_RXFIFO_Flush(handle->channel);
 805:../Dave/Generated/UART/uart.c ****       }
 806:../Dave/Generated/UART/uart.c ****       for (loc_index = 0U; loc_index < count; loc_index++)
 807:../Dave/Generated/UART/uart.c ****       {
 808:../Dave/Generated/UART/uart.c ****         /*If receive FIFO is configured, wait for FIFO to get data.*/
 809:../Dave/Generated/UART/uart.c ****         if (handle->config->rx_fifo_size != XMC_USIC_CH_FIFO_DISABLED)
 810:../Dave/Generated/UART/uart.c ****         {
 811:../Dave/Generated/UART/uart.c ****           /*Wait if FIFO empty*/
 812:../Dave/Generated/UART/uart.c ****           while(XMC_USIC_CH_RXFIFO_IsEmpty(handle->channel) == true)
 813:../Dave/Generated/UART/uart.c ****           {
 814:../Dave/Generated/UART/uart.c ****           }
 815:../Dave/Generated/UART/uart.c ****         }
 816:../Dave/Generated/UART/uart.c ****         else
 817:../Dave/Generated/UART/uart.c ****         {
 818:../Dave/Generated/UART/uart.c ****           /*Wait for RIF or AIF flag update*/
 819:../Dave/Generated/UART/uart.c ****           loc_status = XMC_UART_CH_GetStatusFlag(handle->channel);
 820:../Dave/Generated/UART/uart.c ****           while (!(loc_status & ((uint32_t)XMC_UART_CH_STATUS_FLAG_ALTERNATIVE_RECEIVE_INDICATION |
 821:../Dave/Generated/UART/uart.c ****                 (uint32_t)XMC_UART_CH_STATUS_FLAG_RECEIVE_INDICATION)))
 822:../Dave/Generated/UART/uart.c ****           {
 823:../Dave/Generated/UART/uart.c ****             loc_status = XMC_UART_CH_GetStatusFlag(handle->channel);
 824:../Dave/Generated/UART/uart.c ****           }
 825:../Dave/Generated/UART/uart.c ****           /*Clear the detected event.
 826:../Dave/Generated/UART/uart.c ****            * Both events should not be cleared at once, otherwise if 2 bytes are received, only
 827:../Dave/Generated/UART/uart.c ****            * one byte will be read.*/
 828:../Dave/Generated/UART/uart.c ****           XMC_UART_CH_ClearStatusFlag(handle->channel,
 829:../Dave/Generated/UART/uart.c ****               ((uint32_t)XMC_UART_CH_STATUS_FLAG_RECEIVE_INDICATION | (uint32_t)XMC_UART_CH_STATUS_
 830:../Dave/Generated/UART/uart.c ****         }
 831:../Dave/Generated/UART/uart.c ****         data_ptr[loc_index] = (uint8_t)XMC_UART_CH_GetReceivedData(handle->channel);
 832:../Dave/Generated/UART/uart.c ****       }
 833:../Dave/Generated/UART/uart.c ****       ret_stat = UART_STATUS_SUCCESS;
 834:../Dave/Generated/UART/uart.c ****       handle->runtime->rx_busy = false;
 835:../Dave/Generated/UART/uart.c ****     }
 836:../Dave/Generated/UART/uart.c ****   }
 837:../Dave/Generated/UART/uart.c ****   return ret_stat;
 838:../Dave/Generated/UART/uart.c **** }
 839:../Dave/Generated/UART/uart.c **** #endif
 840:../Dave/Generated/UART/uart.c **** 
 841:../Dave/Generated/UART/uart.c **** #ifdef UART_TX_INTERRUPT_USED
 842:../Dave/Generated/UART/uart.c **** /*
 843:../Dave/Generated/UART/uart.c ****  * Transmit interrupt handler for the APP.
 844:../Dave/Generated/UART/uart.c ****  * This is a common interrupt handling function called for different instances of the APP.
 845:../Dave/Generated/UART/uart.c ****  *
 846:../Dave/Generated/UART/uart.c ****  *  * param[in]  handle UART APP handle pointer of type UART_t*
 847:../Dave/Generated/UART/uart.c ****  *
 848:../Dave/Generated/UART/uart.c ****  *  * return void
 849:../Dave/Generated/UART/uart.c ****  */
 850:../Dave/Generated/UART/uart.c **** void UART_lTransmitHandler(const UART_t * const handle)
 851:../Dave/Generated/UART/uart.c **** {
 852:../Dave/Generated/UART/uart.c ****   UART_RUNTIME_t * ptr_runtime = handle->runtime;
 853:../Dave/Generated/UART/uart.c **** 
 854:../Dave/Generated/UART/uart.c ****   if (ptr_runtime->tx_data_index < ptr_runtime->tx_data_count)
 855:../Dave/Generated/UART/uart.c ****   {
 856:../Dave/Generated/UART/uart.c ****     if (handle->config->tx_fifo_size != XMC_USIC_CH_FIFO_DISABLED)
 857:../Dave/Generated/UART/uart.c ****     {
 858:../Dave/Generated/UART/uart.c ****       /*When Transmit FIFO is enabled*/
 859:../Dave/Generated/UART/uart.c ****       /*Fill the transmit FIFO */
 860:../Dave/Generated/UART/uart.c ****       while (XMC_USIC_CH_TXFIFO_IsFull(handle->channel) == false)
 861:../Dave/Generated/UART/uart.c ****       {
 862:../Dave/Generated/UART/uart.c ****         if (ptr_runtime->tx_data_index < ptr_runtime->tx_data_count)
 863:../Dave/Generated/UART/uart.c ****         {
 864:../Dave/Generated/UART/uart.c ****           /*Load the FIFO byte by byte till either FIFO is full or all data is loaded*/
 865:../Dave/Generated/UART/uart.c ****           XMC_UART_CH_Transmit(handle->channel,(uint16_t)ptr_runtime->tx_data[ptr_runtime->tx_data_
 866:../Dave/Generated/UART/uart.c ****           (ptr_runtime->tx_data_index)++;
 867:../Dave/Generated/UART/uart.c ****         }
 868:../Dave/Generated/UART/uart.c ****         else
 869:../Dave/Generated/UART/uart.c ****         {
 870:../Dave/Generated/UART/uart.c ****           break;
 871:../Dave/Generated/UART/uart.c ****         }
 872:../Dave/Generated/UART/uart.c ****       }
 873:../Dave/Generated/UART/uart.c ****     }
 874:../Dave/Generated/UART/uart.c ****     else
 875:../Dave/Generated/UART/uart.c ****     {
 876:../Dave/Generated/UART/uart.c ****       /*When Transmit FIFO is disabled*/
 877:../Dave/Generated/UART/uart.c ****       XMC_UART_CH_Transmit(handle->channel,(uint16_t)ptr_runtime->tx_data[ptr_runtime->tx_data_inde
 878:../Dave/Generated/UART/uart.c ****       (ptr_runtime->tx_data_index)++;
 879:../Dave/Generated/UART/uart.c ****     }
 880:../Dave/Generated/UART/uart.c ****   }
 881:../Dave/Generated/UART/uart.c ****   else
 882:../Dave/Generated/UART/uart.c ****   {
 883:../Dave/Generated/UART/uart.c ****     if (XMC_USIC_CH_TXFIFO_IsEmpty(handle->channel) == true)
 884:../Dave/Generated/UART/uart.c ****     {
 885:../Dave/Generated/UART/uart.c ****       if (handle->config->tx_fifo_size != XMC_USIC_CH_FIFO_DISABLED)
 886:../Dave/Generated/UART/uart.c ****       {
 887:../Dave/Generated/UART/uart.c ****         /*Disable the transmit FIFO event*/
 888:../Dave/Generated/UART/uart.c ****         XMC_USIC_CH_TXFIFO_DisableEvent(handle->channel,(uint32_t)XMC_USIC_CH_TXFIFO_EVENT_CONF_STA
 889:../Dave/Generated/UART/uart.c ****       }
 890:../Dave/Generated/UART/uart.c ****       else
 891:../Dave/Generated/UART/uart.c ****       {
 892:../Dave/Generated/UART/uart.c ****         /*Disable the standard transmit event*/
 893:../Dave/Generated/UART/uart.c ****         XMC_USIC_CH_DisableEvent(handle->channel, (uint32_t)XMC_USIC_CH_EVENT_TRANSMIT_BUFFER);
 894:../Dave/Generated/UART/uart.c ****       }
 895:../Dave/Generated/UART/uart.c **** 
 896:../Dave/Generated/UART/uart.c ****       /*Wait for the transmit buffer to be free to ensure that all data is transmitted*/
 897:../Dave/Generated/UART/uart.c ****       while (XMC_USIC_CH_GetTransmitBufferStatus(handle->channel) == XMC_USIC_CH_TBUF_STATUS_BUSY)
 898:../Dave/Generated/UART/uart.c ****       {
 899:../Dave/Generated/UART/uart.c **** 
 900:../Dave/Generated/UART/uart.c ****       }
 901:../Dave/Generated/UART/uart.c ****       /*All data is transmitted*/
 902:../Dave/Generated/UART/uart.c ****       ptr_runtime->tx_busy = false;
 903:../Dave/Generated/UART/uart.c ****       ptr_runtime->tx_data = NULL;
 904:../Dave/Generated/UART/uart.c **** 
 905:../Dave/Generated/UART/uart.c ****       if (handle->config->tx_cbhandler != NULL)
 906:../Dave/Generated/UART/uart.c ****       {
 907:../Dave/Generated/UART/uart.c ****         /*Execute the callback function provided in the UART APP UI*/
 908:../Dave/Generated/UART/uart.c ****         handle->config->tx_cbhandler();
 909:../Dave/Generated/UART/uart.c ****       }
 910:../Dave/Generated/UART/uart.c ****     }
 911:../Dave/Generated/UART/uart.c ****   }
 912:../Dave/Generated/UART/uart.c **** }
 913:../Dave/Generated/UART/uart.c **** #endif
 914:../Dave/Generated/UART/uart.c **** 
 915:../Dave/Generated/UART/uart.c **** #ifdef UART_RX_INTERRUPT_USED
 916:../Dave/Generated/UART/uart.c **** /*
 917:../Dave/Generated/UART/uart.c ****  * Receive interrupt handler for the APP.
 918:../Dave/Generated/UART/uart.c ****  * This is a common interrupt handling function for different instances of the UART APP.
 919:../Dave/Generated/UART/uart.c ****  *
 920:../Dave/Generated/UART/uart.c ****  * param[in]  handle UART APP handle pointer of type UART_t*
 921:../Dave/Generated/UART/uart.c ****  *
 922:../Dave/Generated/UART/uart.c ****  * return void
 923:../Dave/Generated/UART/uart.c ****  */
 924:../Dave/Generated/UART/uart.c **** void UART_lReceiveHandler(const UART_t * const handle)
 925:../Dave/Generated/UART/uart.c **** {
 926:../Dave/Generated/UART/uart.c ****   UART_RUNTIME_t * ptr_runtime = handle->runtime;
 927:../Dave/Generated/UART/uart.c **** 
 928:../Dave/Generated/UART/uart.c ****   if (handle->config->rx_fifo_size != XMC_USIC_CH_FIFO_DISABLED)
 929:../Dave/Generated/UART/uart.c ****   {
 930:../Dave/Generated/UART/uart.c ****     /*When Receive FIFO is enabled*/
 931:../Dave/Generated/UART/uart.c ****     while (XMC_USIC_CH_RXFIFO_IsEmpty(handle->channel) == false)
 932:../Dave/Generated/UART/uart.c ****     {
 933:../Dave/Generated/UART/uart.c ****       if (ptr_runtime->rx_data_index < ptr_runtime->rx_data_count)
 934:../Dave/Generated/UART/uart.c ****       {
 935:../Dave/Generated/UART/uart.c ****         /*Read all the content of Receive FIFO */
 936:../Dave/Generated/UART/uart.c ****         ptr_runtime->rx_data[ptr_runtime->rx_data_index] = (uint8_t)XMC_UART_CH_GetReceivedData(han
 937:../Dave/Generated/UART/uart.c ****         (ptr_runtime->rx_data_index)++;
 938:../Dave/Generated/UART/uart.c ****       }
 939:../Dave/Generated/UART/uart.c **** 
 940:../Dave/Generated/UART/uart.c ****       if (ptr_runtime->rx_data_index == ptr_runtime->rx_data_count)
 941:../Dave/Generated/UART/uart.c ****       {
 942:../Dave/Generated/UART/uart.c ****         /*Reception complete*/
 943:../Dave/Generated/UART/uart.c ****         ptr_runtime->rx_busy = false;
 944:../Dave/Generated/UART/uart.c ****         /*Disable both standard receive and alternative receive FIFO events*/
 945:../Dave/Generated/UART/uart.c ****         XMC_USIC_CH_RXFIFO_DisableEvent(handle->channel,
 946:../Dave/Generated/UART/uart.c ****             (uint32_t)((uint32_t)XMC_USIC_CH_RXFIFO_EVENT_CONF_STANDARD |
 947:../Dave/Generated/UART/uart.c ****             (uint32_t)XMC_USIC_CH_RXFIFO_EVENT_CONF_ALTERNATE));
 948:../Dave/Generated/UART/uart.c ****         if (handle->config->rx_cbhandler != NULL)
 949:../Dave/Generated/UART/uart.c ****         {
 950:../Dave/Generated/UART/uart.c ****           /*Execute the 'End of reception' callback function*/
 951:../Dave/Generated/UART/uart.c ****           handle->config->rx_cbhandler();
 952:../Dave/Generated/UART/uart.c ****         }
 953:../Dave/Generated/UART/uart.c ****         break;
 954:../Dave/Generated/UART/uart.c ****       }
 955:../Dave/Generated/UART/uart.c ****     }
 956:../Dave/Generated/UART/uart.c ****     /*Set the trigger limit if data still to be received*/
 957:../Dave/Generated/UART/uart.c ****     if (ptr_runtime->rx_data_index < ptr_runtime->rx_data_count)
 958:../Dave/Generated/UART/uart.c ****     {
 959:../Dave/Generated/UART/uart.c ****       UART_lReconfigureRxFIFO(handle,
 960:../Dave/Generated/UART/uart.c ****           (uint32_t)(ptr_runtime->rx_data_count - ptr_runtime->rx_data_index));
 961:../Dave/Generated/UART/uart.c ****     }
 962:../Dave/Generated/UART/uart.c ****   }
 963:../Dave/Generated/UART/uart.c ****   else
 964:../Dave/Generated/UART/uart.c ****   {
 965:../Dave/Generated/UART/uart.c ****     /*When RxFIFO is disabled*/
 966:../Dave/Generated/UART/uart.c ****     if (ptr_runtime->rx_data_index < ptr_runtime->rx_data_count)
 967:../Dave/Generated/UART/uart.c ****     {
 968:../Dave/Generated/UART/uart.c ****       ptr_runtime->rx_data[ptr_runtime->rx_data_index] = (uint8_t)XMC_UART_CH_GetReceivedData(handl
 969:../Dave/Generated/UART/uart.c ****       (ptr_runtime->rx_data_index)++;
 970:../Dave/Generated/UART/uart.c ****     }
 971:../Dave/Generated/UART/uart.c **** 
 972:../Dave/Generated/UART/uart.c ****     if (ptr_runtime->rx_data_index == ptr_runtime->rx_data_count)
 973:../Dave/Generated/UART/uart.c ****     {
 974:../Dave/Generated/UART/uart.c ****       /*Reception complete*/
 975:../Dave/Generated/UART/uart.c ****       ptr_runtime->rx_busy = false;
 976:../Dave/Generated/UART/uart.c ****       /*Disable both standard receive and alternative receive FIFO events*/
 977:../Dave/Generated/UART/uart.c ****       XMC_USIC_CH_DisableEvent(handle->channel,
 978:../Dave/Generated/UART/uart.c ****           (uint32_t)((uint32_t)XMC_USIC_CH_EVENT_ALTERNATIVE_RECEIVE | (uint32_t)XMC_USIC_CH_EVENT_
 979:../Dave/Generated/UART/uart.c **** 
 980:../Dave/Generated/UART/uart.c ****       if (handle->config->rx_cbhandler != NULL)
 981:../Dave/Generated/UART/uart.c ****       {
 982:../Dave/Generated/UART/uart.c ****         /*Execute the 'End of reception' callback function*/
 983:../Dave/Generated/UART/uart.c ****         handle->config->rx_cbhandler();
 984:../Dave/Generated/UART/uart.c ****       }
 985:../Dave/Generated/UART/uart.c ****     }
 986:../Dave/Generated/UART/uart.c ****   }
 987:../Dave/Generated/UART/uart.c **** }
 988:../Dave/Generated/UART/uart.c **** 
 989:../Dave/Generated/UART/uart.c **** /*
 990:../Dave/Generated/UART/uart.c ****  * A local function to reconfigure Receive FIFO with the given size and trigger limit.
 991:../Dave/Generated/UART/uart.c ****  * Size is needed because the FIFO should be disabled before changing the trigger limit by
 992:../Dave/Generated/UART/uart.c ****  * clearing the FIFO size.
 993:../Dave/Generated/UART/uart.c ****  *
 994:../Dave/Generated/UART/uart.c ****  * param[in] UART_t * pointer to the UART APP handle
 995:../Dave/Generated/UART/uart.c ****  * param[in] uint8_t  number of bytes to be received.
 996:../Dave/Generated/UART/uart.c ****  *
 997:../Dave/Generated/UART/uart.c ****  * return void.
 998:../Dave/Generated/UART/uart.c ****  */
 999:../Dave/Generated/UART/uart.c **** static void UART_lReconfigureRxFIFO(const UART_t * const handle, uint32_t data_size)
1000:../Dave/Generated/UART/uart.c **** {
  25              	 .loc 1 1000 0
  26              	 .cfi_startproc
  27              	.LVL0:
  28 0000 10B5     	 push {r4,lr}
  29              	.LCFI0:
  30              	 .cfi_def_cfa_offset 8
  31              	 .cfi_offset 4,-8
  32              	 .cfi_offset 14,-4
1001:../Dave/Generated/UART/uart.c ****   uint32_t fifo_size;
1002:../Dave/Generated/UART/uart.c ****   uint32_t ret_limit_val = 0U;
1003:../Dave/Generated/UART/uart.c **** 
1004:../Dave/Generated/UART/uart.c ****   /*Get FIFO size in bytes*/
1005:../Dave/Generated/UART/uart.c ****   fifo_size = (uint32_t)(0x01UL << (uint8_t)(handle->config->rx_fifo_size));
  33              	 .loc 1 1005 0
  34 0002 4368     	 ldr r3,[r0,#4]
1000:../Dave/Generated/UART/uart.c ****   uint32_t fifo_size;
  35              	 .loc 1 1000 0
  36 0004 0C1C     	 mov r4,r1
  37              	 .loc 1 1005 0
  38 0006 2833     	 add r3,r3,#40
  39 0008 1978     	 ldrb r1,[r3]
  40              	.LVL1:
  41 000a 0123     	 mov r3,#1
  42 000c 8B40     	 lsl r3,r3,r1
  43              	.LVL2:
1006:../Dave/Generated/UART/uart.c ****   /*If data size is more than FIFO size, configure the limit to the FIFO size*/
1007:../Dave/Generated/UART/uart.c ****   if (data_size < fifo_size)
1008:../Dave/Generated/UART/uart.c ****   {
1009:../Dave/Generated/UART/uart.c ****     ret_limit_val = (uint32_t)(data_size - 1U);
1010:../Dave/Generated/UART/uart.c ****   }
1011:../Dave/Generated/UART/uart.c ****   else
1012:../Dave/Generated/UART/uart.c ****   {
1013:../Dave/Generated/UART/uart.c ****     ret_limit_val = (uint32_t)(fifo_size - 1U);
  44              	 .loc 1 1013 0
  45 000e 5A1E     	 sub r2,r3,#1
1007:../Dave/Generated/UART/uart.c ****   {
  46              	 .loc 1 1007 0
  47 0010 9C42     	 cmp r4,r3
  48 0012 00D2     	 bcs .L3
1009:../Dave/Generated/UART/uart.c ****   }
  49              	 .loc 1 1009 0
  50 0014 621E     	 sub r2,r4,#1
  51              	.LVL3:
  52              	.L3:
1014:../Dave/Generated/UART/uart.c ****   }
1015:../Dave/Generated/UART/uart.c ****   /*Set the limit value*/
1016:../Dave/Generated/UART/uart.c ****   XMC_USIC_CH_RXFIFO_SetSizeTriggerLimit(handle->channel,
  53              	 .loc 1 1016 0
  54 0016 0068     	 ldr r0,[r0]
  55              	.LVL4:
  56 0018 FFF7FEFF 	 bl XMC_USIC_CH_RXFIFO_SetSizeTriggerLimit
  57              	.LVL5:
1017:../Dave/Generated/UART/uart.c ****         handle->config->rx_fifo_size, ret_limit_val);
1018:../Dave/Generated/UART/uart.c **** }
  58              	 .loc 1 1018 0
  59              	 
  60              	.LVL6:
  61 001c 10BD     	 pop {r4,pc}
  62              	 .cfi_endproc
  63              	.LFE185:
  65              	 .section .text.UART_GetAppVersion,"ax",%progbits
  66              	 .align 1
  67              	 .global UART_GetAppVersion
  68              	 .code 16
  69              	 .thumb_func
  71              	UART_GetAppVersion:
  72              	.LFB176:
 123:../Dave/Generated/UART/uart.c ****   DAVE_APP_VERSION_t version;
  73              	 .loc 1 123 0
  74              	 .cfi_startproc
  75              	.LVL7:
 131:../Dave/Generated/UART/uart.c **** 
  76              	 .loc 1 131 0
  77 0000 0148     	 ldr r0,.L6
 123:../Dave/Generated/UART/uart.c ****   DAVE_APP_VERSION_t version;
  78              	 .loc 1 123 0
  79 0002 82B0     	 sub sp,sp,#8
  80              	.LCFI1:
  81              	 .cfi_def_cfa_offset 8
 131:../Dave/Generated/UART/uart.c **** 
  82              	 .loc 1 131 0
  83 0004 02B0     	 add sp,sp,#8
  84              	 
  85 0006 7047     	 bx lr
  86              	.L7:
  87              	 .align 2
  88              	.L6:
  89 0008 04010C00 	 .word 786692
  90              	 .cfi_endproc
  91              	.LFE176:
  93              	 .section .text.UART_Init,"ax",%progbits
  94              	 .align 1
  95              	 .global UART_Init
  96              	 .code 16
  97              	 .thumb_func
  99              	UART_Init:
 100              	.LFB177:
 144:../Dave/Generated/UART/uart.c ****   UART_STATUS_t status = UART_STATUS_SUCCESS;
 101              	 .loc 1 144 0
 102              	 .cfi_startproc
 103              	.LVL8:
 104 0000 08B5     	 push {r3,lr}
 105              	.LCFI2:
 106              	 .cfi_def_cfa_offset 8
 107              	 .cfi_offset 3,-8
 108              	 .cfi_offset 14,-4
 151:../Dave/Generated/UART/uart.c **** 
 109              	 .loc 1 151 0
 110 0002 4368     	 ldr r3,[r0,#4]
 154:../Dave/Generated/UART/uart.c **** 
 111              	 .loc 1 154 0
 112              	 
 151:../Dave/Generated/UART/uart.c **** 
 113              	 .loc 1 151 0
 114 0004 5B68     	 ldr r3,[r3,#4]
 115 0006 9847     	 blx r3
 116              	.LVL9:
 154:../Dave/Generated/UART/uart.c **** 
 117              	 .loc 1 154 0
 118 0008 08BD     	 pop {r3,pc}
 119              	 .cfi_endproc
 120              	.LFE177:
 122              	 .section .text.UART_Transmit,"ax",%progbits
 123              	 .align 1
 124              	 .global UART_Transmit
 125              	 .code 16
 126              	 .thumb_func
 128              	UART_Transmit:
 129              	.LFB178:
 171:../Dave/Generated/UART/uart.c ****   UART_STATUS_t ret_stat = UART_STATUS_MODE_MISMATCH;
 130              	 .loc 1 171 0
 131              	 .cfi_startproc
 132              	.LVL10:
 133 0000 F8B5     	 push {r3,r4,r5,r6,r7,lr}
 134              	.LCFI3:
 135              	 .cfi_def_cfa_offset 24
 136              	 .cfi_offset 3,-24
 137              	 .cfi_offset 4,-20
 138              	 .cfi_offset 5,-16
 139              	 .cfi_offset 6,-12
 140              	 .cfi_offset 7,-8
 141              	 .cfi_offset 14,-4
 174:../Dave/Generated/UART/uart.c ****   {
 142              	 .loc 1 174 0
 143 0002 4468     	 ldr r4,[r0,#4]
 144 0004 A31D     	 add r3,r4,#6
 145 0006 DE7F     	 ldrb r6,[r3,#31]
 172:../Dave/Generated/UART/uart.c **** 
 146              	 .loc 1 172 0
 147 0008 0423     	 mov r3,#4
 174:../Dave/Generated/UART/uart.c ****   {
 148              	 .loc 1 174 0
 149 000a 022E     	 cmp r6,#2
 150 000c 35D1     	 bne .L10
 151              	.LVL11:
 152              	.LBB36:
 153              	.LBB37:
 723:../Dave/Generated/UART/uart.c ****   uint32_t loc_index;
 154              	 .loc 1 723 0
 155 000e 0323     	 mov r3,#3
 729:../Dave/Generated/UART/uart.c ****   {
 156              	 .loc 1 729 0
 157 0010 0029     	 cmp r1,#0
 158 0012 32D0     	 beq .L10
 159 0014 002A     	 cmp r2,#0
 160 0016 30D0     	 beq .L10
 161              	.LVL12:
 732:../Dave/Generated/UART/uart.c ****     {
 162              	 .loc 1 732 0
 163 0018 8568     	 ldr r5,[r0,#8]
 731:../Dave/Generated/UART/uart.c ****     if (handle->runtime->tx_busy == false)
 164              	 .loc 1 731 0
 165 001a 331C     	 mov r3,r6
 732:../Dave/Generated/UART/uart.c ****     {
 166              	 .loc 1 732 0
 167 001c 2F7E     	 ldrb r7,[r5,#24]
 168 001e 002F     	 cmp r7,#0
 169 0020 2BD1     	 bne .L10
 734:../Dave/Generated/UART/uart.c ****       if (handle->config->tx_fifo_size != XMC_USIC_CH_FIFO_DISABLED)
 170              	 .loc 1 734 0
 171 0022 013B     	 sub r3,r3,#1
 172 0024 2B76     	 strb r3,[r5,#24]
 735:../Dave/Generated/UART/uart.c ****       {
 173              	 .loc 1 735 0
 174 0026 0834     	 add r4,r4,#8
 175 0028 E37F     	 ldrb r3,[r4,#31]
 176 002a 002B     	 cmp r3,#0
 177 002c 04D0     	 beq .L12
 178              	.LVL13:
 179              	.LBB38:
 180              	.LBB39:
 181              	 .file 2 "C:/Workspace/DAVE-4.4.2-64Bit/xmc1400-getstarted-optiga-trust-m/Libraries/XMCLib/inc/xmc_usic.h"
   1:C:/Workspace/DAVE-4.4.2-64Bit/xmc1400-getstarted-optiga-trust-m/Libraries/XMCLib/inc\xmc_usic.h **** /**
   2:C:/Workspace/DAVE-4.4.2-64Bit/xmc1400-getstarted-optiga-trust-m/Libraries/XMCLib/inc\xmc_usic.h ****  * @file xmc_usic.h
   3:C:/Workspace/DAVE-4.4.2-64Bit/xmc1400-getstarted-optiga-trust-m/Libraries/XMCLib/inc\xmc_usic.h ****  * @date 2019-07-01
   4:C:/Workspace/DAVE-4.4.2-64Bit/xmc1400-getstarted-optiga-trust-m/Libraries/XMCLib/inc\xmc_usic.h ****  *
   5:C:/Workspace/DAVE-4.4.2-64Bit/xmc1400-getstarted-optiga-trust-m/Libraries/XMCLib/inc\xmc_usic.h ****  * @cond
   6:C:/Workspace/DAVE-4.4.2-64Bit/xmc1400-getstarted-optiga-trust-m/Libraries/XMCLib/inc\xmc_usic.h ****  **************************************************************************************************
   7:C:/Workspace/DAVE-4.4.2-64Bit/xmc1400-getstarted-optiga-trust-m/Libraries/XMCLib/inc\xmc_usic.h ****  * XMClib v2.1.24 - XMC Peripheral Driver Library 
   8:C:/Workspace/DAVE-4.4.2-64Bit/xmc1400-getstarted-optiga-trust-m/Libraries/XMCLib/inc\xmc_usic.h ****  *
   9:C:/Workspace/DAVE-4.4.2-64Bit/xmc1400-getstarted-optiga-trust-m/Libraries/XMCLib/inc\xmc_usic.h ****  * Copyright (c) 2015-2019, Infineon Technologies AG
  10:C:/Workspace/DAVE-4.4.2-64Bit/xmc1400-getstarted-optiga-trust-m/Libraries/XMCLib/inc\xmc_usic.h ****  * All rights reserved.                        
  11:C:/Workspace/DAVE-4.4.2-64Bit/xmc1400-getstarted-optiga-trust-m/Libraries/XMCLib/inc\xmc_usic.h ****  *                                             
  12:C:/Workspace/DAVE-4.4.2-64Bit/xmc1400-getstarted-optiga-trust-m/Libraries/XMCLib/inc\xmc_usic.h ****  * Redistribution and use in source and binary forms, with or without modification,are permitted pr
  13:C:/Workspace/DAVE-4.4.2-64Bit/xmc1400-getstarted-optiga-trust-m/Libraries/XMCLib/inc\xmc_usic.h ****  * following conditions are met:   
  14:C:/Workspace/DAVE-4.4.2-64Bit/xmc1400-getstarted-optiga-trust-m/Libraries/XMCLib/inc\xmc_usic.h ****  *                                                                              
  15:C:/Workspace/DAVE-4.4.2-64Bit/xmc1400-getstarted-optiga-trust-m/Libraries/XMCLib/inc\xmc_usic.h ****  * Redistributions of source code must retain the above copyright notice, this list of conditions a
  16:C:/Workspace/DAVE-4.4.2-64Bit/xmc1400-getstarted-optiga-trust-m/Libraries/XMCLib/inc\xmc_usic.h ****  * disclaimer.                        
  17:C:/Workspace/DAVE-4.4.2-64Bit/xmc1400-getstarted-optiga-trust-m/Libraries/XMCLib/inc\xmc_usic.h ****  * 
  18:C:/Workspace/DAVE-4.4.2-64Bit/xmc1400-getstarted-optiga-trust-m/Libraries/XMCLib/inc\xmc_usic.h ****  * Redistributions in binary form must reproduce the above copyright notice, this list of condition
  19:C:/Workspace/DAVE-4.4.2-64Bit/xmc1400-getstarted-optiga-trust-m/Libraries/XMCLib/inc\xmc_usic.h ****  * disclaimer in the documentation and/or other materials provided with the distribution.          
  20:C:/Workspace/DAVE-4.4.2-64Bit/xmc1400-getstarted-optiga-trust-m/Libraries/XMCLib/inc\xmc_usic.h ****  * 
  21:C:/Workspace/DAVE-4.4.2-64Bit/xmc1400-getstarted-optiga-trust-m/Libraries/XMCLib/inc\xmc_usic.h ****  * Neither the name of the copyright holders nor the names of its contributors may be used to endor
  22:C:/Workspace/DAVE-4.4.2-64Bit/xmc1400-getstarted-optiga-trust-m/Libraries/XMCLib/inc\xmc_usic.h ****  * products derived from this software without specific prior written permission.                  
  23:C:/Workspace/DAVE-4.4.2-64Bit/xmc1400-getstarted-optiga-trust-m/Libraries/XMCLib/inc\xmc_usic.h ****  *                                                                              
  24:C:/Workspace/DAVE-4.4.2-64Bit/xmc1400-getstarted-optiga-trust-m/Libraries/XMCLib/inc\xmc_usic.h ****  * THIS SOFTWARE IS PROVIDED BY THE COPYRIGHT HOLDERS AND CONTRIBUTORS "AS IS" AND ANY EXPRESS OR I
  25:C:/Workspace/DAVE-4.4.2-64Bit/xmc1400-getstarted-optiga-trust-m/Libraries/XMCLib/inc\xmc_usic.h ****  * INCLUDING, BUT NOT LIMITED TO, THE IMPLIED WARRANTIES OF MERCHANTABILITY AND FITNESS FOR A PARTI
  26:C:/Workspace/DAVE-4.4.2-64Bit/xmc1400-getstarted-optiga-trust-m/Libraries/XMCLib/inc\xmc_usic.h ****  * DISCLAIMED. IN NO EVENT SHALL THE COPYRIGHT HOLDER OR CONTRIBUTORS BE LIABLE  FOR ANY DIRECT, IN
  27:C:/Workspace/DAVE-4.4.2-64Bit/xmc1400-getstarted-optiga-trust-m/Libraries/XMCLib/inc\xmc_usic.h ****  * SPECIAL, EXEMPLARY, OR CONSEQUENTIAL DAMAGES (INCLUDING, BUT NOT LIMITED TO, PROCUREMENT OF SUBS
  28:C:/Workspace/DAVE-4.4.2-64Bit/xmc1400-getstarted-optiga-trust-m/Libraries/XMCLib/inc\xmc_usic.h ****  * SERVICES; LOSS OF USE, DATA, OR PROFITS; OR BUSINESS INTERRUPTION) HOWEVER CAUSED AND ON ANY THE
  29:C:/Workspace/DAVE-4.4.2-64Bit/xmc1400-getstarted-optiga-trust-m/Libraries/XMCLib/inc\xmc_usic.h ****  * WHETHER IN CONTRACT, STRICT LIABILITY,OR TORT (INCLUDING NEGLIGENCE OR OTHERWISE) ARISING IN ANY
  30:C:/Workspace/DAVE-4.4.2-64Bit/xmc1400-getstarted-optiga-trust-m/Libraries/XMCLib/inc\xmc_usic.h ****  * OF THIS SOFTWARE, EVEN IF ADVISED OF THE POSSIBILITY OF SUCH DAMAGE.                            
  31:C:/Workspace/DAVE-4.4.2-64Bit/xmc1400-getstarted-optiga-trust-m/Libraries/XMCLib/inc\xmc_usic.h ****  *                                                                              
  32:C:/Workspace/DAVE-4.4.2-64Bit/xmc1400-getstarted-optiga-trust-m/Libraries/XMCLib/inc\xmc_usic.h ****  * To improve the quality of the software, users are encouraged to share modifications, enhancement
  33:C:/Workspace/DAVE-4.4.2-64Bit/xmc1400-getstarted-optiga-trust-m/Libraries/XMCLib/inc\xmc_usic.h ****  * Infineon Technologies AG dave@infineon.com).                                                    
  34:C:/Workspace/DAVE-4.4.2-64Bit/xmc1400-getstarted-optiga-trust-m/Libraries/XMCLib/inc\xmc_usic.h ****  **************************************************************************************************
  35:C:/Workspace/DAVE-4.4.2-64Bit/xmc1400-getstarted-optiga-trust-m/Libraries/XMCLib/inc\xmc_usic.h ****  *
  36:C:/Workspace/DAVE-4.4.2-64Bit/xmc1400-getstarted-optiga-trust-m/Libraries/XMCLib/inc\xmc_usic.h ****  * Change History
  37:C:/Workspace/DAVE-4.4.2-64Bit/xmc1400-getstarted-optiga-trust-m/Libraries/XMCLib/inc\xmc_usic.h ****  * --------------
  38:C:/Workspace/DAVE-4.4.2-64Bit/xmc1400-getstarted-optiga-trust-m/Libraries/XMCLib/inc\xmc_usic.h ****  *
  39:C:/Workspace/DAVE-4.4.2-64Bit/xmc1400-getstarted-optiga-trust-m/Libraries/XMCLib/inc\xmc_usic.h ****  * 2015-02-20:
  40:C:/Workspace/DAVE-4.4.2-64Bit/xmc1400-getstarted-optiga-trust-m/Libraries/XMCLib/inc\xmc_usic.h ****  *     - Initial draft<br>
  41:C:/Workspace/DAVE-4.4.2-64Bit/xmc1400-getstarted-optiga-trust-m/Libraries/XMCLib/inc\xmc_usic.h ****  *     - Documentation improved <br>
  42:C:/Workspace/DAVE-4.4.2-64Bit/xmc1400-getstarted-optiga-trust-m/Libraries/XMCLib/inc\xmc_usic.h ****  *
  43:C:/Workspace/DAVE-4.4.2-64Bit/xmc1400-getstarted-optiga-trust-m/Libraries/XMCLib/inc\xmc_usic.h ****  * 2015-05-08:
  44:C:/Workspace/DAVE-4.4.2-64Bit/xmc1400-getstarted-optiga-trust-m/Libraries/XMCLib/inc\xmc_usic.h ****  *     - Added XMC_USIC_CH_SetInputTriggerCombinationMode() and XMC_USIC_CH_SetTransmitBufferStatus
  45:C:/Workspace/DAVE-4.4.2-64Bit/xmc1400-getstarted-optiga-trust-m/Libraries/XMCLib/inc\xmc_usic.h ****  *      
  46:C:/Workspace/DAVE-4.4.2-64Bit/xmc1400-getstarted-optiga-trust-m/Libraries/XMCLib/inc\xmc_usic.h ****  * 2015-06-20:
  47:C:/Workspace/DAVE-4.4.2-64Bit/xmc1400-getstarted-optiga-trust-m/Libraries/XMCLib/inc\xmc_usic.h ****  *     - Removed version macros and declaration of GetDriverVersion API
  48:C:/Workspace/DAVE-4.4.2-64Bit/xmc1400-getstarted-optiga-trust-m/Libraries/XMCLib/inc\xmc_usic.h ****  * 
  49:C:/Workspace/DAVE-4.4.2-64Bit/xmc1400-getstarted-optiga-trust-m/Libraries/XMCLib/inc\xmc_usic.h ****  * 2015-08-17:
  50:C:/Workspace/DAVE-4.4.2-64Bit/xmc1400-getstarted-optiga-trust-m/Libraries/XMCLib/inc\xmc_usic.h ****  *     - Bug fixed in XMC_USIC_CH_SetTransmitBufferStatus API. OR operator removed.
  51:C:/Workspace/DAVE-4.4.2-64Bit/xmc1400-getstarted-optiga-trust-m/Libraries/XMCLib/inc\xmc_usic.h ****  *
  52:C:/Workspace/DAVE-4.4.2-64Bit/xmc1400-getstarted-optiga-trust-m/Libraries/XMCLib/inc\xmc_usic.h ****  * 2015-08-24:
  53:C:/Workspace/DAVE-4.4.2-64Bit/xmc1400-getstarted-optiga-trust-m/Libraries/XMCLib/inc\xmc_usic.h ****  *     - Added APIs for enabling/disabling delay compensation XMC_USIC_CH_DisableDelayCompensation(
  54:C:/Workspace/DAVE-4.4.2-64Bit/xmc1400-getstarted-optiga-trust-m/Libraries/XMCLib/inc\xmc_usic.h ****  *       XMC_USIC_CH_DisableDelayCompensation()
  55:C:/Workspace/DAVE-4.4.2-64Bit/xmc1400-getstarted-optiga-trust-m/Libraries/XMCLib/inc\xmc_usic.h ****  *
  56:C:/Workspace/DAVE-4.4.2-64Bit/xmc1400-getstarted-optiga-trust-m/Libraries/XMCLib/inc\xmc_usic.h ****  * 2015-08-25:
  57:C:/Workspace/DAVE-4.4.2-64Bit/xmc1400-getstarted-optiga-trust-m/Libraries/XMCLib/inc\xmc_usic.h ****  *     - Added APIs for defining if the data shift unit input is derived
  58:C:/Workspace/DAVE-4.4.2-64Bit/xmc1400-getstarted-optiga-trust-m/Libraries/XMCLib/inc\xmc_usic.h ****  *       from the input data path DXn or from the selected protocol pre-processors: XMC_USIC_CH_Con
  59:C:/Workspace/DAVE-4.4.2-64Bit/xmc1400-getstarted-optiga-trust-m/Libraries/XMCLib/inc\xmc_usic.h ****  *       and XMC_USIC_CH_ConnectInputDataShiftToDataInput()
  60:C:/Workspace/DAVE-4.4.2-64Bit/xmc1400-getstarted-optiga-trust-m/Libraries/XMCLib/inc\xmc_usic.h ****  *
  61:C:/Workspace/DAVE-4.4.2-64Bit/xmc1400-getstarted-optiga-trust-m/Libraries/XMCLib/inc\xmc_usic.h ****  * 2015-08-27:
  62:C:/Workspace/DAVE-4.4.2-64Bit/xmc1400-getstarted-optiga-trust-m/Libraries/XMCLib/inc\xmc_usic.h ****  *     - Fixed bug in XMC_USIC_CH_BRG_CLOCK_SOURCE_DX1T value.
  63:C:/Workspace/DAVE-4.4.2-64Bit/xmc1400-getstarted-optiga-trust-m/Libraries/XMCLib/inc\xmc_usic.h ****  *     - Added APIs for direct TBUF access: XMC_USIC_CH_WriteToTBUF() and XMC_USIC_CH_WriteToTBUFTC
  64:C:/Workspace/DAVE-4.4.2-64Bit/xmc1400-getstarted-optiga-trust-m/Libraries/XMCLib/inc\xmc_usic.h ****  *     - Added APIs for external input for BRG configuration:XMC_USIC_CH_ConfigExternalInputSignalT
  65:C:/Workspace/DAVE-4.4.2-64Bit/xmc1400-getstarted-optiga-trust-m/Libraries/XMCLib/inc\xmc_usic.h ****  *
  66:C:/Workspace/DAVE-4.4.2-64Bit/xmc1400-getstarted-optiga-trust-m/Libraries/XMCLib/inc\xmc_usic.h ****  * 2015-08-28:
  67:C:/Workspace/DAVE-4.4.2-64Bit/xmc1400-getstarted-optiga-trust-m/Libraries/XMCLib/inc\xmc_usic.h ****  *     - Added API for enabling the transfer trigger unit to set bit TCSR.TE if the trigger signal 
  68:C:/Workspace/DAVE-4.4.2-64Bit/xmc1400-getstarted-optiga-trust-m/Libraries/XMCLib/inc\xmc_usic.h ****  *       Clear to Send (CTS) signal: XMC_USIC_CH_EnableTBUFDataValidTrigger() and XMC_USIC_CH_Disab
  69:C:/Workspace/DAVE-4.4.2-64Bit/xmc1400-getstarted-optiga-trust-m/Libraries/XMCLib/inc\xmc_usic.h ****  *
  70:C:/Workspace/DAVE-4.4.2-64Bit/xmc1400-getstarted-optiga-trust-m/Libraries/XMCLib/inc\xmc_usic.h ****  * 2016-03-09:
  71:C:/Workspace/DAVE-4.4.2-64Bit/xmc1400-getstarted-optiga-trust-m/Libraries/XMCLib/inc\xmc_usic.h ****  *     - Optimization of write only registers
  72:C:/Workspace/DAVE-4.4.2-64Bit/xmc1400-getstarted-optiga-trust-m/Libraries/XMCLib/inc\xmc_usic.h ****  *
  73:C:/Workspace/DAVE-4.4.2-64Bit/xmc1400-getstarted-optiga-trust-m/Libraries/XMCLib/inc\xmc_usic.h ****  * 2016-04-10:
  74:C:/Workspace/DAVE-4.4.2-64Bit/xmc1400-getstarted-optiga-trust-m/Libraries/XMCLib/inc\xmc_usic.h ****  *     - Added an API to put the data into FIFO when hardware port control is enabled: XMC_USIC_CH_
  75:C:/Workspace/DAVE-4.4.2-64Bit/xmc1400-getstarted-optiga-trust-m/Libraries/XMCLib/inc\xmc_usic.h ****  *
  76:C:/Workspace/DAVE-4.4.2-64Bit/xmc1400-getstarted-optiga-trust-m/Libraries/XMCLib/inc\xmc_usic.h ****  * 2017-02-10:
  77:C:/Workspace/DAVE-4.4.2-64Bit/xmc1400-getstarted-optiga-trust-m/Libraries/XMCLib/inc\xmc_usic.h ****  *     - Added XMC_USIC_CH_SetShiftDirection() to allow selection of shift direction of the data wo
  78:C:/Workspace/DAVE-4.4.2-64Bit/xmc1400-getstarted-optiga-trust-m/Libraries/XMCLib/inc\xmc_usic.h ****  *     - Added XMC_USIC_CH_GetCaptureTimerValue() and XMC_USIC_CH_SetFractionalDivider()
  79:C:/Workspace/DAVE-4.4.2-64Bit/xmc1400-getstarted-optiga-trust-m/Libraries/XMCLib/inc\xmc_usic.h ****  *
  80:C:/Workspace/DAVE-4.4.2-64Bit/xmc1400-getstarted-optiga-trust-m/Libraries/XMCLib/inc\xmc_usic.h ****  * 2017-09-08:
  81:C:/Workspace/DAVE-4.4.2-64Bit/xmc1400-getstarted-optiga-trust-m/Libraries/XMCLib/inc\xmc_usic.h ****  *     - Fixed value of macro XMC_USIC_CH_SHIFT_DIRECTION_MSB_FIRST used in XMC_USIC_CH_SetShiftDir
  82:C:/Workspace/DAVE-4.4.2-64Bit/xmc1400-getstarted-optiga-trust-m/Libraries/XMCLib/inc\xmc_usic.h ****  *
  83:C:/Workspace/DAVE-4.4.2-64Bit/xmc1400-getstarted-optiga-trust-m/Libraries/XMCLib/inc\xmc_usic.h ****  * 2018-09-29:
  84:C:/Workspace/DAVE-4.4.2-64Bit/xmc1400-getstarted-optiga-trust-m/Libraries/XMCLib/inc\xmc_usic.h ****  *     - Added XMC_USIC_CH_SetBaudrateEx which uses the integer divider instead of the fractional d
  85:C:/Workspace/DAVE-4.4.2-64Bit/xmc1400-getstarted-optiga-trust-m/Libraries/XMCLib/inc\xmc_usic.h ****  * 
  86:C:/Workspace/DAVE-4.4.2-64Bit/xmc1400-getstarted-optiga-trust-m/Libraries/XMCLib/inc\xmc_usic.h ****  * 2019-05-07:
  87:C:/Workspace/DAVE-4.4.2-64Bit/xmc1400-getstarted-optiga-trust-m/Libraries/XMCLib/inc\xmc_usic.h ****  *     - Added XMC_USIC_CH_GetBaudrate(), XMC_USIC_CH_GetSCLKFrequency() and XMC_USIC_CH_GetMCLKFre
  88:C:/Workspace/DAVE-4.4.2-64Bit/xmc1400-getstarted-optiga-trust-m/Libraries/XMCLib/inc\xmc_usic.h ****  *
  89:C:/Workspace/DAVE-4.4.2-64Bit/xmc1400-getstarted-optiga-trust-m/Libraries/XMCLib/inc\xmc_usic.h ****  * 2019-07-01:
  90:C:/Workspace/DAVE-4.4.2-64Bit/xmc1400-getstarted-optiga-trust-m/Libraries/XMCLib/inc\xmc_usic.h ****  *     - Changed XMC_USIC_CH_SetBaudrateEx() input parameter types
  91:C:/Workspace/DAVE-4.4.2-64Bit/xmc1400-getstarted-optiga-trust-m/Libraries/XMCLib/inc\xmc_usic.h ****  *
  92:C:/Workspace/DAVE-4.4.2-64Bit/xmc1400-getstarted-optiga-trust-m/Libraries/XMCLib/inc\xmc_usic.h ****  * @endcond
  93:C:/Workspace/DAVE-4.4.2-64Bit/xmc1400-getstarted-optiga-trust-m/Libraries/XMCLib/inc\xmc_usic.h ****  *
  94:C:/Workspace/DAVE-4.4.2-64Bit/xmc1400-getstarted-optiga-trust-m/Libraries/XMCLib/inc\xmc_usic.h ****  */
  95:C:/Workspace/DAVE-4.4.2-64Bit/xmc1400-getstarted-optiga-trust-m/Libraries/XMCLib/inc\xmc_usic.h **** 
  96:C:/Workspace/DAVE-4.4.2-64Bit/xmc1400-getstarted-optiga-trust-m/Libraries/XMCLib/inc\xmc_usic.h **** #ifndef XMC_USIC_H
  97:C:/Workspace/DAVE-4.4.2-64Bit/xmc1400-getstarted-optiga-trust-m/Libraries/XMCLib/inc\xmc_usic.h **** #define XMC_USIC_H
  98:C:/Workspace/DAVE-4.4.2-64Bit/xmc1400-getstarted-optiga-trust-m/Libraries/XMCLib/inc\xmc_usic.h **** /*******************************************************************************
  99:C:/Workspace/DAVE-4.4.2-64Bit/xmc1400-getstarted-optiga-trust-m/Libraries/XMCLib/inc\xmc_usic.h ****  * HEADER FILES
 100:C:/Workspace/DAVE-4.4.2-64Bit/xmc1400-getstarted-optiga-trust-m/Libraries/XMCLib/inc\xmc_usic.h ****  *******************************************************************************/
 101:C:/Workspace/DAVE-4.4.2-64Bit/xmc1400-getstarted-optiga-trust-m/Libraries/XMCLib/inc\xmc_usic.h **** 
 102:C:/Workspace/DAVE-4.4.2-64Bit/xmc1400-getstarted-optiga-trust-m/Libraries/XMCLib/inc\xmc_usic.h **** #include "xmc_common.h"
 103:C:/Workspace/DAVE-4.4.2-64Bit/xmc1400-getstarted-optiga-trust-m/Libraries/XMCLib/inc\xmc_usic.h **** 
 104:C:/Workspace/DAVE-4.4.2-64Bit/xmc1400-getstarted-optiga-trust-m/Libraries/XMCLib/inc\xmc_usic.h **** /**
 105:C:/Workspace/DAVE-4.4.2-64Bit/xmc1400-getstarted-optiga-trust-m/Libraries/XMCLib/inc\xmc_usic.h ****  * @addtogroup XMClib XMC Peripheral Library
 106:C:/Workspace/DAVE-4.4.2-64Bit/xmc1400-getstarted-optiga-trust-m/Libraries/XMCLib/inc\xmc_usic.h ****  * @{
 107:C:/Workspace/DAVE-4.4.2-64Bit/xmc1400-getstarted-optiga-trust-m/Libraries/XMCLib/inc\xmc_usic.h ****  */
 108:C:/Workspace/DAVE-4.4.2-64Bit/xmc1400-getstarted-optiga-trust-m/Libraries/XMCLib/inc\xmc_usic.h **** 
 109:C:/Workspace/DAVE-4.4.2-64Bit/xmc1400-getstarted-optiga-trust-m/Libraries/XMCLib/inc\xmc_usic.h **** /**
 110:C:/Workspace/DAVE-4.4.2-64Bit/xmc1400-getstarted-optiga-trust-m/Libraries/XMCLib/inc\xmc_usic.h ****  * @addtogroup USIC
 111:C:/Workspace/DAVE-4.4.2-64Bit/xmc1400-getstarted-optiga-trust-m/Libraries/XMCLib/inc\xmc_usic.h ****  * @brief Universal Serial Interface Channel(USIC) driver for serial communication.
 112:C:/Workspace/DAVE-4.4.2-64Bit/xmc1400-getstarted-optiga-trust-m/Libraries/XMCLib/inc\xmc_usic.h ****  *
 113:C:/Workspace/DAVE-4.4.2-64Bit/xmc1400-getstarted-optiga-trust-m/Libraries/XMCLib/inc\xmc_usic.h ****  * The Universal Serial Interface Channel(USIC) module is a flexible interface module
 114:C:/Workspace/DAVE-4.4.2-64Bit/xmc1400-getstarted-optiga-trust-m/Libraries/XMCLib/inc\xmc_usic.h ****  * covering several serial communication protocols. A USIC module contains two
 115:C:/Workspace/DAVE-4.4.2-64Bit/xmc1400-getstarted-optiga-trust-m/Libraries/XMCLib/inc\xmc_usic.h ****  * independent communication channels named USICx_CH0 and USICx_CH1, with x
 116:C:/Workspace/DAVE-4.4.2-64Bit/xmc1400-getstarted-optiga-trust-m/Libraries/XMCLib/inc\xmc_usic.h ****  * being the number of the USIC module. The user can program, during run-time, which protocol will 
 117:C:/Workspace/DAVE-4.4.2-64Bit/xmc1400-getstarted-optiga-trust-m/Libraries/XMCLib/inc\xmc_usic.h ****  * by each communication channel and which pins are used.
 118:C:/Workspace/DAVE-4.4.2-64Bit/xmc1400-getstarted-optiga-trust-m/Libraries/XMCLib/inc\xmc_usic.h ****  * The driver provides APIs, configuration structures and enumerations to configure common features
 119:C:/Workspace/DAVE-4.4.2-64Bit/xmc1400-getstarted-optiga-trust-m/Libraries/XMCLib/inc\xmc_usic.h ****  * communication protocols.
 120:C:/Workspace/DAVE-4.4.2-64Bit/xmc1400-getstarted-optiga-trust-m/Libraries/XMCLib/inc\xmc_usic.h ****  * 
 121:C:/Workspace/DAVE-4.4.2-64Bit/xmc1400-getstarted-optiga-trust-m/Libraries/XMCLib/inc\xmc_usic.h ****  * USIC driver features:
 122:C:/Workspace/DAVE-4.4.2-64Bit/xmc1400-getstarted-optiga-trust-m/Libraries/XMCLib/inc\xmc_usic.h ****  * -# Allows configuration of FIFO for transmit and receive functions.
 123:C:/Workspace/DAVE-4.4.2-64Bit/xmc1400-getstarted-optiga-trust-m/Libraries/XMCLib/inc\xmc_usic.h ****  * -# Provides a structure type XMC_USIC_CH_t to represent the USIC channel registers in a programm
 124:C:/Workspace/DAVE-4.4.2-64Bit/xmc1400-getstarted-optiga-trust-m/Libraries/XMCLib/inc\xmc_usic.h ****  friendly format.
 125:C:/Workspace/DAVE-4.4.2-64Bit/xmc1400-getstarted-optiga-trust-m/Libraries/XMCLib/inc\xmc_usic.h ****  * -# Allows configuration of automatic update for frame length, word length, slave select or slave
 126:C:/Workspace/DAVE-4.4.2-64Bit/xmc1400-getstarted-optiga-trust-m/Libraries/XMCLib/inc\xmc_usic.h ****  * -# Allows transmission of data to FIFO using XMC_USIC_CH_TXFIFO_PutData() and XMC_USIC_CH_TXFIFO
 127:C:/Workspace/DAVE-4.4.2-64Bit/xmc1400-getstarted-optiga-trust-m/Libraries/XMCLib/inc\xmc_usic.h ****  * -# Allows reading of received data in FIFO using XMC_USIC_CH_RXFIFO_GetData()
 128:C:/Workspace/DAVE-4.4.2-64Bit/xmc1400-getstarted-optiga-trust-m/Libraries/XMCLib/inc\xmc_usic.h ****  * -# Allows configuration of baudrate using XMC_USIC_CH_SetBaudrate()
 129:C:/Workspace/DAVE-4.4.2-64Bit/xmc1400-getstarted-optiga-trust-m/Libraries/XMCLib/inc\xmc_usic.h ****  * -# Provides API to trigger interrupts using XMC_USIC_CH_TriggerServiceRequest()
 130:C:/Workspace/DAVE-4.4.2-64Bit/xmc1400-getstarted-optiga-trust-m/Libraries/XMCLib/inc\xmc_usic.h ****  * @{
 131:C:/Workspace/DAVE-4.4.2-64Bit/xmc1400-getstarted-optiga-trust-m/Libraries/XMCLib/inc\xmc_usic.h ****  */
 132:C:/Workspace/DAVE-4.4.2-64Bit/xmc1400-getstarted-optiga-trust-m/Libraries/XMCLib/inc\xmc_usic.h **** 
 133:C:/Workspace/DAVE-4.4.2-64Bit/xmc1400-getstarted-optiga-trust-m/Libraries/XMCLib/inc\xmc_usic.h **** /*******************************************************************************
 134:C:/Workspace/DAVE-4.4.2-64Bit/xmc1400-getstarted-optiga-trust-m/Libraries/XMCLib/inc\xmc_usic.h ****  * MACROS
 135:C:/Workspace/DAVE-4.4.2-64Bit/xmc1400-getstarted-optiga-trust-m/Libraries/XMCLib/inc\xmc_usic.h ****  *******************************************************************************/
 136:C:/Workspace/DAVE-4.4.2-64Bit/xmc1400-getstarted-optiga-trust-m/Libraries/XMCLib/inc\xmc_usic.h **** 
 137:C:/Workspace/DAVE-4.4.2-64Bit/xmc1400-getstarted-optiga-trust-m/Libraries/XMCLib/inc\xmc_usic.h **** #define XMC_USIC0 ((XMC_USIC_t *)USIC0_BASE)			/**< USIC0 module base address */
 138:C:/Workspace/DAVE-4.4.2-64Bit/xmc1400-getstarted-optiga-trust-m/Libraries/XMCLib/inc\xmc_usic.h **** #define XMC_USIC0_CH0 ((XMC_USIC_CH_t *)USIC0_CH0_BASE)	/**< USIC0 channel 0 base address */
 139:C:/Workspace/DAVE-4.4.2-64Bit/xmc1400-getstarted-optiga-trust-m/Libraries/XMCLib/inc\xmc_usic.h **** #define XMC_USIC0_CH1 ((XMC_USIC_CH_t *)USIC0_CH1_BASE)	/**< USIC0 channel 1 base address */
 140:C:/Workspace/DAVE-4.4.2-64Bit/xmc1400-getstarted-optiga-trust-m/Libraries/XMCLib/inc\xmc_usic.h **** 
 141:C:/Workspace/DAVE-4.4.2-64Bit/xmc1400-getstarted-optiga-trust-m/Libraries/XMCLib/inc\xmc_usic.h **** #if defined(USIC1)
 142:C:/Workspace/DAVE-4.4.2-64Bit/xmc1400-getstarted-optiga-trust-m/Libraries/XMCLib/inc\xmc_usic.h **** #define XMC_USIC1 ((XMC_USIC_t *)USIC1_BASE)			/**< USIC1 module base address */
 143:C:/Workspace/DAVE-4.4.2-64Bit/xmc1400-getstarted-optiga-trust-m/Libraries/XMCLib/inc\xmc_usic.h **** #define XMC_USIC1_CH0 ((XMC_USIC_CH_t *)USIC1_CH0_BASE)	/**< USIC1 channel 0 base address */
 144:C:/Workspace/DAVE-4.4.2-64Bit/xmc1400-getstarted-optiga-trust-m/Libraries/XMCLib/inc\xmc_usic.h **** #define XMC_USIC1_CH1 ((XMC_USIC_CH_t *)USIC1_CH1_BASE)	/**< USIC1 channel 1 base address */
 145:C:/Workspace/DAVE-4.4.2-64Bit/xmc1400-getstarted-optiga-trust-m/Libraries/XMCLib/inc\xmc_usic.h **** #endif
 146:C:/Workspace/DAVE-4.4.2-64Bit/xmc1400-getstarted-optiga-trust-m/Libraries/XMCLib/inc\xmc_usic.h **** 
 147:C:/Workspace/DAVE-4.4.2-64Bit/xmc1400-getstarted-optiga-trust-m/Libraries/XMCLib/inc\xmc_usic.h **** #if defined(USIC2)
 148:C:/Workspace/DAVE-4.4.2-64Bit/xmc1400-getstarted-optiga-trust-m/Libraries/XMCLib/inc\xmc_usic.h **** #define XMC_USIC2 ((XMC_USIC_t *)USIC2_BASE)			/**< USIC2 module base address */
 149:C:/Workspace/DAVE-4.4.2-64Bit/xmc1400-getstarted-optiga-trust-m/Libraries/XMCLib/inc\xmc_usic.h **** #define XMC_USIC2_CH0 ((XMC_USIC_CH_t *)USIC2_CH0_BASE)	/**< USIC2 channel 0 base address */
 150:C:/Workspace/DAVE-4.4.2-64Bit/xmc1400-getstarted-optiga-trust-m/Libraries/XMCLib/inc\xmc_usic.h **** #define XMC_USIC2_CH1 ((XMC_USIC_CH_t *)USIC2_CH1_BASE)	/**< USIC2 channel 1 base address */
 151:C:/Workspace/DAVE-4.4.2-64Bit/xmc1400-getstarted-optiga-trust-m/Libraries/XMCLib/inc\xmc_usic.h **** #endif
 152:C:/Workspace/DAVE-4.4.2-64Bit/xmc1400-getstarted-optiga-trust-m/Libraries/XMCLib/inc\xmc_usic.h **** 
 153:C:/Workspace/DAVE-4.4.2-64Bit/xmc1400-getstarted-optiga-trust-m/Libraries/XMCLib/inc\xmc_usic.h **** #define USIC_CH_DXCR_DSEL_Msk  USIC_CH_DX0CR_DSEL_Msk   /**< Common mask for DSEL bitfield mask in 
 154:C:/Workspace/DAVE-4.4.2-64Bit/xmc1400-getstarted-optiga-trust-m/Libraries/XMCLib/inc\xmc_usic.h **** #define USIC_CH_DXCR_DSEL_Pos  USIC_CH_DX0CR_DSEL_Pos   /**< Common mask for DSEL bitfield position
 155:C:/Workspace/DAVE-4.4.2-64Bit/xmc1400-getstarted-optiga-trust-m/Libraries/XMCLib/inc\xmc_usic.h **** #define USIC_CH_DXCR_SFSEL_Pos USIC_CH_DX0CR_SFSEL_Pos  /**< Common mask for SFSEL bitfield positio
 156:C:/Workspace/DAVE-4.4.2-64Bit/xmc1400-getstarted-optiga-trust-m/Libraries/XMCLib/inc\xmc_usic.h **** #define USIC_CH_DXCR_SFSEL_Msk USIC_CH_DX0CR_SFSEL_Msk  /**< Common mask for SFSEL bitfield mask in
 157:C:/Workspace/DAVE-4.4.2-64Bit/xmc1400-getstarted-optiga-trust-m/Libraries/XMCLib/inc\xmc_usic.h **** #define USIC_CH_DXCR_DPOL_Msk  USIC_CH_DX0CR_DPOL_Msk   /**< Common mask for DPOL bitfield mask in 
 158:C:/Workspace/DAVE-4.4.2-64Bit/xmc1400-getstarted-optiga-trust-m/Libraries/XMCLib/inc\xmc_usic.h **** #define USIC_CH_DXCR_DFEN_Msk  USIC_CH_DX0CR_DFEN_Msk   /**< Common mask for DFEN bitfield mask in 
 159:C:/Workspace/DAVE-4.4.2-64Bit/xmc1400-getstarted-optiga-trust-m/Libraries/XMCLib/inc\xmc_usic.h **** #define USIC_CH_DXCR_DSEN_Msk  USIC_CH_DX0CR_DSEN_Msk   /**< Common mask for DSEN bitfield mask in 
 160:C:/Workspace/DAVE-4.4.2-64Bit/xmc1400-getstarted-optiga-trust-m/Libraries/XMCLib/inc\xmc_usic.h **** #define USIC_CH_DXCR_CM_Pos    USIC_CH_DX0CR_CM_Pos     /**< Common mask for CM bitfield position i
 161:C:/Workspace/DAVE-4.4.2-64Bit/xmc1400-getstarted-optiga-trust-m/Libraries/XMCLib/inc\xmc_usic.h **** #define USIC_CH_DXCR_CM_Msk    USIC_CH_DX0CR_CM_Msk     /**< Common mask for CM bitfield mask in DX
 162:C:/Workspace/DAVE-4.4.2-64Bit/xmc1400-getstarted-optiga-trust-m/Libraries/XMCLib/inc\xmc_usic.h **** #define USIC_CH_DXCR_INSW_Msk  USIC_CH_DX0CR_INSW_Msk   /**< Common mask for INSW bitfield mask in 
 163:C:/Workspace/DAVE-4.4.2-64Bit/xmc1400-getstarted-optiga-trust-m/Libraries/XMCLib/inc\xmc_usic.h **** #define USIC_CH_DXCR_INSW_pos  USIC_CH_DX0CR_INSW_Pos   /**< Common mask for INSW bitfield position
 164:C:/Workspace/DAVE-4.4.2-64Bit/xmc1400-getstarted-optiga-trust-m/Libraries/XMCLib/inc\xmc_usic.h **** 
 165:C:/Workspace/DAVE-4.4.2-64Bit/xmc1400-getstarted-optiga-trust-m/Libraries/XMCLib/inc\xmc_usic.h **** #if UC_FAMILY == XMC1
 166:C:/Workspace/DAVE-4.4.2-64Bit/xmc1400-getstarted-optiga-trust-m/Libraries/XMCLib/inc\xmc_usic.h ****  #include "xmc1_usic_map.h"
 167:C:/Workspace/DAVE-4.4.2-64Bit/xmc1400-getstarted-optiga-trust-m/Libraries/XMCLib/inc\xmc_usic.h **** #endif
 168:C:/Workspace/DAVE-4.4.2-64Bit/xmc1400-getstarted-optiga-trust-m/Libraries/XMCLib/inc\xmc_usic.h **** 
 169:C:/Workspace/DAVE-4.4.2-64Bit/xmc1400-getstarted-optiga-trust-m/Libraries/XMCLib/inc\xmc_usic.h **** #if UC_FAMILY == XMC4
 170:C:/Workspace/DAVE-4.4.2-64Bit/xmc1400-getstarted-optiga-trust-m/Libraries/XMCLib/inc\xmc_usic.h ****  #include "xmc4_usic_map.h"
 171:C:/Workspace/DAVE-4.4.2-64Bit/xmc1400-getstarted-optiga-trust-m/Libraries/XMCLib/inc\xmc_usic.h **** #endif
 172:C:/Workspace/DAVE-4.4.2-64Bit/xmc1400-getstarted-optiga-trust-m/Libraries/XMCLib/inc\xmc_usic.h **** 
 173:C:/Workspace/DAVE-4.4.2-64Bit/xmc1400-getstarted-optiga-trust-m/Libraries/XMCLib/inc\xmc_usic.h **** /*******************************************************************************
 174:C:/Workspace/DAVE-4.4.2-64Bit/xmc1400-getstarted-optiga-trust-m/Libraries/XMCLib/inc\xmc_usic.h ****  * ENUMS
 175:C:/Workspace/DAVE-4.4.2-64Bit/xmc1400-getstarted-optiga-trust-m/Libraries/XMCLib/inc\xmc_usic.h ****  *******************************************************************************/
 176:C:/Workspace/DAVE-4.4.2-64Bit/xmc1400-getstarted-optiga-trust-m/Libraries/XMCLib/inc\xmc_usic.h **** 
 177:C:/Workspace/DAVE-4.4.2-64Bit/xmc1400-getstarted-optiga-trust-m/Libraries/XMCLib/inc\xmc_usic.h **** /**
 178:C:/Workspace/DAVE-4.4.2-64Bit/xmc1400-getstarted-optiga-trust-m/Libraries/XMCLib/inc\xmc_usic.h ****  * USIC channel driver status
 179:C:/Workspace/DAVE-4.4.2-64Bit/xmc1400-getstarted-optiga-trust-m/Libraries/XMCLib/inc\xmc_usic.h ****  */
 180:C:/Workspace/DAVE-4.4.2-64Bit/xmc1400-getstarted-optiga-trust-m/Libraries/XMCLib/inc\xmc_usic.h **** typedef enum XMC_USIC_CH_STATUS
 181:C:/Workspace/DAVE-4.4.2-64Bit/xmc1400-getstarted-optiga-trust-m/Libraries/XMCLib/inc\xmc_usic.h **** {
 182:C:/Workspace/DAVE-4.4.2-64Bit/xmc1400-getstarted-optiga-trust-m/Libraries/XMCLib/inc\xmc_usic.h ****   XMC_USIC_CH_STATUS_OK,    /**< USIC driver status : OK */
 183:C:/Workspace/DAVE-4.4.2-64Bit/xmc1400-getstarted-optiga-trust-m/Libraries/XMCLib/inc\xmc_usic.h ****   XMC_USIC_CH_STATUS_ERROR, /**< USIC driver status : ERROR */
 184:C:/Workspace/DAVE-4.4.2-64Bit/xmc1400-getstarted-optiga-trust-m/Libraries/XMCLib/inc\xmc_usic.h ****   XMC_USIC_CH_STATUS_BUSY   /**< USIC driver status : BUSY */
 185:C:/Workspace/DAVE-4.4.2-64Bit/xmc1400-getstarted-optiga-trust-m/Libraries/XMCLib/inc\xmc_usic.h **** } XMC_USIC_CH_STATUS_t;
 186:C:/Workspace/DAVE-4.4.2-64Bit/xmc1400-getstarted-optiga-trust-m/Libraries/XMCLib/inc\xmc_usic.h **** 
 187:C:/Workspace/DAVE-4.4.2-64Bit/xmc1400-getstarted-optiga-trust-m/Libraries/XMCLib/inc\xmc_usic.h **** /**
 188:C:/Workspace/DAVE-4.4.2-64Bit/xmc1400-getstarted-optiga-trust-m/Libraries/XMCLib/inc\xmc_usic.h **** * USIC channel kernel mode
 189:C:/Workspace/DAVE-4.4.2-64Bit/xmc1400-getstarted-optiga-trust-m/Libraries/XMCLib/inc\xmc_usic.h **** */
 190:C:/Workspace/DAVE-4.4.2-64Bit/xmc1400-getstarted-optiga-trust-m/Libraries/XMCLib/inc\xmc_usic.h **** typedef enum XMC_USIC_CH_KERNEL_MODE
 191:C:/Workspace/DAVE-4.4.2-64Bit/xmc1400-getstarted-optiga-trust-m/Libraries/XMCLib/inc\xmc_usic.h **** {
 192:C:/Workspace/DAVE-4.4.2-64Bit/xmc1400-getstarted-optiga-trust-m/Libraries/XMCLib/inc\xmc_usic.h ****   XMC_USIC_CH_KERNEL_MODE_RUN_0  = 0x0UL,  /**< Run mode 0 (transmission and reception possible)*/
 193:C:/Workspace/DAVE-4.4.2-64Bit/xmc1400-getstarted-optiga-trust-m/Libraries/XMCLib/inc\xmc_usic.h ****   XMC_USIC_CH_KERNEL_MODE_RUN_1  = 0x1UL << USIC_CH_KSCFG_NOMCFG_Pos,  /**< Run mode 1 (transmissio
 194:C:/Workspace/DAVE-4.4.2-64Bit/xmc1400-getstarted-optiga-trust-m/Libraries/XMCLib/inc\xmc_usic.h ****   XMC_USIC_CH_KERNEL_MODE_STOP_0 = 0x2UL << USIC_CH_KSCFG_NOMCFG_Pos,  /**< Stop mode 0 (no transmi
 195:C:/Workspace/DAVE-4.4.2-64Bit/xmc1400-getstarted-optiga-trust-m/Libraries/XMCLib/inc\xmc_usic.h ****   XMC_USIC_CH_KERNEL_MODE_STOP_1 = 0x3UL << USIC_CH_KSCFG_NOMCFG_Pos   /**< Stop mode 1 (both trans
 196:C:/Workspace/DAVE-4.4.2-64Bit/xmc1400-getstarted-optiga-trust-m/Libraries/XMCLib/inc\xmc_usic.h **** } XMC_USIC_CH_KERNEL_MODE_t;
 197:C:/Workspace/DAVE-4.4.2-64Bit/xmc1400-getstarted-optiga-trust-m/Libraries/XMCLib/inc\xmc_usic.h **** 
 198:C:/Workspace/DAVE-4.4.2-64Bit/xmc1400-getstarted-optiga-trust-m/Libraries/XMCLib/inc\xmc_usic.h **** /**
 199:C:/Workspace/DAVE-4.4.2-64Bit/xmc1400-getstarted-optiga-trust-m/Libraries/XMCLib/inc\xmc_usic.h ****  * USIC channel operating mode
 200:C:/Workspace/DAVE-4.4.2-64Bit/xmc1400-getstarted-optiga-trust-m/Libraries/XMCLib/inc\xmc_usic.h ****  */
 201:C:/Workspace/DAVE-4.4.2-64Bit/xmc1400-getstarted-optiga-trust-m/Libraries/XMCLib/inc\xmc_usic.h **** typedef enum XMC_USIC_CH_OPERATING_MODE
 202:C:/Workspace/DAVE-4.4.2-64Bit/xmc1400-getstarted-optiga-trust-m/Libraries/XMCLib/inc\xmc_usic.h **** {
 203:C:/Workspace/DAVE-4.4.2-64Bit/xmc1400-getstarted-optiga-trust-m/Libraries/XMCLib/inc\xmc_usic.h ****   XMC_USIC_CH_OPERATING_MODE_IDLE = 0x0UL, /**< USIC channel idle */
 204:C:/Workspace/DAVE-4.4.2-64Bit/xmc1400-getstarted-optiga-trust-m/Libraries/XMCLib/inc\xmc_usic.h ****   XMC_USIC_CH_OPERATING_MODE_SPI  = 0x1UL << USIC_CH_CCR_MODE_Pos, /**< SPI mode */
 205:C:/Workspace/DAVE-4.4.2-64Bit/xmc1400-getstarted-optiga-trust-m/Libraries/XMCLib/inc\xmc_usic.h ****   XMC_USIC_CH_OPERATING_MODE_UART = 0x2UL << USIC_CH_CCR_MODE_Pos, /**< UART mode */
 206:C:/Workspace/DAVE-4.4.2-64Bit/xmc1400-getstarted-optiga-trust-m/Libraries/XMCLib/inc\xmc_usic.h ****   XMC_USIC_CH_OPERATING_MODE_I2S  = 0x3UL << USIC_CH_CCR_MODE_Pos, /**< I2S mode */
 207:C:/Workspace/DAVE-4.4.2-64Bit/xmc1400-getstarted-optiga-trust-m/Libraries/XMCLib/inc\xmc_usic.h ****   XMC_USIC_CH_OPERATING_MODE_I2C  = 0x4UL << USIC_CH_CCR_MODE_Pos  /**< I2C mode */
 208:C:/Workspace/DAVE-4.4.2-64Bit/xmc1400-getstarted-optiga-trust-m/Libraries/XMCLib/inc\xmc_usic.h **** } XMC_USIC_CH_OPERATING_MODE_t;
 209:C:/Workspace/DAVE-4.4.2-64Bit/xmc1400-getstarted-optiga-trust-m/Libraries/XMCLib/inc\xmc_usic.h **** 
 210:C:/Workspace/DAVE-4.4.2-64Bit/xmc1400-getstarted-optiga-trust-m/Libraries/XMCLib/inc\xmc_usic.h **** /**
 211:C:/Workspace/DAVE-4.4.2-64Bit/xmc1400-getstarted-optiga-trust-m/Libraries/XMCLib/inc\xmc_usic.h ****  * USIC channel inputs
 212:C:/Workspace/DAVE-4.4.2-64Bit/xmc1400-getstarted-optiga-trust-m/Libraries/XMCLib/inc\xmc_usic.h ****  */
 213:C:/Workspace/DAVE-4.4.2-64Bit/xmc1400-getstarted-optiga-trust-m/Libraries/XMCLib/inc\xmc_usic.h **** typedef enum XMC_USIC_CH_INPUT
 214:C:/Workspace/DAVE-4.4.2-64Bit/xmc1400-getstarted-optiga-trust-m/Libraries/XMCLib/inc\xmc_usic.h **** {
 215:C:/Workspace/DAVE-4.4.2-64Bit/xmc1400-getstarted-optiga-trust-m/Libraries/XMCLib/inc\xmc_usic.h ****   XMC_USIC_CH_INPUT_DX0, /**< DX0 input */
 216:C:/Workspace/DAVE-4.4.2-64Bit/xmc1400-getstarted-optiga-trust-m/Libraries/XMCLib/inc\xmc_usic.h ****   XMC_USIC_CH_INPUT_DX1, /**< DX1 input */
 217:C:/Workspace/DAVE-4.4.2-64Bit/xmc1400-getstarted-optiga-trust-m/Libraries/XMCLib/inc\xmc_usic.h ****   XMC_USIC_CH_INPUT_DX2, /**< DX2 input */
 218:C:/Workspace/DAVE-4.4.2-64Bit/xmc1400-getstarted-optiga-trust-m/Libraries/XMCLib/inc\xmc_usic.h ****   XMC_USIC_CH_INPUT_DX3, /**< DX3 input */
 219:C:/Workspace/DAVE-4.4.2-64Bit/xmc1400-getstarted-optiga-trust-m/Libraries/XMCLib/inc\xmc_usic.h ****   XMC_USIC_CH_INPUT_DX4, /**< DX4 input */
 220:C:/Workspace/DAVE-4.4.2-64Bit/xmc1400-getstarted-optiga-trust-m/Libraries/XMCLib/inc\xmc_usic.h ****   XMC_USIC_CH_INPUT_DX5  /**< DX5 input */
 221:C:/Workspace/DAVE-4.4.2-64Bit/xmc1400-getstarted-optiga-trust-m/Libraries/XMCLib/inc\xmc_usic.h **** } XMC_USIC_CH_INPUT_t;
 222:C:/Workspace/DAVE-4.4.2-64Bit/xmc1400-getstarted-optiga-trust-m/Libraries/XMCLib/inc\xmc_usic.h **** 
 223:C:/Workspace/DAVE-4.4.2-64Bit/xmc1400-getstarted-optiga-trust-m/Libraries/XMCLib/inc\xmc_usic.h **** /**
 224:C:/Workspace/DAVE-4.4.2-64Bit/xmc1400-getstarted-optiga-trust-m/Libraries/XMCLib/inc\xmc_usic.h ****  * USIC channel input source sampling frequency
 225:C:/Workspace/DAVE-4.4.2-64Bit/xmc1400-getstarted-optiga-trust-m/Libraries/XMCLib/inc\xmc_usic.h ****  */
 226:C:/Workspace/DAVE-4.4.2-64Bit/xmc1400-getstarted-optiga-trust-m/Libraries/XMCLib/inc\xmc_usic.h **** typedef enum XMC_USIC_CH_INPUT_SAMPLING_FREQ
 227:C:/Workspace/DAVE-4.4.2-64Bit/xmc1400-getstarted-optiga-trust-m/Libraries/XMCLib/inc\xmc_usic.h **** {
 228:C:/Workspace/DAVE-4.4.2-64Bit/xmc1400-getstarted-optiga-trust-m/Libraries/XMCLib/inc\xmc_usic.h ****   XMC_USIC_CH_INPUT_SAMPLING_FREQ_FPERIPH            = 0x0UL, /**< Use fperiph frequency for input 
 229:C:/Workspace/DAVE-4.4.2-64Bit/xmc1400-getstarted-optiga-trust-m/Libraries/XMCLib/inc\xmc_usic.h ****   XMC_USIC_CH_INPUT_SAMPLING_FREQ_FRACTIONAL_DIVIDER = 0x1UL << USIC_CH_DXCR_SFSEL_Pos  /**< Use fF
 230:C:/Workspace/DAVE-4.4.2-64Bit/xmc1400-getstarted-optiga-trust-m/Libraries/XMCLib/inc\xmc_usic.h **** } XMC_USIC_CH_INPUT_SAMPLING_FREQ_t;
 231:C:/Workspace/DAVE-4.4.2-64Bit/xmc1400-getstarted-optiga-trust-m/Libraries/XMCLib/inc\xmc_usic.h **** 
 232:C:/Workspace/DAVE-4.4.2-64Bit/xmc1400-getstarted-optiga-trust-m/Libraries/XMCLib/inc\xmc_usic.h **** /**
 233:C:/Workspace/DAVE-4.4.2-64Bit/xmc1400-getstarted-optiga-trust-m/Libraries/XMCLib/inc\xmc_usic.h ****  * USIC channel input combination mode
 234:C:/Workspace/DAVE-4.4.2-64Bit/xmc1400-getstarted-optiga-trust-m/Libraries/XMCLib/inc\xmc_usic.h ****  */
 235:C:/Workspace/DAVE-4.4.2-64Bit/xmc1400-getstarted-optiga-trust-m/Libraries/XMCLib/inc\xmc_usic.h **** typedef enum XMC_USIC_CH_INPUT_COMBINATION_MODE
 236:C:/Workspace/DAVE-4.4.2-64Bit/xmc1400-getstarted-optiga-trust-m/Libraries/XMCLib/inc\xmc_usic.h **** {
 237:C:/Workspace/DAVE-4.4.2-64Bit/xmc1400-getstarted-optiga-trust-m/Libraries/XMCLib/inc\xmc_usic.h ****   XMC_USIC_CH_INPUT_COMBINATION_MODE_TRIGGER_DISABLED = 0x0UL, /**< The trigger activation is disab
 238:C:/Workspace/DAVE-4.4.2-64Bit/xmc1400-getstarted-optiga-trust-m/Libraries/XMCLib/inc\xmc_usic.h ****   XMC_USIC_CH_INPUT_COMBINATION_MODE_RISING_EDGE      = 0x1UL, /**< A rising edge activates DXnT*/
 239:C:/Workspace/DAVE-4.4.2-64Bit/xmc1400-getstarted-optiga-trust-m/Libraries/XMCLib/inc\xmc_usic.h ****   XMC_USIC_CH_INPUT_COMBINATION_MODE_FALLING_EDGE     = 0x2UL, /**< A falling edge activates DXnT*/
 240:C:/Workspace/DAVE-4.4.2-64Bit/xmc1400-getstarted-optiga-trust-m/Libraries/XMCLib/inc\xmc_usic.h ****   XMC_USIC_CH_INPUT_COMBINATION_MODE_BOTH_EDGES       = 0x3UL, /**< Both edges activate DXnT*/
 241:C:/Workspace/DAVE-4.4.2-64Bit/xmc1400-getstarted-optiga-trust-m/Libraries/XMCLib/inc\xmc_usic.h **** } XMC_USIC_CH_INPUT_COMBINATION_MODE_t;
 242:C:/Workspace/DAVE-4.4.2-64Bit/xmc1400-getstarted-optiga-trust-m/Libraries/XMCLib/inc\xmc_usic.h **** 
 243:C:/Workspace/DAVE-4.4.2-64Bit/xmc1400-getstarted-optiga-trust-m/Libraries/XMCLib/inc\xmc_usic.h **** /**
 244:C:/Workspace/DAVE-4.4.2-64Bit/xmc1400-getstarted-optiga-trust-m/Libraries/XMCLib/inc\xmc_usic.h ****  * USIC channel data transmission start modes.
 245:C:/Workspace/DAVE-4.4.2-64Bit/xmc1400-getstarted-optiga-trust-m/Libraries/XMCLib/inc\xmc_usic.h ****  * Data shifted out of the transmit pin depends on the value configured for the
 246:C:/Workspace/DAVE-4.4.2-64Bit/xmc1400-getstarted-optiga-trust-m/Libraries/XMCLib/inc\xmc_usic.h ****  * TDEN bitfield of the TCSR register. Following enum values are used for configuring
 247:C:/Workspace/DAVE-4.4.2-64Bit/xmc1400-getstarted-optiga-trust-m/Libraries/XMCLib/inc\xmc_usic.h ****  * the TCSR->TDEN bitfield.
 248:C:/Workspace/DAVE-4.4.2-64Bit/xmc1400-getstarted-optiga-trust-m/Libraries/XMCLib/inc\xmc_usic.h ****  */
 249:C:/Workspace/DAVE-4.4.2-64Bit/xmc1400-getstarted-optiga-trust-m/Libraries/XMCLib/inc\xmc_usic.h **** typedef enum XMC_USIC_CH_START_TRANSMISION_MODE
 250:C:/Workspace/DAVE-4.4.2-64Bit/xmc1400-getstarted-optiga-trust-m/Libraries/XMCLib/inc\xmc_usic.h **** {
 251:C:/Workspace/DAVE-4.4.2-64Bit/xmc1400-getstarted-optiga-trust-m/Libraries/XMCLib/inc\xmc_usic.h ****   XMC_USIC_CH_START_TRANSMISION_DISABLED      = 0x0U, /**< Passive data level is sent out on transm
 252:C:/Workspace/DAVE-4.4.2-64Bit/xmc1400-getstarted-optiga-trust-m/Libraries/XMCLib/inc\xmc_usic.h ****   XMC_USIC_CH_START_TRANSMISION_ON_TDV        = 0x1UL << USIC_CH_TCSR_TDEN_Pos, /**< Transmission o
 253:C:/Workspace/DAVE-4.4.2-64Bit/xmc1400-getstarted-optiga-trust-m/Libraries/XMCLib/inc\xmc_usic.h ****   XMC_USIC_CH_START_TRANSMISION_ON_TDV_DX2S_0 = 0x2UL << USIC_CH_TCSR_TDEN_Pos, /**< Transmission o
 254:C:/Workspace/DAVE-4.4.2-64Bit/xmc1400-getstarted-optiga-trust-m/Libraries/XMCLib/inc\xmc_usic.h ****   XMC_USIC_CH_START_TRANSMISION_ON_TDV_DX2S_1 = 0x3UL << USIC_CH_TCSR_TDEN_Pos  /**< Transmission o
 255:C:/Workspace/DAVE-4.4.2-64Bit/xmc1400-getstarted-optiga-trust-m/Libraries/XMCLib/inc\xmc_usic.h **** } XMC_USIC_CH_START_TRANSMISION_MODE_t;
 256:C:/Workspace/DAVE-4.4.2-64Bit/xmc1400-getstarted-optiga-trust-m/Libraries/XMCLib/inc\xmc_usic.h **** 
 257:C:/Workspace/DAVE-4.4.2-64Bit/xmc1400-getstarted-optiga-trust-m/Libraries/XMCLib/inc\xmc_usic.h **** /**
 258:C:/Workspace/DAVE-4.4.2-64Bit/xmc1400-getstarted-optiga-trust-m/Libraries/XMCLib/inc\xmc_usic.h ****  * USIC channel interrupt node pointers
 259:C:/Workspace/DAVE-4.4.2-64Bit/xmc1400-getstarted-optiga-trust-m/Libraries/XMCLib/inc\xmc_usic.h ****  */
 260:C:/Workspace/DAVE-4.4.2-64Bit/xmc1400-getstarted-optiga-trust-m/Libraries/XMCLib/inc\xmc_usic.h **** typedef enum XMC_USIC_CH_INTERRUPT_NODE_POINTER
 261:C:/Workspace/DAVE-4.4.2-64Bit/xmc1400-getstarted-optiga-trust-m/Libraries/XMCLib/inc\xmc_usic.h **** {
 262:C:/Workspace/DAVE-4.4.2-64Bit/xmc1400-getstarted-optiga-trust-m/Libraries/XMCLib/inc\xmc_usic.h ****   XMC_USIC_CH_INTERRUPT_NODE_POINTER_TRANSMIT_SHIFT      = USIC_CH_INPR_TSINP_Pos, /**< Node pointe
 263:C:/Workspace/DAVE-4.4.2-64Bit/xmc1400-getstarted-optiga-trust-m/Libraries/XMCLib/inc\xmc_usic.h ****   XMC_USIC_CH_INTERRUPT_NODE_POINTER_TRANSMIT_BUFFER     = USIC_CH_INPR_TBINP_Pos, /**< Node pointe
 264:C:/Workspace/DAVE-4.4.2-64Bit/xmc1400-getstarted-optiga-trust-m/Libraries/XMCLib/inc\xmc_usic.h ****   XMC_USIC_CH_INTERRUPT_NODE_POINTER_RECEIVE             = USIC_CH_INPR_RINP_Pos,  /**< Node pointe
 265:C:/Workspace/DAVE-4.4.2-64Bit/xmc1400-getstarted-optiga-trust-m/Libraries/XMCLib/inc\xmc_usic.h ****   XMC_USIC_CH_INTERRUPT_NODE_POINTER_ALTERNATE_RECEIVE   = USIC_CH_INPR_AINP_Pos,  /**< Node pointe
 266:C:/Workspace/DAVE-4.4.2-64Bit/xmc1400-getstarted-optiga-trust-m/Libraries/XMCLib/inc\xmc_usic.h ****   XMC_USIC_CH_INTERRUPT_NODE_POINTER_PROTOCOL            = USIC_CH_INPR_PINP_Pos   /**< Node pointe
 267:C:/Workspace/DAVE-4.4.2-64Bit/xmc1400-getstarted-optiga-trust-m/Libraries/XMCLib/inc\xmc_usic.h **** } XMC_USIC_CH_INTERRUPT_NODE_POINTER_t;
 268:C:/Workspace/DAVE-4.4.2-64Bit/xmc1400-getstarted-optiga-trust-m/Libraries/XMCLib/inc\xmc_usic.h **** 
 269:C:/Workspace/DAVE-4.4.2-64Bit/xmc1400-getstarted-optiga-trust-m/Libraries/XMCLib/inc\xmc_usic.h **** /**
 270:C:/Workspace/DAVE-4.4.2-64Bit/xmc1400-getstarted-optiga-trust-m/Libraries/XMCLib/inc\xmc_usic.h ****  * USIC channel events
 271:C:/Workspace/DAVE-4.4.2-64Bit/xmc1400-getstarted-optiga-trust-m/Libraries/XMCLib/inc\xmc_usic.h ****  */
 272:C:/Workspace/DAVE-4.4.2-64Bit/xmc1400-getstarted-optiga-trust-m/Libraries/XMCLib/inc\xmc_usic.h **** typedef enum XMC_USIC_CH_EVENT
 273:C:/Workspace/DAVE-4.4.2-64Bit/xmc1400-getstarted-optiga-trust-m/Libraries/XMCLib/inc\xmc_usic.h **** {
 274:C:/Workspace/DAVE-4.4.2-64Bit/xmc1400-getstarted-optiga-trust-m/Libraries/XMCLib/inc\xmc_usic.h ****   XMC_USIC_CH_EVENT_RECEIVE_START       = USIC_CH_CCR_RSIEN_Msk, /**< Receive start event */
 275:C:/Workspace/DAVE-4.4.2-64Bit/xmc1400-getstarted-optiga-trust-m/Libraries/XMCLib/inc\xmc_usic.h ****   XMC_USIC_CH_EVENT_DATA_LOST           = USIC_CH_CCR_DLIEN_Msk, /**< Data lost event */
 276:C:/Workspace/DAVE-4.4.2-64Bit/xmc1400-getstarted-optiga-trust-m/Libraries/XMCLib/inc\xmc_usic.h ****   XMC_USIC_CH_EVENT_TRANSMIT_SHIFT      = USIC_CH_CCR_TSIEN_Msk, /**< Transmit shift event */
 277:C:/Workspace/DAVE-4.4.2-64Bit/xmc1400-getstarted-optiga-trust-m/Libraries/XMCLib/inc\xmc_usic.h ****   XMC_USIC_CH_EVENT_TRANSMIT_BUFFER     = USIC_CH_CCR_TBIEN_Msk, /**< Transmit buffer event */
 278:C:/Workspace/DAVE-4.4.2-64Bit/xmc1400-getstarted-optiga-trust-m/Libraries/XMCLib/inc\xmc_usic.h ****   XMC_USIC_CH_EVENT_STANDARD_RECEIVE    = USIC_CH_CCR_RIEN_Msk,  /**< Receive event */
 279:C:/Workspace/DAVE-4.4.2-64Bit/xmc1400-getstarted-optiga-trust-m/Libraries/XMCLib/inc\xmc_usic.h ****   XMC_USIC_CH_EVENT_ALTERNATIVE_RECEIVE = USIC_CH_CCR_AIEN_Msk,  /**< Alternate receive event */
 280:C:/Workspace/DAVE-4.4.2-64Bit/xmc1400-getstarted-optiga-trust-m/Libraries/XMCLib/inc\xmc_usic.h ****   XMC_USIC_CH_EVENT_BAUD_RATE_GENERATOR = USIC_CH_CCR_BRGIEN_Msk /**< Baudrate generator event */
 281:C:/Workspace/DAVE-4.4.2-64Bit/xmc1400-getstarted-optiga-trust-m/Libraries/XMCLib/inc\xmc_usic.h **** } XMC_USIC_CH_EVENT_t;
 282:C:/Workspace/DAVE-4.4.2-64Bit/xmc1400-getstarted-optiga-trust-m/Libraries/XMCLib/inc\xmc_usic.h **** 
 283:C:/Workspace/DAVE-4.4.2-64Bit/xmc1400-getstarted-optiga-trust-m/Libraries/XMCLib/inc\xmc_usic.h **** /**
 284:C:/Workspace/DAVE-4.4.2-64Bit/xmc1400-getstarted-optiga-trust-m/Libraries/XMCLib/inc\xmc_usic.h **** * USIC channel parity mode
 285:C:/Workspace/DAVE-4.4.2-64Bit/xmc1400-getstarted-optiga-trust-m/Libraries/XMCLib/inc\xmc_usic.h **** */
 286:C:/Workspace/DAVE-4.4.2-64Bit/xmc1400-getstarted-optiga-trust-m/Libraries/XMCLib/inc\xmc_usic.h **** typedef enum XMC_USIC_CH_PARITY_MODE
 287:C:/Workspace/DAVE-4.4.2-64Bit/xmc1400-getstarted-optiga-trust-m/Libraries/XMCLib/inc\xmc_usic.h **** {
 288:C:/Workspace/DAVE-4.4.2-64Bit/xmc1400-getstarted-optiga-trust-m/Libraries/XMCLib/inc\xmc_usic.h ****   XMC_USIC_CH_PARITY_MODE_NONE     = 0x0UL,  /**< Disable parity mode */
 289:C:/Workspace/DAVE-4.4.2-64Bit/xmc1400-getstarted-optiga-trust-m/Libraries/XMCLib/inc\xmc_usic.h ****   XMC_USIC_CH_PARITY_MODE_EVEN     = 0x2UL << USIC_CH_CCR_PM_Pos,  /**< Enable even parity mode */
 290:C:/Workspace/DAVE-4.4.2-64Bit/xmc1400-getstarted-optiga-trust-m/Libraries/XMCLib/inc\xmc_usic.h ****   XMC_USIC_CH_PARITY_MODE_ODD      = 0x3UL << USIC_CH_CCR_PM_Pos   /**< Enable odd parity mode */
 291:C:/Workspace/DAVE-4.4.2-64Bit/xmc1400-getstarted-optiga-trust-m/Libraries/XMCLib/inc\xmc_usic.h **** } XMC_USIC_CH_PARITY_MODE_t;
 292:C:/Workspace/DAVE-4.4.2-64Bit/xmc1400-getstarted-optiga-trust-m/Libraries/XMCLib/inc\xmc_usic.h **** 
 293:C:/Workspace/DAVE-4.4.2-64Bit/xmc1400-getstarted-optiga-trust-m/Libraries/XMCLib/inc\xmc_usic.h **** /**
 294:C:/Workspace/DAVE-4.4.2-64Bit/xmc1400-getstarted-optiga-trust-m/Libraries/XMCLib/inc\xmc_usic.h **** * USIC channel data output mode
 295:C:/Workspace/DAVE-4.4.2-64Bit/xmc1400-getstarted-optiga-trust-m/Libraries/XMCLib/inc\xmc_usic.h **** */
 296:C:/Workspace/DAVE-4.4.2-64Bit/xmc1400-getstarted-optiga-trust-m/Libraries/XMCLib/inc\xmc_usic.h **** typedef enum XMC_USIC_CH_DATA_OUTPUT_MODE
 297:C:/Workspace/DAVE-4.4.2-64Bit/xmc1400-getstarted-optiga-trust-m/Libraries/XMCLib/inc\xmc_usic.h **** {
 298:C:/Workspace/DAVE-4.4.2-64Bit/xmc1400-getstarted-optiga-trust-m/Libraries/XMCLib/inc\xmc_usic.h ****   XMC_USIC_CH_DATA_OUTPUT_MODE_NORMAL   = 0x0UL,  /**< Data output normal mode */
 299:C:/Workspace/DAVE-4.4.2-64Bit/xmc1400-getstarted-optiga-trust-m/Libraries/XMCLib/inc\xmc_usic.h ****   XMC_USIC_CH_DATA_OUTPUT_MODE_INVERTED = 0x1UL << USIC_CH_SCTR_DOCFG_Pos   /**< Data output invert
 300:C:/Workspace/DAVE-4.4.2-64Bit/xmc1400-getstarted-optiga-trust-m/Libraries/XMCLib/inc\xmc_usic.h **** } XMC_USIC_CH_DATA_OUTPUT_MODE_t;
 301:C:/Workspace/DAVE-4.4.2-64Bit/xmc1400-getstarted-optiga-trust-m/Libraries/XMCLib/inc\xmc_usic.h **** 
 302:C:/Workspace/DAVE-4.4.2-64Bit/xmc1400-getstarted-optiga-trust-m/Libraries/XMCLib/inc\xmc_usic.h **** /**
 303:C:/Workspace/DAVE-4.4.2-64Bit/xmc1400-getstarted-optiga-trust-m/Libraries/XMCLib/inc\xmc_usic.h **** * USIC channel data transmit buffer status
 304:C:/Workspace/DAVE-4.4.2-64Bit/xmc1400-getstarted-optiga-trust-m/Libraries/XMCLib/inc\xmc_usic.h **** */
 305:C:/Workspace/DAVE-4.4.2-64Bit/xmc1400-getstarted-optiga-trust-m/Libraries/XMCLib/inc\xmc_usic.h **** typedef enum XMC_USIC_CH_TBUF_STATUS
 306:C:/Workspace/DAVE-4.4.2-64Bit/xmc1400-getstarted-optiga-trust-m/Libraries/XMCLib/inc\xmc_usic.h **** {
 307:C:/Workspace/DAVE-4.4.2-64Bit/xmc1400-getstarted-optiga-trust-m/Libraries/XMCLib/inc\xmc_usic.h ****   XMC_USIC_CH_TBUF_STATUS_IDLE = 0x0UL,                 /**< Transfer buffer is currently idle*/
 308:C:/Workspace/DAVE-4.4.2-64Bit/xmc1400-getstarted-optiga-trust-m/Libraries/XMCLib/inc\xmc_usic.h ****   XMC_USIC_CH_TBUF_STATUS_BUSY = USIC_CH_TCSR_TDV_Msk   /**< Transfer buffer is currently busy*/
 309:C:/Workspace/DAVE-4.4.2-64Bit/xmc1400-getstarted-optiga-trust-m/Libraries/XMCLib/inc\xmc_usic.h **** } XMC_USIC_CH_TBUF_STATUS_t;
 310:C:/Workspace/DAVE-4.4.2-64Bit/xmc1400-getstarted-optiga-trust-m/Libraries/XMCLib/inc\xmc_usic.h **** 
 311:C:/Workspace/DAVE-4.4.2-64Bit/xmc1400-getstarted-optiga-trust-m/Libraries/XMCLib/inc\xmc_usic.h **** 
 312:C:/Workspace/DAVE-4.4.2-64Bit/xmc1400-getstarted-optiga-trust-m/Libraries/XMCLib/inc\xmc_usic.h **** 
 313:C:/Workspace/DAVE-4.4.2-64Bit/xmc1400-getstarted-optiga-trust-m/Libraries/XMCLib/inc\xmc_usic.h **** /**
 314:C:/Workspace/DAVE-4.4.2-64Bit/xmc1400-getstarted-optiga-trust-m/Libraries/XMCLib/inc\xmc_usic.h **** * USIC channel data transmit buffer status modification
 315:C:/Workspace/DAVE-4.4.2-64Bit/xmc1400-getstarted-optiga-trust-m/Libraries/XMCLib/inc\xmc_usic.h **** */
 316:C:/Workspace/DAVE-4.4.2-64Bit/xmc1400-getstarted-optiga-trust-m/Libraries/XMCLib/inc\xmc_usic.h **** typedef enum XMC_USIC_CH_TBUF_STATUS_SET
 317:C:/Workspace/DAVE-4.4.2-64Bit/xmc1400-getstarted-optiga-trust-m/Libraries/XMCLib/inc\xmc_usic.h **** {
 318:C:/Workspace/DAVE-4.4.2-64Bit/xmc1400-getstarted-optiga-trust-m/Libraries/XMCLib/inc\xmc_usic.h ****   XMC_USIC_CH_TBUF_STATUS_SET_BUSY   = 0x1UL, /**< Set Transfer buffer status to busy*/
 319:C:/Workspace/DAVE-4.4.2-64Bit/xmc1400-getstarted-optiga-trust-m/Libraries/XMCLib/inc\xmc_usic.h ****   XMC_USIC_CH_TBUF_STATUS_SET_IDLE   = 0x2UL  /**< Set Transfer buffer status to idle*/
 320:C:/Workspace/DAVE-4.4.2-64Bit/xmc1400-getstarted-optiga-trust-m/Libraries/XMCLib/inc\xmc_usic.h **** } XMC_USIC_CH_TBUF_STATUS_SET_t;
 321:C:/Workspace/DAVE-4.4.2-64Bit/xmc1400-getstarted-optiga-trust-m/Libraries/XMCLib/inc\xmc_usic.h **** 
 322:C:/Workspace/DAVE-4.4.2-64Bit/xmc1400-getstarted-optiga-trust-m/Libraries/XMCLib/inc\xmc_usic.h **** /**
 323:C:/Workspace/DAVE-4.4.2-64Bit/xmc1400-getstarted-optiga-trust-m/Libraries/XMCLib/inc\xmc_usic.h **** * USIC channel receive buffer status
 324:C:/Workspace/DAVE-4.4.2-64Bit/xmc1400-getstarted-optiga-trust-m/Libraries/XMCLib/inc\xmc_usic.h **** */
 325:C:/Workspace/DAVE-4.4.2-64Bit/xmc1400-getstarted-optiga-trust-m/Libraries/XMCLib/inc\xmc_usic.h **** typedef enum XMC_USIC_CH_RBUF_STATUS
 326:C:/Workspace/DAVE-4.4.2-64Bit/xmc1400-getstarted-optiga-trust-m/Libraries/XMCLib/inc\xmc_usic.h **** {
 327:C:/Workspace/DAVE-4.4.2-64Bit/xmc1400-getstarted-optiga-trust-m/Libraries/XMCLib/inc\xmc_usic.h ****   XMC_USIC_CH_RBUF_STATUS_DATA_VALID0 = USIC_CH_RBUFSR_RDV0_Msk, /**< RBUF0 data has not yet been r
 328:C:/Workspace/DAVE-4.4.2-64Bit/xmc1400-getstarted-optiga-trust-m/Libraries/XMCLib/inc\xmc_usic.h ****   XMC_USIC_CH_RBUF_STATUS_DATA_VALID1 = USIC_CH_RBUFSR_RDV1_Msk  /**< RBUF1 data has not yet been r
 329:C:/Workspace/DAVE-4.4.2-64Bit/xmc1400-getstarted-optiga-trust-m/Libraries/XMCLib/inc\xmc_usic.h **** } XMC_USIC_CH_RBUF_STATUS_t;
 330:C:/Workspace/DAVE-4.4.2-64Bit/xmc1400-getstarted-optiga-trust-m/Libraries/XMCLib/inc\xmc_usic.h **** 
 331:C:/Workspace/DAVE-4.4.2-64Bit/xmc1400-getstarted-optiga-trust-m/Libraries/XMCLib/inc\xmc_usic.h **** /**
 332:C:/Workspace/DAVE-4.4.2-64Bit/xmc1400-getstarted-optiga-trust-m/Libraries/XMCLib/inc\xmc_usic.h ****  * USIC channel output signal passive data level
 333:C:/Workspace/DAVE-4.4.2-64Bit/xmc1400-getstarted-optiga-trust-m/Libraries/XMCLib/inc\xmc_usic.h **** */
 334:C:/Workspace/DAVE-4.4.2-64Bit/xmc1400-getstarted-optiga-trust-m/Libraries/XMCLib/inc\xmc_usic.h **** typedef enum XMC_USCI_CH_PASSIVE_DATA_LEVEL
 335:C:/Workspace/DAVE-4.4.2-64Bit/xmc1400-getstarted-optiga-trust-m/Libraries/XMCLib/inc\xmc_usic.h **** {
 336:C:/Workspace/DAVE-4.4.2-64Bit/xmc1400-getstarted-optiga-trust-m/Libraries/XMCLib/inc\xmc_usic.h ****   XMC_USIC_CH_PASSIVE_DATA_LEVEL0 = 0x0UL, /**< Passive level(idle mode signal level) 0 */
 337:C:/Workspace/DAVE-4.4.2-64Bit/xmc1400-getstarted-optiga-trust-m/Libraries/XMCLib/inc\xmc_usic.h ****   XMC_USIC_CH_PASSIVE_DATA_LEVEL1 = 0x1UL << USIC_CH_SCTR_PDL_Pos  /**< Passive level(idle mode sig
 338:C:/Workspace/DAVE-4.4.2-64Bit/xmc1400-getstarted-optiga-trust-m/Libraries/XMCLib/inc\xmc_usic.h **** } XMC_USIC_CH_PASSIVE_DATA_LEVEL_t;
 339:C:/Workspace/DAVE-4.4.2-64Bit/xmc1400-getstarted-optiga-trust-m/Libraries/XMCLib/inc\xmc_usic.h **** 
 340:C:/Workspace/DAVE-4.4.2-64Bit/xmc1400-getstarted-optiga-trust-m/Libraries/XMCLib/inc\xmc_usic.h **** /**
 341:C:/Workspace/DAVE-4.4.2-64Bit/xmc1400-getstarted-optiga-trust-m/Libraries/XMCLib/inc\xmc_usic.h **** * USIC channel receive FIFO size
 342:C:/Workspace/DAVE-4.4.2-64Bit/xmc1400-getstarted-optiga-trust-m/Libraries/XMCLib/inc\xmc_usic.h **** */
 343:C:/Workspace/DAVE-4.4.2-64Bit/xmc1400-getstarted-optiga-trust-m/Libraries/XMCLib/inc\xmc_usic.h **** typedef enum XMC_USIC_CH_FIFO_SIZE
 344:C:/Workspace/DAVE-4.4.2-64Bit/xmc1400-getstarted-optiga-trust-m/Libraries/XMCLib/inc\xmc_usic.h **** {
 345:C:/Workspace/DAVE-4.4.2-64Bit/xmc1400-getstarted-optiga-trust-m/Libraries/XMCLib/inc\xmc_usic.h ****   XMC_USIC_CH_FIFO_DISABLED     = 0x0U,  /**< FIFO Disabled */
 346:C:/Workspace/DAVE-4.4.2-64Bit/xmc1400-getstarted-optiga-trust-m/Libraries/XMCLib/inc\xmc_usic.h ****   XMC_USIC_CH_FIFO_SIZE_2WORDS  = 0x1U,  /**< FIFO size: 2 words */
 347:C:/Workspace/DAVE-4.4.2-64Bit/xmc1400-getstarted-optiga-trust-m/Libraries/XMCLib/inc\xmc_usic.h ****   XMC_USIC_CH_FIFO_SIZE_4WORDS  = 0x2U,  /**< FIFO size: 4 words */
 348:C:/Workspace/DAVE-4.4.2-64Bit/xmc1400-getstarted-optiga-trust-m/Libraries/XMCLib/inc\xmc_usic.h ****   XMC_USIC_CH_FIFO_SIZE_8WORDS  = 0x3U,  /**< FIFO size: 8 words */
 349:C:/Workspace/DAVE-4.4.2-64Bit/xmc1400-getstarted-optiga-trust-m/Libraries/XMCLib/inc\xmc_usic.h ****   XMC_USIC_CH_FIFO_SIZE_16WORDS = 0x4U,  /**< FIFO size: 16 words */
 350:C:/Workspace/DAVE-4.4.2-64Bit/xmc1400-getstarted-optiga-trust-m/Libraries/XMCLib/inc\xmc_usic.h ****   XMC_USIC_CH_FIFO_SIZE_32WORDS = 0x5U,  /**< FIFO size: 32 words */
 351:C:/Workspace/DAVE-4.4.2-64Bit/xmc1400-getstarted-optiga-trust-m/Libraries/XMCLib/inc\xmc_usic.h ****   XMC_USIC_CH_FIFO_SIZE_64WORDS = 0x6U   /**< FIFO size: 64 words */
 352:C:/Workspace/DAVE-4.4.2-64Bit/xmc1400-getstarted-optiga-trust-m/Libraries/XMCLib/inc\xmc_usic.h **** } XMC_USIC_CH_FIFO_SIZE_t;
 353:C:/Workspace/DAVE-4.4.2-64Bit/xmc1400-getstarted-optiga-trust-m/Libraries/XMCLib/inc\xmc_usic.h **** 
 354:C:/Workspace/DAVE-4.4.2-64Bit/xmc1400-getstarted-optiga-trust-m/Libraries/XMCLib/inc\xmc_usic.h **** /**
 355:C:/Workspace/DAVE-4.4.2-64Bit/xmc1400-getstarted-optiga-trust-m/Libraries/XMCLib/inc\xmc_usic.h **** * USIC channel transmit FIFO interrupt node pointers
 356:C:/Workspace/DAVE-4.4.2-64Bit/xmc1400-getstarted-optiga-trust-m/Libraries/XMCLib/inc\xmc_usic.h **** */
 357:C:/Workspace/DAVE-4.4.2-64Bit/xmc1400-getstarted-optiga-trust-m/Libraries/XMCLib/inc\xmc_usic.h **** typedef enum XMC_USIC_CH_TXFIFO_INTERRUPT_NODE_POINTER
 358:C:/Workspace/DAVE-4.4.2-64Bit/xmc1400-getstarted-optiga-trust-m/Libraries/XMCLib/inc\xmc_usic.h **** {
 359:C:/Workspace/DAVE-4.4.2-64Bit/xmc1400-getstarted-optiga-trust-m/Libraries/XMCLib/inc\xmc_usic.h ****   XMC_USIC_CH_TXFIFO_INTERRUPT_NODE_POINTER_STANDARD  = USIC_CH_TBCTR_STBINP_Pos,  /**< Node pointe
 360:C:/Workspace/DAVE-4.4.2-64Bit/xmc1400-getstarted-optiga-trust-m/Libraries/XMCLib/inc\xmc_usic.h ****   XMC_USIC_CH_TXFIFO_INTERRUPT_NODE_POINTER_ALTERNATE = USIC_CH_TBCTR_ATBINP_Pos   /**< Node pointe
 361:C:/Workspace/DAVE-4.4.2-64Bit/xmc1400-getstarted-optiga-trust-m/Libraries/XMCLib/inc\xmc_usic.h **** } XMC_USIC_CH_TXFIFO_INTERRUPT_NODE_POINTER_t;
 362:C:/Workspace/DAVE-4.4.2-64Bit/xmc1400-getstarted-optiga-trust-m/Libraries/XMCLib/inc\xmc_usic.h **** 
 363:C:/Workspace/DAVE-4.4.2-64Bit/xmc1400-getstarted-optiga-trust-m/Libraries/XMCLib/inc\xmc_usic.h **** /**
 364:C:/Workspace/DAVE-4.4.2-64Bit/xmc1400-getstarted-optiga-trust-m/Libraries/XMCLib/inc\xmc_usic.h **** * USIC channel transmit FIFO event configuration
 365:C:/Workspace/DAVE-4.4.2-64Bit/xmc1400-getstarted-optiga-trust-m/Libraries/XMCLib/inc\xmc_usic.h **** */
 366:C:/Workspace/DAVE-4.4.2-64Bit/xmc1400-getstarted-optiga-trust-m/Libraries/XMCLib/inc\xmc_usic.h **** typedef enum XMC_USIC_CH_TXFIFO_EVENT_CONF
 367:C:/Workspace/DAVE-4.4.2-64Bit/xmc1400-getstarted-optiga-trust-m/Libraries/XMCLib/inc\xmc_usic.h **** {
 368:C:/Workspace/DAVE-4.4.2-64Bit/xmc1400-getstarted-optiga-trust-m/Libraries/XMCLib/inc\xmc_usic.h ****   XMC_USIC_CH_TXFIFO_EVENT_CONF_STANDARD  = USIC_CH_TBCTR_STBIEN_Msk,   /**< Enable FIFO standard t
 369:C:/Workspace/DAVE-4.4.2-64Bit/xmc1400-getstarted-optiga-trust-m/Libraries/XMCLib/inc\xmc_usic.h ****   XMC_USIC_CH_TXFIFO_EVENT_CONF_ERROR     = (int32_t)USIC_CH_TBCTR_TBERIEN_Msk  /**< Enable transmi
 370:C:/Workspace/DAVE-4.4.2-64Bit/xmc1400-getstarted-optiga-trust-m/Libraries/XMCLib/inc\xmc_usic.h **** } XMC_USIC_CH_TXFIFO_EVENT_CONF_t;
 371:C:/Workspace/DAVE-4.4.2-64Bit/xmc1400-getstarted-optiga-trust-m/Libraries/XMCLib/inc\xmc_usic.h **** 
 372:C:/Workspace/DAVE-4.4.2-64Bit/xmc1400-getstarted-optiga-trust-m/Libraries/XMCLib/inc\xmc_usic.h **** /**
 373:C:/Workspace/DAVE-4.4.2-64Bit/xmc1400-getstarted-optiga-trust-m/Libraries/XMCLib/inc\xmc_usic.h **** * USIC channel transmit FIFO status
 374:C:/Workspace/DAVE-4.4.2-64Bit/xmc1400-getstarted-optiga-trust-m/Libraries/XMCLib/inc\xmc_usic.h **** */
 375:C:/Workspace/DAVE-4.4.2-64Bit/xmc1400-getstarted-optiga-trust-m/Libraries/XMCLib/inc\xmc_usic.h **** typedef enum XMC_USIC_CH_TXFIFO_EVENT
 376:C:/Workspace/DAVE-4.4.2-64Bit/xmc1400-getstarted-optiga-trust-m/Libraries/XMCLib/inc\xmc_usic.h **** {
 377:C:/Workspace/DAVE-4.4.2-64Bit/xmc1400-getstarted-optiga-trust-m/Libraries/XMCLib/inc\xmc_usic.h ****   XMC_USIC_CH_TXFIFO_EVENT_STANDARD = USIC_CH_TRBSR_STBI_Msk,    /**< Transmit FIFO status: Standar
 378:C:/Workspace/DAVE-4.4.2-64Bit/xmc1400-getstarted-optiga-trust-m/Libraries/XMCLib/inc\xmc_usic.h ****   XMC_USIC_CH_TXFIFO_EVENT_ERROR    = USIC_CH_TRBSR_TBERI_Msk    /**< Transmit FIFO status: Error e
 379:C:/Workspace/DAVE-4.4.2-64Bit/xmc1400-getstarted-optiga-trust-m/Libraries/XMCLib/inc\xmc_usic.h **** } XMC_USIC_CH_TXFIFO_EVENT_t;
 380:C:/Workspace/DAVE-4.4.2-64Bit/xmc1400-getstarted-optiga-trust-m/Libraries/XMCLib/inc\xmc_usic.h **** 
 381:C:/Workspace/DAVE-4.4.2-64Bit/xmc1400-getstarted-optiga-trust-m/Libraries/XMCLib/inc\xmc_usic.h **** /**
 382:C:/Workspace/DAVE-4.4.2-64Bit/xmc1400-getstarted-optiga-trust-m/Libraries/XMCLib/inc\xmc_usic.h **** * USIC channel receive FIFO interrupt node pointers
 383:C:/Workspace/DAVE-4.4.2-64Bit/xmc1400-getstarted-optiga-trust-m/Libraries/XMCLib/inc\xmc_usic.h **** */
 384:C:/Workspace/DAVE-4.4.2-64Bit/xmc1400-getstarted-optiga-trust-m/Libraries/XMCLib/inc\xmc_usic.h **** typedef enum XMC_USIC_CH_RXFIFO_INTERRUPT_NODE_POINTER
 385:C:/Workspace/DAVE-4.4.2-64Bit/xmc1400-getstarted-optiga-trust-m/Libraries/XMCLib/inc\xmc_usic.h **** {
 386:C:/Workspace/DAVE-4.4.2-64Bit/xmc1400-getstarted-optiga-trust-m/Libraries/XMCLib/inc\xmc_usic.h ****   XMC_USIC_CH_RXFIFO_INTERRUPT_NODE_POINTER_STANDARD  = USIC_CH_RBCTR_SRBINP_Pos, /**< Node pointer
 387:C:/Workspace/DAVE-4.4.2-64Bit/xmc1400-getstarted-optiga-trust-m/Libraries/XMCLib/inc\xmc_usic.h ****   XMC_USIC_CH_RXFIFO_INTERRUPT_NODE_POINTER_ALTERNATE = USIC_CH_RBCTR_ARBINP_Pos  /**< Node pointer
 388:C:/Workspace/DAVE-4.4.2-64Bit/xmc1400-getstarted-optiga-trust-m/Libraries/XMCLib/inc\xmc_usic.h **** } XMC_USIC_CH_RXFIFO_INTERRUPT_NODE_POINTER_t;
 389:C:/Workspace/DAVE-4.4.2-64Bit/xmc1400-getstarted-optiga-trust-m/Libraries/XMCLib/inc\xmc_usic.h **** 
 390:C:/Workspace/DAVE-4.4.2-64Bit/xmc1400-getstarted-optiga-trust-m/Libraries/XMCLib/inc\xmc_usic.h **** /**
 391:C:/Workspace/DAVE-4.4.2-64Bit/xmc1400-getstarted-optiga-trust-m/Libraries/XMCLib/inc\xmc_usic.h **** * USIC channel receive FIFO event configuration
 392:C:/Workspace/DAVE-4.4.2-64Bit/xmc1400-getstarted-optiga-trust-m/Libraries/XMCLib/inc\xmc_usic.h **** */
 393:C:/Workspace/DAVE-4.4.2-64Bit/xmc1400-getstarted-optiga-trust-m/Libraries/XMCLib/inc\xmc_usic.h **** typedef enum XMC_USIC_CH_RXFIFO_EVENT_CONF
 394:C:/Workspace/DAVE-4.4.2-64Bit/xmc1400-getstarted-optiga-trust-m/Libraries/XMCLib/inc\xmc_usic.h **** {
 395:C:/Workspace/DAVE-4.4.2-64Bit/xmc1400-getstarted-optiga-trust-m/Libraries/XMCLib/inc\xmc_usic.h ****   XMC_USIC_CH_RXFIFO_EVENT_CONF_STANDARD  = USIC_CH_RBCTR_SRBIEN_Msk,   /**< Enable FIFO standard r
 396:C:/Workspace/DAVE-4.4.2-64Bit/xmc1400-getstarted-optiga-trust-m/Libraries/XMCLib/inc\xmc_usic.h ****   XMC_USIC_CH_RXFIFO_EVENT_CONF_ERROR     = (int32_t)USIC_CH_RBCTR_RBERIEN_Msk,  /**< Enable receiv
 397:C:/Workspace/DAVE-4.4.2-64Bit/xmc1400-getstarted-optiga-trust-m/Libraries/XMCLib/inc\xmc_usic.h ****   XMC_USIC_CH_RXFIFO_EVENT_CONF_ALTERNATE = USIC_CH_RBCTR_ARBIEN_Msk   /**< Enable FIFO alternative
 398:C:/Workspace/DAVE-4.4.2-64Bit/xmc1400-getstarted-optiga-trust-m/Libraries/XMCLib/inc\xmc_usic.h **** } XMC_USIC_CH_RXFIFO_EVENT_CONF_t;
 399:C:/Workspace/DAVE-4.4.2-64Bit/xmc1400-getstarted-optiga-trust-m/Libraries/XMCLib/inc\xmc_usic.h **** 
 400:C:/Workspace/DAVE-4.4.2-64Bit/xmc1400-getstarted-optiga-trust-m/Libraries/XMCLib/inc\xmc_usic.h **** /**
 401:C:/Workspace/DAVE-4.4.2-64Bit/xmc1400-getstarted-optiga-trust-m/Libraries/XMCLib/inc\xmc_usic.h **** * USIC channel receive FIFO status
 402:C:/Workspace/DAVE-4.4.2-64Bit/xmc1400-getstarted-optiga-trust-m/Libraries/XMCLib/inc\xmc_usic.h **** */
 403:C:/Workspace/DAVE-4.4.2-64Bit/xmc1400-getstarted-optiga-trust-m/Libraries/XMCLib/inc\xmc_usic.h **** typedef enum XMC_USIC_CH_RXFIFO_EVENT
 404:C:/Workspace/DAVE-4.4.2-64Bit/xmc1400-getstarted-optiga-trust-m/Libraries/XMCLib/inc\xmc_usic.h **** {
 405:C:/Workspace/DAVE-4.4.2-64Bit/xmc1400-getstarted-optiga-trust-m/Libraries/XMCLib/inc\xmc_usic.h ****   XMC_USIC_CH_RXFIFO_EVENT_STANDARD  = USIC_CH_TRBSR_SRBI_Msk,   /**< Receive FIFO status: Standard
 406:C:/Workspace/DAVE-4.4.2-64Bit/xmc1400-getstarted-optiga-trust-m/Libraries/XMCLib/inc\xmc_usic.h ****   XMC_USIC_CH_RXFIFO_EVENT_ERROR     = USIC_CH_TRBSR_RBERI_Msk,  /**< Receive FIFO status: Error ev
 407:C:/Workspace/DAVE-4.4.2-64Bit/xmc1400-getstarted-optiga-trust-m/Libraries/XMCLib/inc\xmc_usic.h ****   XMC_USIC_CH_RXFIFO_EVENT_ALTERNATE = USIC_CH_TRBSR_ARBI_Msk    /**< Receive FIFO status: Alternat
 408:C:/Workspace/DAVE-4.4.2-64Bit/xmc1400-getstarted-optiga-trust-m/Libraries/XMCLib/inc\xmc_usic.h **** } XMC_USIC_CH_RXFIFO_EVENT_t;
 409:C:/Workspace/DAVE-4.4.2-64Bit/xmc1400-getstarted-optiga-trust-m/Libraries/XMCLib/inc\xmc_usic.h **** 
 410:C:/Workspace/DAVE-4.4.2-64Bit/xmc1400-getstarted-optiga-trust-m/Libraries/XMCLib/inc\xmc_usic.h **** /**
 411:C:/Workspace/DAVE-4.4.2-64Bit/xmc1400-getstarted-optiga-trust-m/Libraries/XMCLib/inc\xmc_usic.h **** * USIC channel baudrate generator clock source
 412:C:/Workspace/DAVE-4.4.2-64Bit/xmc1400-getstarted-optiga-trust-m/Libraries/XMCLib/inc\xmc_usic.h **** */
 413:C:/Workspace/DAVE-4.4.2-64Bit/xmc1400-getstarted-optiga-trust-m/Libraries/XMCLib/inc\xmc_usic.h **** typedef enum XMC_USIC_CH_BRG_CLOCK_SOURCE
 414:C:/Workspace/DAVE-4.4.2-64Bit/xmc1400-getstarted-optiga-trust-m/Libraries/XMCLib/inc\xmc_usic.h **** {
 415:C:/Workspace/DAVE-4.4.2-64Bit/xmc1400-getstarted-optiga-trust-m/Libraries/XMCLib/inc\xmc_usic.h ****   XMC_USIC_CH_BRG_CLOCK_SOURCE_DIVIDER = 0x0UL, /**< Baudrate generator clock source : Source divid
 416:C:/Workspace/DAVE-4.4.2-64Bit/xmc1400-getstarted-optiga-trust-m/Libraries/XMCLib/inc\xmc_usic.h ****   XMC_USIC_CH_BRG_CLOCK_SOURCE_DX1T    = 0x2UL << USIC_CH_BRG_CLKSEL_Pos  /**< Baudrate generator c
 417:C:/Workspace/DAVE-4.4.2-64Bit/xmc1400-getstarted-optiga-trust-m/Libraries/XMCLib/inc\xmc_usic.h **** } XMC_USIC_CH_BRG_CLOCK_SOURCE_t;
 418:C:/Workspace/DAVE-4.4.2-64Bit/xmc1400-getstarted-optiga-trust-m/Libraries/XMCLib/inc\xmc_usic.h **** 
 419:C:/Workspace/DAVE-4.4.2-64Bit/xmc1400-getstarted-optiga-trust-m/Libraries/XMCLib/inc\xmc_usic.h **** /**
 420:C:/Workspace/DAVE-4.4.2-64Bit/xmc1400-getstarted-optiga-trust-m/Libraries/XMCLib/inc\xmc_usic.h **** * USIC channel baudrate generator divider mode
 421:C:/Workspace/DAVE-4.4.2-64Bit/xmc1400-getstarted-optiga-trust-m/Libraries/XMCLib/inc\xmc_usic.h **** */
 422:C:/Workspace/DAVE-4.4.2-64Bit/xmc1400-getstarted-optiga-trust-m/Libraries/XMCLib/inc\xmc_usic.h **** typedef enum XMC_USIC_CH_BRG_CLOCK_DIVIDER_MODE
 423:C:/Workspace/DAVE-4.4.2-64Bit/xmc1400-getstarted-optiga-trust-m/Libraries/XMCLib/inc\xmc_usic.h **** {
 424:C:/Workspace/DAVE-4.4.2-64Bit/xmc1400-getstarted-optiga-trust-m/Libraries/XMCLib/inc\xmc_usic.h ****   XMC_USIC_CH_BRG_CLOCK_DIVIDER_MODE_DISABLED   = 0x0UL, /**< Baudrate generator clock divider: Dis
 425:C:/Workspace/DAVE-4.4.2-64Bit/xmc1400-getstarted-optiga-trust-m/Libraries/XMCLib/inc\xmc_usic.h ****   XMC_USIC_CH_BRG_CLOCK_DIVIDER_MODE_NORMAL     = 0x1UL << USIC_CH_FDR_DM_Pos, /**< Baudrate genera
 426:C:/Workspace/DAVE-4.4.2-64Bit/xmc1400-getstarted-optiga-trust-m/Libraries/XMCLib/inc\xmc_usic.h ****   XMC_USIC_CH_BRG_CLOCK_DIVIDER_MODE_FRACTIONAL = 0x2UL << USIC_CH_FDR_DM_Pos  /**< Baudrate genera
 427:C:/Workspace/DAVE-4.4.2-64Bit/xmc1400-getstarted-optiga-trust-m/Libraries/XMCLib/inc\xmc_usic.h **** } XMC_USIC_CH_BRG_CLOCK_DIVIDER_MODE_t;
 428:C:/Workspace/DAVE-4.4.2-64Bit/xmc1400-getstarted-optiga-trust-m/Libraries/XMCLib/inc\xmc_usic.h **** 
 429:C:/Workspace/DAVE-4.4.2-64Bit/xmc1400-getstarted-optiga-trust-m/Libraries/XMCLib/inc\xmc_usic.h **** /**
 430:C:/Workspace/DAVE-4.4.2-64Bit/xmc1400-getstarted-optiga-trust-m/Libraries/XMCLib/inc\xmc_usic.h **** * USIC channel baudrate generator master clock passive level
 431:C:/Workspace/DAVE-4.4.2-64Bit/xmc1400-getstarted-optiga-trust-m/Libraries/XMCLib/inc\xmc_usic.h **** */
 432:C:/Workspace/DAVE-4.4.2-64Bit/xmc1400-getstarted-optiga-trust-m/Libraries/XMCLib/inc\xmc_usic.h **** typedef enum XMC_USIC_CH_BRG_MASTER_CLOCK_PASSIVE_LEVEL
 433:C:/Workspace/DAVE-4.4.2-64Bit/xmc1400-getstarted-optiga-trust-m/Libraries/XMCLib/inc\xmc_usic.h **** {
 434:C:/Workspace/DAVE-4.4.2-64Bit/xmc1400-getstarted-optiga-trust-m/Libraries/XMCLib/inc\xmc_usic.h ****   XMC_USIC_CH_BRG_MASTER_CLOCK_PASSIVE_LEVEL_0 = 0x0UL, /**< Baudrate generator master clock passiv
 435:C:/Workspace/DAVE-4.4.2-64Bit/xmc1400-getstarted-optiga-trust-m/Libraries/XMCLib/inc\xmc_usic.h ****   XMC_USIC_CH_BRG_MASTER_CLOCK_PASSIVE_LEVEL_1 = 0x1UL << USIC_CH_BRG_MCLKCFG_Pos  /**< Baudrate ge
 436:C:/Workspace/DAVE-4.4.2-64Bit/xmc1400-getstarted-optiga-trust-m/Libraries/XMCLib/inc\xmc_usic.h **** } XMC_USIC_CH_BRG_MASTER_CLOCK_PASSIVE_LEVEL_t;
 437:C:/Workspace/DAVE-4.4.2-64Bit/xmc1400-getstarted-optiga-trust-m/Libraries/XMCLib/inc\xmc_usic.h **** 
 438:C:/Workspace/DAVE-4.4.2-64Bit/xmc1400-getstarted-optiga-trust-m/Libraries/XMCLib/inc\xmc_usic.h **** /**
 439:C:/Workspace/DAVE-4.4.2-64Bit/xmc1400-getstarted-optiga-trust-m/Libraries/XMCLib/inc\xmc_usic.h **** * USIC channel baudrate generator shift clock passive level
 440:C:/Workspace/DAVE-4.4.2-64Bit/xmc1400-getstarted-optiga-trust-m/Libraries/XMCLib/inc\xmc_usic.h **** */
 441:C:/Workspace/DAVE-4.4.2-64Bit/xmc1400-getstarted-optiga-trust-m/Libraries/XMCLib/inc\xmc_usic.h **** typedef enum XMC_USIC_CH_BRG_SHIFT_CLOCK_PASSIVE_LEVEL
 442:C:/Workspace/DAVE-4.4.2-64Bit/xmc1400-getstarted-optiga-trust-m/Libraries/XMCLib/inc\xmc_usic.h **** {
 443:C:/Workspace/DAVE-4.4.2-64Bit/xmc1400-getstarted-optiga-trust-m/Libraries/XMCLib/inc\xmc_usic.h ****   XMC_USIC_CH_BRG_SHIFT_CLOCK_PASSIVE_LEVEL_0_DELAY_DISABLED = 0x0UL, /**< Shift clock passive leve
 444:C:/Workspace/DAVE-4.4.2-64Bit/xmc1400-getstarted-optiga-trust-m/Libraries/XMCLib/inc\xmc_usic.h ****   XMC_USIC_CH_BRG_SHIFT_CLOCK_PASSIVE_LEVEL_1_DELAY_DISABLED = 0x1UL << USIC_CH_BRG_SCLKCFG_Pos, /*
 445:C:/Workspace/DAVE-4.4.2-64Bit/xmc1400-getstarted-optiga-trust-m/Libraries/XMCLib/inc\xmc_usic.h ****   XMC_USIC_CH_BRG_SHIFT_CLOCK_PASSIVE_LEVEL_0_DELAY_ENABLED  = (int32_t)(0x2UL << USIC_CH_BRG_SCLKC
 446:C:/Workspace/DAVE-4.4.2-64Bit/xmc1400-getstarted-optiga-trust-m/Libraries/XMCLib/inc\xmc_usic.h ****   XMC_USIC_CH_BRG_SHIFT_CLOCK_PASSIVE_LEVEL_1_DELAY_ENABLED  = (int32_t)(0x3UL << USIC_CH_BRG_SCLKC
 447:C:/Workspace/DAVE-4.4.2-64Bit/xmc1400-getstarted-optiga-trust-m/Libraries/XMCLib/inc\xmc_usic.h **** } XMC_USIC_CH_BRG_SHIFT_CLOCK_PASSIVE_LEVEL_t;
 448:C:/Workspace/DAVE-4.4.2-64Bit/xmc1400-getstarted-optiga-trust-m/Libraries/XMCLib/inc\xmc_usic.h **** 
 449:C:/Workspace/DAVE-4.4.2-64Bit/xmc1400-getstarted-optiga-trust-m/Libraries/XMCLib/inc\xmc_usic.h **** /**
 450:C:/Workspace/DAVE-4.4.2-64Bit/xmc1400-getstarted-optiga-trust-m/Libraries/XMCLib/inc\xmc_usic.h **** * USIC channel baudrate generator shift clock output
 451:C:/Workspace/DAVE-4.4.2-64Bit/xmc1400-getstarted-optiga-trust-m/Libraries/XMCLib/inc\xmc_usic.h **** */
 452:C:/Workspace/DAVE-4.4.2-64Bit/xmc1400-getstarted-optiga-trust-m/Libraries/XMCLib/inc\xmc_usic.h **** typedef enum XMC_USIC_CH_BRG_SHIFT_CLOCK_OUTPUT
 453:C:/Workspace/DAVE-4.4.2-64Bit/xmc1400-getstarted-optiga-trust-m/Libraries/XMCLib/inc\xmc_usic.h **** {
 454:C:/Workspace/DAVE-4.4.2-64Bit/xmc1400-getstarted-optiga-trust-m/Libraries/XMCLib/inc\xmc_usic.h ****   XMC_USIC_CH_BRG_SHIFT_CLOCK_OUTPUT_SCLK = 0x0UL, /**< Baudrate generator shift clock output: SCL.
 455:C:/Workspace/DAVE-4.4.2-64Bit/xmc1400-getstarted-optiga-trust-m/Libraries/XMCLib/inc\xmc_usic.h ****   XMC_USIC_CH_BRG_SHIFT_CLOCK_OUTPUT_DX1 = 0x1UL << USIC_CH_BRG_SCLKOSEL_Pos   /**< Baudrate genera
 456:C:/Workspace/DAVE-4.4.2-64Bit/xmc1400-getstarted-optiga-trust-m/Libraries/XMCLib/inc\xmc_usic.h **** } XMC_USIC_CH_BRG_SHIFT_CLOCK_OUTPUT_t;
 457:C:/Workspace/DAVE-4.4.2-64Bit/xmc1400-getstarted-optiga-trust-m/Libraries/XMCLib/inc\xmc_usic.h **** 
 458:C:/Workspace/DAVE-4.4.2-64Bit/xmc1400-getstarted-optiga-trust-m/Libraries/XMCLib/inc\xmc_usic.h **** /**
 459:C:/Workspace/DAVE-4.4.2-64Bit/xmc1400-getstarted-optiga-trust-m/Libraries/XMCLib/inc\xmc_usic.h **** * USIC channel shift direction.
 460:C:/Workspace/DAVE-4.4.2-64Bit/xmc1400-getstarted-optiga-trust-m/Libraries/XMCLib/inc\xmc_usic.h **** * Defines the shift direction of the data words for transmission and reception
 461:C:/Workspace/DAVE-4.4.2-64Bit/xmc1400-getstarted-optiga-trust-m/Libraries/XMCLib/inc\xmc_usic.h **** */
 462:C:/Workspace/DAVE-4.4.2-64Bit/xmc1400-getstarted-optiga-trust-m/Libraries/XMCLib/inc\xmc_usic.h **** typedef enum XMC_USIC_CH_SHIFT_DIRECTION
 463:C:/Workspace/DAVE-4.4.2-64Bit/xmc1400-getstarted-optiga-trust-m/Libraries/XMCLib/inc\xmc_usic.h **** {
 464:C:/Workspace/DAVE-4.4.2-64Bit/xmc1400-getstarted-optiga-trust-m/Libraries/XMCLib/inc\xmc_usic.h ****   XMC_USIC_CH_SHIFT_DIRECTION_LSB_FIRST = 0x0UL, /**< Shift LSB first. The first data bit of a data
 465:C:/Workspace/DAVE-4.4.2-64Bit/xmc1400-getstarted-optiga-trust-m/Libraries/XMCLib/inc\xmc_usic.h ****   XMC_USIC_CH_SHIFT_DIRECTION_MSB_FIRST = 0x1UL << USIC_CH_SCTR_SDIR_Pos /**< Shift MSB first. The 
 466:C:/Workspace/DAVE-4.4.2-64Bit/xmc1400-getstarted-optiga-trust-m/Libraries/XMCLib/inc\xmc_usic.h **** } XMC_USIC_CH_SHIFT_DIRECTION_t;
 467:C:/Workspace/DAVE-4.4.2-64Bit/xmc1400-getstarted-optiga-trust-m/Libraries/XMCLib/inc\xmc_usic.h **** 
 468:C:/Workspace/DAVE-4.4.2-64Bit/xmc1400-getstarted-optiga-trust-m/Libraries/XMCLib/inc\xmc_usic.h **** 
 469:C:/Workspace/DAVE-4.4.2-64Bit/xmc1400-getstarted-optiga-trust-m/Libraries/XMCLib/inc\xmc_usic.h **** /*******************************************************************************
 470:C:/Workspace/DAVE-4.4.2-64Bit/xmc1400-getstarted-optiga-trust-m/Libraries/XMCLib/inc\xmc_usic.h ****  * DATA STRUCTURES
 471:C:/Workspace/DAVE-4.4.2-64Bit/xmc1400-getstarted-optiga-trust-m/Libraries/XMCLib/inc\xmc_usic.h ****  *******************************************************************************/
 472:C:/Workspace/DAVE-4.4.2-64Bit/xmc1400-getstarted-optiga-trust-m/Libraries/XMCLib/inc\xmc_usic.h **** 
 473:C:/Workspace/DAVE-4.4.2-64Bit/xmc1400-getstarted-optiga-trust-m/Libraries/XMCLib/inc\xmc_usic.h **** /*Anonymous structure/union guard start*/
 474:C:/Workspace/DAVE-4.4.2-64Bit/xmc1400-getstarted-optiga-trust-m/Libraries/XMCLib/inc\xmc_usic.h **** #if defined(__CC_ARM)
 475:C:/Workspace/DAVE-4.4.2-64Bit/xmc1400-getstarted-optiga-trust-m/Libraries/XMCLib/inc\xmc_usic.h ****   #pragma push
 476:C:/Workspace/DAVE-4.4.2-64Bit/xmc1400-getstarted-optiga-trust-m/Libraries/XMCLib/inc\xmc_usic.h ****   #pragma anon_unions
 477:C:/Workspace/DAVE-4.4.2-64Bit/xmc1400-getstarted-optiga-trust-m/Libraries/XMCLib/inc\xmc_usic.h **** #elif defined(__TASKING__)
 478:C:/Workspace/DAVE-4.4.2-64Bit/xmc1400-getstarted-optiga-trust-m/Libraries/XMCLib/inc\xmc_usic.h ****   #pragma warning 586
 479:C:/Workspace/DAVE-4.4.2-64Bit/xmc1400-getstarted-optiga-trust-m/Libraries/XMCLib/inc\xmc_usic.h **** #endif
 480:C:/Workspace/DAVE-4.4.2-64Bit/xmc1400-getstarted-optiga-trust-m/Libraries/XMCLib/inc\xmc_usic.h **** 
 481:C:/Workspace/DAVE-4.4.2-64Bit/xmc1400-getstarted-optiga-trust-m/Libraries/XMCLib/inc\xmc_usic.h **** /**
 482:C:/Workspace/DAVE-4.4.2-64Bit/xmc1400-getstarted-optiga-trust-m/Libraries/XMCLib/inc\xmc_usic.h ****  * USIC module structure
 483:C:/Workspace/DAVE-4.4.2-64Bit/xmc1400-getstarted-optiga-trust-m/Libraries/XMCLib/inc\xmc_usic.h ****  */
 484:C:/Workspace/DAVE-4.4.2-64Bit/xmc1400-getstarted-optiga-trust-m/Libraries/XMCLib/inc\xmc_usic.h **** typedef USIC_GLOBAL_TypeDef XMC_USIC_t;
 485:C:/Workspace/DAVE-4.4.2-64Bit/xmc1400-getstarted-optiga-trust-m/Libraries/XMCLib/inc\xmc_usic.h **** 
 486:C:/Workspace/DAVE-4.4.2-64Bit/xmc1400-getstarted-optiga-trust-m/Libraries/XMCLib/inc\xmc_usic.h **** /**
 487:C:/Workspace/DAVE-4.4.2-64Bit/xmc1400-getstarted-optiga-trust-m/Libraries/XMCLib/inc\xmc_usic.h ****  * USIC channel structure.<br> The members of the structure are same as in the device header file, 
 488:C:/Workspace/DAVE-4.4.2-64Bit/xmc1400-getstarted-optiga-trust-m/Libraries/XMCLib/inc\xmc_usic.h ****  * except for some registers.
 489:C:/Workspace/DAVE-4.4.2-64Bit/xmc1400-getstarted-optiga-trust-m/Libraries/XMCLib/inc\xmc_usic.h ****  * DX0CR, DX1CR, DX2CR, DX3CR, DX4CR and DX5CR are replaced with the array DXCR[6].
 490:C:/Workspace/DAVE-4.4.2-64Bit/xmc1400-getstarted-optiga-trust-m/Libraries/XMCLib/inc\xmc_usic.h ****  * TBUF0 to TBUF31 are replaced with TBUF[32].
 491:C:/Workspace/DAVE-4.4.2-64Bit/xmc1400-getstarted-optiga-trust-m/Libraries/XMCLib/inc\xmc_usic.h ****  * IN0 to IN31 are replaced with IN[32].
 492:C:/Workspace/DAVE-4.4.2-64Bit/xmc1400-getstarted-optiga-trust-m/Libraries/XMCLib/inc\xmc_usic.h ****  */
 493:C:/Workspace/DAVE-4.4.2-64Bit/xmc1400-getstarted-optiga-trust-m/Libraries/XMCLib/inc\xmc_usic.h **** typedef struct XMC_USIC_CH
 494:C:/Workspace/DAVE-4.4.2-64Bit/xmc1400-getstarted-optiga-trust-m/Libraries/XMCLib/inc\xmc_usic.h **** {
 495:C:/Workspace/DAVE-4.4.2-64Bit/xmc1400-getstarted-optiga-trust-m/Libraries/XMCLib/inc\xmc_usic.h ****   __I  uint32_t  RESERVED0;
 496:C:/Workspace/DAVE-4.4.2-64Bit/xmc1400-getstarted-optiga-trust-m/Libraries/XMCLib/inc\xmc_usic.h ****   __I  uint32_t  CCFG;			/**< Channel configuration register*/
 497:C:/Workspace/DAVE-4.4.2-64Bit/xmc1400-getstarted-optiga-trust-m/Libraries/XMCLib/inc\xmc_usic.h ****   __I  uint32_t  RESERVED1;
 498:C:/Workspace/DAVE-4.4.2-64Bit/xmc1400-getstarted-optiga-trust-m/Libraries/XMCLib/inc\xmc_usic.h ****   __IO uint32_t  KSCFG;			/**< Kernel state configuration register*/
 499:C:/Workspace/DAVE-4.4.2-64Bit/xmc1400-getstarted-optiga-trust-m/Libraries/XMCLib/inc\xmc_usic.h ****   __IO uint32_t  FDR;			/**< Fractional divider configuration register*/
 500:C:/Workspace/DAVE-4.4.2-64Bit/xmc1400-getstarted-optiga-trust-m/Libraries/XMCLib/inc\xmc_usic.h ****   __IO uint32_t  BRG;			/**< Baud rate generator register*/
 501:C:/Workspace/DAVE-4.4.2-64Bit/xmc1400-getstarted-optiga-trust-m/Libraries/XMCLib/inc\xmc_usic.h ****   __IO uint32_t  INPR;			/**< Interrupt node pointer register*/
 502:C:/Workspace/DAVE-4.4.2-64Bit/xmc1400-getstarted-optiga-trust-m/Libraries/XMCLib/inc\xmc_usic.h ****   __IO uint32_t  DXCR[6];		/**< Input control registers DX0 to DX5.*/
 503:C:/Workspace/DAVE-4.4.2-64Bit/xmc1400-getstarted-optiga-trust-m/Libraries/XMCLib/inc\xmc_usic.h ****   __IO uint32_t  SCTR;			/**< Shift control register*/
 504:C:/Workspace/DAVE-4.4.2-64Bit/xmc1400-getstarted-optiga-trust-m/Libraries/XMCLib/inc\xmc_usic.h ****   __IO uint32_t  TCSR;
 505:C:/Workspace/DAVE-4.4.2-64Bit/xmc1400-getstarted-optiga-trust-m/Libraries/XMCLib/inc\xmc_usic.h **** 
 506:C:/Workspace/DAVE-4.4.2-64Bit/xmc1400-getstarted-optiga-trust-m/Libraries/XMCLib/inc\xmc_usic.h ****   union {
 507:C:/Workspace/DAVE-4.4.2-64Bit/xmc1400-getstarted-optiga-trust-m/Libraries/XMCLib/inc\xmc_usic.h ****     __IO uint32_t  PCR_IICMode;	/**< I2C protocol configuration register*/
 508:C:/Workspace/DAVE-4.4.2-64Bit/xmc1400-getstarted-optiga-trust-m/Libraries/XMCLib/inc\xmc_usic.h ****     __IO uint32_t  PCR_IISMode; /**< I2S protocol configuration register*/
 509:C:/Workspace/DAVE-4.4.2-64Bit/xmc1400-getstarted-optiga-trust-m/Libraries/XMCLib/inc\xmc_usic.h ****     __IO uint32_t  PCR_SSCMode;	/**< SPI protocol configuration register*/
 510:C:/Workspace/DAVE-4.4.2-64Bit/xmc1400-getstarted-optiga-trust-m/Libraries/XMCLib/inc\xmc_usic.h ****     __IO uint32_t  PCR;			/**< Protocol configuration register*/
 511:C:/Workspace/DAVE-4.4.2-64Bit/xmc1400-getstarted-optiga-trust-m/Libraries/XMCLib/inc\xmc_usic.h ****     __IO uint32_t  PCR_ASCMode;	/**< UART protocol configuration register*/
 512:C:/Workspace/DAVE-4.4.2-64Bit/xmc1400-getstarted-optiga-trust-m/Libraries/XMCLib/inc\xmc_usic.h ****   };
 513:C:/Workspace/DAVE-4.4.2-64Bit/xmc1400-getstarted-optiga-trust-m/Libraries/XMCLib/inc\xmc_usic.h ****   __IO uint32_t  CCR;			/**< Channel control register*/
 514:C:/Workspace/DAVE-4.4.2-64Bit/xmc1400-getstarted-optiga-trust-m/Libraries/XMCLib/inc\xmc_usic.h ****   __IO uint32_t  CMTR;			/**< Capture mode timer register*/
 515:C:/Workspace/DAVE-4.4.2-64Bit/xmc1400-getstarted-optiga-trust-m/Libraries/XMCLib/inc\xmc_usic.h **** 
 516:C:/Workspace/DAVE-4.4.2-64Bit/xmc1400-getstarted-optiga-trust-m/Libraries/XMCLib/inc\xmc_usic.h ****   union {
 517:C:/Workspace/DAVE-4.4.2-64Bit/xmc1400-getstarted-optiga-trust-m/Libraries/XMCLib/inc\xmc_usic.h ****     __IO uint32_t  PSR_IICMode;	/**< I2C protocol status register*/
 518:C:/Workspace/DAVE-4.4.2-64Bit/xmc1400-getstarted-optiga-trust-m/Libraries/XMCLib/inc\xmc_usic.h ****     __IO uint32_t  PSR_IISMode;	/**< I2S protocol status register*/
 519:C:/Workspace/DAVE-4.4.2-64Bit/xmc1400-getstarted-optiga-trust-m/Libraries/XMCLib/inc\xmc_usic.h ****     __IO uint32_t  PSR_SSCMode;	/**< SPI protocol status register*/
 520:C:/Workspace/DAVE-4.4.2-64Bit/xmc1400-getstarted-optiga-trust-m/Libraries/XMCLib/inc\xmc_usic.h ****     __IO uint32_t  PSR;			/**< Protocol status register*/
 521:C:/Workspace/DAVE-4.4.2-64Bit/xmc1400-getstarted-optiga-trust-m/Libraries/XMCLib/inc\xmc_usic.h ****     __IO uint32_t  PSR_ASCMode;	/**< UART protocol status register*/
 522:C:/Workspace/DAVE-4.4.2-64Bit/xmc1400-getstarted-optiga-trust-m/Libraries/XMCLib/inc\xmc_usic.h ****   };
 523:C:/Workspace/DAVE-4.4.2-64Bit/xmc1400-getstarted-optiga-trust-m/Libraries/XMCLib/inc\xmc_usic.h ****   __O  uint32_t  PSCR;			/**< Protocol status clear register*/
 524:C:/Workspace/DAVE-4.4.2-64Bit/xmc1400-getstarted-optiga-trust-m/Libraries/XMCLib/inc\xmc_usic.h ****   __I  uint32_t  RBUFSR;		/**< Receive buffer status register*/
 525:C:/Workspace/DAVE-4.4.2-64Bit/xmc1400-getstarted-optiga-trust-m/Libraries/XMCLib/inc\xmc_usic.h ****   __I  uint32_t  RBUF;			/**< Receive buffer register*/
 526:C:/Workspace/DAVE-4.4.2-64Bit/xmc1400-getstarted-optiga-trust-m/Libraries/XMCLib/inc\xmc_usic.h ****   __I  uint32_t  RBUFD;			/**< Debug mode receive buffer register*/
 527:C:/Workspace/DAVE-4.4.2-64Bit/xmc1400-getstarted-optiga-trust-m/Libraries/XMCLib/inc\xmc_usic.h ****   __I  uint32_t  RBUF0;			/**< Receive buffer 0*/
 528:C:/Workspace/DAVE-4.4.2-64Bit/xmc1400-getstarted-optiga-trust-m/Libraries/XMCLib/inc\xmc_usic.h ****   __I  uint32_t  RBUF1;			/**< Receive buffer 1*/
 529:C:/Workspace/DAVE-4.4.2-64Bit/xmc1400-getstarted-optiga-trust-m/Libraries/XMCLib/inc\xmc_usic.h ****   __I  uint32_t  RBUF01SR;		/**< Receive buffer status register*/
 530:C:/Workspace/DAVE-4.4.2-64Bit/xmc1400-getstarted-optiga-trust-m/Libraries/XMCLib/inc\xmc_usic.h ****   __O  uint32_t  FMR;			/**< Flag modification register*/
 531:C:/Workspace/DAVE-4.4.2-64Bit/xmc1400-getstarted-optiga-trust-m/Libraries/XMCLib/inc\xmc_usic.h ****   __I  uint32_t  RESERVED2[5];
 532:C:/Workspace/DAVE-4.4.2-64Bit/xmc1400-getstarted-optiga-trust-m/Libraries/XMCLib/inc\xmc_usic.h ****   __IO uint32_t  TBUF[32];		/**< Tranmsit buffer registers*/
 533:C:/Workspace/DAVE-4.4.2-64Bit/xmc1400-getstarted-optiga-trust-m/Libraries/XMCLib/inc\xmc_usic.h ****   __IO uint32_t  BYP;			/**< FIFO bypass register*/
 534:C:/Workspace/DAVE-4.4.2-64Bit/xmc1400-getstarted-optiga-trust-m/Libraries/XMCLib/inc\xmc_usic.h ****   __IO uint32_t  BYPCR;			/**< FIFO bypass control register*/
 535:C:/Workspace/DAVE-4.4.2-64Bit/xmc1400-getstarted-optiga-trust-m/Libraries/XMCLib/inc\xmc_usic.h ****   __IO uint32_t  TBCTR;			/**< Transmit FIFO control register*/
 536:C:/Workspace/DAVE-4.4.2-64Bit/xmc1400-getstarted-optiga-trust-m/Libraries/XMCLib/inc\xmc_usic.h ****   __IO uint32_t  RBCTR;			/**< Receive FIFO control register*/
 537:C:/Workspace/DAVE-4.4.2-64Bit/xmc1400-getstarted-optiga-trust-m/Libraries/XMCLib/inc\xmc_usic.h ****   __I  uint32_t  TRBPTR;		/**< Transmit/recive buffer pointer register*/
 538:C:/Workspace/DAVE-4.4.2-64Bit/xmc1400-getstarted-optiga-trust-m/Libraries/XMCLib/inc\xmc_usic.h ****   __IO uint32_t  TRBSR;			/**< Transmit/receive buffer status register*/
 539:C:/Workspace/DAVE-4.4.2-64Bit/xmc1400-getstarted-optiga-trust-m/Libraries/XMCLib/inc\xmc_usic.h ****   __O  uint32_t  TRBSCR;		/**< Transmit/receive buffer status clear register*/
 540:C:/Workspace/DAVE-4.4.2-64Bit/xmc1400-getstarted-optiga-trust-m/Libraries/XMCLib/inc\xmc_usic.h ****   __I  uint32_t  OUTR;			/**< Receive FIFO output register*/
 541:C:/Workspace/DAVE-4.4.2-64Bit/xmc1400-getstarted-optiga-trust-m/Libraries/XMCLib/inc\xmc_usic.h ****   __I  uint32_t  OUTDR;			/**< Receive FIFO debug output register*/
 542:C:/Workspace/DAVE-4.4.2-64Bit/xmc1400-getstarted-optiga-trust-m/Libraries/XMCLib/inc\xmc_usic.h ****   __I  uint32_t  RESERVED3[23];
 543:C:/Workspace/DAVE-4.4.2-64Bit/xmc1400-getstarted-optiga-trust-m/Libraries/XMCLib/inc\xmc_usic.h ****   __O  uint32_t  IN[32];		/**< Transmit FIFO input register*/
 544:C:/Workspace/DAVE-4.4.2-64Bit/xmc1400-getstarted-optiga-trust-m/Libraries/XMCLib/inc\xmc_usic.h **** } XMC_USIC_CH_t;
 545:C:/Workspace/DAVE-4.4.2-64Bit/xmc1400-getstarted-optiga-trust-m/Libraries/XMCLib/inc\xmc_usic.h **** 
 546:C:/Workspace/DAVE-4.4.2-64Bit/xmc1400-getstarted-optiga-trust-m/Libraries/XMCLib/inc\xmc_usic.h **** 
 547:C:/Workspace/DAVE-4.4.2-64Bit/xmc1400-getstarted-optiga-trust-m/Libraries/XMCLib/inc\xmc_usic.h **** /*Anonymous structure/union guard end*/
 548:C:/Workspace/DAVE-4.4.2-64Bit/xmc1400-getstarted-optiga-trust-m/Libraries/XMCLib/inc\xmc_usic.h **** #if defined(__CC_ARM)
 549:C:/Workspace/DAVE-4.4.2-64Bit/xmc1400-getstarted-optiga-trust-m/Libraries/XMCLib/inc\xmc_usic.h ****   #pragma pop
 550:C:/Workspace/DAVE-4.4.2-64Bit/xmc1400-getstarted-optiga-trust-m/Libraries/XMCLib/inc\xmc_usic.h **** #elif defined(__TASKING__)
 551:C:/Workspace/DAVE-4.4.2-64Bit/xmc1400-getstarted-optiga-trust-m/Libraries/XMCLib/inc\xmc_usic.h ****   #pragma warning restore
 552:C:/Workspace/DAVE-4.4.2-64Bit/xmc1400-getstarted-optiga-trust-m/Libraries/XMCLib/inc\xmc_usic.h **** #endif
 553:C:/Workspace/DAVE-4.4.2-64Bit/xmc1400-getstarted-optiga-trust-m/Libraries/XMCLib/inc\xmc_usic.h **** 
 554:C:/Workspace/DAVE-4.4.2-64Bit/xmc1400-getstarted-optiga-trust-m/Libraries/XMCLib/inc\xmc_usic.h **** /*******************************************************************************
 555:C:/Workspace/DAVE-4.4.2-64Bit/xmc1400-getstarted-optiga-trust-m/Libraries/XMCLib/inc\xmc_usic.h ****  * API PROTOTYPES
 556:C:/Workspace/DAVE-4.4.2-64Bit/xmc1400-getstarted-optiga-trust-m/Libraries/XMCLib/inc\xmc_usic.h ****  ******************************************************************************/
 557:C:/Workspace/DAVE-4.4.2-64Bit/xmc1400-getstarted-optiga-trust-m/Libraries/XMCLib/inc\xmc_usic.h **** 
 558:C:/Workspace/DAVE-4.4.2-64Bit/xmc1400-getstarted-optiga-trust-m/Libraries/XMCLib/inc\xmc_usic.h **** #ifdef __cplusplus
 559:C:/Workspace/DAVE-4.4.2-64Bit/xmc1400-getstarted-optiga-trust-m/Libraries/XMCLib/inc\xmc_usic.h **** extern "C" {
 560:C:/Workspace/DAVE-4.4.2-64Bit/xmc1400-getstarted-optiga-trust-m/Libraries/XMCLib/inc\xmc_usic.h **** #endif
 561:C:/Workspace/DAVE-4.4.2-64Bit/xmc1400-getstarted-optiga-trust-m/Libraries/XMCLib/inc\xmc_usic.h **** 
 562:C:/Workspace/DAVE-4.4.2-64Bit/xmc1400-getstarted-optiga-trust-m/Libraries/XMCLib/inc\xmc_usic.h **** __STATIC_INLINE bool XMC_USIC_IsModuleValid(const XMC_USIC_t *const module)
 563:C:/Workspace/DAVE-4.4.2-64Bit/xmc1400-getstarted-optiga-trust-m/Libraries/XMCLib/inc\xmc_usic.h **** {
 564:C:/Workspace/DAVE-4.4.2-64Bit/xmc1400-getstarted-optiga-trust-m/Libraries/XMCLib/inc\xmc_usic.h ****   bool tmp;
 565:C:/Workspace/DAVE-4.4.2-64Bit/xmc1400-getstarted-optiga-trust-m/Libraries/XMCLib/inc\xmc_usic.h **** 
 566:C:/Workspace/DAVE-4.4.2-64Bit/xmc1400-getstarted-optiga-trust-m/Libraries/XMCLib/inc\xmc_usic.h ****   tmp = (module == XMC_USIC0);
 567:C:/Workspace/DAVE-4.4.2-64Bit/xmc1400-getstarted-optiga-trust-m/Libraries/XMCLib/inc\xmc_usic.h **** #if defined(XMC_USIC1)  
 568:C:/Workspace/DAVE-4.4.2-64Bit/xmc1400-getstarted-optiga-trust-m/Libraries/XMCLib/inc\xmc_usic.h ****   tmp = tmp || (module == XMC_USIC1);
 569:C:/Workspace/DAVE-4.4.2-64Bit/xmc1400-getstarted-optiga-trust-m/Libraries/XMCLib/inc\xmc_usic.h **** #endif
 570:C:/Workspace/DAVE-4.4.2-64Bit/xmc1400-getstarted-optiga-trust-m/Libraries/XMCLib/inc\xmc_usic.h **** #if defined(XMC_USIC2)  
 571:C:/Workspace/DAVE-4.4.2-64Bit/xmc1400-getstarted-optiga-trust-m/Libraries/XMCLib/inc\xmc_usic.h ****   tmp = tmp || (module == XMC_USIC2);
 572:C:/Workspace/DAVE-4.4.2-64Bit/xmc1400-getstarted-optiga-trust-m/Libraries/XMCLib/inc\xmc_usic.h **** #endif
 573:C:/Workspace/DAVE-4.4.2-64Bit/xmc1400-getstarted-optiga-trust-m/Libraries/XMCLib/inc\xmc_usic.h **** 
 574:C:/Workspace/DAVE-4.4.2-64Bit/xmc1400-getstarted-optiga-trust-m/Libraries/XMCLib/inc\xmc_usic.h ****   return tmp;
 575:C:/Workspace/DAVE-4.4.2-64Bit/xmc1400-getstarted-optiga-trust-m/Libraries/XMCLib/inc\xmc_usic.h **** }
 576:C:/Workspace/DAVE-4.4.2-64Bit/xmc1400-getstarted-optiga-trust-m/Libraries/XMCLib/inc\xmc_usic.h **** 
 577:C:/Workspace/DAVE-4.4.2-64Bit/xmc1400-getstarted-optiga-trust-m/Libraries/XMCLib/inc\xmc_usic.h **** __STATIC_INLINE bool XMC_USIC_IsChannelValid(const XMC_USIC_CH_t *const channel)
 578:C:/Workspace/DAVE-4.4.2-64Bit/xmc1400-getstarted-optiga-trust-m/Libraries/XMCLib/inc\xmc_usic.h **** {
 579:C:/Workspace/DAVE-4.4.2-64Bit/xmc1400-getstarted-optiga-trust-m/Libraries/XMCLib/inc\xmc_usic.h ****   bool tmp;
 580:C:/Workspace/DAVE-4.4.2-64Bit/xmc1400-getstarted-optiga-trust-m/Libraries/XMCLib/inc\xmc_usic.h **** 
 581:C:/Workspace/DAVE-4.4.2-64Bit/xmc1400-getstarted-optiga-trust-m/Libraries/XMCLib/inc\xmc_usic.h ****   tmp = ((channel == XMC_USIC0_CH0) || (channel == XMC_USIC0_CH1));
 582:C:/Workspace/DAVE-4.4.2-64Bit/xmc1400-getstarted-optiga-trust-m/Libraries/XMCLib/inc\xmc_usic.h **** #if defined(XMC_USIC1)  
 583:C:/Workspace/DAVE-4.4.2-64Bit/xmc1400-getstarted-optiga-trust-m/Libraries/XMCLib/inc\xmc_usic.h ****   tmp = tmp || ((channel == XMC_USIC1_CH0) || (channel == XMC_USIC1_CH1));
 584:C:/Workspace/DAVE-4.4.2-64Bit/xmc1400-getstarted-optiga-trust-m/Libraries/XMCLib/inc\xmc_usic.h **** #endif
 585:C:/Workspace/DAVE-4.4.2-64Bit/xmc1400-getstarted-optiga-trust-m/Libraries/XMCLib/inc\xmc_usic.h **** #if defined(XMC_USIC2)  
 586:C:/Workspace/DAVE-4.4.2-64Bit/xmc1400-getstarted-optiga-trust-m/Libraries/XMCLib/inc\xmc_usic.h ****   tmp = tmp || ((channel == XMC_USIC2_CH0) || (channel == XMC_USIC2_CH1));
 587:C:/Workspace/DAVE-4.4.2-64Bit/xmc1400-getstarted-optiga-trust-m/Libraries/XMCLib/inc\xmc_usic.h **** #endif
 588:C:/Workspace/DAVE-4.4.2-64Bit/xmc1400-getstarted-optiga-trust-m/Libraries/XMCLib/inc\xmc_usic.h **** 
 589:C:/Workspace/DAVE-4.4.2-64Bit/xmc1400-getstarted-optiga-trust-m/Libraries/XMCLib/inc\xmc_usic.h ****   return tmp;
 590:C:/Workspace/DAVE-4.4.2-64Bit/xmc1400-getstarted-optiga-trust-m/Libraries/XMCLib/inc\xmc_usic.h **** }
 591:C:/Workspace/DAVE-4.4.2-64Bit/xmc1400-getstarted-optiga-trust-m/Libraries/XMCLib/inc\xmc_usic.h **** 
 592:C:/Workspace/DAVE-4.4.2-64Bit/xmc1400-getstarted-optiga-trust-m/Libraries/XMCLib/inc\xmc_usic.h **** /* Common APIs */
 593:C:/Workspace/DAVE-4.4.2-64Bit/xmc1400-getstarted-optiga-trust-m/Libraries/XMCLib/inc\xmc_usic.h **** 
 594:C:/Workspace/DAVE-4.4.2-64Bit/xmc1400-getstarted-optiga-trust-m/Libraries/XMCLib/inc\xmc_usic.h **** /**
 595:C:/Workspace/DAVE-4.4.2-64Bit/xmc1400-getstarted-optiga-trust-m/Libraries/XMCLib/inc\xmc_usic.h ****  * @param  usic Pointer to USIC module handler of type @ref XMC_USIC_t.\n
 596:C:/Workspace/DAVE-4.4.2-64Bit/xmc1400-getstarted-optiga-trust-m/Libraries/XMCLib/inc\xmc_usic.h ****  * 				\b Range: @ref XMC_USIC0 to @ref XMC_USIC2 based on device support.
 597:C:/Workspace/DAVE-4.4.2-64Bit/xmc1400-getstarted-optiga-trust-m/Libraries/XMCLib/inc\xmc_usic.h ****  * @return None
 598:C:/Workspace/DAVE-4.4.2-64Bit/xmc1400-getstarted-optiga-trust-m/Libraries/XMCLib/inc\xmc_usic.h ****  * 
 599:C:/Workspace/DAVE-4.4.2-64Bit/xmc1400-getstarted-optiga-trust-m/Libraries/XMCLib/inc\xmc_usic.h ****  * \par<b>Description</b><br>
 600:C:/Workspace/DAVE-4.4.2-64Bit/xmc1400-getstarted-optiga-trust-m/Libraries/XMCLib/inc\xmc_usic.h ****  * Enables the USIC module.\n\n
 601:C:/Workspace/DAVE-4.4.2-64Bit/xmc1400-getstarted-optiga-trust-m/Libraries/XMCLib/inc\xmc_usic.h ****  * Enables the clock for the USIC module by following the
 602:C:/Workspace/DAVE-4.4.2-64Bit/xmc1400-getstarted-optiga-trust-m/Libraries/XMCLib/inc\xmc_usic.h ****  * clock enabling sequence for the selected device.
 603:C:/Workspace/DAVE-4.4.2-64Bit/xmc1400-getstarted-optiga-trust-m/Libraries/XMCLib/inc\xmc_usic.h ****  *
 604:C:/Workspace/DAVE-4.4.2-64Bit/xmc1400-getstarted-optiga-trust-m/Libraries/XMCLib/inc\xmc_usic.h ****  * \par<b>Related APIs:</b><BR>
 605:C:/Workspace/DAVE-4.4.2-64Bit/xmc1400-getstarted-optiga-trust-m/Libraries/XMCLib/inc\xmc_usic.h ****  * XMC_USIC_CH_Enable(), XMC_USIC_Disable() \n\n\n
 606:C:/Workspace/DAVE-4.4.2-64Bit/xmc1400-getstarted-optiga-trust-m/Libraries/XMCLib/inc\xmc_usic.h ****  */
 607:C:/Workspace/DAVE-4.4.2-64Bit/xmc1400-getstarted-optiga-trust-m/Libraries/XMCLib/inc\xmc_usic.h **** void XMC_USIC_Enable(XMC_USIC_t *const usic);
 608:C:/Workspace/DAVE-4.4.2-64Bit/xmc1400-getstarted-optiga-trust-m/Libraries/XMCLib/inc\xmc_usic.h **** /**
 609:C:/Workspace/DAVE-4.4.2-64Bit/xmc1400-getstarted-optiga-trust-m/Libraries/XMCLib/inc\xmc_usic.h ****  * @param  usic Pointer to USIC module handler of type @ref XMC_USIC_t.\n
 610:C:/Workspace/DAVE-4.4.2-64Bit/xmc1400-getstarted-optiga-trust-m/Libraries/XMCLib/inc\xmc_usic.h ****  * 				\b Range: @ref XMC_USIC0 to @ref XMC_USIC2 based on device support.
 611:C:/Workspace/DAVE-4.4.2-64Bit/xmc1400-getstarted-optiga-trust-m/Libraries/XMCLib/inc\xmc_usic.h ****  * @return None
 612:C:/Workspace/DAVE-4.4.2-64Bit/xmc1400-getstarted-optiga-trust-m/Libraries/XMCLib/inc\xmc_usic.h ****  *
 613:C:/Workspace/DAVE-4.4.2-64Bit/xmc1400-getstarted-optiga-trust-m/Libraries/XMCLib/inc\xmc_usic.h ****  * \par<b>Description</b><br>
 614:C:/Workspace/DAVE-4.4.2-64Bit/xmc1400-getstarted-optiga-trust-m/Libraries/XMCLib/inc\xmc_usic.h ****  * Disables the USIC module.\n\n
 615:C:/Workspace/DAVE-4.4.2-64Bit/xmc1400-getstarted-optiga-trust-m/Libraries/XMCLib/inc\xmc_usic.h ****  * Disables the clock for the USIC module by following the clock
 616:C:/Workspace/DAVE-4.4.2-64Bit/xmc1400-getstarted-optiga-trust-m/Libraries/XMCLib/inc\xmc_usic.h ****  * disabling sequence for the selected device.
 617:C:/Workspace/DAVE-4.4.2-64Bit/xmc1400-getstarted-optiga-trust-m/Libraries/XMCLib/inc\xmc_usic.h ****  *
 618:C:/Workspace/DAVE-4.4.2-64Bit/xmc1400-getstarted-optiga-trust-m/Libraries/XMCLib/inc\xmc_usic.h ****  * \par<b>Related APIs:</b><BR>
 619:C:/Workspace/DAVE-4.4.2-64Bit/xmc1400-getstarted-optiga-trust-m/Libraries/XMCLib/inc\xmc_usic.h ****  * XMC_USIC_CH_Disable(), XMC_USIC_Enable() \n\n\n
 620:C:/Workspace/DAVE-4.4.2-64Bit/xmc1400-getstarted-optiga-trust-m/Libraries/XMCLib/inc\xmc_usic.h ****  */
 621:C:/Workspace/DAVE-4.4.2-64Bit/xmc1400-getstarted-optiga-trust-m/Libraries/XMCLib/inc\xmc_usic.h **** void XMC_USIC_Disable(XMC_USIC_t *const usic);
 622:C:/Workspace/DAVE-4.4.2-64Bit/xmc1400-getstarted-optiga-trust-m/Libraries/XMCLib/inc\xmc_usic.h **** /**
 623:C:/Workspace/DAVE-4.4.2-64Bit/xmc1400-getstarted-optiga-trust-m/Libraries/XMCLib/inc\xmc_usic.h ****  * @param  channel Pointer to USIC channel handler of type @ref XMC_USIC_CH_t \n
 624:C:/Workspace/DAVE-4.4.2-64Bit/xmc1400-getstarted-optiga-trust-m/Libraries/XMCLib/inc\xmc_usic.h ****  * 				   \b Range: @ref XMC_USIC0_CH0, @ref XMC_USIC0_CH1 to @ref XMC_USIC2_CH1 based on device su
 625:C:/Workspace/DAVE-4.4.2-64Bit/xmc1400-getstarted-optiga-trust-m/Libraries/XMCLib/inc\xmc_usic.h ****  * @return None
 626:C:/Workspace/DAVE-4.4.2-64Bit/xmc1400-getstarted-optiga-trust-m/Libraries/XMCLib/inc\xmc_usic.h ****  *
 627:C:/Workspace/DAVE-4.4.2-64Bit/xmc1400-getstarted-optiga-trust-m/Libraries/XMCLib/inc\xmc_usic.h ****  * \par<b>Description</b><br>
 628:C:/Workspace/DAVE-4.4.2-64Bit/xmc1400-getstarted-optiga-trust-m/Libraries/XMCLib/inc\xmc_usic.h ****  * Enables the USIC channel. \n\n
 629:C:/Workspace/DAVE-4.4.2-64Bit/xmc1400-getstarted-optiga-trust-m/Libraries/XMCLib/inc\xmc_usic.h ****  * USIC channel is enabled by setting the module enable bit in KSCFG register bitfield MODEN.
 630:C:/Workspace/DAVE-4.4.2-64Bit/xmc1400-getstarted-optiga-trust-m/Libraries/XMCLib/inc\xmc_usic.h ****  * On enabling, the channel is set to idle mode.
 631:C:/Workspace/DAVE-4.4.2-64Bit/xmc1400-getstarted-optiga-trust-m/Libraries/XMCLib/inc\xmc_usic.h ****  *
 632:C:/Workspace/DAVE-4.4.2-64Bit/xmc1400-getstarted-optiga-trust-m/Libraries/XMCLib/inc\xmc_usic.h ****  * \par<b>Related APIs:</b><BR>
 633:C:/Workspace/DAVE-4.4.2-64Bit/xmc1400-getstarted-optiga-trust-m/Libraries/XMCLib/inc\xmc_usic.h ****  * XMC_USIC_CH_Disable(), XMC_USIC_Enable() \n\n\n
 634:C:/Workspace/DAVE-4.4.2-64Bit/xmc1400-getstarted-optiga-trust-m/Libraries/XMCLib/inc\xmc_usic.h ****  */
 635:C:/Workspace/DAVE-4.4.2-64Bit/xmc1400-getstarted-optiga-trust-m/Libraries/XMCLib/inc\xmc_usic.h **** void XMC_USIC_CH_Enable(XMC_USIC_CH_t *const channel);
 636:C:/Workspace/DAVE-4.4.2-64Bit/xmc1400-getstarted-optiga-trust-m/Libraries/XMCLib/inc\xmc_usic.h **** /**
 637:C:/Workspace/DAVE-4.4.2-64Bit/xmc1400-getstarted-optiga-trust-m/Libraries/XMCLib/inc\xmc_usic.h ****  * @param  channel Pointer to USIC channel handler of type @ref XMC_USIC_CH_t \n
 638:C:/Workspace/DAVE-4.4.2-64Bit/xmc1400-getstarted-optiga-trust-m/Libraries/XMCLib/inc\xmc_usic.h ****  * 				   \b Range: @ref XMC_USIC0_CH0, @ref XMC_USIC0_CH1 to @ref XMC_USIC2_CH1 based on device su
 639:C:/Workspace/DAVE-4.4.2-64Bit/xmc1400-getstarted-optiga-trust-m/Libraries/XMCLib/inc\xmc_usic.h ****  * @return None
 640:C:/Workspace/DAVE-4.4.2-64Bit/xmc1400-getstarted-optiga-trust-m/Libraries/XMCLib/inc\xmc_usic.h ****  *
 641:C:/Workspace/DAVE-4.4.2-64Bit/xmc1400-getstarted-optiga-trust-m/Libraries/XMCLib/inc\xmc_usic.h ****  * \par<b>Description</b><br>
 642:C:/Workspace/DAVE-4.4.2-64Bit/xmc1400-getstarted-optiga-trust-m/Libraries/XMCLib/inc\xmc_usic.h ****  * Disables the USIC channel.\n\n
 643:C:/Workspace/DAVE-4.4.2-64Bit/xmc1400-getstarted-optiga-trust-m/Libraries/XMCLib/inc\xmc_usic.h ****  * USIC channel is disabled by setting the module enable bit(MDEN) to 0 in the register KSCFG.
 644:C:/Workspace/DAVE-4.4.2-64Bit/xmc1400-getstarted-optiga-trust-m/Libraries/XMCLib/inc\xmc_usic.h ****  *
 645:C:/Workspace/DAVE-4.4.2-64Bit/xmc1400-getstarted-optiga-trust-m/Libraries/XMCLib/inc\xmc_usic.h ****  * \par<b>Related APIs:</b><BR>
 646:C:/Workspace/DAVE-4.4.2-64Bit/xmc1400-getstarted-optiga-trust-m/Libraries/XMCLib/inc\xmc_usic.h ****  * XMC_USIC_CH_Enable(), XMC_USIC_Disable() \n\n\n
 647:C:/Workspace/DAVE-4.4.2-64Bit/xmc1400-getstarted-optiga-trust-m/Libraries/XMCLib/inc\xmc_usic.h ****  */
 648:C:/Workspace/DAVE-4.4.2-64Bit/xmc1400-getstarted-optiga-trust-m/Libraries/XMCLib/inc\xmc_usic.h **** void XMC_USIC_CH_Disable(XMC_USIC_CH_t *const channel);
 649:C:/Workspace/DAVE-4.4.2-64Bit/xmc1400-getstarted-optiga-trust-m/Libraries/XMCLib/inc\xmc_usic.h **** 
 650:C:/Workspace/DAVE-4.4.2-64Bit/xmc1400-getstarted-optiga-trust-m/Libraries/XMCLib/inc\xmc_usic.h **** /**
 651:C:/Workspace/DAVE-4.4.2-64Bit/xmc1400-getstarted-optiga-trust-m/Libraries/XMCLib/inc\xmc_usic.h ****  * @param  channel Pointer to USIC channel handler of type @ref XMC_USIC_CH_t \n
 652:C:/Workspace/DAVE-4.4.2-64Bit/xmc1400-getstarted-optiga-trust-m/Libraries/XMCLib/inc\xmc_usic.h ****  * 				   \b Range: @ref XMC_USIC0_CH0, @ref XMC_USIC0_CH1 to @ref XMC_USIC2_CH1 based on device su
 653:C:/Workspace/DAVE-4.4.2-64Bit/xmc1400-getstarted-optiga-trust-m/Libraries/XMCLib/inc\xmc_usic.h ****  * @param  rate Desired baudrate. \b Range: minimum value = 100, maximum value depends on the perip
 654:C:/Workspace/DAVE-4.4.2-64Bit/xmc1400-getstarted-optiga-trust-m/Libraries/XMCLib/inc\xmc_usic.h ****  * 				and \a oversampling. Maximum baudrate can be derived using the formula: (fperiph * 1023)/(10
 655:C:/Workspace/DAVE-4.4.2-64Bit/xmc1400-getstarted-optiga-trust-m/Libraries/XMCLib/inc\xmc_usic.h ****  * @param  oversampling Required oversampling. The value indicates the number of time quanta for on
 656:C:/Workspace/DAVE-4.4.2-64Bit/xmc1400-getstarted-optiga-trust-m/Libraries/XMCLib/inc\xmc_usic.h ****  * 						This can be related to the number of samples for each logic state of the data signal. \n
 657:C:/Workspace/DAVE-4.4.2-64Bit/xmc1400-getstarted-optiga-trust-m/Libraries/XMCLib/inc\xmc_usic.h ****  * 						\b Range: 1 to 32. Value should be chosen based on the protocol used.
 658:C:/Workspace/DAVE-4.4.2-64Bit/xmc1400-getstarted-optiga-trust-m/Libraries/XMCLib/inc\xmc_usic.h ****  * @return Status indicating the baudrate configuration.\n
 659:C:/Workspace/DAVE-4.4.2-64Bit/xmc1400-getstarted-optiga-trust-m/Libraries/XMCLib/inc\xmc_usic.h ****  * 			\b Range: @ref XMC_USIC_CH_STATUS_OK if baudrate is successfully configured,
 660:C:/Workspace/DAVE-4.4.2-64Bit/xmc1400-getstarted-optiga-trust-m/Libraries/XMCLib/inc\xmc_usic.h ****  * 					  @ref XMC_USIC_CH_STATUS_ERROR if desired baudrate or oversampling is invalid.
 661:C:/Workspace/DAVE-4.4.2-64Bit/xmc1400-getstarted-optiga-trust-m/Libraries/XMCLib/inc\xmc_usic.h ****  *
 662:C:/Workspace/DAVE-4.4.2-64Bit/xmc1400-getstarted-optiga-trust-m/Libraries/XMCLib/inc\xmc_usic.h ****  * \par<b>Description</b><br>
 663:C:/Workspace/DAVE-4.4.2-64Bit/xmc1400-getstarted-optiga-trust-m/Libraries/XMCLib/inc\xmc_usic.h ****  * Configures the baudrate of the USIC channel. \n\n
 664:C:/Workspace/DAVE-4.4.2-64Bit/xmc1400-getstarted-optiga-trust-m/Libraries/XMCLib/inc\xmc_usic.h ****  * Baudrate is configured by considering the peripheral frequency and the desired baudrate.
 665:C:/Workspace/DAVE-4.4.2-64Bit/xmc1400-getstarted-optiga-trust-m/Libraries/XMCLib/inc\xmc_usic.h ****  * Optimum values of FDR->STEP and BRG->PDIV are calulated and used for generating the desired
 666:C:/Workspace/DAVE-4.4.2-64Bit/xmc1400-getstarted-optiga-trust-m/Libraries/XMCLib/inc\xmc_usic.h ****  * baudrate.
 667:C:/Workspace/DAVE-4.4.2-64Bit/xmc1400-getstarted-optiga-trust-m/Libraries/XMCLib/inc\xmc_usic.h ****  *
 668:C:/Workspace/DAVE-4.4.2-64Bit/xmc1400-getstarted-optiga-trust-m/Libraries/XMCLib/inc\xmc_usic.h ****  * \par<b>Related APIs:</b><BR>
 669:C:/Workspace/DAVE-4.4.2-64Bit/xmc1400-getstarted-optiga-trust-m/Libraries/XMCLib/inc\xmc_usic.h ****  * XMC_USIC_CH_SetStartTransmisionMode(), XMC_USIC_CH_SetInputSource() \n\n\n
 670:C:/Workspace/DAVE-4.4.2-64Bit/xmc1400-getstarted-optiga-trust-m/Libraries/XMCLib/inc\xmc_usic.h ****  */
 671:C:/Workspace/DAVE-4.4.2-64Bit/xmc1400-getstarted-optiga-trust-m/Libraries/XMCLib/inc\xmc_usic.h **** XMC_USIC_CH_STATUS_t XMC_USIC_CH_SetBaudrate(XMC_USIC_CH_t *const channel, uint32_t rate, uint32_t 
 672:C:/Workspace/DAVE-4.4.2-64Bit/xmc1400-getstarted-optiga-trust-m/Libraries/XMCLib/inc\xmc_usic.h **** 
 673:C:/Workspace/DAVE-4.4.2-64Bit/xmc1400-getstarted-optiga-trust-m/Libraries/XMCLib/inc\xmc_usic.h **** /**
 674:C:/Workspace/DAVE-4.4.2-64Bit/xmc1400-getstarted-optiga-trust-m/Libraries/XMCLib/inc\xmc_usic.h ****  * @param  channel Pointer to USIC channel handler of type @ref XMC_USIC_CH_t \n
 675:C:/Workspace/DAVE-4.4.2-64Bit/xmc1400-getstarted-optiga-trust-m/Libraries/XMCLib/inc\xmc_usic.h ****  *           \b Range: @ref XMC_USIC0_CH0, @ref XMC_USIC0_CH1 to @ref XMC_USIC2_CH1 based on device
 676:C:/Workspace/DAVE-4.4.2-64Bit/xmc1400-getstarted-optiga-trust-m/Libraries/XMCLib/inc\xmc_usic.h ****  * @param  rate Desired baudrate. Only integer dividers of peripheral clock are achievable
 677:C:/Workspace/DAVE-4.4.2-64Bit/xmc1400-getstarted-optiga-trust-m/Libraries/XMCLib/inc\xmc_usic.h ****  * @param  oversampling Required oversampling. The value indicates the number of time quanta for on
 678:C:/Workspace/DAVE-4.4.2-64Bit/xmc1400-getstarted-optiga-trust-m/Libraries/XMCLib/inc\xmc_usic.h ****  *            This can be related to the number of samples for each logic state of the data signal.
 679:C:/Workspace/DAVE-4.4.2-64Bit/xmc1400-getstarted-optiga-trust-m/Libraries/XMCLib/inc\xmc_usic.h ****  *            \b Range: 1 to 32. Value should be chosen based on the protocol used.
 680:C:/Workspace/DAVE-4.4.2-64Bit/xmc1400-getstarted-optiga-trust-m/Libraries/XMCLib/inc\xmc_usic.h ****  * @return Status indicating the baudrate configuration.\n
 681:C:/Workspace/DAVE-4.4.2-64Bit/xmc1400-getstarted-optiga-trust-m/Libraries/XMCLib/inc\xmc_usic.h ****  *      \b Range: @ref XMC_USIC_CH_STATUS_OK if baudrate is successfully configured,
 682:C:/Workspace/DAVE-4.4.2-64Bit/xmc1400-getstarted-optiga-trust-m/Libraries/XMCLib/inc\xmc_usic.h ****  *            @ref XMC_USIC_CH_STATUS_ERROR if desired baudrate or oversampling is invalid.
 683:C:/Workspace/DAVE-4.4.2-64Bit/xmc1400-getstarted-optiga-trust-m/Libraries/XMCLib/inc\xmc_usic.h ****  *
 684:C:/Workspace/DAVE-4.4.2-64Bit/xmc1400-getstarted-optiga-trust-m/Libraries/XMCLib/inc\xmc_usic.h ****  * \par<b>Description</b><br>
 685:C:/Workspace/DAVE-4.4.2-64Bit/xmc1400-getstarted-optiga-trust-m/Libraries/XMCLib/inc\xmc_usic.h ****  * Configures the baudrate of the USIC channel using the integer divider which restrics the achieva
 686:C:/Workspace/DAVE-4.4.2-64Bit/xmc1400-getstarted-optiga-trust-m/Libraries/XMCLib/inc\xmc_usic.h ****  * Baudrate is configured by considering the peripheral frequency and the desired baudrate.
 687:C:/Workspace/DAVE-4.4.2-64Bit/xmc1400-getstarted-optiga-trust-m/Libraries/XMCLib/inc\xmc_usic.h ****  * Optimum values of FDR->STEP and BRG->PDIV are calulated and used for generating the desired
 688:C:/Workspace/DAVE-4.4.2-64Bit/xmc1400-getstarted-optiga-trust-m/Libraries/XMCLib/inc\xmc_usic.h ****  * baudrate.
 689:C:/Workspace/DAVE-4.4.2-64Bit/xmc1400-getstarted-optiga-trust-m/Libraries/XMCLib/inc\xmc_usic.h ****  *
 690:C:/Workspace/DAVE-4.4.2-64Bit/xmc1400-getstarted-optiga-trust-m/Libraries/XMCLib/inc\xmc_usic.h ****  * \par<b>Related APIs:</b><BR>
 691:C:/Workspace/DAVE-4.4.2-64Bit/xmc1400-getstarted-optiga-trust-m/Libraries/XMCLib/inc\xmc_usic.h ****  * XMC_USIC_CH_SetStartTransmisionMode(), XMC_USIC_CH_SetInputSource() \n\n\n
 692:C:/Workspace/DAVE-4.4.2-64Bit/xmc1400-getstarted-optiga-trust-m/Libraries/XMCLib/inc\xmc_usic.h ****  */
 693:C:/Workspace/DAVE-4.4.2-64Bit/xmc1400-getstarted-optiga-trust-m/Libraries/XMCLib/inc\xmc_usic.h **** XMC_USIC_CH_STATUS_t XMC_USIC_CH_SetBaudrateEx(XMC_USIC_CH_t *const channel, int32_t rate, int32_t 
 694:C:/Workspace/DAVE-4.4.2-64Bit/xmc1400-getstarted-optiga-trust-m/Libraries/XMCLib/inc\xmc_usic.h **** 
 695:C:/Workspace/DAVE-4.4.2-64Bit/xmc1400-getstarted-optiga-trust-m/Libraries/XMCLib/inc\xmc_usic.h **** 
 696:C:/Workspace/DAVE-4.4.2-64Bit/xmc1400-getstarted-optiga-trust-m/Libraries/XMCLib/inc\xmc_usic.h **** /**
 697:C:/Workspace/DAVE-4.4.2-64Bit/xmc1400-getstarted-optiga-trust-m/Libraries/XMCLib/inc\xmc_usic.h ****  * @param  channel Pointer to USIC channel handler of type @ref XMC_USIC_CH_t \n
 698:C:/Workspace/DAVE-4.4.2-64Bit/xmc1400-getstarted-optiga-trust-m/Libraries/XMCLib/inc\xmc_usic.h ****  *           \b Range: @ref XMC_USIC0_CH0, @ref XMC_USIC0_CH1 to @ref XMC_USIC2_CH1 based on device
 699:C:/Workspace/DAVE-4.4.2-64Bit/xmc1400-getstarted-optiga-trust-m/Libraries/XMCLib/inc\xmc_usic.h ****  * @return baudrate currently used by USIC channel for .\n
 700:C:/Workspace/DAVE-4.4.2-64Bit/xmc1400-getstarted-optiga-trust-m/Libraries/XMCLib/inc\xmc_usic.h ****  *
 701:C:/Workspace/DAVE-4.4.2-64Bit/xmc1400-getstarted-optiga-trust-m/Libraries/XMCLib/inc\xmc_usic.h ****  * \par<b>Description</b><br>
 702:C:/Workspace/DAVE-4.4.2-64Bit/xmc1400-getstarted-optiga-trust-m/Libraries/XMCLib/inc\xmc_usic.h ****  * Calculates the current used baudrate (fCTQIN) of a USIC channel. \n\n
 703:C:/Workspace/DAVE-4.4.2-64Bit/xmc1400-getstarted-optiga-trust-m/Libraries/XMCLib/inc\xmc_usic.h ****  * @image html ../images/usic_brg.png	 
 704:C:/Workspace/DAVE-4.4.2-64Bit/xmc1400-getstarted-optiga-trust-m/Libraries/XMCLib/inc\xmc_usic.h ****  * @image latex ../images/usic_brg.png	 
 705:C:/Workspace/DAVE-4.4.2-64Bit/xmc1400-getstarted-optiga-trust-m/Libraries/XMCLib/inc\xmc_usic.h ****  *
 706:C:/Workspace/DAVE-4.4.2-64Bit/xmc1400-getstarted-optiga-trust-m/Libraries/XMCLib/inc\xmc_usic.h ****  * \par<b>Related APIs:</b><BR>
 707:C:/Workspace/DAVE-4.4.2-64Bit/xmc1400-getstarted-optiga-trust-m/Libraries/XMCLib/inc\xmc_usic.h ****  * XMC_USIC_CH_SetBaudrateMode(), XMC_USIC_CH_SetBaudrate(), XMC_USIC_CH_SetBaudrateEx() \n\n\n
 708:C:/Workspace/DAVE-4.4.2-64Bit/xmc1400-getstarted-optiga-trust-m/Libraries/XMCLib/inc\xmc_usic.h ****  */
 709:C:/Workspace/DAVE-4.4.2-64Bit/xmc1400-getstarted-optiga-trust-m/Libraries/XMCLib/inc\xmc_usic.h **** uint32_t XMC_USIC_CH_GetBaudrate(XMC_USIC_CH_t *const channel);
 710:C:/Workspace/DAVE-4.4.2-64Bit/xmc1400-getstarted-optiga-trust-m/Libraries/XMCLib/inc\xmc_usic.h **** 
 711:C:/Workspace/DAVE-4.4.2-64Bit/xmc1400-getstarted-optiga-trust-m/Libraries/XMCLib/inc\xmc_usic.h **** /**
 712:C:/Workspace/DAVE-4.4.2-64Bit/xmc1400-getstarted-optiga-trust-m/Libraries/XMCLib/inc\xmc_usic.h ****  * @param  channel Pointer to USIC channel handler of type @ref XMC_USIC_CH_t \n
 713:C:/Workspace/DAVE-4.4.2-64Bit/xmc1400-getstarted-optiga-trust-m/Libraries/XMCLib/inc\xmc_usic.h ****  *           \b Range: @ref XMC_USIC0_CH0, @ref XMC_USIC0_CH1 to @ref XMC_USIC2_CH1 based on device
 714:C:/Workspace/DAVE-4.4.2-64Bit/xmc1400-getstarted-optiga-trust-m/Libraries/XMCLib/inc\xmc_usic.h ****  * @return baudrate currently used by USIC channel.\n
 715:C:/Workspace/DAVE-4.4.2-64Bit/xmc1400-getstarted-optiga-trust-m/Libraries/XMCLib/inc\xmc_usic.h ****  *
 716:C:/Workspace/DAVE-4.4.2-64Bit/xmc1400-getstarted-optiga-trust-m/Libraries/XMCLib/inc\xmc_usic.h ****  * \par<b>Description</b><br>
 717:C:/Workspace/DAVE-4.4.2-64Bit/xmc1400-getstarted-optiga-trust-m/Libraries/XMCLib/inc\xmc_usic.h ****  * Calculates the current used SCLK frequency of a USIC channel. \n\n
 718:C:/Workspace/DAVE-4.4.2-64Bit/xmc1400-getstarted-optiga-trust-m/Libraries/XMCLib/inc\xmc_usic.h ****  * @image html ../images/usic_brg.png	 
 719:C:/Workspace/DAVE-4.4.2-64Bit/xmc1400-getstarted-optiga-trust-m/Libraries/XMCLib/inc\xmc_usic.h ****  * @image latex ../images/usic_brg.png	 
 720:C:/Workspace/DAVE-4.4.2-64Bit/xmc1400-getstarted-optiga-trust-m/Libraries/XMCLib/inc\xmc_usic.h ****  *
 721:C:/Workspace/DAVE-4.4.2-64Bit/xmc1400-getstarted-optiga-trust-m/Libraries/XMCLib/inc\xmc_usic.h ****  * \par<b>Related APIs:</b><BR>
 722:C:/Workspace/DAVE-4.4.2-64Bit/xmc1400-getstarted-optiga-trust-m/Libraries/XMCLib/inc\xmc_usic.h ****  * XMC_USIC_CH_SetBaudrateMode(), XMC_USIC_CH_SetBaudrate(), XMC_USIC_CH_SetBaudrateEx() \n\n\n
 723:C:/Workspace/DAVE-4.4.2-64Bit/xmc1400-getstarted-optiga-trust-m/Libraries/XMCLib/inc\xmc_usic.h ****  */
 724:C:/Workspace/DAVE-4.4.2-64Bit/xmc1400-getstarted-optiga-trust-m/Libraries/XMCLib/inc\xmc_usic.h **** uint32_t XMC_USIC_CH_GetSCLKFrequency(XMC_USIC_CH_t *const channel);
 725:C:/Workspace/DAVE-4.4.2-64Bit/xmc1400-getstarted-optiga-trust-m/Libraries/XMCLib/inc\xmc_usic.h **** 
 726:C:/Workspace/DAVE-4.4.2-64Bit/xmc1400-getstarted-optiga-trust-m/Libraries/XMCLib/inc\xmc_usic.h **** /**
 727:C:/Workspace/DAVE-4.4.2-64Bit/xmc1400-getstarted-optiga-trust-m/Libraries/XMCLib/inc\xmc_usic.h ****  * @param  channel Pointer to USIC channel handler of type @ref XMC_USIC_CH_t \n
 728:C:/Workspace/DAVE-4.4.2-64Bit/xmc1400-getstarted-optiga-trust-m/Libraries/XMCLib/inc\xmc_usic.h ****  *           \b Range: @ref XMC_USIC0_CH0, @ref XMC_USIC0_CH1 to @ref XMC_USIC2_CH1 based on device
 729:C:/Workspace/DAVE-4.4.2-64Bit/xmc1400-getstarted-optiga-trust-m/Libraries/XMCLib/inc\xmc_usic.h ****  * @return baudrate currently used by USIC channel.\n
 730:C:/Workspace/DAVE-4.4.2-64Bit/xmc1400-getstarted-optiga-trust-m/Libraries/XMCLib/inc\xmc_usic.h ****  *
 731:C:/Workspace/DAVE-4.4.2-64Bit/xmc1400-getstarted-optiga-trust-m/Libraries/XMCLib/inc\xmc_usic.h ****  * \par<b>Description</b><br>
 732:C:/Workspace/DAVE-4.4.2-64Bit/xmc1400-getstarted-optiga-trust-m/Libraries/XMCLib/inc\xmc_usic.h ****  * Calculates the current used MCLK frequency of a USIC channel. \n\n
 733:C:/Workspace/DAVE-4.4.2-64Bit/xmc1400-getstarted-optiga-trust-m/Libraries/XMCLib/inc\xmc_usic.h ****  * @image html ../images/usic_brg.png	 
 734:C:/Workspace/DAVE-4.4.2-64Bit/xmc1400-getstarted-optiga-trust-m/Libraries/XMCLib/inc\xmc_usic.h ****  * @image latex ../images/usic_brg.png	 
 735:C:/Workspace/DAVE-4.4.2-64Bit/xmc1400-getstarted-optiga-trust-m/Libraries/XMCLib/inc\xmc_usic.h ****  *
 736:C:/Workspace/DAVE-4.4.2-64Bit/xmc1400-getstarted-optiga-trust-m/Libraries/XMCLib/inc\xmc_usic.h ****  * \par<b>Related APIs:</b><BR>
 737:C:/Workspace/DAVE-4.4.2-64Bit/xmc1400-getstarted-optiga-trust-m/Libraries/XMCLib/inc\xmc_usic.h ****  * XMC_USIC_CH_SetBaudrateMode(), XMC_USIC_CH_SetBaudrate(), XMC_USIC_CH_SetBaudrateEx() \n\n\n
 738:C:/Workspace/DAVE-4.4.2-64Bit/xmc1400-getstarted-optiga-trust-m/Libraries/XMCLib/inc\xmc_usic.h ****  */
 739:C:/Workspace/DAVE-4.4.2-64Bit/xmc1400-getstarted-optiga-trust-m/Libraries/XMCLib/inc\xmc_usic.h **** uint32_t XMC_USIC_CH_GetMCLKFrequency(XMC_USIC_CH_t *const channel);
 740:C:/Workspace/DAVE-4.4.2-64Bit/xmc1400-getstarted-optiga-trust-m/Libraries/XMCLib/inc\xmc_usic.h **** 
 741:C:/Workspace/DAVE-4.4.2-64Bit/xmc1400-getstarted-optiga-trust-m/Libraries/XMCLib/inc\xmc_usic.h **** /**
 742:C:/Workspace/DAVE-4.4.2-64Bit/xmc1400-getstarted-optiga-trust-m/Libraries/XMCLib/inc\xmc_usic.h ****  * @param  channel Pointer to USIC channel handler of type @ref XMC_USIC_CH_t \n
 743:C:/Workspace/DAVE-4.4.2-64Bit/xmc1400-getstarted-optiga-trust-m/Libraries/XMCLib/inc\xmc_usic.h ****  * 				   \b Range: @ref XMC_USIC0_CH0, @ref XMC_USIC0_CH1 to @ref XMC_USIC2_CH1 based on device su
 744:C:/Workspace/DAVE-4.4.2-64Bit/xmc1400-getstarted-optiga-trust-m/Libraries/XMCLib/inc\xmc_usic.h ****  * @param  pdiv Desired divider for the external frequency input. \b Range: minimum value = 1, maxi
 745:C:/Workspace/DAVE-4.4.2-64Bit/xmc1400-getstarted-optiga-trust-m/Libraries/XMCLib/inc\xmc_usic.h ****  * @param  oversampling Required oversampling. The value indicates the number of time quanta for on
 746:C:/Workspace/DAVE-4.4.2-64Bit/xmc1400-getstarted-optiga-trust-m/Libraries/XMCLib/inc\xmc_usic.h ****  * 						This can be related to the number of samples for each logic state of the data signal. \n
 747:C:/Workspace/DAVE-4.4.2-64Bit/xmc1400-getstarted-optiga-trust-m/Libraries/XMCLib/inc\xmc_usic.h ****  * 						\b Range: 1 to 32. Value should be chosen based on the protocol used.
 748:C:/Workspace/DAVE-4.4.2-64Bit/xmc1400-getstarted-optiga-trust-m/Libraries/XMCLib/inc\xmc_usic.h ****  * @param  combination_mode Selects which edge of the synchronized(and optionally filtered) signal 
 749:C:/Workspace/DAVE-4.4.2-64Bit/xmc1400-getstarted-optiga-trust-m/Libraries/XMCLib/inc\xmc_usic.h ****  *                          output DXnT of the input stage.
 750:C:/Workspace/DAVE-4.4.2-64Bit/xmc1400-getstarted-optiga-trust-m/Libraries/XMCLib/inc\xmc_usic.h ****  *
 751:C:/Workspace/DAVE-4.4.2-64Bit/xmc1400-getstarted-optiga-trust-m/Libraries/XMCLib/inc\xmc_usic.h ****  * @return None
 752:C:/Workspace/DAVE-4.4.2-64Bit/xmc1400-getstarted-optiga-trust-m/Libraries/XMCLib/inc\xmc_usic.h ****  *
 753:C:/Workspace/DAVE-4.4.2-64Bit/xmc1400-getstarted-optiga-trust-m/Libraries/XMCLib/inc\xmc_usic.h ****  * \par<b>Description</b><br>
 754:C:/Workspace/DAVE-4.4.2-64Bit/xmc1400-getstarted-optiga-trust-m/Libraries/XMCLib/inc\xmc_usic.h ****  * Enables the external frequency input for the Baudrate Generator and configures the divider, over
 755:C:/Workspace/DAVE-4.4.2-64Bit/xmc1400-getstarted-optiga-trust-m/Libraries/XMCLib/inc\xmc_usic.h ****  * the combination mode of the USIC channel. \n\n
 756:C:/Workspace/DAVE-4.4.2-64Bit/xmc1400-getstarted-optiga-trust-m/Libraries/XMCLib/inc\xmc_usic.h ****  *
 757:C:/Workspace/DAVE-4.4.2-64Bit/xmc1400-getstarted-optiga-trust-m/Libraries/XMCLib/inc\xmc_usic.h ****  * \par<b>Related APIs:</b><BR>
 758:C:/Workspace/DAVE-4.4.2-64Bit/xmc1400-getstarted-optiga-trust-m/Libraries/XMCLib/inc\xmc_usic.h ****  * XMC_USIC_CH_SetBRGInputClockSource(), XMC_USIC_CH_SetInputTriggerCombinationMode() \n\n\n
 759:C:/Workspace/DAVE-4.4.2-64Bit/xmc1400-getstarted-optiga-trust-m/Libraries/XMCLib/inc\xmc_usic.h ****  */
 760:C:/Workspace/DAVE-4.4.2-64Bit/xmc1400-getstarted-optiga-trust-m/Libraries/XMCLib/inc\xmc_usic.h **** void XMC_USIC_CH_ConfigExternalInputSignalToBRG(XMC_USIC_CH_t *const channel,
 761:C:/Workspace/DAVE-4.4.2-64Bit/xmc1400-getstarted-optiga-trust-m/Libraries/XMCLib/inc\xmc_usic.h **** 		                                         const uint16_t pdiv,
 762:C:/Workspace/DAVE-4.4.2-64Bit/xmc1400-getstarted-optiga-trust-m/Libraries/XMCLib/inc\xmc_usic.h **** 												 const uint32_t oversampling,
 763:C:/Workspace/DAVE-4.4.2-64Bit/xmc1400-getstarted-optiga-trust-m/Libraries/XMCLib/inc\xmc_usic.h **** 												 const XMC_USIC_CH_INPUT_COMBINATION_MODE_t combination_mode);
 764:C:/Workspace/DAVE-4.4.2-64Bit/xmc1400-getstarted-optiga-trust-m/Libraries/XMCLib/inc\xmc_usic.h **** 
 765:C:/Workspace/DAVE-4.4.2-64Bit/xmc1400-getstarted-optiga-trust-m/Libraries/XMCLib/inc\xmc_usic.h **** /**
 766:C:/Workspace/DAVE-4.4.2-64Bit/xmc1400-getstarted-optiga-trust-m/Libraries/XMCLib/inc\xmc_usic.h ****  * @param  channel Pointer to USIC channel handler of type @ref XMC_USIC_CH_t \n
 767:C:/Workspace/DAVE-4.4.2-64Bit/xmc1400-getstarted-optiga-trust-m/Libraries/XMCLib/inc\xmc_usic.h ****  * 				   \b Range: @ref XMC_USIC0_CH0, @ref XMC_USIC0_CH1 to @ref XMC_USIC2_CH1 based on device su
 768:C:/Workspace/DAVE-4.4.2-64Bit/xmc1400-getstarted-optiga-trust-m/Libraries/XMCLib/inc\xmc_usic.h ****  * @param  input USIC channel input stage of type @ref XMC_USIC_CH_INPUT_t. \n
 769:C:/Workspace/DAVE-4.4.2-64Bit/xmc1400-getstarted-optiga-trust-m/Libraries/XMCLib/inc\xmc_usic.h ****  * 				 \b Range: @ref XMC_USIC_CH_INPUT_DX0 to @ref XMC_USIC_CH_INPUT_DX5
 770:C:/Workspace/DAVE-4.4.2-64Bit/xmc1400-getstarted-optiga-trust-m/Libraries/XMCLib/inc\xmc_usic.h ****  * @param  source Input source select for the input stage. The table below maps the enum value with
 771:C:/Workspace/DAVE-4.4.2-64Bit/xmc1400-getstarted-optiga-trust-m/Libraries/XMCLib/inc\xmc_usic.h ****  * <table><tr><td>0</td><td>DXnA</td></tr><tr><td>1</td><td>DXnB</td></tr><tr><td>2</td><td>DXnC</t
 772:C:/Workspace/DAVE-4.4.2-64Bit/xmc1400-getstarted-optiga-trust-m/Libraries/XMCLib/inc\xmc_usic.h ****  * <tr><td>4</td><td>DXnE</td></tr><tr><td>5</td><td>DXnF</td></tr><tr><td>6</td><td>DXnG</td></tr>
 773:C:/Workspace/DAVE-4.4.2-64Bit/xmc1400-getstarted-optiga-trust-m/Libraries/XMCLib/inc\xmc_usic.h ****  * </tr></table>
 774:C:/Workspace/DAVE-4.4.2-64Bit/xmc1400-getstarted-optiga-trust-m/Libraries/XMCLib/inc\xmc_usic.h ****  * @return None
 775:C:/Workspace/DAVE-4.4.2-64Bit/xmc1400-getstarted-optiga-trust-m/Libraries/XMCLib/inc\xmc_usic.h ****  *
 776:C:/Workspace/DAVE-4.4.2-64Bit/xmc1400-getstarted-optiga-trust-m/Libraries/XMCLib/inc\xmc_usic.h ****  * \par<b>Description</b><br>
 777:C:/Workspace/DAVE-4.4.2-64Bit/xmc1400-getstarted-optiga-trust-m/Libraries/XMCLib/inc\xmc_usic.h ****  * Selects the data source for USIC input stage.\n\n
 778:C:/Workspace/DAVE-4.4.2-64Bit/xmc1400-getstarted-optiga-trust-m/Libraries/XMCLib/inc\xmc_usic.h ****  * Selects the input data signal source among DXnA, DXnB.. DXnG for the input stage. The API can be
 779:C:/Workspace/DAVE-4.4.2-64Bit/xmc1400-getstarted-optiga-trust-m/Libraries/XMCLib/inc\xmc_usic.h ****  * like DX0CR, DX1CR etc. 
 780:C:/Workspace/DAVE-4.4.2-64Bit/xmc1400-getstarted-optiga-trust-m/Libraries/XMCLib/inc\xmc_usic.h ****  *  
 781:C:/Workspace/DAVE-4.4.2-64Bit/xmc1400-getstarted-optiga-trust-m/Libraries/XMCLib/inc\xmc_usic.h ****  * \par<b>Related APIs:</b><BR>
 782:C:/Workspace/DAVE-4.4.2-64Bit/xmc1400-getstarted-optiga-trust-m/Libraries/XMCLib/inc\xmc_usic.h ****  * XMC_USIC_CH_EnableInputInversion(), XMC_USIC_CH_EnableInputDigitalFilter(), XMC_USIC_CH_EnableIn
 783:C:/Workspace/DAVE-4.4.2-64Bit/xmc1400-getstarted-optiga-trust-m/Libraries/XMCLib/inc\xmc_usic.h ****  * XMC_USIC_CH_SetInputSamplingFreq()\n\n\n
 784:C:/Workspace/DAVE-4.4.2-64Bit/xmc1400-getstarted-optiga-trust-m/Libraries/XMCLib/inc\xmc_usic.h ****  */
 785:C:/Workspace/DAVE-4.4.2-64Bit/xmc1400-getstarted-optiga-trust-m/Libraries/XMCLib/inc\xmc_usic.h **** __STATIC_INLINE void XMC_USIC_CH_SetInputSource(XMC_USIC_CH_t *const channel, const XMC_USIC_CH_INP
 786:C:/Workspace/DAVE-4.4.2-64Bit/xmc1400-getstarted-optiga-trust-m/Libraries/XMCLib/inc\xmc_usic.h **** {
 787:C:/Workspace/DAVE-4.4.2-64Bit/xmc1400-getstarted-optiga-trust-m/Libraries/XMCLib/inc\xmc_usic.h ****   channel->DXCR[input] = (uint32_t)((channel->DXCR[input] & (uint32_t)(~USIC_CH_DXCR_DSEL_Msk)) |
 788:C:/Workspace/DAVE-4.4.2-64Bit/xmc1400-getstarted-optiga-trust-m/Libraries/XMCLib/inc\xmc_usic.h ****                          ((uint32_t)source << USIC_CH_DXCR_DSEL_Pos));
 789:C:/Workspace/DAVE-4.4.2-64Bit/xmc1400-getstarted-optiga-trust-m/Libraries/XMCLib/inc\xmc_usic.h **** }
 790:C:/Workspace/DAVE-4.4.2-64Bit/xmc1400-getstarted-optiga-trust-m/Libraries/XMCLib/inc\xmc_usic.h **** /**
 791:C:/Workspace/DAVE-4.4.2-64Bit/xmc1400-getstarted-optiga-trust-m/Libraries/XMCLib/inc\xmc_usic.h ****  * @param  channel Pointer to USIC channel handler of type @ref XMC_USIC_CH_t \n
 792:C:/Workspace/DAVE-4.4.2-64Bit/xmc1400-getstarted-optiga-trust-m/Libraries/XMCLib/inc\xmc_usic.h ****  * 				   \b Range: @ref XMC_USIC0_CH0, @ref XMC_USIC0_CH1 to @ref XMC_USIC2_CH1 based on device su
 793:C:/Workspace/DAVE-4.4.2-64Bit/xmc1400-getstarted-optiga-trust-m/Libraries/XMCLib/inc\xmc_usic.h ****  * @param  input USIC channel input stage of type @ref XMC_USIC_CH_INPUT_t. \n
 794:C:/Workspace/DAVE-4.4.2-64Bit/xmc1400-getstarted-optiga-trust-m/Libraries/XMCLib/inc\xmc_usic.h ****  * 				 \b Range: @ref XMC_USIC_CH_INPUT_DX0 to @ref XMC_USIC_CH_INPUT_DX5
 795:C:/Workspace/DAVE-4.4.2-64Bit/xmc1400-getstarted-optiga-trust-m/Libraries/XMCLib/inc\xmc_usic.h ****  * @return None
 796:C:/Workspace/DAVE-4.4.2-64Bit/xmc1400-getstarted-optiga-trust-m/Libraries/XMCLib/inc\xmc_usic.h ****  *
 797:C:/Workspace/DAVE-4.4.2-64Bit/xmc1400-getstarted-optiga-trust-m/Libraries/XMCLib/inc\xmc_usic.h ****  * \par<b>Description</b><br>
 798:C:/Workspace/DAVE-4.4.2-64Bit/xmc1400-getstarted-optiga-trust-m/Libraries/XMCLib/inc\xmc_usic.h ****  * The input of the data shift unit is controlled by the
 799:C:/Workspace/DAVE-4.4.2-64Bit/xmc1400-getstarted-optiga-trust-m/Libraries/XMCLib/inc\xmc_usic.h ****  * protocol pre-processor. \n\n
 800:C:/Workspace/DAVE-4.4.2-64Bit/xmc1400-getstarted-optiga-trust-m/Libraries/XMCLib/inc\xmc_usic.h ****  *
 801:C:/Workspace/DAVE-4.4.2-64Bit/xmc1400-getstarted-optiga-trust-m/Libraries/XMCLib/inc\xmc_usic.h ****  * \par<b>Related APIs:</b><BR>
 802:C:/Workspace/DAVE-4.4.2-64Bit/xmc1400-getstarted-optiga-trust-m/Libraries/XMCLib/inc\xmc_usic.h ****  * XMC_USIC_CH_ConnectInputDataShiftToDataInput()\n\n\n
 803:C:/Workspace/DAVE-4.4.2-64Bit/xmc1400-getstarted-optiga-trust-m/Libraries/XMCLib/inc\xmc_usic.h ****  */
 804:C:/Workspace/DAVE-4.4.2-64Bit/xmc1400-getstarted-optiga-trust-m/Libraries/XMCLib/inc\xmc_usic.h **** __STATIC_INLINE void XMC_USIC_CH_ConnectInputDataShiftToPPP(XMC_USIC_CH_t *const channel, const XMC
 805:C:/Workspace/DAVE-4.4.2-64Bit/xmc1400-getstarted-optiga-trust-m/Libraries/XMCLib/inc\xmc_usic.h **** {
 806:C:/Workspace/DAVE-4.4.2-64Bit/xmc1400-getstarted-optiga-trust-m/Libraries/XMCLib/inc\xmc_usic.h ****   channel->DXCR[input] &=(uint32_t)~USIC_CH_DXCR_INSW_Msk;
 807:C:/Workspace/DAVE-4.4.2-64Bit/xmc1400-getstarted-optiga-trust-m/Libraries/XMCLib/inc\xmc_usic.h **** }
 808:C:/Workspace/DAVE-4.4.2-64Bit/xmc1400-getstarted-optiga-trust-m/Libraries/XMCLib/inc\xmc_usic.h **** 
 809:C:/Workspace/DAVE-4.4.2-64Bit/xmc1400-getstarted-optiga-trust-m/Libraries/XMCLib/inc\xmc_usic.h **** /**
 810:C:/Workspace/DAVE-4.4.2-64Bit/xmc1400-getstarted-optiga-trust-m/Libraries/XMCLib/inc\xmc_usic.h ****  * @param  channel Pointer to USIC channel handler of type @ref XMC_USIC_CH_t \n
 811:C:/Workspace/DAVE-4.4.2-64Bit/xmc1400-getstarted-optiga-trust-m/Libraries/XMCLib/inc\xmc_usic.h ****  * 				   \b Range: @ref XMC_USIC0_CH0, @ref XMC_USIC0_CH1 to @ref XMC_USIC2_CH1 based on device su
 812:C:/Workspace/DAVE-4.4.2-64Bit/xmc1400-getstarted-optiga-trust-m/Libraries/XMCLib/inc\xmc_usic.h ****  * @param  input USIC channel input stage of type @ref XMC_USIC_CH_INPUT_t. \n
 813:C:/Workspace/DAVE-4.4.2-64Bit/xmc1400-getstarted-optiga-trust-m/Libraries/XMCLib/inc\xmc_usic.h ****  * 				 \b Range: @ref XMC_USIC_CH_INPUT_DX0 to @ref XMC_USIC_CH_INPUT_DX5
 814:C:/Workspace/DAVE-4.4.2-64Bit/xmc1400-getstarted-optiga-trust-m/Libraries/XMCLib/inc\xmc_usic.h ****  * @return None
 815:C:/Workspace/DAVE-4.4.2-64Bit/xmc1400-getstarted-optiga-trust-m/Libraries/XMCLib/inc\xmc_usic.h ****  *
 816:C:/Workspace/DAVE-4.4.2-64Bit/xmc1400-getstarted-optiga-trust-m/Libraries/XMCLib/inc\xmc_usic.h ****  * \par<b>Description</b><br>
 817:C:/Workspace/DAVE-4.4.2-64Bit/xmc1400-getstarted-optiga-trust-m/Libraries/XMCLib/inc\xmc_usic.h ****  * The input of the data shift unit is connected to
 818:C:/Workspace/DAVE-4.4.2-64Bit/xmc1400-getstarted-optiga-trust-m/Libraries/XMCLib/inc\xmc_usic.h ****  * the selected data input line. \n\n
 819:C:/Workspace/DAVE-4.4.2-64Bit/xmc1400-getstarted-optiga-trust-m/Libraries/XMCLib/inc\xmc_usic.h ****  *
 820:C:/Workspace/DAVE-4.4.2-64Bit/xmc1400-getstarted-optiga-trust-m/Libraries/XMCLib/inc\xmc_usic.h ****  * This setting is used
 821:C:/Workspace/DAVE-4.4.2-64Bit/xmc1400-getstarted-optiga-trust-m/Libraries/XMCLib/inc\xmc_usic.h ****  * if the signals are directly derived from an input
 822:C:/Workspace/DAVE-4.4.2-64Bit/xmc1400-getstarted-optiga-trust-m/Libraries/XMCLib/inc\xmc_usic.h ****  * pin without treatment by the protocol preprocessor.
 823:C:/Workspace/DAVE-4.4.2-64Bit/xmc1400-getstarted-optiga-trust-m/Libraries/XMCLib/inc\xmc_usic.h ****  * \par<b>Related APIs:</b><BR>
 824:C:/Workspace/DAVE-4.4.2-64Bit/xmc1400-getstarted-optiga-trust-m/Libraries/XMCLib/inc\xmc_usic.h ****  * XMC_USIC_CH_ConnectInputDataShiftToPPP()\n\n\n
 825:C:/Workspace/DAVE-4.4.2-64Bit/xmc1400-getstarted-optiga-trust-m/Libraries/XMCLib/inc\xmc_usic.h ****  */
 826:C:/Workspace/DAVE-4.4.2-64Bit/xmc1400-getstarted-optiga-trust-m/Libraries/XMCLib/inc\xmc_usic.h **** __STATIC_INLINE void XMC_USIC_CH_ConnectInputDataShiftToDataInput(XMC_USIC_CH_t *const channel, con
 827:C:/Workspace/DAVE-4.4.2-64Bit/xmc1400-getstarted-optiga-trust-m/Libraries/XMCLib/inc\xmc_usic.h **** {
 828:C:/Workspace/DAVE-4.4.2-64Bit/xmc1400-getstarted-optiga-trust-m/Libraries/XMCLib/inc\xmc_usic.h ****   channel->DXCR[input] |= USIC_CH_DXCR_INSW_Msk;
 829:C:/Workspace/DAVE-4.4.2-64Bit/xmc1400-getstarted-optiga-trust-m/Libraries/XMCLib/inc\xmc_usic.h **** }
 830:C:/Workspace/DAVE-4.4.2-64Bit/xmc1400-getstarted-optiga-trust-m/Libraries/XMCLib/inc\xmc_usic.h **** 
 831:C:/Workspace/DAVE-4.4.2-64Bit/xmc1400-getstarted-optiga-trust-m/Libraries/XMCLib/inc\xmc_usic.h **** /**
 832:C:/Workspace/DAVE-4.4.2-64Bit/xmc1400-getstarted-optiga-trust-m/Libraries/XMCLib/inc\xmc_usic.h ****  * @param  channel Pointer to USIC channel handler of type @ref XMC_USIC_CH_t \n
 833:C:/Workspace/DAVE-4.4.2-64Bit/xmc1400-getstarted-optiga-trust-m/Libraries/XMCLib/inc\xmc_usic.h ****  * 				   \b Range: @ref XMC_USIC0_CH0, @ref XMC_USIC0_CH1 to @ref XMC_USIC2_CH1 based on device su
 834:C:/Workspace/DAVE-4.4.2-64Bit/xmc1400-getstarted-optiga-trust-m/Libraries/XMCLib/inc\xmc_usic.h ****  * @param  input USIC channel input stage of type @ref XMC_USIC_CH_INPUT_t. \n
 835:C:/Workspace/DAVE-4.4.2-64Bit/xmc1400-getstarted-optiga-trust-m/Libraries/XMCLib/inc\xmc_usic.h ****  * 				 \b Range: @ref XMC_USIC_CH_INPUT_DX0 to @ref XMC_USIC_CH_INPUT_DX5
 836:C:/Workspace/DAVE-4.4.2-64Bit/xmc1400-getstarted-optiga-trust-m/Libraries/XMCLib/inc\xmc_usic.h ****  * @return None
 837:C:/Workspace/DAVE-4.4.2-64Bit/xmc1400-getstarted-optiga-trust-m/Libraries/XMCLib/inc\xmc_usic.h ****  *
 838:C:/Workspace/DAVE-4.4.2-64Bit/xmc1400-getstarted-optiga-trust-m/Libraries/XMCLib/inc\xmc_usic.h ****  * \par<b>Description</b><br>
 839:C:/Workspace/DAVE-4.4.2-64Bit/xmc1400-getstarted-optiga-trust-m/Libraries/XMCLib/inc\xmc_usic.h ****  * Enables input inversion for USIC channel input data signal. \n\n
 840:C:/Workspace/DAVE-4.4.2-64Bit/xmc1400-getstarted-optiga-trust-m/Libraries/XMCLib/inc\xmc_usic.h ****  *
 841:C:/Workspace/DAVE-4.4.2-64Bit/xmc1400-getstarted-optiga-trust-m/Libraries/XMCLib/inc\xmc_usic.h ****  * Polarity of the input source can be changed to provide inverted data input.
 842:C:/Workspace/DAVE-4.4.2-64Bit/xmc1400-getstarted-optiga-trust-m/Libraries/XMCLib/inc\xmc_usic.h ****  * \par<b>Related APIs:</b><BR>
 843:C:/Workspace/DAVE-4.4.2-64Bit/xmc1400-getstarted-optiga-trust-m/Libraries/XMCLib/inc\xmc_usic.h ****  * XMC_USIC_CH_DisableInputInversion()\n\n\n
 844:C:/Workspace/DAVE-4.4.2-64Bit/xmc1400-getstarted-optiga-trust-m/Libraries/XMCLib/inc\xmc_usic.h ****  */
 845:C:/Workspace/DAVE-4.4.2-64Bit/xmc1400-getstarted-optiga-trust-m/Libraries/XMCLib/inc\xmc_usic.h **** __STATIC_INLINE void XMC_USIC_CH_EnableInputInversion(XMC_USIC_CH_t *const channel, const XMC_USIC_
 846:C:/Workspace/DAVE-4.4.2-64Bit/xmc1400-getstarted-optiga-trust-m/Libraries/XMCLib/inc\xmc_usic.h **** {
 847:C:/Workspace/DAVE-4.4.2-64Bit/xmc1400-getstarted-optiga-trust-m/Libraries/XMCLib/inc\xmc_usic.h ****   channel->DXCR[input] |= USIC_CH_DXCR_DPOL_Msk;
 848:C:/Workspace/DAVE-4.4.2-64Bit/xmc1400-getstarted-optiga-trust-m/Libraries/XMCLib/inc\xmc_usic.h **** }
 849:C:/Workspace/DAVE-4.4.2-64Bit/xmc1400-getstarted-optiga-trust-m/Libraries/XMCLib/inc\xmc_usic.h **** 
 850:C:/Workspace/DAVE-4.4.2-64Bit/xmc1400-getstarted-optiga-trust-m/Libraries/XMCLib/inc\xmc_usic.h **** /**
 851:C:/Workspace/DAVE-4.4.2-64Bit/xmc1400-getstarted-optiga-trust-m/Libraries/XMCLib/inc\xmc_usic.h ****  * @param  channel Pointer to USIC channel handler of type @ref XMC_USIC_CH_t \n
 852:C:/Workspace/DAVE-4.4.2-64Bit/xmc1400-getstarted-optiga-trust-m/Libraries/XMCLib/inc\xmc_usic.h ****  * 				   \b Range: @ref XMC_USIC0_CH0, @ref XMC_USIC0_CH1 to @ref XMC_USIC2_CH1 based on device su
 853:C:/Workspace/DAVE-4.4.2-64Bit/xmc1400-getstarted-optiga-trust-m/Libraries/XMCLib/inc\xmc_usic.h ****  * @param  input USIC channel input stage of type @ref XMC_USIC_CH_INPUT_t. \n
 854:C:/Workspace/DAVE-4.4.2-64Bit/xmc1400-getstarted-optiga-trust-m/Libraries/XMCLib/inc\xmc_usic.h ****  * 				 \b Range: @ref XMC_USIC_CH_INPUT_DX0 to @ref XMC_USIC_CH_INPUT_DX5
 855:C:/Workspace/DAVE-4.4.2-64Bit/xmc1400-getstarted-optiga-trust-m/Libraries/XMCLib/inc\xmc_usic.h ****  * @return None
 856:C:/Workspace/DAVE-4.4.2-64Bit/xmc1400-getstarted-optiga-trust-m/Libraries/XMCLib/inc\xmc_usic.h ****  *
 857:C:/Workspace/DAVE-4.4.2-64Bit/xmc1400-getstarted-optiga-trust-m/Libraries/XMCLib/inc\xmc_usic.h ****  * \par<b>Description</b><br>
 858:C:/Workspace/DAVE-4.4.2-64Bit/xmc1400-getstarted-optiga-trust-m/Libraries/XMCLib/inc\xmc_usic.h ****  * Disables input inversion for USIC channel. \n\n
 859:C:/Workspace/DAVE-4.4.2-64Bit/xmc1400-getstarted-optiga-trust-m/Libraries/XMCLib/inc\xmc_usic.h ****  *
 860:C:/Workspace/DAVE-4.4.2-64Bit/xmc1400-getstarted-optiga-trust-m/Libraries/XMCLib/inc\xmc_usic.h ****  * Resets the input data polarity for the USIC channel input data signal.
 861:C:/Workspace/DAVE-4.4.2-64Bit/xmc1400-getstarted-optiga-trust-m/Libraries/XMCLib/inc\xmc_usic.h ****  * \par<b>Related APIs:</b><BR>
 862:C:/Workspace/DAVE-4.4.2-64Bit/xmc1400-getstarted-optiga-trust-m/Libraries/XMCLib/inc\xmc_usic.h ****  * XMC_USIC_CH_EnableInputInversion()\n\n\n
 863:C:/Workspace/DAVE-4.4.2-64Bit/xmc1400-getstarted-optiga-trust-m/Libraries/XMCLib/inc\xmc_usic.h ****  */
 864:C:/Workspace/DAVE-4.4.2-64Bit/xmc1400-getstarted-optiga-trust-m/Libraries/XMCLib/inc\xmc_usic.h **** __STATIC_INLINE void XMC_USIC_CH_DisableInputInversion(XMC_USIC_CH_t *const channel, const XMC_USIC
 865:C:/Workspace/DAVE-4.4.2-64Bit/xmc1400-getstarted-optiga-trust-m/Libraries/XMCLib/inc\xmc_usic.h **** {
 866:C:/Workspace/DAVE-4.4.2-64Bit/xmc1400-getstarted-optiga-trust-m/Libraries/XMCLib/inc\xmc_usic.h ****   channel->DXCR[input] &=(uint32_t)~USIC_CH_DXCR_DPOL_Msk;
 867:C:/Workspace/DAVE-4.4.2-64Bit/xmc1400-getstarted-optiga-trust-m/Libraries/XMCLib/inc\xmc_usic.h **** }
 868:C:/Workspace/DAVE-4.4.2-64Bit/xmc1400-getstarted-optiga-trust-m/Libraries/XMCLib/inc\xmc_usic.h **** 
 869:C:/Workspace/DAVE-4.4.2-64Bit/xmc1400-getstarted-optiga-trust-m/Libraries/XMCLib/inc\xmc_usic.h **** /**
 870:C:/Workspace/DAVE-4.4.2-64Bit/xmc1400-getstarted-optiga-trust-m/Libraries/XMCLib/inc\xmc_usic.h ****  * @param  channel Pointer to USIC channel handler of type @ref XMC_USIC_CH_t \n
 871:C:/Workspace/DAVE-4.4.2-64Bit/xmc1400-getstarted-optiga-trust-m/Libraries/XMCLib/inc\xmc_usic.h ****  * 				   \b Range: @ref XMC_USIC0_CH0, @ref XMC_USIC0_CH1 to @ref XMC_USIC2_CH1 based on device su
 872:C:/Workspace/DAVE-4.4.2-64Bit/xmc1400-getstarted-optiga-trust-m/Libraries/XMCLib/inc\xmc_usic.h ****  * @return None
 873:C:/Workspace/DAVE-4.4.2-64Bit/xmc1400-getstarted-optiga-trust-m/Libraries/XMCLib/inc\xmc_usic.h ****  *
 874:C:/Workspace/DAVE-4.4.2-64Bit/xmc1400-getstarted-optiga-trust-m/Libraries/XMCLib/inc\xmc_usic.h ****  * \par<b>Description</b><br>
 875:C:/Workspace/DAVE-4.4.2-64Bit/xmc1400-getstarted-optiga-trust-m/Libraries/XMCLib/inc\xmc_usic.h ****  * Enables delay compensation. \n\n
 876:C:/Workspace/DAVE-4.4.2-64Bit/xmc1400-getstarted-optiga-trust-m/Libraries/XMCLib/inc\xmc_usic.h ****  *
 877:C:/Workspace/DAVE-4.4.2-64Bit/xmc1400-getstarted-optiga-trust-m/Libraries/XMCLib/inc\xmc_usic.h ****  * Delay compensation can be applied to the receive path.
 878:C:/Workspace/DAVE-4.4.2-64Bit/xmc1400-getstarted-optiga-trust-m/Libraries/XMCLib/inc\xmc_usic.h ****  * \par<b>Related APIs:</b><BR>
 879:C:/Workspace/DAVE-4.4.2-64Bit/xmc1400-getstarted-optiga-trust-m/Libraries/XMCLib/inc\xmc_usic.h ****  * XMC_USIC_CH_DisableDelayCompensation()\n\n\n
 880:C:/Workspace/DAVE-4.4.2-64Bit/xmc1400-getstarted-optiga-trust-m/Libraries/XMCLib/inc\xmc_usic.h ****  */
 881:C:/Workspace/DAVE-4.4.2-64Bit/xmc1400-getstarted-optiga-trust-m/Libraries/XMCLib/inc\xmc_usic.h **** __STATIC_INLINE void XMC_USIC_CH_EnableDelayCompensation(XMC_USIC_CH_t *const channel)
 882:C:/Workspace/DAVE-4.4.2-64Bit/xmc1400-getstarted-optiga-trust-m/Libraries/XMCLib/inc\xmc_usic.h **** {
 883:C:/Workspace/DAVE-4.4.2-64Bit/xmc1400-getstarted-optiga-trust-m/Libraries/XMCLib/inc\xmc_usic.h ****   channel->DXCR[1U] |= USIC_CH_DX1CR_DCEN_Msk;
 884:C:/Workspace/DAVE-4.4.2-64Bit/xmc1400-getstarted-optiga-trust-m/Libraries/XMCLib/inc\xmc_usic.h **** }
 885:C:/Workspace/DAVE-4.4.2-64Bit/xmc1400-getstarted-optiga-trust-m/Libraries/XMCLib/inc\xmc_usic.h **** 
 886:C:/Workspace/DAVE-4.4.2-64Bit/xmc1400-getstarted-optiga-trust-m/Libraries/XMCLib/inc\xmc_usic.h **** /**
 887:C:/Workspace/DAVE-4.4.2-64Bit/xmc1400-getstarted-optiga-trust-m/Libraries/XMCLib/inc\xmc_usic.h ****  * @param  channel Pointer to USIC channel handler of type @ref XMC_USIC_CH_t \n
 888:C:/Workspace/DAVE-4.4.2-64Bit/xmc1400-getstarted-optiga-trust-m/Libraries/XMCLib/inc\xmc_usic.h ****  * 				   \b Range: @ref XMC_USIC0_CH0, @ref XMC_USIC0_CH1 to @ref XMC_USIC2_CH1 based on device su
 889:C:/Workspace/DAVE-4.4.2-64Bit/xmc1400-getstarted-optiga-trust-m/Libraries/XMCLib/inc\xmc_usic.h ****  * @return None
 890:C:/Workspace/DAVE-4.4.2-64Bit/xmc1400-getstarted-optiga-trust-m/Libraries/XMCLib/inc\xmc_usic.h ****  *
 891:C:/Workspace/DAVE-4.4.2-64Bit/xmc1400-getstarted-optiga-trust-m/Libraries/XMCLib/inc\xmc_usic.h ****  * \par<b>Description</b><br>
 892:C:/Workspace/DAVE-4.4.2-64Bit/xmc1400-getstarted-optiga-trust-m/Libraries/XMCLib/inc\xmc_usic.h ****  * Disables delay compensation.. \n\n
 893:C:/Workspace/DAVE-4.4.2-64Bit/xmc1400-getstarted-optiga-trust-m/Libraries/XMCLib/inc\xmc_usic.h ****  *
 894:C:/Workspace/DAVE-4.4.2-64Bit/xmc1400-getstarted-optiga-trust-m/Libraries/XMCLib/inc\xmc_usic.h ****  * \par<b>Related APIs:</b><BR>
 895:C:/Workspace/DAVE-4.4.2-64Bit/xmc1400-getstarted-optiga-trust-m/Libraries/XMCLib/inc\xmc_usic.h ****  * XMC_USIC_CH_EnableDelayCompensation()\n\n\n
 896:C:/Workspace/DAVE-4.4.2-64Bit/xmc1400-getstarted-optiga-trust-m/Libraries/XMCLib/inc\xmc_usic.h ****  */
 897:C:/Workspace/DAVE-4.4.2-64Bit/xmc1400-getstarted-optiga-trust-m/Libraries/XMCLib/inc\xmc_usic.h **** __STATIC_INLINE void XMC_USIC_CH_DisableDelayCompensation(XMC_USIC_CH_t *const channel)
 898:C:/Workspace/DAVE-4.4.2-64Bit/xmc1400-getstarted-optiga-trust-m/Libraries/XMCLib/inc\xmc_usic.h **** {
 899:C:/Workspace/DAVE-4.4.2-64Bit/xmc1400-getstarted-optiga-trust-m/Libraries/XMCLib/inc\xmc_usic.h ****   channel->DXCR[1U] &=(uint32_t)~USIC_CH_DX1CR_DCEN_Msk;
 900:C:/Workspace/DAVE-4.4.2-64Bit/xmc1400-getstarted-optiga-trust-m/Libraries/XMCLib/inc\xmc_usic.h **** }
 901:C:/Workspace/DAVE-4.4.2-64Bit/xmc1400-getstarted-optiga-trust-m/Libraries/XMCLib/inc\xmc_usic.h **** 
 902:C:/Workspace/DAVE-4.4.2-64Bit/xmc1400-getstarted-optiga-trust-m/Libraries/XMCLib/inc\xmc_usic.h **** /**
 903:C:/Workspace/DAVE-4.4.2-64Bit/xmc1400-getstarted-optiga-trust-m/Libraries/XMCLib/inc\xmc_usic.h ****  * @param  channel Pointer to USIC channel handler of type @ref XMC_USIC_CH_t \n
 904:C:/Workspace/DAVE-4.4.2-64Bit/xmc1400-getstarted-optiga-trust-m/Libraries/XMCLib/inc\xmc_usic.h ****  * 				   \b Range: @ref XMC_USIC0_CH0, @ref XMC_USIC0_CH1 to @ref XMC_USIC2_CH1 based on device su
 905:C:/Workspace/DAVE-4.4.2-64Bit/xmc1400-getstarted-optiga-trust-m/Libraries/XMCLib/inc\xmc_usic.h ****  * @param  input USIC channel input stage of type @ref XMC_USIC_CH_INPUT_t. \n
 906:C:/Workspace/DAVE-4.4.2-64Bit/xmc1400-getstarted-optiga-trust-m/Libraries/XMCLib/inc\xmc_usic.h ****  * 				 \b Range: @ref XMC_USIC_CH_INPUT_DX0 to @ref XMC_USIC_CH_INPUT_DX5
 907:C:/Workspace/DAVE-4.4.2-64Bit/xmc1400-getstarted-optiga-trust-m/Libraries/XMCLib/inc\xmc_usic.h ****  * @return None
 908:C:/Workspace/DAVE-4.4.2-64Bit/xmc1400-getstarted-optiga-trust-m/Libraries/XMCLib/inc\xmc_usic.h ****  *
 909:C:/Workspace/DAVE-4.4.2-64Bit/xmc1400-getstarted-optiga-trust-m/Libraries/XMCLib/inc\xmc_usic.h ****  * \par<b>Description</b><br>
 910:C:/Workspace/DAVE-4.4.2-64Bit/xmc1400-getstarted-optiga-trust-m/Libraries/XMCLib/inc\xmc_usic.h ****  * Enables the input digital filter for USIC channel input data signal. \n\n
 911:C:/Workspace/DAVE-4.4.2-64Bit/xmc1400-getstarted-optiga-trust-m/Libraries/XMCLib/inc\xmc_usic.h ****  * Input data signal from the selected multiplexer will be digitally filtered.
 912:C:/Workspace/DAVE-4.4.2-64Bit/xmc1400-getstarted-optiga-trust-m/Libraries/XMCLib/inc\xmc_usic.h ****  *
 913:C:/Workspace/DAVE-4.4.2-64Bit/xmc1400-getstarted-optiga-trust-m/Libraries/XMCLib/inc\xmc_usic.h ****  * \par<b>Related APIs:</b><BR>
 914:C:/Workspace/DAVE-4.4.2-64Bit/xmc1400-getstarted-optiga-trust-m/Libraries/XMCLib/inc\xmc_usic.h ****  * XMC_USIC_CH_DisableInputDigitalFilter()\n\n\n
 915:C:/Workspace/DAVE-4.4.2-64Bit/xmc1400-getstarted-optiga-trust-m/Libraries/XMCLib/inc\xmc_usic.h ****  */
 916:C:/Workspace/DAVE-4.4.2-64Bit/xmc1400-getstarted-optiga-trust-m/Libraries/XMCLib/inc\xmc_usic.h **** __STATIC_INLINE void XMC_USIC_CH_EnableInputDigitalFilter(XMC_USIC_CH_t *const channel, const XMC_U
 917:C:/Workspace/DAVE-4.4.2-64Bit/xmc1400-getstarted-optiga-trust-m/Libraries/XMCLib/inc\xmc_usic.h **** {
 918:C:/Workspace/DAVE-4.4.2-64Bit/xmc1400-getstarted-optiga-trust-m/Libraries/XMCLib/inc\xmc_usic.h ****   channel->DXCR[input] |= (uint32_t)USIC_CH_DXCR_DFEN_Msk;
 919:C:/Workspace/DAVE-4.4.2-64Bit/xmc1400-getstarted-optiga-trust-m/Libraries/XMCLib/inc\xmc_usic.h **** }
 920:C:/Workspace/DAVE-4.4.2-64Bit/xmc1400-getstarted-optiga-trust-m/Libraries/XMCLib/inc\xmc_usic.h **** /**
 921:C:/Workspace/DAVE-4.4.2-64Bit/xmc1400-getstarted-optiga-trust-m/Libraries/XMCLib/inc\xmc_usic.h ****  * @param  channel Pointer to USIC channel handler of type @ref XMC_USIC_CH_t \n
 922:C:/Workspace/DAVE-4.4.2-64Bit/xmc1400-getstarted-optiga-trust-m/Libraries/XMCLib/inc\xmc_usic.h ****  * 				   \b Range: @ref XMC_USIC0_CH0, @ref XMC_USIC0_CH1 to @ref XMC_USIC2_CH1 based on device su
 923:C:/Workspace/DAVE-4.4.2-64Bit/xmc1400-getstarted-optiga-trust-m/Libraries/XMCLib/inc\xmc_usic.h ****  * @param  input USIC channel input stage of type @ref XMC_USIC_CH_INPUT_t. \n
 924:C:/Workspace/DAVE-4.4.2-64Bit/xmc1400-getstarted-optiga-trust-m/Libraries/XMCLib/inc\xmc_usic.h ****  * 				 \b Range: @ref XMC_USIC_CH_INPUT_DX0 to @ref XMC_USIC_CH_INPUT_DX5
 925:C:/Workspace/DAVE-4.4.2-64Bit/xmc1400-getstarted-optiga-trust-m/Libraries/XMCLib/inc\xmc_usic.h ****  * @return None
 926:C:/Workspace/DAVE-4.4.2-64Bit/xmc1400-getstarted-optiga-trust-m/Libraries/XMCLib/inc\xmc_usic.h ****  *
 927:C:/Workspace/DAVE-4.4.2-64Bit/xmc1400-getstarted-optiga-trust-m/Libraries/XMCLib/inc\xmc_usic.h ****  * \par<b>Description</b><br>
 928:C:/Workspace/DAVE-4.4.2-64Bit/xmc1400-getstarted-optiga-trust-m/Libraries/XMCLib/inc\xmc_usic.h ****  * Disables the input digital filter for USIC channel input data signal. \n\n
 929:C:/Workspace/DAVE-4.4.2-64Bit/xmc1400-getstarted-optiga-trust-m/Libraries/XMCLib/inc\xmc_usic.h ****  * Input data signal from the selected multiplexer will not be digitally filtered.
 930:C:/Workspace/DAVE-4.4.2-64Bit/xmc1400-getstarted-optiga-trust-m/Libraries/XMCLib/inc\xmc_usic.h ****  *
 931:C:/Workspace/DAVE-4.4.2-64Bit/xmc1400-getstarted-optiga-trust-m/Libraries/XMCLib/inc\xmc_usic.h ****  * \par<b>Related APIs:</b><BR>
 932:C:/Workspace/DAVE-4.4.2-64Bit/xmc1400-getstarted-optiga-trust-m/Libraries/XMCLib/inc\xmc_usic.h ****  * XMC_USIC_CH_EnableInputDigitalFilter()\n\n\n
 933:C:/Workspace/DAVE-4.4.2-64Bit/xmc1400-getstarted-optiga-trust-m/Libraries/XMCLib/inc\xmc_usic.h ****  */
 934:C:/Workspace/DAVE-4.4.2-64Bit/xmc1400-getstarted-optiga-trust-m/Libraries/XMCLib/inc\xmc_usic.h **** __STATIC_INLINE void XMC_USIC_CH_DisableInputDigitalFilter(XMC_USIC_CH_t *const channel, const XMC_
 935:C:/Workspace/DAVE-4.4.2-64Bit/xmc1400-getstarted-optiga-trust-m/Libraries/XMCLib/inc\xmc_usic.h **** {
 936:C:/Workspace/DAVE-4.4.2-64Bit/xmc1400-getstarted-optiga-trust-m/Libraries/XMCLib/inc\xmc_usic.h ****   channel->DXCR[input] &=(uint32_t)~USIC_CH_DXCR_DFEN_Msk;
 937:C:/Workspace/DAVE-4.4.2-64Bit/xmc1400-getstarted-optiga-trust-m/Libraries/XMCLib/inc\xmc_usic.h **** }
 938:C:/Workspace/DAVE-4.4.2-64Bit/xmc1400-getstarted-optiga-trust-m/Libraries/XMCLib/inc\xmc_usic.h **** /**
 939:C:/Workspace/DAVE-4.4.2-64Bit/xmc1400-getstarted-optiga-trust-m/Libraries/XMCLib/inc\xmc_usic.h ****  * @param  channel Pointer to USIC channel handler of type @ref XMC_USIC_CH_t \n
 940:C:/Workspace/DAVE-4.4.2-64Bit/xmc1400-getstarted-optiga-trust-m/Libraries/XMCLib/inc\xmc_usic.h ****  * 				   \b Range: @ref XMC_USIC0_CH0, @ref XMC_USIC0_CH1 to @ref XMC_USIC2_CH1 based on device su
 941:C:/Workspace/DAVE-4.4.2-64Bit/xmc1400-getstarted-optiga-trust-m/Libraries/XMCLib/inc\xmc_usic.h ****  * @param  input USIC channel input stage of type @ref XMC_USIC_CH_INPUT_t. \n
 942:C:/Workspace/DAVE-4.4.2-64Bit/xmc1400-getstarted-optiga-trust-m/Libraries/XMCLib/inc\xmc_usic.h ****  * 				 \b Range: @ref XMC_USIC_CH_INPUT_DX0 to @ref XMC_USIC_CH_INPUT_DX5
 943:C:/Workspace/DAVE-4.4.2-64Bit/xmc1400-getstarted-optiga-trust-m/Libraries/XMCLib/inc\xmc_usic.h ****  * @return None
 944:C:/Workspace/DAVE-4.4.2-64Bit/xmc1400-getstarted-optiga-trust-m/Libraries/XMCLib/inc\xmc_usic.h ****  *
 945:C:/Workspace/DAVE-4.4.2-64Bit/xmc1400-getstarted-optiga-trust-m/Libraries/XMCLib/inc\xmc_usic.h ****  * \par<b>Description</b><br>
 946:C:/Workspace/DAVE-4.4.2-64Bit/xmc1400-getstarted-optiga-trust-m/Libraries/XMCLib/inc\xmc_usic.h ****  * Enables input synchronization for the USIC channel input data signal. \n\n
 947:C:/Workspace/DAVE-4.4.2-64Bit/xmc1400-getstarted-optiga-trust-m/Libraries/XMCLib/inc\xmc_usic.h ****  * Input data signal from the selected multiplexer will be synchronized with fPERIPH.
 948:C:/Workspace/DAVE-4.4.2-64Bit/xmc1400-getstarted-optiga-trust-m/Libraries/XMCLib/inc\xmc_usic.h ****  * A noisy signal can be synchronized and filtered by enabling the digital filter.
 949:C:/Workspace/DAVE-4.4.2-64Bit/xmc1400-getstarted-optiga-trust-m/Libraries/XMCLib/inc\xmc_usic.h ****  *
 950:C:/Workspace/DAVE-4.4.2-64Bit/xmc1400-getstarted-optiga-trust-m/Libraries/XMCLib/inc\xmc_usic.h ****  * \par<b>Related APIs:</b><BR>
 951:C:/Workspace/DAVE-4.4.2-64Bit/xmc1400-getstarted-optiga-trust-m/Libraries/XMCLib/inc\xmc_usic.h ****  * XMC_USIC_CH_DisableInputSync(), XMC_USIC_CH_EnableInputDigitalFilter()\n\n\n
 952:C:/Workspace/DAVE-4.4.2-64Bit/xmc1400-getstarted-optiga-trust-m/Libraries/XMCLib/inc\xmc_usic.h ****  */
 953:C:/Workspace/DAVE-4.4.2-64Bit/xmc1400-getstarted-optiga-trust-m/Libraries/XMCLib/inc\xmc_usic.h **** __STATIC_INLINE void XMC_USIC_CH_EnableInputSync(XMC_USIC_CH_t *const channel, const XMC_USIC_CH_IN
 954:C:/Workspace/DAVE-4.4.2-64Bit/xmc1400-getstarted-optiga-trust-m/Libraries/XMCLib/inc\xmc_usic.h **** {
 955:C:/Workspace/DAVE-4.4.2-64Bit/xmc1400-getstarted-optiga-trust-m/Libraries/XMCLib/inc\xmc_usic.h ****   channel->DXCR[input] |=(uint32_t)USIC_CH_DXCR_DSEN_Msk;
 956:C:/Workspace/DAVE-4.4.2-64Bit/xmc1400-getstarted-optiga-trust-m/Libraries/XMCLib/inc\xmc_usic.h **** }
 957:C:/Workspace/DAVE-4.4.2-64Bit/xmc1400-getstarted-optiga-trust-m/Libraries/XMCLib/inc\xmc_usic.h **** /**
 958:C:/Workspace/DAVE-4.4.2-64Bit/xmc1400-getstarted-optiga-trust-m/Libraries/XMCLib/inc\xmc_usic.h ****  * @param  channel Pointer to USIC channel handler of type @ref XMC_USIC_CH_t \n
 959:C:/Workspace/DAVE-4.4.2-64Bit/xmc1400-getstarted-optiga-trust-m/Libraries/XMCLib/inc\xmc_usic.h ****  * 				   \b Range: @ref XMC_USIC0_CH0, @ref XMC_USIC0_CH1 to @ref XMC_USIC2_CH1 based on device su
 960:C:/Workspace/DAVE-4.4.2-64Bit/xmc1400-getstarted-optiga-trust-m/Libraries/XMCLib/inc\xmc_usic.h ****  * @param  input USIC channel input stage of type @ref XMC_USIC_CH_INPUT_t. \n
 961:C:/Workspace/DAVE-4.4.2-64Bit/xmc1400-getstarted-optiga-trust-m/Libraries/XMCLib/inc\xmc_usic.h ****  * 				 \b Range: @ref XMC_USIC_CH_INPUT_DX0 to @ref XMC_USIC_CH_INPUT_DX5
 962:C:/Workspace/DAVE-4.4.2-64Bit/xmc1400-getstarted-optiga-trust-m/Libraries/XMCLib/inc\xmc_usic.h ****  * @return None
 963:C:/Workspace/DAVE-4.4.2-64Bit/xmc1400-getstarted-optiga-trust-m/Libraries/XMCLib/inc\xmc_usic.h ****  *
 964:C:/Workspace/DAVE-4.4.2-64Bit/xmc1400-getstarted-optiga-trust-m/Libraries/XMCLib/inc\xmc_usic.h ****  * \par<b>Description</b><br>
 965:C:/Workspace/DAVE-4.4.2-64Bit/xmc1400-getstarted-optiga-trust-m/Libraries/XMCLib/inc\xmc_usic.h ****  * Disables input synchronization for the USIC channel input data signal. \n\n
 966:C:/Workspace/DAVE-4.4.2-64Bit/xmc1400-getstarted-optiga-trust-m/Libraries/XMCLib/inc\xmc_usic.h ****  * Input data signal from the selected multiplexer will not be synchronized.
 967:C:/Workspace/DAVE-4.4.2-64Bit/xmc1400-getstarted-optiga-trust-m/Libraries/XMCLib/inc\xmc_usic.h ****  *
 968:C:/Workspace/DAVE-4.4.2-64Bit/xmc1400-getstarted-optiga-trust-m/Libraries/XMCLib/inc\xmc_usic.h ****  * \par<b>Related APIs:</b><BR>
 969:C:/Workspace/DAVE-4.4.2-64Bit/xmc1400-getstarted-optiga-trust-m/Libraries/XMCLib/inc\xmc_usic.h ****  * XMC_USIC_CH_EnableInputSync(), XMC_USIC_CH_DisableInputDigitalFilter() \n\n\n
 970:C:/Workspace/DAVE-4.4.2-64Bit/xmc1400-getstarted-optiga-trust-m/Libraries/XMCLib/inc\xmc_usic.h ****  */
 971:C:/Workspace/DAVE-4.4.2-64Bit/xmc1400-getstarted-optiga-trust-m/Libraries/XMCLib/inc\xmc_usic.h **** __STATIC_INLINE void XMC_USIC_CH_DisableInputSync(XMC_USIC_CH_t *const channel, const XMC_USIC_CH_I
 972:C:/Workspace/DAVE-4.4.2-64Bit/xmc1400-getstarted-optiga-trust-m/Libraries/XMCLib/inc\xmc_usic.h **** {
 973:C:/Workspace/DAVE-4.4.2-64Bit/xmc1400-getstarted-optiga-trust-m/Libraries/XMCLib/inc\xmc_usic.h ****   channel->DXCR[input] &=(uint32_t)~USIC_CH_DXCR_DSEN_Msk;
 974:C:/Workspace/DAVE-4.4.2-64Bit/xmc1400-getstarted-optiga-trust-m/Libraries/XMCLib/inc\xmc_usic.h **** }
 975:C:/Workspace/DAVE-4.4.2-64Bit/xmc1400-getstarted-optiga-trust-m/Libraries/XMCLib/inc\xmc_usic.h **** /**
 976:C:/Workspace/DAVE-4.4.2-64Bit/xmc1400-getstarted-optiga-trust-m/Libraries/XMCLib/inc\xmc_usic.h ****  * @param  channel Pointer to USIC channel handler of type @ref XMC_USIC_CH_t \n
 977:C:/Workspace/DAVE-4.4.2-64Bit/xmc1400-getstarted-optiga-trust-m/Libraries/XMCLib/inc\xmc_usic.h ****  * 				   \b Range: @ref XMC_USIC0_CH0, @ref XMC_USIC0_CH1 to @ref XMC_USIC2_CH1 based on device su
 978:C:/Workspace/DAVE-4.4.2-64Bit/xmc1400-getstarted-optiga-trust-m/Libraries/XMCLib/inc\xmc_usic.h ****  * @param  input USIC channel input stage of type @ref XMC_USIC_CH_INPUT_t. \n
 979:C:/Workspace/DAVE-4.4.2-64Bit/xmc1400-getstarted-optiga-trust-m/Libraries/XMCLib/inc\xmc_usic.h ****  * 				 \b Range: @ref XMC_USIC_CH_INPUT_DX0 to @ref XMC_USIC_CH_INPUT_DX5
 980:C:/Workspace/DAVE-4.4.2-64Bit/xmc1400-getstarted-optiga-trust-m/Libraries/XMCLib/inc\xmc_usic.h ****  * @param  sampling_freq Sampling frequency value of type \a XMC_USIC_CH_INPUT_SAMPLING_FREQ_t.
 981:C:/Workspace/DAVE-4.4.2-64Bit/xmc1400-getstarted-optiga-trust-m/Libraries/XMCLib/inc\xmc_usic.h ****  * @return None
 982:C:/Workspace/DAVE-4.4.2-64Bit/xmc1400-getstarted-optiga-trust-m/Libraries/XMCLib/inc\xmc_usic.h ****  *
 983:C:/Workspace/DAVE-4.4.2-64Bit/xmc1400-getstarted-optiga-trust-m/Libraries/XMCLib/inc\xmc_usic.h ****  * \par<b>Description</b><br>
 984:C:/Workspace/DAVE-4.4.2-64Bit/xmc1400-getstarted-optiga-trust-m/Libraries/XMCLib/inc\xmc_usic.h ****  * Sets sampling frequency for USIC channel input data signal. \n\n
 985:C:/Workspace/DAVE-4.4.2-64Bit/xmc1400-getstarted-optiga-trust-m/Libraries/XMCLib/inc\xmc_usic.h ****  *
 986:C:/Workspace/DAVE-4.4.2-64Bit/xmc1400-getstarted-optiga-trust-m/Libraries/XMCLib/inc\xmc_usic.h ****  * \par<b>Related APIs:</b><BR>
 987:C:/Workspace/DAVE-4.4.2-64Bit/xmc1400-getstarted-optiga-trust-m/Libraries/XMCLib/inc\xmc_usic.h ****  * XMC_USIC_CH_SetInputSource(), XMC_USIC_CH_EnableInputSync(), XMC_USIC_CH_EnableInputDigitalFilte
 988:C:/Workspace/DAVE-4.4.2-64Bit/xmc1400-getstarted-optiga-trust-m/Libraries/XMCLib/inc\xmc_usic.h ****  */
 989:C:/Workspace/DAVE-4.4.2-64Bit/xmc1400-getstarted-optiga-trust-m/Libraries/XMCLib/inc\xmc_usic.h **** __STATIC_INLINE void XMC_USIC_CH_SetInputSamplingFreq(XMC_USIC_CH_t *const channel,
 990:C:/Workspace/DAVE-4.4.2-64Bit/xmc1400-getstarted-optiga-trust-m/Libraries/XMCLib/inc\xmc_usic.h **** 		                                              const XMC_USIC_CH_INPUT_t input,
 991:C:/Workspace/DAVE-4.4.2-64Bit/xmc1400-getstarted-optiga-trust-m/Libraries/XMCLib/inc\xmc_usic.h **** 		                                              const XMC_USIC_CH_INPUT_SAMPLING_FREQ_t sampling_fr
 992:C:/Workspace/DAVE-4.4.2-64Bit/xmc1400-getstarted-optiga-trust-m/Libraries/XMCLib/inc\xmc_usic.h **** {
 993:C:/Workspace/DAVE-4.4.2-64Bit/xmc1400-getstarted-optiga-trust-m/Libraries/XMCLib/inc\xmc_usic.h ****   channel->DXCR[input] = (uint32_t)(channel->DXCR[input] & (~USIC_CH_DXCR_SFSEL_Msk)) |
 994:C:/Workspace/DAVE-4.4.2-64Bit/xmc1400-getstarted-optiga-trust-m/Libraries/XMCLib/inc\xmc_usic.h ****                          ((uint32_t)sampling_freq);
 995:C:/Workspace/DAVE-4.4.2-64Bit/xmc1400-getstarted-optiga-trust-m/Libraries/XMCLib/inc\xmc_usic.h **** }
 996:C:/Workspace/DAVE-4.4.2-64Bit/xmc1400-getstarted-optiga-trust-m/Libraries/XMCLib/inc\xmc_usic.h **** 
 997:C:/Workspace/DAVE-4.4.2-64Bit/xmc1400-getstarted-optiga-trust-m/Libraries/XMCLib/inc\xmc_usic.h **** /**
 998:C:/Workspace/DAVE-4.4.2-64Bit/xmc1400-getstarted-optiga-trust-m/Libraries/XMCLib/inc\xmc_usic.h ****  * @param  channel Pointer to USIC channel handler of type @ref XMC_USIC_CH_t \n
 999:C:/Workspace/DAVE-4.4.2-64Bit/xmc1400-getstarted-optiga-trust-m/Libraries/XMCLib/inc\xmc_usic.h ****  * 				   \b Range: @ref XMC_USIC0_CH0, @ref XMC_USIC0_CH1 to @ref XMC_USIC2_CH1 based on device su
1000:C:/Workspace/DAVE-4.4.2-64Bit/xmc1400-getstarted-optiga-trust-m/Libraries/XMCLib/inc\xmc_usic.h ****  * @param  input USIC channel input stage of type @ref XMC_USIC_CH_INPUT_t. \n
1001:C:/Workspace/DAVE-4.4.2-64Bit/xmc1400-getstarted-optiga-trust-m/Libraries/XMCLib/inc\xmc_usic.h ****  * 				 \b Range: @ref XMC_USIC_CH_INPUT_DX0 to @ref XMC_USIC_CH_INPUT_DX5
1002:C:/Workspace/DAVE-4.4.2-64Bit/xmc1400-getstarted-optiga-trust-m/Libraries/XMCLib/inc\xmc_usic.h ****  * @param  combination_mode Combination mode value of type \a XMC_USIC_CH_INPUT_COMBINATION_MODE_t.
1003:C:/Workspace/DAVE-4.4.2-64Bit/xmc1400-getstarted-optiga-trust-m/Libraries/XMCLib/inc\xmc_usic.h ****  * @return None
1004:C:/Workspace/DAVE-4.4.2-64Bit/xmc1400-getstarted-optiga-trust-m/Libraries/XMCLib/inc\xmc_usic.h ****  *
1005:C:/Workspace/DAVE-4.4.2-64Bit/xmc1400-getstarted-optiga-trust-m/Libraries/XMCLib/inc\xmc_usic.h ****  * \par<b>Description</b><br>
1006:C:/Workspace/DAVE-4.4.2-64Bit/xmc1400-getstarted-optiga-trust-m/Libraries/XMCLib/inc\xmc_usic.h ****  * Selects which edge of the synchronized signal DXnS activates the trigger output DXnT of the inpu
1007:C:/Workspace/DAVE-4.4.2-64Bit/xmc1400-getstarted-optiga-trust-m/Libraries/XMCLib/inc\xmc_usic.h ****  *
1008:C:/Workspace/DAVE-4.4.2-64Bit/xmc1400-getstarted-optiga-trust-m/Libraries/XMCLib/inc\xmc_usic.h ****  * \par<b>Related APIs:</b><BR>
1009:C:/Workspace/DAVE-4.4.2-64Bit/xmc1400-getstarted-optiga-trust-m/Libraries/XMCLib/inc\xmc_usic.h ****  * XMC_USIC_CH_SetInputSource(), XMC_USIC_CH_EnableInputSync(), XMC_USIC_CH_EnableInputDigitalFilte
1010:C:/Workspace/DAVE-4.4.2-64Bit/xmc1400-getstarted-optiga-trust-m/Libraries/XMCLib/inc\xmc_usic.h ****  */
1011:C:/Workspace/DAVE-4.4.2-64Bit/xmc1400-getstarted-optiga-trust-m/Libraries/XMCLib/inc\xmc_usic.h **** __STATIC_INLINE void XMC_USIC_CH_SetInputTriggerCombinationMode(XMC_USIC_CH_t *const channel,
1012:C:/Workspace/DAVE-4.4.2-64Bit/xmc1400-getstarted-optiga-trust-m/Libraries/XMCLib/inc\xmc_usic.h **** 		                                                        const XMC_USIC_CH_INPUT_t input,
1013:C:/Workspace/DAVE-4.4.2-64Bit/xmc1400-getstarted-optiga-trust-m/Libraries/XMCLib/inc\xmc_usic.h **** 		                                                        const XMC_USIC_CH_INPUT_COMBINATION_MODE_
1014:C:/Workspace/DAVE-4.4.2-64Bit/xmc1400-getstarted-optiga-trust-m/Libraries/XMCLib/inc\xmc_usic.h **** {
1015:C:/Workspace/DAVE-4.4.2-64Bit/xmc1400-getstarted-optiga-trust-m/Libraries/XMCLib/inc\xmc_usic.h ****   channel->DXCR[input] = (uint32_t)(channel->DXCR[input] & (~USIC_CH_DXCR_CM_Msk)) |
1016:C:/Workspace/DAVE-4.4.2-64Bit/xmc1400-getstarted-optiga-trust-m/Libraries/XMCLib/inc\xmc_usic.h ****                          ((uint32_t)combination_mode << USIC_CH_DXCR_CM_Pos);
1017:C:/Workspace/DAVE-4.4.2-64Bit/xmc1400-getstarted-optiga-trust-m/Libraries/XMCLib/inc\xmc_usic.h **** }
1018:C:/Workspace/DAVE-4.4.2-64Bit/xmc1400-getstarted-optiga-trust-m/Libraries/XMCLib/inc\xmc_usic.h **** 
1019:C:/Workspace/DAVE-4.4.2-64Bit/xmc1400-getstarted-optiga-trust-m/Libraries/XMCLib/inc\xmc_usic.h **** /**
1020:C:/Workspace/DAVE-4.4.2-64Bit/xmc1400-getstarted-optiga-trust-m/Libraries/XMCLib/inc\xmc_usic.h ****  * @param  channel Pointer to USIC channel handler of type @ref XMC_USIC_CH_t \n
1021:C:/Workspace/DAVE-4.4.2-64Bit/xmc1400-getstarted-optiga-trust-m/Libraries/XMCLib/inc\xmc_usic.h ****  * 				   \b Range: @ref XMC_USIC0_CH0, @ref XMC_USIC0_CH1 to @ref XMC_USIC2_CH1 based on device su
1022:C:/Workspace/DAVE-4.4.2-64Bit/xmc1400-getstarted-optiga-trust-m/Libraries/XMCLib/inc\xmc_usic.h ****  * @param  clock_source clock source for the BRG.
1023:C:/Workspace/DAVE-4.4.2-64Bit/xmc1400-getstarted-optiga-trust-m/Libraries/XMCLib/inc\xmc_usic.h ****  * @return None
1024:C:/Workspace/DAVE-4.4.2-64Bit/xmc1400-getstarted-optiga-trust-m/Libraries/XMCLib/inc\xmc_usic.h ****  *
1025:C:/Workspace/DAVE-4.4.2-64Bit/xmc1400-getstarted-optiga-trust-m/Libraries/XMCLib/inc\xmc_usic.h ****  * \par<b>Description</b><br>
1026:C:/Workspace/DAVE-4.4.2-64Bit/xmc1400-getstarted-optiga-trust-m/Libraries/XMCLib/inc\xmc_usic.h ****  * Sets the clock source for the BRG. \n\n
1027:C:/Workspace/DAVE-4.4.2-64Bit/xmc1400-getstarted-optiga-trust-m/Libraries/XMCLib/inc\xmc_usic.h ****  *
1028:C:/Workspace/DAVE-4.4.2-64Bit/xmc1400-getstarted-optiga-trust-m/Libraries/XMCLib/inc\xmc_usic.h ****  * \par<b>Related APIs:</b><BR>
1029:C:/Workspace/DAVE-4.4.2-64Bit/xmc1400-getstarted-optiga-trust-m/Libraries/XMCLib/inc\xmc_usic.h ****  * XMC_USIC_CH_SetInputTriggerCombinationMode(), XMC_USIC_CH_SetExternalClockBRGDivider()\n\n\n
1030:C:/Workspace/DAVE-4.4.2-64Bit/xmc1400-getstarted-optiga-trust-m/Libraries/XMCLib/inc\xmc_usic.h ****  */
1031:C:/Workspace/DAVE-4.4.2-64Bit/xmc1400-getstarted-optiga-trust-m/Libraries/XMCLib/inc\xmc_usic.h **** __STATIC_INLINE void XMC_USIC_CH_SetBRGInputClockSource(XMC_USIC_CH_t *const channel, const XMC_USI
1032:C:/Workspace/DAVE-4.4.2-64Bit/xmc1400-getstarted-optiga-trust-m/Libraries/XMCLib/inc\xmc_usic.h **** {
1033:C:/Workspace/DAVE-4.4.2-64Bit/xmc1400-getstarted-optiga-trust-m/Libraries/XMCLib/inc\xmc_usic.h ****   channel->BRG = (uint32_t)(channel->BRG & (~USIC_CH_BRG_CLKSEL_Msk)) | (uint32_t)(clock_source);
1034:C:/Workspace/DAVE-4.4.2-64Bit/xmc1400-getstarted-optiga-trust-m/Libraries/XMCLib/inc\xmc_usic.h **** }
1035:C:/Workspace/DAVE-4.4.2-64Bit/xmc1400-getstarted-optiga-trust-m/Libraries/XMCLib/inc\xmc_usic.h **** 
1036:C:/Workspace/DAVE-4.4.2-64Bit/xmc1400-getstarted-optiga-trust-m/Libraries/XMCLib/inc\xmc_usic.h **** /**
1037:C:/Workspace/DAVE-4.4.2-64Bit/xmc1400-getstarted-optiga-trust-m/Libraries/XMCLib/inc\xmc_usic.h ****  * @param channel Pointer to USIC channel handler of type @ref XMC_USIC_CH_t \n
1038:C:/Workspace/DAVE-4.4.2-64Bit/xmc1400-getstarted-optiga-trust-m/Libraries/XMCLib/inc\xmc_usic.h ****  * 				   \b Range: @ref XMC_USIC0_CH0, @ref XMC_USIC0_CH1 to @ref XMC_USIC2_CH1 based on device su
1039:C:/Workspace/DAVE-4.4.2-64Bit/xmc1400-getstarted-optiga-trust-m/Libraries/XMCLib/inc\xmc_usic.h ****  * @param data Data to be transmitted. \n
1040:C:/Workspace/DAVE-4.4.2-64Bit/xmc1400-getstarted-optiga-trust-m/Libraries/XMCLib/inc\xmc_usic.h ****  *           \b Range: 16bit unsigned data. minimum= 0, maximum= 65535
1041:C:/Workspace/DAVE-4.4.2-64Bit/xmc1400-getstarted-optiga-trust-m/Libraries/XMCLib/inc\xmc_usic.h ****  * @return None
1042:C:/Workspace/DAVE-4.4.2-64Bit/xmc1400-getstarted-optiga-trust-m/Libraries/XMCLib/inc\xmc_usic.h ****  *
1043:C:/Workspace/DAVE-4.4.2-64Bit/xmc1400-getstarted-optiga-trust-m/Libraries/XMCLib/inc\xmc_usic.h ****  * \par<b>Description</b><br>
1044:C:/Workspace/DAVE-4.4.2-64Bit/xmc1400-getstarted-optiga-trust-m/Libraries/XMCLib/inc\xmc_usic.h ****  * Writes data into the transmit buffer. \n\n
1045:C:/Workspace/DAVE-4.4.2-64Bit/xmc1400-getstarted-optiga-trust-m/Libraries/XMCLib/inc\xmc_usic.h ****  * The data provided is placed in TBUF[0U].
1046:C:/Workspace/DAVE-4.4.2-64Bit/xmc1400-getstarted-optiga-trust-m/Libraries/XMCLib/inc\xmc_usic.h ****  *
1047:C:/Workspace/DAVE-4.4.2-64Bit/xmc1400-getstarted-optiga-trust-m/Libraries/XMCLib/inc\xmc_usic.h ****  *
1048:C:/Workspace/DAVE-4.4.2-64Bit/xmc1400-getstarted-optiga-trust-m/Libraries/XMCLib/inc\xmc_usic.h ****  * \par<b>Related APIs:</b><BR>
1049:C:/Workspace/DAVE-4.4.2-64Bit/xmc1400-getstarted-optiga-trust-m/Libraries/XMCLib/inc\xmc_usic.h ****  * XMC_USIC_CH_WriteToTBUFTCI() \n\n\n
1050:C:/Workspace/DAVE-4.4.2-64Bit/xmc1400-getstarted-optiga-trust-m/Libraries/XMCLib/inc\xmc_usic.h ****  */
1051:C:/Workspace/DAVE-4.4.2-64Bit/xmc1400-getstarted-optiga-trust-m/Libraries/XMCLib/inc\xmc_usic.h **** __STATIC_INLINE void XMC_USIC_CH_WriteToTBUF(XMC_USIC_CH_t *const channel, const uint16_t data)
1052:C:/Workspace/DAVE-4.4.2-64Bit/xmc1400-getstarted-optiga-trust-m/Libraries/XMCLib/inc\xmc_usic.h **** {
1053:C:/Workspace/DAVE-4.4.2-64Bit/xmc1400-getstarted-optiga-trust-m/Libraries/XMCLib/inc\xmc_usic.h ****   channel->TBUF[0U] = data;
1054:C:/Workspace/DAVE-4.4.2-64Bit/xmc1400-getstarted-optiga-trust-m/Libraries/XMCLib/inc\xmc_usic.h **** }
1055:C:/Workspace/DAVE-4.4.2-64Bit/xmc1400-getstarted-optiga-trust-m/Libraries/XMCLib/inc\xmc_usic.h **** 
1056:C:/Workspace/DAVE-4.4.2-64Bit/xmc1400-getstarted-optiga-trust-m/Libraries/XMCLib/inc\xmc_usic.h **** /**
1057:C:/Workspace/DAVE-4.4.2-64Bit/xmc1400-getstarted-optiga-trust-m/Libraries/XMCLib/inc\xmc_usic.h ****  * @param channel Pointer to USIC channel handler of type @ref XMC_USIC_CH_t \n
1058:C:/Workspace/DAVE-4.4.2-64Bit/xmc1400-getstarted-optiga-trust-m/Libraries/XMCLib/inc\xmc_usic.h ****  * 				   \b Range: @ref XMC_USIC0_CH0, @ref XMC_USIC0_CH1 to @ref XMC_USIC2_CH1 based on device su
1059:C:/Workspace/DAVE-4.4.2-64Bit/xmc1400-getstarted-optiga-trust-m/Libraries/XMCLib/inc\xmc_usic.h ****  * @param data Data to be transmitted.
1060:C:/Workspace/DAVE-4.4.2-64Bit/xmc1400-getstarted-optiga-trust-m/Libraries/XMCLib/inc\xmc_usic.h ****  * @param transmit_control_information transmit control information to be configured while transmit
1061:C:/Workspace/DAVE-4.4.2-64Bit/xmc1400-getstarted-optiga-trust-m/Libraries/XMCLib/inc\xmc_usic.h ****  * 			\b Range: minimum= 0, maximum= 31.
1062:C:/Workspace/DAVE-4.4.2-64Bit/xmc1400-getstarted-optiga-trust-m/Libraries/XMCLib/inc\xmc_usic.h ****  * @return None
1063:C:/Workspace/DAVE-4.4.2-64Bit/xmc1400-getstarted-optiga-trust-m/Libraries/XMCLib/inc\xmc_usic.h ****  *
1064:C:/Workspace/DAVE-4.4.2-64Bit/xmc1400-getstarted-optiga-trust-m/Libraries/XMCLib/inc\xmc_usic.h ****  * \par<b>Description</b><br>
1065:C:/Workspace/DAVE-4.4.2-64Bit/xmc1400-getstarted-optiga-trust-m/Libraries/XMCLib/inc\xmc_usic.h ****  * Writes data to the transmit buffer in a control mode. \n\n
1066:C:/Workspace/DAVE-4.4.2-64Bit/xmc1400-getstarted-optiga-trust-m/Libraries/XMCLib/inc\xmc_usic.h ****  * When the respective control mode is enabled , this API can be used.
1067:C:/Workspace/DAVE-4.4.2-64Bit/xmc1400-getstarted-optiga-trust-m/Libraries/XMCLib/inc\xmc_usic.h ****  *
1068:C:/Workspace/DAVE-4.4.2-64Bit/xmc1400-getstarted-optiga-trust-m/Libraries/XMCLib/inc\xmc_usic.h ****  *
1069:C:/Workspace/DAVE-4.4.2-64Bit/xmc1400-getstarted-optiga-trust-m/Libraries/XMCLib/inc\xmc_usic.h ****  * \par<b>Related APIs:</b><BR>
1070:C:/Workspace/DAVE-4.4.2-64Bit/xmc1400-getstarted-optiga-trust-m/Libraries/XMCLib/inc\xmc_usic.h ****  * XMC_USIC_CH_WriteToTBUF() \n\n\n
1071:C:/Workspace/DAVE-4.4.2-64Bit/xmc1400-getstarted-optiga-trust-m/Libraries/XMCLib/inc\xmc_usic.h ****  */
1072:C:/Workspace/DAVE-4.4.2-64Bit/xmc1400-getstarted-optiga-trust-m/Libraries/XMCLib/inc\xmc_usic.h **** __STATIC_INLINE void XMC_USIC_CH_WriteToTBUFTCI(XMC_USIC_CH_t *const channel,
1073:C:/Workspace/DAVE-4.4.2-64Bit/xmc1400-getstarted-optiga-trust-m/Libraries/XMCLib/inc\xmc_usic.h ****                                              const uint16_t data,
1074:C:/Workspace/DAVE-4.4.2-64Bit/xmc1400-getstarted-optiga-trust-m/Libraries/XMCLib/inc\xmc_usic.h ****                                              const uint32_t transmit_control_information)
1075:C:/Workspace/DAVE-4.4.2-64Bit/xmc1400-getstarted-optiga-trust-m/Libraries/XMCLib/inc\xmc_usic.h **** {
1076:C:/Workspace/DAVE-4.4.2-64Bit/xmc1400-getstarted-optiga-trust-m/Libraries/XMCLib/inc\xmc_usic.h ****   channel->TBUF[transmit_control_information] = data;
1077:C:/Workspace/DAVE-4.4.2-64Bit/xmc1400-getstarted-optiga-trust-m/Libraries/XMCLib/inc\xmc_usic.h **** }
1078:C:/Workspace/DAVE-4.4.2-64Bit/xmc1400-getstarted-optiga-trust-m/Libraries/XMCLib/inc\xmc_usic.h **** 
1079:C:/Workspace/DAVE-4.4.2-64Bit/xmc1400-getstarted-optiga-trust-m/Libraries/XMCLib/inc\xmc_usic.h **** /**
1080:C:/Workspace/DAVE-4.4.2-64Bit/xmc1400-getstarted-optiga-trust-m/Libraries/XMCLib/inc\xmc_usic.h ****  * @param  channel Pointer to USIC channel handler of type @ref XMC_USIC_CH_t \n
1081:C:/Workspace/DAVE-4.4.2-64Bit/xmc1400-getstarted-optiga-trust-m/Libraries/XMCLib/inc\xmc_usic.h ****  * 				   \b Range: @ref XMC_USIC0_CH0, @ref XMC_USIC0_CH1 to @ref XMC_USIC2_CH1 based on device su
1082:C:/Workspace/DAVE-4.4.2-64Bit/xmc1400-getstarted-optiga-trust-m/Libraries/XMCLib/inc\xmc_usic.h ****  * @param  word_length Number of bits to be configured for a data word. \n
1083:C:/Workspace/DAVE-4.4.2-64Bit/xmc1400-getstarted-optiga-trust-m/Libraries/XMCLib/inc\xmc_usic.h ****  * 					   \b Range: minimum= 1, maximum= 16. \n
1084:C:/Workspace/DAVE-4.4.2-64Bit/xmc1400-getstarted-optiga-trust-m/Libraries/XMCLib/inc\xmc_usic.h ****  * 					   e.g: For word length of 8, \a word_length should be provided as 8.
1085:C:/Workspace/DAVE-4.4.2-64Bit/xmc1400-getstarted-optiga-trust-m/Libraries/XMCLib/inc\xmc_usic.h ****  * @return None
1086:C:/Workspace/DAVE-4.4.2-64Bit/xmc1400-getstarted-optiga-trust-m/Libraries/XMCLib/inc\xmc_usic.h ****  *
1087:C:/Workspace/DAVE-4.4.2-64Bit/xmc1400-getstarted-optiga-trust-m/Libraries/XMCLib/inc\xmc_usic.h ****  * \par<b>Description</b><br>
1088:C:/Workspace/DAVE-4.4.2-64Bit/xmc1400-getstarted-optiga-trust-m/Libraries/XMCLib/inc\xmc_usic.h ****  * Sets the data word length in number of bits. \n\n
1089:C:/Workspace/DAVE-4.4.2-64Bit/xmc1400-getstarted-optiga-trust-m/Libraries/XMCLib/inc\xmc_usic.h ****  * Sets the number of bits to represent a data word. Frame length should be a multiple of word leng
1090:C:/Workspace/DAVE-4.4.2-64Bit/xmc1400-getstarted-optiga-trust-m/Libraries/XMCLib/inc\xmc_usic.h ****  *
1091:C:/Workspace/DAVE-4.4.2-64Bit/xmc1400-getstarted-optiga-trust-m/Libraries/XMCLib/inc\xmc_usic.h ****  * \par<b>Related APIs:</b><BR>
1092:C:/Workspace/DAVE-4.4.2-64Bit/xmc1400-getstarted-optiga-trust-m/Libraries/XMCLib/inc\xmc_usic.h ****  * XMC_USIC_CH_SetFrameLength()\n\n\n
1093:C:/Workspace/DAVE-4.4.2-64Bit/xmc1400-getstarted-optiga-trust-m/Libraries/XMCLib/inc\xmc_usic.h ****  */
1094:C:/Workspace/DAVE-4.4.2-64Bit/xmc1400-getstarted-optiga-trust-m/Libraries/XMCLib/inc\xmc_usic.h **** __STATIC_INLINE void XMC_USIC_CH_SetWordLength(XMC_USIC_CH_t *const channel, const uint8_t word_len
1095:C:/Workspace/DAVE-4.4.2-64Bit/xmc1400-getstarted-optiga-trust-m/Libraries/XMCLib/inc\xmc_usic.h **** {
1096:C:/Workspace/DAVE-4.4.2-64Bit/xmc1400-getstarted-optiga-trust-m/Libraries/XMCLib/inc\xmc_usic.h ****   channel->SCTR = (uint32_t)(channel->SCTR & (~USIC_CH_SCTR_WLE_Msk)) |
1097:C:/Workspace/DAVE-4.4.2-64Bit/xmc1400-getstarted-optiga-trust-m/Libraries/XMCLib/inc\xmc_usic.h ****                   (uint32_t)(((uint32_t)word_length - 1UL)  << USIC_CH_SCTR_WLE_Pos);
1098:C:/Workspace/DAVE-4.4.2-64Bit/xmc1400-getstarted-optiga-trust-m/Libraries/XMCLib/inc\xmc_usic.h **** }
1099:C:/Workspace/DAVE-4.4.2-64Bit/xmc1400-getstarted-optiga-trust-m/Libraries/XMCLib/inc\xmc_usic.h **** 
